Archive member included because of file (symbol)

/home/leon/git/swp-report/iMX6_Platform_SDK/output/mx6sdl/lib/libsdk.a(ccm_pll.o)
                              /home/leon/git/swp-report/iMX6_Platform_SDK/output/mx6sdl/sdk_unit_test/sabre_ai_rev_b/obj/apps/common/platform_init.o (ccm_init)
/home/leon/git/swp-report/iMX6_Platform_SDK/output/mx6sdl/lib/libsdk.a(cortexA9.o)
                              /home/leon/git/swp-report/iMX6_Platform_SDK/output/mx6sdl/sdk_unit_test/sabre_ai_rev_b/obj/apps/common/platform_init.o (arm_set_interrupt_state)
/home/leon/git/swp-report/iMX6_Platform_SDK/output/mx6sdl/lib/libsdk.a(gic.o)
                              /home/leon/git/swp-report/iMX6_Platform_SDK/output/mx6sdl/sdk_unit_test/sabre_ai_rev_b/obj/apps/common/platform_init.o (gic_init)
/home/leon/git/swp-report/iMX6_Platform_SDK/output/mx6sdl/lib/libsdk.a(mmu.o)
                              /home/leon/git/swp-report/iMX6_Platform_SDK/output/mx6sdl/sdk_unit_test/sabre_ai_rev_b/obj/apps/common/platform_init.o (mmu_init)
/home/leon/git/swp-report/iMX6_Platform_SDK/output/mx6sdl/lib/libsdk.a(startup.o)
                              (_start)
/home/leon/git/swp-report/iMX6_Platform_SDK/output/mx6sdl/lib/libsdk.a(vectors.o)
                              /home/leon/git/swp-report/iMX6_Platform_SDK/output/mx6sdl/lib/libsdk.a(startup.o) (vectors)
/home/leon/git/swp-report/iMX6_Platform_SDK/output/mx6sdl/lib/libsdk.a(menu.o)
                              /home/leon/git/swp-report/iMX6_Platform_SDK/output/mx6sdl/sdk_unit_test/sabre_ai_rev_b/obj/apps/sdk_unit_test/src/all_test.o (menuitem_cmd_exitmenu)
/home/leon/git/swp-report/iMX6_Platform_SDK/output/mx6sdl/lib/libsdk.a(sdk_version.o)
                              /home/leon/git/swp-report/iMX6_Platform_SDK/output/mx6sdl/sdk_unit_test/sabre_ai_rev_b/obj/apps/common/print_version.o (k_sdk_version)
/home/leon/git/swp-report/iMX6_Platform_SDK/output/mx6sdl/lib/libsdk.a(system_util.o)
                              /home/leon/git/swp-report/iMX6_Platform_SDK/output/mx6sdl/lib/libsdk.a(startup.o) (_sys_exit)
/home/leon/git/swp-report/iMX6_Platform_SDK/output/mx6sdl/lib/libsdk.a(text_color.o)
                              /home/leon/git/swp-report/iMX6_Platform_SDK/output/mx6sdl/lib/libsdk.a(menu.o) (g_TextAttributeDefault)
/home/leon/git/swp-report/iMX6_Platform_SDK/output/mx6sdl/lib/libsdk.a(board_id.o)
                              /home/leon/git/swp-report/iMX6_Platform_SDK/output/mx6sdl/sdk_unit_test/sabre_ai_rev_b/obj/apps/common/print_version.o (chip_name)
/home/leon/git/swp-report/iMX6_Platform_SDK/output/mx6sdl/lib/libsdk.a(timer.o)
                              /home/leon/git/swp-report/iMX6_Platform_SDK/output/mx6sdl/sdk_unit_test/sabre_ai_rev_b/obj/apps/common/platform_init.o (system_time_init)
/home/leon/git/swp-report/iMX6_Platform_SDK/output/mx6sdl/lib/libsdk.a(imx_uart.o)
                              /home/leon/git/swp-report/iMX6_Platform_SDK/output/mx6sdl/sdk_unit_test/sabre_ai_rev_b/obj/apps/common/platform_init.o (uart_getchar)
/home/leon/git/swp-report/iMX6_Platform_SDK/output/mx6sdl/lib/libsdk.a(arm_abort.o)
                              /home/leon/git/swp-report/iMX6_Platform_SDK/output/mx6sdl/lib/libsdk.a(vectors.o) (data_abort_handler)
/home/leon/git/swp-report/iMX6_Platform_SDK/output/mx6sdl/lib/libsdk.a(interrupt.o)
                              /home/leon/git/swp-report/iMX6_Platform_SDK/output/mx6sdl/lib/libsdk.a(vectors.o) (IRQ_HDLR)
/home/leon/git/swp-report/iMX6_Platform_SDK/output/mx6sdl/lib/libsdk.a(epit.o)
                              /home/leon/git/swp-report/iMX6_Platform_SDK/output/mx6sdl/lib/libsdk.a(timer.o) (epit_get_compare_event)
/home/leon/git/swp-report/iMX6_Platform_SDK/output/mx6sdl/lib/libsdk.a(abort_handler.o)
                              /home/leon/git/swp-report/iMX6_Platform_SDK/output/mx6sdl/lib/libsdk.a(arm_abort.o) (dump_regs)
/home/leon/git/swp-report/iMX6_Platform_SDK/output/mx6sdl/lib/libboard_sabre_ai_rev_b.a(board_io_expanders.o)
                              /home/leon/git/swp-report/iMX6_Platform_SDK/output/mx6sdl/sdk_unit_test/sabre_ai_rev_b/obj/apps/common/platform_init.o (board_ioexpander_init)
/home/leon/git/swp-report/iMX6_Platform_SDK/output/mx6sdl/lib/libboard_sabre_ai_rev_b.a(hardware_modules.o)
                              /home/leon/git/swp-report/iMX6_Platform_SDK/output/mx6sdl/sdk_unit_test/sabre_ai_rev_b/obj/apps/common/platform_init.o (g_debug_uart_port)
/home/leon/git/swp-report/iMX6_Platform_SDK/output/mx6sdl/lib/libboard_sabre_ai_rev_b.a(dcd.o)
                              /home/leon/git/swp-report/iMX6_Platform_SDK/output/mx6sdl/sdk_unit_test/sabre_ai_rev_b/obj/apps/common/ivt.o (input_dcd_hdr)
/home/leon/git/swp-report/iMX6_Platform_SDK/output/mx6sdl/lib/libboard_sabre_ai_rev_b.a(i2c3_iomux_config.o)
                              /home/leon/git/swp-report/iMX6_Platform_SDK/output/mx6sdl/lib/libboard_sabre_ai_rev_b.a(board_io_expanders.o) (i2c3_iomux_config)
/home/leon/git/swp-report/iMX6_Platform_SDK/output/mx6sdl/lib/libboard_sabre_ai_rev_b.a(uart_iomux_config.o)
                              /home/leon/git/swp-report/iMX6_Platform_SDK/output/mx6sdl/lib/libsdk.a(imx_uart.o) (uart_iomux_config)
/home/leon/git/swp-report/iMX6_Platform_SDK/output/mx6sdl/lib/libboard_sabre_ai_rev_b.a(iomux_config.o)
                              /home/leon/git/swp-report/iMX6_Platform_SDK/output/mx6sdl/lib/libboard_sabre_ai_rev_b.a(uart_iomux_config.o) (uart1_iomux_config)
/home/leon/git/swp-report/iMX6_Platform_SDK/output/mx6sdl/lib/libboard_sabre_ai_rev_b.a(ipu1_iomux_config.o)
                              /home/leon/git/swp-report/iMX6_Platform_SDK/output/mx6sdl/lib/libboard_sabre_ai_rev_b.a(iomux_config.o) (ipu1_iomux_config)
/home/leon/git/swp-report/iMX6_Platform_SDK/output/mx6sdl/lib/libboard_sabre_ai_rev_b.a(mlb_iomux_config.o)
                              /home/leon/git/swp-report/iMX6_Platform_SDK/output/mx6sdl/lib/libboard_sabre_ai_rev_b.a(iomux_config.o) (mlb_iomux_config)
/home/leon/git/swp-report/iMX6_Platform_SDK/output/mx6sdl/lib/libboard_sabre_ai_rev_b.a(mmdc_iomux_config.o)
                              /home/leon/git/swp-report/iMX6_Platform_SDK/output/mx6sdl/lib/libboard_sabre_ai_rev_b.a(iomux_config.o) (mmdc_iomux_config)
/home/leon/git/swp-report/iMX6_Platform_SDK/output/mx6sdl/lib/libboard_sabre_ai_rev_b.a(pwm3_iomux_config.o)
                              /home/leon/git/swp-report/iMX6_Platform_SDK/output/mx6sdl/lib/libboard_sabre_ai_rev_b.a(iomux_config.o) (pwm3_iomux_config)
/home/leon/git/swp-report/iMX6_Platform_SDK/output/mx6sdl/lib/libboard_sabre_ai_rev_b.a(pwm4_iomux_config.o)
                              /home/leon/git/swp-report/iMX6_Platform_SDK/output/mx6sdl/lib/libboard_sabre_ai_rev_b.a(iomux_config.o) (pwm4_iomux_config)
/home/leon/git/swp-report/iMX6_Platform_SDK/output/mx6sdl/lib/libboard_sabre_ai_rev_b.a(sjc_iomux_config.o)
                              /home/leon/git/swp-report/iMX6_Platform_SDK/output/mx6sdl/lib/libboard_sabre_ai_rev_b.a(iomux_config.o) (sjc_iomux_config)
/home/leon/git/swp-report/iMX6_Platform_SDK/output/mx6sdl/lib/libboard_sabre_ai_rev_b.a(spdif_iomux_config.o)
                              /home/leon/git/swp-report/iMX6_Platform_SDK/output/mx6sdl/lib/libboard_sabre_ai_rev_b.a(iomux_config.o) (spdif_iomux_config)
/home/leon/git/swp-report/iMX6_Platform_SDK/output/mx6sdl/lib/libboard_sabre_ai_rev_b.a(uart2_iomux_config.o)
                              /home/leon/git/swp-report/iMX6_Platform_SDK/output/mx6sdl/lib/libboard_sabre_ai_rev_b.a(uart_iomux_config.o) (uart2_iomux_config)
/home/leon/git/swp-report/iMX6_Platform_SDK/output/mx6sdl/lib/libboard_sabre_ai_rev_b.a(uart3_iomux_config.o)
                              /home/leon/git/swp-report/iMX6_Platform_SDK/output/mx6sdl/lib/libboard_sabre_ai_rev_b.a(uart_iomux_config.o) (uart3_iomux_config)
/home/leon/git/swp-report/iMX6_Platform_SDK/output/mx6sdl/lib/libboard_sabre_ai_rev_b.a(uart4_iomux_config.o)
                              /home/leon/git/swp-report/iMX6_Platform_SDK/output/mx6sdl/lib/libboard_sabre_ai_rev_b.a(uart_iomux_config.o) (uart4_iomux_config)
/home/leon/git/swp-report/iMX6_Platform_SDK/output/mx6sdl/lib/libboard_sabre_ai_rev_b.a(usdhc1_iomux_config.o)
                              /home/leon/git/swp-report/iMX6_Platform_SDK/output/mx6sdl/lib/libboard_sabre_ai_rev_b.a(iomux_config.o) (usdhc1_iomux_config)
/home/leon/git/swp-report/iMX6_Platform_SDK/output/mx6sdl/lib/libboard_sabre_ai_rev_b.a(usdhc3_iomux_config.o)
                              /home/leon/git/swp-report/iMX6_Platform_SDK/output/mx6sdl/lib/libboard_sabre_ai_rev_b.a(iomux_config.o) (usdhc3_iomux_config)
/home/leon/git/swp-report/iMX6_Platform_SDK/output/mx6sdl/lib/libboard_sabre_ai_rev_b.a(wdog1_iomux_config.o)
                              /home/leon/git/swp-report/iMX6_Platform_SDK/output/mx6sdl/lib/libboard_sabre_ai_rev_b.a(iomux_config.o) (wdog1_iomux_config)
/home/leon/git/swp-report/iMX6_Platform_SDK/output/mx6sdl/lib/libboard_sabre_ai_rev_b.a(audmux_iomux_config.o)
                              /home/leon/git/swp-report/iMX6_Platform_SDK/output/mx6sdl/lib/libboard_sabre_ai_rev_b.a(iomux_config.o) (audmux_iomux_config)
/home/leon/git/swp-report/iMX6_Platform_SDK/output/mx6sdl/lib/libboard_sabre_ai_rev_b.a(ccm_iomux_config.o)
                              /home/leon/git/swp-report/iMX6_Platform_SDK/output/mx6sdl/lib/libboard_sabre_ai_rev_b.a(iomux_config.o) (ccm_iomux_config)
/home/leon/git/swp-report/iMX6_Platform_SDK/output/mx6sdl/lib/libboard_sabre_ai_rev_b.a(ecspi1_iomux_config.o)
                              /home/leon/git/swp-report/iMX6_Platform_SDK/output/mx6sdl/lib/libboard_sabre_ai_rev_b.a(iomux_config.o) (ecspi1_iomux_config)
/home/leon/git/swp-report/iMX6_Platform_SDK/output/mx6sdl/lib/libboard_sabre_ai_rev_b.a(eim_iomux_config.o)
                              /home/leon/git/swp-report/iMX6_Platform_SDK/output/mx6sdl/lib/libboard_sabre_ai_rev_b.a(iomux_config.o) (eim_iomux_config)
/home/leon/git/swp-report/iMX6_Platform_SDK/output/mx6sdl/lib/libboard_sabre_ai_rev_b.a(enet_iomux_config.o)
                              /home/leon/git/swp-report/iMX6_Platform_SDK/output/mx6sdl/lib/libboard_sabre_ai_rev_b.a(iomux_config.o) (enet_iomux_config)
/home/leon/git/swp-report/iMX6_Platform_SDK/output/mx6sdl/lib/libboard_sabre_ai_rev_b.a(esai_iomux_config.o)
                              /home/leon/git/swp-report/iMX6_Platform_SDK/output/mx6sdl/lib/libboard_sabre_ai_rev_b.a(iomux_config.o) (esai_iomux_config)
/home/leon/git/swp-report/iMX6_Platform_SDK/output/mx6sdl/lib/libboard_sabre_ai_rev_b.a(flexcan1_iomux_config.o)
                              /home/leon/git/swp-report/iMX6_Platform_SDK/output/mx6sdl/lib/libboard_sabre_ai_rev_b.a(iomux_config.o) (flexcan1_iomux_config)
/home/leon/git/swp-report/iMX6_Platform_SDK/output/mx6sdl/lib/libboard_sabre_ai_rev_b.a(flexcan2_iomux_config.o)
                              /home/leon/git/swp-report/iMX6_Platform_SDK/output/mx6sdl/lib/libboard_sabre_ai_rev_b.a(iomux_config.o) (flexcan2_iomux_config)
/home/leon/git/swp-report/iMX6_Platform_SDK/output/mx6sdl/lib/libboard_sabre_ai_rev_b.a(gpio1_iomux_config.o)
                              /home/leon/git/swp-report/iMX6_Platform_SDK/output/mx6sdl/lib/libboard_sabre_ai_rev_b.a(iomux_config.o) (gpio1_iomux_config)
/home/leon/git/swp-report/iMX6_Platform_SDK/output/mx6sdl/lib/libboard_sabre_ai_rev_b.a(gpio2_iomux_config.o)
                              /home/leon/git/swp-report/iMX6_Platform_SDK/output/mx6sdl/lib/libboard_sabre_ai_rev_b.a(iomux_config.o) (gpio2_iomux_config)
/home/leon/git/swp-report/iMX6_Platform_SDK/output/mx6sdl/lib/libboard_sabre_ai_rev_b.a(gpio4_iomux_config.o)
                              /home/leon/git/swp-report/iMX6_Platform_SDK/output/mx6sdl/lib/libboard_sabre_ai_rev_b.a(iomux_config.o) (gpio4_iomux_config)
/home/leon/git/swp-report/iMX6_Platform_SDK/output/mx6sdl/lib/libboard_sabre_ai_rev_b.a(gpio5_iomux_config.o)
                              /home/leon/git/swp-report/iMX6_Platform_SDK/output/mx6sdl/lib/libboard_sabre_ai_rev_b.a(iomux_config.o) (gpio5_iomux_config)
/home/leon/git/swp-report/iMX6_Platform_SDK/output/mx6sdl/lib/libboard_sabre_ai_rev_b.a(gpio6_iomux_config.o)
                              /home/leon/git/swp-report/iMX6_Platform_SDK/output/mx6sdl/lib/libboard_sabre_ai_rev_b.a(iomux_config.o) (gpio6_iomux_config)
/home/leon/git/swp-report/iMX6_Platform_SDK/output/mx6sdl/lib/libboard_sabre_ai_rev_b.a(gpmi_iomux_config.o)
                              /home/leon/git/swp-report/iMX6_Platform_SDK/output/mx6sdl/lib/libboard_sabre_ai_rev_b.a(iomux_config.o) (gpmi_iomux_config)
/home/leon/git/swp-report/iMX6_Platform_SDK/output/mx6sdl/lib/libboard_sabre_ai_rev_b.a(i2c2_iomux_config.o)
                              /home/leon/git/swp-report/iMX6_Platform_SDK/output/mx6sdl/lib/libboard_sabre_ai_rev_b.a(iomux_config.o) (i2c2_iomux_config)
/home/leon/git/swp-report/iMX6_Platform_SDK/output/mx6sdl/sdk_unit_test/sabre_ai_rev_b/libsdk_unit_test.a(gic_test.o)
                              /home/leon/git/swp-report/iMX6_Platform_SDK/output/mx6sdl/sdk_unit_test/sabre_ai_rev_b/obj/apps/sdk_unit_test/src/all_test.o (gic_test)
/home/leon/git/swp-report/iMX6_Platform_SDK/output/mx6sdl/sdk_unit_test/sabre_ai_rev_b/libsdk_unit_test.a(cpu_wp_test.o)
                              /home/leon/git/swp-report/iMX6_Platform_SDK/output/mx6sdl/sdk_unit_test/sabre_ai_rev_b/obj/apps/sdk_unit_test/src/all_test.o (cpu_wp_test)
/home/leon/git/swp-report/iMX6_Platform_SDK/output/mx6sdl/sdk_unit_test/sabre_ai_rev_b/libsdk_unit_test.a(multicore_test.o)
                              /home/leon/git/swp-report/iMX6_Platform_SDK/output/mx6sdl/sdk_unit_test/sabre_ai_rev_b/obj/apps/sdk_unit_test/src/all_test.o (multicore_test)
/home/leon/git/swp-report/iMX6_Platform_SDK/output/mx6sdl/sdk_unit_test/sabre_ai_rev_b/libsdk_unit_test.a(ocotp_test.o)
                              /home/leon/git/swp-report/iMX6_Platform_SDK/output/mx6sdl/sdk_unit_test/sabre_ai_rev_b/obj/apps/sdk_unit_test/src/all_test.o (ocotp_test)
/home/leon/git/swp-report/iMX6_Platform_SDK/output/mx6sdl/sdk_unit_test/sabre_ai_rev_b/libsdk_unit_test.a(i2c_test.o)
                              /home/leon/git/swp-report/iMX6_Platform_SDK/output/mx6sdl/sdk_unit_test/sabre_ai_rev_b/obj/apps/sdk_unit_test/src/all_test.o (i2c_test)
/home/leon/git/swp-report/iMX6_Platform_SDK/output/mx6sdl/sdk_unit_test/sabre_ai_rev_b/libsdk_unit_test.a(imx6_i2c_device.o)
                              /home/leon/git/swp-report/iMX6_Platform_SDK/output/mx6sdl/sdk_unit_test/sabre_ai_rev_b/libsdk_unit_test.a(i2c_test.o) (i2c_imx6_slave_test)
/home/leon/git/swp-report/iMX6_Platform_SDK/output/mx6sdl/sdk_unit_test/sabre_ai_rev_b/libsdk_unit_test.a(snvs_rtc_test.o)
                              /home/leon/git/swp-report/iMX6_Platform_SDK/output/mx6sdl/sdk_unit_test/sabre_ai_rev_b/obj/apps/sdk_unit_test/src/all_test.o (snvs_rtc_test)
/home/leon/git/swp-report/iMX6_Platform_SDK/output/mx6sdl/sdk_unit_test/sabre_ai_rev_b/libsdk_unit_test.a(snvs_srtc_test.o)
                              /home/leon/git/swp-report/iMX6_Platform_SDK/output/mx6sdl/sdk_unit_test/sabre_ai_rev_b/obj/apps/sdk_unit_test/src/all_test.o (snvs_srtc_test)
/home/leon/git/swp-report/iMX6_Platform_SDK/output/mx6sdl/sdk_unit_test/sabre_ai_rev_b/libsdk_unit_test.a(tempmon_test.o)
                              /home/leon/git/swp-report/iMX6_Platform_SDK/output/mx6sdl/sdk_unit_test/sabre_ai_rev_b/obj/apps/sdk_unit_test/src/all_test.o (tempmon_test)
/home/leon/git/swp-report/iMX6_Platform_SDK/output/mx6sdl/sdk_unit_test/sabre_ai_rev_b/libsdk_unit_test.a(sdma_test.o)
                              /home/leon/git/swp-report/iMX6_Platform_SDK/output/mx6sdl/sdk_unit_test/sabre_ai_rev_b/obj/apps/sdk_unit_test/src/all_test.o (sdma_test)
/home/leon/git/swp-report/iMX6_Platform_SDK/output/mx6sdl/sdk_unit_test/sabre_ai_rev_b/libsdk_unit_test.a(spi_lpb.o)
                              /home/leon/git/swp-report/iMX6_Platform_SDK/output/mx6sdl/sdk_unit_test/sabre_ai_rev_b/libsdk_unit_test.a(sdma_test.o) (ecspi_shp_test)
/home/leon/git/swp-report/iMX6_Platform_SDK/output/mx6sdl/sdk_unit_test/sabre_ai_rev_b/libsdk_unit_test.a(uart_loopback.o)
                              /home/leon/git/swp-report/iMX6_Platform_SDK/output/mx6sdl/sdk_unit_test/sabre_ai_rev_b/libsdk_unit_test.a(sdma_test.o) (uart_app_test)
/home/leon/git/swp-report/iMX6_Platform_SDK/output/mx6sdl/sdk_unit_test/sabre_ai_rev_b/libsdk_unit_test.a(epit_test.o)
                              /home/leon/git/swp-report/iMX6_Platform_SDK/output/mx6sdl/sdk_unit_test/sabre_ai_rev_b/obj/apps/sdk_unit_test/src/all_test.o (epit_test)
/home/leon/git/swp-report/iMX6_Platform_SDK/output/mx6sdl/sdk_unit_test/sabre_ai_rev_b/libsdk_unit_test.a(gpt_test.o)
                              /home/leon/git/swp-report/iMX6_Platform_SDK/output/mx6sdl/sdk_unit_test/sabre_ai_rev_b/obj/apps/sdk_unit_test/src/all_test.o (gpt_test)
/home/leon/git/swp-report/iMX6_Platform_SDK/output/mx6sdl/sdk_unit_test/sabre_ai_rev_b/libsdk_unit_test.a(timer_test.o)
                              /home/leon/git/swp-report/iMX6_Platform_SDK/output/mx6sdl/sdk_unit_test/sabre_ai_rev_b/obj/apps/sdk_unit_test/src/all_test.o (microseconds_test)
/home/leon/git/swp-report/iMX6_Platform_SDK/output/mx6sdl/sdk_unit_test/sabre_ai_rev_b/libsdk_unit_test.a(uart_test.o)
                              /home/leon/git/swp-report/iMX6_Platform_SDK/output/mx6sdl/sdk_unit_test/sabre_ai_rev_b/obj/apps/sdk_unit_test/src/all_test.o (uart_test)
/home/leon/git/swp-report/iMX6_Platform_SDK/output/mx6sdl/sdk_unit_test/sabre_ai_rev_b/libsdk_unit_test.a(usdhc_test.o)
                              /home/leon/git/swp-report/iMX6_Platform_SDK/output/mx6sdl/sdk_unit_test/sabre_ai_rev_b/obj/apps/sdk_unit_test/src/all_test.o (usdhc_test)
/home/leon/git/swp-report/iMX6_Platform_SDK/output/mx6sdl/sdk_unit_test/sabre_ai_rev_b/libsdk_unit_test.a(pwm_test.o)
                              /home/leon/git/swp-report/iMX6_Platform_SDK/output/mx6sdl/sdk_unit_test/sabre_ai_rev_b/obj/apps/sdk_unit_test/src/all_test.o (pwm_test)
/home/leon/git/swp-report/iMX6_Platform_SDK/output/mx6sdl/sdk_unit_test/sabre_ai_rev_b/libsdk_unit_test.a(watchdog_test.o)
                              /home/leon/git/swp-report/iMX6_Platform_SDK/output/mx6sdl/sdk_unit_test/sabre_ai_rev_b/obj/apps/sdk_unit_test/src/all_test.o (wdog_test)
/home/leon/git/swp-report/iMX6_Platform_SDK/output/mx6sdl/sdk_unit_test/sabre_ai_rev_b/libsdk_unit_test.a(hdmi_test.o)
                              /home/leon/git/swp-report/iMX6_Platform_SDK/output/mx6sdl/sdk_unit_test/sabre_ai_rev_b/obj/apps/sdk_unit_test/src/all_test.o (hdmi_test)
/home/leon/git/swp-report/iMX6_Platform_SDK/output/mx6sdl/sdk_unit_test/sabre_ai_rev_b/libsdk_unit_test.a(ips_display.o)
                              /home/leon/git/swp-report/iMX6_Platform_SDK/output/mx6sdl/sdk_unit_test/sabre_ai_rev_b/libsdk_unit_test.a(hdmi_test.o) (ips_hdmi_stream)
/home/leon/git/swp-report/iMX6_Platform_SDK/output/mx6sdl/sdk_unit_test/sabre_ai_rev_b/libsdk_unit_test.a(ips_test.o)
                              /home/leon/git/swp-report/iMX6_Platform_SDK/output/mx6sdl/sdk_unit_test/sabre_ai_rev_b/obj/apps/sdk_unit_test/src/all_test.o (ipu_test)
/home/leon/git/swp-report/iMX6_Platform_SDK/output/mx6sdl/sdk_unit_test/sabre_ai_rev_b/libsdk_unit_test.a(ipu_image.o)
                              /home/leon/git/swp-report/iMX6_Platform_SDK/output/mx6sdl/sdk_unit_test/sabre_ai_rev_b/libsdk_unit_test.a(ips_display.o) (load_centralized_image)
/home/leon/git/swp-report/iMX6_Platform_SDK/output/mx6sdl/sdk_unit_test/sabre_ai_rev_b/libsdk_unit_test.a(mipi_test.o)
                              /home/leon/git/swp-report/iMX6_Platform_SDK/output/mx6sdl/sdk_unit_test/sabre_ai_rev_b/obj/apps/sdk_unit_test/src/all_test.o (mipi_test)
/home/leon/git/swp-report/iMX6_Platform_SDK/output/mx6sdl/sdk_unit_test/sabre_ai_rev_b/libsdk_unit_test.a(can_test.o)
                              /home/leon/git/swp-report/iMX6_Platform_SDK/output/mx6sdl/sdk_unit_test/sabre_ai_rev_b/obj/apps/sdk_unit_test/src/all_test.o (flexcan_test)
/home/leon/git/swp-report/iMX6_Platform_SDK/output/mx6sdl/sdk_unit_test/sabre_ai_rev_b/libsdk_unit_test.a(usb_test.o)
                              /home/leon/git/swp-report/iMX6_Platform_SDK/output/mx6sdl/sdk_unit_test/sabre_ai_rev_b/obj/apps/sdk_unit_test/src/all_test.o (usb_test)
/home/leon/git/swp-report/iMX6_Platform_SDK/output/mx6sdl/sdk_unit_test/sabre_ai_rev_b/libsdk_unit_test.a(eim_test.o)
                              /home/leon/git/swp-report/iMX6_Platform_SDK/output/mx6sdl/sdk_unit_test/sabre_ai_rev_b/obj/apps/sdk_unit_test/src/all_test.o (eim_test)
/home/leon/git/swp-report/iMX6_Platform_SDK/output/mx6sdl/sdk_unit_test/sabre_ai_rev_b/libsdk_unit_test.a(pcie_test_rc.o)
                              /home/leon/git/swp-report/iMX6_Platform_SDK/output/mx6sdl/sdk_unit_test/sabre_ai_rev_b/obj/apps/sdk_unit_test/src/all_test.o (pcie_test)
/home/leon/git/swp-report/iMX6_Platform_SDK/output/mx6sdl/sdk_unit_test/sabre_ai_rev_b/libsdk_unit_test.a(spi_test.o)
                              /home/leon/git/swp-report/iMX6_Platform_SDK/output/mx6sdl/sdk_unit_test/sabre_ai_rev_b/obj/apps/sdk_unit_test/src/all_test.o (spi_test)
/home/leon/git/swp-report/iMX6_Platform_SDK/output/mx6sdl/sdk_unit_test/sabre_ai_rev_b/libsdk_unit_test.a(camera_test.o)
                              /home/leon/git/swp-report/iMX6_Platform_SDK/output/mx6sdl/sdk_unit_test/sabre_ai_rev_b/obj/apps/sdk_unit_test/src/all_test.o (camera_test)
/home/leon/git/swp-report/iMX6_Platform_SDK/output/mx6sdl/sdk_unit_test/sabre_ai_rev_b/libsdk_unit_test.a(csi_test_mode.o)
                              /home/leon/git/swp-report/iMX6_Platform_SDK/output/mx6sdl/sdk_unit_test/sabre_ai_rev_b/libsdk_unit_test.a(camera_test.o) (csi_test_mode)
/home/leon/git/swp-report/iMX6_Platform_SDK/output/mx6sdl/sdk_unit_test/sabre_ai_rev_b/libsdk_unit_test.a(accelerometer_test.o)
                              /home/leon/git/swp-report/iMX6_Platform_SDK/output/mx6sdl/sdk_unit_test/sabre_ai_rev_b/obj/apps/sdk_unit_test/src/all_test.o (accelerometer_test)
/home/leon/git/swp-report/iMX6_Platform_SDK/output/mx6sdl/sdk_unit_test/sabre_ai_rev_b/libsdk_unit_test.a(at24cxx.o)
                              /home/leon/git/swp-report/iMX6_Platform_SDK/output/mx6sdl/sdk_unit_test/sabre_ai_rev_b/libsdk_unit_test.a(i2c_test.o) (i2c_eeprom_at24cxx_test)
/home/leon/git/swp-report/iMX6_Platform_SDK/output/mx6sdl/sdk_unit_test/sabre_ai_rev_b/libsdk_unit_test.a(mem_2_mem.o)
                              /home/leon/git/swp-report/iMX6_Platform_SDK/output/mx6sdl/sdk_unit_test/sabre_ai_rev_b/libsdk_unit_test.a(sdma_test.o) (mem_2_mem_test)
/home/leon/git/swp-report/iMX6_Platform_SDK/output/mx6sdl/sdk_unit_test/sabre_ai_rev_b/libsdk_unit_test.a(pwm_output.o)
                              /home/leon/git/swp-report/iMX6_Platform_SDK/output/mx6sdl/sdk_unit_test/sabre_ai_rev_b/libsdk_unit_test.a(pwm_test.o) (pwm_output_test)
/home/leon/git/swp-report/iMX6_Platform_SDK/output/mx6sdl/sdk_unit_test/sabre_ai_rev_b/libsdk_unit_test.a(init_dma_data.o)
                              /home/leon/git/swp-report/iMX6_Platform_SDK/output/mx6sdl/sdk_unit_test/sabre_ai_rev_b/libsdk_unit_test.a(hdmi_test.o) (init_dma_data)
/home/leon/git/swp-report/iMX6_Platform_SDK/output/mx6sdl/sdk_unit_test/sabre_ai_rev_b/libsdk_unit_test.a(ips_combiner.o)
                              /home/leon/git/swp-report/iMX6_Platform_SDK/output/mx6sdl/sdk_unit_test/sabre_ai_rev_b/libsdk_unit_test.a(ips_test.o) (ips_combiner_test)
/home/leon/git/swp-report/iMX6_Platform_SDK/output/mx6sdl/sdk_unit_test/sabre_ai_rev_b/libsdk_unit_test.a(ips_csc.o)
                              /home/leon/git/swp-report/iMX6_Platform_SDK/output/mx6sdl/sdk_unit_test/sabre_ai_rev_b/libsdk_unit_test.a(ips_test.o) (ips_csc_test)
/home/leon/git/swp-report/iMX6_Platform_SDK/output/mx6sdl/sdk_unit_test/sabre_ai_rev_b/libsdk_unit_test.a(ips_resize.o)
                              /home/leon/git/swp-report/iMX6_Platform_SDK/output/mx6sdl/sdk_unit_test/sabre_ai_rev_b/libsdk_unit_test.a(ips_test.o) (ips_resize_test)
/home/leon/git/swp-report/iMX6_Platform_SDK/output/mx6sdl/sdk_unit_test/sabre_ai_rev_b/libsdk_unit_test.a(ips_rotate.o)
                              /home/leon/git/swp-report/iMX6_Platform_SDK/output/mx6sdl/sdk_unit_test/sabre_ai_rev_b/libsdk_unit_test.a(ips_test.o) (ips_rotate_test)
/home/leon/git/swp-report/iMX6_Platform_SDK/output/mx6sdl/sdk_unit_test/sabre_ai_rev_b/libsdk_unit_test.a(mipi_csi2_test.o)
                              /home/leon/git/swp-report/iMX6_Platform_SDK/output/mx6sdl/sdk_unit_test/sabre_ai_rev_b/libsdk_unit_test.a(mipi_test.o) (mipi_csi2_test)
/home/leon/git/swp-report/iMX6_Platform_SDK/output/mx6sdl/sdk_unit_test/sabre_ai_rev_b/libsdk_unit_test.a(mipi_dsi_test.o)
                              /home/leon/git/swp-report/iMX6_Platform_SDK/output/mx6sdl/sdk_unit_test/sabre_ai_rev_b/libsdk_unit_test.a(mipi_test.o) (mipi_dsi_test)
/home/leon/git/swp-report/iMX6_Platform_SDK/output/mx6sdl/sdk_unit_test/sabre_ai_rev_b/libsdk_unit_test.a(usb0_device_mouse_test.o)
                              /home/leon/git/swp-report/iMX6_Platform_SDK/output/mx6sdl/sdk_unit_test/sabre_ai_rev_b/libsdk_unit_test.a(usb_test.o) (usb0_device_mouse_test)
/home/leon/git/swp-report/iMX6_Platform_SDK/output/mx6sdl/sdk_unit_test/sabre_ai_rev_b/libsdk_unit_test.a(usb0_host_test.o)
                              /home/leon/git/swp-report/iMX6_Platform_SDK/output/mx6sdl/sdk_unit_test/sabre_ai_rev_b/libsdk_unit_test.a(usb_test.o) (usb0_host_test)
/home/leon/git/swp-report/iMX6_Platform_SDK/output/mx6sdl/sdk_unit_test/sabre_ai_rev_b/libsdk_unit_test.a(usb0_host_testmodes_test.o)
                              /home/leon/git/swp-report/iMX6_Platform_SDK/output/mx6sdl/sdk_unit_test/sabre_ai_rev_b/libsdk_unit_test.a(usb_test.o) (usb0_host_testmodes_test)
/home/leon/git/swp-report/iMX6_Platform_SDK/output/mx6sdl/sdk_unit_test/sabre_ai_rev_b/libsdk_unit_test.a(cfi_flash_api.o)
                              /home/leon/git/swp-report/iMX6_Platform_SDK/output/mx6sdl/sdk_unit_test/sabre_ai_rev_b/libsdk_unit_test.a(eim_test.o) (flash_write)
/home/leon/git/swp-report/iMX6_Platform_SDK/output/mx6sdl/sdk_unit_test/sabre_ai_rev_b/libsdk_unit_test.a(cfi_flash_driver.o)
                              /home/leon/git/swp-report/iMX6_Platform_SDK/output/mx6sdl/sdk_unit_test/sabre_ai_rev_b/libsdk_unit_test.a(eim_test.o) (flash_info)
/home/leon/git/swp-report/iMX6_Platform_SDK/output/mx6sdl/sdk_unit_test/sabre_ai_rev_b/libsdk_unit_test.a(spi_nor_numonyx.o)
                              /home/leon/git/swp-report/iMX6_Platform_SDK/output/mx6sdl/sdk_unit_test/sabre_ai_rev_b/libsdk_unit_test.a(spi_test.o) (spi_nor_query_numonyx)
/home/leon/git/swp-report/iMX6_Platform_SDK/output/mx6sdl/sdk_unit_test/sabre_ai_rev_b/libsdk_unit_test.a(adv7180_capture.o)
                              /home/leon/git/swp-report/iMX6_Platform_SDK/output/mx6sdl/sdk_unit_test/sabre_ai_rev_b/libsdk_unit_test.a(camera_test.o) (adv7180_capture)
/home/leon/riotboard/arm-2012.09/bin/../arm-none-eabi/lib//libm.a(lib_a-sf_cos.o)
                              /home/leon/git/swp-report/iMX6_Platform_SDK/output/mx6sdl/sdk_unit_test/sabre_ai_rev_b/libsdk_unit_test.a(usb0_device_mouse_test.o) (cosf)
/home/leon/riotboard/arm-2012.09/bin/../arm-none-eabi/lib//libm.a(lib_a-sf_fabs.o)
                              /home/leon/git/swp-report/iMX6_Platform_SDK/output/mx6sdl/sdk_unit_test/sabre_ai_rev_b/libsdk_unit_test.a(accelerometer_test.o) (fabsf)
/home/leon/riotboard/arm-2012.09/bin/../arm-none-eabi/lib//libm.a(lib_a-sf_modf.o)
                              /home/leon/git/swp-report/iMX6_Platform_SDK/output/mx6sdl/sdk_unit_test/sabre_ai_rev_b/libsdk_unit_test.a(accelerometer_test.o) (modff)
/home/leon/riotboard/arm-2012.09/bin/../arm-none-eabi/lib//libm.a(lib_a-sf_sin.o)
                              /home/leon/git/swp-report/iMX6_Platform_SDK/output/mx6sdl/sdk_unit_test/sabre_ai_rev_b/libsdk_unit_test.a(usb0_device_mouse_test.o) (sinf)
/home/leon/riotboard/arm-2012.09/bin/../arm-none-eabi/lib//libm.a(lib_a-ef_rem_pio2.o)
                              /home/leon/riotboard/arm-2012.09/bin/../arm-none-eabi/lib//libm.a(lib_a-sf_cos.o) (__ieee754_rem_pio2f)
/home/leon/riotboard/arm-2012.09/bin/../arm-none-eabi/lib//libm.a(lib_a-kf_cos.o)
                              /home/leon/riotboard/arm-2012.09/bin/../arm-none-eabi/lib//libm.a(lib_a-sf_cos.o) (__kernel_cosf)
/home/leon/riotboard/arm-2012.09/bin/../arm-none-eabi/lib//libm.a(lib_a-kf_rem_pio2.o)
                              /home/leon/riotboard/arm-2012.09/bin/../arm-none-eabi/lib//libm.a(lib_a-ef_rem_pio2.o) (__kernel_rem_pio2f)
/home/leon/riotboard/arm-2012.09/bin/../arm-none-eabi/lib//libm.a(lib_a-kf_sin.o)
                              /home/leon/riotboard/arm-2012.09/bin/../arm-none-eabi/lib//libm.a(lib_a-sf_cos.o) (__kernel_sinf)
/home/leon/riotboard/arm-2012.09/bin/../arm-none-eabi/lib//libm.a(lib_a-sf_floor.o)
                              /home/leon/riotboard/arm-2012.09/bin/../arm-none-eabi/lib//libm.a(lib_a-kf_rem_pio2.o) (floorf)
/home/leon/riotboard/arm-2012.09/bin/../arm-none-eabi/lib//libm.a(lib_a-sf_scalbn.o)
                              /home/leon/riotboard/arm-2012.09/bin/../arm-none-eabi/lib//libm.a(lib_a-kf_rem_pio2.o) (scalbnf)
/home/leon/riotboard/arm-2012.09/bin/../arm-none-eabi/lib//libm.a(lib_a-sf_copysign.o)
                              /home/leon/riotboard/arm-2012.09/bin/../arm-none-eabi/lib//libm.a(lib_a-sf_scalbn.o) (copysignf)
/home/leon/riotboard/arm-2012.09/bin/../arm-none-eabi/lib//libc.a(lib_a-assert.o)
                              /home/leon/git/swp-report/iMX6_Platform_SDK/output/mx6sdl/lib/libsdk.a(gic.o) (__assert_func)
/home/leon/riotboard/arm-2012.09/bin/../arm-none-eabi/lib//libc.a(lib_a-bzero.o)
                              /home/leon/git/swp-report/iMX6_Platform_SDK/output/mx6sdl/lib/libsdk.a(mmu.o) (bzero)
/home/leon/riotboard/arm-2012.09/bin/../arm-none-eabi/lib//libc.a(lib_a-fflush.o)
                              /home/leon/git/swp-report/iMX6_Platform_SDK/output/mx6sdl/sdk_unit_test/sabre_ai_rev_b/libsdk_unit_test.a(accelerometer_test.o) (fflush)
/home/leon/riotboard/arm-2012.09/bin/../arm-none-eabi/lib//libc.a(lib_a-findfp.o)
                              /home/leon/riotboard/arm-2012.09/bin/../arm-none-eabi/lib//libc.a(lib_a-fflush.o) (__sinit)
/home/leon/riotboard/arm-2012.09/bin/../arm-none-eabi/lib//libc.a(lib_a-fiprintf.o)
                              /home/leon/riotboard/arm-2012.09/bin/../arm-none-eabi/lib//libc.a(lib_a-assert.o) (fiprintf)
/home/leon/riotboard/arm-2012.09/bin/../arm-none-eabi/lib//libc.a(lib_a-fputc.o)
                              /home/leon/git/swp-report/iMX6_Platform_SDK/output/mx6sdl/lib/libsdk.a(menu.o) (fputc)
/home/leon/riotboard/arm-2012.09/bin/../arm-none-eabi/lib//libc.a(lib_a-fputs.o)
                              /home/leon/git/swp-report/iMX6_Platform_SDK/output/mx6sdl/sdk_unit_test/sabre_ai_rev_b/libsdk_unit_test.a(accelerometer_test.o) (fputs)
/home/leon/riotboard/arm-2012.09/bin/../arm-none-eabi/lib//libc.a(lib_a-freer.o)
                              /home/leon/riotboard/arm-2012.09/bin/../arm-none-eabi/lib//libc.a(lib_a-fflush.o) (_free_r)
/home/leon/riotboard/arm-2012.09/bin/../arm-none-eabi/lib//libc.a(lib_a-fvwrite.o)
                              /home/leon/riotboard/arm-2012.09/bin/../arm-none-eabi/lib//libc.a(lib_a-fputs.o) (__sfvwrite_r)
/home/leon/riotboard/arm-2012.09/bin/../arm-none-eabi/lib//libc.a(lib_a-fwalk.o)
                              /home/leon/riotboard/arm-2012.09/bin/../arm-none-eabi/lib//libc.a(lib_a-findfp.o) (_fwalk)
/home/leon/riotboard/arm-2012.09/bin/../arm-none-eabi/lib//libc.a(lib_a-impure.o)
                              /home/leon/riotboard/arm-2012.09/bin/../arm-none-eabi/lib//libc.a(lib_a-fflush.o) (_global_impure_ptr)
/home/leon/riotboard/arm-2012.09/bin/../arm-none-eabi/lib//libc.a(lib_a-init.o)
                              /home/leon/git/swp-report/iMX6_Platform_SDK/output/mx6sdl/lib/libsdk.a(startup.o) (__libc_init_array)
/home/leon/riotboard/arm-2012.09/bin/../arm-none-eabi/lib//libc.a(lib_a-malloc.o)
                              /home/leon/git/swp-report/iMX6_Platform_SDK/output/mx6sdl/lib/libsdk.a(system_util.o) (malloc)
/home/leon/riotboard/arm-2012.09/bin/../arm-none-eabi/lib//libc.a(lib_a-mallocr.o)
                              /home/leon/riotboard/arm-2012.09/bin/../arm-none-eabi/lib//libc.a(lib_a-findfp.o) (_malloc_r)
/home/leon/riotboard/arm-2012.09/bin/../arm-none-eabi/lib//libc.a(lib_a-memchr.o)
                              /home/leon/riotboard/arm-2012.09/bin/../arm-none-eabi/lib//libc.a(lib_a-fvwrite.o) (memchr)
/home/leon/riotboard/arm-2012.09/bin/../arm-none-eabi/lib//libc.a(lib_a-memcpy.o)
                              /home/leon/git/swp-report/iMX6_Platform_SDK/output/mx6sdl/lib/libsdk.a(menu.o) (memcpy)
/home/leon/riotboard/arm-2012.09/bin/../arm-none-eabi/lib//libc.a(lib_a-memmove.o)
                              /home/leon/riotboard/arm-2012.09/bin/../arm-none-eabi/lib//libc.a(lib_a-fvwrite.o) (memmove)
/home/leon/riotboard/arm-2012.09/bin/../arm-none-eabi/lib//libc.a(lib_a-memset.o)
                              /home/leon/git/swp-report/iMX6_Platform_SDK/output/mx6sdl/sdk_unit_test/sabre_ai_rev_b/obj/apps/common/print_version.o (memset)
/home/leon/riotboard/arm-2012.09/bin/../arm-none-eabi/lib//libc.a(lib_a-mlock.o)
                              /home/leon/riotboard/arm-2012.09/bin/../arm-none-eabi/lib//libc.a(lib_a-freer.o) (__malloc_lock)
/home/leon/riotboard/arm-2012.09/bin/../arm-none-eabi/lib//libc.a(lib_a-printf.o)
                              /home/leon/git/swp-report/iMX6_Platform_SDK/output/mx6sdl/sdk_unit_test/sabre_ai_rev_b/obj/apps/common/print_clock_info.o (printf)
/home/leon/riotboard/arm-2012.09/bin/../arm-none-eabi/lib//libc.a(lib_a-putc.o)
                              /home/leon/riotboard/arm-2012.09/bin/../arm-none-eabi/lib//libc.a(lib_a-fputc.o) (_putc_r)
/home/leon/riotboard/arm-2012.09/bin/../arm-none-eabi/lib//libc.a(lib_a-puts.o)
                              /home/leon/git/swp-report/iMX6_Platform_SDK/output/mx6sdl/sdk_unit_test/sabre_ai_rev_b/libsdk_unit_test.a(cfi_flash_api.o) (puts)
/home/leon/riotboard/arm-2012.09/bin/../arm-none-eabi/lib//libc.a(lib_a-realloc.o)
                              /home/leon/git/swp-report/iMX6_Platform_SDK/output/mx6sdl/lib/libsdk.a(system_util.o) (realloc)
/home/leon/riotboard/arm-2012.09/bin/../arm-none-eabi/lib//libc.a(lib_a-reallocr.o)
                              /home/leon/riotboard/arm-2012.09/bin/../arm-none-eabi/lib//libc.a(lib_a-fvwrite.o) (_realloc_r)
/home/leon/riotboard/arm-2012.09/bin/../arm-none-eabi/lib//libc.a(lib_a-rget.o)
                              /home/leon/git/swp-report/iMX6_Platform_SDK/output/mx6sdl/lib/libsdk.a(menu.o) (__srget_r)
/home/leon/riotboard/arm-2012.09/bin/../arm-none-eabi/lib//libc.a(lib_a-sbrkr.o)
                              /home/leon/riotboard/arm-2012.09/bin/../arm-none-eabi/lib//libc.a(lib_a-freer.o) (_sbrk_r)
/home/leon/riotboard/arm-2012.09/bin/../arm-none-eabi/lib//libc.a(lib_a-sprintf.o)
                              /home/leon/git/swp-report/iMX6_Platform_SDK/output/mx6sdl/lib/libsdk.a(board_id.o) (sprintf)
/home/leon/riotboard/arm-2012.09/bin/../arm-none-eabi/lib//libc.a(lib_a-stdio.o)
                              /home/leon/riotboard/arm-2012.09/bin/../arm-none-eabi/lib//libc.a(lib_a-findfp.o) (__sread)
/home/leon/riotboard/arm-2012.09/bin/../arm-none-eabi/lib//libc.a(lib_a-strlen.o)
                              /home/leon/git/swp-report/iMX6_Platform_SDK/output/mx6sdl/lib/libsdk.a(menu.o) (strlen)
/home/leon/riotboard/arm-2012.09/bin/../arm-none-eabi/lib//libc.a(lib_a-strncasecmp.o)
                              /home/leon/git/swp-report/iMX6_Platform_SDK/output/mx6sdl/lib/libsdk.a(menu.o) (strncasecmp)
/home/leon/riotboard/arm-2012.09/bin/../arm-none-eabi/lib//libc.a(lib_a-svfprintf.o)
                              /home/leon/riotboard/arm-2012.09/bin/../arm-none-eabi/lib//libc.a(lib_a-sprintf.o) (_svfprintf_r)
/home/leon/riotboard/arm-2012.09/bin/../arm-none-eabi/lib//libc.a(lib_a-vfiprintf.o)
                              /home/leon/riotboard/arm-2012.09/bin/../arm-none-eabi/lib//libc.a(lib_a-fiprintf.o) (_vfiprintf_r)
/home/leon/riotboard/arm-2012.09/bin/../arm-none-eabi/lib//libc.a(lib_a-vfprintf.o)
                              /home/leon/riotboard/arm-2012.09/bin/../arm-none-eabi/lib//libc.a(lib_a-printf.o) (_vfprintf_r)
/home/leon/riotboard/arm-2012.09/bin/../arm-none-eabi/lib//libc.a(lib_a-vprintf.o)
                              /home/leon/git/swp-report/iMX6_Platform_SDK/output/mx6sdl/lib/libsdk.a(text_color.o) (vprintf)
/home/leon/riotboard/arm-2012.09/bin/../arm-none-eabi/lib//libc.a(lib_a-wbuf.o)
                              /home/leon/riotboard/arm-2012.09/bin/../arm-none-eabi/lib//libc.a(lib_a-putc.o) (__swbuf_r)
/home/leon/riotboard/arm-2012.09/bin/../arm-none-eabi/lib//libc.a(lib_a-writer.o)
                              /home/leon/riotboard/arm-2012.09/bin/../arm-none-eabi/lib//libc.a(lib_a-stdio.o) (_write_r)
/home/leon/riotboard/arm-2012.09/bin/../arm-none-eabi/lib//libc.a(lib_a-wsetup.o)
                              /home/leon/riotboard/arm-2012.09/bin/../arm-none-eabi/lib//libc.a(lib_a-fvwrite.o) (__swsetup_r)
/home/leon/riotboard/arm-2012.09/bin/../arm-none-eabi/lib//libc.a(lib_a-abort.o)
                              /home/leon/riotboard/arm-2012.09/bin/../arm-none-eabi/lib//libc.a(lib_a-assert.o) (abort)
/home/leon/riotboard/arm-2012.09/bin/../arm-none-eabi/lib//libc.a(lib_a-closer.o)
                              /home/leon/riotboard/arm-2012.09/bin/../arm-none-eabi/lib//libc.a(lib_a-stdio.o) (_close_r)
/home/leon/riotboard/arm-2012.09/bin/../arm-none-eabi/lib//libc.a(lib_a-ctype_.o)
                              /home/leon/riotboard/arm-2012.09/bin/../arm-none-eabi/lib//libc.a(lib_a-strncasecmp.o) (__ctype_ptr__)
/home/leon/riotboard/arm-2012.09/bin/../arm-none-eabi/lib//libc.a(lib_a-dtoa.o)
                              /home/leon/riotboard/arm-2012.09/bin/../arm-none-eabi/lib//libc.a(lib_a-svfprintf.o) (_dtoa_r)
/home/leon/riotboard/arm-2012.09/bin/../arm-none-eabi/lib//libc.a(lib_a-fclose.o)
                              /home/leon/riotboard/arm-2012.09/bin/../arm-none-eabi/lib//libc.a(lib_a-findfp.o) (fclose)
/home/leon/riotboard/arm-2012.09/bin/../arm-none-eabi/lib//libc.a(lib_a-fputwc.o)
                              /home/leon/riotboard/arm-2012.09/bin/../arm-none-eabi/lib//libc.a(lib_a-vfiprintf.o) (_fputwc_r)
/home/leon/riotboard/arm-2012.09/bin/../arm-none-eabi/lib//libc.a(lib_a-locale.o)
                              /home/leon/riotboard/arm-2012.09/bin/../arm-none-eabi/lib//libc.a(lib_a-fputwc.o) (__locale_mb_cur_max)
/home/leon/riotboard/arm-2012.09/bin/../arm-none-eabi/lib//libc.a(lib_a-lseekr.o)
                              /home/leon/riotboard/arm-2012.09/bin/../arm-none-eabi/lib//libc.a(lib_a-stdio.o) (_lseek_r)
/home/leon/riotboard/arm-2012.09/bin/../arm-none-eabi/lib//libc.a(lib_a-makebuf.o)
                              /home/leon/riotboard/arm-2012.09/bin/../arm-none-eabi/lib//libc.a(lib_a-wsetup.o) (__smakebuf_r)
/home/leon/riotboard/arm-2012.09/bin/../arm-none-eabi/lib//libc.a(lib_a-mprec.o)
                              /home/leon/riotboard/arm-2012.09/bin/../arm-none-eabi/lib//libc.a(lib_a-dtoa.o) (_Balloc)
/home/leon/riotboard/arm-2012.09/bin/../arm-none-eabi/lib//libc.a(lib_a-readr.o)
                              /home/leon/riotboard/arm-2012.09/bin/../arm-none-eabi/lib//libc.a(lib_a-stdio.o) (_read_r)
/home/leon/riotboard/arm-2012.09/bin/../arm-none-eabi/lib//libc.a(lib_a-reent.o)
                              /home/leon/riotboard/arm-2012.09/bin/../arm-none-eabi/lib//libc.a(lib_a-sbrkr.o) (errno)
/home/leon/riotboard/arm-2012.09/bin/../arm-none-eabi/lib//libc.a(lib_a-refill.o)
                              /home/leon/riotboard/arm-2012.09/bin/../arm-none-eabi/lib//libc.a(lib_a-rget.o) (__srefill_r)
/home/leon/riotboard/arm-2012.09/bin/../arm-none-eabi/lib//libc.a(lib_a-s_fpclassify.o)
                              /home/leon/riotboard/arm-2012.09/bin/../arm-none-eabi/lib//libc.a(lib_a-svfprintf.o) (__fpclassifyd)
/home/leon/riotboard/arm-2012.09/bin/../arm-none-eabi/lib//libc.a(lib_a-signal.o)
                              /home/leon/riotboard/arm-2012.09/bin/../arm-none-eabi/lib//libc.a(lib_a-abort.o) (raise)
/home/leon/riotboard/arm-2012.09/bin/../arm-none-eabi/lib//libc.a(lib_a-signalr.o)
                              /home/leon/riotboard/arm-2012.09/bin/../arm-none-eabi/lib//libc.a(lib_a-signal.o) (_kill_r)
/home/leon/riotboard/arm-2012.09/bin/../arm-none-eabi/lib//libc.a(lib_a-strcmp.o)
                              /home/leon/riotboard/arm-2012.09/bin/../arm-none-eabi/lib//libc.a(lib_a-locale.o) (strcmp)
/home/leon/riotboard/arm-2012.09/bin/../arm-none-eabi/lib//libc.a(lib_a-svfiprintf.o)
                              /home/leon/riotboard/arm-2012.09/bin/../arm-none-eabi/lib//libc.a(lib_a-svfprintf.o) (__ssprint_r)
/home/leon/riotboard/arm-2012.09/bin/../arm-none-eabi/lib//libc.a(lib_a-wcrtomb.o)
                              /home/leon/riotboard/arm-2012.09/bin/../arm-none-eabi/lib//libc.a(lib_a-fputwc.o) (_wcrtomb_r)
/home/leon/riotboard/arm-2012.09/bin/../arm-none-eabi/lib//libc.a(lib_a-wctomb_r.o)
                              /home/leon/riotboard/arm-2012.09/bin/../arm-none-eabi/lib//libc.a(lib_a-wcrtomb.o) (__wctomb)
/home/leon/riotboard/arm-2012.09/bin/../arm-none-eabi/lib//libc.a(lib_a-callocr.o)
                              /home/leon/riotboard/arm-2012.09/bin/../arm-none-eabi/lib//libc.a(lib_a-mprec.o) (_calloc_r)
/home/leon/riotboard/arm-2012.09/bin/../arm-none-eabi/lib//libc.a(lib_a-fstatr.o)
                              /home/leon/riotboard/arm-2012.09/bin/../arm-none-eabi/lib//libc.a(lib_a-makebuf.o) (_fstat_r)
/home/leon/riotboard/arm-2012.09/bin/../arm-none-eabi/lib//libc.a(lib_a-isattyr.o)
                              /home/leon/riotboard/arm-2012.09/bin/../arm-none-eabi/lib//libc.a(lib_a-makebuf.o) (_isatty_r)
/home/leon/riotboard/arm-2012.09/bin/../lib/gcc/arm-none-eabi/4.7.2//libgcc.a(_udivsi3.o)
                              /home/leon/git/swp-report/iMX6_Platform_SDK/output/mx6sdl/lib/libsdk.a(ccm_pll.o) (__aeabi_uidiv)
/home/leon/riotboard/arm-2012.09/bin/../lib/gcc/arm-none-eabi/4.7.2//libgcc.a(_divsi3.o)
                              /home/leon/git/swp-report/iMX6_Platform_SDK/output/mx6sdl/sdk_unit_test/sabre_ai_rev_b/libsdk_unit_test.a(cfi_flash_driver.o) (__aeabi_idivmod)
/home/leon/riotboard/arm-2012.09/bin/../lib/gcc/arm-none-eabi/4.7.2//libgcc.a(_dvmd_tls.o)
                              /home/leon/riotboard/arm-2012.09/bin/../lib/gcc/arm-none-eabi/4.7.2//libgcc.a(_udivsi3.o) (__aeabi_idiv0)
/home/leon/riotboard/arm-2012.09/bin/../lib/gcc/arm-none-eabi/4.7.2//libgcc.a(_arm_addsubdf3.o)
                              /home/leon/riotboard/arm-2012.09/bin/../arm-none-eabi/lib//libc.a(lib_a-dtoa.o) (__aeabi_dsub)
/home/leon/riotboard/arm-2012.09/bin/../lib/gcc/arm-none-eabi/4.7.2//libgcc.a(_arm_muldivdf3.o)
                              /home/leon/riotboard/arm-2012.09/bin/../arm-none-eabi/lib//libc.a(lib_a-dtoa.o) (__aeabi_dmul)
/home/leon/riotboard/arm-2012.09/bin/../lib/gcc/arm-none-eabi/4.7.2//libgcc.a(_arm_cmpdf2.o)
                              /home/leon/riotboard/arm-2012.09/bin/../arm-none-eabi/lib//libc.a(lib_a-svfprintf.o) (__aeabi_dcmpeq)
/home/leon/riotboard/arm-2012.09/bin/../lib/gcc/arm-none-eabi/4.7.2//libgcc.a(_arm_fixdfsi.o)
                              /home/leon/riotboard/arm-2012.09/bin/../arm-none-eabi/lib//libc.a(lib_a-dtoa.o) (__aeabi_d2iz)
/home/leon/riotboard/arm-2012.09/bin/../lib/gcc/arm-none-eabi/4.7.2//libgcc.a(_arm_addsubsf3.o)
                              /home/leon/riotboard/arm-2012.09/bin/../arm-none-eabi/lib//libm.a(lib_a-sf_cos.o) (__aeabi_fsub)
/home/leon/riotboard/arm-2012.09/bin/../lib/gcc/arm-none-eabi/4.7.2//libgcc.a(_arm_muldivsf3.o)
                              /home/leon/riotboard/arm-2012.09/bin/../arm-none-eabi/lib//libm.a(lib_a-ef_rem_pio2.o) (__aeabi_fmul)
/home/leon/riotboard/arm-2012.09/bin/../lib/gcc/arm-none-eabi/4.7.2//libgcc.a(_arm_cmpsf2.o)
                              /home/leon/riotboard/arm-2012.09/bin/../arm-none-eabi/lib//libm.a(lib_a-ef_rem_pio2.o) (__aeabi_fcmpeq)
/home/leon/riotboard/arm-2012.09/bin/../lib/gcc/arm-none-eabi/4.7.2//libgcc.a(_arm_fixsfsi.o)
                              /home/leon/riotboard/arm-2012.09/bin/../arm-none-eabi/lib//libm.a(lib_a-ef_rem_pio2.o) (__aeabi_f2iz)
/home/leon/riotboard/arm-2012.09/bin/../lib/gcc/arm-none-eabi/4.7.2//libgcc.a(_aeabi_uldivmod.o)
                              /home/leon/git/swp-report/iMX6_Platform_SDK/output/mx6sdl/lib/libsdk.a(timer.o) (__aeabi_uldivmod)
/home/leon/riotboard/arm-2012.09/bin/../lib/gcc/arm-none-eabi/4.7.2//libgcc.a(bpabi.o)
                              /home/leon/riotboard/arm-2012.09/bin/../lib/gcc/arm-none-eabi/4.7.2//libgcc.a(_aeabi_uldivmod.o) (__gnu_uldivmod_helper)
/home/leon/riotboard/arm-2012.09/bin/../lib/gcc/arm-none-eabi/4.7.2//libgcc.a(_divdi3.o)
                              /home/leon/riotboard/arm-2012.09/bin/../lib/gcc/arm-none-eabi/4.7.2//libgcc.a(bpabi.o) (__divdi3)
/home/leon/riotboard/arm-2012.09/bin/../lib/gcc/arm-none-eabi/4.7.2//libgcc.a(_udivdi3.o)
                              /home/leon/riotboard/arm-2012.09/bin/../lib/gcc/arm-none-eabi/4.7.2//libgcc.a(bpabi.o) (__udivdi3)
/home/leon/riotboard/arm-2012.09/bin/../lib/gcc/arm-none-eabi/4.7.2//libgcc.a(_clzsi2.o)
                              /home/leon/riotboard/arm-2012.09/bin/../lib/gcc/arm-none-eabi/4.7.2//libgcc.a(_divdi3.o) (__clzsi2)
/home/leon/git/swp-report/iMX6_Platform_SDK/output/mx6sdl/lib/libsdk.a(max7310.o)
                              /home/leon/git/swp-report/iMX6_Platform_SDK/output/mx6sdl/lib/libboard_sabre_ai_rev_b.a(board_io_expanders.o) (max7310_init)
/home/leon/git/swp-report/iMX6_Platform_SDK/output/mx6sdl/lib/libsdk.a(profile.o)
                              /home/leon/git/swp-report/iMX6_Platform_SDK/output/mx6sdl/sdk_unit_test/sabre_ai_rev_b/libsdk_unit_test.a(mem_2_mem.o) (StartPerfCounter)
/home/leon/git/swp-report/iMX6_Platform_SDK/output/mx6sdl/lib/libsdk.a(armv7_cache.o)
                              /home/leon/git/swp-report/iMX6_Platform_SDK/output/mx6sdl/sdk_unit_test/sabre_ai_rev_b/libsdk_unit_test.a(cpu_wp_test.o) (arm_dcache_state_query)
/home/leon/git/swp-report/iMX6_Platform_SDK/output/mx6sdl/lib/libsdk.a(runtime_support.o)
                              /home/leon/riotboard/arm-2012.09/bin/../arm-none-eabi/lib//libc.a(lib_a-isattyr.o) (_isatty)
/home/leon/git/swp-report/iMX6_Platform_SDK/output/mx6sdl/lib/libsdk.a(mma8451.o)
                              /home/leon/git/swp-report/iMX6_Platform_SDK/output/mx6sdl/sdk_unit_test/sabre_ai_rev_b/libsdk_unit_test.a(accelerometer_test.o) (mma8451_init)
/home/leon/git/swp-report/iMX6_Platform_SDK/output/mx6sdl/lib/libsdk.a(cpu_get_cores.o)
                              /home/leon/git/swp-report/iMX6_Platform_SDK/output/mx6sdl/sdk_unit_test/sabre_ai_rev_b/libsdk_unit_test.a(multicore_test.o) (cpu_get_cores)
/home/leon/git/swp-report/iMX6_Platform_SDK/output/mx6sdl/lib/libsdk.a(cpu_multicore.o)
                              /home/leon/git/swp-report/iMX6_Platform_SDK/output/mx6sdl/sdk_unit_test/sabre_ai_rev_b/libsdk_unit_test.a(multicore_test.o) (cpu_start_secondary)
/home/leon/git/swp-report/iMX6_Platform_SDK/output/mx6sdl/lib/libsdk.a(cpu_workpoint.o)
                              /home/leon/git/swp-report/iMX6_Platform_SDK/output/mx6sdl/sdk_unit_test/sabre_ai_rev_b/libsdk_unit_test.a(cpu_wp_test.o) (cpu_workpoint_set)
/home/leon/git/swp-report/iMX6_Platform_SDK/output/mx6sdl/lib/libsdk.a(eim.o)
                              /home/leon/git/swp-report/iMX6_Platform_SDK/output/mx6sdl/sdk_unit_test/sabre_ai_rev_b/libsdk_unit_test.a(eim_test.o) (eim_init)
/home/leon/git/swp-report/iMX6_Platform_SDK/output/mx6sdl/lib/libsdk.a(can.o)
                              /home/leon/git/swp-report/iMX6_Platform_SDK/output/mx6sdl/sdk_unit_test/sabre_ai_rev_b/libsdk_unit_test.a(can_test.o) (can_init)
/home/leon/git/swp-report/iMX6_Platform_SDK/output/mx6sdl/lib/libsdk.a(gpio.o)
                              /home/leon/git/swp-report/iMX6_Platform_SDK/output/mx6sdl/lib/libboard_sabre_ai_rev_b.a(board_io_expanders.o) (gpio_set_gpio)
/home/leon/git/swp-report/iMX6_Platform_SDK/output/mx6sdl/lib/libsdk.a(imx6sdl_gpio_map.o)
                              /home/leon/git/swp-report/iMX6_Platform_SDK/output/mx6sdl/lib/libsdk.a(gpio.o) (k_gpio_mux_registers)
/home/leon/git/swp-report/iMX6_Platform_SDK/output/mx6sdl/lib/libsdk.a(hdmi_tx.o)
                              /home/leon/git/swp-report/iMX6_Platform_SDK/output/mx6sdl/sdk_unit_test/sabre_ai_rev_b/libsdk_unit_test.a(hdmi_test.o) (hdmi_config_input_source)
/home/leon/git/swp-report/iMX6_Platform_SDK/output/mx6sdl/lib/libsdk.a(hdmi_tx_audio.o)
                              /home/leon/git/swp-report/iMX6_Platform_SDK/output/mx6sdl/sdk_unit_test/sabre_ai_rev_b/libsdk_unit_test.a(hdmi_test.o) (hdmi_audio_mute)
/home/leon/git/swp-report/iMX6_Platform_SDK/output/mx6sdl/lib/libsdk.a(hdmi_tx_phy.o)
                              /home/leon/git/swp-report/iMX6_Platform_SDK/output/mx6sdl/sdk_unit_test/sabre_ai_rev_b/libsdk_unit_test.a(hdmi_test.o) (hdmi_phy_init)
/home/leon/git/swp-report/iMX6_Platform_SDK/output/mx6sdl/lib/libsdk.a(imx_i2c.o)
                              /home/leon/git/swp-report/iMX6_Platform_SDK/output/mx6sdl/sdk_unit_test/sabre_ai_rev_b/libsdk_unit_test.a(at24cxx.o) (i2c_read)
/home/leon/git/swp-report/iMX6_Platform_SDK/output/mx6sdl/lib/libsdk.a(imx_i2c_slave.o)
                              /home/leon/git/swp-report/iMX6_Platform_SDK/output/mx6sdl/sdk_unit_test/sabre_ai_rev_b/libsdk_unit_test.a(imx6_i2c_device.o) (i2c_slave_xfer)
/home/leon/git/swp-report/iMX6_Platform_SDK/output/mx6sdl/lib/libsdk.a(ips_disp_panel.o)
                              /home/leon/git/swp-report/iMX6_Platform_SDK/output/mx6sdl/sdk_unit_test/sabre_ai_rev_b/libsdk_unit_test.a(ips_display.o) (search_panel)
/home/leon/git/swp-report/iMX6_Platform_SDK/output/mx6sdl/lib/libsdk.a(ipu_common.o)
                              /home/leon/git/swp-report/iMX6_Platform_SDK/output/mx6sdl/sdk_unit_test/sabre_ai_rev_b/libsdk_unit_test.a(ips_display.o) (ipu_enable_display)
/home/leon/git/swp-report/iMX6_Platform_SDK/output/mx6sdl/lib/libsdk.a(ipu_csi.o)
                              /home/leon/git/swp-report/iMX6_Platform_SDK/output/mx6sdl/lib/libsdk.a(ipu_common.o) (ipu_csi_config)
/home/leon/git/swp-report/iMX6_Platform_SDK/output/mx6sdl/lib/libsdk.a(ipu_dc.o)
                              /home/leon/git/swp-report/iMX6_Platform_SDK/output/mx6sdl/lib/libsdk.a(ipu_common.o) (ipu_dc_config)
/home/leon/git/swp-report/iMX6_Platform_SDK/output/mx6sdl/lib/libsdk.a(ipu_di.o)
                              /home/leon/git/swp-report/iMX6_Platform_SDK/output/mx6sdl/lib/libsdk.a(ipu_common.o) (ipu_di_config)
/home/leon/git/swp-report/iMX6_Platform_SDK/output/mx6sdl/lib/libsdk.a(ipu_dmfc.o)
                              /home/leon/git/swp-report/iMX6_Platform_SDK/output/mx6sdl/lib/libsdk.a(ipu_common.o) (ipu_dmfc_config)
/home/leon/git/swp-report/iMX6_Platform_SDK/output/mx6sdl/lib/libsdk.a(ipu_dp.o)
                              /home/leon/git/swp-report/iMX6_Platform_SDK/output/mx6sdl/sdk_unit_test/sabre_ai_rev_b/libsdk_unit_test.a(ips_combiner.o) (ipu_dp_config)
/home/leon/git/swp-report/iMX6_Platform_SDK/output/mx6sdl/lib/libsdk.a(ipu_ic.o)
                              /home/leon/git/swp-report/iMX6_Platform_SDK/output/mx6sdl/sdk_unit_test/sabre_ai_rev_b/libsdk_unit_test.a(ips_csc.o) (ipu_ic_enable)
/home/leon/git/swp-report/iMX6_Platform_SDK/output/mx6sdl/lib/libsdk.a(ipu_idmac.o)
                              /home/leon/git/swp-report/iMX6_Platform_SDK/output/mx6sdl/lib/libsdk.a(ipu_common.o) (ipu_cpmem_set_field)
/home/leon/git/swp-report/iMX6_Platform_SDK/output/mx6sdl/lib/libsdk.a(ipu_vdi.o)
                              /home/leon/git/swp-report/iMX6_Platform_SDK/output/mx6sdl/lib/libsdk.a(ipu_common.o) (ips_deinterlace_proc)
/home/leon/git/swp-report/iMX6_Platform_SDK/output/mx6sdl/lib/libsdk.a(ldb.o)
                              /home/leon/git/swp-report/iMX6_Platform_SDK/output/mx6sdl/lib/libsdk.a(ips_disp_panel.o) (ldb_config)
/home/leon/git/swp-report/iMX6_Platform_SDK/output/mx6sdl/lib/libsdk.a(mipi_csi2_common.o)
                              /home/leon/git/swp-report/iMX6_Platform_SDK/output/mx6sdl/sdk_unit_test/sabre_ai_rev_b/libsdk_unit_test.a(mipi_csi2_test.o) (mipi_csi2_config)
/home/leon/git/swp-report/iMX6_Platform_SDK/output/mx6sdl/lib/libsdk.a(mipi_dsi_common.o)
                              /home/leon/git/swp-report/iMX6_Platform_SDK/output/mx6sdl/sdk_unit_test/sabre_ai_rev_b/libsdk_unit_test.a(mipi_dsi_test.o) (mipi_dsi_init)
/home/leon/git/swp-report/iMX6_Platform_SDK/output/mx6sdl/lib/libsdk.a(ov5640_mipi_fm.o)
                              /home/leon/git/swp-report/iMX6_Platform_SDK/output/mx6sdl/lib/libsdk.a(mipi_csi2_common.o) (mipi_cam_modes)
/home/leon/git/swp-report/iMX6_Platform_SDK/output/mx6sdl/lib/libsdk.a(ocotp.o)
                              /home/leon/git/swp-report/iMX6_Platform_SDK/output/mx6sdl/sdk_unit_test/sabre_ai_rev_b/libsdk_unit_test.a(ocotp_test.o) (ocotp_sense_fuse)
/home/leon/git/swp-report/iMX6_Platform_SDK/output/mx6sdl/lib/libsdk.a(pcie.o)
                              /home/leon/git/swp-report/iMX6_Platform_SDK/output/mx6sdl/sdk_unit_test/sabre_ai_rev_b/libsdk_unit_test.a(pcie_test_rc.o) (pcie_func_clk_setup)
/home/leon/git/swp-report/iMX6_Platform_SDK/output/mx6sdl/lib/libsdk.a(pcie_phy.o)
                              /home/leon/git/swp-report/iMX6_Platform_SDK/output/mx6sdl/lib/libsdk.a(pcie.o) (pcie_phy_cr_read)
/home/leon/git/swp-report/iMX6_Platform_SDK/output/mx6sdl/lib/libsdk.a(pcie_prot.o)
                              /home/leon/git/swp-report/iMX6_Platform_SDK/output/mx6sdl/sdk_unit_test/sabre_ai_rev_b/libsdk_unit_test.a(pcie_test_rc.o) (pcie_dump_cfg_header)
/home/leon/git/swp-report/iMX6_Platform_SDK/output/mx6sdl/lib/libsdk.a(pmu_driver.o)
                              /home/leon/git/swp-report/iMX6_Platform_SDK/output/mx6sdl/lib/libsdk.a(cpu_workpoint.o) (pmu_init)
/home/leon/git/swp-report/iMX6_Platform_SDK/output/mx6sdl/lib/libsdk.a(pwm.o)
                              /home/leon/git/swp-report/iMX6_Platform_SDK/output/mx6sdl/sdk_unit_test/sabre_ai_rev_b/libsdk_unit_test.a(pwm_output.o) (pwm_init)
/home/leon/git/swp-report/iMX6_Platform_SDK/output/mx6sdl/lib/libsdk.a(rtc.o)
                              /home/leon/git/swp-report/iMX6_Platform_SDK/output/mx6sdl/sdk_unit_test/sabre_ai_rev_b/libsdk_unit_test.a(snvs_rtc_test.o) (rtc_init)
/home/leon/git/swp-report/iMX6_Platform_SDK/output/mx6sdl/lib/libsdk.a(srtc.o)
                              /home/leon/git/swp-report/iMX6_Platform_SDK/output/mx6sdl/sdk_unit_test/sabre_ai_rev_b/libsdk_unit_test.a(snvs_srtc_test.o) (srtc_init)
/home/leon/git/swp-report/iMX6_Platform_SDK/output/mx6sdl/lib/libsdk.a(sdma.o)
                              /home/leon/git/swp-report/iMX6_Platform_SDK/output/mx6sdl/sdk_unit_test/sabre_ai_rev_b/libsdk_unit_test.a(spi_lpb.o) (sdma_channel_start)
/home/leon/git/swp-report/iMX6_Platform_SDK/output/mx6sdl/lib/libsdk.a(sdma_script_info.o)
                              /home/leon/git/swp-report/iMX6_Platform_SDK/output/mx6sdl/lib/libsdk.a(sdma.o) (script_info)
/home/leon/git/swp-report/iMX6_Platform_SDK/output/mx6sdl/lib/libsdk.a(snvs.o)
                              /home/leon/git/swp-report/iMX6_Platform_SDK/output/mx6sdl/lib/libsdk.a(rtc.o) (snvs_rtc_counter)
/home/leon/git/swp-report/iMX6_Platform_SDK/output/mx6sdl/lib/libsdk.a(ecspi.o)
                              /home/leon/git/swp-report/iMX6_Platform_SDK/output/mx6sdl/sdk_unit_test/sabre_ai_rev_b/libsdk_unit_test.a(spi_test.o) (ecspi_configure)
/home/leon/git/swp-report/iMX6_Platform_SDK/output/mx6sdl/lib/libsdk.a(tempmon.o)
                              /home/leon/git/swp-report/iMX6_Platform_SDK/output/mx6sdl/sdk_unit_test/sabre_ai_rev_b/libsdk_unit_test.a(tempmon_test.o) (tempmon_get_temp)
/home/leon/git/swp-report/iMX6_Platform_SDK/output/mx6sdl/lib/libsdk.a(gpt.o)
                              /home/leon/git/swp-report/iMX6_Platform_SDK/output/mx6sdl/sdk_unit_test/sabre_ai_rev_b/libsdk_unit_test.a(gpt_test.o) (gpt_get_rollover_event)
/home/leon/git/swp-report/iMX6_Platform_SDK/output/mx6sdl/lib/libsdk.a(usb_common.o)
                              /home/leon/git/swp-report/iMX6_Platform_SDK/output/mx6sdl/sdk_unit_test/sabre_ai_rev_b/libsdk_unit_test.a(usb0_device_mouse_test.o) (usb_get_port_speed)
/home/leon/git/swp-report/iMX6_Platform_SDK/output/mx6sdl/lib/libsdk.a(usbd_drv.o)
                              /home/leon/git/swp-report/iMX6_Platform_SDK/output/mx6sdl/sdk_unit_test/sabre_ai_rev_b/libsdk_unit_test.a(usb0_device_mouse_test.o) (usbd_device_init)
/home/leon/git/swp-report/iMX6_Platform_SDK/output/mx6sdl/lib/libsdk.a(usbh_drv.o)
                              /home/leon/git/swp-report/iMX6_Platform_SDK/output/mx6sdl/sdk_unit_test/sabre_ai_rev_b/libsdk_unit_test.a(usb0_host_test.o) (usbh_init)
/home/leon/git/swp-report/iMX6_Platform_SDK/output/mx6sdl/lib/libsdk.a(usdhc.o)
                              /home/leon/git/swp-report/iMX6_Platform_SDK/output/mx6sdl/sdk_unit_test/sabre_ai_rev_b/libsdk_unit_test.a(usdhc_test.o) (set_card_access_mode)
/home/leon/git/swp-report/iMX6_Platform_SDK/output/mx6sdl/lib/libsdk.a(usdhc_host.o)
                              /home/leon/git/swp-report/iMX6_Platform_SDK/output/mx6sdl/lib/libsdk.a(usdhc.o) (usdhc1_isr)
/home/leon/git/swp-report/iMX6_Platform_SDK/output/mx6sdl/lib/libsdk.a(usdhc_mmc.o)
                              /home/leon/git/swp-report/iMX6_Platform_SDK/output/mx6sdl/lib/libsdk.a(usdhc.o) (mmc_init)
/home/leon/git/swp-report/iMX6_Platform_SDK/output/mx6sdl/lib/libsdk.a(usdhc_sd.o)
                              /home/leon/git/swp-report/iMX6_Platform_SDK/output/mx6sdl/lib/libsdk.a(usdhc.o) (sd_init)
/home/leon/git/swp-report/iMX6_Platform_SDK/output/mx6sdl/lib/libsdk.a(adv7180.o)
                              /home/leon/git/swp-report/iMX6_Platform_SDK/output/mx6sdl/sdk_unit_test/sabre_ai_rev_b/libsdk_unit_test.a(adv7180_capture.o) (video_fmts)
/home/leon/git/swp-report/iMX6_Platform_SDK/output/mx6sdl/lib/libsdk.a(hdmi_common.o)
                              /home/leon/git/swp-report/iMX6_Platform_SDK/output/mx6sdl/lib/libsdk.a(hdmi_tx.o) (isColorSpaceConversion)
/home/leon/git/swp-report/iMX6_Platform_SDK/output/mx6sdl/lib/libsdk.a(mx6x_usb.o)
                              /home/leon/git/swp-report/iMX6_Platform_SDK/output/mx6sdl/lib/libsdk.a(usbd_drv.o) (usbEnableClocks)
/home/leon/git/swp-report/iMX6_Platform_SDK/output/mx6sdl/lib/libboard_sabre_ai_rev_b.a(board_camera.o)
                              /home/leon/git/swp-report/iMX6_Platform_SDK/output/mx6sdl/lib/libsdk.a(adv7180.o) (csi_port0_iomux_config)
/home/leon/git/swp-report/iMX6_Platform_SDK/output/mx6sdl/lib/libboard_sabre_ai_rev_b.a(board_can.o)
                              /home/leon/git/swp-report/iMX6_Platform_SDK/output/mx6sdl/lib/libsdk.a(can.o) (hw_can_iomux_config)
/home/leon/git/swp-report/iMX6_Platform_SDK/output/mx6sdl/lib/libboard_sabre_ai_rev_b.a(board_display.o)
                              /home/leon/git/swp-report/iMX6_Platform_SDK/output/mx6sdl/lib/libsdk.a(ips_disp_panel.o) (lvds_power_on)
/home/leon/git/swp-report/iMX6_Platform_SDK/output/mx6sdl/lib/libboard_sabre_ai_rev_b.a(board_hdmi.o)
                              /home/leon/git/swp-report/iMX6_Platform_SDK/output/mx6sdl/lib/libsdk.a(ips_disp_panel.o) (hdmi_pgm_iomux)
/home/leon/git/swp-report/iMX6_Platform_SDK/output/mx6sdl/lib/libboard_sabre_ai_rev_b.a(board_i2c.o)
                              /home/leon/git/swp-report/iMX6_Platform_SDK/output/mx6sdl/lib/libsdk.a(adv7180.o) (g_adv7180_i2c_device)
/home/leon/git/swp-report/iMX6_Platform_SDK/output/mx6sdl/lib/libboard_sabre_ai_rev_b.a(board_mipi.o)
                              /home/leon/git/swp-report/iMX6_Platform_SDK/output/mx6sdl/lib/libsdk.a(mipi_csi2_common.o) (mipi_cam_power_on)
/home/leon/git/swp-report/iMX6_Platform_SDK/output/mx6sdl/lib/libboard_sabre_ai_rev_b.a(board_pcie.o)
                              /home/leon/git/swp-report/iMX6_Platform_SDK/output/mx6sdl/sdk_unit_test/sabre_ai_rev_b/libsdk_unit_test.a(pcie_test_rc.o) (pcie_clk_setup)
/home/leon/git/swp-report/iMX6_Platform_SDK/output/mx6sdl/lib/libboard_sabre_ai_rev_b.a(board_usb.o)
                              /home/leon/git/swp-report/iMX6_Platform_SDK/output/mx6sdl/lib/libsdk.a(usbh_drv.o) (usbEnableVbus)
/home/leon/git/swp-report/iMX6_Platform_SDK/output/mx6sdl/lib/libboard_sabre_ai_rev_b.a(board_usdhc.o)
                              /home/leon/git/swp-report/iMX6_Platform_SDK/output/mx6sdl/lib/libsdk.a(usdhc_host.o) (usdhc_gpio_config)
/home/leon/git/swp-report/iMX6_Platform_SDK/output/mx6sdl/lib/libboard_sabre_ai_rev_b.a(ecspi_iomux_config.o)
                              /home/leon/git/swp-report/iMX6_Platform_SDK/output/mx6sdl/lib/libsdk.a(ecspi.o) (ecspi_iomux_config)
/home/leon/git/swp-report/iMX6_Platform_SDK/output/mx6sdl/lib/libboard_sabre_ai_rev_b.a(flexcan_iomux_config.o)
                              /home/leon/git/swp-report/iMX6_Platform_SDK/output/mx6sdl/lib/libboard_sabre_ai_rev_b.a(board_can.o) (flexcan_iomux_config)
/home/leon/git/swp-report/iMX6_Platform_SDK/output/mx6sdl/lib/libboard_sabre_ai_rev_b.a(i2c_iomux_config.o)
                              /home/leon/git/swp-report/iMX6_Platform_SDK/output/mx6sdl/lib/libsdk.a(imx_i2c.o) (i2c_iomux_config)
/home/leon/git/swp-report/iMX6_Platform_SDK/output/mx6sdl/lib/libboard_sabre_ai_rev_b.a(pwm_iomux_config.o)
                              /home/leon/git/swp-report/iMX6_Platform_SDK/output/mx6sdl/sdk_unit_test/sabre_ai_rev_b/libsdk_unit_test.a(pwm_output.o) (pwm_iomux_config)
/home/leon/git/swp-report/iMX6_Platform_SDK/output/mx6sdl/lib/libboard_sabre_ai_rev_b.a(usdhc_iomux_config.o)
                              /home/leon/git/swp-report/iMX6_Platform_SDK/output/mx6sdl/lib/libsdk.a(usdhc_host.o) (usdhc_iomux_config)
/home/leon/riotboard/arm-2012.09/bin/../arm-none-eabi/lib//libstdc++.a(pure.o)
                              /home/leon/git/swp-report/iMX6_Platform_SDK/output/mx6sdl/lib/libsdk.a(pmu_driver.o) (__cxa_pure_virtual)
/home/leon/riotboard/arm-2012.09/bin/../arm-none-eabi/lib//libstdc++.a(eh_terminate.o)
                              /home/leon/riotboard/arm-2012.09/bin/../arm-none-eabi/lib//libstdc++.a(pure.o) (std::terminate())
/home/leon/riotboard/arm-2012.09/bin/../arm-none-eabi/lib//libstdc++.a(eh_unex_handler.o)
                              /home/leon/riotboard/arm-2012.09/bin/../arm-none-eabi/lib//libstdc++.a(eh_terminate.o) (__cxxabiv1::__unexpected_handler)
/home/leon/riotboard/arm-2012.09/bin/../arm-none-eabi/lib//libstdc++.a(eh_call.o)
                              /home/leon/riotboard/arm-2012.09/bin/../arm-none-eabi/lib//libstdc++.a(eh_terminate.o) (__cxa_call_unexpected)
/home/leon/riotboard/arm-2012.09/bin/../arm-none-eabi/lib//libstdc++.a(eh_throw.o)
                              /home/leon/riotboard/arm-2012.09/bin/../arm-none-eabi/lib//libstdc++.a(eh_call.o) (__cxa_throw)
/home/leon/riotboard/arm-2012.09/bin/../arm-none-eabi/lib//libstdc++.a(eh_arm.o)
                              /home/leon/riotboard/arm-2012.09/bin/../arm-none-eabi/lib//libstdc++.a(eh_terminate.o) (__cxa_end_cleanup)
/home/leon/riotboard/arm-2012.09/bin/../arm-none-eabi/lib//libstdc++.a(eh_exception.o)
                              /home/leon/riotboard/arm-2012.09/bin/../arm-none-eabi/lib//libstdc++.a(eh_call.o) (std::bad_exception::~bad_exception())
/home/leon/riotboard/arm-2012.09/bin/../arm-none-eabi/lib//libstdc++.a(eh_alloc.o)
                              /home/leon/riotboard/arm-2012.09/bin/../arm-none-eabi/lib//libstdc++.a(eh_call.o) (__cxa_allocate_exception)
/home/leon/riotboard/arm-2012.09/bin/../arm-none-eabi/lib//libstdc++.a(eh_globals.o)
                              /home/leon/riotboard/arm-2012.09/bin/../arm-none-eabi/lib//libstdc++.a(eh_call.o) (__cxa_get_globals_fast)
/home/leon/riotboard/arm-2012.09/bin/../arm-none-eabi/lib//libstdc++.a(si_class_type_info.o)
                              /home/leon/riotboard/arm-2012.09/bin/../arm-none-eabi/lib//libstdc++.a(eh_exception.o) (vtable for __cxxabiv1::__si_class_type_info)
/home/leon/riotboard/arm-2012.09/bin/../arm-none-eabi/lib//libstdc++.a(eh_personality.o)
                              /home/leon/riotboard/arm-2012.09/bin/../arm-none-eabi/lib//libstdc++.a(eh_terminate.o) (__gxx_personality_v0)
/home/leon/riotboard/arm-2012.09/bin/../arm-none-eabi/lib//libstdc++.a(eh_term_handler.o)
                              /home/leon/riotboard/arm-2012.09/bin/../arm-none-eabi/lib//libstdc++.a(eh_terminate.o) (__cxxabiv1::__terminate_handler)
/home/leon/riotboard/arm-2012.09/bin/../arm-none-eabi/lib//libstdc++.a(eh_catch.o)
                              /home/leon/riotboard/arm-2012.09/bin/../arm-none-eabi/lib//libstdc++.a(eh_terminate.o) (__cxa_begin_catch)
/home/leon/riotboard/arm-2012.09/bin/../arm-none-eabi/lib//libstdc++.a(class_type_info.o)
                              /home/leon/riotboard/arm-2012.09/bin/../arm-none-eabi/lib//libstdc++.a(si_class_type_info.o) (__cxxabiv1::__class_type_info::__do_upcast(__cxxabiv1::__class_type_info const*, void**) const)
/home/leon/riotboard/arm-2012.09/bin/../arm-none-eabi/lib//libstdc++.a(vterminate.o)
                              /home/leon/riotboard/arm-2012.09/bin/../arm-none-eabi/lib//libstdc++.a(eh_term_handler.o) (__gnu_cxx::__verbose_terminate_handler())
/home/leon/riotboard/arm-2012.09/bin/../arm-none-eabi/lib//libstdc++.a(cp-demangle.o)
                              /home/leon/riotboard/arm-2012.09/bin/../arm-none-eabi/lib//libstdc++.a(vterminate.o) (__cxa_demangle)
/home/leon/riotboard/arm-2012.09/bin/../arm-none-eabi/lib//libstdc++.a(eh_type.o)
                              /home/leon/riotboard/arm-2012.09/bin/../arm-none-eabi/lib//libstdc++.a(vterminate.o) (__cxa_current_exception_type)
/home/leon/riotboard/arm-2012.09/bin/../arm-none-eabi/lib//libstdc++.a(del_op.o)
                              /home/leon/riotboard/arm-2012.09/bin/../arm-none-eabi/lib//libstdc++.a(eh_exception.o) (operator delete(void*))
/home/leon/riotboard/arm-2012.09/bin/../arm-none-eabi/lib//libstdc++.a(tinfo.o)
                              /home/leon/riotboard/arm-2012.09/bin/../arm-none-eabi/lib//libstdc++.a(class_type_info.o) (std::type_info::~type_info())
/home/leon/riotboard/arm-2012.09/bin/../arm-none-eabi/lib//libc.a(lib_a-fwrite.o)
                              /home/leon/riotboard/arm-2012.09/bin/../arm-none-eabi/lib//libstdc++.a(vterminate.o) (fwrite)
/home/leon/riotboard/arm-2012.09/bin/../arm-none-eabi/lib//libc.a(lib_a-memcmp.o)
                              /home/leon/riotboard/arm-2012.09/bin/../arm-none-eabi/lib//libstdc++.a(cp-demangle.o) (memcmp)
/home/leon/riotboard/arm-2012.09/bin/../arm-none-eabi/lib//libc.a(lib_a-strncmp.o)
                              /home/leon/riotboard/arm-2012.09/bin/../arm-none-eabi/lib//libstdc++.a(cp-demangle.o) (strncmp)
/home/leon/riotboard/arm-2012.09/bin/../arm-none-eabi/lib//libc.a(lib_a-syswrite.o)
                              /home/leon/riotboard/arm-2012.09/bin/../arm-none-eabi/lib//libstdc++.a(pure.o) (write)
/home/leon/riotboard/arm-2012.09/bin/../lib/gcc/arm-none-eabi/4.7.2//libgcc.a(unwind-arm.o)
                              /home/leon/riotboard/arm-2012.09/bin/../arm-none-eabi/lib//libstdc++.a(eh_throw.o) (__aeabi_unwind_cpp_pr0)
/home/leon/riotboard/arm-2012.09/bin/../lib/gcc/arm-none-eabi/4.7.2//libgcc.a(libunwind.o)
                              /home/leon/riotboard/arm-2012.09/bin/../lib/gcc/arm-none-eabi/4.7.2//libgcc.a(unwind-arm.o) (restore_core_regs)
/home/leon/riotboard/arm-2012.09/bin/../lib/gcc/arm-none-eabi/4.7.2//libgcc.a(pr-support.o)
                              /home/leon/riotboard/arm-2012.09/bin/../lib/gcc/arm-none-eabi/4.7.2//libgcc.a(unwind-arm.o) (__gnu_unwind_execute)

Allocating common symbols
Common symbol       size              file

errno               0x4               /home/leon/riotboard/arm-2012.09/bin/../arm-none-eabi/lib//libc.a(lib_a-reent.o)

Discarded input sections

 .group         0x00000000        0x8 /home/leon/git/swp-report/iMX6_Platform_SDK/output/mx6sdl/lib/libsdk.a(pmu_driver.o)
 .group         0x00000000        0x8 /home/leon/git/swp-report/iMX6_Platform_SDK/output/mx6sdl/lib/libsdk.a(pmu_driver.o)
 .group         0x00000000        0x8 /home/leon/git/swp-report/iMX6_Platform_SDK/output/mx6sdl/lib/libsdk.a(pmu_driver.o)
 .group         0x00000000        0x8 /home/leon/git/swp-report/iMX6_Platform_SDK/output/mx6sdl/lib/libsdk.a(pmu_driver.o)
 .group         0x00000000        0x8 /home/leon/git/swp-report/iMX6_Platform_SDK/output/mx6sdl/lib/libsdk.a(pmu_driver.o)
 .group         0x00000000        0x8 /home/leon/git/swp-report/iMX6_Platform_SDK/output/mx6sdl/lib/libsdk.a(pmu_driver.o)
 .group         0x00000000        0x8 /home/leon/git/swp-report/iMX6_Platform_SDK/output/mx6sdl/lib/libsdk.a(pmu_driver.o)
 .group         0x00000000        0x8 /home/leon/git/swp-report/iMX6_Platform_SDK/output/mx6sdl/lib/libsdk.a(pmu_driver.o)
 .group         0x00000000        0x8 /home/leon/git/swp-report/iMX6_Platform_SDK/output/mx6sdl/lib/libsdk.a(pmu_driver.o)
 .group         0x00000000        0x8 /home/leon/git/swp-report/iMX6_Platform_SDK/output/mx6sdl/lib/libsdk.a(pmu_driver.o)
 .group         0x00000000        0x8 /home/leon/git/swp-report/iMX6_Platform_SDK/output/mx6sdl/lib/libsdk.a(pmu_driver.o)
 .group         0x00000000        0x8 /home/leon/git/swp-report/iMX6_Platform_SDK/output/mx6sdl/lib/libsdk.a(pmu_driver.o)
 .group         0x00000000        0x8 /home/leon/git/swp-report/iMX6_Platform_SDK/output/mx6sdl/lib/libsdk.a(pmu_driver.o)
 .group         0x00000000        0x8 /home/leon/git/swp-report/iMX6_Platform_SDK/output/mx6sdl/lib/libsdk.a(pmu_driver.o)
 .group         0x00000000        0x8 /home/leon/git/swp-report/iMX6_Platform_SDK/output/mx6sdl/lib/libsdk.a(pmu_driver.o)
 .group         0x00000000        0x8 /home/leon/git/swp-report/iMX6_Platform_SDK/output/mx6sdl/lib/libsdk.a(pmu_driver.o)
 .group         0x00000000        0x8 /home/leon/git/swp-report/iMX6_Platform_SDK/output/mx6sdl/lib/libsdk.a(pmu_driver.o)
 .group         0x00000000        0x8 /home/leon/git/swp-report/iMX6_Platform_SDK/output/mx6sdl/lib/libsdk.a(pmu_driver.o)
 .group         0x00000000        0x8 /home/leon/git/swp-report/iMX6_Platform_SDK/output/mx6sdl/lib/libsdk.a(pmu_driver.o)
 .group         0x00000000        0x8 /home/leon/git/swp-report/iMX6_Platform_SDK/output/mx6sdl/lib/libsdk.a(pmu_driver.o)
 .group         0x00000000        0x8 /home/leon/git/swp-report/iMX6_Platform_SDK/output/mx6sdl/lib/libsdk.a(pmu_driver.o)
 .group         0x00000000        0x8 /home/leon/git/swp-report/iMX6_Platform_SDK/output/mx6sdl/lib/libsdk.a(pmu_driver.o)
 .group         0x00000000        0x8 /home/leon/git/swp-report/iMX6_Platform_SDK/output/mx6sdl/lib/libsdk.a(pmu_driver.o)
 .group         0x00000000        0x8 /home/leon/git/swp-report/iMX6_Platform_SDK/output/mx6sdl/lib/libsdk.a(pmu_driver.o)
 .group         0x00000000        0x8 /home/leon/git/swp-report/iMX6_Platform_SDK/output/mx6sdl/lib/libsdk.a(pmu_driver.o)
 .group         0x00000000        0x8 /home/leon/git/swp-report/iMX6_Platform_SDK/output/mx6sdl/lib/libsdk.a(pmu_driver.o)
 .group         0x00000000        0x8 /home/leon/git/swp-report/iMX6_Platform_SDK/output/mx6sdl/lib/libsdk.a(pmu_driver.o)
 .group         0x00000000        0x8 /home/leon/git/swp-report/iMX6_Platform_SDK/output/mx6sdl/lib/libsdk.a(pmu_driver.o)
 .group         0x00000000        0x8 /home/leon/git/swp-report/iMX6_Platform_SDK/output/mx6sdl/lib/libsdk.a(pmu_driver.o)
 .group         0x00000000        0x8 /home/leon/git/swp-report/iMX6_Platform_SDK/output/mx6sdl/lib/libsdk.a(pmu_driver.o)
 .group         0x00000000        0x8 /home/leon/git/swp-report/iMX6_Platform_SDK/output/mx6sdl/lib/libsdk.a(pmu_driver.o)
 .group         0x00000000        0x8 /home/leon/git/swp-report/iMX6_Platform_SDK/output/mx6sdl/lib/libsdk.a(pmu_driver.o)
 .group         0x00000000        0x8 /home/leon/git/swp-report/iMX6_Platform_SDK/output/mx6sdl/lib/libsdk.a(pmu_driver.o)
 .group         0x00000000        0x8 /home/leon/git/swp-report/iMX6_Platform_SDK/output/mx6sdl/lib/libsdk.a(pmu_driver.o)
 .group         0x00000000        0x8 /home/leon/git/swp-report/iMX6_Platform_SDK/output/mx6sdl/lib/libsdk.a(pmu_driver.o)
 .group         0x00000000        0x8 /home/leon/git/swp-report/iMX6_Platform_SDK/output/mx6sdl/lib/libsdk.a(pmu_driver.o)
 .group         0x00000000        0x8 /home/leon/git/swp-report/iMX6_Platform_SDK/output/mx6sdl/lib/libsdk.a(pmu_driver.o)
 .group         0x00000000        0x8 /home/leon/git/swp-report/iMX6_Platform_SDK/output/mx6sdl/lib/libsdk.a(pmu_driver.o)
 .group         0x00000000        0x8 /home/leon/git/swp-report/iMX6_Platform_SDK/output/mx6sdl/lib/libsdk.a(pmu_driver.o)

Memory Configuration

Name             Origin             Length             Attributes
OCRAM            0x00900000         0x00020000         xrw
DDR              0x10000000         0x80000000         xrw
*default*        0x00000000         0xffffffff

Linker script and memory map

LOAD /home/leon/riotboard/arm-2012.09/bin/../lib/gcc/arm-none-eabi/4.7.2//crtbegin.o
LOAD /home/leon/riotboard/arm-2012.09/bin/../lib/gcc/arm-none-eabi/4.7.2//crti.o
LOAD /home/leon/riotboard/arm-2012.09/bin/../lib/gcc/arm-none-eabi/4.7.2//crtend.o
LOAD /home/leon/riotboard/arm-2012.09/bin/../lib/gcc/arm-none-eabi/4.7.2//crtn.o

.l1_page_table  0x00900000     0x4000
                0x00900000                __l1_page_table_start = .
                0x00904000                . = (. + 0x4000)
 *fill*         0x00900000     0x4000 

.heap.ocram     0x00904000    0x1bfb8
                0x00904000                __heap_ocram_start = .
                0x0091ffb8                . = (. + 0x1bfb8)
 *fill*         0x00904000    0x1bfb8 
                0x0091ffb8                __heap_ocram_end = .

.ram_vectors    0x0091ffb8       0x48
                0x0091ffb8                __ram_vectors_start = .
                0x00920000                . = (. + 0x48)
 *fill*         0x0091ffb8       0x48 
                0x00920000                __ram_vectors_end = .
                0x10000000                _start_image_add = ORIGIN (DDR)

.ivt            0x10000000      0x420
                0x10000400                . = (. + 0x400)
 *fill*         0x10000000      0x400 
 *(.ivt)
 .ivt           0x10000400       0x20 /home/leon/git/swp-report/iMX6_Platform_SDK/output/mx6sdl/sdk_unit_test/sabre_ai_rev_b/obj/apps/common/ivt.o
                0x10000400                input_ivt

.boot_data      0x10000420        0xc
                0x10000420                __start_boot_data = .
 *(.boot_data)
 .boot_data     0x10000420        0xc /home/leon/git/swp-report/iMX6_Platform_SDK/output/mx6sdl/sdk_unit_test/sabre_ai_rev_b/obj/apps/common/ivt.o
                0x10000420                bd

.dcd_hdr        0x10000430        0x4
                0x10000430                __start_dcd = .
 *(.dcd_hdr)
 .dcd_hdr       0x10000430        0x4 /home/leon/git/swp-report/iMX6_Platform_SDK/output/mx6sdl/lib/libboard_sabre_ai_rev_b.a(dcd.o)
                0x10000430                input_dcd_hdr

.dcd_wrt_cmd    0x10000434        0x4
 *(.dcd_wrt_cmd)
 .dcd_wrt_cmd   0x10000434        0x4 /home/leon/git/swp-report/iMX6_Platform_SDK/output/mx6sdl/lib/libboard_sabre_ai_rev_b.a(dcd.o)
                0x10000434                input_dcd_wrt_cmd

.dcd_data       0x10000438      0x298
 *(.dcd_data)
 .dcd_data      0x10000438      0x298 /home/leon/git/swp-report/iMX6_Platform_SDK/output/mx6sdl/lib/libboard_sabre_ai_rev_b.a(dcd.o)
                0x10000438                input_dcd

.text           0x100006d0    0x68d68
 CREATE_OBJECT_SYMBOLS
 *(.startup)
 .startup       0x100006d0      0x138 /home/leon/git/swp-report/iMX6_Platform_SDK/output/mx6sdl/lib/libsdk.a(startup.o)
                0x100006d0                _start
 *(.text .text.* .gnu.linkonce.t.*)
 .text          0x10000808      0x128 /home/leon/riotboard/arm-2012.09/bin/../lib/gcc/arm-none-eabi/4.7.2//crtbegin.o
 .text          0x10000930        0x0 /home/leon/riotboard/arm-2012.09/bin/../lib/gcc/arm-none-eabi/4.7.2//crti.o
 .text          0x10000930        0x0 /home/leon/riotboard/arm-2012.09/bin/../lib/gcc/arm-none-eabi/4.7.2//crtend.o
 .text          0x10000930        0x0 /home/leon/riotboard/arm-2012.09/bin/../lib/gcc/arm-none-eabi/4.7.2//crtn.o
 .text          0x10000930        0x0 /home/leon/git/swp-report/iMX6_Platform_SDK/output/mx6sdl/sdk_unit_test/sabre_ai_rev_b/obj/apps/common/ivt.o
 .text          0x10000930       0x98 /home/leon/git/swp-report/iMX6_Platform_SDK/output/mx6sdl/sdk_unit_test/sabre_ai_rev_b/obj/apps/common/platform_init.o
                0x10000930                platform_init
 .text          0x100009c8       0xfc /home/leon/git/swp-report/iMX6_Platform_SDK/output/mx6sdl/sdk_unit_test/sabre_ai_rev_b/obj/apps/common/print_clock_info.o
                0x100009c8                show_freq
                0x10000ab4                show_ddr_config
 .text          0x10000ac4      0x15c /home/leon/git/swp-report/iMX6_Platform_SDK/output/mx6sdl/sdk_unit_test/sabre_ai_rev_b/obj/apps/common/print_version.o
                0x10000ac4                print_version
 .text          0x10000c20       0x50 /home/leon/git/swp-report/iMX6_Platform_SDK/output/mx6sdl/sdk_unit_test/sabre_ai_rev_b/obj/apps/sdk_unit_test/src/all_test.o
                0x10000c20                run_test
                0x10000c54                ALL_test
 .text          0x10000c70       0x2c /home/leon/git/swp-report/iMX6_Platform_SDK/output/mx6sdl/sdk_unit_test/sabre_ai_rev_b/obj/apps/sdk_unit_test/src/unit_test_main.o
                0x10000c70                main
 .text          0x10000c9c      0xc64 /home/leon/git/swp-report/iMX6_Platform_SDK/output/mx6sdl/lib/libsdk.a(ccm_pll.o)
                0x10000c9c                ccm_init
                0x10000dc0                get_main_clock
                0x10001050                get_peri_clock
                0x10001200                ccm_ccgr_config
                0x10001268                clock_gating_config
                0x100016a0                ccm_set_lpm_wakeup_source
                0x10001794                ccm_enter_low_power
                0x10001804                ipu_hsp_clk_config
                0x10001824                gpu_clock_config
 .text          0x10001900      0x164 /home/leon/git/swp-report/iMX6_Platform_SDK/output/mx6sdl/lib/libsdk.a(cortexA9.o)
                0x10001900                arm_set_interrupt_state
                0x10001924                cpu_get_current
                0x10001930                enable_neon_fpu
                0x1000194c                disable_strict_align_check
                0x10001960                disable_L1_cache
                0x10001980                get_arm_private_peripheral_base
                0x10001988                arm_unified_tlb_invalidate
                0x10001998                arm_unified_tlb_invalidate_is
                0x100019a8                arm_branch_prediction_enable
                0x100019b8                arm_branch_prediction_disable
                0x100019c8                arm_branch_target_cache_invalidate
                0x100019d4                arm_branch_target_cache_invalidate_is
                0x100019e0                scu_enable
                0x100019f4                scu_join_smp
                0x10001a04                scu_leave_smp
                0x10001a14                scu_get_cpus_in_smp
                0x10001a28                scu_enable_maintenance_broadcast
                0x10001a38                scu_disable_maintenance_broadcast
                0x10001a48                scu_secure_invalidate
 .text          0x10001a64      0x5e0 /home/leon/git/swp-report/iMX6_Platform_SDK/output/mx6sdl/lib/libsdk.a(gic.o)
                0x10001b48                gic_enable
                0x10001ba8                gic_set_irq_security
                0x10001c50                gic_enable_irq
                0x10001ccc                gic_set_irq_priority
                0x10001d14                gic_set_cpu_target
                0x10001e20                gic_send_sgi
                0x10001e74                gic_cpu_enable
                0x10001ed4                gic_set_cpu_priority_mask
                0x10001f08                gic_read_irq_ack
                0x10001f34                gic_write_end_of_irq
                0x10001f64                gic_init
                0x10002008                gic_init_cpu
 .text          0x10002044      0x460 /home/leon/git/swp-report/iMX6_Platform_SDK/output/mx6sdl/lib/libsdk.a(mmu.o)
                0x10002044                mmu_enable
                0x1000207c                mmu_disable
                0x100020b0                mmu_init
                0x100021cc                mmu_map_l1_range
                0x100023e4                mmu_virtual_to_physical
 .text          0x100024a4        0x0 /home/leon/git/swp-report/iMX6_Platform_SDK/output/mx6sdl/lib/libsdk.a(startup.o)
 .text          0x100024a4        0x4 /home/leon/git/swp-report/iMX6_Platform_SDK/output/mx6sdl/lib/libsdk.a(vectors.o)
                0x100024a4                exception_handler
 .text.vectors  0x100024a8       0x48 /home/leon/git/swp-report/iMX6_Platform_SDK/output/mx6sdl/lib/libsdk.a(vectors.o)
                0x100024a8                vectors
 .text          0x100024f0      0xc78 /home/leon/git/swp-report/iMX6_Platform_SDK/output/mx6sdl/lib/libsdk.a(menu.o)
                0x10002998                menu_get_indent
                0x100029b4                menuitem_cmd_showmenu
                0x100029d8                menuitem_cmd_exitmenu
                0x100029fc                menu_append_menuitems
                0x10002b1c                menu_present
                0x100030b8                menu_print_menuitem
 .text          0x10003168        0x0 /home/leon/git/swp-report/iMX6_Platform_SDK/output/mx6sdl/lib/libsdk.a(sdk_version.o)
 .text          0x10003168      0x914 /home/leon/git/swp-report/iMX6_Platform_SDK/output/mx6sdl/lib/libsdk.a(system_util.o)
                0x10003168                _sys_exit
                0x10003184                mybkpt
                0x1000318c                is_input_char
                0x1000330c                read_input_string
                0x100035f4                get_input_hex
                0x10003874                read_int
                0x100039d8                jump_to_sdp
 .text          0x10003a7c       0xe0 /home/leon/git/swp-report/iMX6_Platform_SDK/output/mx6sdl/lib/libsdk.a(text_color.o)
                0x10003a7c                printf_color
                0x10003b18                get_color_supported
 .text          0x10003b5c      0x7c4 /home/leon/git/swp-report/iMX6_Platform_SDK/output/mx6sdl/lib/libsdk.a(board_id.o)
                0x10003b5c                chip_name
                0x10003c74                chip_revision
                0x10003d4c                board_name
                0x10003e50                board_revision
                0x10003f18                board_description
                0x10004038                get_board_id
                0x10004114                show_board_id
 .text          0x10004320      0x290 /home/leon/git/swp-report/iMX6_Platform_SDK/output/mx6sdl/lib/libsdk.a(timer.o)
                0x10004320                hal_delay_us
                0x10004390                system_time_init
                0x100044f0                time_get_microseconds
 .text          0x100045b0     0x2820 /home/leon/git/swp-report/iMX6_Platform_SDK/output/mx6sdl/lib/libsdk.a(imx_uart.o)
                0x100045b0                uart_get_reffreq
                0x100046ac                uart_putchar
                0x100047fc                uart_getchar
                0x1000495c                uart_set_FIFO_mode
                0x10005488                uart_set_loopback_mode
                0x100056dc                uart_setup_interrupt
                0x100057a8                uart_init
 .text          0x10006dd0       0x98 /home/leon/git/swp-report/iMX6_Platform_SDK/output/mx6sdl/lib/libsdk.a(arm_abort.o)
                0x10006dd0                common_abort_handler
                0x10006e30                data_abort_handler
                0x10006e48                prefetch_abort_handler
 .text          0x10006e68      0x1bc /home/leon/git/swp-report/iMX6_Platform_SDK/output/mx6sdl/lib/libsdk.a(interrupt.o)
                0x10006e68                IRQ_HDLR
                0x10006f30                disable_interrupt
                0x10006f6c                enable_interrupt
                0x10006fc4                register_interrupt_routine
                0x10006ff8                default_interrupt_routine
 .text          0x10007024      0x8e0 /home/leon/git/swp-report/iMX6_Platform_SDK/output/mx6sdl/lib/libsdk.a(epit.o)
                0x10007024                epit_reload_counter
                0x10007084                epit_get_counter_value
                0x100070e0                epit_set_compare_event
                0x10007140                epit_get_compare_event
                0x10007238                epit_counter_disable
                0x100073fc                epit_counter_enable
                0x10007658                epit_setup_interrupt
                0x100076e8                epit_init
 .text          0x10007904      0x4bc /home/leon/git/swp-report/iMX6_Platform_SDK/output/mx6sdl/lib/libsdk.a(abort_handler.o)
                0x10007904                dump_regs
 .text          0x10007dc0      0x12c /home/leon/git/swp-report/iMX6_Platform_SDK/output/mx6sdl/lib/libboard_sabre_ai_rev_b.a(board_io_expanders.o)
                0x10007dc0                board_ioexpander_init
                0x10007eb8                board_ioexpander_iomux_config
 .text          0x10007eec        0x0 /home/leon/git/swp-report/iMX6_Platform_SDK/output/mx6sdl/lib/libboard_sabre_ai_rev_b.a(hardware_modules.o)
 .text          0x10007eec        0x0 /home/leon/git/swp-report/iMX6_Platform_SDK/output/mx6sdl/lib/libboard_sabre_ai_rev_b.a(dcd.o)
 .text          0x10007eec       0x78 /home/leon/git/swp-report/iMX6_Platform_SDK/output/mx6sdl/lib/libboard_sabre_ai_rev_b.a(i2c3_iomux_config.o)
                0x10007eec                i2c3_iomux_config
 .text          0x10007f64       0x90 /home/leon/git/swp-report/iMX6_Platform_SDK/output/mx6sdl/lib/libboard_sabre_ai_rev_b.a(uart_iomux_config.o)
                0x10007f64                uart_iomux_config
 .text          0x10007ff4      0x2c4 /home/leon/git/swp-report/iMX6_Platform_SDK/output/mx6sdl/lib/libboard_sabre_ai_rev_b.a(iomux_config.o)
                0x10007ff4                iomux_config
                0x10008078                arm_iomux_config
                0x10008088                asrc_iomux_config
                0x10008098                dcic1_iomux_config
                0x100080a8                dcic2_iomux_config
                0x100080b8                ecspi2_iomux_config
                0x100080c8                ecspi3_iomux_config
                0x100080d8                ecspi4_iomux_config
                0x100080e8                epdc_iomux_config
                0x100080f8                epit1_iomux_config
                0x10008108                epit2_iomux_config
                0x10008118                gpio3_iomux_config
                0x10008128                gpio7_iomux_config
                0x10008138                gpt_iomux_config
                0x10008148                hdmi_iomux_config
                0x10008158                i2c1_iomux_config
                0x10008168                i2c4_iomux_config
                0x10008178                kpp_iomux_config
                0x10008188                lcd_iomux_config
                0x10008198                ldb_iomux_config
                0x100081a8                mipi_csi_iomux_config
                0x100081b8                mipi_dsi_iomux_config
                0x100081c8                mipi_hsi_iomux_config
                0x100081d8                pcie_iomux_config
                0x100081e8                pmu_iomux_config
                0x100081f8                pwm1_iomux_config
                0x10008208                pwm2_iomux_config
                0x10008218                sdma_iomux_config
                0x10008228                snvs_iomux_config
                0x10008238                src_iomux_config
                0x10008248                uart1_iomux_config
                0x10008258                uart5_iomux_config
                0x10008268                usb_iomux_config
                0x10008278                usdhc2_iomux_config
                0x10008288                usdhc4_iomux_config
                0x10008298                wdog2_iomux_config
                0x100082a8                xtalosc_iomux_config
 .text          0x100082b8      0x5f8 /home/leon/git/swp-report/iMX6_Platform_SDK/output/mx6sdl/lib/libboard_sabre_ai_rev_b.a(ipu1_iomux_config.o)
                0x100082b8                ipu1_iomux_config
 .text          0x100088b0       0xac /home/leon/git/swp-report/iMX6_Platform_SDK/output/mx6sdl/lib/libboard_sabre_ai_rev_b.a(mlb_iomux_config.o)
                0x100088b0                mlb_iomux_config
 .text          0x1000895c     0x2484 /home/leon/git/swp-report/iMX6_Platform_SDK/output/mx6sdl/lib/libboard_sabre_ai_rev_b.a(mmdc_iomux_config.o)
                0x1000895c                mmdc_iomux_config
 .text          0x1000ade0       0x34 /home/leon/git/swp-report/iMX6_Platform_SDK/output/mx6sdl/lib/libboard_sabre_ai_rev_b.a(pwm3_iomux_config.o)
                0x1000ade0                pwm3_iomux_config
 .text          0x1000ae14       0x34 /home/leon/git/swp-report/iMX6_Platform_SDK/output/mx6sdl/lib/libboard_sabre_ai_rev_b.a(pwm4_iomux_config.o)
                0x1000ae14                pwm4_iomux_config
 .text          0x1000ae48       0x70 /home/leon/git/swp-report/iMX6_Platform_SDK/output/mx6sdl/lib/libboard_sabre_ai_rev_b.a(sjc_iomux_config.o)
                0x1000ae48                sjc_iomux_config
 .text          0x1000aeb8       0x40 /home/leon/git/swp-report/iMX6_Platform_SDK/output/mx6sdl/lib/libboard_sabre_ai_rev_b.a(spdif_iomux_config.o)
                0x1000aeb8                spdif_iomux_config
 .text          0x1000aef8       0xe0 /home/leon/git/swp-report/iMX6_Platform_SDK/output/mx6sdl/lib/libboard_sabre_ai_rev_b.a(uart2_iomux_config.o)
                0x1000aef8                uart2_iomux_config
 .text          0x1000afd8       0xe0 /home/leon/git/swp-report/iMX6_Platform_SDK/output/mx6sdl/lib/libboard_sabre_ai_rev_b.a(uart3_iomux_config.o)
                0x1000afd8                uart3_iomux_config
 .text          0x1000b0b8       0x78 /home/leon/git/swp-report/iMX6_Platform_SDK/output/mx6sdl/lib/libboard_sabre_ai_rev_b.a(uart4_iomux_config.o)
                0x1000b0b8                uart4_iomux_config
 .text          0x1000b130      0x1ac /home/leon/git/swp-report/iMX6_Platform_SDK/output/mx6sdl/lib/libboard_sabre_ai_rev_b.a(usdhc1_iomux_config.o)
                0x1000b130                usdhc1_iomux_config
 .text          0x1000b2dc      0x1d0 /home/leon/git/swp-report/iMX6_Platform_SDK/output/mx6sdl/lib/libboard_sabre_ai_rev_b.a(usdhc3_iomux_config.o)
                0x1000b2dc                usdhc3_iomux_config
 .text          0x1000b4ac       0x34 /home/leon/git/swp-report/iMX6_Platform_SDK/output/mx6sdl/lib/libboard_sabre_ai_rev_b.a(wdog1_iomux_config.o)
                0x1000b4ac                wdog1_iomux_config
 .text          0x1000b4e0      0x13c /home/leon/git/swp-report/iMX6_Platform_SDK/output/mx6sdl/lib/libboard_sabre_ai_rev_b.a(audmux_iomux_config.o)
                0x1000b4e0                audmux_iomux_config
 .text          0x1000b61c       0x34 /home/leon/git/swp-report/iMX6_Platform_SDK/output/mx6sdl/lib/libboard_sabre_ai_rev_b.a(ccm_iomux_config.o)
                0x1000b61c                ccm_iomux_config
 .text          0x1000b650      0x104 /home/leon/git/swp-report/iMX6_Platform_SDK/output/mx6sdl/lib/libboard_sabre_ai_rev_b.a(ecspi1_iomux_config.o)
                0x1000b650                ecspi1_iomux_config
 .text          0x1000b754      0x5d0 /home/leon/git/swp-report/iMX6_Platform_SDK/output/mx6sdl/lib/libboard_sabre_ai_rev_b.a(eim_iomux_config.o)
                0x1000b754                eim_iomux_config
 .text          0x1000bd24      0x3bc /home/leon/git/swp-report/iMX6_Platform_SDK/output/mx6sdl/lib/libboard_sabre_ai_rev_b.a(enet_iomux_config.o)
                0x1000bd24                enet_iomux_config
 .text          0x1000c0e0      0x218 /home/leon/git/swp-report/iMX6_Platform_SDK/output/mx6sdl/lib/libboard_sabre_ai_rev_b.a(esai_iomux_config.o)
                0x1000c0e0                esai_iomux_config
 .text          0x1000c2f8       0x68 /home/leon/git/swp-report/iMX6_Platform_SDK/output/mx6sdl/lib/libboard_sabre_ai_rev_b.a(flexcan1_iomux_config.o)
                0x1000c2f8                flexcan1_iomux_config
 .text          0x1000c360       0x68 /home/leon/git/swp-report/iMX6_Platform_SDK/output/mx6sdl/lib/libboard_sabre_ai_rev_b.a(flexcan2_iomux_config.o)
                0x1000c360                flexcan2_iomux_config
 .text          0x1000c3c8      0x130 /home/leon/git/swp-report/iMX6_Platform_SDK/output/mx6sdl/lib/libboard_sabre_ai_rev_b.a(gpio1_iomux_config.o)
                0x1000c3c8                gpio1_iomux_config
 .text          0x1000c4f8       0xfc /home/leon/git/swp-report/iMX6_Platform_SDK/output/mx6sdl/lib/libboard_sabre_ai_rev_b.a(gpio2_iomux_config.o)
                0x1000c4f8                gpio2_iomux_config
 .text          0x1000c5f4       0x58 /home/leon/git/swp-report/iMX6_Platform_SDK/output/mx6sdl/lib/libboard_sabre_ai_rev_b.a(gpio4_iomux_config.o)
                0x1000c5f4                gpio4_iomux_config
 .text          0x1000c64c       0xe4 /home/leon/git/swp-report/iMX6_Platform_SDK/output/mx6sdl/lib/libboard_sabre_ai_rev_b.a(gpio5_iomux_config.o)
                0x1000c64c                gpio5_iomux_config
 .text          0x1000c730       0x54 /home/leon/git/swp-report/iMX6_Platform_SDK/output/mx6sdl/lib/libboard_sabre_ai_rev_b.a(gpio6_iomux_config.o)
                0x1000c730                gpio6_iomux_config
 .text          0x1000c784      0x274 /home/leon/git/swp-report/iMX6_Platform_SDK/output/mx6sdl/lib/libboard_sabre_ai_rev_b.a(gpmi_iomux_config.o)
                0x1000c784                gpmi_iomux_config
 .text          0x1000c9f8       0x78 /home/leon/git/swp-report/iMX6_Platform_SDK/output/mx6sdl/lib/libboard_sabre_ai_rev_b.a(i2c2_iomux_config.o)
                0x1000c9f8                i2c2_iomux_config
 .text          0x1000ca70       0xc4 /home/leon/git/swp-report/iMX6_Platform_SDK/output/mx6sdl/sdk_unit_test/sabre_ai_rev_b/libsdk_unit_test.a(gic_test.o)
                0x1000ca70                gic_sgi_test_handler
                0x1000ca9c                gic_test
 .text          0x1000cb34      0x1fc /home/leon/git/swp-report/iMX6_Platform_SDK/output/mx6sdl/sdk_unit_test/sabre_ai_rev_b/libsdk_unit_test.a(cpu_wp_test.o)
                0x1000cb34                my_memcpy
                0x1000cb70                memcpy_perf_record
                0x1000cc58                cpu_wp_test
 .text          0x1000cd30      0x20c /home/leon/git/swp-report/iMX6_Platform_SDK/output/mx6sdl/sdk_unit_test/sabre_ai_rev_b/libsdk_unit_test.a(multicore_test.o)
                0x1000cd30                SGI3_ISR
                0x1000cdcc                multicore_entry
                0x1000cf24                multicore_test
 .text          0x1000cf3c      0x3ec /home/leon/git/swp-report/iMX6_Platform_SDK/output/mx6sdl/sdk_unit_test/sabre_ai_rev_b/libsdk_unit_test.a(ocotp_test.o)
                0x1000cf3c                ocotp_test
 .text          0x1000d328      0x128 /home/leon/git/swp-report/iMX6_Platform_SDK/output/mx6sdl/sdk_unit_test/sabre_ai_rev_b/libsdk_unit_test.a(i2c_test.o)
                0x1000d328                i2c_test
 .text          0x1000d450      0x884 /home/leon/git/swp-report/iMX6_Platform_SDK/output/mx6sdl/sdk_unit_test/sabre_ai_rev_b/libsdk_unit_test.a(imx6_i2c_device.o)
                0x1000d450                imx6_slave_receive
                0x1000d588                imx6_slave_transmit
                0x1000d774                i2c_imx6_slave_test
 .text          0x1000dcd4      0x340 /home/leon/git/swp-report/iMX6_Platform_SDK/output/mx6sdl/sdk_unit_test/sabre_ai_rev_b/libsdk_unit_test.a(snvs_rtc_test.o)
                0x1000dcd4                one_time_tick_callback
                0x1000dd00                periodic_tick_callback
                0x1000dd50                one_time_timer_test
                0x1000de18                periodic_timer_test
                0x1000deec                snvs_rtc_test
 .text          0x1000e014      0x1fc /home/leon/git/swp-report/iMX6_Platform_SDK/output/mx6sdl/sdk_unit_test/sabre_ai_rev_b/libsdk_unit_test.a(snvs_srtc_test.o)
                0x1000e014                srtc_one_time_tick_callback
                0x1000e040                srtc_one_time_timer_test
                0x1000e104                snvs_srtc_test
 .text          0x1000e210      0x290 /home/leon/git/swp-report/iMX6_Platform_SDK/output/mx6sdl/sdk_unit_test/sabre_ai_rev_b/libsdk_unit_test.a(tempmon_test.o)
                0x1000e210                over_temp_callback
                0x1000e244                print_current_temp
                0x1000e27c                tempmon_test
 .text          0x1000e4a0      0x1f4 /home/leon/git/swp-report/iMX6_Platform_SDK/output/mx6sdl/sdk_unit_test/sabre_ai_rev_b/libsdk_unit_test.a(sdma_test.o)
                0x1000e4a0                sdma_test
 .text          0x1000e694      0xa1c /home/leon/git/swp-report/iMX6_Platform_SDK/output/mx6sdl/sdk_unit_test/sabre_ai_rev_b/libsdk_unit_test.a(spi_lpb.o)
                0x1000e794                ecspi_app_test
                0x1000ec24                ecspi_shp_test
 .text          0x1000f0b0      0xfbc /home/leon/git/swp-report/iMX6_Platform_SDK/output/mx6sdl/sdk_unit_test/sabre_ai_rev_b/libsdk_unit_test.a(uart_loopback.o)
                0x1000f2bc                uart_app_test
                0x1000f738                uart_shp_test
                0x1000fbc4                uart5_trans_isr
                0x1000fc00                uart_app_interrupt_test
 .text          0x1001006c      0x374 /home/leon/git/swp-report/iMX6_Platform_SDK/output/mx6sdl/sdk_unit_test/sabre_ai_rev_b/libsdk_unit_test.a(epit_test.o)
                0x1001006c                epit_test
 .text          0x100103e0      0x4fc /home/leon/git/swp-report/iMX6_Platform_SDK/output/mx6sdl/sdk_unit_test/sabre_ai_rev_b/libsdk_unit_test.a(gpt_test.o)
                0x100103e0                gpt_test
                0x10010508                gpt_out_compare_test
                0x10010660                gpt_interrupt_routine
                0x100106f4                gpt_in_capture_test
 .text          0x100108dc       0xb4 /home/leon/git/swp-report/iMX6_Platform_SDK/output/mx6sdl/sdk_unit_test/sabre_ai_rev_b/libsdk_unit_test.a(timer_test.o)
                0x100108dc                microseconds_test
 .text          0x10010990      0x24c /home/leon/git/swp-report/iMX6_Platform_SDK/output/mx6sdl/sdk_unit_test/sabre_ai_rev_b/libsdk_unit_test.a(uart_test.o)
                0x10010990                uart_interrupt_handler
                0x100109e8                uart_test
 .text          0x10010bdc      0xcf4 /home/leon/git/swp-report/iMX6_Platform_SDK/output/mx6sdl/sdk_unit_test/sabre_ai_rev_b/libsdk_unit_test.a(usdhc_test.o)
                0x10010bdc                mmc_sd_test
                0x10010c10                usdhc_test
 .text          0x100118d0      0x1ec /home/leon/git/swp-report/iMX6_Platform_SDK/output/mx6sdl/sdk_unit_test/sabre_ai_rev_b/libsdk_unit_test.a(pwm_test.o)
                0x100118d0                pwm_test
 .text          0x10011abc      0x244 /home/leon/git/swp-report/iMX6_Platform_SDK/output/mx6sdl/sdk_unit_test/sabre_ai_rev_b/libsdk_unit_test.a(watchdog_test.o)
                0x10011cd4                wdog_test
 .text          0x10011d00      0x82c /home/leon/git/swp-report/iMX6_Platform_SDK/output/mx6sdl/sdk_unit_test/sabre_ai_rev_b/libsdk_unit_test.a(hdmi_test.o)
                0x10011d00                hdmi_test
                0x1001206c                init_hdmi_interrupt
                0x1001211c                hdmi_tx_ISR
                0x100121ac                hdmi_1080P60_video_output
                0x1001236c                hdmi_720P60_video_output
 .text          0x1001252c      0xb98 /home/leon/git/swp-report/iMX6_Platform_SDK/output/mx6sdl/sdk_unit_test/sabre_ai_rev_b/libsdk_unit_test.a(ips_display.o)
                0x1001252c                ips_display_test
                0x10012668                ips_hdmi_stream
                0x100127c8                ips_hdmi_720P60_stream
                0x10012a2c                ips_hdmi_1080P60_stream
                0x10012c24                ips_ext_hdmi_transmitter_1080P60_stream
                0x10012de4                ips_hannstar_xga_yuv_stream
                0x10013024                ips_mipi_wvga_rgb_stream
 .text          0x100130c4      0x238 /home/leon/git/swp-report/iMX6_Platform_SDK/output/mx6sdl/sdk_unit_test/sabre_ai_rev_b/libsdk_unit_test.a(ips_test.o)
                0x100130c4                ipu_test
 .text          0x100132fc      0x538 /home/leon/git/swp-report/iMX6_Platform_SDK/output/mx6sdl/sdk_unit_test/sabre_ai_rev_b/libsdk_unit_test.a(ipu_image.o)
                0x100132fc                load_centralized_image
                0x10013438                load_foreground_image
                0x10013484                load_horiz_image
                0x100135f4                set_background_margin
                0x100136e4                load_vert_image
 .text          0x10013834      0x1ec /home/leon/git/swp-report/iMX6_Platform_SDK/output/mx6sdl/sdk_unit_test/sabre_ai_rev_b/libsdk_unit_test.a(mipi_test.o)
                0x10013834                mipi_test
 .text          0x10013a20      0x3cc /home/leon/git/swp-report/iMX6_Platform_SDK/output/mx6sdl/sdk_unit_test/sabre_ai_rev_b/libsdk_unit_test.a(can_test.o)
                0x10013a20                flexcan_test
                0x10013cf4                can2_rx_handler
 .text          0x10013dec      0x194 /home/leon/git/swp-report/iMX6_Platform_SDK/output/mx6sdl/sdk_unit_test/sabre_ai_rev_b/libsdk_unit_test.a(usb_test.o)
                0x10013dec                usb_test
 .text          0x10013f80      0x4dc /home/leon/git/swp-report/iMX6_Platform_SDK/output/mx6sdl/sdk_unit_test/sabre_ai_rev_b/libsdk_unit_test.a(eim_test.o)
                0x10014320                eim_test
 .text          0x1001445c      0x758 /home/leon/git/swp-report/iMX6_Platform_SDK/output/mx6sdl/sdk_unit_test/sabre_ai_rev_b/libsdk_unit_test.a(pcie_test_rc.o)
                0x1001445c                pcie_test
 .text          0x10014bb4      0x574 /home/leon/git/swp-report/iMX6_Platform_SDK/output/mx6sdl/sdk_unit_test/sabre_ai_rev_b/libsdk_unit_test.a(spi_test.o)
                0x10014f34                spi_test
 .text          0x10015128      0x204 /home/leon/git/swp-report/iMX6_Platform_SDK/output/mx6sdl/sdk_unit_test/sabre_ai_rev_b/libsdk_unit_test.a(camera_test.o)
                0x10015128                camera_test
 .text          0x1001532c      0x2f0 /home/leon/git/swp-report/iMX6_Platform_SDK/output/mx6sdl/sdk_unit_test/sabre_ai_rev_b/libsdk_unit_test.a(csi_test_mode.o)
                0x1001532c                csi_test_mode
 *fill*         0x1001561c        0x4 
 .text          0x10015620      0x2f8 /home/leon/git/swp-report/iMX6_Platform_SDK/output/mx6sdl/sdk_unit_test/sabre_ai_rev_b/libsdk_unit_test.a(accelerometer_test.o)
                0x10015620                accelerometer_test
 .text          0x10015918      0x2ac /home/leon/git/swp-report/iMX6_Platform_SDK/output/mx6sdl/sdk_unit_test/sabre_ai_rev_b/libsdk_unit_test.a(at24cxx.o)
                0x100159cc                i2c_eeprom_at24cxx_test
 .text          0x10015bc4      0x404 /home/leon/git/swp-report/iMX6_Platform_SDK/output/mx6sdl/sdk_unit_test/sabre_ai_rev_b/libsdk_unit_test.a(mem_2_mem.o)
                0x10015bc4                mem_2_mem_test
 .text          0x10015fc8      0x2f4 /home/leon/git/swp-report/iMX6_Platform_SDK/output/mx6sdl/sdk_unit_test/sabre_ai_rev_b/libsdk_unit_test.a(pwm_output.o)
                0x10016054                pwm_output_test
 .text          0x100162bc      0x540 /home/leon/git/swp-report/iMX6_Platform_SDK/output/mx6sdl/sdk_unit_test/sabre_ai_rev_b/libsdk_unit_test.a(init_dma_data.o)
                0x100162bc                init_dma_data
 .text          0x100167fc      0x37c /home/leon/git/swp-report/iMX6_Platform_SDK/output/mx6sdl/sdk_unit_test/sabre_ai_rev_b/libsdk_unit_test.a(ips_combiner.o)
                0x100167fc                ips_combiner_test
 .text          0x10016b78      0x52c /home/leon/git/swp-report/iMX6_Platform_SDK/output/mx6sdl/sdk_unit_test/sabre_ai_rev_b/libsdk_unit_test.a(ips_csc.o)
                0x10016b78                ips_csc_test
 .text          0x100170a4      0x738 /home/leon/git/swp-report/iMX6_Platform_SDK/output/mx6sdl/sdk_unit_test/sabre_ai_rev_b/libsdk_unit_test.a(ips_resize.o)
                0x100170a4                ips_resize_test
 .text          0x100177dc      0x3e8 /home/leon/git/swp-report/iMX6_Platform_SDK/output/mx6sdl/sdk_unit_test/sabre_ai_rev_b/libsdk_unit_test.a(ips_rotate.o)
                0x100177dc                ips_rotate_test
 .text          0x10017bc4      0x110 /home/leon/git/swp-report/iMX6_Platform_SDK/output/mx6sdl/sdk_unit_test/sabre_ai_rev_b/libsdk_unit_test.a(mipi_csi2_test.o)
                0x10017bc4                mipi_csi2_test
 .text          0x10017cd4       0x24 /home/leon/git/swp-report/iMX6_Platform_SDK/output/mx6sdl/sdk_unit_test/sabre_ai_rev_b/libsdk_unit_test.a(mipi_dsi_test.o)
                0x10017cd4                mipi_dsi_test
 .text          0x10017cf8     0x16bc /home/leon/git/swp-report/iMX6_Platform_SDK/output/mx6sdl/sdk_unit_test/sabre_ai_rev_b/libsdk_unit_test.a(usb0_device_mouse_test.o)
                0x10017cf8                usb0_device_mouse_test
                0x10018b98                hid_device_enum
                0x10019178                fillBuffer
 .text          0x100193b4     0x39f0 /home/leon/git/swp-report/iMX6_Platform_SDK/output/mx6sdl/sdk_unit_test/sabre_ai_rev_b/libsdk_unit_test.a(usb0_host_test.o)
                0x100193b4                usb0_host_test
                0x10019ee8                emuerateDevice
                0x1001a068                usbh_set_device_address
                0x1001a790                usbh_get_dev_desc
                0x1001aee0                usbh_get_config_desc
                0x1001b670                usbh_get_interface_desc
                0x1001bee0                usbh_set_configuration
                0x1001c61c                usbh_get_report_desc
 .text          0x1001cda4      0x978 /home/leon/git/swp-report/iMX6_Platform_SDK/output/mx6sdl/sdk_unit_test/sabre_ai_rev_b/libsdk_unit_test.a(usb0_host_testmodes_test.o)
                0x1001cda4                usb0_host_testmodes_test
 .text          0x1001d71c      0xd18 /home/leon/git/swp-report/iMX6_Platform_SDK/output/mx6sdl/sdk_unit_test/sabre_ai_rev_b/libsdk_unit_test.a(cfi_flash_api.o)
                0x1001d7d4                flash_protect
                0x1001da14                flash_write
                0x1001dc80                flash_perror
                0x1001ddb8                flash_fill_sect_ranges
                0x1001e194                flash_sects_protect
                0x1001e31c                flash_sects_erase
 .text          0x1001e434     0x296c /home/leon/git/swp-report/iMX6_Platform_SDK/output/mx6sdl/sdk_unit_test/sabre_ai_rev_b/libsdk_unit_test.a(cfi_flash_driver.o)
                0x10020074                flash_reset
                0x1002009c                flash_init
                0x10020204                flash_erase
                0x100205dc                flash_print_info
                0x1002080c                write_buff
 .text          0x10020da0      0xb00 /home/leon/git/swp-report/iMX6_Platform_SDK/output/mx6sdl/sdk_unit_test/sabre_ai_rev_b/libsdk_unit_test.a(spi_nor_numonyx.o)
                0x10021078                spi_nor_query_numonyx
                0x10021144                spi_nor_erase_numonyx
                0x100211d0                spi_nor_read_numonyx
                0x10021418                spi_nor_write_numonyx
 .text          0x100218a0      0x300 /home/leon/git/swp-report/iMX6_Platform_SDK/output/mx6sdl/sdk_unit_test/sabre_ai_rev_b/libsdk_unit_test.a(adv7180_capture.o)
                0x100218a0                adv7180_capture
 .text          0x10021ba0       0xa4 /home/leon/riotboard/arm-2012.09/bin/../arm-none-eabi/lib//libm.a(lib_a-sf_cos.o)
                0x10021ba0                cosf
 .text          0x10021c44        0x8 /home/leon/riotboard/arm-2012.09/bin/../arm-none-eabi/lib//libm.a(lib_a-sf_fabs.o)
                0x10021c44                fabsf
 .text          0x10021c4c       0x70 /home/leon/riotboard/arm-2012.09/bin/../arm-none-eabi/lib//libm.a(lib_a-sf_modf.o)
                0x10021c4c                modff
 .text          0x10021cbc       0xbc /home/leon/riotboard/arm-2012.09/bin/../arm-none-eabi/lib//libm.a(lib_a-sf_sin.o)
                0x10021cbc                sinf
 .text          0x10021d78      0x460 /home/leon/riotboard/arm-2012.09/bin/../arm-none-eabi/lib//libm.a(lib_a-ef_rem_pio2.o)
                0x10021d78                __ieee754_rem_pio2f
 .text          0x100221d8      0x214 /home/leon/riotboard/arm-2012.09/bin/../arm-none-eabi/lib//libm.a(lib_a-kf_cos.o)
                0x100221d8                __kernel_cosf
 .text          0x100223ec      0x960 /home/leon/riotboard/arm-2012.09/bin/../arm-none-eabi/lib//libm.a(lib_a-kf_rem_pio2.o)
                0x100223ec                __kernel_rem_pio2f
 .text          0x10022d4c      0x14c /home/leon/riotboard/arm-2012.09/bin/../arm-none-eabi/lib//libm.a(lib_a-kf_sin.o)
                0x10022d4c                __kernel_sinf
 .text          0x10022e98       0xd0 /home/leon/riotboard/arm-2012.09/bin/../arm-none-eabi/lib//libm.a(lib_a-sf_floor.o)
                0x10022e98                floorf
 .text          0x10022f68      0x120 /home/leon/riotboard/arm-2012.09/bin/../arm-none-eabi/lib//libm.a(lib_a-sf_scalbn.o)
                0x10022f68                scalbnf
 .text          0x10023088       0x10 /home/leon/riotboard/arm-2012.09/bin/../arm-none-eabi/lib//libm.a(lib_a-sf_copysign.o)
                0x10023088                copysignf
 .text          0x10023098       0x68 /home/leon/riotboard/arm-2012.09/bin/../arm-none-eabi/lib//libc.a(lib_a-assert.o)
                0x10023098                __assert_func
                0x100230f0                __assert
 .text          0x10023100       0x20 /home/leon/riotboard/arm-2012.09/bin/../arm-none-eabi/lib//libc.a(lib_a-bzero.o)
                0x10023100                bzero
 .text          0x10023120      0x26c /home/leon/riotboard/arm-2012.09/bin/../arm-none-eabi/lib//libc.a(lib_a-fflush.o)
                0x10023120                _fflush_r
                0x1002334c                fflush
 .text          0x1002338c      0x2c4 /home/leon/riotboard/arm-2012.09/bin/../arm-none-eabi/lib//libc.a(lib_a-findfp.o)
                0x1002339c                _cleanup_r
                0x10023430                __sfmoreglue
                0x10023478                _cleanup
                0x10023488                __sinit
                0x10023500                __sfp
                0x100235f8                __sfp_lock_acquire
                0x100235fc                __sfp_lock_release
                0x10023600                __sinit_lock_acquire
                0x10023604                __sinit_lock_release
                0x10023608                __fp_lock_all
                0x1002362c                __fp_unlock_all
 .text          0x10023650       0x70 /home/leon/riotboard/arm-2012.09/bin/../arm-none-eabi/lib//libc.a(lib_a-fiprintf.o)
                0x10023650                _fiprintf_r
                0x10023680                fiprintf
 .text          0x100236c0       0x94 /home/leon/riotboard/arm-2012.09/bin/../arm-none-eabi/lib//libc.a(lib_a-fputc.o)
                0x100236c0                _fputc_r
                0x10023704                fputc
 .text          0x10023754       0xa8 /home/leon/riotboard/arm-2012.09/bin/../arm-none-eabi/lib//libc.a(lib_a-fputs.o)
                0x10023754                _fputs_r
                0x100237e0                fputs
 .text          0x100237fc      0x368 /home/leon/riotboard/arm-2012.09/bin/../arm-none-eabi/lib//libc.a(lib_a-freer.o)
                0x100237fc                _malloc_trim_r
                0x100238f8                _free_r
 .text          0x10023b64      0x4c4 /home/leon/riotboard/arm-2012.09/bin/../arm-none-eabi/lib//libc.a(lib_a-fvwrite.o)
                0x10023b64                __sfvwrite_r
 .text          0x10024028      0x114 /home/leon/riotboard/arm-2012.09/bin/../arm-none-eabi/lib//libc.a(lib_a-fwalk.o)
                0x10024028                _fwalk
                0x100240b0                _fwalk_reent
 .text          0x1002413c        0x0 /home/leon/riotboard/arm-2012.09/bin/../arm-none-eabi/lib//libc.a(lib_a-impure.o)
 .text          0x1002413c       0x88 /home/leon/riotboard/arm-2012.09/bin/../arm-none-eabi/lib//libc.a(lib_a-init.o)
                0x1002413c                __libc_init_array
 .text          0x100241c4       0x40 /home/leon/riotboard/arm-2012.09/bin/../arm-none-eabi/lib//libc.a(lib_a-malloc.o)
                0x100241c4                malloc
                0x100241e4                free
 .text          0x10024204      0x71c /home/leon/riotboard/arm-2012.09/bin/../arm-none-eabi/lib//libc.a(lib_a-mallocr.o)
                0x10024204                _malloc_r
 .text          0x10024920      0x11c /home/leon/riotboard/arm-2012.09/bin/../arm-none-eabi/lib//libc.a(lib_a-memchr.o)
                0x10024920                memchr
 .text          0x10024a3c      0x20c /home/leon/riotboard/arm-2012.09/bin/../arm-none-eabi/lib//libc.a(lib_a-memcpy.o)
                0x10024a3c                memcpy
 .text          0x10024c48      0x134 /home/leon/riotboard/arm-2012.09/bin/../arm-none-eabi/lib//libc.a(lib_a-memmove.o)
                0x10024c48                memmove
 .text          0x10024d7c      0x134 /home/leon/riotboard/arm-2012.09/bin/../arm-none-eabi/lib//libc.a(lib_a-memset.o)
                0x10024d7c                memset
 .text          0x10024eb0        0x8 /home/leon/riotboard/arm-2012.09/bin/../arm-none-eabi/lib//libc.a(lib_a-mlock.o)
                0x10024eb0                __malloc_lock
                0x10024eb4                __malloc_unlock
 .text          0x10024eb8       0x74 /home/leon/riotboard/arm-2012.09/bin/../arm-none-eabi/lib//libc.a(lib_a-printf.o)
                0x10024eb8                _printf_r
                0x10024eec                printf
 .text          0x10024f2c      0x170 /home/leon/riotboard/arm-2012.09/bin/../arm-none-eabi/lib//libc.a(lib_a-putc.o)
                0x10024f2c                _putc_r
                0x10024fdc                putc
 .text          0x1002509c       0xb8 /home/leon/riotboard/arm-2012.09/bin/../arm-none-eabi/lib//libc.a(lib_a-puts.o)
                0x1002509c                _puts_r
                0x10025140                puts
 .text          0x10025154       0x28 /home/leon/riotboard/arm-2012.09/bin/../arm-none-eabi/lib//libc.a(lib_a-realloc.o)
                0x10025154                realloc
 .text          0x1002517c      0x574 /home/leon/riotboard/arm-2012.09/bin/../arm-none-eabi/lib//libc.a(lib_a-reallocr.o)
                0x1002517c                _realloc_r
 .text          0x100256f0       0x6c /home/leon/riotboard/arm-2012.09/bin/../arm-none-eabi/lib//libc.a(lib_a-rget.o)
                0x100256f0                __srget_r
                0x10025748                __srget
 .text          0x1002575c       0x40 /home/leon/riotboard/arm-2012.09/bin/../arm-none-eabi/lib//libc.a(lib_a-sbrkr.o)
                0x1002575c                _sbrk_r
 .text          0x1002579c       0xdc /home/leon/riotboard/arm-2012.09/bin/../arm-none-eabi/lib//libc.a(lib_a-sprintf.o)
                0x1002579c                _sprintf_r
                0x10025804                sprintf
 .text          0x10025878       0xdc /home/leon/riotboard/arm-2012.09/bin/../arm-none-eabi/lib//libc.a(lib_a-stdio.o)
                0x10025878                __sread
                0x100258ac                __seofread
                0x100258b4                __swrite
                0x1002590c                __sseek
                0x10025940                __sclose
 .text          0x10025954       0x60 /home/leon/riotboard/arm-2012.09/bin/../arm-none-eabi/lib//libc.a(lib_a-strlen.o)
                0x10025954                strlen
 .text          0x100259b4       0x78 /home/leon/riotboard/arm-2012.09/bin/../arm-none-eabi/lib//libc.a(lib_a-strncasecmp.o)
                0x100259b4                strncasecmp
 .text          0x10025a2c     0x1f7c /home/leon/riotboard/arm-2012.09/bin/../arm-none-eabi/lib//libc.a(lib_a-svfprintf.o)
                0x10025a2c                _svfprintf_r
 .text          0x100279a8     0x12c4 /home/leon/riotboard/arm-2012.09/bin/../arm-none-eabi/lib//libc.a(lib_a-vfiprintf.o)
                0x100279a8                __sprint_r
                0x10027a64                _vfiprintf_r
                0x10028c40                vfiprintf
 .text          0x10028c6c     0x2180 /home/leon/riotboard/arm-2012.09/bin/../arm-none-eabi/lib//libc.a(lib_a-vfprintf.o)
                0x10028c6c                _vfprintf_r
                0x1002adc0                vfprintf
 .text          0x1002adec       0x4c /home/leon/riotboard/arm-2012.09/bin/../arm-none-eabi/lib//libc.a(lib_a-vprintf.o)
                0x1002adec                vprintf
                0x1002ae18                _vprintf_r
 .text          0x1002ae38      0x14c /home/leon/riotboard/arm-2012.09/bin/../arm-none-eabi/lib//libc.a(lib_a-wbuf.o)
                0x1002ae38                __swbuf_r
                0x1002af68                __swbuf
 .text          0x1002af84       0x44 /home/leon/riotboard/arm-2012.09/bin/../arm-none-eabi/lib//libc.a(lib_a-writer.o)
                0x1002af84                _write_r
 .text          0x1002afc8      0x138 /home/leon/riotboard/arm-2012.09/bin/../arm-none-eabi/lib//libc.a(lib_a-wsetup.o)
                0x1002afc8                __swsetup_r
 .text          0x1002b100       0x14 /home/leon/riotboard/arm-2012.09/bin/../arm-none-eabi/lib//libc.a(lib_a-abort.o)
                0x1002b100                abort
 .text          0x1002b114       0x3c /home/leon/riotboard/arm-2012.09/bin/../arm-none-eabi/lib//libc.a(lib_a-closer.o)
                0x1002b114                _close_r
 .text          0x1002b150        0x0 /home/leon/riotboard/arm-2012.09/bin/../arm-none-eabi/lib//libc.a(lib_a-ctype_.o)
 .text          0x1002b150     0x18a8 /home/leon/riotboard/arm-2012.09/bin/../arm-none-eabi/lib//libc.a(lib_a-dtoa.o)
                0x1002b330                _dtoa_r
 .text          0x1002c9f8      0x10c /home/leon/riotboard/arm-2012.09/bin/../arm-none-eabi/lib//libc.a(lib_a-fclose.o)
                0x1002c9f8                _fclose_r
                0x1002caf0                fclose
 .text          0x1002cb04      0x19c /home/leon/riotboard/arm-2012.09/bin/../arm-none-eabi/lib//libc.a(lib_a-fputwc.o)
                0x1002cb04                _fputwc_r
                0x1002cc54                fputwc
 .text          0x1002cca0       0xd0 /home/leon/riotboard/arm-2012.09/bin/../arm-none-eabi/lib//libc.a(lib_a-locale.o)
                0x1002cca0                _setlocale_r
                0x1002cd0c                __locale_charset
                0x1002cd18                __locale_mb_cur_max
                0x1002cd28                __locale_msgcharset
                0x1002cd34                __locale_cjk_lang
                0x1002cd3c                _localeconv_r
                0x1002cd48                setlocale
                0x1002cd64                localeconv
 .text          0x1002cd70       0x44 /home/leon/riotboard/arm-2012.09/bin/../arm-none-eabi/lib//libc.a(lib_a-lseekr.o)
                0x1002cd70                _lseek_r
 .text          0x1002cdb4      0x15c /home/leon/riotboard/arm-2012.09/bin/../arm-none-eabi/lib//libc.a(lib_a-makebuf.o)
                0x1002cdb4                __smakebuf_r
 .text          0x1002cf10      0xd20 /home/leon/riotboard/arm-2012.09/bin/../arm-none-eabi/lib//libc.a(lib_a-mprec.o)
                0x1002cf10                _Balloc
                0x1002cf9c                _Bfree
                0x1002cfb8                __multadd
                0x1002d094                __s2b
                0x1002d184                __hi0bits
                0x1002d1d4                __lo0bits
                0x1002d268                __i2b
                0x1002d28c                __multiply
                0x1002d470                __pow5mult
                0x1002d564                __lshift
                0x1002d668                __mcmp
                0x1002d6cc                __mdiff
                0x1002d818                __ulp
                0x1002d87c                __b2d
                0x1002d948                __d2b
                0x1002da50                __ratio
                0x1002dae0                _mprec_log10
                0x1002db34                __copybits
                0x1002dba8                __any_on
 .text          0x1002dc30       0x44 /home/leon/riotboard/arm-2012.09/bin/../arm-none-eabi/lib//libc.a(lib_a-readr.o)
                0x1002dc30                _read_r
 .text          0x1002dc74      0x19c /home/leon/riotboard/arm-2012.09/bin/../arm-none-eabi/lib//libc.a(lib_a-reent.o)
                0x1002dc74                cleanup_glue
                0x1002dca0                _reclaim_reent
                0x1002dd9c                _wrapup_reent
 .text          0x1002de10      0x1cc /home/leon/riotboard/arm-2012.09/bin/../arm-none-eabi/lib//libc.a(lib_a-refill.o)
                0x1002de38                __srefill_r
 .text          0x1002dfdc       0x6c /home/leon/riotboard/arm-2012.09/bin/../arm-none-eabi/lib//libc.a(lib_a-s_fpclassify.o)
                0x1002dfdc                __fpclassifyd
 .text          0x1002e048      0x24c /home/leon/riotboard/arm-2012.09/bin/../arm-none-eabi/lib//libc.a(lib_a-signal.o)
                0x1002e048                _init_signal_r
                0x1002e0a8                _signal_r
                0x1002e114                _raise_r
                0x1002e1ac                __sigtramp_r
                0x1002e240                raise
                0x1002e254                signal
                0x1002e270                _init_signal
                0x1002e280                __sigtramp
 .text          0x1002e294       0x50 /home/leon/riotboard/arm-2012.09/bin/../arm-none-eabi/lib//libc.a(lib_a-signalr.o)
                0x1002e294                _kill_r
                0x1002e2d4                _getpid_r
 .text          0x1002e2e4      0x230 /home/leon/riotboard/arm-2012.09/bin/../arm-none-eabi/lib//libc.a(lib_a-strcmp.o)
                0x1002e2e4                strcmp
 .text          0x1002e514     0x1224 /home/leon/riotboard/arm-2012.09/bin/../arm-none-eabi/lib//libc.a(lib_a-svfiprintf.o)
                0x1002e514                __ssprint_r
                0x1002e6b8                _svfiprintf_r
 .text          0x1002f738      0x134 /home/leon/riotboard/arm-2012.09/bin/../arm-none-eabi/lib//libc.a(lib_a-wcrtomb.o)
                0x1002f738                _wcrtomb_r
                0x1002f7c8                wcrtomb
 .text          0x1002f86c       0x7c /home/leon/riotboard/arm-2012.09/bin/../arm-none-eabi/lib//libc.a(lib_a-wctomb_r.o)
                0x1002f86c                __ascii_wctomb
                0x1002f898                _wctomb_r
 .text          0x1002f8e8       0x94 /home/leon/riotboard/arm-2012.09/bin/../arm-none-eabi/lib//libc.a(lib_a-callocr.o)
                0x1002f8e8                _calloc_r
 .text          0x1002f97c       0x40 /home/leon/riotboard/arm-2012.09/bin/../arm-none-eabi/lib//libc.a(lib_a-fstatr.o)
                0x1002f97c                _fstat_r
 .text          0x1002f9bc       0x3c /home/leon/riotboard/arm-2012.09/bin/../arm-none-eabi/lib//libc.a(lib_a-isattyr.o)
                0x1002f9bc                _isatty_r
 .text          0x1002f9f8      0x114 /home/leon/riotboard/arm-2012.09/bin/../lib/gcc/arm-none-eabi/4.7.2//libgcc.a(_udivsi3.o)
                0x1002f9f8                __udivsi3
                0x1002f9f8                __aeabi_uidiv
                0x1002faec                __aeabi_uidivmod
 .text          0x1002fb0c      0x148 /home/leon/riotboard/arm-2012.09/bin/../lib/gcc/arm-none-eabi/4.7.2//libgcc.a(_divsi3.o)
                0x1002fb0c                __aeabi_idiv
                0x1002fb0c                __divsi3
                0x1002fc34                __aeabi_idivmod
 .text          0x1002fc54        0x4 /home/leon/riotboard/arm-2012.09/bin/../lib/gcc/arm-none-eabi/4.7.2//libgcc.a(_dvmd_tls.o)
                0x1002fc54                __aeabi_ldiv0
                0x1002fc54                __aeabi_idiv0
 .text          0x1002fc58      0x41c /home/leon/riotboard/arm-2012.09/bin/../lib/gcc/arm-none-eabi/4.7.2//libgcc.a(_arm_addsubdf3.o)
                0x1002fc58                __aeabi_drsub
                0x1002fc60                __aeabi_dsub
                0x1002fc60                __subdf3
                0x1002fc64                __adddf3
                0x1002fc64                __aeabi_dadd
                0x1002ff74                __aeabi_ui2d
                0x1002ff74                __floatunsidf
                0x1002ff98                __floatsidf
                0x1002ff98                __aeabi_i2d
                0x1002ffc0                __extendsfdf2
                0x1002ffc0                __aeabi_f2d
                0x10030000                __aeabi_ul2d
                0x10030000                __floatundidf
                0x10030014                __floatdidf
                0x10030014                __aeabi_l2d
 .text          0x10030074      0x49c /home/leon/riotboard/arm-2012.09/bin/../lib/gcc/arm-none-eabi/4.7.2//libgcc.a(_arm_muldivdf3.o)
                0x10030074                __aeabi_dmul
                0x10030074                __muldf3
                0x10030304                __aeabi_ddiv
                0x10030304                __divdf3
 .text          0x10030510      0x144 /home/leon/riotboard/arm-2012.09/bin/../lib/gcc/arm-none-eabi/4.7.2//libgcc.a(_arm_cmpdf2.o)
                0x10030510                __gtdf2
                0x10030510                __gedf2
                0x10030518                __ltdf2
                0x10030518                __ledf2
                0x10030520                __cmpdf2
                0x10030520                __eqdf2
                0x10030520                __nedf2
                0x100305a8                __aeabi_cdrcmple
                0x100305c4                __aeabi_cdcmple
                0x100305c4                __aeabi_cdcmpeq
                0x100305dc                __aeabi_dcmpeq
                0x100305f4                __aeabi_dcmplt
                0x1003060c                __aeabi_dcmple
                0x10030624                __aeabi_dcmpge
                0x1003063c                __aeabi_dcmpgt
 .text          0x10030654       0x5c /home/leon/riotboard/arm-2012.09/bin/../lib/gcc/arm-none-eabi/4.7.2//libgcc.a(_arm_fixdfsi.o)
                0x10030654                __fixdfsi
                0x10030654                __aeabi_d2iz
 .text          0x100306b0      0x2ac /home/leon/riotboard/arm-2012.09/bin/../lib/gcc/arm-none-eabi/4.7.2//libgcc.a(_arm_addsubsf3.o)
                0x100306b0                __aeabi_frsub
                0x100306b8                __subsf3
                0x100306b8                __aeabi_fsub
                0x100306bc                __aeabi_fadd
                0x100306bc                __addsf3
                0x10030878                __aeabi_ui2f
                0x10030878                __floatunsisf
                0x10030880                __aeabi_i2f
                0x10030880                __floatsisf
                0x100308a0                __floatundisf
                0x100308a0                __aeabi_ul2f
                0x100308b0                __floatdisf
                0x100308b0                __aeabi_l2f
 .text          0x1003095c      0x2f8 /home/leon/riotboard/arm-2012.09/bin/../lib/gcc/arm-none-eabi/4.7.2//libgcc.a(_arm_muldivsf3.o)
                0x1003095c                __mulsf3
                0x1003095c                __aeabi_fmul
                0x10030af4                __divsf3
                0x10030af4                __aeabi_fdiv
 .text          0x10030c54      0x114 /home/leon/riotboard/arm-2012.09/bin/../lib/gcc/arm-none-eabi/4.7.2//libgcc.a(_arm_cmpsf2.o)
                0x10030c54                __gtsf2
                0x10030c54                __gesf2
                0x10030c5c                __lesf2
                0x10030c5c                __ltsf2
                0x10030c64                __nesf2
                0x10030c64                __eqsf2
                0x10030c64                __cmpsf2
                0x10030cc8                __aeabi_cfrcmple
                0x10030cd8                __aeabi_cfcmple
                0x10030cd8                __aeabi_cfcmpeq
                0x10030cf0                __aeabi_fcmpeq
                0x10030d08                __aeabi_fcmplt
                0x10030d20                __aeabi_fcmple
                0x10030d38                __aeabi_fcmpge
                0x10030d50                __aeabi_fcmpgt
 .text          0x10030d68       0x5c /home/leon/riotboard/arm-2012.09/bin/../lib/gcc/arm-none-eabi/4.7.2//libgcc.a(_arm_fixsfsi.o)
                0x10030d68                __fixsfsi
                0x10030d68                __aeabi_f2iz
 .text          0x10030dc4       0x3c /home/leon/riotboard/arm-2012.09/bin/../lib/gcc/arm-none-eabi/4.7.2//libgcc.a(_aeabi_uldivmod.o)
                0x10030dc4                __aeabi_uldivmod
 .text          0x10030e00       0x84 /home/leon/riotboard/arm-2012.09/bin/../lib/gcc/arm-none-eabi/4.7.2//libgcc.a(bpabi.o)
                0x10030e00                __gnu_ldivmod_helper
                0x10030e44                __gnu_uldivmod_helper
 .text          0x10030e84      0x4f0 /home/leon/riotboard/arm-2012.09/bin/../lib/gcc/arm-none-eabi/4.7.2//libgcc.a(_divdi3.o)
                0x10030e84                __divdi3
 .text          0x10031374      0x488 /home/leon/riotboard/arm-2012.09/bin/../lib/gcc/arm-none-eabi/4.7.2//libgcc.a(_udivdi3.o)
                0x10031374                __udivdi3
 .text          0x100317fc       0x48 /home/leon/riotboard/arm-2012.09/bin/../lib/gcc/arm-none-eabi/4.7.2//libgcc.a(_clzsi2.o)
                0x100317fc                __clzsi2
 .text          0x10031844      0x264 /home/leon/git/swp-report/iMX6_Platform_SDK/output/mx6sdl/lib/libsdk.a(max7310.o)
                0x10031844                max7310_reg_read
                0x100318a8                max7310_reg_write
                0x10031914                max7310_init
                0x100319f4                max7310_set_gpio_output
 .text          0x10031aa8       0x64 /home/leon/git/swp-report/iMX6_Platform_SDK/output/mx6sdl/lib/libsdk.a(profile.o)
                0x10031aa8                StartPerfCounter
                0x10031ad0                StopPerfCounter
 .text          0x10031b0c      0x644 /home/leon/git/swp-report/iMX6_Platform_SDK/output/mx6sdl/lib/libsdk.a(armv7_cache.o)
                0x10031b0c                arm_dcache_state_query
                0x10031b4c                arm_dcache_enable
                0x10031b94                arm_dcache_disable
                0x10031bcc                arm_dcache_invalidate
                0x10031c70                arm_dcache_invalidate_line
                0x10031cdc                arm_dcache_invalidate_mlines
                0x10031d7c                arm_dcache_flush
                0x10031e20                arm_dcache_flush_line
                0x10031e8c                arm_dcache_flush_mlines
                0x10031f2c                arm_icache_state_query
                0x10031f6c                arm_icache_enable
                0x10031fb4                arm_icache_disable
                0x10031fec                arm_icache_invalidate
                0x10032018                arm_icache_invalidate_is
                0x10032044                arm_icache_invalidate_line
                0x100320b0                arm_icache_invalidate_mlines
 .text          0x10032150      0x610 /home/leon/git/swp-report/iMX6_Platform_SDK/output/mx6sdl/lib/libsdk.a(runtime_support.o)
                0x10032150                _execve
                0x1003218c                _fork
                0x100321b4                _isatty
                0x100321d8                _open
                0x10032204                _close
                0x10032228                _lseek
                0x10032254                _fstat
                0x10032288                _read
                0x10032358                _write
                0x10032444                _raw_puts
                0x100324c4                _sbrk
                0x10032574                _exit
                0x10032594                _kill
                0x100325cc                _getpid
                0x100325e4                _link
                0x1003261c                _unlink
                0x10032650                _stat
                0x10032684                _times
                0x100326a8                _gettimeofday
                0x1003272c                _wait
 .text          0x10032760      0x62c /home/leon/git/swp-report/iMX6_Platform_SDK/output/mx6sdl/lib/libsdk.a(mma8451.o)
                0x10032760                mma8451_read_register
                0x10032830                mma8451_write_register
                0x10032910                mma8451_init
                0x10032acc                mma8451_get_acceleration
 .text          0x10032d8c       0x78 /home/leon/git/swp-report/iMX6_Platform_SDK/output/mx6sdl/lib/libsdk.a(cpu_get_cores.o)
                0x10032d8c                cpu_get_cores
 .text          0x10032e04      0x1d8 /home/leon/git/swp-report/iMX6_Platform_SDK/output/mx6sdl/lib/libsdk.a(cpu_multicore.o)
                0x10032e68                cpu_start_secondary
                0x10032f6c                cpu_disable
 .text          0x10032fdc      0x1cc /home/leon/git/swp-report/iMX6_Platform_SDK/output/mx6sdl/lib/libsdk.a(cpu_workpoint.o)
                0x10032fdc                cpu_workpoint_set
 .text          0x100331a8      0x4f0 /home/leon/git/swp-report/iMX6_Platform_SDK/output/mx6sdl/lib/libsdk.a(eim.o)
                0x100331a8                eim_init
                0x100332f8                eim_cfg_set
 .text          0x10033698      0xe60 /home/leon/git/swp-report/iMX6_Platform_SDK/output/mx6sdl/lib/libsdk.a(can.o)
                0x10033698                can_init
                0x100338b8                can_update_bitrate
                0x10033b2c                can_sw_reset
                0x10033c14                set_can_mb
                0x10033cf0                print_can_mb
                0x10033e04                can_enable_mb_interrupt
                0x10033f74                can_disable_mb_interrupt
                0x100340ec                can_exit_freeze
                0x1003418c                can_freeze
                0x1003422c                can_mb_int_flag
                0x10034304                can_mb_int_ack
                0x10034468                can_setup_interrupt
 .text          0x100344f8     0x1308 /home/leon/git/swp-report/iMX6_Platform_SDK/output/mx6sdl/lib/libsdk.a(gpio.o)
                0x10034528                gpio_get_port_count
                0x10034540                gpio_set_gpio
                0x10034604                gpio_set_direction
                0x10034860                gpio_get_direction
                0x100349a8                gpio_set_level
                0x10034ce8                gpio_get_level
                0x10034e48                gpio_set_interrupt_config
                0x1003524c                gpio_set_interrupt_mask
                0x10035490                gpio_get_interrupt_status
                0x100355ec                gpio_clear_interrupt
 .text          0x10035800        0x0 /home/leon/git/swp-report/iMX6_Platform_SDK/output/mx6sdl/lib/libsdk.a(imx6sdl_gpio_map.o)
 .text          0x10035800     0x1334 /home/leon/git/swp-report/iMX6_Platform_SDK/output/mx6sdl/lib/libsdk.a(hdmi_tx.o)
                0x10035800                hdmi_config_input_source
                0x10035840                hdmi_video_sample
                0x10035a88                update_csc_coeffs
                0x10035f9c                hdmi_video_csc
                0x1003613c                hdmi_video_packetize
                0x10036508                preamble_filter_set
                0x100365c8                hdmi_av_frame_composer
                0x10036a10                hdmi_tx_hdcp_config
                0x10036a7c                hdmi_config_force_video
                0x10036ad4                hdmi_config_forced_pixels
 .text          0x10036b34      0xd24 /home/leon/git/swp-report/iMX6_Platform_SDK/output/mx6sdl/lib/libsdk.a(hdmi_tx_audio.o)
                0x10036b34                hdmi_audio_mute
                0x10036b84                audio_PacketLayout
                0x10036bc4                audio_DMA_InterruptMask
                0x10036bf4                audio_DMA_InterruptPolarity
                0x10036c24                audio_DMA_ResetFIFO
                0x10036c48                audio_clk_N
                0x10036ca8                audio_clk_CTS
                0x10036d48                audio_ComputeN
                0x10037068                audio_ComputeCTS
                0x100372a4                audio_DMA_StartAddr
                0x1003731c                audio_DMA_StopAddr
                0x10037394                audio_DMA_LockEnable
                0x100373d4                audio_DMA_BurstMode
                0x10037414                audio_DMA_IncrType
                0x10037454                audio_DMA_Threshold
                0x10037484                audio_DMA_SetCONF1
                0x100374b4                audio_DMA_Start
                0x100374d8                audio_Configure
                0x10037590                Audio_ChannelCount
                0x10037680                audio_Configure_DMA
                0x10037818                audio_info_config
 .text          0x10037858     0x14fc /home/leon/git/swp-report/iMX6_Platform_SDK/output/mx6sdl/lib/libsdk.a(hdmi_tx_phy.o)
                0x10037858                hdmi_phy_int_mask
                0x10038cc0                hdmi_phy_init
 .text          0x10038d54     0x1798 /home/leon/git/swp-report/iMX6_Platform_SDK/output/mx6sdl/lib/libsdk.a(imx_i2c.o)
                0x10038d84                i2c_get_request_instance
                0x100397fc                i2c_xfer
                0x10039f18                i2c_read
                0x10039f48                i2c_write
                0x10039f78                i2c_setup_interrupt
                0x1003a1e4                i2c_init
 .text          0x1003a4ec      0xd38 /home/leon/git/swp-report/iMX6_Platform_SDK/output/mx6sdl/lib/libsdk.a(imx_i2c_slave.o)
                0x1003a4ec                i2c_slave_interrupt_routine
                0x1003a638                i2c_slave_handler
                0x1003ac68                i2c_slave_xfer
 .text          0x1003b224      0x474 /home/leon/git/swp-report/iMX6_Platform_SDK/output/mx6sdl/lib/libsdk.a(ips_disp_panel.o)
                0x1003b4b8                search_panel
                0x1003b578                list_panel
                0x1003b610                get_panel_by_id
 .text          0x1003b698      0xf90 /home/leon/git/swp-report/iMX6_Platform_SDK/output/mx6sdl/lib/libsdk.a(ipu_common.o)
                0x1003b698                need_csc
                0x1003b700                ipu_write_field
                0x1003b7a4                ipu_read
                0x1003b7fc                ipu_write
                0x1003b850                ipu_enable_display
                0x1003b8bc                ipu_disable_display
                0x1003b93c                ipu_sw_reset
                0x1003ba1c                ipu_display_setup
                0x1003bb90                ipu_dual_display_setup
                0x1003bc94                ipu_capture_setup
                0x1003c0d8                ipu_capture_streamoff
                0x1003c1ac                ipu_mipi_csi2_setup
                0x1003c3a4                ipu1_ch0_eobnd_isr
                0x1003c580                ipu_ch0_eobnd_interrupt_register
 .text          0x1003c628      0xcb8 /home/leon/git/swp-report/iMX6_Platform_SDK/output/mx6sdl/lib/libsdk.a(ipu_csi.o)
                0x1003c628                ipu_csi_config
                0x1003cc6c                ipu_smfc_fifo_allocate
                0x1003cdc8                ipu_capture_disp_link
                0x1003cef4                ipu_disable_csi
                0x1003cf60                ipu_disable_smfc
                0x1003cf94                ipu_csi_test_mode_color
 .text          0x1003d2e0     0x1bd8 /home/leon/git/swp-report/iMX6_Platform_SDK/output/mx6sdl/lib/libsdk.a(ipu_dc.o)
                0x1003d2e0                ipu_dc_config
                0x1003d5d0                ipu_dc_write_channel_config
                0x1003d888                ipu_dc_display_config
                0x1003da1c                ipu_dc_map
                0x1003ddb0                ipu_dc_microcode_config
                0x1003eb5c                ipu_dc_microcode_event
 .text          0x1003eeb8      0xfd8 /home/leon/git/swp-report/iMX6_Platform_SDK/output/mx6sdl/lib/libsdk.a(ipu_di.o)
                0x1003eeb8                ipu_di_config
                0x1003f4e8                ipu_di_waveform_config
                0x1003f5b0                ipu_di_screen_set
                0x1003f644                ipu_di_pointer_config
                0x1003f794                ipu_di_bsclk_gen
                0x1003f8cc                ipu_di_sync_config
                0x1003fbd4                ipu_di_interface_set
 .text          0x1003fe90      0x3e0 /home/leon/git/swp-report/iMX6_Platform_SDK/output/mx6sdl/lib/libsdk.a(ipu_dmfc.o)
                0x1003fe90                ipu_dmfc_config
                0x10040124                ipu_dmfc_alloc
 .text          0x10040270      0x59c /home/leon/git/swp-report/iMX6_Platform_SDK/output/mx6sdl/lib/libsdk.a(ipu_dp.o)
                0x10040270                ipu_dp_config
                0x100402c4                ipu_dp_csc_config
                0x10040668                ipu_dp_fg_config
 .text          0x1004080c     0x167c /home/leon/git/swp-report/iMX6_Platform_SDK/output/mx6sdl/lib/libsdk.a(ipu_ic.o)
                0x1004080c                ipu_ic_enable
                0x10040858                ipu_ic_rotation_config
                0x10040a64                ipu_ic_resize_config
                0x10040fb8                ipu_ic_deinterlace_config
                0x10041194                ipu_ic_calc_resize_coeffs
                0x100412ac                ipu_ic_config_resize_rate
                0x100413d4                ipu_ic_combine_config
                0x10041590                ipu_ic_csc_config
                0x10041c88                ipu_ic_task_enable
 .text          0x10041e88     0x2828 /home/leon/git/swp-report/iMX6_Platform_SDK/output/mx6sdl/lib/libsdk.a(ipu_idmac.o)
                0x10041e88                ipu_cpmem_set_field
                0x10041fb4                ipu_cpmem_mod_field
                0x10042140                ipu_cpmem_read_field
                0x1004229c                ipu_channel_buf_ready
                0x10042414                ipu_channel_buf_not_ready
                0x1004258c                ipu_idmac_channel_mode_sel
                0x10042614                ipu_idmac_channel_enable
                0x1004269c                ipu_idmac_channel_busy
                0x10042748                ipu_general_idmac_config
                0x10042c2c                ipu_disp_bg_idmac_config
                0x10042d14                ipu_disp_fg_idmac_config
                0x10042dfc                ipu_dma_update_buffer
                0x10042ef0                ipu_idmac_chan_cur_buff
                0x10042f84                ipu_rotate_idmac_config
                0x100430b8                ipu_resize_idmac_config
                0x100431f4                ipu_deinterlace_idmac_config
                0x10043348                ipu_idma_pixel_format_config
 .text          0x100446b0      0x598 /home/leon/git/swp-report/iMX6_Platform_SDK/output/mx6sdl/lib/libsdk.a(ipu_vdi.o)
                0x100446b0                ipu_deinterlace_3_fields
                0x10044700                ipu_vdi_set_top_field_man
                0x10044774                ipu_vdi_set_motion
                0x1004487c                ipu_vdi_init
                0x100449c0                ipu_vdi_uninit
                0x10044a08                ips_deinterlace_proc
 .text          0x10044c48      0x4ac /home/leon/git/swp-report/iMX6_Platform_SDK/output/mx6sdl/lib/libsdk.a(ldb.o)
                0x10044e18                ldb_config
                0x10045050                ldb_set_vs_polarity
 .text          0x100450f4      0xc34 /home/leon/git/swp-report/iMX6_Platform_SDK/output/mx6sdl/lib/libsdk.a(mipi_csi2_common.o)
                0x10045c08                mipi_csi2_config
 .text          0x10045d28      0x834 /home/leon/git/swp-report/iMX6_Platform_SDK/output/mx6sdl/lib/libsdk.a(mipi_dsi_common.o)
                0x10046268                mipi_dsi_init
 .text          0x1004655c        0x0 /home/leon/git/swp-report/iMX6_Platform_SDK/output/mx6sdl/lib/libsdk.a(ov5640_mipi_fm.o)
 .text          0x1004655c      0x3f4 /home/leon/git/swp-report/iMX6_Platform_SDK/output/mx6sdl/lib/libsdk.a(ocotp.o)
                0x100465c8                Delay4Reload
                0x1004680c                ocotp_sense_fuse
                0x1004687c                ocotp_fuse_blow_row
                0x100468d8                ocotp_reload_otp_shadow_registers
 .text          0x10046950      0x55c /home/leon/git/swp-report/iMX6_Platform_SDK/output/mx6sdl/lib/libsdk.a(pcie.o)
                0x10046c04                pcie_map_space
                0x10046cc8                pcie_init
 .text          0x10046eac      0x394 /home/leon/git/swp-report/iMX6_Platform_SDK/output/mx6sdl/lib/libsdk.a(pcie_phy.o)
                0x10046ff8                pcie_phy_cr_read
                0x100470d0                pcie_phy_cr_write
 .text          0x10047240      0x70c /home/leon/git/swp-report/iMX6_Platform_SDK/output/mx6sdl/lib/libsdk.a(pcie_prot.o)
                0x100475d8                pcie_dump_cfg_header
                0x10047644                pcie_enum_resources
                0x100478d4                pcie_cfg_ep_bar
 .text          0x1004794c     0x1bf0 /home/leon/git/swp-report/iMX6_Platform_SDK/output/mx6sdl/lib/libsdk.a(pmu_driver.o)
                0x10047bb8                pmu_init
                0x10047d54                pmu_get_property
                0x10047db4                pmu_set_property
                0x10047e18                pmu::Regulator::getProperty(_pmu_regulator_properties, void*)
                0x10048094                pmu::Regulator::setProperty(_pmu_regulator_properties, void const*)
                0x1004820c                pmu::Regulator::setVoltageRange(unsigned long, unsigned long, unsigned long)
                0x10048258                pmu::AnalogRegulator::getProperty(_pmu_regulator_properties, void*)
                0x10048324                pmu::AnalogRegulator::setProperty(_pmu_regulator_properties, void const*)
                0x100483e4                pmu::AnalogRegulator::getOutputMillivolts() const
                0x1004843c                pmu::AnalogRegulator::setOutputMillivolts(unsigned long)
                0x10048524                pmu::AnalogRegulator::getBrownoutMillivolts() const
                0x10048594                pmu::AnalogRegulator::setBrownoutMillivolts(unsigned long)
                0x1004862c                pmu::AnalogRegulator::isBrownoutDetectEnabled() const
                0x10048670                pmu::AnalogRegulator::setBrownoutDetectIsEnabled(bool)
                0x100486bc                pmu::AnalogRegulator::isEnabled() const
                0x10048700                pmu::AnalogRegulator::setIsEnabled(bool)
                0x1004874c                pmu::DigitalRegulator::DigitalRegulator()
                0x1004874c                pmu::DigitalRegulator::DigitalRegulator()
                0x1004878c                pmu::DigitalRegulator::getProperty(_pmu_regulator_properties, void*)
                0x1004888c                pmu::DigitalRegulator::setProperty(_pmu_regulator_properties, void const*)
                0x10048954                pmu::DigitalRegulator::isBypassed() const
                0x100489a0                pmu::DigitalRegulator::setIsBypassed(bool)
                0x10048a54                pmu::DigitalRegulator::getOutputMillivolts() const
                0x10048af0                pmu::DigitalRegulator::setOutputMillivolts(unsigned long)
                0x10048bd4                pmu::DigitalRegulator::getBrownoutMillivolts() const
                0x10048c48                pmu::DigitalRegulator::setBrownoutMillivolts(unsigned long)
                0x10048ce0                pmu::DigitalRegulator::isEnabled() const
                0x10048d2c                pmu::DigitalRegulator::setIsEnabled(bool)
                0x10048de8                pmu::LDO1p1Regulator::LDO1p1Regulator()
                0x10048de8                pmu::LDO1p1Regulator::LDO1p1Regulator()
                0x10048e48                pmu::LDO1p1Regulator::getProperty(_pmu_regulator_properties, void*)
                0x10048ee0                pmu::LDO1p1Regulator::getOutputMillivolts() const
                0x10048f3c                pmu::LDO1p1Regulator::setOutputMillivolts(unsigned long)
                0x10049030                pmu::LDO2p5Regulator::LDO2p5Regulator()
                0x10049030                pmu::LDO2p5Regulator::LDO2p5Regulator()
                0x10049090                pmu::LDO3p0Regulator::LDO3p0Regulator()
                0x10049090                pmu::LDO3p0Regulator::LDO3p0Regulator()
                0x100490f0                pmu::LDO3p0Regulator::getProperty(_pmu_regulator_properties, void*)
                0x1004915c                pmu::LDO3p0Regulator::setProperty(_pmu_regulator_properties, void const*)
                0x100491cc                pmu::LDOARMRegulator::LDOARMRegulator()
                0x100491cc                pmu::LDOARMRegulator::LDOARMRegulator()
                0x10049224                pmu::LDOARMRegulator::setBrownoutDetectIsEnabled(bool)
                0x10049270                pmu::LDOARMRegulator::setRampRate(unsigned long)
                0x100492d0                pmu::LDOGraphicsRegulator::LDOGraphicsRegulator()
                0x100492d0                pmu::LDOGraphicsRegulator::LDOGraphicsRegulator()
                0x10049328                pmu::LDOGraphicsRegulator::setBrownoutDetectIsEnabled(bool)
                0x10049374                pmu::LDOGraphicsRegulator::setRampRate(unsigned long)
                0x100493d4                pmu::LDOSoCRegulator::LDOSoCRegulator()
                0x100493d4                pmu::LDOSoCRegulator::LDOSoCRegulator()
                0x1004942c                pmu::LDOSoCRegulator::setBrownoutDetectIsEnabled(bool)
                0x10049478                pmu::LDOSoCRegulator::setRampRate(unsigned long)
 .text._ZnwjPv  0x1004953c       0x28 /home/leon/git/swp-report/iMX6_Platform_SDK/output/mx6sdl/lib/libsdk.a(pmu_driver.o)
                0x1004953c                operator new(unsigned int, void*)
 .text._ZN3pmu9RegulatorC2Ev
                0x10049564       0x64 /home/leon/git/swp-report/iMX6_Platform_SDK/output/mx6sdl/lib/libsdk.a(pmu_driver.o)
                0x10049564                pmu::Regulator::Regulator()
                0x10049564                pmu::Regulator::Regulator()
 .text._ZN3pmu9Regulator18setBrownoutHandlerEPFv9_pmu_regsE
                0x100495c8       0x2c /home/leon/git/swp-report/iMX6_Platform_SDK/output/mx6sdl/lib/libsdk.a(pmu_driver.o)
                0x100495c8                pmu::Regulator::setBrownoutHandler(void (*)(_pmu_regs))
 .text._ZN3pmu9Regulator18getBrownoutHandlerEv
                0x100495f4       0x28 /home/leon/git/swp-report/iMX6_Platform_SDK/output/mx6sdl/lib/libsdk.a(pmu_driver.o)
                0x100495f4                pmu::Regulator::getBrownoutHandler()
 .text._ZN3pmu15AnalogRegulatorC2ERV15_hw_pmu_reg_1p1
                0x1004961c       0x50 /home/leon/git/swp-report/iMX6_Platform_SDK/output/mx6sdl/lib/libsdk.a(pmu_driver.o)
                0x1004961c                pmu::AnalogRegulator::AnalogRegulator(_hw_pmu_reg_1p1 volatile&)
                0x1004961c                pmu::AnalogRegulator::AnalogRegulator(_hw_pmu_reg_1p1 volatile&)
 .text._ZNK3pmu15LDO1p1Regulator12isInBrownoutEv
                0x1004966c       0x70 /home/leon/git/swp-report/iMX6_Platform_SDK/output/mx6sdl/lib/libsdk.a(pmu_driver.o)
                0x1004966c                pmu::LDO1p1Regulator::isInBrownout() const
 .text._ZNK3pmu15LDO1p1Regulator4isOKEv
                0x100496dc       0x78 /home/leon/git/swp-report/iMX6_Platform_SDK/output/mx6sdl/lib/libsdk.a(pmu_driver.o)
                0x100496dc                pmu::LDO1p1Regulator::isOK() const
 .text._ZNK3pmu15LDO2p5Regulator12isInBrownoutEv
                0x10049754       0x70 /home/leon/git/swp-report/iMX6_Platform_SDK/output/mx6sdl/lib/libsdk.a(pmu_driver.o)
                0x10049754                pmu::LDO2p5Regulator::isInBrownout() const
 .text._ZNK3pmu15LDO2p5Regulator4isOKEv
                0x100497c4       0x78 /home/leon/git/swp-report/iMX6_Platform_SDK/output/mx6sdl/lib/libsdk.a(pmu_driver.o)
                0x100497c4                pmu::LDO2p5Regulator::isOK() const
 .text._ZNK3pmu15LDO3p0Regulator12isInBrownoutEv
                0x1004983c       0x70 /home/leon/git/swp-report/iMX6_Platform_SDK/output/mx6sdl/lib/libsdk.a(pmu_driver.o)
                0x1004983c                pmu::LDO3p0Regulator::isInBrownout() const
 .text._ZNK3pmu15LDO3p0Regulator4isOKEv
                0x100498ac       0x78 /home/leon/git/swp-report/iMX6_Platform_SDK/output/mx6sdl/lib/libsdk.a(pmu_driver.o)
                0x100498ac                pmu::LDO3p0Regulator::isOK() const
 .text._ZNK3pmu15LDOARMRegulator23isBrownoutDetectEnabledEv
                0x10049924       0x44 /home/leon/git/swp-report/iMX6_Platform_SDK/output/mx6sdl/lib/libsdk.a(pmu_driver.o)
                0x10049924                pmu::LDOARMRegulator::isBrownoutDetectEnabled() const
 .text._ZNK3pmu15LDOARMRegulator12isInBrownoutEv
                0x10049968       0x6c /home/leon/git/swp-report/iMX6_Platform_SDK/output/mx6sdl/lib/libsdk.a(pmu_driver.o)
                0x10049968                pmu::LDOARMRegulator::isInBrownout() const
 .text._ZNK3pmu15LDOARMRegulator4isOKEv
                0x100499d4       0x24 /home/leon/git/swp-report/iMX6_Platform_SDK/output/mx6sdl/lib/libsdk.a(pmu_driver.o)
                0x100499d4                pmu::LDOARMRegulator::isOK() const
 .text._ZNK3pmu15LDOARMRegulator11getRampRateEv
                0x100499f8       0x34 /home/leon/git/swp-report/iMX6_Platform_SDK/output/mx6sdl/lib/libsdk.a(pmu_driver.o)
                0x100499f8                pmu::LDOARMRegulator::getRampRate() const
 .text._ZNK3pmu15LDOARMRegulator10getTriggerEv
                0x10049a2c       0x34 /home/leon/git/swp-report/iMX6_Platform_SDK/output/mx6sdl/lib/libsdk.a(pmu_driver.o)
                0x10049a2c                pmu::LDOARMRegulator::getTrigger() const
 .text._ZN3pmu15LDOARMRegulator10setTriggerEm
                0x10049a60       0x44 /home/leon/git/swp-report/iMX6_Platform_SDK/output/mx6sdl/lib/libsdk.a(pmu_driver.o)
                0x10049a60                pmu::LDOARMRegulator::setTrigger(unsigned long)
 .text._ZNK3pmu15LDOARMRegulator11getBrownoutEv
                0x10049aa4       0x34 /home/leon/git/swp-report/iMX6_Platform_SDK/output/mx6sdl/lib/libsdk.a(pmu_driver.o)
                0x10049aa4                pmu::LDOARMRegulator::getBrownout() const
 .text._ZN3pmu15LDOARMRegulator11setBrownoutEm
                0x10049ad8       0x44 /home/leon/git/swp-report/iMX6_Platform_SDK/output/mx6sdl/lib/libsdk.a(pmu_driver.o)
                0x10049ad8                pmu::LDOARMRegulator::setBrownout(unsigned long)
 .text._ZNK3pmu20LDOGraphicsRegulator23isBrownoutDetectEnabledEv
                0x10049b1c       0x44 /home/leon/git/swp-report/iMX6_Platform_SDK/output/mx6sdl/lib/libsdk.a(pmu_driver.o)
                0x10049b1c                pmu::LDOGraphicsRegulator::isBrownoutDetectEnabled() const
 .text._ZNK3pmu20LDOGraphicsRegulator12isInBrownoutEv
                0x10049b60       0x6c /home/leon/git/swp-report/iMX6_Platform_SDK/output/mx6sdl/lib/libsdk.a(pmu_driver.o)
                0x10049b60                pmu::LDOGraphicsRegulator::isInBrownout() const
 .text._ZNK3pmu20LDOGraphicsRegulator4isOKEv
                0x10049bcc       0x24 /home/leon/git/swp-report/iMX6_Platform_SDK/output/mx6sdl/lib/libsdk.a(pmu_driver.o)
                0x10049bcc                pmu::LDOGraphicsRegulator::isOK() const
 .text._ZNK3pmu20LDOGraphicsRegulator11getRampRateEv
                0x10049bf0       0x34 /home/leon/git/swp-report/iMX6_Platform_SDK/output/mx6sdl/lib/libsdk.a(pmu_driver.o)
                0x10049bf0                pmu::LDOGraphicsRegulator::getRampRate() const
 .text._ZNK3pmu20LDOGraphicsRegulator10getTriggerEv
                0x10049c24       0x34 /home/leon/git/swp-report/iMX6_Platform_SDK/output/mx6sdl/lib/libsdk.a(pmu_driver.o)
                0x10049c24                pmu::LDOGraphicsRegulator::getTrigger() const
 .text._ZN3pmu20LDOGraphicsRegulator10setTriggerEm
                0x10049c58       0x44 /home/leon/git/swp-report/iMX6_Platform_SDK/output/mx6sdl/lib/libsdk.a(pmu_driver.o)
                0x10049c58                pmu::LDOGraphicsRegulator::setTrigger(unsigned long)
 .text._ZNK3pmu20LDOGraphicsRegulator11getBrownoutEv
                0x10049c9c       0x34 /home/leon/git/swp-report/iMX6_Platform_SDK/output/mx6sdl/lib/libsdk.a(pmu_driver.o)
                0x10049c9c                pmu::LDOGraphicsRegulator::getBrownout() const
 .text._ZN3pmu20LDOGraphicsRegulator11setBrownoutEm
                0x10049cd0       0x44 /home/leon/git/swp-report/iMX6_Platform_SDK/output/mx6sdl/lib/libsdk.a(pmu_driver.o)
                0x10049cd0                pmu::LDOGraphicsRegulator::setBrownout(unsigned long)
 .text._ZNK3pmu15LDOSoCRegulator23isBrownoutDetectEnabledEv
                0x10049d14       0x44 /home/leon/git/swp-report/iMX6_Platform_SDK/output/mx6sdl/lib/libsdk.a(pmu_driver.o)
                0x10049d14                pmu::LDOSoCRegulator::isBrownoutDetectEnabled() const
 .text._ZNK3pmu15LDOSoCRegulator12isInBrownoutEv
                0x10049d58       0x6c /home/leon/git/swp-report/iMX6_Platform_SDK/output/mx6sdl/lib/libsdk.a(pmu_driver.o)
                0x10049d58                pmu::LDOSoCRegulator::isInBrownout() const
 .text._ZNK3pmu15LDOSoCRegulator4isOKEv
                0x10049dc4       0x74 /home/leon/git/swp-report/iMX6_Platform_SDK/output/mx6sdl/lib/libsdk.a(pmu_driver.o)
                0x10049dc4                pmu::LDOSoCRegulator::isOK() const
 .text._ZNK3pmu15LDOSoCRegulator11getRampRateEv
                0x10049e38       0x34 /home/leon/git/swp-report/iMX6_Platform_SDK/output/mx6sdl/lib/libsdk.a(pmu_driver.o)
                0x10049e38                pmu::LDOSoCRegulator::getRampRate() const
 .text._ZNK3pmu15LDOSoCRegulator10getTriggerEv
                0x10049e6c       0x34 /home/leon/git/swp-report/iMX6_Platform_SDK/output/mx6sdl/lib/libsdk.a(pmu_driver.o)
                0x10049e6c                pmu::LDOSoCRegulator::getTrigger() const
 .text._ZN3pmu15LDOSoCRegulator10setTriggerEm
                0x10049ea0       0x44 /home/leon/git/swp-report/iMX6_Platform_SDK/output/mx6sdl/lib/libsdk.a(pmu_driver.o)
                0x10049ea0                pmu::LDOSoCRegulator::setTrigger(unsigned long)
 .text._ZNK3pmu15LDOSoCRegulator11getBrownoutEv
                0x10049ee4       0x34 /home/leon/git/swp-report/iMX6_Platform_SDK/output/mx6sdl/lib/libsdk.a(pmu_driver.o)
                0x10049ee4                pmu::LDOSoCRegulator::getBrownout() const
 .text._ZN3pmu15LDOSoCRegulator11setBrownoutEm
                0x10049f18       0x44 /home/leon/git/swp-report/iMX6_Platform_SDK/output/mx6sdl/lib/libsdk.a(pmu_driver.o)
                0x10049f18                pmu::LDOSoCRegulator::setBrownout(unsigned long)
 .text._ZN3pmu9_pmu_infoC2Ev
                0x10049f5c       0x84 /home/leon/git/swp-report/iMX6_Platform_SDK/output/mx6sdl/lib/libsdk.a(pmu_driver.o)
                0x10049f5c                pmu::_pmu_info::_pmu_info()
                0x10049f5c                pmu::_pmu_info::_pmu_info()
 .text._ZN3pmu15AnalogRegulatorC2I15_hw_pmu_reg_2p5EERVT_
                0x10049fe0       0x50 /home/leon/git/swp-report/iMX6_Platform_SDK/output/mx6sdl/lib/libsdk.a(pmu_driver.o)
                0x10049fe0                pmu::AnalogRegulator::AnalogRegulator<_hw_pmu_reg_2p5>(_hw_pmu_reg_2p5 volatile&)
                0x10049fe0                pmu::AnalogRegulator::AnalogRegulator<_hw_pmu_reg_2p5>(_hw_pmu_reg_2p5 volatile&)
 .text._ZN3pmu15AnalogRegulatorC2I15_hw_pmu_reg_3p0EERVT_
                0x1004a030       0x50 /home/leon/git/swp-report/iMX6_Platform_SDK/output/mx6sdl/lib/libsdk.a(pmu_driver.o)
                0x1004a030                pmu::AnalogRegulator::AnalogRegulator<_hw_pmu_reg_3p0>(_hw_pmu_reg_3p0 volatile&)
                0x1004a030                pmu::AnalogRegulator::AnalogRegulator<_hw_pmu_reg_3p0>(_hw_pmu_reg_3p0 volatile&)
 .text          0x1004a080      0xb4c /home/leon/git/swp-report/iMX6_Platform_SDK/output/mx6sdl/lib/libsdk.a(pwm.o)
                0x1004a080                pwm_init
                0x1004a598                pwm_clear_int_status
                0x1004a684                pwm_setup_interrupt
                0x1004a94c                pwm_free_interrupt
                0x1004a9f4                pwm_isr_test_end
                0x1004aa38                pwm_enable
                0x1004aac0                pwm_disable
                0x1004ab50                pwm_get_clock_freq
 .text          0x1004abcc      0x3b0 /home/leon/git/swp-report/iMX6_Platform_SDK/output/mx6sdl/lib/libsdk.a(rtc.o)
                0x1004abcc                snvs_rtc_interrupt_handler
                0x1004ace8                snvs_rtc_setup_interrupt
                0x1004ad4c                rtc_init
                0x1004adcc                rtc_deinit
                0x1004ae28                rtc_setup_onetime_timer
                0x1004ae9c                rtc_setup_periodic_timer
                0x1004af24                rtc_disable_periodic_timer
 .text          0x1004af7c      0x210 /home/leon/git/swp-report/iMX6_Platform_SDK/output/mx6sdl/lib/libsdk.a(srtc.o)
                0x1004af7c                snvs_srtc_setup_interrupt
                0x1004afe0                snvs_srtc_interrupt_handler
                0x1004b0a4                srtc_init
                0x1004b0e8                srtc_deinit
                0x1004b118                srtc_setup_onetime_timer
 .text          0x1004b18c     0x1224 /home/leon/git/swp-report/iMX6_Platform_SDK/output/mx6sdl/lib/libsdk.a(sdma.o)
                0x1004b6d8                sdma_init
                0x1004b8a0                sdma_deinit
                0x1004b994                sdma_channel_start
                0x1004ba40                sdma_channel_stop
                0x1004baa0                sdma_channel_request
                0x1004be98                sdma_channel_release
                0x1004c0b8                sdma_channel_status
                0x1004c1ec                sdma_lookup_script
                0x1004c2d8                sdma_setup_interrupt
                0x1004c34c                sdma_channel_isr_attach
 .text          0x1004c3b0        0x0 /home/leon/git/swp-report/iMX6_Platform_SDK/output/mx6sdl/lib/libsdk.a(sdma_script_info.o)
 .text          0x1004c3b0      0x4e8 /home/leon/git/swp-report/iMX6_Platform_SDK/output/mx6sdl/lib/libsdk.a(snvs.o)
                0x1004c3b0                snvs_rtc_counter
                0x1004c458                snvs_rtc_alarm
                0x1004c500                snvs_rtc_periodic_interrupt
                0x1004c5e4                snvs_rtc_set_counter
                0x1004c63c                snvs_rtc_set_alarm_timeout
                0x1004c694                snvs_srtc_counter
                0x1004c73c                snvs_srtc_alarm
                0x1004c7e4                snvs_srtc_set_counter
                0x1004c83c                snvs_srtc_set_alarm_timeout
                0x1004c878                snvs_init
                0x1004c888                snvs_deinit
 .text          0x1004c898     0x132c /home/leon/git/swp-report/iMX6_Platform_SDK/output/mx6sdl/lib/libsdk.a(ecspi.o)
                0x1004ce88                ecspi_configure
                0x1004d810                ecspi_open
                0x1004d8c8                ecspi_close
                0x1004d9d4                ecspi_xfer
 .text          0x1004dbc4      0x4e8 /home/leon/git/swp-report/iMX6_Platform_SDK/output/mx6sdl/lib/libsdk.a(tempmon.o)
                0x1004dbc4                compute_temp
                0x1004dc74                compute_alarm
                0x1004dd70                tempmon_init
                0x1004de38                tempmon_get_temp
                0x1004df18                tempmon_set_alarm
                0x1004e040                tempmon_disable_alarm
 .text          0x1004e0ac      0x528 /home/leon/git/swp-report/iMX6_Platform_SDK/output/mx6sdl/lib/libsdk.a(gpt.o)
                0x1004e0cc                gpt_get_rollover_event
                0x1004e118                gpt_get_capture_event
                0x1004e1c8                gpt_set_capture_event
                0x1004e250                gpt_get_compare_event
                0x1004e2b8                gpt_set_compare_event
                0x1004e3c0                gpt_counter_disable
                0x1004e3f8                gpt_counter_enable
                0x1004e440                gpt_setup_interrupt
                0x1004e4a4                gpt_init
 .text          0x1004e5d4      0x3a8 /home/leon/git/swp-report/iMX6_Platform_SDK/output/mx6sdl/lib/libsdk.a(usb_common.o)
                0x1004e5d4                usb_get_port_speed
                0x1004e770                swap32
                0x1004e7ec                get_menu_item
 .text          0x1004e97c     0x2ac4 /home/leon/git/swp-report/iMX6_Platform_SDK/output/mx6sdl/lib/libsdk.a(usbd_drv.o)
                0x1004e97c                usbd_device_init
                0x1004f9a4                usbd_bus_reset
                0x1004fd10                usbd_get_setup_packet
                0x100502c8                usbd_device_send_control_packet
                0x100506dc                usbd_device_send_zero_len_packet
                0x10050a5c                usbd_endpoint_qh_init
                0x10050b80                usbd_dtd_init
                0x10050ccc                usbd_add_dtd
                0x10051360                usbd_reclaim_dtd
 .text          0x10051440     0x37f0 /home/leon/git/swp-report/iMX6_Platform_SDK/output/mx6sdl/lib/libsdk.a(usbh_drv.o)
                0x10051440                usbh_init
                0x100523d0                usbh_periodic_schedule_init
                0x10053c28                usbh_bus_reset
                0x10053f2c                usbh_enable_asynchronous_schedule
                0x10054230                usbh_disable_asynchronous_schedule
                0x10054534                usbh_disable_Periodic_list
                0x10054838                usbh_qtd_init
                0x10054a60                usbh_qh_init
 .text          0x10054c30     0x11b8 /home/leon/git/swp-report/iMX6_Platform_SDK/output/mx6sdl/lib/libsdk.a(usdhc.o)
                0x10054e48                set_card_access_mode
                0x10054e88                read_usdhc_adma_mode
                0x10054ea8                read_usdhc_intr_mode
                0x10054ec8                card_init
                0x10055078                card_emmc_init
                0x1005510c                card_cmd_config
                0x10055220                card_get_cid
                0x100552c0                card_enter_trans
                0x1005539c                card_trans_status
                0x10055498                card_get_port
                0x10055580                card_set_blklen
                0x10055664                card_data_read
                0x10055950                card_data_write
                0x10055c50                card_xfer_result
                0x10055d44                card_wait_xfer_done
 .text          0x10055de8     0x3484 /home/leon/git/swp-report/iMX6_Platform_SDK/output/mx6sdl/lib/libsdk.a(usdhc_host.o)
                0x100571c8                usdhc1_isr
                0x100571e0                usdhc2_isr
                0x100571f8                usdhc3_isr
                0x10057210                usdhc4_isr
                0x10057228                host_init
                0x10057258                host_init_active
                0x10057300                host_send_cmd
                0x10057728                host_cfg_clock
                0x10057ec4                host_set_bus_width
                0x10057efc                host_reset
                0x1005802c                host_read_response
                0x1005821c                host_cfg_block
                0x10058498                host_clear_fifo
                0x10058644                host_setup_adma
                0x10058864                host_data_read
                0x10058d6c                host_data_write
 .text          0x1005926c      0xe04 /home/leon/git/swp-report/iMX6_Platform_SDK/output/mx6sdl/lib/libsdk.a(usdhc_mmc.o)
                0x1005980c                mmc_init
                0x100598b0                emmc_init
                0x100599dc                emmc_print_cfg_info
                0x10059c14                mmc_set_boot_bus_width
                0x10059cdc                mmc_set_boot_partition
                0x10059ddc                mmc_set_boot_ack
                0x10059e60                mmc_voltage_validation
 .text          0x1005a070      0x800 /home/leon/git/swp-report/iMX6_Platform_SDK/output/mx6sdl/lib/libsdk.a(usdhc_sd.o)
                0x1005a404                sd_init
                0x1005a4bc                sd_voltage_validation
 .text          0x1005a870      0x614 /home/leon/git/swp-report/iMX6_Platform_SDK/output/mx6sdl/lib/libsdk.a(adv7180.o)
                0x1005ac10                adv7180_init
                0x1005acc4                adv7180_get_std
                0x1005ad54                adv7180_is_interlaced_mode
 .text          0x1005ae84     0x1e94 /home/leon/git/swp-report/iMX6_Platform_SDK/output/mx6sdl/lib/libsdk.a(hdmi_common.o)
                0x1005ae84                isColorSpaceConversion
                0x1005aec0                isColorSpaceDecimation
                0x1005aefc                isColorSpaceInterpolation
                0x1005af50                isPixelRepetition
                0x1005af88                hdmi_set_video_mode
 .text          0x1005cd18      0x2fc /home/leon/git/swp-report/iMX6_Platform_SDK/output/mx6sdl/lib/libsdk.a(mx6x_usb.o)
                0x1005cd18                usbEnableClocks
                0x1005ce40                usbEnableTransceiver
 .text          0x1005d014      0x38c /home/leon/git/swp-report/iMX6_Platform_SDK/output/mx6sdl/lib/libboard_sabre_ai_rev_b.a(board_camera.o)
                0x1005d014                camera_power_on
                0x1005d024                csi_port0_iomux_config
                0x1005d058                camera_ipu1_iomux_config
                0x1005d1f4                sensor_reset
                0x1005d28c                sensor_standby
                0x1005d308                sensor_clock_setting
 .text          0x1005d3a0       0xc8 /home/leon/git/swp-report/iMX6_Platform_SDK/output/mx6sdl/lib/libboard_sabre_ai_rev_b.a(board_can.o)
                0x1005d3a0                hw_can_iomux_config
 .text          0x1005d468      0x354 /home/leon/git/swp-report/iMX6_Platform_SDK/output/mx6sdl/lib/libboard_sabre_ai_rev_b.a(board_display.o)
                0x1005d468                lvds_power_on
                0x1005d4b8                disable_para_panel
                0x1005d508                tftlcd_backlight_en
                0x1005d5c8                tftlcd_reset
                0x1005d5f4                ldb_clock_config
                0x1005d6f0                epdc_clock_setting
                0x1005d76c                epdc_power_supply
 .text          0x1005d7bc      0x200 /home/leon/git/swp-report/iMX6_Platform_SDK/output/mx6sdl/lib/libboard_sabre_ai_rev_b.a(board_hdmi.o)
                0x1005d7bc                hdmi_tx_cec_pgm_iomux
                0x1005d800                hdmi_tx_ddc_pgm_iomux
                0x1005d878                hdmi_tx_phydtb_pgm_iomux
                0x1005d8c8                hdmi_pgm_iomux
                0x1005d8e8                ext_hdmi_transmitter_power_on
                0x1005d8f8                hdmi_clock_set
 .text          0x1005d9bc        0x0 /home/leon/git/swp-report/iMX6_Platform_SDK/output/mx6sdl/lib/libboard_sabre_ai_rev_b.a(board_i2c.o)
 .text          0x1005d9bc      0x144 /home/leon/git/swp-report/iMX6_Platform_SDK/output/mx6sdl/lib/libboard_sabre_ai_rev_b.a(board_mipi.o)
                0x1005d9bc                mipi_cam_power_on
                0x1005da08                mipi_backlight_en
                0x1005da18                mipi_display_reset
                0x1005da28                mipi_clock_set
                0x1005da58                mipi_csi2_clock_set
 .text          0x1005db00      0x1a8 /home/leon/git/swp-report/iMX6_Platform_SDK/output/mx6sdl/lib/libboard_sabre_ai_rev_b.a(board_pcie.o)
                0x1005db00                pcie_clk_setup
                0x1005db9c                pcie_card_pwr_setup
                0x1005dbb8                pcie_enable_extrn_125mhz_clk
                0x1005dc28                pcie_enable_extrn_100mhz_clk
                0x1005dc98                pcie_card_rst
 .text          0x1005dca8      0x100 /home/leon/git/swp-report/iMX6_Platform_SDK/output/mx6sdl/lib/libboard_sabre_ai_rev_b.a(board_usb.o)
                0x1005dca8                usbEnableVbus
                0x1005dd24                usbDisableVbus
                0x1005dd98                reset_usb_hub
 .text          0x1005dda8      0x214 /home/leon/git/swp-report/iMX6_Platform_SDK/output/mx6sdl/lib/libboard_sabre_ai_rev_b.a(board_usdhc.o)
                0x1005dda8                usdhc_gpio_config
                0x1005de48                usdhc_card_detected
                0x1005df34                usdhc_write_protected
 .text          0x1005dfbc       0x84 /home/leon/git/swp-report/iMX6_Platform_SDK/output/mx6sdl/lib/libboard_sabre_ai_rev_b.a(ecspi_iomux_config.o)
                0x1005dfbc                ecspi_iomux_config
 .text          0x1005e040       0x68 /home/leon/git/swp-report/iMX6_Platform_SDK/output/mx6sdl/lib/libboard_sabre_ai_rev_b.a(flexcan_iomux_config.o)
                0x1005e040                flexcan_iomux_config
 .text          0x1005e0a8       0x84 /home/leon/git/swp-report/iMX6_Platform_SDK/output/mx6sdl/lib/libboard_sabre_ai_rev_b.a(i2c_iomux_config.o)
                0x1005e0a8                i2c_iomux_config
 .text          0x1005e12c       0x84 /home/leon/git/swp-report/iMX6_Platform_SDK/output/mx6sdl/lib/libboard_sabre_ai_rev_b.a(pwm_iomux_config.o)
                0x1005e12c                pwm_iomux_config
 .text          0x1005e1b0       0x84 /home/leon/git/swp-report/iMX6_Platform_SDK/output/mx6sdl/lib/libboard_sabre_ai_rev_b.a(usdhc_iomux_config.o)
                0x1005e1b0                usdhc_iomux_config
 .text          0x1005e234        0x0 /home/leon/riotboard/arm-2012.09/bin/../arm-none-eabi/lib//libstdc++.a(pure.o)
 .text.__cxa_pure_virtual
                0x1005e234       0x1c /home/leon/riotboard/arm-2012.09/bin/../arm-none-eabi/lib//libstdc++.a(pure.o)
                0x1005e234                __cxa_pure_virtual
 .text.__cxa_deleted_virtual
                0x1005e250       0x1c /home/leon/riotboard/arm-2012.09/bin/../arm-none-eabi/lib//libstdc++.a(pure.o)
                0x1005e250                __cxa_deleted_virtual
 .text          0x1005e26c        0x0 /home/leon/riotboard/arm-2012.09/bin/../arm-none-eabi/lib//libstdc++.a(eh_terminate.o)
 .text._ZN10__cxxabiv111__terminateEPFvvE
                0x1005e26c       0x34 /home/leon/riotboard/arm-2012.09/bin/../arm-none-eabi/lib//libstdc++.a(eh_terminate.o)
                0x1005e26c                __cxxabiv1::__terminate(void (*)())
 .text._ZSt9terminatev
                0x1005e2a0       0x14 /home/leon/riotboard/arm-2012.09/bin/../arm-none-eabi/lib//libstdc++.a(eh_terminate.o)
                0x1005e2a0                std::terminate()
 .text._ZN10__cxxabiv112__unexpectedEPFvvE
                0x1005e2b4       0x10 /home/leon/riotboard/arm-2012.09/bin/../arm-none-eabi/lib//libstdc++.a(eh_terminate.o)
                0x1005e2b4                __cxxabiv1::__unexpected(void (*)())
 .text._ZSt10unexpectedv
                0x1005e2c4       0x14 /home/leon/riotboard/arm-2012.09/bin/../arm-none-eabi/lib//libstdc++.a(eh_terminate.o)
                0x1005e2c4                std::unexpected()
 .text._ZSt13set_terminatePFvvE
                0x1005e2d8       0x18 /home/leon/riotboard/arm-2012.09/bin/../arm-none-eabi/lib//libstdc++.a(eh_terminate.o)
                0x1005e2d8                std::set_terminate(void (*)())
 .text._ZSt14set_unexpectedPFvvE
                0x1005e2f0       0x18 /home/leon/riotboard/arm-2012.09/bin/../arm-none-eabi/lib//libstdc++.a(eh_terminate.o)
                0x1005e2f0                std::set_unexpected(void (*)())
 .text          0x1005e308        0x0 /home/leon/riotboard/arm-2012.09/bin/../arm-none-eabi/lib//libstdc++.a(eh_unex_handler.o)
 .text          0x1005e308        0x0 /home/leon/riotboard/arm-2012.09/bin/../arm-none-eabi/lib//libstdc++.a(eh_call.o)
 .text._ZN10__cxxabiv1L24__is_gxx_exception_classEPc
                0x1005e308       0x70 /home/leon/riotboard/arm-2012.09/bin/../arm-none-eabi/lib//libstdc++.a(eh_call.o)
 .text.__cxa_call_terminate
                0x1005e378       0x2c /home/leon/riotboard/arm-2012.09/bin/../arm-none-eabi/lib//libstdc++.a(eh_call.o)
                0x1005e378                __cxa_call_terminate
 .text.__cxa_call_unexpected
                0x1005e3a4      0x134 /home/leon/riotboard/arm-2012.09/bin/../arm-none-eabi/lib//libstdc++.a(eh_call.o)
                0x1005e3a4                __cxa_call_unexpected
 .text          0x1005e4d8        0x0 /home/leon/riotboard/arm-2012.09/bin/../arm-none-eabi/lib//libstdc++.a(eh_throw.o)
 .text._ZL23__gxx_exception_cleanup19_Unwind_Reason_CodeP21_Unwind_Control_Block
                0x1005e4d8       0x3c /home/leon/riotboard/arm-2012.09/bin/../arm-none-eabi/lib//libstdc++.a(eh_throw.o)
 .text.__cxa_throw
                0x1005e514       0x94 /home/leon/riotboard/arm-2012.09/bin/../arm-none-eabi/lib//libstdc++.a(eh_throw.o)
                0x1005e514                __cxa_throw
 .text.__cxa_rethrow
                0x1005e5a8       0xb0 /home/leon/riotboard/arm-2012.09/bin/../arm-none-eabi/lib//libstdc++.a(eh_throw.o)
                0x1005e5a8                __cxa_rethrow
 .text          0x1005e658        0x0 /home/leon/riotboard/arm-2012.09/bin/../arm-none-eabi/lib//libstdc++.a(eh_arm.o)
 .text.__cxa_end_cleanup
                0x1005e658       0x10 /home/leon/riotboard/arm-2012.09/bin/../arm-none-eabi/lib//libstdc++.a(eh_arm.o)
                0x1005e658                __cxa_end_cleanup
 .text.__cxa_type_match
                0x1005e668      0x14c /home/leon/riotboard/arm-2012.09/bin/../arm-none-eabi/lib//libstdc++.a(eh_arm.o)
                0x1005e668                __cxa_type_match
 .text.__cxa_begin_cleanup
                0x1005e7b4       0xb0 /home/leon/riotboard/arm-2012.09/bin/../arm-none-eabi/lib//libstdc++.a(eh_arm.o)
                0x1005e7b4                __cxa_begin_cleanup
 .text.__gnu_end_cleanup
                0x1005e864       0xb0 /home/leon/riotboard/arm-2012.09/bin/../arm-none-eabi/lib//libstdc++.a(eh_arm.o)
                0x1005e864                __gnu_end_cleanup
 .text          0x1005e914        0x0 /home/leon/riotboard/arm-2012.09/bin/../arm-none-eabi/lib//libstdc++.a(eh_exception.o)
 .text._ZNSt9exceptionD2Ev
                0x1005e914       0x10 /home/leon/riotboard/arm-2012.09/bin/../arm-none-eabi/lib//libstdc++.a(eh_exception.o)
                0x1005e914                std::exception::~exception()
                0x1005e914                std::exception::~exception()
 .text._ZNSt13bad_exceptionD2Ev
                0x1005e924       0x10 /home/leon/riotboard/arm-2012.09/bin/../arm-none-eabi/lib//libstdc++.a(eh_exception.o)
                0x1005e924                std::bad_exception::~bad_exception()
                0x1005e924                std::bad_exception::~bad_exception()
 .text._ZN10__cxxabiv115__forced_unwindD2Ev
                0x1005e934       0x10 /home/leon/riotboard/arm-2012.09/bin/../arm-none-eabi/lib//libstdc++.a(eh_exception.o)
                0x1005e934                __cxxabiv1::__forced_unwind::~__forced_unwind()
                0x1005e934                __cxxabiv1::__forced_unwind::~__forced_unwind()
 .text._ZN10__cxxabiv119__foreign_exceptionD2Ev
                0x1005e944       0x10 /home/leon/riotboard/arm-2012.09/bin/../arm-none-eabi/lib//libstdc++.a(eh_exception.o)
                0x1005e944                __cxxabiv1::__foreign_exception::~__foreign_exception()
                0x1005e944                __cxxabiv1::__foreign_exception::~__foreign_exception()
 .text._ZNKSt9exception4whatEv
                0x1005e954        0xc /home/leon/riotboard/arm-2012.09/bin/../arm-none-eabi/lib//libstdc++.a(eh_exception.o)
                0x1005e954                std::exception::what() const
 .text._ZNKSt13bad_exception4whatEv
                0x1005e960        0xc /home/leon/riotboard/arm-2012.09/bin/../arm-none-eabi/lib//libstdc++.a(eh_exception.o)
                0x1005e960                std::bad_exception::what() const
 .text._ZN10__cxxabiv119__foreign_exceptionD0Ev
                0x1005e96c       0x24 /home/leon/riotboard/arm-2012.09/bin/../arm-none-eabi/lib//libstdc++.a(eh_exception.o)
                0x1005e96c                __cxxabiv1::__foreign_exception::~__foreign_exception()
 .text._ZN10__cxxabiv115__forced_unwindD0Ev
                0x1005e990       0x24 /home/leon/riotboard/arm-2012.09/bin/../arm-none-eabi/lib//libstdc++.a(eh_exception.o)
                0x1005e990                __cxxabiv1::__forced_unwind::~__forced_unwind()
 .text._ZNSt9exceptionD0Ev
                0x1005e9b4       0x24 /home/leon/riotboard/arm-2012.09/bin/../arm-none-eabi/lib//libstdc++.a(eh_exception.o)
                0x1005e9b4                std::exception::~exception()
 .text._ZNSt13bad_exceptionD0Ev
                0x1005e9d8       0x24 /home/leon/riotboard/arm-2012.09/bin/../arm-none-eabi/lib//libstdc++.a(eh_exception.o)
                0x1005e9d8                std::bad_exception::~bad_exception()
 .text          0x1005e9fc        0x0 /home/leon/riotboard/arm-2012.09/bin/../arm-none-eabi/lib//libstdc++.a(eh_alloc.o)
 .text.__cxa_allocate_exception
                0x1005e9fc       0x98 /home/leon/riotboard/arm-2012.09/bin/../arm-none-eabi/lib//libstdc++.a(eh_alloc.o)
                0x1005e9fc                __cxa_allocate_exception
 .text.__cxa_free_exception
                0x1005ea94       0x54 /home/leon/riotboard/arm-2012.09/bin/../arm-none-eabi/lib//libstdc++.a(eh_alloc.o)
                0x1005ea94                __cxa_free_exception
 .text.__cxa_allocate_dependent_exception
                0x1005eae8       0x90 /home/leon/riotboard/arm-2012.09/bin/../arm-none-eabi/lib//libstdc++.a(eh_alloc.o)
                0x1005eae8                __cxa_allocate_dependent_exception
 .text.__cxa_free_dependent_exception
                0x1005eb78       0x5c /home/leon/riotboard/arm-2012.09/bin/../arm-none-eabi/lib//libstdc++.a(eh_alloc.o)
                0x1005eb78                __cxa_free_dependent_exception
 .text          0x1005ebd4        0x0 /home/leon/riotboard/arm-2012.09/bin/../arm-none-eabi/lib//libstdc++.a(eh_globals.o)
 .text.__cxa_get_globals_fast
                0x1005ebd4        0xc /home/leon/riotboard/arm-2012.09/bin/../arm-none-eabi/lib//libstdc++.a(eh_globals.o)
                0x1005ebd4                __cxa_get_globals_fast
 .text.__cxa_get_globals
                0x1005ebe0        0xc /home/leon/riotboard/arm-2012.09/bin/../arm-none-eabi/lib//libstdc++.a(eh_globals.o)
                0x1005ebe0                __cxa_get_globals
 .text          0x1005ebec        0x0 /home/leon/riotboard/arm-2012.09/bin/../arm-none-eabi/lib//libstdc++.a(si_class_type_info.o)
 .text._ZNK10__cxxabiv120__si_class_type_info12__do_dyncastEiNS_17__class_type_info10__sub_kindEPKS1_PKvS4_S6_RNS1_16__dyncast_resultE
                0x1005ebec       0xdc /home/leon/riotboard/arm-2012.09/bin/../arm-none-eabi/lib//libstdc++.a(si_class_type_info.o)
                0x1005ebec                __cxxabiv1::__si_class_type_info::__do_dyncast(int, __cxxabiv1::__class_type_info::__sub_kind, __cxxabiv1::__class_type_info const*, void const*, __cxxabiv1::__class_type_info const*, void const*, __cxxabiv1::__class_type_info::__dyncast_result&) const
 .text._ZN10__cxxabiv120__si_class_type_infoD2Ev
                0x1005ecc8       0x24 /home/leon/riotboard/arm-2012.09/bin/../arm-none-eabi/lib//libstdc++.a(si_class_type_info.o)
                0x1005ecc8                __cxxabiv1::__si_class_type_info::~__si_class_type_info()
                0x1005ecc8                __cxxabiv1::__si_class_type_info::~__si_class_type_info()
 .text._ZN10__cxxabiv120__si_class_type_infoD0Ev
                0x1005ecec       0x20 /home/leon/riotboard/arm-2012.09/bin/../arm-none-eabi/lib//libstdc++.a(si_class_type_info.o)
                0x1005ecec                __cxxabiv1::__si_class_type_info::~__si_class_type_info()
 .text._ZNK10__cxxabiv120__si_class_type_info11__do_upcastEPKNS_17__class_type_infoEPKvRNS1_15__upcast_resultE
                0x1005ed0c       0x4c /home/leon/riotboard/arm-2012.09/bin/../arm-none-eabi/lib//libstdc++.a(si_class_type_info.o)
                0x1005ed0c                __cxxabiv1::__si_class_type_info::__do_upcast(__cxxabiv1::__class_type_info const*, void const*, __cxxabiv1::__class_type_info::__upcast_result&) const
 .text._ZNK10__cxxabiv120__si_class_type_info20__do_find_public_srcEiPKvPKNS_17__class_type_infoES2_
                0x1005ed58       0x6c /home/leon/riotboard/arm-2012.09/bin/../arm-none-eabi/lib//libstdc++.a(si_class_type_info.o)
                0x1005ed58                __cxxabiv1::__si_class_type_info::__do_find_public_src(int, void const*, __cxxabiv1::__class_type_info const*, void const*) const
 .text          0x1005edc4        0x0 /home/leon/riotboard/arm-2012.09/bin/../arm-none-eabi/lib//libstdc++.a(eh_personality.o)
 .text._ZL12read_sleb128PKhPl
                0x1005edc4       0x44 /home/leon/riotboard/arm-2012.09/bin/../arm-none-eabi/lib//libstdc++.a(eh_personality.o)
 .text._ZL28read_encoded_value_with_basehjPKhPj
                0x1005ee08      0x170 /home/leon/riotboard/arm-2012.09/bin/../arm-none-eabi/lib//libstdc++.a(eh_personality.o)
 .text._ZL21base_of_encoded_valuehP15_Unwind_Context
                0x1005ef78       0x7c /home/leon/riotboard/arm-2012.09/bin/../arm-none-eabi/lib//libstdc++.a(eh_personality.o)
 .text._ZL17parse_lsda_headerP15_Unwind_ContextPKhP16lsda_header_info
                0x1005eff4       0xd8 /home/leon/riotboard/arm-2012.09/bin/../arm-none-eabi/lib//libstdc++.a(eh_personality.o)
 .text.__gxx_personality_v0
                0x1005f0cc      0x620 /home/leon/riotboard/arm-2012.09/bin/../arm-none-eabi/lib//libstdc++.a(eh_personality.o)
                0x1005f0cc                __gxx_personality_v0
 .text          0x1005f6ec        0x0 /home/leon/riotboard/arm-2012.09/bin/../arm-none-eabi/lib//libstdc++.a(eh_term_handler.o)
 .text          0x1005f6ec        0x0 /home/leon/riotboard/arm-2012.09/bin/../arm-none-eabi/lib//libstdc++.a(eh_catch.o)
 .text.__cxa_get_exception_ptr
                0x1005f6ec        0x8 /home/leon/riotboard/arm-2012.09/bin/../arm-none-eabi/lib//libstdc++.a(eh_catch.o)
                0x1005f6ec                __cxa_get_exception_ptr
 .text.__cxa_begin_catch
                0x1005f6f4       0xdc /home/leon/riotboard/arm-2012.09/bin/../arm-none-eabi/lib//libstdc++.a(eh_catch.o)
                0x1005f6f4                __cxa_begin_catch
 .text.__cxa_end_catch
                0x1005f7d0       0xdc /home/leon/riotboard/arm-2012.09/bin/../arm-none-eabi/lib//libstdc++.a(eh_catch.o)
                0x1005f7d0                __cxa_end_catch
 .text._ZSt18uncaught_exceptionv
                0x1005f8ac       0x1c /home/leon/riotboard/arm-2012.09/bin/../arm-none-eabi/lib//libstdc++.a(eh_catch.o)
                0x1005f8ac                std::uncaught_exception()
 .text          0x1005f8c8        0x0 /home/leon/riotboard/arm-2012.09/bin/../arm-none-eabi/lib//libstdc++.a(class_type_info.o)
 .text._ZNK10__cxxabiv117__class_type_info11__do_upcastEPKS0_PPv
                0x1005f8c8       0x64 /home/leon/riotboard/arm-2012.09/bin/../arm-none-eabi/lib//libstdc++.a(class_type_info.o)
                0x1005f8c8                __cxxabiv1::__class_type_info::__do_upcast(__cxxabiv1::__class_type_info const*, void**) const
 .text._ZNK10__cxxabiv117__class_type_info20__do_find_public_srcEiPKvPKS0_S2_
                0x1005f92c       0x14 /home/leon/riotboard/arm-2012.09/bin/../arm-none-eabi/lib//libstdc++.a(class_type_info.o)
                0x1005f92c                __cxxabiv1::__class_type_info::__do_find_public_src(int, void const*, __cxxabiv1::__class_type_info const*, void const*) const
 .text._ZNK10__cxxabiv117__class_type_info11__do_upcastEPKS0_PKvRNS0_15__upcast_resultE
                0x1005f940       0x38 /home/leon/riotboard/arm-2012.09/bin/../arm-none-eabi/lib//libstdc++.a(class_type_info.o)
                0x1005f940                __cxxabiv1::__class_type_info::__do_upcast(__cxxabiv1::__class_type_info const*, void const*, __cxxabiv1::__class_type_info::__upcast_result&) const
 .text._ZN10__cxxabiv117__class_type_infoD2Ev
                0x1005f978       0x24 /home/leon/riotboard/arm-2012.09/bin/../arm-none-eabi/lib//libstdc++.a(class_type_info.o)
                0x1005f978                __cxxabiv1::__class_type_info::~__class_type_info()
                0x1005f978                __cxxabiv1::__class_type_info::~__class_type_info()
 .text._ZN10__cxxabiv117__class_type_infoD0Ev
                0x1005f99c       0x20 /home/leon/riotboard/arm-2012.09/bin/../arm-none-eabi/lib//libstdc++.a(class_type_info.o)
                0x1005f99c                __cxxabiv1::__class_type_info::~__class_type_info()
 .text._ZNK10__cxxabiv117__class_type_info12__do_dyncastEiNS0_10__sub_kindEPKS0_PKvS3_S5_RNS0_16__dyncast_resultE
                0x1005f9bc       0x7c /home/leon/riotboard/arm-2012.09/bin/../arm-none-eabi/lib//libstdc++.a(class_type_info.o)
                0x1005f9bc                __cxxabiv1::__class_type_info::__do_dyncast(int, __cxxabiv1::__class_type_info::__sub_kind, __cxxabiv1::__class_type_info const*, void const*, __cxxabiv1::__class_type_info const*, void const*, __cxxabiv1::__class_type_info::__dyncast_result&) const
 .text._ZNK10__cxxabiv117__class_type_info10__do_catchEPKSt9type_infoPPvj
                0x1005fa38       0x54 /home/leon/riotboard/arm-2012.09/bin/../arm-none-eabi/lib//libstdc++.a(class_type_info.o)
                0x1005fa38                __cxxabiv1::__class_type_info::__do_catch(std::type_info const*, void**, unsigned int) const
 .text          0x1005fa8c        0x0 /home/leon/riotboard/arm-2012.09/bin/../arm-none-eabi/lib//libstdc++.a(vterminate.o)
 .text._ZN9__gnu_cxx27__verbose_terminate_handlerEv
                0x1005fa8c      0x19c /home/leon/riotboard/arm-2012.09/bin/../arm-none-eabi/lib//libstdc++.a(vterminate.o)
                0x1005fa8c                __gnu_cxx::__verbose_terminate_handler()
 .text          0x1005fc28     0x7c50 /home/leon/riotboard/arm-2012.09/bin/../arm-none-eabi/lib//libstdc++.a(cp-demangle.o)
                0x100676fc                __cxa_demangle
                0x10067848                __gcclibcxx_demangle_callback
 .text          0x10067878        0x0 /home/leon/riotboard/arm-2012.09/bin/../arm-none-eabi/lib//libstdc++.a(eh_type.o)
 .text.__cxa_current_exception_type
                0x10067878       0x30 /home/leon/riotboard/arm-2012.09/bin/../arm-none-eabi/lib//libstdc++.a(eh_type.o)
                0x10067878                __cxa_current_exception_type
 .text          0x100678a8        0x0 /home/leon/riotboard/arm-2012.09/bin/../arm-none-eabi/lib//libstdc++.a(del_op.o)
 .text._ZdlPv   0x100678a8       0x14 /home/leon/riotboard/arm-2012.09/bin/../arm-none-eabi/lib//libstdc++.a(del_op.o)
                0x100678a8                operator delete(void*)
 .text          0x100678bc        0x0 /home/leon/riotboard/arm-2012.09/bin/../arm-none-eabi/lib//libstdc++.a(tinfo.o)
 .text._ZNSt9type_infoD2Ev
                0x100678bc       0x10 /home/leon/riotboard/arm-2012.09/bin/../arm-none-eabi/lib//libstdc++.a(tinfo.o)
                0x100678bc                std::type_info::~type_info()
                0x100678bc                std::type_info::~type_info()
 .text._ZNKSt9type_info14__is_pointer_pEv
                0x100678cc        0x8 /home/leon/riotboard/arm-2012.09/bin/../arm-none-eabi/lib//libstdc++.a(tinfo.o)
                0x100678cc                std::type_info::__is_pointer_p() const
 .text._ZNKSt9type_info15__is_function_pEv
                0x100678d4        0x8 /home/leon/riotboard/arm-2012.09/bin/../arm-none-eabi/lib//libstdc++.a(tinfo.o)
                0x100678d4                std::type_info::__is_function_p() const
 .text._ZNKSt9type_info11__do_upcastEPKN10__cxxabiv117__class_type_infoEPPv
                0x100678dc        0x8 /home/leon/riotboard/arm-2012.09/bin/../arm-none-eabi/lib//libstdc++.a(tinfo.o)
                0x100678dc                std::type_info::__do_upcast(__cxxabiv1::__class_type_info const*, void**) const
 .text._ZNSt9type_infoD0Ev
                0x100678e4       0x24 /home/leon/riotboard/arm-2012.09/bin/../arm-none-eabi/lib//libstdc++.a(tinfo.o)
                0x100678e4                std::type_info::~type_info()
 .text._ZNKSt9type_infoeqERKS_
                0x10067908       0x4c /home/leon/riotboard/arm-2012.09/bin/../arm-none-eabi/lib//libstdc++.a(tinfo.o)
                0x10067908                std::type_info::operator==(std::type_info const&) const
 .text._ZNKSt9type_info10__do_catchEPKS_PPvj
                0x10067954        0x4 /home/leon/riotboard/arm-2012.09/bin/../arm-none-eabi/lib//libstdc++.a(tinfo.o)
                0x10067954                std::type_info::__do_catch(std::type_info const*, void**, unsigned int) const
 .text          0x10067958       0xe8 /home/leon/riotboard/arm-2012.09/bin/../arm-none-eabi/lib//libc.a(lib_a-fwrite.o)
                0x10067958                _fwrite_r
                0x100679fc                fwrite
 .text          0x10067a40       0xb4 /home/leon/riotboard/arm-2012.09/bin/../arm-none-eabi/lib//libc.a(lib_a-memcmp.o)
                0x10067a40                memcmp
 .text          0x10067af4      0x140 /home/leon/riotboard/arm-2012.09/bin/../arm-none-eabi/lib//libc.a(lib_a-strncmp.o)
                0x10067af4                strncmp
 .text          0x10067c34       0x30 /home/leon/riotboard/arm-2012.09/bin/../arm-none-eabi/lib//libc.a(lib_a-syswrite.o)
                0x10067c34                write
 .text          0x10067c64      0xfa8 /home/leon/riotboard/arm-2012.09/bin/../lib/gcc/arm-none-eabi/4.7.2//libgcc.a(unwind-arm.o)
                0x100680e4                _Unwind_GetCFA
                0x100680ec                __gnu_Unwind_RaiseException
                0x10068198                __gnu_Unwind_ForcedUnwind
                0x100681bc                __gnu_Unwind_Resume
                0x10068234                __gnu_Unwind_Resume_or_Rethrow
                0x10068254                _Unwind_Complete
                0x10068258                _Unwind_DeleteException
                0x1006827c                _Unwind_VRS_Get
                0x100682f0                _Unwind_VRS_Set
                0x10068794                __aeabi_unwind_cpp_pr2
                0x1006879c                __aeabi_unwind_cpp_pr1
                0x100687a4                __aeabi_unwind_cpp_pr0
                0x100687ac                __gnu_Unwind_Backtrace
                0x10068878                _Unwind_VRS_Pop
 .text          0x10068c0c      0x1b0 /home/leon/riotboard/arm-2012.09/bin/../lib/gcc/arm-none-eabi/4.7.2//libgcc.a(libunwind.o)
                0x10068c0c                __restore_core_regs
                0x10068c0c                restore_core_regs
                0x10068c28                __gnu_Unwind_Restore_VFP
                0x10068c30                __gnu_Unwind_Save_VFP
                0x10068c38                __gnu_Unwind_Restore_VFP_D
                0x10068c40                __gnu_Unwind_Save_VFP_D
                0x10068c48                __gnu_Unwind_Restore_VFP_D_16_to_31
                0x10068c50                __gnu_Unwind_Save_VFP_D_16_to_31
                0x10068c58                __gnu_Unwind_Restore_WMMXD
                0x10068c9c                __gnu_Unwind_Save_WMMXD
                0x10068ce0                __gnu_Unwind_Restore_WMMXC
                0x10068cf4                __gnu_Unwind_Save_WMMXC
                0x10068d08                ___Unwind_RaiseException
                0x10068d08                _Unwind_RaiseException
                0x10068d2c                ___Unwind_Resume
                0x10068d2c                _Unwind_Resume
                0x10068d50                _Unwind_Resume_or_Rethrow
                0x10068d50                ___Unwind_Resume_or_Rethrow
                0x10068d74                ___Unwind_ForcedUnwind
                0x10068d74                _Unwind_ForcedUnwind
                0x10068d98                _Unwind_Backtrace
                0x10068d98                ___Unwind_Backtrace
 .text          0x10068dbc      0x53c /home/leon/riotboard/arm-2012.09/bin/../lib/gcc/arm-none-eabi/4.7.2//libgcc.a(pr-support.o)
                0x10068e50                __gnu_unwind_execute
                0x1006926c                __gnu_unwind_frame
                0x100692b4                _Unwind_GetRegionStart
                0x100692c8                _Unwind_GetLanguageSpecificData
                0x100692e8                _Unwind_GetDataRelBase
                0x100692f0                _Unwind_GetTextRelBase
 *(.glue_7t)
 .glue_7t       0x00000000        0x0 linker stubs
 *(.glue_7)
 .glue_7        0x00000000        0x0 linker stubs
 *(.vfp11_veneer)
 .vfp11_veneer  0x00000000        0x0 linker stubs
 *(.ARM.extab* .gnu.linkonce.armextab.*)
 .ARM.extab.startup
                0x100692f8        0x0 /home/leon/git/swp-report/iMX6_Platform_SDK/output/mx6sdl/lib/libsdk.a(startup.o)
 .ARM.extab     0x100692f8        0x0 /home/leon/riotboard/arm-2012.09/bin/../lib/gcc/arm-none-eabi/4.7.2//libgcc.a(_divdi3.o)
 .ARM.extab     0x100692f8        0x0 /home/leon/riotboard/arm-2012.09/bin/../lib/gcc/arm-none-eabi/4.7.2//libgcc.a(_udivdi3.o)
 .ARM.extab.text.__cxa_pure_virtual
                0x100692f8        0xc /home/leon/riotboard/arm-2012.09/bin/../arm-none-eabi/lib//libstdc++.a(pure.o)
 .ARM.extab.text.__cxa_deleted_virtual
                0x10069304        0xc /home/leon/riotboard/arm-2012.09/bin/../arm-none-eabi/lib//libstdc++.a(pure.o)
 .ARM.extab.text._ZN10__cxxabiv111__terminateEPFvvE
                0x10069310       0x2c /home/leon/riotboard/arm-2012.09/bin/../arm-none-eabi/lib//libstdc++.a(eh_terminate.o)
 .ARM.extab.text._ZSt9terminatev
                0x1006933c        0x0 /home/leon/riotboard/arm-2012.09/bin/../arm-none-eabi/lib//libstdc++.a(eh_terminate.o)
 .ARM.extab.text._ZN10__cxxabiv112__unexpectedEPFvvE
                0x1006933c        0xc /home/leon/riotboard/arm-2012.09/bin/../arm-none-eabi/lib//libstdc++.a(eh_terminate.o)
 .ARM.extab.text._ZSt10unexpectedv
                0x10069348        0xc /home/leon/riotboard/arm-2012.09/bin/../arm-none-eabi/lib//libstdc++.a(eh_terminate.o)
 .ARM.extab.text._ZSt13set_terminatePFvvE
                0x10069354        0x0 /home/leon/riotboard/arm-2012.09/bin/../arm-none-eabi/lib//libstdc++.a(eh_terminate.o)
 .ARM.extab.text._ZSt14set_unexpectedPFvvE
                0x10069354        0x0 /home/leon/riotboard/arm-2012.09/bin/../arm-none-eabi/lib//libstdc++.a(eh_terminate.o)
 .ARM.extab.text._ZN10__cxxabiv1L24__is_gxx_exception_classEPc
                0x10069354        0x0 /home/leon/riotboard/arm-2012.09/bin/../arm-none-eabi/lib//libstdc++.a(eh_call.o)
 .ARM.extab.text.__cxa_call_terminate
                0x10069354        0x0 /home/leon/riotboard/arm-2012.09/bin/../arm-none-eabi/lib//libstdc++.a(eh_call.o)
 .ARM.extab.text.__cxa_call_unexpected
                0x10069354       0x28 /home/leon/riotboard/arm-2012.09/bin/../arm-none-eabi/lib//libstdc++.a(eh_call.o)
 .ARM.extab.text._ZL23__gxx_exception_cleanup19_Unwind_Reason_CodeP21_Unwind_Control_Block
                0x1006937c        0x0 /home/leon/riotboard/arm-2012.09/bin/../arm-none-eabi/lib//libstdc++.a(eh_throw.o)
 .ARM.extab.text.__cxa_throw
                0x1006937c        0x0 /home/leon/riotboard/arm-2012.09/bin/../arm-none-eabi/lib//libstdc++.a(eh_throw.o)
 .ARM.extab.text.__cxa_rethrow
                0x1006937c        0x0 /home/leon/riotboard/arm-2012.09/bin/../arm-none-eabi/lib//libstdc++.a(eh_throw.o)
 .ARM.extab.text.__cxa_type_match
                0x1006937c        0x0 /home/leon/riotboard/arm-2012.09/bin/../arm-none-eabi/lib//libstdc++.a(eh_arm.o)
 .ARM.extab.text.__cxa_begin_cleanup
                0x1006937c        0x0 /home/leon/riotboard/arm-2012.09/bin/../arm-none-eabi/lib//libstdc++.a(eh_arm.o)
 .ARM.extab.text.__gnu_end_cleanup
                0x1006937c        0x0 /home/leon/riotboard/arm-2012.09/bin/../arm-none-eabi/lib//libstdc++.a(eh_arm.o)
 .ARM.extab.text._ZNSt9exceptionD2Ev
                0x1006937c        0x0 /home/leon/riotboard/arm-2012.09/bin/../arm-none-eabi/lib//libstdc++.a(eh_exception.o)
 .ARM.extab.text._ZNSt13bad_exceptionD2Ev
                0x1006937c        0x0 /home/leon/riotboard/arm-2012.09/bin/../arm-none-eabi/lib//libstdc++.a(eh_exception.o)
 .ARM.extab.text._ZN10__cxxabiv115__forced_unwindD2Ev
                0x1006937c        0x0 /home/leon/riotboard/arm-2012.09/bin/../arm-none-eabi/lib//libstdc++.a(eh_exception.o)
 .ARM.extab.text._ZN10__cxxabiv119__foreign_exceptionD2Ev
                0x1006937c        0x0 /home/leon/riotboard/arm-2012.09/bin/../arm-none-eabi/lib//libstdc++.a(eh_exception.o)
 .ARM.extab.text._ZNKSt9exception4whatEv
                0x1006937c        0x0 /home/leon/riotboard/arm-2012.09/bin/../arm-none-eabi/lib//libstdc++.a(eh_exception.o)
 .ARM.extab.text._ZNKSt13bad_exception4whatEv
                0x1006937c        0x0 /home/leon/riotboard/arm-2012.09/bin/../arm-none-eabi/lib//libstdc++.a(eh_exception.o)
 .ARM.extab.text._ZN10__cxxabiv119__foreign_exceptionD0Ev
                0x1006937c        0x0 /home/leon/riotboard/arm-2012.09/bin/../arm-none-eabi/lib//libstdc++.a(eh_exception.o)
 .ARM.extab.text._ZN10__cxxabiv115__forced_unwindD0Ev
                0x1006937c        0x0 /home/leon/riotboard/arm-2012.09/bin/../arm-none-eabi/lib//libstdc++.a(eh_exception.o)
 .ARM.extab.text._ZNSt9exceptionD0Ev
                0x1006937c        0x0 /home/leon/riotboard/arm-2012.09/bin/../arm-none-eabi/lib//libstdc++.a(eh_exception.o)
 .ARM.extab.text._ZNSt13bad_exceptionD0Ev
                0x1006937c        0x0 /home/leon/riotboard/arm-2012.09/bin/../arm-none-eabi/lib//libstdc++.a(eh_exception.o)
 .ARM.extab.text.__cxa_allocate_exception
                0x1006937c        0x0 /home/leon/riotboard/arm-2012.09/bin/../arm-none-eabi/lib//libstdc++.a(eh_alloc.o)
 .ARM.extab.text.__cxa_free_exception
                0x1006937c        0x0 /home/leon/riotboard/arm-2012.09/bin/../arm-none-eabi/lib//libstdc++.a(eh_alloc.o)
 .ARM.extab.text.__cxa_allocate_dependent_exception
                0x1006937c        0x0 /home/leon/riotboard/arm-2012.09/bin/../arm-none-eabi/lib//libstdc++.a(eh_alloc.o)
 .ARM.extab.text.__cxa_free_dependent_exception
                0x1006937c        0x0 /home/leon/riotboard/arm-2012.09/bin/../arm-none-eabi/lib//libstdc++.a(eh_alloc.o)
 .ARM.extab.text.__cxa_get_globals_fast
                0x1006937c        0x0 /home/leon/riotboard/arm-2012.09/bin/../arm-none-eabi/lib//libstdc++.a(eh_globals.o)
 .ARM.extab.text.__cxa_get_globals
                0x1006937c        0x0 /home/leon/riotboard/arm-2012.09/bin/../arm-none-eabi/lib//libstdc++.a(eh_globals.o)
 .ARM.extab.text._ZNK10__cxxabiv120__si_class_type_info12__do_dyncastEiNS_17__class_type_info10__sub_kindEPKS1_PKvS4_S6_RNS1_16__dyncast_resultE
                0x1006937c        0x0 /home/leon/riotboard/arm-2012.09/bin/../arm-none-eabi/lib//libstdc++.a(si_class_type_info.o)
 .ARM.extab.text._ZN10__cxxabiv120__si_class_type_infoD2Ev
                0x1006937c        0x0 /home/leon/riotboard/arm-2012.09/bin/../arm-none-eabi/lib//libstdc++.a(si_class_type_info.o)
 .ARM.extab.text._ZN10__cxxabiv120__si_class_type_infoD0Ev
                0x1006937c        0x0 /home/leon/riotboard/arm-2012.09/bin/../arm-none-eabi/lib//libstdc++.a(si_class_type_info.o)
 .ARM.extab.text._ZNK10__cxxabiv120__si_class_type_info11__do_upcastEPKNS_17__class_type_infoEPKvRNS1_15__upcast_resultE
                0x1006937c        0x0 /home/leon/riotboard/arm-2012.09/bin/../arm-none-eabi/lib//libstdc++.a(si_class_type_info.o)
 .ARM.extab.text._ZNK10__cxxabiv120__si_class_type_info20__do_find_public_srcEiPKvPKNS_17__class_type_infoES2_
                0x1006937c        0x0 /home/leon/riotboard/arm-2012.09/bin/../arm-none-eabi/lib//libstdc++.a(si_class_type_info.o)
 .ARM.extab.text._ZL12read_sleb128PKhPl
                0x1006937c        0x0 /home/leon/riotboard/arm-2012.09/bin/../arm-none-eabi/lib//libstdc++.a(eh_personality.o)
 .ARM.extab.text._ZL28read_encoded_value_with_basehjPKhPj
                0x1006937c        0x0 /home/leon/riotboard/arm-2012.09/bin/../arm-none-eabi/lib//libstdc++.a(eh_personality.o)
 .ARM.extab.text._ZL21base_of_encoded_valuehP15_Unwind_Context
                0x1006937c        0xc /home/leon/riotboard/arm-2012.09/bin/../arm-none-eabi/lib//libstdc++.a(eh_personality.o)
 .ARM.extab.text._ZL17parse_lsda_headerP15_Unwind_ContextPKhP16lsda_header_info
                0x10069388        0x0 /home/leon/riotboard/arm-2012.09/bin/../arm-none-eabi/lib//libstdc++.a(eh_personality.o)
 .ARM.extab.text.__gxx_personality_v0
                0x10069388       0x20 /home/leon/riotboard/arm-2012.09/bin/../arm-none-eabi/lib//libstdc++.a(eh_personality.o)
 .ARM.extab.text.__cxa_get_exception_ptr
                0x100693a8        0x0 /home/leon/riotboard/arm-2012.09/bin/../arm-none-eabi/lib//libstdc++.a(eh_catch.o)
 .ARM.extab.text.__cxa_begin_catch
                0x100693a8       0x20 /home/leon/riotboard/arm-2012.09/bin/../arm-none-eabi/lib//libstdc++.a(eh_catch.o)
 .ARM.extab.text.__cxa_end_catch
                0x100693c8        0xc /home/leon/riotboard/arm-2012.09/bin/../arm-none-eabi/lib//libstdc++.a(eh_catch.o)
 .ARM.extab.text._ZSt18uncaught_exceptionv
                0x100693d4        0x0 /home/leon/riotboard/arm-2012.09/bin/../arm-none-eabi/lib//libstdc++.a(eh_catch.o)
 .ARM.extab.text._ZNK10__cxxabiv117__class_type_info11__do_upcastEPKS0_PPv
                0x100693d4        0x0 /home/leon/riotboard/arm-2012.09/bin/../arm-none-eabi/lib//libstdc++.a(class_type_info.o)
 .ARM.extab.text._ZNK10__cxxabiv117__class_type_info20__do_find_public_srcEiPKvPKS0_S2_
                0x100693d4        0x0 /home/leon/riotboard/arm-2012.09/bin/../arm-none-eabi/lib//libstdc++.a(class_type_info.o)
 .ARM.extab.text._ZNK10__cxxabiv117__class_type_info11__do_upcastEPKS0_PKvRNS0_15__upcast_resultE
                0x100693d4        0x0 /home/leon/riotboard/arm-2012.09/bin/../arm-none-eabi/lib//libstdc++.a(class_type_info.o)
 .ARM.extab.text._ZN10__cxxabiv117__class_type_infoD2Ev
                0x100693d4        0x0 /home/leon/riotboard/arm-2012.09/bin/../arm-none-eabi/lib//libstdc++.a(class_type_info.o)
 .ARM.extab.text._ZN10__cxxabiv117__class_type_infoD0Ev
                0x100693d4        0x0 /home/leon/riotboard/arm-2012.09/bin/../arm-none-eabi/lib//libstdc++.a(class_type_info.o)
 .ARM.extab.text._ZNK10__cxxabiv117__class_type_info12__do_dyncastEiNS0_10__sub_kindEPKS0_PKvS3_S5_RNS0_16__dyncast_resultE
                0x100693d4        0x0 /home/leon/riotboard/arm-2012.09/bin/../arm-none-eabi/lib//libstdc++.a(class_type_info.o)
 .ARM.extab.text._ZNK10__cxxabiv117__class_type_info10__do_catchEPKSt9type_infoPPvj
                0x100693d4        0x0 /home/leon/riotboard/arm-2012.09/bin/../arm-none-eabi/lib//libstdc++.a(class_type_info.o)
 .ARM.extab.text._ZN9__gnu_cxx27__verbose_terminate_handlerEv
                0x100693d4       0x34 /home/leon/riotboard/arm-2012.09/bin/../arm-none-eabi/lib//libstdc++.a(vterminate.o)
 .ARM.extab.text.__cxa_current_exception_type
                0x10069408        0x0 /home/leon/riotboard/arm-2012.09/bin/../arm-none-eabi/lib//libstdc++.a(eh_type.o)
 .ARM.extab.text._ZdlPv
                0x10069408        0x0 /home/leon/riotboard/arm-2012.09/bin/../arm-none-eabi/lib//libstdc++.a(del_op.o)
 .ARM.extab.text._ZNSt9type_infoD2Ev
                0x10069408        0x0 /home/leon/riotboard/arm-2012.09/bin/../arm-none-eabi/lib//libstdc++.a(tinfo.o)
 .ARM.extab.text._ZNKSt9type_info14__is_pointer_pEv
                0x10069408        0x0 /home/leon/riotboard/arm-2012.09/bin/../arm-none-eabi/lib//libstdc++.a(tinfo.o)
 .ARM.extab.text._ZNKSt9type_info15__is_function_pEv
                0x10069408        0x0 /home/leon/riotboard/arm-2012.09/bin/../arm-none-eabi/lib//libstdc++.a(tinfo.o)
 .ARM.extab.text._ZNKSt9type_info11__do_upcastEPKN10__cxxabiv117__class_type_infoEPPv
                0x10069408        0x0 /home/leon/riotboard/arm-2012.09/bin/../arm-none-eabi/lib//libstdc++.a(tinfo.o)
 .ARM.extab.text._ZNSt9type_infoD0Ev
                0x10069408        0x0 /home/leon/riotboard/arm-2012.09/bin/../arm-none-eabi/lib//libstdc++.a(tinfo.o)
 .ARM.extab.text._ZNKSt9type_infoeqERKS_
                0x10069408        0x0 /home/leon/riotboard/arm-2012.09/bin/../arm-none-eabi/lib//libstdc++.a(tinfo.o)
 .ARM.extab.text._ZNKSt9type_info10__do_catchEPKS_PPvj
                0x10069408        0x0 /home/leon/riotboard/arm-2012.09/bin/../arm-none-eabi/lib//libstdc++.a(tinfo.o)
 .ARM.extab     0x10069408       0x18 /home/leon/riotboard/arm-2012.09/bin/../lib/gcc/arm-none-eabi/4.7.2//libgcc.a(unwind-arm.o)
 .ARM.extab     0x10069420       0x18 /home/leon/riotboard/arm-2012.09/bin/../lib/gcc/arm-none-eabi/4.7.2//libgcc.a(pr-support.o)
 *(.gcc_except_table)

.v4_bx          0x10069438        0x0
 .v4_bx         0x00000000        0x0 linker stubs

.iplt           0x10069438        0x0
 .iplt          0x00000000        0x0 /home/leon/riotboard/arm-2012.09/bin/../lib/gcc/arm-none-eabi/4.7.2//crtbegin.o

.ctors
 *crtbegin.o(.ctors)
 *crtbegin?.o(.ctors)
 *(EXCLUDE_FILE(*crtend?.o *crtend.o) .ctors)
 *(SORT(.ctors.*))
 *(.ctors)

.dtors
 *crtbegin.o(.dtors)
 *crtbegin?.o(.dtors)
 *(EXCLUDE_FILE(*crtend?.o *crtend.o) .dtors)
 *(SORT(.dtors.*))
 *(.dtors)

.rodata         0x10069438    0x3c114
 *(.rodata .rodata.* .gnu.linkonce.r.*)
 .rodata        0x10069438       0x9c /home/leon/git/swp-report/iMX6_Platform_SDK/output/mx6sdl/sdk_unit_test/sabre_ai_rev_b/obj/apps/common/print_clock_info.o
 .rodata        0x100694d4      0x100 /home/leon/git/swp-report/iMX6_Platform_SDK/output/mx6sdl/sdk_unit_test/sabre_ai_rev_b/obj/apps/common/print_version.o
 .rodata        0x100695d4      0x4c8 /home/leon/git/swp-report/iMX6_Platform_SDK/output/mx6sdl/sdk_unit_test/sabre_ai_rev_b/obj/apps/sdk_unit_test/src/all_test.o
                0x100697bc                k_menuItems
                0x10069a90                k_mainMenu
 .rodata        0x10069a9c       0x34 /home/leon/git/swp-report/iMX6_Platform_SDK/output/mx6sdl/lib/libsdk.a(ccm_pll.o)
                0x10069a9c                PLL1_OUTPUT
                0x10069aa0                PLL2_OUTPUT
                0x10069ab4                PLL3_OUTPUT
                0x10069ac8                PLL4_OUTPUT
                0x10069acc                PLL5_OUTPUT
 .rodata        0x10069ad0       0x64 /home/leon/git/swp-report/iMX6_Platform_SDK/output/mx6sdl/lib/libsdk.a(gic.o)
 .rodata        0x10069b34      0x154 /home/leon/git/swp-report/iMX6_Platform_SDK/output/mx6sdl/lib/libsdk.a(menu.o)
 .rodata        0x10069c88       0x50 /home/leon/git/swp-report/iMX6_Platform_SDK/output/mx6sdl/lib/libsdk.a(sdk_version.o)
                0x10069c88                k_sdk_version
                0x10069c8c                k_sdk_copyright
 .rodata        0x10069cd8       0xcc /home/leon/git/swp-report/iMX6_Platform_SDK/output/mx6sdl/lib/libsdk.a(system_util.o)
 .rodata        0x10069da4       0xf4 /home/leon/git/swp-report/iMX6_Platform_SDK/output/mx6sdl/lib/libsdk.a(text_color.o)
                0x10069dac                g_TextAttributeDefault
                0x10069db8                g_TextAttributeBold
                0x10069dc4                g_TextAttributeDim
                0x10069dd0                g_TextAttributeUnderline
                0x10069ddc                g_TextAttributeBlink
                0x10069de8                g_TextAttributeReverse
                0x10069df4                g_TextAttributeHidden
                0x10069e00                g_TextColorBlack
                0x10069e0c                g_TextColorRed
                0x10069e18                g_TextColorGreen
                0x10069e24                g_TextColorYellow
                0x10069e30                g_TextColorBlue
                0x10069e3c                g_TextColorMagenta
                0x10069e48                g_TextColorCyan
                0x10069e54                g_TextColorWhite
                0x10069e64                g_TextColorOrange
                0x10069e74                g_TextColorLightBlue
                0x10069e84                g_TextColorGray
                0x10069e94                g_TextColorPurple
 .rodata        0x10069e98      0x1f8 /home/leon/git/swp-report/iMX6_Platform_SDK/output/mx6sdl/lib/libsdk.a(board_id.o)
 .rodata        0x1006a090       0x20 /home/leon/git/swp-report/iMX6_Platform_SDK/output/mx6sdl/lib/libsdk.a(interrupt.o)
 .rodata        0x1006a0b0      0x230 /home/leon/git/swp-report/iMX6_Platform_SDK/output/mx6sdl/lib/libsdk.a(abort_handler.o)
 .rodata        0x1006a2e0       0x80 /home/leon/git/swp-report/iMX6_Platform_SDK/output/mx6sdl/lib/libboard_sabre_ai_rev_b.a(uart_iomux_config.o)
 .rodata        0x1006a360       0x64 /home/leon/git/swp-report/iMX6_Platform_SDK/output/mx6sdl/sdk_unit_test/sabre_ai_rev_b/libsdk_unit_test.a(gic_test.o)
 .rodata        0x1006a3c4       0x3c /home/leon/git/swp-report/iMX6_Platform_SDK/output/mx6sdl/sdk_unit_test/sabre_ai_rev_b/libsdk_unit_test.a(cpu_wp_test.o)
 .rodata        0x1006a400       0xc4 /home/leon/git/swp-report/iMX6_Platform_SDK/output/mx6sdl/sdk_unit_test/sabre_ai_rev_b/libsdk_unit_test.a(multicore_test.o)
 .rodata        0x1006a4c4      0x1a0 /home/leon/git/swp-report/iMX6_Platform_SDK/output/mx6sdl/sdk_unit_test/sabre_ai_rev_b/libsdk_unit_test.a(ocotp_test.o)
 .rodata        0x1006a664       0xc4 /home/leon/git/swp-report/iMX6_Platform_SDK/output/mx6sdl/sdk_unit_test/sabre_ai_rev_b/libsdk_unit_test.a(i2c_test.o)
 .rodata        0x1006a728      0x308 /home/leon/git/swp-report/iMX6_Platform_SDK/output/mx6sdl/sdk_unit_test/sabre_ai_rev_b/libsdk_unit_test.a(imx6_i2c_device.o)
 .rodata        0x1006aa30      0x128 /home/leon/git/swp-report/iMX6_Platform_SDK/output/mx6sdl/sdk_unit_test/sabre_ai_rev_b/libsdk_unit_test.a(snvs_rtc_test.o)
 .rodata        0x1006ab58       0xa4 /home/leon/git/swp-report/iMX6_Platform_SDK/output/mx6sdl/sdk_unit_test/sabre_ai_rev_b/libsdk_unit_test.a(snvs_srtc_test.o)
 .rodata        0x1006abfc      0x1a0 /home/leon/git/swp-report/iMX6_Platform_SDK/output/mx6sdl/sdk_unit_test/sabre_ai_rev_b/libsdk_unit_test.a(tempmon_test.o)
 .rodata        0x1006ad9c      0x13c /home/leon/git/swp-report/iMX6_Platform_SDK/output/mx6sdl/sdk_unit_test/sabre_ai_rev_b/libsdk_unit_test.a(sdma_test.o)
 .rodata        0x1006aed8      0x154 /home/leon/git/swp-report/iMX6_Platform_SDK/output/mx6sdl/sdk_unit_test/sabre_ai_rev_b/libsdk_unit_test.a(spi_lpb.o)
 .rodata        0x1006b02c      0x1f8 /home/leon/git/swp-report/iMX6_Platform_SDK/output/mx6sdl/sdk_unit_test/sabre_ai_rev_b/libsdk_unit_test.a(uart_loopback.o)
 .rodata        0x1006b224      0x164 /home/leon/git/swp-report/iMX6_Platform_SDK/output/mx6sdl/sdk_unit_test/sabre_ai_rev_b/libsdk_unit_test.a(epit_test.o)
 .rodata        0x1006b388      0x248 /home/leon/git/swp-report/iMX6_Platform_SDK/output/mx6sdl/sdk_unit_test/sabre_ai_rev_b/libsdk_unit_test.a(gpt_test.o)
 .rodata        0x1006b5d0       0xc0 /home/leon/git/swp-report/iMX6_Platform_SDK/output/mx6sdl/sdk_unit_test/sabre_ai_rev_b/libsdk_unit_test.a(timer_test.o)
 .rodata        0x1006b690       0xb0 /home/leon/git/swp-report/iMX6_Platform_SDK/output/mx6sdl/sdk_unit_test/sabre_ai_rev_b/libsdk_unit_test.a(uart_test.o)
                0x1006b690                g_uart_test_name
 .rodata        0x1006b740      0x38c /home/leon/git/swp-report/iMX6_Platform_SDK/output/mx6sdl/sdk_unit_test/sabre_ai_rev_b/libsdk_unit_test.a(usdhc_test.o)
 .rodata        0x1006bacc       0x7c /home/leon/git/swp-report/iMX6_Platform_SDK/output/mx6sdl/sdk_unit_test/sabre_ai_rev_b/libsdk_unit_test.a(pwm_test.o)
 .rodata        0x1006bb48       0xc8 /home/leon/git/swp-report/iMX6_Platform_SDK/output/mx6sdl/sdk_unit_test/sabre_ai_rev_b/libsdk_unit_test.a(watchdog_test.o)
 .rodata        0x1006bc10       0x98 /home/leon/git/swp-report/iMX6_Platform_SDK/output/mx6sdl/sdk_unit_test/sabre_ai_rev_b/libsdk_unit_test.a(hdmi_test.o)
 .rodata        0x1006bca8       0xa0 /home/leon/git/swp-report/iMX6_Platform_SDK/output/mx6sdl/sdk_unit_test/sabre_ai_rev_b/libsdk_unit_test.a(ips_display.o)
 .rodata        0x1006bd48      0x134 /home/leon/git/swp-report/iMX6_Platform_SDK/output/mx6sdl/sdk_unit_test/sabre_ai_rev_b/libsdk_unit_test.a(ips_test.o)
 .rodata        0x1006be7c    0x2f2dc /home/leon/git/swp-report/iMX6_Platform_SDK/output/mx6sdl/sdk_unit_test/sabre_ai_rev_b/libsdk_unit_test.a(ipu_image.o)
                0x1007dc98                gImage_foretext
 .rodata        0x1009b158       0x88 /home/leon/git/swp-report/iMX6_Platform_SDK/output/mx6sdl/sdk_unit_test/sabre_ai_rev_b/libsdk_unit_test.a(mipi_test.o)
 .rodata        0x1009b1e0      0x17c /home/leon/git/swp-report/iMX6_Platform_SDK/output/mx6sdl/sdk_unit_test/sabre_ai_rev_b/libsdk_unit_test.a(can_test.o)
 .rodata        0x1009b35c      0x16c /home/leon/git/swp-report/iMX6_Platform_SDK/output/mx6sdl/sdk_unit_test/sabre_ai_rev_b/libsdk_unit_test.a(usb_test.o)
 .rodata        0x1009b4c8      0x12c /home/leon/git/swp-report/iMX6_Platform_SDK/output/mx6sdl/sdk_unit_test/sabre_ai_rev_b/libsdk_unit_test.a(eim_test.o)
 .rodata        0x1009b5f4      0x290 /home/leon/git/swp-report/iMX6_Platform_SDK/output/mx6sdl/sdk_unit_test/sabre_ai_rev_b/libsdk_unit_test.a(pcie_test_rc.o)
 .rodata        0x1009b884      0x204 /home/leon/git/swp-report/iMX6_Platform_SDK/output/mx6sdl/sdk_unit_test/sabre_ai_rev_b/libsdk_unit_test.a(spi_test.o)
 .rodata        0x1009ba88       0x94 /home/leon/git/swp-report/iMX6_Platform_SDK/output/mx6sdl/sdk_unit_test/sabre_ai_rev_b/libsdk_unit_test.a(camera_test.o)
                0x1009ba88                g_camera_test_name
 .rodata        0x1009bb1c      0x118 /home/leon/git/swp-report/iMX6_Platform_SDK/output/mx6sdl/sdk_unit_test/sabre_ai_rev_b/libsdk_unit_test.a(csi_test_mode.o)
 .rodata        0x1009bc34       0xd8 /home/leon/git/swp-report/iMX6_Platform_SDK/output/mx6sdl/sdk_unit_test/sabre_ai_rev_b/libsdk_unit_test.a(accelerometer_test.o)
 .rodata        0x1009bd0c      0x114 /home/leon/git/swp-report/iMX6_Platform_SDK/output/mx6sdl/sdk_unit_test/sabre_ai_rev_b/libsdk_unit_test.a(at24cxx.o)
 .rodata        0x1009be20      0x158 /home/leon/git/swp-report/iMX6_Platform_SDK/output/mx6sdl/sdk_unit_test/sabre_ai_rev_b/libsdk_unit_test.a(mem_2_mem.o)
 .rodata        0x1009bf78      0x368 /home/leon/git/swp-report/iMX6_Platform_SDK/output/mx6sdl/sdk_unit_test/sabre_ai_rev_b/libsdk_unit_test.a(pwm_output.o)
 .rodata        0x1009c2e0     0x403c /home/leon/git/swp-report/iMX6_Platform_SDK/output/mx6sdl/sdk_unit_test/sabre_ai_rev_b/libsdk_unit_test.a(init_dma_data.o)
                0x1009c2e0                gAudio_sample
 .rodata        0x100a031c       0xb0 /home/leon/git/swp-report/iMX6_Platform_SDK/output/mx6sdl/sdk_unit_test/sabre_ai_rev_b/libsdk_unit_test.a(ips_combiner.o)
 .rodata        0x100a03cc       0xe4 /home/leon/git/swp-report/iMX6_Platform_SDK/output/mx6sdl/sdk_unit_test/sabre_ai_rev_b/libsdk_unit_test.a(ips_csc.o)
 .rodata        0x100a04b0       0x94 /home/leon/git/swp-report/iMX6_Platform_SDK/output/mx6sdl/sdk_unit_test/sabre_ai_rev_b/libsdk_unit_test.a(ips_resize.o)
 .rodata        0x100a0544       0x88 /home/leon/git/swp-report/iMX6_Platform_SDK/output/mx6sdl/sdk_unit_test/sabre_ai_rev_b/libsdk_unit_test.a(ips_rotate.o)
 .rodata        0x100a05cc       0x48 /home/leon/git/swp-report/iMX6_Platform_SDK/output/mx6sdl/sdk_unit_test/sabre_ai_rev_b/libsdk_unit_test.a(mipi_csi2_test.o)
 .rodata        0x100a0614      0x114 /home/leon/git/swp-report/iMX6_Platform_SDK/output/mx6sdl/sdk_unit_test/sabre_ai_rev_b/libsdk_unit_test.a(usb0_device_mouse_test.o)
 .rodata        0x100a0728      0x218 /home/leon/git/swp-report/iMX6_Platform_SDK/output/mx6sdl/sdk_unit_test/sabre_ai_rev_b/libsdk_unit_test.a(usb0_host_test.o)
 .rodata        0x100a0940       0xa8 /home/leon/git/swp-report/iMX6_Platform_SDK/output/mx6sdl/sdk_unit_test/sabre_ai_rev_b/libsdk_unit_test.a(usb0_host_testmodes_test.o)
 .rodata        0x100a09e8      0x290 /home/leon/git/swp-report/iMX6_Platform_SDK/output/mx6sdl/sdk_unit_test/sabre_ai_rev_b/libsdk_unit_test.a(cfi_flash_api.o)
 .rodata        0x100a0c78      0x520 /home/leon/git/swp-report/iMX6_Platform_SDK/output/mx6sdl/sdk_unit_test/sabre_ai_rev_b/libsdk_unit_test.a(cfi_flash_driver.o)
 .rodata        0x100a1198      0x118 /home/leon/git/swp-report/iMX6_Platform_SDK/output/mx6sdl/sdk_unit_test/sabre_ai_rev_b/libsdk_unit_test.a(spi_nor_numonyx.o)
 .rodata        0x100a12b0       0xe0 /home/leon/git/swp-report/iMX6_Platform_SDK/output/mx6sdl/sdk_unit_test/sabre_ai_rev_b/libsdk_unit_test.a(adv7180_capture.o)
 .rodata        0x100a1390      0x398 /home/leon/riotboard/arm-2012.09/bin/../arm-none-eabi/lib//libm.a(lib_a-ef_rem_pio2.o)
 .rodata        0x100a1728       0x38 /home/leon/riotboard/arm-2012.09/bin/../arm-none-eabi/lib//libm.a(lib_a-kf_rem_pio2.o)
 .rodata.str1.4
                0x100a1760       0x3f /home/leon/riotboard/arm-2012.09/bin/../arm-none-eabi/lib//libc.a(lib_a-assert.o)
                                 0x44 (size before relaxing)
 *fill*         0x100a179f        0x1 
 .rodata        0x100a17a0        0x4 /home/leon/riotboard/arm-2012.09/bin/../arm-none-eabi/lib//libc.a(lib_a-impure.o)
                0x100a17a0                _global_impure_ptr
 .rodata.str1.4
                0x100a17a4        0x2 /home/leon/riotboard/arm-2012.09/bin/../arm-none-eabi/lib//libc.a(lib_a-impure.o)
                                  0x4 (size before relaxing)
 .rodata.str1.4
                0x00000000        0x2 /home/leon/riotboard/arm-2012.09/bin/../arm-none-eabi/lib//libc.a(lib_a-puts.o)
                                  0x4 (size before relaxing)
 *fill*         0x100a17a6        0x2 
 .rodata        0x100a17a8       0x20 /home/leon/riotboard/arm-2012.09/bin/../arm-none-eabi/lib//libc.a(lib_a-svfprintf.o)
 .rodata.str1.4
                0x100a17c8       0x42 /home/leon/riotboard/arm-2012.09/bin/../arm-none-eabi/lib//libc.a(lib_a-svfprintf.o)
                                 0x44 (size before relaxing)
 *fill*         0x100a180a        0x2 
 .rodata        0x100a180c       0x20 /home/leon/riotboard/arm-2012.09/bin/../arm-none-eabi/lib//libc.a(lib_a-vfiprintf.o)
 .rodata.str1.4
                0x00000000       0x30 /home/leon/riotboard/arm-2012.09/bin/../arm-none-eabi/lib//libc.a(lib_a-vfiprintf.o)
 .rodata        0x100a182c       0x20 /home/leon/riotboard/arm-2012.09/bin/../arm-none-eabi/lib//libc.a(lib_a-vfprintf.o)
 .rodata.str1.4
                0x00000000       0x44 /home/leon/riotboard/arm-2012.09/bin/../arm-none-eabi/lib//libc.a(lib_a-vfprintf.o)
 .rodata        0x100a184c      0x104 /home/leon/riotboard/arm-2012.09/bin/../arm-none-eabi/lib//libc.a(lib_a-ctype_.o)
                0x100a184c                _ctype_
 .rodata.str1.4
                0x100a1950       0x10 /home/leon/riotboard/arm-2012.09/bin/../arm-none-eabi/lib//libc.a(lib_a-dtoa.o)
                                 0x14 (size before relaxing)
 .rodata.str1.4
                0x100a1960        0xa /home/leon/riotboard/arm-2012.09/bin/../arm-none-eabi/lib//libc.a(lib_a-locale.o)
                                 0x14 (size before relaxing)
 *fill*         0x100a196a        0x6 
 .rodata        0x100a1970      0x128 /home/leon/riotboard/arm-2012.09/bin/../arm-none-eabi/lib//libc.a(lib_a-mprec.o)
                0x100a1980                __mprec_tens
                0x100a1a48                __mprec_tinytens
                0x100a1a70                __mprec_bigtens
 .rodata        0x100a1a98       0x20 /home/leon/riotboard/arm-2012.09/bin/../arm-none-eabi/lib//libc.a(lib_a-svfiprintf.o)
 .rodata.str1.4
                0x00000000       0x30 /home/leon/riotboard/arm-2012.09/bin/../arm-none-eabi/lib//libc.a(lib_a-svfiprintf.o)
 .rodata        0x100a1ab8       0x20 /home/leon/git/swp-report/iMX6_Platform_SDK/output/mx6sdl/lib/libsdk.a(runtime_support.o)
 .rodata        0x100a1ad8       0x34 /home/leon/git/swp-report/iMX6_Platform_SDK/output/mx6sdl/lib/libsdk.a(mma8451.o)
 .rodata        0x100a1b0c       0x88 /home/leon/git/swp-report/iMX6_Platform_SDK/output/mx6sdl/lib/libsdk.a(cpu_multicore.o)
 .rodata        0x100a1b94       0x48 /home/leon/git/swp-report/iMX6_Platform_SDK/output/mx6sdl/lib/libsdk.a(cpu_workpoint.o)
 .rodata        0x100a1bdc       0x70 /home/leon/git/swp-report/iMX6_Platform_SDK/output/mx6sdl/lib/libsdk.a(eim.o)
 .rodata        0x100a1c4c       0xb0 /home/leon/git/swp-report/iMX6_Platform_SDK/output/mx6sdl/lib/libsdk.a(can.o)
 .rodata        0x100a1cfc       0xe0 /home/leon/git/swp-report/iMX6_Platform_SDK/output/mx6sdl/lib/libsdk.a(gpio.o)
 .rodata        0x100a1ddc      0x380 /home/leon/git/swp-report/iMX6_Platform_SDK/output/mx6sdl/lib/libsdk.a(imx6sdl_gpio_map.o)
                0x100a1ddc                k_gpio_mux_registers
 .rodata        0x100a215c       0xb4 /home/leon/git/swp-report/iMX6_Platform_SDK/output/mx6sdl/lib/libsdk.a(hdmi_tx.o)
 .rodata        0x100a2210       0x3c /home/leon/git/swp-report/iMX6_Platform_SDK/output/mx6sdl/lib/libsdk.a(hdmi_tx_audio.o)
 .rodata        0x100a224c       0xec /home/leon/git/swp-report/iMX6_Platform_SDK/output/mx6sdl/lib/libsdk.a(hdmi_tx_phy.o)
 .rodata        0x100a2338      0x2c4 /home/leon/git/swp-report/iMX6_Platform_SDK/output/mx6sdl/lib/libsdk.a(imx_i2c.o)
 .rodata        0x100a25fc       0xa4 /home/leon/git/swp-report/iMX6_Platform_SDK/output/mx6sdl/lib/libsdk.a(imx_i2c_slave.o)
 .rodata        0x100a26a0       0x54 /home/leon/git/swp-report/iMX6_Platform_SDK/output/mx6sdl/lib/libsdk.a(ips_disp_panel.o)
 .rodata        0x100a26f4       0x74 /home/leon/git/swp-report/iMX6_Platform_SDK/output/mx6sdl/lib/libsdk.a(ipu_common.o)
 .rodata        0x100a2768       0xc0 /home/leon/git/swp-report/iMX6_Platform_SDK/output/mx6sdl/lib/libsdk.a(ipu_csi.o)
 .rodata        0x100a2828       0x9c /home/leon/git/swp-report/iMX6_Platform_SDK/output/mx6sdl/lib/libsdk.a(ipu_dc.o)
 .rodata        0x100a28c4       0x18 /home/leon/git/swp-report/iMX6_Platform_SDK/output/mx6sdl/lib/libsdk.a(ipu_di.o)
 .rodata        0x100a28dc       0x78 /home/leon/git/swp-report/iMX6_Platform_SDK/output/mx6sdl/lib/libsdk.a(ipu_dp.o)
 .rodata        0x100a2954      0x1bc /home/leon/git/swp-report/iMX6_Platform_SDK/output/mx6sdl/lib/libsdk.a(ipu_ic.o)
 .rodata        0x100a2b10       0x38 /home/leon/git/swp-report/iMX6_Platform_SDK/output/mx6sdl/lib/libsdk.a(ipu_idmac.o)
 .rodata        0x100a2b48       0x68 /home/leon/git/swp-report/iMX6_Platform_SDK/output/mx6sdl/lib/libsdk.a(ldb.o)
 .rodata        0x100a2bb0      0x174 /home/leon/git/swp-report/iMX6_Platform_SDK/output/mx6sdl/lib/libsdk.a(mipi_csi2_common.o)
 .rodata        0x100a2d24      0x10c /home/leon/git/swp-report/iMX6_Platform_SDK/output/mx6sdl/lib/libsdk.a(pcie.o)
 .rodata        0x100a2e30       0xc0 /home/leon/git/swp-report/iMX6_Platform_SDK/output/mx6sdl/lib/libsdk.a(pcie_prot.o)
 .rodata        0x100a2ef0      0x248 /home/leon/git/swp-report/iMX6_Platform_SDK/output/mx6sdl/lib/libsdk.a(pmu_driver.o)
                0x100a2ef0                vtable for pmu::LDOSoCRegulator
                0x100a2f48                vtable for pmu::LDOGraphicsRegulator
                0x100a2fa0                vtable for pmu::LDOARMRegulator
                0x100a2ff8                vtable for pmu::DigitalRegulator
                0x100a3050                vtable for pmu::LDO3p0Regulator
                0x100a3088                vtable for pmu::LDO1p1Regulator
                0x100a30c0                vtable for pmu::AnalogRegulator
                0x100a30f8                vtable for pmu::Regulator
 .rodata._ZTVN3pmu15LDO2p5RegulatorE
                0x100a3138       0x38 /home/leon/git/swp-report/iMX6_Platform_SDK/output/mx6sdl/lib/libsdk.a(pmu_driver.o)
                0x100a3138                vtable for pmu::LDO2p5Regulator
 .rodata        0x100a3170       0x5c /home/leon/git/swp-report/iMX6_Platform_SDK/output/mx6sdl/lib/libsdk.a(pwm.o)
 .rodata        0x100a31cc       0x18 /home/leon/git/swp-report/iMX6_Platform_SDK/output/mx6sdl/lib/libsdk.a(sdma.o)
 .rodata        0x100a31e4      0x7ec /home/leon/git/swp-report/iMX6_Platform_SDK/output/mx6sdl/lib/libsdk.a(sdma_script_info.o)
                0x100a37c0                script_info
 .rodata        0x100a39d0       0x74 /home/leon/git/swp-report/iMX6_Platform_SDK/output/mx6sdl/lib/libsdk.a(ecspi.o)
 .rodata        0x100a3a44       0x94 /home/leon/git/swp-report/iMX6_Platform_SDK/output/mx6sdl/lib/libsdk.a(usb_common.o)
 .rodata        0x100a3ad8       0x50 /home/leon/git/swp-report/iMX6_Platform_SDK/output/mx6sdl/lib/libsdk.a(usbd_drv.o)
 .rodata        0x100a3b28       0x28 /home/leon/git/swp-report/iMX6_Platform_SDK/output/mx6sdl/lib/libsdk.a(usbh_drv.o)
 .rodata        0x100a3b50      0x1cc /home/leon/git/swp-report/iMX6_Platform_SDK/output/mx6sdl/lib/libsdk.a(usdhc.o)
 .rodata        0x100a3d1c       0x1c /home/leon/git/swp-report/iMX6_Platform_SDK/output/mx6sdl/lib/libsdk.a(usdhc_host.o)
 .rodata        0x100a3d38      0x20c /home/leon/git/swp-report/iMX6_Platform_SDK/output/mx6sdl/lib/libsdk.a(usdhc_mmc.o)
 .rodata        0x100a3f44       0x58 /home/leon/git/swp-report/iMX6_Platform_SDK/output/mx6sdl/lib/libsdk.a(usdhc_sd.o)
                0x100a3f44                sd_ocr_value
                0x100a3f50                sd_if_cmd_arg
 .rodata        0x100a3f9c       0x68 /home/leon/git/swp-report/iMX6_Platform_SDK/output/mx6sdl/lib/libsdk.a(adv7180.o)
 .rodata        0x100a4004       0x10 /home/leon/git/swp-report/iMX6_Platform_SDK/output/mx6sdl/lib/libsdk.a(hdmi_common.o)
 .rodata        0x100a4014       0x30 /home/leon/git/swp-report/iMX6_Platform_SDK/output/mx6sdl/lib/libboard_sabre_ai_rev_b.a(board_can.o)
 .rodata        0x100a4044       0x64 /home/leon/git/swp-report/iMX6_Platform_SDK/output/mx6sdl/lib/libboard_sabre_ai_rev_b.a(board_display.o)
 .rodata        0x100a40a8       0x28 /home/leon/git/swp-report/iMX6_Platform_SDK/output/mx6sdl/lib/libboard_sabre_ai_rev_b.a(board_hdmi.o)
 .rodata        0x100a40d0       0x70 /home/leon/git/swp-report/iMX6_Platform_SDK/output/mx6sdl/lib/libboard_sabre_ai_rev_b.a(board_i2c.o)
                0x100a40d0                g_wm8958_i2c_device
                0x100a40d8                g_wm8962_i2c_device
                0x100a40e0                g_sgtl5000_i2c_device
                0x100a40e8                g_cs42888_i2c_device
                0x100a40f0                g_pmic_ltc3589_i2c_device
                0x100a40f8                g_pmic_da9053_i2c_device
                0x100a4100                g_pmic_max17135_i2c_device
                0x100a4108                g_pmic_pf0100_i2c_device
                0x100a4110                g_adv7180_i2c_device
                0x100a4118                g_os81050_i2c_device
                0x100a4120                g_p1003_tsc_i2c_device
                0x100a4128                g_at24cx_i2c_device
                0x100a4130                g_si476x_i2c_device
                0x100a4138                g_mma8451_i2c_device
 .rodata        0x100a4140       0x80 /home/leon/git/swp-report/iMX6_Platform_SDK/output/mx6sdl/lib/libboard_sabre_ai_rev_b.a(ecspi_iomux_config.o)
 .rodata        0x100a41c0       0x88 /home/leon/git/swp-report/iMX6_Platform_SDK/output/mx6sdl/lib/libboard_sabre_ai_rev_b.a(flexcan_iomux_config.o)
 .rodata        0x100a4248       0x80 /home/leon/git/swp-report/iMX6_Platform_SDK/output/mx6sdl/lib/libboard_sabre_ai_rev_b.a(i2c_iomux_config.o)
 .rodata        0x100a42c8       0x80 /home/leon/git/swp-report/iMX6_Platform_SDK/output/mx6sdl/lib/libboard_sabre_ai_rev_b.a(pwm_iomux_config.o)
 .rodata        0x100a4348       0x80 /home/leon/git/swp-report/iMX6_Platform_SDK/output/mx6sdl/lib/libboard_sabre_ai_rev_b.a(usdhc_iomux_config.o)
 .rodata.str1.4
                0x100a43c8       0x3b /home/leon/riotboard/arm-2012.09/bin/../arm-none-eabi/lib//libstdc++.a(pure.o)
                                 0x3c (size before relaxing)
 *fill*         0x100a4403        0x5 
 .rodata._ZTVN10__cxxabiv115__forced_unwindE
                0x100a4408       0x18 /home/leon/riotboard/arm-2012.09/bin/../arm-none-eabi/lib//libstdc++.a(eh_exception.o)
                0x100a4408                vtable for __cxxabiv1::__forced_unwind
 .rodata._ZTVSt9exception
                0x100a4420       0x18 /home/leon/riotboard/arm-2012.09/bin/../arm-none-eabi/lib//libstdc++.a(eh_exception.o)
                0x100a4420                vtable for std::exception
 .rodata._ZTIN10__cxxabiv115__forced_unwindE
                0x100a4438        0x8 /home/leon/riotboard/arm-2012.09/bin/../arm-none-eabi/lib//libstdc++.a(eh_exception.o)
                0x100a4438                typeinfo for __cxxabiv1::__forced_unwind
 .rodata._ZTISt9exception
                0x100a4440        0x8 /home/leon/riotboard/arm-2012.09/bin/../arm-none-eabi/lib//libstdc++.a(eh_exception.o)
                0x100a4440                typeinfo for std::exception
 .rodata._ZTSSt13bad_exception
                0x100a4448       0x14 /home/leon/riotboard/arm-2012.09/bin/../arm-none-eabi/lib//libstdc++.a(eh_exception.o)
                0x100a4448                typeinfo name for std::bad_exception
 .rodata.str1.4
                0x100a445c       0x23 /home/leon/riotboard/arm-2012.09/bin/../arm-none-eabi/lib//libstdc++.a(eh_exception.o)
                                 0x24 (size before relaxing)
 *fill*         0x100a447f        0x1 
 .rodata._ZTSN10__cxxabiv119__foreign_exceptionE
                0x100a4480       0x24 /home/leon/riotboard/arm-2012.09/bin/../arm-none-eabi/lib//libstdc++.a(eh_exception.o)
                0x100a4480                typeinfo name for __cxxabiv1::__foreign_exception
 .rodata._ZTIN10__cxxabiv119__foreign_exceptionE
                0x100a44a4        0x8 /home/leon/riotboard/arm-2012.09/bin/../arm-none-eabi/lib//libstdc++.a(eh_exception.o)
                0x100a44a4                typeinfo for __cxxabiv1::__foreign_exception
 *fill*         0x100a44ac        0x4 
 .rodata._ZTVSt13bad_exception
                0x100a44b0       0x18 /home/leon/riotboard/arm-2012.09/bin/../arm-none-eabi/lib//libstdc++.a(eh_exception.o)
                0x100a44b0                vtable for std::bad_exception
 .rodata._ZTSSt9exception
                0x100a44c8       0x10 /home/leon/riotboard/arm-2012.09/bin/../arm-none-eabi/lib//libstdc++.a(eh_exception.o)
                0x100a44c8                typeinfo name for std::exception
 .rodata._ZTVN10__cxxabiv119__foreign_exceptionE
                0x100a44d8       0x18 /home/leon/riotboard/arm-2012.09/bin/../arm-none-eabi/lib//libstdc++.a(eh_exception.o)
                0x100a44d8                vtable for __cxxabiv1::__foreign_exception
 .rodata._ZTSN10__cxxabiv115__forced_unwindE
                0x100a44f0       0x20 /home/leon/riotboard/arm-2012.09/bin/../arm-none-eabi/lib//libstdc++.a(eh_exception.o)
                0x100a44f0                typeinfo name for __cxxabiv1::__forced_unwind
 .rodata._ZTISt13bad_exception
                0x100a4510        0xc /home/leon/riotboard/arm-2012.09/bin/../arm-none-eabi/lib//libstdc++.a(eh_exception.o)
                0x100a4510                typeinfo for std::bad_exception
 *fill*         0x100a451c        0x4 
 .rodata._ZTVN10__cxxabiv120__si_class_type_infoE
                0x100a4520       0x30 /home/leon/riotboard/arm-2012.09/bin/../arm-none-eabi/lib//libstdc++.a(si_class_type_info.o)
                0x100a4520                vtable for __cxxabiv1::__si_class_type_info
 .rodata._ZTIN10__cxxabiv120__si_class_type_infoE
                0x100a4550        0xc /home/leon/riotboard/arm-2012.09/bin/../arm-none-eabi/lib//libstdc++.a(si_class_type_info.o)
                0x100a4550                typeinfo for __cxxabiv1::__si_class_type_info
 .rodata._ZTSN10__cxxabiv120__si_class_type_infoE
                0x100a455c       0x28 /home/leon/riotboard/arm-2012.09/bin/../arm-none-eabi/lib//libstdc++.a(si_class_type_info.o)
                0x100a455c                typeinfo name for __cxxabiv1::__si_class_type_info
 *fill*         0x100a4584        0x4 
 .rodata._ZTVN10__cxxabiv117__class_type_infoE
                0x100a4588       0x30 /home/leon/riotboard/arm-2012.09/bin/../arm-none-eabi/lib//libstdc++.a(class_type_info.o)
                0x100a4588                vtable for __cxxabiv1::__class_type_info
 .rodata._ZTIN10__cxxabiv117__class_type_infoE
                0x100a45b8        0xc /home/leon/riotboard/arm-2012.09/bin/../arm-none-eabi/lib//libstdc++.a(class_type_info.o)
                0x100a45b8                typeinfo for __cxxabiv1::__class_type_info
 .rodata._ZTSN10__cxxabiv117__class_type_infoE
                0x100a45c4       0x24 /home/leon/riotboard/arm-2012.09/bin/../arm-none-eabi/lib//libstdc++.a(class_type_info.o)
                0x100a45c4                typeinfo name for __cxxabiv1::__class_type_info
 .rodata.str1.4
                0x100a45e8       0x94 /home/leon/riotboard/arm-2012.09/bin/../arm-none-eabi/lib//libstdc++.a(vterminate.o)
 .rodata        0x100a467c      0x6f8 /home/leon/riotboard/arm-2012.09/bin/../arm-none-eabi/lib//libstdc++.a(cp-demangle.o)
 .rodata.str1.4
                0x100a4d74      0x764 /home/leon/riotboard/arm-2012.09/bin/../arm-none-eabi/lib//libstdc++.a(cp-demangle.o)
                                0x7b4 (size before relaxing)
 .rodata._ZTISt9type_info
                0x100a54d8        0x8 /home/leon/riotboard/arm-2012.09/bin/../arm-none-eabi/lib//libstdc++.a(tinfo.o)
                0x100a54d8                typeinfo for std::type_info
 .rodata._ZTSSt9type_info
                0x100a54e0       0x10 /home/leon/riotboard/arm-2012.09/bin/../arm-none-eabi/lib//libstdc++.a(tinfo.o)
                0x100a54e0                typeinfo name for std::type_info
 .rodata._ZTVSt9type_info
                0x100a54f0       0x20 /home/leon/riotboard/arm-2012.09/bin/../arm-none-eabi/lib//libstdc++.a(tinfo.o)
                0x100a54f0                vtable for std::type_info
                0x100a5510                . = ALIGN (0x4)
 *(.init)
 .init          0x100a5510        0xc /home/leon/riotboard/arm-2012.09/bin/../lib/gcc/arm-none-eabi/4.7.2//crti.o
                0x100a5510                _init
 .init          0x100a551c        0xc /home/leon/riotboard/arm-2012.09/bin/../lib/gcc/arm-none-eabi/4.7.2//crtn.o
                0x100a5528                . = ALIGN (0x4)
                0x100a5528                __init_array_start = .
 *(SORT(.init_array.*))
 *(.init_array)
 .init_array    0x100a5528        0x4 /home/leon/riotboard/arm-2012.09/bin/../lib/gcc/arm-none-eabi/4.7.2//crtbegin.o
 .init_array    0x100a552c        0x4 /home/leon/git/swp-report/iMX6_Platform_SDK/output/mx6sdl/lib/libsdk.a(pmu_driver.o)
                0x100a5530                __init_array_end = .
                0x100a5530                . = ALIGN (0x4)
 *(.fini)
 .fini          0x100a5530        0xc /home/leon/riotboard/arm-2012.09/bin/../lib/gcc/arm-none-eabi/4.7.2//crti.o
                0x100a5530                _fini
 .fini          0x100a553c        0xc /home/leon/riotboard/arm-2012.09/bin/../lib/gcc/arm-none-eabi/4.7.2//crtn.o
                0x100a5548                . = ALIGN (0x4)
                0x100a5548                __fini_array_start = .
 *(.fini_array)
 .fini_array    0x100a5548        0x4 /home/leon/riotboard/arm-2012.09/bin/../lib/gcc/arm-none-eabi/4.7.2//crtbegin.o
 *(SORT(.fini_array.*))
                0x100a554c                __fini_array_end = .
                0x100a554c                PROVIDE (__exidx_start, .)

.eh_frame       0x100a554c        0x4
 .eh_frame      0x100a554c        0x0 /home/leon/riotboard/arm-2012.09/bin/../lib/gcc/arm-none-eabi/4.7.2//crtbegin.o
 .eh_frame      0x100a554c        0x4 /home/leon/riotboard/arm-2012.09/bin/../lib/gcc/arm-none-eabi/4.7.2//crtend.o

.ARM.exidx      0x100a5550      0x1e0
 *(.ARM.exidx* .gnu.linkonce.armexidx.*)
 .ARM.exidx.startup
                0x100a5550        0x8 /home/leon/git/swp-report/iMX6_Platform_SDK/output/mx6sdl/lib/libsdk.a(startup.o)
 .ARM.exidx     0x100a5558        0x0 /home/leon/riotboard/arm-2012.09/bin/../lib/gcc/arm-none-eabi/4.7.2//libgcc.a(_divdi3.o)
                                  0x8 (size before relaxing)
 .ARM.exidx     0x100a5558        0x0 /home/leon/riotboard/arm-2012.09/bin/../lib/gcc/arm-none-eabi/4.7.2//libgcc.a(_udivdi3.o)
                                  0x8 (size before relaxing)
 .ARM.exidx.text.__cxa_pure_virtual
                0x100a5558        0x8 /home/leon/riotboard/arm-2012.09/bin/../arm-none-eabi/lib//libstdc++.a(pure.o)
 .ARM.exidx.text.__cxa_deleted_virtual
                0x100a5560        0x8 /home/leon/riotboard/arm-2012.09/bin/../arm-none-eabi/lib//libstdc++.a(pure.o)
 .ARM.exidx.text._ZN10__cxxabiv111__terminateEPFvvE
                0x100a5568        0x8 /home/leon/riotboard/arm-2012.09/bin/../arm-none-eabi/lib//libstdc++.a(eh_terminate.o)
 .ARM.exidx.text._ZSt9terminatev
                0x100a5570        0x8 /home/leon/riotboard/arm-2012.09/bin/../arm-none-eabi/lib//libstdc++.a(eh_terminate.o)
 .ARM.exidx.text._ZN10__cxxabiv112__unexpectedEPFvvE
                0x100a5578        0x8 /home/leon/riotboard/arm-2012.09/bin/../arm-none-eabi/lib//libstdc++.a(eh_terminate.o)
 .ARM.exidx.text._ZSt10unexpectedv
                0x100a5580        0x8 /home/leon/riotboard/arm-2012.09/bin/../arm-none-eabi/lib//libstdc++.a(eh_terminate.o)
 .ARM.exidx.text._ZSt13set_terminatePFvvE
                0x100a5588        0x8 /home/leon/riotboard/arm-2012.09/bin/../arm-none-eabi/lib//libstdc++.a(eh_terminate.o)
 .ARM.exidx.text._ZSt14set_unexpectedPFvvE
                0x100a5590        0x0 /home/leon/riotboard/arm-2012.09/bin/../arm-none-eabi/lib//libstdc++.a(eh_terminate.o)
                                  0x8 (size before relaxing)
 .ARM.exidx.text._ZN10__cxxabiv1L24__is_gxx_exception_classEPc
                0x100a5590        0x0 /home/leon/riotboard/arm-2012.09/bin/../arm-none-eabi/lib//libstdc++.a(eh_call.o)
                                  0x8 (size before relaxing)
 .ARM.exidx.text.__cxa_call_terminate
                0x100a5590        0x0 /home/leon/riotboard/arm-2012.09/bin/../arm-none-eabi/lib//libstdc++.a(eh_call.o)
                                  0x8 (size before relaxing)
 .ARM.exidx.text.__cxa_call_unexpected
                0x100a5590        0x8 /home/leon/riotboard/arm-2012.09/bin/../arm-none-eabi/lib//libstdc++.a(eh_call.o)
 .ARM.exidx.text._ZL23__gxx_exception_cleanup19_Unwind_Reason_CodeP21_Unwind_Control_Block
                0x100a5598        0x8 /home/leon/riotboard/arm-2012.09/bin/../arm-none-eabi/lib//libstdc++.a(eh_throw.o)
 .ARM.exidx.text.__cxa_throw
                0x100a55a0        0x8 /home/leon/riotboard/arm-2012.09/bin/../arm-none-eabi/lib//libstdc++.a(eh_throw.o)
 .ARM.exidx.text.__cxa_rethrow
                0x100a55a8       0x10 /home/leon/riotboard/arm-2012.09/bin/../arm-none-eabi/lib//libstdc++.a(eh_throw.o)
                                  0x8 (size before relaxing)
 .ARM.exidx.text.__cxa_type_match
                0x100a55b8        0x8 /home/leon/riotboard/arm-2012.09/bin/../arm-none-eabi/lib//libstdc++.a(eh_arm.o)
 .ARM.exidx.text.__cxa_begin_cleanup
                0x100a55c0        0x8 /home/leon/riotboard/arm-2012.09/bin/../arm-none-eabi/lib//libstdc++.a(eh_arm.o)
 .ARM.exidx.text.__gnu_end_cleanup
                0x100a55c8        0x0 /home/leon/riotboard/arm-2012.09/bin/../arm-none-eabi/lib//libstdc++.a(eh_arm.o)
                                  0x8 (size before relaxing)
 .ARM.exidx.text._ZNSt9exceptionD2Ev
                0x100a55c8        0x0 /home/leon/riotboard/arm-2012.09/bin/../arm-none-eabi/lib//libstdc++.a(eh_exception.o)
                                  0x8 (size before relaxing)
 .ARM.exidx.text._ZNSt13bad_exceptionD2Ev
                0x100a55c8        0x0 /home/leon/riotboard/arm-2012.09/bin/../arm-none-eabi/lib//libstdc++.a(eh_exception.o)
                                  0x8 (size before relaxing)
 .ARM.exidx.text._ZN10__cxxabiv115__forced_unwindD2Ev
                0x100a55c8        0x0 /home/leon/riotboard/arm-2012.09/bin/../arm-none-eabi/lib//libstdc++.a(eh_exception.o)
                                  0x8 (size before relaxing)
 .ARM.exidx.text._ZN10__cxxabiv119__foreign_exceptionD2Ev
                0x100a55c8        0x0 /home/leon/riotboard/arm-2012.09/bin/../arm-none-eabi/lib//libstdc++.a(eh_exception.o)
                                  0x8 (size before relaxing)
 .ARM.exidx.text._ZNKSt9exception4whatEv
                0x100a55c8        0x0 /home/leon/riotboard/arm-2012.09/bin/../arm-none-eabi/lib//libstdc++.a(eh_exception.o)
                                  0x8 (size before relaxing)
 .ARM.exidx.text._ZNKSt13bad_exception4whatEv
                0x100a55c8        0x0 /home/leon/riotboard/arm-2012.09/bin/../arm-none-eabi/lib//libstdc++.a(eh_exception.o)
                                  0x8 (size before relaxing)
 .ARM.exidx.text._ZN10__cxxabiv119__foreign_exceptionD0Ev
                0x100a55c8        0x0 /home/leon/riotboard/arm-2012.09/bin/../arm-none-eabi/lib//libstdc++.a(eh_exception.o)
                                  0x8 (size before relaxing)
 .ARM.exidx.text._ZN10__cxxabiv115__forced_unwindD0Ev
                0x100a55c8        0x0 /home/leon/riotboard/arm-2012.09/bin/../arm-none-eabi/lib//libstdc++.a(eh_exception.o)
                                  0x8 (size before relaxing)
 .ARM.exidx.text._ZNSt9exceptionD0Ev
                0x100a55c8        0x0 /home/leon/riotboard/arm-2012.09/bin/../arm-none-eabi/lib//libstdc++.a(eh_exception.o)
                                  0x8 (size before relaxing)
 .ARM.exidx.text._ZNSt13bad_exceptionD0Ev
                0x100a55c8        0x0 /home/leon/riotboard/arm-2012.09/bin/../arm-none-eabi/lib//libstdc++.a(eh_exception.o)
                                  0x8 (size before relaxing)
 .ARM.exidx.text.__cxa_allocate_exception
                0x100a55c8        0x0 /home/leon/riotboard/arm-2012.09/bin/../arm-none-eabi/lib//libstdc++.a(eh_alloc.o)
                                  0x8 (size before relaxing)
 .ARM.exidx.text.__cxa_free_exception
                0x100a55c8        0x0 /home/leon/riotboard/arm-2012.09/bin/../arm-none-eabi/lib//libstdc++.a(eh_alloc.o)
                                  0x8 (size before relaxing)
 .ARM.exidx.text.__cxa_allocate_dependent_exception
                0x100a55c8        0x0 /home/leon/riotboard/arm-2012.09/bin/../arm-none-eabi/lib//libstdc++.a(eh_alloc.o)
                                  0x8 (size before relaxing)
 .ARM.exidx.text.__cxa_free_dependent_exception
                0x100a55c8        0x0 /home/leon/riotboard/arm-2012.09/bin/../arm-none-eabi/lib//libstdc++.a(eh_alloc.o)
                                  0x8 (size before relaxing)
 .ARM.exidx.text.__cxa_get_globals_fast
                0x100a55c8        0x0 /home/leon/riotboard/arm-2012.09/bin/../arm-none-eabi/lib//libstdc++.a(eh_globals.o)
                                  0x8 (size before relaxing)
 .ARM.exidx.text.__cxa_get_globals
                0x100a55c8        0x0 /home/leon/riotboard/arm-2012.09/bin/../arm-none-eabi/lib//libstdc++.a(eh_globals.o)
                                  0x8 (size before relaxing)
 .ARM.exidx.text._ZNK10__cxxabiv120__si_class_type_info12__do_dyncastEiNS_17__class_type_info10__sub_kindEPKS1_PKvS4_S6_RNS1_16__dyncast_resultE
                0x100a55c8        0x8 /home/leon/riotboard/arm-2012.09/bin/../arm-none-eabi/lib//libstdc++.a(si_class_type_info.o)
 .ARM.exidx.text._ZN10__cxxabiv120__si_class_type_infoD2Ev
                0x100a55d0        0x8 /home/leon/riotboard/arm-2012.09/bin/../arm-none-eabi/lib//libstdc++.a(si_class_type_info.o)
 .ARM.exidx.text._ZN10__cxxabiv120__si_class_type_infoD0Ev
                0x100a55d8        0x0 /home/leon/riotboard/arm-2012.09/bin/../arm-none-eabi/lib//libstdc++.a(si_class_type_info.o)
                                  0x8 (size before relaxing)
 .ARM.exidx.text._ZNK10__cxxabiv120__si_class_type_info11__do_upcastEPKNS_17__class_type_infoEPKvRNS1_15__upcast_resultE
                0x100a55d8        0x8 /home/leon/riotboard/arm-2012.09/bin/../arm-none-eabi/lib//libstdc++.a(si_class_type_info.o)
 .ARM.exidx.text._ZNK10__cxxabiv120__si_class_type_info20__do_find_public_srcEiPKvPKNS_17__class_type_infoES2_
                0x100a55e0        0x8 /home/leon/riotboard/arm-2012.09/bin/../arm-none-eabi/lib//libstdc++.a(si_class_type_info.o)
 .ARM.exidx.text._ZL12read_sleb128PKhPl
                0x100a55e8        0x8 /home/leon/riotboard/arm-2012.09/bin/../arm-none-eabi/lib//libstdc++.a(eh_personality.o)
 .ARM.exidx.text._ZL28read_encoded_value_with_basehjPKhPj
                0x100a55f0        0x8 /home/leon/riotboard/arm-2012.09/bin/../arm-none-eabi/lib//libstdc++.a(eh_personality.o)
 .ARM.exidx.text._ZL21base_of_encoded_valuehP15_Unwind_Context
                0x100a55f8        0x8 /home/leon/riotboard/arm-2012.09/bin/../arm-none-eabi/lib//libstdc++.a(eh_personality.o)
 .ARM.exidx.text._ZL17parse_lsda_headerP15_Unwind_ContextPKhP16lsda_header_info
                0x100a5600        0x8 /home/leon/riotboard/arm-2012.09/bin/../arm-none-eabi/lib//libstdc++.a(eh_personality.o)
 .ARM.exidx.text.__gxx_personality_v0
                0x100a5608        0x8 /home/leon/riotboard/arm-2012.09/bin/../arm-none-eabi/lib//libstdc++.a(eh_personality.o)
 .ARM.exidx.text.__cxa_get_exception_ptr
                0x100a5610        0x8 /home/leon/riotboard/arm-2012.09/bin/../arm-none-eabi/lib//libstdc++.a(eh_catch.o)
 .ARM.exidx.text.__cxa_begin_catch
                0x100a5618        0x8 /home/leon/riotboard/arm-2012.09/bin/../arm-none-eabi/lib//libstdc++.a(eh_catch.o)
 .ARM.exidx.text.__cxa_end_catch
                0x100a5620        0x8 /home/leon/riotboard/arm-2012.09/bin/../arm-none-eabi/lib//libstdc++.a(eh_catch.o)
 .ARM.exidx.text._ZSt18uncaught_exceptionv
                0x100a5628        0x8 /home/leon/riotboard/arm-2012.09/bin/../arm-none-eabi/lib//libstdc++.a(eh_catch.o)
 .ARM.exidx.text._ZNK10__cxxabiv117__class_type_info11__do_upcastEPKS0_PPv
                0x100a5630        0x8 /home/leon/riotboard/arm-2012.09/bin/../arm-none-eabi/lib//libstdc++.a(class_type_info.o)
 .ARM.exidx.text._ZNK10__cxxabiv117__class_type_info20__do_find_public_srcEiPKvPKS0_S2_
                0x100a5638        0x8 /home/leon/riotboard/arm-2012.09/bin/../arm-none-eabi/lib//libstdc++.a(class_type_info.o)
 .ARM.exidx.text._ZNK10__cxxabiv117__class_type_info11__do_upcastEPKS0_PKvRNS0_15__upcast_resultE
                0x100a5640        0x8 /home/leon/riotboard/arm-2012.09/bin/../arm-none-eabi/lib//libstdc++.a(class_type_info.o)
 .ARM.exidx.text._ZN10__cxxabiv117__class_type_infoD2Ev
                0x100a5648        0x8 /home/leon/riotboard/arm-2012.09/bin/../arm-none-eabi/lib//libstdc++.a(class_type_info.o)
 .ARM.exidx.text._ZN10__cxxabiv117__class_type_infoD0Ev
                0x100a5650        0x0 /home/leon/riotboard/arm-2012.09/bin/../arm-none-eabi/lib//libstdc++.a(class_type_info.o)
                                  0x8 (size before relaxing)
 .ARM.exidx.text._ZNK10__cxxabiv117__class_type_info12__do_dyncastEiNS0_10__sub_kindEPKS0_PKvS3_S5_RNS0_16__dyncast_resultE
                0x100a5650        0x8 /home/leon/riotboard/arm-2012.09/bin/../arm-none-eabi/lib//libstdc++.a(class_type_info.o)
 .ARM.exidx.text._ZNK10__cxxabiv117__class_type_info10__do_catchEPKSt9type_infoPPvj
                0x100a5658        0x8 /home/leon/riotboard/arm-2012.09/bin/../arm-none-eabi/lib//libstdc++.a(class_type_info.o)
 .ARM.exidx.text._ZN9__gnu_cxx27__verbose_terminate_handlerEv
                0x100a5660       0x10 /home/leon/riotboard/arm-2012.09/bin/../arm-none-eabi/lib//libstdc++.a(vterminate.o)
                                  0x8 (size before relaxing)
 .ARM.exidx.text.__cxa_current_exception_type
                0x100a5670        0x0 /home/leon/riotboard/arm-2012.09/bin/../arm-none-eabi/lib//libstdc++.a(eh_type.o)
                                  0x8 (size before relaxing)
 .ARM.exidx.text._ZdlPv
                0x100a5670        0x0 /home/leon/riotboard/arm-2012.09/bin/../arm-none-eabi/lib//libstdc++.a(del_op.o)
                                  0x8 (size before relaxing)
 .ARM.exidx.text._ZNSt9type_infoD2Ev
                0x100a5670        0x0 /home/leon/riotboard/arm-2012.09/bin/../arm-none-eabi/lib//libstdc++.a(tinfo.o)
                                  0x8 (size before relaxing)
 .ARM.exidx.text._ZNKSt9type_info14__is_pointer_pEv
                0x100a5670        0x0 /home/leon/riotboard/arm-2012.09/bin/../arm-none-eabi/lib//libstdc++.a(tinfo.o)
                                  0x8 (size before relaxing)
 .ARM.exidx.text._ZNKSt9type_info15__is_function_pEv
                0x100a5670        0x0 /home/leon/riotboard/arm-2012.09/bin/../arm-none-eabi/lib//libstdc++.a(tinfo.o)
                                  0x8 (size before relaxing)
 .ARM.exidx.text._ZNKSt9type_info11__do_upcastEPKN10__cxxabiv117__class_type_infoEPPv
                0x100a5670        0x0 /home/leon/riotboard/arm-2012.09/bin/../arm-none-eabi/lib//libstdc++.a(tinfo.o)
                                  0x8 (size before relaxing)
 .ARM.exidx.text._ZNSt9type_infoD0Ev
                0x100a5670        0x0 /home/leon/riotboard/arm-2012.09/bin/../arm-none-eabi/lib//libstdc++.a(tinfo.o)
                                  0x8 (size before relaxing)
 .ARM.exidx.text._ZNKSt9type_infoeqERKS_
                0x100a5670        0x0 /home/leon/riotboard/arm-2012.09/bin/../arm-none-eabi/lib//libstdc++.a(tinfo.o)
                                  0x8 (size before relaxing)
 .ARM.exidx.text._ZNKSt9type_info10__do_catchEPKS_PPvj
                0x100a5670        0x0 /home/leon/riotboard/arm-2012.09/bin/../arm-none-eabi/lib//libstdc++.a(tinfo.o)
                                  0x8 (size before relaxing)
 .ARM.exidx     0x100a5670       0x88 /home/leon/riotboard/arm-2012.09/bin/../lib/gcc/arm-none-eabi/4.7.2//libgcc.a(unwind-arm.o)
                                 0xd8 (size before relaxing)
 .ARM.exidx     0x100a56f8       0x38 /home/leon/riotboard/arm-2012.09/bin/../lib/gcc/arm-none-eabi/4.7.2//libgcc.a(pr-support.o)
                                 0x48 (size before relaxing)
                0x100a5730                PROVIDE (__exidx_end, .)

.rel.dyn        0x100a5730        0x0
 .rel.iplt      0x00000000        0x0 /home/leon/riotboard/arm-2012.09/bin/../lib/gcc/arm-none-eabi/4.7.2//crtbegin.o

.data           0x100a5730     0x3838
 *(.data .data.* .gnu.linkonce.d.*)
 .data          0x100a5730        0x4 /home/leon/riotboard/arm-2012.09/bin/../lib/gcc/arm-none-eabi/4.7.2//crtbegin.o
                0x100a5730                __dso_handle
 .data          0x100a5734        0x0 /home/leon/riotboard/arm-2012.09/bin/../lib/gcc/arm-none-eabi/4.7.2//crti.o
 .data          0x100a5734        0x0 /home/leon/riotboard/arm-2012.09/bin/../lib/gcc/arm-none-eabi/4.7.2//crtend.o
 .data          0x100a5734        0x0 /home/leon/riotboard/arm-2012.09/bin/../lib/gcc/arm-none-eabi/4.7.2//crtn.o
 .data          0x100a5734        0x0 /home/leon/git/swp-report/iMX6_Platform_SDK/output/mx6sdl/sdk_unit_test/sabre_ai_rev_b/obj/apps/common/ivt.o
 .data          0x100a5734        0x0 /home/leon/git/swp-report/iMX6_Platform_SDK/output/mx6sdl/sdk_unit_test/sabre_ai_rev_b/obj/apps/common/platform_init.o
 .data          0x100a5734        0x0 /home/leon/git/swp-report/iMX6_Platform_SDK/output/mx6sdl/sdk_unit_test/sabre_ai_rev_b/obj/apps/common/print_clock_info.o
 .data          0x100a5734        0x0 /home/leon/git/swp-report/iMX6_Platform_SDK/output/mx6sdl/sdk_unit_test/sabre_ai_rev_b/obj/apps/common/print_version.o
 .data          0x100a5734        0x0 /home/leon/git/swp-report/iMX6_Platform_SDK/output/mx6sdl/sdk_unit_test/sabre_ai_rev_b/obj/apps/sdk_unit_test/src/all_test.o
 .data          0x100a5734        0x0 /home/leon/git/swp-report/iMX6_Platform_SDK/output/mx6sdl/sdk_unit_test/sabre_ai_rev_b/obj/apps/sdk_unit_test/src/unit_test_main.o
 .data          0x100a5734        0x0 /home/leon/git/swp-report/iMX6_Platform_SDK/output/mx6sdl/lib/libsdk.a(ccm_pll.o)
 .data          0x100a5734        0x0 /home/leon/git/swp-report/iMX6_Platform_SDK/output/mx6sdl/lib/libsdk.a(cortexA9.o)
 .data          0x100a5734        0x0 /home/leon/git/swp-report/iMX6_Platform_SDK/output/mx6sdl/lib/libsdk.a(gic.o)
 .data          0x100a5734        0x0 /home/leon/git/swp-report/iMX6_Platform_SDK/output/mx6sdl/lib/libsdk.a(mmu.o)
 .data          0x100a5734        0x0 /home/leon/git/swp-report/iMX6_Platform_SDK/output/mx6sdl/lib/libsdk.a(startup.o)
 .data          0x100a5734        0x0 /home/leon/git/swp-report/iMX6_Platform_SDK/output/mx6sdl/lib/libsdk.a(vectors.o)
 .data          0x100a5734        0x4 /home/leon/git/swp-report/iMX6_Platform_SDK/output/mx6sdl/lib/libsdk.a(menu.o)
 .data          0x100a5738        0x0 /home/leon/git/swp-report/iMX6_Platform_SDK/output/mx6sdl/lib/libsdk.a(sdk_version.o)
 .data          0x100a5738        0x0 /home/leon/git/swp-report/iMX6_Platform_SDK/output/mx6sdl/lib/libsdk.a(system_util.o)
 .data          0x100a5738        0x4 /home/leon/git/swp-report/iMX6_Platform_SDK/output/mx6sdl/lib/libsdk.a(text_color.o)
                0x100a5738                is_color_supported
 .data          0x100a573c        0x0 /home/leon/git/swp-report/iMX6_Platform_SDK/output/mx6sdl/lib/libsdk.a(board_id.o)
 .data          0x100a573c        0x0 /home/leon/git/swp-report/iMX6_Platform_SDK/output/mx6sdl/lib/libsdk.a(timer.o)
 .data          0x100a573c        0x0 /home/leon/git/swp-report/iMX6_Platform_SDK/output/mx6sdl/lib/libsdk.a(imx_uart.o)
 .data          0x100a573c        0x4 /home/leon/git/swp-report/iMX6_Platform_SDK/output/mx6sdl/lib/libsdk.a(arm_abort.o)
 .data          0x100a5740        0x0 /home/leon/git/swp-report/iMX6_Platform_SDK/output/mx6sdl/lib/libsdk.a(interrupt.o)
 .data          0x100a5740        0x0 /home/leon/git/swp-report/iMX6_Platform_SDK/output/mx6sdl/lib/libsdk.a(epit.o)
 .data          0x100a5740        0x0 /home/leon/git/swp-report/iMX6_Platform_SDK/output/mx6sdl/lib/libsdk.a(abort_handler.o)
 .data          0x100a5740        0x0 /home/leon/git/swp-report/iMX6_Platform_SDK/output/mx6sdl/lib/libboard_sabre_ai_rev_b.a(board_io_expanders.o)
 .data          0x100a5740        0x8 /home/leon/git/swp-report/iMX6_Platform_SDK/output/mx6sdl/lib/libboard_sabre_ai_rev_b.a(hardware_modules.o)
                0x100a5740                g_debug_uart_port
                0x100a5744                g_system_timer_port
 .data          0x100a5748        0x0 /home/leon/git/swp-report/iMX6_Platform_SDK/output/mx6sdl/lib/libboard_sabre_ai_rev_b.a(dcd.o)
 .data          0x100a5748        0x0 /home/leon/git/swp-report/iMX6_Platform_SDK/output/mx6sdl/lib/libboard_sabre_ai_rev_b.a(i2c3_iomux_config.o)
 .data          0x100a5748        0x0 /home/leon/git/swp-report/iMX6_Platform_SDK/output/mx6sdl/lib/libboard_sabre_ai_rev_b.a(uart_iomux_config.o)
 .data          0x100a5748        0x0 /home/leon/git/swp-report/iMX6_Platform_SDK/output/mx6sdl/lib/libboard_sabre_ai_rev_b.a(iomux_config.o)
 .data          0x100a5748        0x0 /home/leon/git/swp-report/iMX6_Platform_SDK/output/mx6sdl/lib/libboard_sabre_ai_rev_b.a(ipu1_iomux_config.o)
 .data          0x100a5748        0x0 /home/leon/git/swp-report/iMX6_Platform_SDK/output/mx6sdl/lib/libboard_sabre_ai_rev_b.a(mlb_iomux_config.o)
 .data          0x100a5748        0x0 /home/leon/git/swp-report/iMX6_Platform_SDK/output/mx6sdl/lib/libboard_sabre_ai_rev_b.a(mmdc_iomux_config.o)
 .data          0x100a5748        0x0 /home/leon/git/swp-report/iMX6_Platform_SDK/output/mx6sdl/lib/libboard_sabre_ai_rev_b.a(pwm3_iomux_config.o)
 .data          0x100a5748        0x0 /home/leon/git/swp-report/iMX6_Platform_SDK/output/mx6sdl/lib/libboard_sabre_ai_rev_b.a(pwm4_iomux_config.o)
 .data          0x100a5748        0x0 /home/leon/git/swp-report/iMX6_Platform_SDK/output/mx6sdl/lib/libboard_sabre_ai_rev_b.a(sjc_iomux_config.o)
 .data          0x100a5748        0x0 /home/leon/git/swp-report/iMX6_Platform_SDK/output/mx6sdl/lib/libboard_sabre_ai_rev_b.a(spdif_iomux_config.o)
 .data          0x100a5748        0x0 /home/leon/git/swp-report/iMX6_Platform_SDK/output/mx6sdl/lib/libboard_sabre_ai_rev_b.a(uart2_iomux_config.o)
 .data          0x100a5748        0x0 /home/leon/git/swp-report/iMX6_Platform_SDK/output/mx6sdl/lib/libboard_sabre_ai_rev_b.a(uart3_iomux_config.o)
 .data          0x100a5748        0x0 /home/leon/git/swp-report/iMX6_Platform_SDK/output/mx6sdl/lib/libboard_sabre_ai_rev_b.a(uart4_iomux_config.o)
 .data          0x100a5748        0x0 /home/leon/git/swp-report/iMX6_Platform_SDK/output/mx6sdl/lib/libboard_sabre_ai_rev_b.a(usdhc1_iomux_config.o)
 .data          0x100a5748        0x0 /home/leon/git/swp-report/iMX6_Platform_SDK/output/mx6sdl/lib/libboard_sabre_ai_rev_b.a(usdhc3_iomux_config.o)
 .data          0x100a5748        0x0 /home/leon/git/swp-report/iMX6_Platform_SDK/output/mx6sdl/lib/libboard_sabre_ai_rev_b.a(wdog1_iomux_config.o)
 .data          0x100a5748        0x0 /home/leon/git/swp-report/iMX6_Platform_SDK/output/mx6sdl/lib/libboard_sabre_ai_rev_b.a(audmux_iomux_config.o)
 .data          0x100a5748        0x0 /home/leon/git/swp-report/iMX6_Platform_SDK/output/mx6sdl/lib/libboard_sabre_ai_rev_b.a(ccm_iomux_config.o)
 .data          0x100a5748        0x0 /home/leon/git/swp-report/iMX6_Platform_SDK/output/mx6sdl/lib/libboard_sabre_ai_rev_b.a(ecspi1_iomux_config.o)
 .data          0x100a5748        0x0 /home/leon/git/swp-report/iMX6_Platform_SDK/output/mx6sdl/lib/libboard_sabre_ai_rev_b.a(eim_iomux_config.o)
 .data          0x100a5748        0x0 /home/leon/git/swp-report/iMX6_Platform_SDK/output/mx6sdl/lib/libboard_sabre_ai_rev_b.a(enet_iomux_config.o)
 .data          0x100a5748        0x0 /home/leon/git/swp-report/iMX6_Platform_SDK/output/mx6sdl/lib/libboard_sabre_ai_rev_b.a(esai_iomux_config.o)
 .data          0x100a5748        0x0 /home/leon/git/swp-report/iMX6_Platform_SDK/output/mx6sdl/lib/libboard_sabre_ai_rev_b.a(flexcan1_iomux_config.o)
 .data          0x100a5748        0x0 /home/leon/git/swp-report/iMX6_Platform_SDK/output/mx6sdl/lib/libboard_sabre_ai_rev_b.a(flexcan2_iomux_config.o)
 .data          0x100a5748        0x0 /home/leon/git/swp-report/iMX6_Platform_SDK/output/mx6sdl/lib/libboard_sabre_ai_rev_b.a(gpio1_iomux_config.o)
 .data          0x100a5748        0x0 /home/leon/git/swp-report/iMX6_Platform_SDK/output/mx6sdl/lib/libboard_sabre_ai_rev_b.a(gpio2_iomux_config.o)
 .data          0x100a5748        0x0 /home/leon/git/swp-report/iMX6_Platform_SDK/output/mx6sdl/lib/libboard_sabre_ai_rev_b.a(gpio4_iomux_config.o)
 .data          0x100a5748        0x0 /home/leon/git/swp-report/iMX6_Platform_SDK/output/mx6sdl/lib/libboard_sabre_ai_rev_b.a(gpio5_iomux_config.o)
 .data          0x100a5748        0x0 /home/leon/git/swp-report/iMX6_Platform_SDK/output/mx6sdl/lib/libboard_sabre_ai_rev_b.a(gpio6_iomux_config.o)
 .data          0x100a5748        0x0 /home/leon/git/swp-report/iMX6_Platform_SDK/output/mx6sdl/lib/libboard_sabre_ai_rev_b.a(gpmi_iomux_config.o)
 .data          0x100a5748        0x0 /home/leon/git/swp-report/iMX6_Platform_SDK/output/mx6sdl/lib/libboard_sabre_ai_rev_b.a(i2c2_iomux_config.o)
 .data          0x100a5748        0x0 /home/leon/git/swp-report/iMX6_Platform_SDK/output/mx6sdl/sdk_unit_test/sabre_ai_rev_b/libsdk_unit_test.a(gic_test.o)
 .data          0x100a5748        0x0 /home/leon/git/swp-report/iMX6_Platform_SDK/output/mx6sdl/sdk_unit_test/sabre_ai_rev_b/libsdk_unit_test.a(cpu_wp_test.o)
 .data          0x100a5748        0x0 /home/leon/git/swp-report/iMX6_Platform_SDK/output/mx6sdl/sdk_unit_test/sabre_ai_rev_b/libsdk_unit_test.a(multicore_test.o)
 .data          0x100a5748        0x0 /home/leon/git/swp-report/iMX6_Platform_SDK/output/mx6sdl/sdk_unit_test/sabre_ai_rev_b/libsdk_unit_test.a(ocotp_test.o)
 .data          0x100a5748        0x0 /home/leon/git/swp-report/iMX6_Platform_SDK/output/mx6sdl/sdk_unit_test/sabre_ai_rev_b/libsdk_unit_test.a(i2c_test.o)
 .data          0x100a5748       0x18 /home/leon/git/swp-report/iMX6_Platform_SDK/output/mx6sdl/sdk_unit_test/sabre_ai_rev_b/libsdk_unit_test.a(imx6_i2c_device.o)
 .data          0x100a5760        0x0 /home/leon/git/swp-report/iMX6_Platform_SDK/output/mx6sdl/sdk_unit_test/sabre_ai_rev_b/libsdk_unit_test.a(snvs_rtc_test.o)
 .data          0x100a5760        0x0 /home/leon/git/swp-report/iMX6_Platform_SDK/output/mx6sdl/sdk_unit_test/sabre_ai_rev_b/libsdk_unit_test.a(snvs_srtc_test.o)
 .data          0x100a5760        0x0 /home/leon/git/swp-report/iMX6_Platform_SDK/output/mx6sdl/sdk_unit_test/sabre_ai_rev_b/libsdk_unit_test.a(tempmon_test.o)
 .data          0x100a5760       0x28 /home/leon/git/swp-report/iMX6_Platform_SDK/output/mx6sdl/sdk_unit_test/sabre_ai_rev_b/libsdk_unit_test.a(sdma_test.o)
 .data          0x100a5788        0x0 /home/leon/git/swp-report/iMX6_Platform_SDK/output/mx6sdl/sdk_unit_test/sabre_ai_rev_b/libsdk_unit_test.a(spi_lpb.o)
 .data          0x100a5788        0x8 /home/leon/git/swp-report/iMX6_Platform_SDK/output/mx6sdl/sdk_unit_test/sabre_ai_rev_b/libsdk_unit_test.a(uart_loopback.o)
 .data          0x100a5790        0x4 /home/leon/git/swp-report/iMX6_Platform_SDK/output/mx6sdl/sdk_unit_test/sabre_ai_rev_b/libsdk_unit_test.a(epit_test.o)
 .data          0x100a5794        0x0 /home/leon/git/swp-report/iMX6_Platform_SDK/output/mx6sdl/sdk_unit_test/sabre_ai_rev_b/libsdk_unit_test.a(gpt_test.o)
 .data          0x100a5794        0x0 /home/leon/git/swp-report/iMX6_Platform_SDK/output/mx6sdl/sdk_unit_test/sabre_ai_rev_b/libsdk_unit_test.a(timer_test.o)
 .data          0x100a5794        0x4 /home/leon/git/swp-report/iMX6_Platform_SDK/output/mx6sdl/sdk_unit_test/sabre_ai_rev_b/libsdk_unit_test.a(uart_test.o)
 .data          0x100a5798       0x68 /home/leon/git/swp-report/iMX6_Platform_SDK/output/mx6sdl/sdk_unit_test/sabre_ai_rev_b/libsdk_unit_test.a(usdhc_test.o)
 .data          0x100a5800        0x8 /home/leon/git/swp-report/iMX6_Platform_SDK/output/mx6sdl/sdk_unit_test/sabre_ai_rev_b/libsdk_unit_test.a(pwm_test.o)
 .data          0x100a5808        0x0 /home/leon/git/swp-report/iMX6_Platform_SDK/output/mx6sdl/sdk_unit_test/sabre_ai_rev_b/libsdk_unit_test.a(watchdog_test.o)
 .data          0x100a5808        0x0 /home/leon/git/swp-report/iMX6_Platform_SDK/output/mx6sdl/sdk_unit_test/sabre_ai_rev_b/libsdk_unit_test.a(hdmi_test.o)
 .data          0x100a5808        0x0 /home/leon/git/swp-report/iMX6_Platform_SDK/output/mx6sdl/sdk_unit_test/sabre_ai_rev_b/libsdk_unit_test.a(ips_display.o)
 .data          0x100a5808       0x28 /home/leon/git/swp-report/iMX6_Platform_SDK/output/mx6sdl/sdk_unit_test/sabre_ai_rev_b/libsdk_unit_test.a(ips_test.o)
 .data          0x100a5830        0x0 /home/leon/git/swp-report/iMX6_Platform_SDK/output/mx6sdl/sdk_unit_test/sabre_ai_rev_b/libsdk_unit_test.a(ipu_image.o)
 .data          0x100a5830       0x10 /home/leon/git/swp-report/iMX6_Platform_SDK/output/mx6sdl/sdk_unit_test/sabre_ai_rev_b/libsdk_unit_test.a(mipi_test.o)
 .data          0x100a5840        0x8 /home/leon/git/swp-report/iMX6_Platform_SDK/output/mx6sdl/sdk_unit_test/sabre_ai_rev_b/libsdk_unit_test.a(can_test.o)
                0x100a5840                can1_port
                0x100a5844                can2_port
 .data          0x100a5848       0x24 /home/leon/git/swp-report/iMX6_Platform_SDK/output/mx6sdl/sdk_unit_test/sabre_ai_rev_b/libsdk_unit_test.a(usb_test.o)
 .data          0x100a586c        0x0 /home/leon/git/swp-report/iMX6_Platform_SDK/output/mx6sdl/sdk_unit_test/sabre_ai_rev_b/libsdk_unit_test.a(eim_test.o)
 .data          0x100a586c        0x4 /home/leon/git/swp-report/iMX6_Platform_SDK/output/mx6sdl/sdk_unit_test/sabre_ai_rev_b/libsdk_unit_test.a(pcie_test_rc.o)
                0x100a586c                res_num
 .data          0x100a5870        0xc /home/leon/git/swp-report/iMX6_Platform_SDK/output/mx6sdl/sdk_unit_test/sabre_ai_rev_b/libsdk_unit_test.a(spi_test.o)
 .data          0x100a587c       0x10 /home/leon/git/swp-report/iMX6_Platform_SDK/output/mx6sdl/sdk_unit_test/sabre_ai_rev_b/libsdk_unit_test.a(camera_test.o)
 .data          0x100a588c        0x0 /home/leon/git/swp-report/iMX6_Platform_SDK/output/mx6sdl/sdk_unit_test/sabre_ai_rev_b/libsdk_unit_test.a(csi_test_mode.o)
 .data          0x100a588c        0x0 /home/leon/git/swp-report/iMX6_Platform_SDK/output/mx6sdl/sdk_unit_test/sabre_ai_rev_b/libsdk_unit_test.a(accelerometer_test.o)
 .data          0x100a588c       0x10 /home/leon/git/swp-report/iMX6_Platform_SDK/output/mx6sdl/sdk_unit_test/sabre_ai_rev_b/libsdk_unit_test.a(at24cxx.o)
 .data          0x100a589c        0x0 /home/leon/git/swp-report/iMX6_Platform_SDK/output/mx6sdl/sdk_unit_test/sabre_ai_rev_b/libsdk_unit_test.a(mem_2_mem.o)
 .data          0x100a589c        0x0 /home/leon/git/swp-report/iMX6_Platform_SDK/output/mx6sdl/sdk_unit_test/sabre_ai_rev_b/libsdk_unit_test.a(pwm_output.o)
 .data          0x100a589c        0x0 /home/leon/git/swp-report/iMX6_Platform_SDK/output/mx6sdl/sdk_unit_test/sabre_ai_rev_b/libsdk_unit_test.a(init_dma_data.o)
 .data          0x100a589c        0x0 /home/leon/git/swp-report/iMX6_Platform_SDK/output/mx6sdl/sdk_unit_test/sabre_ai_rev_b/libsdk_unit_test.a(ips_combiner.o)
 .data          0x100a589c        0x0 /home/leon/git/swp-report/iMX6_Platform_SDK/output/mx6sdl/sdk_unit_test/sabre_ai_rev_b/libsdk_unit_test.a(ips_csc.o)
 .data          0x100a589c        0x0 /home/leon/git/swp-report/iMX6_Platform_SDK/output/mx6sdl/sdk_unit_test/sabre_ai_rev_b/libsdk_unit_test.a(ips_resize.o)
 .data          0x100a589c        0x0 /home/leon/git/swp-report/iMX6_Platform_SDK/output/mx6sdl/sdk_unit_test/sabre_ai_rev_b/libsdk_unit_test.a(ips_rotate.o)
 .data          0x100a589c        0x0 /home/leon/git/swp-report/iMX6_Platform_SDK/output/mx6sdl/sdk_unit_test/sabre_ai_rev_b/libsdk_unit_test.a(mipi_csi2_test.o)
 .data          0x100a589c        0x0 /home/leon/git/swp-report/iMX6_Platform_SDK/output/mx6sdl/sdk_unit_test/sabre_ai_rev_b/libsdk_unit_test.a(mipi_dsi_test.o)
 .data          0x100a589c       0x10 /home/leon/git/swp-report/iMX6_Platform_SDK/output/mx6sdl/sdk_unit_test/sabre_ai_rev_b/libsdk_unit_test.a(usb0_device_mouse_test.o)
                0x100a589c                qf_Descriptor
 .data          0x100a58ac        0x0 /home/leon/git/swp-report/iMX6_Platform_SDK/output/mx6sdl/sdk_unit_test/sabre_ai_rev_b/libsdk_unit_test.a(usb0_host_test.o)
 .data          0x100a58ac       0x28 /home/leon/git/swp-report/iMX6_Platform_SDK/output/mx6sdl/sdk_unit_test/sabre_ai_rev_b/libsdk_unit_test.a(usb0_host_testmodes_test.o)
 .data          0x100a58d4        0x0 /home/leon/git/swp-report/iMX6_Platform_SDK/output/mx6sdl/sdk_unit_test/sabre_ai_rev_b/libsdk_unit_test.a(cfi_flash_api.o)
 .data          0x100a58d4        0x0 /home/leon/git/swp-report/iMX6_Platform_SDK/output/mx6sdl/sdk_unit_test/sabre_ai_rev_b/libsdk_unit_test.a(cfi_flash_driver.o)
 .data          0x100a58d4        0x0 /home/leon/git/swp-report/iMX6_Platform_SDK/output/mx6sdl/sdk_unit_test/sabre_ai_rev_b/libsdk_unit_test.a(spi_nor_numonyx.o)
 .data          0x100a58d4        0x0 /home/leon/git/swp-report/iMX6_Platform_SDK/output/mx6sdl/sdk_unit_test/sabre_ai_rev_b/libsdk_unit_test.a(adv7180_capture.o)
 .data          0x100a58d4        0x0 /home/leon/riotboard/arm-2012.09/bin/../arm-none-eabi/lib//libm.a(lib_a-sf_cos.o)
 .data          0x100a58d4        0x0 /home/leon/riotboard/arm-2012.09/bin/../arm-none-eabi/lib//libm.a(lib_a-sf_fabs.o)
 .data          0x100a58d4        0x0 /home/leon/riotboard/arm-2012.09/bin/../arm-none-eabi/lib//libm.a(lib_a-sf_modf.o)
 .data          0x100a58d4        0x0 /home/leon/riotboard/arm-2012.09/bin/../arm-none-eabi/lib//libm.a(lib_a-sf_sin.o)
 .data          0x100a58d4        0x0 /home/leon/riotboard/arm-2012.09/bin/../arm-none-eabi/lib//libm.a(lib_a-ef_rem_pio2.o)
 .data          0x100a58d4        0x0 /home/leon/riotboard/arm-2012.09/bin/../arm-none-eabi/lib//libm.a(lib_a-kf_cos.o)
 .data          0x100a58d4        0x0 /home/leon/riotboard/arm-2012.09/bin/../arm-none-eabi/lib//libm.a(lib_a-kf_rem_pio2.o)
 .data          0x100a58d4        0x0 /home/leon/riotboard/arm-2012.09/bin/../arm-none-eabi/lib//libm.a(lib_a-kf_sin.o)
 .data          0x100a58d4        0x0 /home/leon/riotboard/arm-2012.09/bin/../arm-none-eabi/lib//libm.a(lib_a-sf_floor.o)
 .data          0x100a58d4        0x0 /home/leon/riotboard/arm-2012.09/bin/../arm-none-eabi/lib//libm.a(lib_a-sf_scalbn.o)
 .data          0x100a58d4        0x0 /home/leon/riotboard/arm-2012.09/bin/../arm-none-eabi/lib//libm.a(lib_a-sf_copysign.o)
 .data          0x100a58d4        0x0 /home/leon/riotboard/arm-2012.09/bin/../arm-none-eabi/lib//libc.a(lib_a-assert.o)
 .data          0x100a58d4        0x0 /home/leon/riotboard/arm-2012.09/bin/../arm-none-eabi/lib//libc.a(lib_a-bzero.o)
 .data          0x100a58d4        0x0 /home/leon/riotboard/arm-2012.09/bin/../arm-none-eabi/lib//libc.a(lib_a-fflush.o)
 .data          0x100a58d4        0x0 /home/leon/riotboard/arm-2012.09/bin/../arm-none-eabi/lib//libc.a(lib_a-findfp.o)
 .data          0x100a58d4        0x0 /home/leon/riotboard/arm-2012.09/bin/../arm-none-eabi/lib//libc.a(lib_a-fiprintf.o)
 .data          0x100a58d4        0x0 /home/leon/riotboard/arm-2012.09/bin/../arm-none-eabi/lib//libc.a(lib_a-fputc.o)
 .data          0x100a58d4        0x0 /home/leon/riotboard/arm-2012.09/bin/../arm-none-eabi/lib//libc.a(lib_a-fputs.o)
 .data          0x100a58d4        0x0 /home/leon/riotboard/arm-2012.09/bin/../arm-none-eabi/lib//libc.a(lib_a-freer.o)
 .data          0x100a58d4        0x0 /home/leon/riotboard/arm-2012.09/bin/../arm-none-eabi/lib//libc.a(lib_a-fvwrite.o)
 .data          0x100a58d4        0x0 /home/leon/riotboard/arm-2012.09/bin/../arm-none-eabi/lib//libc.a(lib_a-fwalk.o)
 *fill*         0x100a58d4        0x4 
 .data          0x100a58d8      0x430 /home/leon/riotboard/arm-2012.09/bin/../arm-none-eabi/lib//libc.a(lib_a-impure.o)
                0x100a58d8                _impure_ptr
 .data          0x100a5d08        0x0 /home/leon/riotboard/arm-2012.09/bin/../arm-none-eabi/lib//libc.a(lib_a-init.o)
 .data          0x100a5d08        0x0 /home/leon/riotboard/arm-2012.09/bin/../arm-none-eabi/lib//libc.a(lib_a-malloc.o)
 .data          0x100a5d08      0x410 /home/leon/riotboard/arm-2012.09/bin/../arm-none-eabi/lib//libc.a(lib_a-mallocr.o)
                0x100a5d08                __malloc_av_
                0x100a6110                __malloc_sbrk_base
                0x100a6114                __malloc_trim_threshold
 .data          0x100a6118        0x0 /home/leon/riotboard/arm-2012.09/bin/../arm-none-eabi/lib//libc.a(lib_a-memchr.o)
 .data          0x100a6118        0x0 /home/leon/riotboard/arm-2012.09/bin/../arm-none-eabi/lib//libc.a(lib_a-memcpy.o)
 .data          0x100a6118        0x0 /home/leon/riotboard/arm-2012.09/bin/../arm-none-eabi/lib//libc.a(lib_a-memmove.o)
 .data          0x100a6118        0x0 /home/leon/riotboard/arm-2012.09/bin/../arm-none-eabi/lib//libc.a(lib_a-memset.o)
 .data          0x100a6118        0x0 /home/leon/riotboard/arm-2012.09/bin/../arm-none-eabi/lib//libc.a(lib_a-mlock.o)
 .data          0x100a6118        0x0 /home/leon/riotboard/arm-2012.09/bin/../arm-none-eabi/lib//libc.a(lib_a-printf.o)
 .data          0x100a6118        0x0 /home/leon/riotboard/arm-2012.09/bin/../arm-none-eabi/lib//libc.a(lib_a-putc.o)
 .data          0x100a6118        0x0 /home/leon/riotboard/arm-2012.09/bin/../arm-none-eabi/lib//libc.a(lib_a-puts.o)
 .data          0x100a6118        0x0 /home/leon/riotboard/arm-2012.09/bin/../arm-none-eabi/lib//libc.a(lib_a-realloc.o)
 .data          0x100a6118        0x0 /home/leon/riotboard/arm-2012.09/bin/../arm-none-eabi/lib//libc.a(lib_a-reallocr.o)
 .data          0x100a6118        0x0 /home/leon/riotboard/arm-2012.09/bin/../arm-none-eabi/lib//libc.a(lib_a-rget.o)
 .data          0x100a6118        0x0 /home/leon/riotboard/arm-2012.09/bin/../arm-none-eabi/lib//libc.a(lib_a-sbrkr.o)
 .data          0x100a6118        0x0 /home/leon/riotboard/arm-2012.09/bin/../arm-none-eabi/lib//libc.a(lib_a-sprintf.o)
 .data          0x100a6118        0x0 /home/leon/riotboard/arm-2012.09/bin/../arm-none-eabi/lib//libc.a(lib_a-stdio.o)
 .data          0x100a6118        0x0 /home/leon/riotboard/arm-2012.09/bin/../arm-none-eabi/lib//libc.a(lib_a-strlen.o)
 .data          0x100a6118        0x0 /home/leon/riotboard/arm-2012.09/bin/../arm-none-eabi/lib//libc.a(lib_a-strncasecmp.o)
 .data          0x100a6118        0x0 /home/leon/riotboard/arm-2012.09/bin/../arm-none-eabi/lib//libc.a(lib_a-svfprintf.o)
 .data          0x100a6118        0x0 /home/leon/riotboard/arm-2012.09/bin/../arm-none-eabi/lib//libc.a(lib_a-vfiprintf.o)
 .data          0x100a6118        0x0 /home/leon/riotboard/arm-2012.09/bin/../arm-none-eabi/lib//libc.a(lib_a-vfprintf.o)
 .data          0x100a6118        0x0 /home/leon/riotboard/arm-2012.09/bin/../arm-none-eabi/lib//libc.a(lib_a-vprintf.o)
 .data          0x100a6118        0x0 /home/leon/riotboard/arm-2012.09/bin/../arm-none-eabi/lib//libc.a(lib_a-wbuf.o)
 .data          0x100a6118        0x0 /home/leon/riotboard/arm-2012.09/bin/../arm-none-eabi/lib//libc.a(lib_a-writer.o)
 .data          0x100a6118        0x0 /home/leon/riotboard/arm-2012.09/bin/../arm-none-eabi/lib//libc.a(lib_a-wsetup.o)
 .data          0x100a6118        0x0 /home/leon/riotboard/arm-2012.09/bin/../arm-none-eabi/lib//libc.a(lib_a-abort.o)
 .data          0x100a6118        0x0 /home/leon/riotboard/arm-2012.09/bin/../arm-none-eabi/lib//libc.a(lib_a-closer.o)
 .data          0x100a6118        0x4 /home/leon/riotboard/arm-2012.09/bin/../arm-none-eabi/lib//libc.a(lib_a-ctype_.o)
                0x100a6118                __ctype_ptr__
 .data          0x100a611c        0x0 /home/leon/riotboard/arm-2012.09/bin/../arm-none-eabi/lib//libc.a(lib_a-dtoa.o)
 .data          0x100a611c        0x0 /home/leon/riotboard/arm-2012.09/bin/../arm-none-eabi/lib//libc.a(lib_a-fclose.o)
 .data          0x100a611c        0x0 /home/leon/riotboard/arm-2012.09/bin/../arm-none-eabi/lib//libc.a(lib_a-fputwc.o)
 .data          0x100a611c       0x7c /home/leon/riotboard/arm-2012.09/bin/../arm-none-eabi/lib//libc.a(lib_a-locale.o)
                0x100a613c                __mb_cur_max
 .data          0x100a6198        0x0 /home/leon/riotboard/arm-2012.09/bin/../arm-none-eabi/lib//libc.a(lib_a-lseekr.o)
 .data          0x100a6198        0x0 /home/leon/riotboard/arm-2012.09/bin/../arm-none-eabi/lib//libc.a(lib_a-makebuf.o)
 .data          0x100a6198        0x0 /home/leon/riotboard/arm-2012.09/bin/../arm-none-eabi/lib//libc.a(lib_a-mprec.o)
 .data          0x100a6198        0x0 /home/leon/riotboard/arm-2012.09/bin/../arm-none-eabi/lib//libc.a(lib_a-readr.o)
 .data          0x100a6198        0x0 /home/leon/riotboard/arm-2012.09/bin/../arm-none-eabi/lib//libc.a(lib_a-reent.o)
 .data          0x100a6198        0x0 /home/leon/riotboard/arm-2012.09/bin/../arm-none-eabi/lib//libc.a(lib_a-refill.o)
 .data          0x100a6198        0x0 /home/leon/riotboard/arm-2012.09/bin/../arm-none-eabi/lib//libc.a(lib_a-s_fpclassify.o)
 .data          0x100a6198        0x0 /home/leon/riotboard/arm-2012.09/bin/../arm-none-eabi/lib//libc.a(lib_a-signal.o)
 .data          0x100a6198        0x0 /home/leon/riotboard/arm-2012.09/bin/../arm-none-eabi/lib//libc.a(lib_a-signalr.o)
 .data          0x100a6198        0x0 /home/leon/riotboard/arm-2012.09/bin/../arm-none-eabi/lib//libc.a(lib_a-strcmp.o)
 .data          0x100a6198        0x0 /home/leon/riotboard/arm-2012.09/bin/../arm-none-eabi/lib//libc.a(lib_a-svfiprintf.o)
 .data          0x100a6198        0x0 /home/leon/riotboard/arm-2012.09/bin/../arm-none-eabi/lib//libc.a(lib_a-wcrtomb.o)
 .data          0x100a6198        0x4 /home/leon/riotboard/arm-2012.09/bin/../arm-none-eabi/lib//libc.a(lib_a-wctomb_r.o)
                0x100a6198                __wctomb
 .data          0x100a619c        0x0 /home/leon/riotboard/arm-2012.09/bin/../arm-none-eabi/lib//libc.a(lib_a-callocr.o)
 .data          0x100a619c        0x0 /home/leon/riotboard/arm-2012.09/bin/../arm-none-eabi/lib//libc.a(lib_a-fstatr.o)
 .data          0x100a619c        0x0 /home/leon/riotboard/arm-2012.09/bin/../arm-none-eabi/lib//libc.a(lib_a-isattyr.o)
 .data          0x100a619c        0x0 /home/leon/riotboard/arm-2012.09/bin/../lib/gcc/arm-none-eabi/4.7.2//libgcc.a(_udivsi3.o)
 .data          0x100a619c        0x0 /home/leon/riotboard/arm-2012.09/bin/../lib/gcc/arm-none-eabi/4.7.2//libgcc.a(_divsi3.o)
 .data          0x100a619c        0x0 /home/leon/riotboard/arm-2012.09/bin/../lib/gcc/arm-none-eabi/4.7.2//libgcc.a(_dvmd_tls.o)
 .data          0x100a619c        0x0 /home/leon/riotboard/arm-2012.09/bin/../lib/gcc/arm-none-eabi/4.7.2//libgcc.a(_arm_addsubdf3.o)
 .data          0x100a619c        0x0 /home/leon/riotboard/arm-2012.09/bin/../lib/gcc/arm-none-eabi/4.7.2//libgcc.a(_arm_muldivdf3.o)
 .data          0x100a619c        0x0 /home/leon/riotboard/arm-2012.09/bin/../lib/gcc/arm-none-eabi/4.7.2//libgcc.a(_arm_cmpdf2.o)
 .data          0x100a619c        0x0 /home/leon/riotboard/arm-2012.09/bin/../lib/gcc/arm-none-eabi/4.7.2//libgcc.a(_arm_fixdfsi.o)
 .data          0x100a619c        0x0 /home/leon/riotboard/arm-2012.09/bin/../lib/gcc/arm-none-eabi/4.7.2//libgcc.a(_arm_addsubsf3.o)
 .data          0x100a619c        0x0 /home/leon/riotboard/arm-2012.09/bin/../lib/gcc/arm-none-eabi/4.7.2//libgcc.a(_arm_muldivsf3.o)
 .data          0x100a619c        0x0 /home/leon/riotboard/arm-2012.09/bin/../lib/gcc/arm-none-eabi/4.7.2//libgcc.a(_arm_cmpsf2.o)
 .data          0x100a619c        0x0 /home/leon/riotboard/arm-2012.09/bin/../lib/gcc/arm-none-eabi/4.7.2//libgcc.a(_arm_fixsfsi.o)
 .data          0x100a619c        0x0 /home/leon/riotboard/arm-2012.09/bin/../lib/gcc/arm-none-eabi/4.7.2//libgcc.a(_aeabi_uldivmod.o)
 .data          0x100a619c        0x0 /home/leon/riotboard/arm-2012.09/bin/../lib/gcc/arm-none-eabi/4.7.2//libgcc.a(bpabi.o)
 .data          0x100a619c        0x0 /home/leon/riotboard/arm-2012.09/bin/../lib/gcc/arm-none-eabi/4.7.2//libgcc.a(_divdi3.o)
 .data          0x100a619c        0x0 /home/leon/riotboard/arm-2012.09/bin/../lib/gcc/arm-none-eabi/4.7.2//libgcc.a(_udivdi3.o)
 .data          0x100a619c        0x0 /home/leon/riotboard/arm-2012.09/bin/../lib/gcc/arm-none-eabi/4.7.2//libgcc.a(_clzsi2.o)
 .data          0x100a619c        0x0 /home/leon/git/swp-report/iMX6_Platform_SDK/output/mx6sdl/lib/libsdk.a(max7310.o)
 .data          0x100a619c        0x0 /home/leon/git/swp-report/iMX6_Platform_SDK/output/mx6sdl/lib/libsdk.a(profile.o)
 .data          0x100a619c        0x0 /home/leon/git/swp-report/iMX6_Platform_SDK/output/mx6sdl/lib/libsdk.a(armv7_cache.o)
 .data          0x100a619c        0x4 /home/leon/git/swp-report/iMX6_Platform_SDK/output/mx6sdl/lib/libsdk.a(runtime_support.o)
                0x100a619c                environ
 .data          0x100a61a0        0x0 /home/leon/git/swp-report/iMX6_Platform_SDK/output/mx6sdl/lib/libsdk.a(mma8451.o)
 .data          0x100a61a0        0x0 /home/leon/git/swp-report/iMX6_Platform_SDK/output/mx6sdl/lib/libsdk.a(cpu_get_cores.o)
 .data          0x100a61a0        0x0 /home/leon/git/swp-report/iMX6_Platform_SDK/output/mx6sdl/lib/libsdk.a(cpu_multicore.o)
 .data          0x100a61a0       0x40 /home/leon/git/swp-report/iMX6_Platform_SDK/output/mx6sdl/lib/libsdk.a(cpu_workpoint.o)
 .data          0x100a61e0      0x1f0 /home/leon/git/swp-report/iMX6_Platform_SDK/output/mx6sdl/lib/libsdk.a(eim.o)
 .data          0x100a63d0       0xd8 /home/leon/git/swp-report/iMX6_Platform_SDK/output/mx6sdl/lib/libsdk.a(can.o)
 .data          0x100a64a8        0x0 /home/leon/git/swp-report/iMX6_Platform_SDK/output/mx6sdl/lib/libsdk.a(gpio.o)
 .data          0x100a64a8        0x0 /home/leon/git/swp-report/iMX6_Platform_SDK/output/mx6sdl/lib/libsdk.a(imx6sdl_gpio_map.o)
 .data          0x100a64a8        0x0 /home/leon/git/swp-report/iMX6_Platform_SDK/output/mx6sdl/lib/libsdk.a(hdmi_tx.o)
 .data          0x100a64a8        0x0 /home/leon/git/swp-report/iMX6_Platform_SDK/output/mx6sdl/lib/libsdk.a(hdmi_tx_audio.o)
 .data          0x100a64a8        0x0 /home/leon/git/swp-report/iMX6_Platform_SDK/output/mx6sdl/lib/libsdk.a(hdmi_tx_phy.o)
 .data          0x100a64a8        0x0 /home/leon/git/swp-report/iMX6_Platform_SDK/output/mx6sdl/lib/libsdk.a(imx_i2c.o)
 .data          0x100a64a8        0x0 /home/leon/git/swp-report/iMX6_Platform_SDK/output/mx6sdl/lib/libsdk.a(imx_i2c_slave.o)
 .data          0x100a64a8      0x368 /home/leon/git/swp-report/iMX6_Platform_SDK/output/mx6sdl/lib/libsdk.a(ips_disp_panel.o)
                0x100a64a8                disp_dev_list
                0x100a680c                num_of_panels
 .data          0x100a6810        0x0 /home/leon/git/swp-report/iMX6_Platform_SDK/output/mx6sdl/lib/libsdk.a(ipu_common.o)
 .data          0x100a6810        0x0 /home/leon/git/swp-report/iMX6_Platform_SDK/output/mx6sdl/lib/libsdk.a(ipu_csi.o)
 .data          0x100a6810        0x0 /home/leon/git/swp-report/iMX6_Platform_SDK/output/mx6sdl/lib/libsdk.a(ipu_dc.o)
 .data          0x100a6810        0x0 /home/leon/git/swp-report/iMX6_Platform_SDK/output/mx6sdl/lib/libsdk.a(ipu_di.o)
 .data          0x100a6810        0x0 /home/leon/git/swp-report/iMX6_Platform_SDK/output/mx6sdl/lib/libsdk.a(ipu_dmfc.o)
 .data          0x100a6810        0x0 /home/leon/git/swp-report/iMX6_Platform_SDK/output/mx6sdl/lib/libsdk.a(ipu_dp.o)
 .data          0x100a6810        0x0 /home/leon/git/swp-report/iMX6_Platform_SDK/output/mx6sdl/lib/libsdk.a(ipu_ic.o)
 .data          0x100a6810        0x0 /home/leon/git/swp-report/iMX6_Platform_SDK/output/mx6sdl/lib/libsdk.a(ipu_idmac.o)
 .data          0x100a6810        0x0 /home/leon/git/swp-report/iMX6_Platform_SDK/output/mx6sdl/lib/libsdk.a(ipu_vdi.o)
 .data          0x100a6810        0x0 /home/leon/git/swp-report/iMX6_Platform_SDK/output/mx6sdl/lib/libsdk.a(ldb.o)
 .data          0x100a6810        0x0 /home/leon/git/swp-report/iMX6_Platform_SDK/output/mx6sdl/lib/libsdk.a(mipi_csi2_common.o)
 .data          0x100a6810        0x0 /home/leon/git/swp-report/iMX6_Platform_SDK/output/mx6sdl/lib/libsdk.a(mipi_dsi_common.o)
 .data          0x100a6810     0x24c0 /home/leon/git/swp-report/iMX6_Platform_SDK/output/mx6sdl/lib/libsdk.a(ov5640_mipi_fm.o)
                0x100a6810                ov5640_mipi_VGA_640x480_30fps_YUV422_fm
                0x100a7674                ov5640_mipi_VGA_640x480_15fps_YUV422_fm
                0x100a84d8                ov5640_mipi_480x480_30fps_RGB565_fm
                0x100a8cb8                mipi_cam_modes
 .data          0x100a8cd0        0x0 /home/leon/git/swp-report/iMX6_Platform_SDK/output/mx6sdl/lib/libsdk.a(ocotp.o)
 .data          0x100a8cd0        0x0 /home/leon/git/swp-report/iMX6_Platform_SDK/output/mx6sdl/lib/libsdk.a(pcie.o)
 .data          0x100a8cd0        0x0 /home/leon/git/swp-report/iMX6_Platform_SDK/output/mx6sdl/lib/libsdk.a(pcie_phy.o)
 .data          0x100a8cd0        0x0 /home/leon/git/swp-report/iMX6_Platform_SDK/output/mx6sdl/lib/libsdk.a(pcie_prot.o)
 .data          0x100a8cd0        0x0 /home/leon/git/swp-report/iMX6_Platform_SDK/output/mx6sdl/lib/libsdk.a(pmu_driver.o)
 .data          0x100a8cd0        0x0 /home/leon/git/swp-report/iMX6_Platform_SDK/output/mx6sdl/lib/libsdk.a(pwm.o)
 .data          0x100a8cd0        0x0 /home/leon/git/swp-report/iMX6_Platform_SDK/output/mx6sdl/lib/libsdk.a(rtc.o)
 .data          0x100a8cd0        0x0 /home/leon/git/swp-report/iMX6_Platform_SDK/output/mx6sdl/lib/libsdk.a(srtc.o)
 .data          0x100a8cd0        0x0 /home/leon/git/swp-report/iMX6_Platform_SDK/output/mx6sdl/lib/libsdk.a(sdma.o)
 .data          0x100a8cd0        0x0 /home/leon/git/swp-report/iMX6_Platform_SDK/output/mx6sdl/lib/libsdk.a(sdma_script_info.o)
 .data          0x100a8cd0        0x0 /home/leon/git/swp-report/iMX6_Platform_SDK/output/mx6sdl/lib/libsdk.a(snvs.o)
 .data          0x100a8cd0        0x0 /home/leon/git/swp-report/iMX6_Platform_SDK/output/mx6sdl/lib/libsdk.a(ecspi.o)
 .data          0x100a8cd0        0x0 /home/leon/git/swp-report/iMX6_Platform_SDK/output/mx6sdl/lib/libsdk.a(tempmon.o)
 .data          0x100a8cd0        0x0 /home/leon/git/swp-report/iMX6_Platform_SDK/output/mx6sdl/lib/libsdk.a(gpt.o)
 .data          0x100a8cd0        0x0 /home/leon/git/swp-report/iMX6_Platform_SDK/output/mx6sdl/lib/libsdk.a(usb_common.o)
 .data          0x100a8cd0        0x0 /home/leon/git/swp-report/iMX6_Platform_SDK/output/mx6sdl/lib/libsdk.a(usbd_drv.o)
 .data          0x100a8cd0        0x0 /home/leon/git/swp-report/iMX6_Platform_SDK/output/mx6sdl/lib/libsdk.a(usbh_drv.o)
 .data          0x100a8cd0       0x58 /home/leon/git/swp-report/iMX6_Platform_SDK/output/mx6sdl/lib/libsdk.a(usdhc.o)
                0x100a8cd0                usdhc_device
                0x100a8d20                card_detect_test_en
                0x100a8d24                write_protect_test_en
 .data          0x100a8d28        0x0 /home/leon/git/swp-report/iMX6_Platform_SDK/output/mx6sdl/lib/libsdk.a(usdhc_host.o)
 .data          0x100a8d28        0x4 /home/leon/git/swp-report/iMX6_Platform_SDK/output/mx6sdl/lib/libsdk.a(usdhc_mmc.o)
 .data          0x100a8d2c        0x0 /home/leon/git/swp-report/iMX6_Platform_SDK/output/mx6sdl/lib/libsdk.a(usdhc_sd.o)
 .data          0x100a8d2c      0x230 /home/leon/git/swp-report/iMX6_Platform_SDK/output/mx6sdl/lib/libsdk.a(adv7180.o)
                0x100a8d2c                video_fmts
                0x100a8d80                adv7180_work_mode
 .data          0x100a8f5c        0x0 /home/leon/git/swp-report/iMX6_Platform_SDK/output/mx6sdl/lib/libsdk.a(hdmi_common.o)
 .data          0x100a8f5c        0x0 /home/leon/git/swp-report/iMX6_Platform_SDK/output/mx6sdl/lib/libsdk.a(mx6x_usb.o)
 .data          0x100a8f5c        0x1 /home/leon/git/swp-report/iMX6_Platform_SDK/output/mx6sdl/lib/libboard_sabre_ai_rev_b.a(board_camera.o)
                0x100a8f5c                g_camera_i2c_port
 .data          0x100a8f5d        0x0 /home/leon/git/swp-report/iMX6_Platform_SDK/output/mx6sdl/lib/libboard_sabre_ai_rev_b.a(board_can.o)
 .data          0x100a8f5d        0x0 /home/leon/git/swp-report/iMX6_Platform_SDK/output/mx6sdl/lib/libboard_sabre_ai_rev_b.a(board_display.o)
 .data          0x100a8f5d        0x0 /home/leon/git/swp-report/iMX6_Platform_SDK/output/mx6sdl/lib/libboard_sabre_ai_rev_b.a(board_hdmi.o)
 .data          0x100a8f5d        0x0 /home/leon/git/swp-report/iMX6_Platform_SDK/output/mx6sdl/lib/libboard_sabre_ai_rev_b.a(board_i2c.o)
 .data          0x100a8f5d        0x0 /home/leon/git/swp-report/iMX6_Platform_SDK/output/mx6sdl/lib/libboard_sabre_ai_rev_b.a(board_mipi.o)
 .data          0x100a8f5d        0x0 /home/leon/git/swp-report/iMX6_Platform_SDK/output/mx6sdl/lib/libboard_sabre_ai_rev_b.a(board_pcie.o)
 .data          0x100a8f5d        0x0 /home/leon/git/swp-report/iMX6_Platform_SDK/output/mx6sdl/lib/libboard_sabre_ai_rev_b.a(board_usb.o)
 .data          0x100a8f5d        0x0 /home/leon/git/swp-report/iMX6_Platform_SDK/output/mx6sdl/lib/libboard_sabre_ai_rev_b.a(board_usdhc.o)
 .data          0x100a8f5d        0x0 /home/leon/git/swp-report/iMX6_Platform_SDK/output/mx6sdl/lib/libboard_sabre_ai_rev_b.a(ecspi_iomux_config.o)
 .data          0x100a8f5d        0x0 /home/leon/git/swp-report/iMX6_Platform_SDK/output/mx6sdl/lib/libboard_sabre_ai_rev_b.a(flexcan_iomux_config.o)
 .data          0x100a8f5d        0x0 /home/leon/git/swp-report/iMX6_Platform_SDK/output/mx6sdl/lib/libboard_sabre_ai_rev_b.a(i2c_iomux_config.o)
 .data          0x100a8f5d        0x0 /home/leon/git/swp-report/iMX6_Platform_SDK/output/mx6sdl/lib/libboard_sabre_ai_rev_b.a(pwm_iomux_config.o)
 .data          0x100a8f5d        0x0 /home/leon/git/swp-report/iMX6_Platform_SDK/output/mx6sdl/lib/libboard_sabre_ai_rev_b.a(usdhc_iomux_config.o)
 .data          0x100a8f5d        0x0 /home/leon/riotboard/arm-2012.09/bin/../arm-none-eabi/lib//libstdc++.a(pure.o)
 .data          0x100a8f5d        0x0 /home/leon/riotboard/arm-2012.09/bin/../arm-none-eabi/lib//libstdc++.a(eh_terminate.o)
 .data          0x100a8f5d        0x0 /home/leon/riotboard/arm-2012.09/bin/../arm-none-eabi/lib//libstdc++.a(eh_unex_handler.o)
 *fill*         0x100a8f5d        0x3 
 .data._ZN10__cxxabiv120__unexpected_handlerE
                0x100a8f60        0x4 /home/leon/riotboard/arm-2012.09/bin/../arm-none-eabi/lib//libstdc++.a(eh_unex_handler.o)
                0x100a8f60                __cxxabiv1::__unexpected_handler
 .data          0x100a8f64        0x0 /home/leon/riotboard/arm-2012.09/bin/../arm-none-eabi/lib//libstdc++.a(eh_call.o)
 .data          0x100a8f64        0x0 /home/leon/riotboard/arm-2012.09/bin/../arm-none-eabi/lib//libstdc++.a(eh_throw.o)
 .data          0x100a8f64        0x0 /home/leon/riotboard/arm-2012.09/bin/../arm-none-eabi/lib//libstdc++.a(eh_arm.o)
 .data          0x100a8f64        0x0 /home/leon/riotboard/arm-2012.09/bin/../arm-none-eabi/lib//libstdc++.a(eh_exception.o)
 .data          0x100a8f64        0x0 /home/leon/riotboard/arm-2012.09/bin/../arm-none-eabi/lib//libstdc++.a(eh_alloc.o)
 .data          0x100a8f64        0x0 /home/leon/riotboard/arm-2012.09/bin/../arm-none-eabi/lib//libstdc++.a(eh_globals.o)
 .data          0x100a8f64        0x0 /home/leon/riotboard/arm-2012.09/bin/../arm-none-eabi/lib//libstdc++.a(si_class_type_info.o)
 .data          0x100a8f64        0x0 /home/leon/riotboard/arm-2012.09/bin/../arm-none-eabi/lib//libstdc++.a(eh_personality.o)
 .data          0x100a8f64        0x0 /home/leon/riotboard/arm-2012.09/bin/../arm-none-eabi/lib//libstdc++.a(eh_term_handler.o)
 .data._ZN10__cxxabiv119__terminate_handlerE
                0x100a8f64        0x4 /home/leon/riotboard/arm-2012.09/bin/../arm-none-eabi/lib//libstdc++.a(eh_term_handler.o)
                0x100a8f64                __cxxabiv1::__terminate_handler
 .data          0x100a8f68        0x0 /home/leon/riotboard/arm-2012.09/bin/../arm-none-eabi/lib//libstdc++.a(eh_catch.o)
 .data          0x100a8f68        0x0 /home/leon/riotboard/arm-2012.09/bin/../arm-none-eabi/lib//libstdc++.a(class_type_info.o)
 .data          0x100a8f68        0x0 /home/leon/riotboard/arm-2012.09/bin/../arm-none-eabi/lib//libstdc++.a(vterminate.o)
 .data          0x100a8f68        0x0 /home/leon/riotboard/arm-2012.09/bin/../arm-none-eabi/lib//libstdc++.a(cp-demangle.o)
 .data          0x100a8f68        0x0 /home/leon/riotboard/arm-2012.09/bin/../arm-none-eabi/lib//libstdc++.a(eh_type.o)
 .data          0x100a8f68        0x0 /home/leon/riotboard/arm-2012.09/bin/../arm-none-eabi/lib//libstdc++.a(del_op.o)
 .data          0x100a8f68        0x0 /home/leon/riotboard/arm-2012.09/bin/../arm-none-eabi/lib//libstdc++.a(tinfo.o)
 .data          0x100a8f68        0x0 /home/leon/riotboard/arm-2012.09/bin/../arm-none-eabi/lib//libc.a(lib_a-fwrite.o)
 .data          0x100a8f68        0x0 /home/leon/riotboard/arm-2012.09/bin/../arm-none-eabi/lib//libc.a(lib_a-memcmp.o)
 .data          0x100a8f68        0x0 /home/leon/riotboard/arm-2012.09/bin/../arm-none-eabi/lib//libc.a(lib_a-strncmp.o)
 .data          0x100a8f68        0x0 /home/leon/riotboard/arm-2012.09/bin/../arm-none-eabi/lib//libc.a(lib_a-syswrite.o)
 .data          0x100a8f68        0x0 /home/leon/riotboard/arm-2012.09/bin/../lib/gcc/arm-none-eabi/4.7.2//libgcc.a(unwind-arm.o)
 .data          0x100a8f68        0x0 /home/leon/riotboard/arm-2012.09/bin/../lib/gcc/arm-none-eabi/4.7.2//libgcc.a(libunwind.o)
 .data          0x100a8f68        0x0 /home/leon/riotboard/arm-2012.09/bin/../lib/gcc/arm-none-eabi/4.7.2//libgcc.a(pr-support.o)

.jcr            0x100a8f68        0x4
 .jcr           0x100a8f68        0x0 /home/leon/riotboard/arm-2012.09/bin/../lib/gcc/arm-none-eabi/4.7.2//crtbegin.o
 .jcr           0x100a8f68        0x4 /home/leon/riotboard/arm-2012.09/bin/../lib/gcc/arm-none-eabi/4.7.2//crtend.o

.tm_clone_table
                0x100a8f6c        0x0
 .tm_clone_table
                0x100a8f6c        0x0 /home/leon/riotboard/arm-2012.09/bin/../lib/gcc/arm-none-eabi/4.7.2//crtbegin.o
 .tm_clone_table
                0x100a8f6c        0x0 /home/leon/riotboard/arm-2012.09/bin/../lib/gcc/arm-none-eabi/4.7.2//crtend.o

.igot.plt       0x100a8f6c        0x0
 .igot.plt      0x00000000        0x0 /home/leon/riotboard/arm-2012.09/bin/../lib/gcc/arm-none-eabi/4.7.2//crtbegin.o

.hab.data       0x10400000     0x2000
                0x10400000                __hab_data = .
                0x10402000                . = (. + 0x2000)
 *fill*         0x10400000     0x2000 
                0x10402000                . = ALIGN (0x20)
                0x10402000                __hab_data_end = .
                0x00402000                _image_size = (. - _start_image_add)

.bss            0x10402000    0x46644
                0x10402000                __bss_start__ = .
 *(.shbss)
 *(.bss .bss.* .gnu.linkonce.b.*)
 .bss           0x10402000       0x1c /home/leon/riotboard/arm-2012.09/bin/../lib/gcc/arm-none-eabi/4.7.2//crtbegin.o
 .bss           0x1040201c        0x0 /home/leon/riotboard/arm-2012.09/bin/../lib/gcc/arm-none-eabi/4.7.2//crti.o
 .bss           0x1040201c        0x0 /home/leon/riotboard/arm-2012.09/bin/../lib/gcc/arm-none-eabi/4.7.2//crtend.o
 .bss           0x1040201c        0x0 /home/leon/riotboard/arm-2012.09/bin/../lib/gcc/arm-none-eabi/4.7.2//crtn.o
 .bss           0x1040201c        0x0 /home/leon/git/swp-report/iMX6_Platform_SDK/output/mx6sdl/sdk_unit_test/sabre_ai_rev_b/obj/apps/common/ivt.o
 .bss           0x1040201c        0x0 /home/leon/git/swp-report/iMX6_Platform_SDK/output/mx6sdl/sdk_unit_test/sabre_ai_rev_b/obj/apps/common/platform_init.o
 .bss           0x1040201c        0x0 /home/leon/git/swp-report/iMX6_Platform_SDK/output/mx6sdl/sdk_unit_test/sabre_ai_rev_b/obj/apps/common/print_clock_info.o
 .bss           0x1040201c        0x0 /home/leon/git/swp-report/iMX6_Platform_SDK/output/mx6sdl/sdk_unit_test/sabre_ai_rev_b/obj/apps/common/print_version.o
 .bss           0x1040201c        0x0 /home/leon/git/swp-report/iMX6_Platform_SDK/output/mx6sdl/sdk_unit_test/sabre_ai_rev_b/obj/apps/sdk_unit_test/src/all_test.o
 .bss           0x1040201c        0x0 /home/leon/git/swp-report/iMX6_Platform_SDK/output/mx6sdl/sdk_unit_test/sabre_ai_rev_b/obj/apps/sdk_unit_test/src/unit_test_main.o
 .bss           0x1040201c        0x0 /home/leon/git/swp-report/iMX6_Platform_SDK/output/mx6sdl/lib/libsdk.a(ccm_pll.o)
 .bss           0x1040201c        0x0 /home/leon/git/swp-report/iMX6_Platform_SDK/output/mx6sdl/lib/libsdk.a(cortexA9.o)
 .bss           0x1040201c        0x0 /home/leon/git/swp-report/iMX6_Platform_SDK/output/mx6sdl/lib/libsdk.a(gic.o)
 .bss           0x1040201c        0x0 /home/leon/git/swp-report/iMX6_Platform_SDK/output/mx6sdl/lib/libsdk.a(mmu.o)
 .bss           0x1040201c        0x0 /home/leon/git/swp-report/iMX6_Platform_SDK/output/mx6sdl/lib/libsdk.a(startup.o)
 .bss           0x1040201c        0x0 /home/leon/git/swp-report/iMX6_Platform_SDK/output/mx6sdl/lib/libsdk.a(vectors.o)
 .bss           0x1040201c       0x7c /home/leon/git/swp-report/iMX6_Platform_SDK/output/mx6sdl/lib/libsdk.a(menu.o)
 .bss           0x10402098        0x0 /home/leon/git/swp-report/iMX6_Platform_SDK/output/mx6sdl/lib/libsdk.a(sdk_version.o)
 .bss           0x10402098        0x0 /home/leon/git/swp-report/iMX6_Platform_SDK/output/mx6sdl/lib/libsdk.a(system_util.o)
 .bss           0x10402098        0x0 /home/leon/git/swp-report/iMX6_Platform_SDK/output/mx6sdl/lib/libsdk.a(text_color.o)
 .bss           0x10402098        0x0 /home/leon/git/swp-report/iMX6_Platform_SDK/output/mx6sdl/lib/libsdk.a(board_id.o)
 .bss           0x10402098        0x4 /home/leon/git/swp-report/iMX6_Platform_SDK/output/mx6sdl/lib/libsdk.a(timer.o)
                0x10402098                g_microsecondTimerMultiple
 .bss           0x1040209c        0x0 /home/leon/git/swp-report/iMX6_Platform_SDK/output/mx6sdl/lib/libsdk.a(imx_uart.o)
 .bss           0x1040209c        0x0 /home/leon/git/swp-report/iMX6_Platform_SDK/output/mx6sdl/lib/libsdk.a(arm_abort.o)
 .bss           0x1040209c      0x290 /home/leon/git/swp-report/iMX6_Platform_SDK/output/mx6sdl/lib/libsdk.a(interrupt.o)
                0x1040209c                g_interrupt_handlers
                0x1040231c                g_vectNum
 .bss           0x1040232c        0x0 /home/leon/git/swp-report/iMX6_Platform_SDK/output/mx6sdl/lib/libsdk.a(epit.o)
 .bss           0x1040232c        0x0 /home/leon/git/swp-report/iMX6_Platform_SDK/output/mx6sdl/lib/libsdk.a(abort_handler.o)
 .bss           0x1040232c       0x6c /home/leon/git/swp-report/iMX6_Platform_SDK/output/mx6sdl/lib/libboard_sabre_ai_rev_b.a(board_io_expanders.o)
                0x1040232c                max7310_i2c_req_array
 .bss           0x10402398        0x0 /home/leon/git/swp-report/iMX6_Platform_SDK/output/mx6sdl/lib/libboard_sabre_ai_rev_b.a(hardware_modules.o)
 .bss           0x10402398        0x0 /home/leon/git/swp-report/iMX6_Platform_SDK/output/mx6sdl/lib/libboard_sabre_ai_rev_b.a(dcd.o)
 .bss           0x10402398        0x0 /home/leon/git/swp-report/iMX6_Platform_SDK/output/mx6sdl/lib/libboard_sabre_ai_rev_b.a(i2c3_iomux_config.o)
 .bss           0x10402398        0x0 /home/leon/git/swp-report/iMX6_Platform_SDK/output/mx6sdl/lib/libboard_sabre_ai_rev_b.a(uart_iomux_config.o)
 .bss           0x10402398        0x0 /home/leon/git/swp-report/iMX6_Platform_SDK/output/mx6sdl/lib/libboard_sabre_ai_rev_b.a(iomux_config.o)
 .bss           0x10402398        0x0 /home/leon/git/swp-report/iMX6_Platform_SDK/output/mx6sdl/lib/libboard_sabre_ai_rev_b.a(ipu1_iomux_config.o)
 .bss           0x10402398        0x0 /home/leon/git/swp-report/iMX6_Platform_SDK/output/mx6sdl/lib/libboard_sabre_ai_rev_b.a(mlb_iomux_config.o)
 .bss           0x10402398        0x0 /home/leon/git/swp-report/iMX6_Platform_SDK/output/mx6sdl/lib/libboard_sabre_ai_rev_b.a(mmdc_iomux_config.o)
 .bss           0x10402398        0x0 /home/leon/git/swp-report/iMX6_Platform_SDK/output/mx6sdl/lib/libboard_sabre_ai_rev_b.a(pwm3_iomux_config.o)
 .bss           0x10402398        0x0 /home/leon/git/swp-report/iMX6_Platform_SDK/output/mx6sdl/lib/libboard_sabre_ai_rev_b.a(pwm4_iomux_config.o)
 .bss           0x10402398        0x0 /home/leon/git/swp-report/iMX6_Platform_SDK/output/mx6sdl/lib/libboard_sabre_ai_rev_b.a(sjc_iomux_config.o)
 .bss           0x10402398        0x0 /home/leon/git/swp-report/iMX6_Platform_SDK/output/mx6sdl/lib/libboard_sabre_ai_rev_b.a(spdif_iomux_config.o)
 .bss           0x10402398        0x0 /home/leon/git/swp-report/iMX6_Platform_SDK/output/mx6sdl/lib/libboard_sabre_ai_rev_b.a(uart2_iomux_config.o)
 .bss           0x10402398        0x0 /home/leon/git/swp-report/iMX6_Platform_SDK/output/mx6sdl/lib/libboard_sabre_ai_rev_b.a(uart3_iomux_config.o)
 .bss           0x10402398        0x0 /home/leon/git/swp-report/iMX6_Platform_SDK/output/mx6sdl/lib/libboard_sabre_ai_rev_b.a(uart4_iomux_config.o)
 .bss           0x10402398        0x0 /home/leon/git/swp-report/iMX6_Platform_SDK/output/mx6sdl/lib/libboard_sabre_ai_rev_b.a(usdhc1_iomux_config.o)
 .bss           0x10402398        0x0 /home/leon/git/swp-report/iMX6_Platform_SDK/output/mx6sdl/lib/libboard_sabre_ai_rev_b.a(usdhc3_iomux_config.o)
 .bss           0x10402398        0x0 /home/leon/git/swp-report/iMX6_Platform_SDK/output/mx6sdl/lib/libboard_sabre_ai_rev_b.a(wdog1_iomux_config.o)
 .bss           0x10402398        0x0 /home/leon/git/swp-report/iMX6_Platform_SDK/output/mx6sdl/lib/libboard_sabre_ai_rev_b.a(audmux_iomux_config.o)
 .bss           0x10402398        0x0 /home/leon/git/swp-report/iMX6_Platform_SDK/output/mx6sdl/lib/libboard_sabre_ai_rev_b.a(ccm_iomux_config.o)
 .bss           0x10402398        0x0 /home/leon/git/swp-report/iMX6_Platform_SDK/output/mx6sdl/lib/libboard_sabre_ai_rev_b.a(ecspi1_iomux_config.o)
 .bss           0x10402398        0x0 /home/leon/git/swp-report/iMX6_Platform_SDK/output/mx6sdl/lib/libboard_sabre_ai_rev_b.a(eim_iomux_config.o)
 .bss           0x10402398        0x0 /home/leon/git/swp-report/iMX6_Platform_SDK/output/mx6sdl/lib/libboard_sabre_ai_rev_b.a(enet_iomux_config.o)
 .bss           0x10402398        0x0 /home/leon/git/swp-report/iMX6_Platform_SDK/output/mx6sdl/lib/libboard_sabre_ai_rev_b.a(esai_iomux_config.o)
 .bss           0x10402398        0x0 /home/leon/git/swp-report/iMX6_Platform_SDK/output/mx6sdl/lib/libboard_sabre_ai_rev_b.a(flexcan1_iomux_config.o)
 .bss           0x10402398        0x0 /home/leon/git/swp-report/iMX6_Platform_SDK/output/mx6sdl/lib/libboard_sabre_ai_rev_b.a(flexcan2_iomux_config.o)
 .bss           0x10402398        0x0 /home/leon/git/swp-report/iMX6_Platform_SDK/output/mx6sdl/lib/libboard_sabre_ai_rev_b.a(gpio1_iomux_config.o)
 .bss           0x10402398        0x0 /home/leon/git/swp-report/iMX6_Platform_SDK/output/mx6sdl/lib/libboard_sabre_ai_rev_b.a(gpio2_iomux_config.o)
 .bss           0x10402398        0x0 /home/leon/git/swp-report/iMX6_Platform_SDK/output/mx6sdl/lib/libboard_sabre_ai_rev_b.a(gpio4_iomux_config.o)
 .bss           0x10402398        0x0 /home/leon/git/swp-report/iMX6_Platform_SDK/output/mx6sdl/lib/libboard_sabre_ai_rev_b.a(gpio5_iomux_config.o)
 .bss           0x10402398        0x0 /home/leon/git/swp-report/iMX6_Platform_SDK/output/mx6sdl/lib/libboard_sabre_ai_rev_b.a(gpio6_iomux_config.o)
 .bss           0x10402398        0x0 /home/leon/git/swp-report/iMX6_Platform_SDK/output/mx6sdl/lib/libboard_sabre_ai_rev_b.a(gpmi_iomux_config.o)
 .bss           0x10402398        0x0 /home/leon/git/swp-report/iMX6_Platform_SDK/output/mx6sdl/lib/libboard_sabre_ai_rev_b.a(i2c2_iomux_config.o)
 .bss           0x10402398        0x4 /home/leon/git/swp-report/iMX6_Platform_SDK/output/mx6sdl/sdk_unit_test/sabre_ai_rev_b/libsdk_unit_test.a(gic_test.o)
                0x10402398                gicTestDone
 .bss           0x1040239c        0x0 /home/leon/git/swp-report/iMX6_Platform_SDK/output/mx6sdl/sdk_unit_test/sabre_ai_rev_b/libsdk_unit_test.a(cpu_wp_test.o)
 .bss           0x1040239c        0x4 /home/leon/git/swp-report/iMX6_Platform_SDK/output/mx6sdl/sdk_unit_test/sabre_ai_rev_b/libsdk_unit_test.a(multicore_test.o)
                0x1040239c                isTestDone
 .bss           0x104023a0        0x0 /home/leon/git/swp-report/iMX6_Platform_SDK/output/mx6sdl/sdk_unit_test/sabre_ai_rev_b/libsdk_unit_test.a(ocotp_test.o)
 .bss           0x104023a0        0x0 /home/leon/git/swp-report/iMX6_Platform_SDK/output/mx6sdl/sdk_unit_test/sabre_ai_rev_b/libsdk_unit_test.a(i2c_test.o)
 .bss           0x104023a0       0x28 /home/leon/git/swp-report/iMX6_Platform_SDK/output/mx6sdl/sdk_unit_test/sabre_ai_rev_b/libsdk_unit_test.a(imx6_i2c_device.o)
 .bss           0x104023c8        0x8 /home/leon/git/swp-report/iMX6_Platform_SDK/output/mx6sdl/sdk_unit_test/sabre_ai_rev_b/libsdk_unit_test.a(snvs_rtc_test.o)
 .bss           0x104023d0        0x4 /home/leon/git/swp-report/iMX6_Platform_SDK/output/mx6sdl/sdk_unit_test/sabre_ai_rev_b/libsdk_unit_test.a(snvs_srtc_test.o)
 .bss           0x104023d4        0x0 /home/leon/git/swp-report/iMX6_Platform_SDK/output/mx6sdl/sdk_unit_test/sabre_ai_rev_b/libsdk_unit_test.a(tempmon_test.o)
 .bss           0x104023d4        0x0 /home/leon/git/swp-report/iMX6_Platform_SDK/output/mx6sdl/sdk_unit_test/sabre_ai_rev_b/libsdk_unit_test.a(sdma_test.o)
 .bss           0x104023d4     0x2818 /home/leon/git/swp-report/iMX6_Platform_SDK/output/mx6sdl/sdk_unit_test/sabre_ai_rev_b/libsdk_unit_test.a(spi_lpb.o)
 .bss           0x10404bec     0x281c /home/leon/git/swp-report/iMX6_Platform_SDK/output/mx6sdl/sdk_unit_test/sabre_ai_rev_b/libsdk_unit_test.a(uart_loopback.o)
                0x10407404                trans_done
 .bss           0x10407408        0x1 /home/leon/git/swp-report/iMX6_Platform_SDK/output/mx6sdl/sdk_unit_test/sabre_ai_rev_b/libsdk_unit_test.a(epit_test.o)
 *fill*         0x10407409        0x3 
 .bss           0x1040740c        0xc /home/leon/git/swp-report/iMX6_Platform_SDK/output/mx6sdl/sdk_unit_test/sabre_ai_rev_b/libsdk_unit_test.a(gpt_test.o)
 .bss           0x10407418        0x0 /home/leon/git/swp-report/iMX6_Platform_SDK/output/mx6sdl/sdk_unit_test/sabre_ai_rev_b/libsdk_unit_test.a(timer_test.o)
 .bss           0x10407418        0x1 /home/leon/git/swp-report/iMX6_Platform_SDK/output/mx6sdl/sdk_unit_test/sabre_ai_rev_b/libsdk_unit_test.a(uart_test.o)
 *fill*         0x10407419        0x3 
 .bss           0x1040741c    0x17d00 /home/leon/git/swp-report/iMX6_Platform_SDK/output/mx6sdl/sdk_unit_test/sabre_ai_rev_b/libsdk_unit_test.a(usdhc_test.o)
 .bss           0x1041f11c        0x0 /home/leon/git/swp-report/iMX6_Platform_SDK/output/mx6sdl/sdk_unit_test/sabre_ai_rev_b/libsdk_unit_test.a(pwm_test.o)
 .bss           0x1041f11c        0x0 /home/leon/git/swp-report/iMX6_Platform_SDK/output/mx6sdl/sdk_unit_test/sabre_ai_rev_b/libsdk_unit_test.a(watchdog_test.o)
 .bss           0x1041f11c        0x0 /home/leon/git/swp-report/iMX6_Platform_SDK/output/mx6sdl/sdk_unit_test/sabre_ai_rev_b/libsdk_unit_test.a(hdmi_test.o)
 .bss           0x1041f11c        0x0 /home/leon/git/swp-report/iMX6_Platform_SDK/output/mx6sdl/sdk_unit_test/sabre_ai_rev_b/libsdk_unit_test.a(ips_display.o)
 .bss           0x1041f11c        0x0 /home/leon/git/swp-report/iMX6_Platform_SDK/output/mx6sdl/sdk_unit_test/sabre_ai_rev_b/libsdk_unit_test.a(ips_test.o)
 .bss           0x1041f11c        0x0 /home/leon/git/swp-report/iMX6_Platform_SDK/output/mx6sdl/sdk_unit_test/sabre_ai_rev_b/libsdk_unit_test.a(ipu_image.o)
 .bss           0x1041f11c        0x0 /home/leon/git/swp-report/iMX6_Platform_SDK/output/mx6sdl/sdk_unit_test/sabre_ai_rev_b/libsdk_unit_test.a(mipi_test.o)
 .bss           0x1041f11c        0x4 /home/leon/git/swp-report/iMX6_Platform_SDK/output/mx6sdl/sdk_unit_test/sabre_ai_rev_b/libsdk_unit_test.a(can_test.o)
                0x1041f11c                can_test_count
 .bss           0x1041f120        0x0 /home/leon/git/swp-report/iMX6_Platform_SDK/output/mx6sdl/sdk_unit_test/sabre_ai_rev_b/libsdk_unit_test.a(usb_test.o)
 .bss           0x1041f120     0x4000 /home/leon/git/swp-report/iMX6_Platform_SDK/output/mx6sdl/sdk_unit_test/sabre_ai_rev_b/libsdk_unit_test.a(eim_test.o)
 .bss           0x10423120       0x78 /home/leon/git/swp-report/iMX6_Platform_SDK/output/mx6sdl/sdk_unit_test/sabre_ai_rev_b/libsdk_unit_test.a(pcie_test_rc.o)
                0x10423120                ep1_resources
 .bss           0x10423198      0x404 /home/leon/git/swp-report/iMX6_Platform_SDK/output/mx6sdl/sdk_unit_test/sabre_ai_rev_b/libsdk_unit_test.a(spi_test.o)
                0x10423198                dev_spi_nor
 .bss           0x1042359c        0x0 /home/leon/git/swp-report/iMX6_Platform_SDK/output/mx6sdl/sdk_unit_test/sabre_ai_rev_b/libsdk_unit_test.a(camera_test.o)
 .bss           0x1042359c        0x0 /home/leon/git/swp-report/iMX6_Platform_SDK/output/mx6sdl/sdk_unit_test/sabre_ai_rev_b/libsdk_unit_test.a(csi_test_mode.o)
 .bss           0x1042359c        0x0 /home/leon/git/swp-report/iMX6_Platform_SDK/output/mx6sdl/sdk_unit_test/sabre_ai_rev_b/libsdk_unit_test.a(accelerometer_test.o)
 .bss           0x1042359c       0x24 /home/leon/git/swp-report/iMX6_Platform_SDK/output/mx6sdl/sdk_unit_test/sabre_ai_rev_b/libsdk_unit_test.a(at24cxx.o)
 .bss           0x104235c0    0x20818 /home/leon/git/swp-report/iMX6_Platform_SDK/output/mx6sdl/sdk_unit_test/sabre_ai_rev_b/libsdk_unit_test.a(mem_2_mem.o)
 .bss           0x10443dd8        0x4 /home/leon/git/swp-report/iMX6_Platform_SDK/output/mx6sdl/sdk_unit_test/sabre_ai_rev_b/libsdk_unit_test.a(pwm_output.o)
                0x10443dd8                g_pwm_test_end
 .bss           0x10443ddc        0x0 /home/leon/git/swp-report/iMX6_Platform_SDK/output/mx6sdl/sdk_unit_test/sabre_ai_rev_b/libsdk_unit_test.a(init_dma_data.o)
 .bss           0x10443ddc        0x0 /home/leon/git/swp-report/iMX6_Platform_SDK/output/mx6sdl/sdk_unit_test/sabre_ai_rev_b/libsdk_unit_test.a(ips_combiner.o)
 .bss           0x10443ddc        0x0 /home/leon/git/swp-report/iMX6_Platform_SDK/output/mx6sdl/sdk_unit_test/sabre_ai_rev_b/libsdk_unit_test.a(ips_csc.o)
 .bss           0x10443ddc        0x0 /home/leon/git/swp-report/iMX6_Platform_SDK/output/mx6sdl/sdk_unit_test/sabre_ai_rev_b/libsdk_unit_test.a(ips_resize.o)
 .bss           0x10443ddc        0x0 /home/leon/git/swp-report/iMX6_Platform_SDK/output/mx6sdl/sdk_unit_test/sabre_ai_rev_b/libsdk_unit_test.a(ips_rotate.o)
 .bss           0x10443ddc        0x0 /home/leon/git/swp-report/iMX6_Platform_SDK/output/mx6sdl/sdk_unit_test/sabre_ai_rev_b/libsdk_unit_test.a(mipi_csi2_test.o)
 .bss           0x10443ddc        0x0 /home/leon/git/swp-report/iMX6_Platform_SDK/output/mx6sdl/sdk_unit_test/sabre_ai_rev_b/libsdk_unit_test.a(mipi_dsi_test.o)
 *fill*         0x10443ddc      0x224 
 .bss           0x10444000     0x1000 /home/leon/git/swp-report/iMX6_Platform_SDK/output/mx6sdl/sdk_unit_test/sabre_ai_rev_b/libsdk_unit_test.a(usb0_device_mouse_test.o)
                0x10444000                endpointList
 .bss           0x10445000     0x1000 /home/leon/git/swp-report/iMX6_Platform_SDK/output/mx6sdl/sdk_unit_test/sabre_ai_rev_b/libsdk_unit_test.a(usb0_host_test.o)
                0x10445000                frame_list
 .bss           0x10446000        0x0 /home/leon/git/swp-report/iMX6_Platform_SDK/output/mx6sdl/sdk_unit_test/sabre_ai_rev_b/libsdk_unit_test.a(usb0_host_testmodes_test.o)
 .bss           0x10446000        0x0 /home/leon/git/swp-report/iMX6_Platform_SDK/output/mx6sdl/sdk_unit_test/sabre_ai_rev_b/libsdk_unit_test.a(cfi_flash_api.o)
 .bss           0x10446000     0x142c /home/leon/git/swp-report/iMX6_Platform_SDK/output/mx6sdl/sdk_unit_test/sabre_ai_rev_b/libsdk_unit_test.a(cfi_flash_driver.o)
                0x10446000                flash_info
 .bss           0x1044742c      0x400 /home/leon/git/swp-report/iMX6_Platform_SDK/output/mx6sdl/sdk_unit_test/sabre_ai_rev_b/libsdk_unit_test.a(spi_nor_numonyx.o)
 .bss           0x1044782c        0x0 /home/leon/git/swp-report/iMX6_Platform_SDK/output/mx6sdl/sdk_unit_test/sabre_ai_rev_b/libsdk_unit_test.a(adv7180_capture.o)
 .bss           0x1044782c        0x0 /home/leon/riotboard/arm-2012.09/bin/../arm-none-eabi/lib//libm.a(lib_a-sf_cos.o)
 .bss           0x1044782c        0x0 /home/leon/riotboard/arm-2012.09/bin/../arm-none-eabi/lib//libm.a(lib_a-sf_fabs.o)
 .bss           0x1044782c        0x0 /home/leon/riotboard/arm-2012.09/bin/../arm-none-eabi/lib//libm.a(lib_a-sf_modf.o)
 .bss           0x1044782c        0x0 /home/leon/riotboard/arm-2012.09/bin/../arm-none-eabi/lib//libm.a(lib_a-sf_sin.o)
 .bss           0x1044782c        0x0 /home/leon/riotboard/arm-2012.09/bin/../arm-none-eabi/lib//libm.a(lib_a-ef_rem_pio2.o)
 .bss           0x1044782c        0x0 /home/leon/riotboard/arm-2012.09/bin/../arm-none-eabi/lib//libm.a(lib_a-kf_cos.o)
 .bss           0x1044782c        0x0 /home/leon/riotboard/arm-2012.09/bin/../arm-none-eabi/lib//libm.a(lib_a-kf_rem_pio2.o)
 .bss           0x1044782c        0x0 /home/leon/riotboard/arm-2012.09/bin/../arm-none-eabi/lib//libm.a(lib_a-kf_sin.o)
 .bss           0x1044782c        0x0 /home/leon/riotboard/arm-2012.09/bin/../arm-none-eabi/lib//libm.a(lib_a-sf_floor.o)
 .bss           0x1044782c        0x0 /home/leon/riotboard/arm-2012.09/bin/../arm-none-eabi/lib//libm.a(lib_a-sf_scalbn.o)
 .bss           0x1044782c        0x0 /home/leon/riotboard/arm-2012.09/bin/../arm-none-eabi/lib//libm.a(lib_a-sf_copysign.o)
 .bss           0x1044782c        0x0 /home/leon/riotboard/arm-2012.09/bin/../arm-none-eabi/lib//libc.a(lib_a-assert.o)
 .bss           0x1044782c        0x0 /home/leon/riotboard/arm-2012.09/bin/../arm-none-eabi/lib//libc.a(lib_a-bzero.o)
 .bss           0x1044782c        0x0 /home/leon/riotboard/arm-2012.09/bin/../arm-none-eabi/lib//libc.a(lib_a-fflush.o)
 .bss           0x1044782c        0x0 /home/leon/riotboard/arm-2012.09/bin/../arm-none-eabi/lib//libc.a(lib_a-findfp.o)
 .bss           0x1044782c        0x0 /home/leon/riotboard/arm-2012.09/bin/../arm-none-eabi/lib//libc.a(lib_a-fiprintf.o)
 .bss           0x1044782c        0x0 /home/leon/riotboard/arm-2012.09/bin/../arm-none-eabi/lib//libc.a(lib_a-fputc.o)
 .bss           0x1044782c        0x0 /home/leon/riotboard/arm-2012.09/bin/../arm-none-eabi/lib//libc.a(lib_a-fputs.o)
 .bss           0x1044782c        0x0 /home/leon/riotboard/arm-2012.09/bin/../arm-none-eabi/lib//libc.a(lib_a-freer.o)
 .bss           0x1044782c        0x0 /home/leon/riotboard/arm-2012.09/bin/../arm-none-eabi/lib//libc.a(lib_a-fvwrite.o)
 .bss           0x1044782c        0x0 /home/leon/riotboard/arm-2012.09/bin/../arm-none-eabi/lib//libc.a(lib_a-fwalk.o)
 .bss           0x1044782c        0x0 /home/leon/riotboard/arm-2012.09/bin/../arm-none-eabi/lib//libc.a(lib_a-impure.o)
 .bss           0x1044782c        0x0 /home/leon/riotboard/arm-2012.09/bin/../arm-none-eabi/lib//libc.a(lib_a-init.o)
 .bss           0x1044782c        0x0 /home/leon/riotboard/arm-2012.09/bin/../arm-none-eabi/lib//libc.a(lib_a-malloc.o)
 .bss           0x1044782c       0x34 /home/leon/riotboard/arm-2012.09/bin/../arm-none-eabi/lib//libc.a(lib_a-mallocr.o)
                0x1044782c                __malloc_top_pad
                0x10447830                __malloc_current_mallinfo
                0x10447858                __malloc_max_sbrked_mem
                0x1044785c                __malloc_max_total_mem
 .bss           0x10447860        0x0 /home/leon/riotboard/arm-2012.09/bin/../arm-none-eabi/lib//libc.a(lib_a-memchr.o)
 .bss           0x10447860        0x0 /home/leon/riotboard/arm-2012.09/bin/../arm-none-eabi/lib//libc.a(lib_a-memcpy.o)
 .bss           0x10447860        0x0 /home/leon/riotboard/arm-2012.09/bin/../arm-none-eabi/lib//libc.a(lib_a-memmove.o)
 .bss           0x10447860        0x0 /home/leon/riotboard/arm-2012.09/bin/../arm-none-eabi/lib//libc.a(lib_a-memset.o)
 .bss           0x10447860        0x0 /home/leon/riotboard/arm-2012.09/bin/../arm-none-eabi/lib//libc.a(lib_a-mlock.o)
 .bss           0x10447860        0x0 /home/leon/riotboard/arm-2012.09/bin/../arm-none-eabi/lib//libc.a(lib_a-printf.o)
 .bss           0x10447860        0x0 /home/leon/riotboard/arm-2012.09/bin/../arm-none-eabi/lib//libc.a(lib_a-putc.o)
 .bss           0x10447860        0x0 /home/leon/riotboard/arm-2012.09/bin/../arm-none-eabi/lib//libc.a(lib_a-puts.o)
 .bss           0x10447860        0x0 /home/leon/riotboard/arm-2012.09/bin/../arm-none-eabi/lib//libc.a(lib_a-realloc.o)
 .bss           0x10447860        0x0 /home/leon/riotboard/arm-2012.09/bin/../arm-none-eabi/lib//libc.a(lib_a-reallocr.o)
 .bss           0x10447860        0x0 /home/leon/riotboard/arm-2012.09/bin/../arm-none-eabi/lib//libc.a(lib_a-rget.o)
 .bss           0x10447860        0x0 /home/leon/riotboard/arm-2012.09/bin/../arm-none-eabi/lib//libc.a(lib_a-sbrkr.o)
 .bss           0x10447860        0x0 /home/leon/riotboard/arm-2012.09/bin/../arm-none-eabi/lib//libc.a(lib_a-sprintf.o)
 .bss           0x10447860        0x0 /home/leon/riotboard/arm-2012.09/bin/../arm-none-eabi/lib//libc.a(lib_a-stdio.o)
 .bss           0x10447860        0x0 /home/leon/riotboard/arm-2012.09/bin/../arm-none-eabi/lib//libc.a(lib_a-strlen.o)
 .bss           0x10447860        0x0 /home/leon/riotboard/arm-2012.09/bin/../arm-none-eabi/lib//libc.a(lib_a-strncasecmp.o)
 .bss           0x10447860        0x0 /home/leon/riotboard/arm-2012.09/bin/../arm-none-eabi/lib//libc.a(lib_a-svfprintf.o)
 .bss           0x10447860        0x0 /home/leon/riotboard/arm-2012.09/bin/../arm-none-eabi/lib//libc.a(lib_a-vfiprintf.o)
 .bss           0x10447860        0x0 /home/leon/riotboard/arm-2012.09/bin/../arm-none-eabi/lib//libc.a(lib_a-vfprintf.o)
 .bss           0x10447860        0x0 /home/leon/riotboard/arm-2012.09/bin/../arm-none-eabi/lib//libc.a(lib_a-vprintf.o)
 .bss           0x10447860        0x0 /home/leon/riotboard/arm-2012.09/bin/../arm-none-eabi/lib//libc.a(lib_a-wbuf.o)
 .bss           0x10447860        0x0 /home/leon/riotboard/arm-2012.09/bin/../arm-none-eabi/lib//libc.a(lib_a-writer.o)
 .bss           0x10447860        0x0 /home/leon/riotboard/arm-2012.09/bin/../arm-none-eabi/lib//libc.a(lib_a-wsetup.o)
 .bss           0x10447860        0x0 /home/leon/riotboard/arm-2012.09/bin/../arm-none-eabi/lib//libc.a(lib_a-abort.o)
 .bss           0x10447860        0x0 /home/leon/riotboard/arm-2012.09/bin/../arm-none-eabi/lib//libc.a(lib_a-closer.o)
 .bss           0x10447860        0x0 /home/leon/riotboard/arm-2012.09/bin/../arm-none-eabi/lib//libc.a(lib_a-ctype_.o)
 .bss           0x10447860        0x0 /home/leon/riotboard/arm-2012.09/bin/../arm-none-eabi/lib//libc.a(lib_a-dtoa.o)
 .bss           0x10447860        0x0 /home/leon/riotboard/arm-2012.09/bin/../arm-none-eabi/lib//libc.a(lib_a-fclose.o)
 .bss           0x10447860        0x0 /home/leon/riotboard/arm-2012.09/bin/../arm-none-eabi/lib//libc.a(lib_a-fputwc.o)
 .bss           0x10447860        0xc /home/leon/riotboard/arm-2012.09/bin/../arm-none-eabi/lib//libc.a(lib_a-locale.o)
                0x10447860                _PathLocale
                0x10447864                __mlocale_changed
                0x10447868                __nlocale_changed
 .bss           0x1044786c        0x0 /home/leon/riotboard/arm-2012.09/bin/../arm-none-eabi/lib//libc.a(lib_a-lseekr.o)
 .bss           0x1044786c        0x0 /home/leon/riotboard/arm-2012.09/bin/../arm-none-eabi/lib//libc.a(lib_a-makebuf.o)
 .bss           0x1044786c        0x0 /home/leon/riotboard/arm-2012.09/bin/../arm-none-eabi/lib//libc.a(lib_a-mprec.o)
 .bss           0x1044786c        0x0 /home/leon/riotboard/arm-2012.09/bin/../arm-none-eabi/lib//libc.a(lib_a-readr.o)
 .bss           0x1044786c        0x0 /home/leon/riotboard/arm-2012.09/bin/../arm-none-eabi/lib//libc.a(lib_a-reent.o)
 .bss           0x1044786c        0x0 /home/leon/riotboard/arm-2012.09/bin/../arm-none-eabi/lib//libc.a(lib_a-refill.o)
 .bss           0x1044786c        0x0 /home/leon/riotboard/arm-2012.09/bin/../arm-none-eabi/lib//libc.a(lib_a-s_fpclassify.o)
 .bss           0x1044786c        0x0 /home/leon/riotboard/arm-2012.09/bin/../arm-none-eabi/lib//libc.a(lib_a-signal.o)
 .bss           0x1044786c        0x0 /home/leon/riotboard/arm-2012.09/bin/../arm-none-eabi/lib//libc.a(lib_a-signalr.o)
 .bss           0x1044786c        0x0 /home/leon/riotboard/arm-2012.09/bin/../arm-none-eabi/lib//libc.a(lib_a-strcmp.o)
 .bss           0x1044786c        0x0 /home/leon/riotboard/arm-2012.09/bin/../arm-none-eabi/lib//libc.a(lib_a-svfiprintf.o)
 .bss           0x1044786c        0x0 /home/leon/riotboard/arm-2012.09/bin/../arm-none-eabi/lib//libc.a(lib_a-wcrtomb.o)
 .bss           0x1044786c        0x0 /home/leon/riotboard/arm-2012.09/bin/../arm-none-eabi/lib//libc.a(lib_a-wctomb_r.o)
 .bss           0x1044786c        0x0 /home/leon/riotboard/arm-2012.09/bin/../arm-none-eabi/lib//libc.a(lib_a-callocr.o)
 .bss           0x1044786c        0x0 /home/leon/riotboard/arm-2012.09/bin/../arm-none-eabi/lib//libc.a(lib_a-fstatr.o)
 .bss           0x1044786c        0x0 /home/leon/riotboard/arm-2012.09/bin/../arm-none-eabi/lib//libc.a(lib_a-isattyr.o)
 .bss           0x1044786c        0x0 /home/leon/riotboard/arm-2012.09/bin/../lib/gcc/arm-none-eabi/4.7.2//libgcc.a(_udivsi3.o)
 .bss           0x1044786c        0x0 /home/leon/riotboard/arm-2012.09/bin/../lib/gcc/arm-none-eabi/4.7.2//libgcc.a(_divsi3.o)
 .bss           0x1044786c        0x0 /home/leon/riotboard/arm-2012.09/bin/../lib/gcc/arm-none-eabi/4.7.2//libgcc.a(_dvmd_tls.o)
 .bss           0x1044786c        0x0 /home/leon/riotboard/arm-2012.09/bin/../lib/gcc/arm-none-eabi/4.7.2//libgcc.a(_arm_addsubdf3.o)
 .bss           0x1044786c        0x0 /home/leon/riotboard/arm-2012.09/bin/../lib/gcc/arm-none-eabi/4.7.2//libgcc.a(_arm_muldivdf3.o)
 .bss           0x1044786c        0x0 /home/leon/riotboard/arm-2012.09/bin/../lib/gcc/arm-none-eabi/4.7.2//libgcc.a(_arm_cmpdf2.o)
 .bss           0x1044786c        0x0 /home/leon/riotboard/arm-2012.09/bin/../lib/gcc/arm-none-eabi/4.7.2//libgcc.a(_arm_fixdfsi.o)
 .bss           0x1044786c        0x0 /home/leon/riotboard/arm-2012.09/bin/../lib/gcc/arm-none-eabi/4.7.2//libgcc.a(_arm_addsubsf3.o)
 .bss           0x1044786c        0x0 /home/leon/riotboard/arm-2012.09/bin/../lib/gcc/arm-none-eabi/4.7.2//libgcc.a(_arm_muldivsf3.o)
 .bss           0x1044786c        0x0 /home/leon/riotboard/arm-2012.09/bin/../lib/gcc/arm-none-eabi/4.7.2//libgcc.a(_arm_cmpsf2.o)
 .bss           0x1044786c        0x0 /home/leon/riotboard/arm-2012.09/bin/../lib/gcc/arm-none-eabi/4.7.2//libgcc.a(_arm_fixsfsi.o)
 .bss           0x1044786c        0x0 /home/leon/riotboard/arm-2012.09/bin/../lib/gcc/arm-none-eabi/4.7.2//libgcc.a(_aeabi_uldivmod.o)
 .bss           0x1044786c        0x0 /home/leon/riotboard/arm-2012.09/bin/../lib/gcc/arm-none-eabi/4.7.2//libgcc.a(bpabi.o)
 .bss           0x1044786c        0x0 /home/leon/riotboard/arm-2012.09/bin/../lib/gcc/arm-none-eabi/4.7.2//libgcc.a(_divdi3.o)
 .bss           0x1044786c        0x0 /home/leon/riotboard/arm-2012.09/bin/../lib/gcc/arm-none-eabi/4.7.2//libgcc.a(_udivdi3.o)
 .bss           0x1044786c        0x0 /home/leon/riotboard/arm-2012.09/bin/../lib/gcc/arm-none-eabi/4.7.2//libgcc.a(_clzsi2.o)
 .bss           0x1044786c        0x4 /home/leon/git/swp-report/iMX6_Platform_SDK/output/mx6sdl/lib/libsdk.a(max7310.o)
 .bss           0x10447870        0x0 /home/leon/git/swp-report/iMX6_Platform_SDK/output/mx6sdl/lib/libsdk.a(profile.o)
 .bss           0x10447870        0x0 /home/leon/git/swp-report/iMX6_Platform_SDK/output/mx6sdl/lib/libsdk.a(armv7_cache.o)
 .bss           0x10447870        0xc /home/leon/git/swp-report/iMX6_Platform_SDK/output/mx6sdl/lib/libsdk.a(runtime_support.o)
                0x10447870                __env
 .bss           0x1044787c        0x0 /home/leon/git/swp-report/iMX6_Platform_SDK/output/mx6sdl/lib/libsdk.a(mma8451.o)
 .bss           0x1044787c        0x0 /home/leon/git/swp-report/iMX6_Platform_SDK/output/mx6sdl/lib/libsdk.a(cpu_get_cores.o)
 .bss           0x1044787c       0x20 /home/leon/git/swp-report/iMX6_Platform_SDK/output/mx6sdl/lib/libsdk.a(cpu_multicore.o)
 .bss           0x1044789c        0x0 /home/leon/git/swp-report/iMX6_Platform_SDK/output/mx6sdl/lib/libsdk.a(cpu_workpoint.o)
 .bss           0x1044789c        0x0 /home/leon/git/swp-report/iMX6_Platform_SDK/output/mx6sdl/lib/libsdk.a(eim.o)
 .bss           0x1044789c        0x0 /home/leon/git/swp-report/iMX6_Platform_SDK/output/mx6sdl/lib/libsdk.a(can.o)
 .bss           0x1044789c        0x0 /home/leon/git/swp-report/iMX6_Platform_SDK/output/mx6sdl/lib/libsdk.a(gpio.o)
 .bss           0x1044789c        0x0 /home/leon/git/swp-report/iMX6_Platform_SDK/output/mx6sdl/lib/libsdk.a(imx6sdl_gpio_map.o)
 .bss           0x1044789c        0x0 /home/leon/git/swp-report/iMX6_Platform_SDK/output/mx6sdl/lib/libsdk.a(hdmi_tx.o)
 .bss           0x1044789c        0x0 /home/leon/git/swp-report/iMX6_Platform_SDK/output/mx6sdl/lib/libsdk.a(hdmi_tx_audio.o)
 .bss           0x1044789c        0x0 /home/leon/git/swp-report/iMX6_Platform_SDK/output/mx6sdl/lib/libsdk.a(hdmi_tx_phy.o)
 .bss           0x1044789c        0x0 /home/leon/git/swp-report/iMX6_Platform_SDK/output/mx6sdl/lib/libsdk.a(imx_i2c.o)
 .bss           0x1044789c        0xc /home/leon/git/swp-report/iMX6_Platform_SDK/output/mx6sdl/lib/libsdk.a(imx_i2c_slave.o)
 .bss           0x104478a8        0x0 /home/leon/git/swp-report/iMX6_Platform_SDK/output/mx6sdl/lib/libsdk.a(ips_disp_panel.o)
 .bss           0x104478a8       0x10 /home/leon/git/swp-report/iMX6_Platform_SDK/output/mx6sdl/lib/libsdk.a(ipu_common.o)
                0x104478a8                csi_vdi_direct_path
                0x104478ac                csi_dma_band_mode
 .bss           0x104478b8        0x0 /home/leon/git/swp-report/iMX6_Platform_SDK/output/mx6sdl/lib/libsdk.a(ipu_csi.o)
 .bss           0x104478b8        0x0 /home/leon/git/swp-report/iMX6_Platform_SDK/output/mx6sdl/lib/libsdk.a(ipu_dc.o)
 .bss           0x104478b8        0x0 /home/leon/git/swp-report/iMX6_Platform_SDK/output/mx6sdl/lib/libsdk.a(ipu_di.o)
 .bss           0x104478b8        0x0 /home/leon/git/swp-report/iMX6_Platform_SDK/output/mx6sdl/lib/libsdk.a(ipu_dmfc.o)
 .bss           0x104478b8        0x0 /home/leon/git/swp-report/iMX6_Platform_SDK/output/mx6sdl/lib/libsdk.a(ipu_dp.o)
 .bss           0x104478b8        0x0 /home/leon/git/swp-report/iMX6_Platform_SDK/output/mx6sdl/lib/libsdk.a(ipu_ic.o)
 .bss           0x104478b8        0x0 /home/leon/git/swp-report/iMX6_Platform_SDK/output/mx6sdl/lib/libsdk.a(ipu_idmac.o)
 .bss           0x104478b8        0x0 /home/leon/git/swp-report/iMX6_Platform_SDK/output/mx6sdl/lib/libsdk.a(ipu_vdi.o)
 .bss           0x104478b8        0x0 /home/leon/git/swp-report/iMX6_Platform_SDK/output/mx6sdl/lib/libsdk.a(ldb.o)
 .bss           0x104478b8        0x0 /home/leon/git/swp-report/iMX6_Platform_SDK/output/mx6sdl/lib/libsdk.a(mipi_csi2_common.o)
 .bss           0x104478b8        0x0 /home/leon/git/swp-report/iMX6_Platform_SDK/output/mx6sdl/lib/libsdk.a(mipi_dsi_common.o)
 .bss           0x104478b8        0x0 /home/leon/git/swp-report/iMX6_Platform_SDK/output/mx6sdl/lib/libsdk.a(ov5640_mipi_fm.o)
 .bss           0x104478b8        0x0 /home/leon/git/swp-report/iMX6_Platform_SDK/output/mx6sdl/lib/libsdk.a(ocotp.o)
 .bss           0x104478b8       0x14 /home/leon/git/swp-report/iMX6_Platform_SDK/output/mx6sdl/lib/libsdk.a(pcie.o)
                0x104478b8                pcie_func_clk_setup
                0x104478bc                pcie_func_pwr_setup
                0x104478c0                pcie_func_card_pwr_setup
                0x104478c4                pcie_func_card_ref_clk_setup
                0x104478c8                pcie_func_card_rst
 .bss           0x104478cc        0x0 /home/leon/git/swp-report/iMX6_Platform_SDK/output/mx6sdl/lib/libsdk.a(pcie_phy.o)
 .bss           0x104478cc        0x0 /home/leon/git/swp-report/iMX6_Platform_SDK/output/mx6sdl/lib/libsdk.a(pcie_prot.o)
 .bss           0x104478cc       0xa0 /home/leon/git/swp-report/iMX6_Platform_SDK/output/mx6sdl/lib/libsdk.a(pmu_driver.o)
 .bss           0x1044796c        0x8 /home/leon/git/swp-report/iMX6_Platform_SDK/output/mx6sdl/lib/libsdk.a(pwm.o)
                0x1044796c                pwm_int_test_end
 .bss           0x10447974       0x10 /home/leon/git/swp-report/iMX6_Platform_SDK/output/mx6sdl/lib/libsdk.a(rtc.o)
 .bss           0x10447984        0x8 /home/leon/git/swp-report/iMX6_Platform_SDK/output/mx6sdl/lib/libsdk.a(srtc.o)
 .bss           0x1044798c       0x88 /home/leon/git/swp-report/iMX6_Platform_SDK/output/mx6sdl/lib/libsdk.a(sdma.o)
 .bss           0x10447a14        0x0 /home/leon/git/swp-report/iMX6_Platform_SDK/output/mx6sdl/lib/libsdk.a(sdma_script_info.o)
 .bss           0x10447a14        0x0 /home/leon/git/swp-report/iMX6_Platform_SDK/output/mx6sdl/lib/libsdk.a(snvs.o)
 .bss           0x10447a14        0x0 /home/leon/git/swp-report/iMX6_Platform_SDK/output/mx6sdl/lib/libsdk.a(ecspi.o)
 .bss           0x10447a14       0x14 /home/leon/git/swp-report/iMX6_Platform_SDK/output/mx6sdl/lib/libsdk.a(tempmon.o)
 .bss           0x10447a28        0x0 /home/leon/git/swp-report/iMX6_Platform_SDK/output/mx6sdl/lib/libsdk.a(gpt.o)
 .bss           0x10447a28        0x0 /home/leon/git/swp-report/iMX6_Platform_SDK/output/mx6sdl/lib/libsdk.a(usb_common.o)
 .bss           0x10447a28        0x0 /home/leon/git/swp-report/iMX6_Platform_SDK/output/mx6sdl/lib/libsdk.a(usbd_drv.o)
 .bss           0x10447a28        0x0 /home/leon/git/swp-report/iMX6_Platform_SDK/output/mx6sdl/lib/libsdk.a(usbh_drv.o)
 .bss           0x10447a28        0x8 /home/leon/git/swp-report/iMX6_Platform_SDK/output/mx6sdl/lib/libsdk.a(usdhc.o)
 .bss           0x10447a30        0x0 /home/leon/git/swp-report/iMX6_Platform_SDK/output/mx6sdl/lib/libsdk.a(usdhc_host.o)
 .bss           0x10447a30      0x214 /home/leon/git/swp-report/iMX6_Platform_SDK/output/mx6sdl/lib/libsdk.a(usdhc_mmc.o)
 .bss           0x10447c44        0x0 /home/leon/git/swp-report/iMX6_Platform_SDK/output/mx6sdl/lib/libsdk.a(usdhc_sd.o)
 .bss           0x10447c44        0x0 /home/leon/git/swp-report/iMX6_Platform_SDK/output/mx6sdl/lib/libsdk.a(adv7180.o)
 .bss           0x10447c44        0x0 /home/leon/git/swp-report/iMX6_Platform_SDK/output/mx6sdl/lib/libsdk.a(hdmi_common.o)
 .bss           0x10447c44        0x0 /home/leon/git/swp-report/iMX6_Platform_SDK/output/mx6sdl/lib/libsdk.a(mx6x_usb.o)
 .bss           0x10447c44        0x0 /home/leon/git/swp-report/iMX6_Platform_SDK/output/mx6sdl/lib/libboard_sabre_ai_rev_b.a(board_camera.o)
 .bss           0x10447c44        0x0 /home/leon/git/swp-report/iMX6_Platform_SDK/output/mx6sdl/lib/libboard_sabre_ai_rev_b.a(board_can.o)
 .bss           0x10447c44        0x0 /home/leon/git/swp-report/iMX6_Platform_SDK/output/mx6sdl/lib/libboard_sabre_ai_rev_b.a(board_display.o)
 .bss           0x10447c44        0x0 /home/leon/git/swp-report/iMX6_Platform_SDK/output/mx6sdl/lib/libboard_sabre_ai_rev_b.a(board_hdmi.o)
 .bss           0x10447c44        0x0 /home/leon/git/swp-report/iMX6_Platform_SDK/output/mx6sdl/lib/libboard_sabre_ai_rev_b.a(board_i2c.o)
 .bss           0x10447c44        0x0 /home/leon/git/swp-report/iMX6_Platform_SDK/output/mx6sdl/lib/libboard_sabre_ai_rev_b.a(board_mipi.o)
 .bss           0x10447c44        0x0 /home/leon/git/swp-report/iMX6_Platform_SDK/output/mx6sdl/lib/libboard_sabre_ai_rev_b.a(board_pcie.o)
 .bss           0x10447c44        0x0 /home/leon/git/swp-report/iMX6_Platform_SDK/output/mx6sdl/lib/libboard_sabre_ai_rev_b.a(board_usb.o)
 .bss           0x10447c44        0x0 /home/leon/git/swp-report/iMX6_Platform_SDK/output/mx6sdl/lib/libboard_sabre_ai_rev_b.a(board_usdhc.o)
 .bss           0x10447c44        0x0 /home/leon/git/swp-report/iMX6_Platform_SDK/output/mx6sdl/lib/libboard_sabre_ai_rev_b.a(ecspi_iomux_config.o)
 .bss           0x10447c44        0x0 /home/leon/git/swp-report/iMX6_Platform_SDK/output/mx6sdl/lib/libboard_sabre_ai_rev_b.a(flexcan_iomux_config.o)
 .bss           0x10447c44        0x0 /home/leon/git/swp-report/iMX6_Platform_SDK/output/mx6sdl/lib/libboard_sabre_ai_rev_b.a(i2c_iomux_config.o)
 .bss           0x10447c44        0x0 /home/leon/git/swp-report/iMX6_Platform_SDK/output/mx6sdl/lib/libboard_sabre_ai_rev_b.a(pwm_iomux_config.o)
 .bss           0x10447c44        0x0 /home/leon/git/swp-report/iMX6_Platform_SDK/output/mx6sdl/lib/libboard_sabre_ai_rev_b.a(usdhc_iomux_config.o)
 .bss           0x10447c44        0x0 /home/leon/riotboard/arm-2012.09/bin/../arm-none-eabi/lib//libstdc++.a(pure.o)
 .bss           0x10447c44        0x0 /home/leon/riotboard/arm-2012.09/bin/../arm-none-eabi/lib//libstdc++.a(eh_terminate.o)
 .bss           0x10447c44        0x0 /home/leon/riotboard/arm-2012.09/bin/../arm-none-eabi/lib//libstdc++.a(eh_unex_handler.o)
 .bss           0x10447c44        0x0 /home/leon/riotboard/arm-2012.09/bin/../arm-none-eabi/lib//libstdc++.a(eh_call.o)
 .bss           0x10447c44        0x0 /home/leon/riotboard/arm-2012.09/bin/../arm-none-eabi/lib//libstdc++.a(eh_throw.o)
 .bss           0x10447c44        0x0 /home/leon/riotboard/arm-2012.09/bin/../arm-none-eabi/lib//libstdc++.a(eh_arm.o)
 .bss           0x10447c44        0x0 /home/leon/riotboard/arm-2012.09/bin/../arm-none-eabi/lib//libstdc++.a(eh_exception.o)
 .bss           0x10447c44        0x0 /home/leon/riotboard/arm-2012.09/bin/../arm-none-eabi/lib//libstdc++.a(eh_alloc.o)
 .bss._ZL15dependents_used
                0x10447c44        0x4 /home/leon/riotboard/arm-2012.09/bin/../arm-none-eabi/lib//libstdc++.a(eh_alloc.o)
 .bss._ZL17dependents_buffer
                0x10447c48      0x1e0 /home/leon/riotboard/arm-2012.09/bin/../arm-none-eabi/lib//libstdc++.a(eh_alloc.o)
 .bss._ZL14emergency_used
                0x10447e28        0x4 /home/leon/riotboard/arm-2012.09/bin/../arm-none-eabi/lib//libstdc++.a(eh_alloc.o)
 *fill*         0x10447e2c        0x4 
 .bss._ZL16emergency_buffer
                0x10447e30      0x800 /home/leon/riotboard/arm-2012.09/bin/../arm-none-eabi/lib//libstdc++.a(eh_alloc.o)
 .bss           0x10448630        0x0 /home/leon/riotboard/arm-2012.09/bin/../arm-none-eabi/lib//libstdc++.a(eh_globals.o)
 .bss._ZL10eh_globals
                0x10448630        0xc /home/leon/riotboard/arm-2012.09/bin/../arm-none-eabi/lib//libstdc++.a(eh_globals.o)
 .bss           0x1044863c        0x0 /home/leon/riotboard/arm-2012.09/bin/../arm-none-eabi/lib//libstdc++.a(si_class_type_info.o)
 .bss           0x1044863c        0x0 /home/leon/riotboard/arm-2012.09/bin/../arm-none-eabi/lib//libstdc++.a(eh_personality.o)
 .bss           0x1044863c        0x0 /home/leon/riotboard/arm-2012.09/bin/../arm-none-eabi/lib//libstdc++.a(eh_term_handler.o)
 .bss           0x1044863c        0x0 /home/leon/riotboard/arm-2012.09/bin/../arm-none-eabi/lib//libstdc++.a(eh_catch.o)
 .bss           0x1044863c        0x0 /home/leon/riotboard/arm-2012.09/bin/../arm-none-eabi/lib//libstdc++.a(class_type_info.o)
 .bss           0x1044863c        0x0 /home/leon/riotboard/arm-2012.09/bin/../arm-none-eabi/lib//libstdc++.a(vterminate.o)
 .bss._ZZN9__gnu_cxx27__verbose_terminate_handlerEvE11terminating
                0x1044863c        0x1 /home/leon/riotboard/arm-2012.09/bin/../arm-none-eabi/lib//libstdc++.a(vterminate.o)
 .bss           0x1044863d        0x0 /home/leon/riotboard/arm-2012.09/bin/../arm-none-eabi/lib//libstdc++.a(cp-demangle.o)
 .bss           0x1044863d        0x0 /home/leon/riotboard/arm-2012.09/bin/../arm-none-eabi/lib//libstdc++.a(eh_type.o)
 .bss           0x1044863d        0x0 /home/leon/riotboard/arm-2012.09/bin/../arm-none-eabi/lib//libstdc++.a(del_op.o)
 .bss           0x1044863d        0x0 /home/leon/riotboard/arm-2012.09/bin/../arm-none-eabi/lib//libstdc++.a(tinfo.o)
 .bss           0x1044863d        0x0 /home/leon/riotboard/arm-2012.09/bin/../arm-none-eabi/lib//libc.a(lib_a-fwrite.o)
 .bss           0x1044863d        0x0 /home/leon/riotboard/arm-2012.09/bin/../arm-none-eabi/lib//libc.a(lib_a-memcmp.o)
 .bss           0x1044863d        0x0 /home/leon/riotboard/arm-2012.09/bin/../arm-none-eabi/lib//libc.a(lib_a-strncmp.o)
 .bss           0x1044863d        0x0 /home/leon/riotboard/arm-2012.09/bin/../arm-none-eabi/lib//libc.a(lib_a-syswrite.o)
 .bss           0x1044863d        0x0 /home/leon/riotboard/arm-2012.09/bin/../lib/gcc/arm-none-eabi/4.7.2//libgcc.a(unwind-arm.o)
 .bss           0x1044863d        0x0 /home/leon/riotboard/arm-2012.09/bin/../lib/gcc/arm-none-eabi/4.7.2//libgcc.a(libunwind.o)
 .bss           0x1044863d        0x0 /home/leon/riotboard/arm-2012.09/bin/../lib/gcc/arm-none-eabi/4.7.2//libgcc.a(pr-support.o)
 *(COMMON)
 *fill*         0x1044863d        0x3 
 COMMON         0x10448640        0x4 /home/leon/riotboard/arm-2012.09/bin/../arm-none-eabi/lib//libc.a(lib_a-reent.o)
                0x10448640                errno
 *(.bss)
                0x10448644                __bss_end__ = .

.stacks         0x10448644     0xc000
                0x10448644                __stacks_start = .
                0x10454644                . = (. + 0xc000)
 *fill*         0x10448644     0xc000 
                0x10454644                __stacks_end = .
                0x10454644                top_of_stacks = .
                0x10454660                free_memory_start = ALIGN (0x20)
                0x18454644                . = (. + 0x8000000)
                0x18454644                free_memory_end = .
                0x18454644                _end = .
START GROUP
LOAD /home/leon/git/swp-report/iMX6_Platform_SDK/output/mx6sdl/sdk_unit_test/sabre_ai_rev_b/obj/apps/common/ivt.o
LOAD /home/leon/git/swp-report/iMX6_Platform_SDK/output/mx6sdl/sdk_unit_test/sabre_ai_rev_b/obj/apps/common/platform_init.o
LOAD /home/leon/git/swp-report/iMX6_Platform_SDK/output/mx6sdl/sdk_unit_test/sabre_ai_rev_b/obj/apps/common/print_clock_info.o
LOAD /home/leon/git/swp-report/iMX6_Platform_SDK/output/mx6sdl/sdk_unit_test/sabre_ai_rev_b/obj/apps/common/print_version.o
LOAD /home/leon/git/swp-report/iMX6_Platform_SDK/output/mx6sdl/sdk_unit_test/sabre_ai_rev_b/obj/apps/sdk_unit_test/src/all_test.o
LOAD /home/leon/git/swp-report/iMX6_Platform_SDK/output/mx6sdl/sdk_unit_test/sabre_ai_rev_b/obj/apps/sdk_unit_test/src/unit_test_main.o
LOAD /home/leon/git/swp-report/iMX6_Platform_SDK/output/mx6sdl/lib/libsdk.a
LOAD /home/leon/git/swp-report/iMX6_Platform_SDK/output/mx6sdl/lib/libboard_sabre_ai_rev_b.a
LOAD /home/leon/git/swp-report/iMX6_Platform_SDK/output/mx6sdl/sdk_unit_test/sabre_ai_rev_b/libsdk_unit_test.a
LOAD /home/leon/riotboard/arm-2012.09/bin/../arm-none-eabi/lib//libm.a
LOAD /home/leon/riotboard/arm-2012.09/bin/../arm-none-eabi/lib//libstdc++.a
LOAD /home/leon/riotboard/arm-2012.09/bin/../arm-none-eabi/lib//libc.a
LOAD /home/leon/riotboard/arm-2012.09/bin/../lib/gcc/arm-none-eabi/4.7.2//libgcc.a
END GROUP
OUTPUT(/home/leon/git/swp-report/iMX6_Platform_SDK/output/mx6sdl/sdk_unit_test/sabre_ai_rev_b/sdk_unit_test_ALL.elf elf32-littlearm)

.ARM.attributes
                0x00000000       0x3b
 .ARM.attributes
                0x00000000       0x30 /home/leon/riotboard/arm-2012.09/bin/../lib/gcc/arm-none-eabi/4.7.2//crtbegin.o
 .ARM.attributes
                0x00000030       0x16 /home/leon/riotboard/arm-2012.09/bin/../lib/gcc/arm-none-eabi/4.7.2//crti.o
 .ARM.attributes
                0x00000046       0x30 /home/leon/riotboard/arm-2012.09/bin/../lib/gcc/arm-none-eabi/4.7.2//crtend.o
 .ARM.attributes
                0x00000076       0x18 /home/leon/riotboard/arm-2012.09/bin/../lib/gcc/arm-none-eabi/4.7.2//crtn.o
 .ARM.attributes
                0x0000008e       0x39 /home/leon/git/swp-report/iMX6_Platform_SDK/output/mx6sdl/sdk_unit_test/sabre_ai_rev_b/obj/apps/common/ivt.o
 .ARM.attributes
                0x000000c7       0x39 /home/leon/git/swp-report/iMX6_Platform_SDK/output/mx6sdl/sdk_unit_test/sabre_ai_rev_b/obj/apps/common/platform_init.o
 .ARM.attributes
                0x00000100       0x39 /home/leon/git/swp-report/iMX6_Platform_SDK/output/mx6sdl/sdk_unit_test/sabre_ai_rev_b/obj/apps/common/print_clock_info.o
 .ARM.attributes
                0x00000139       0x39 /home/leon/git/swp-report/iMX6_Platform_SDK/output/mx6sdl/sdk_unit_test/sabre_ai_rev_b/obj/apps/common/print_version.o
 .ARM.attributes
                0x00000172       0x39 /home/leon/git/swp-report/iMX6_Platform_SDK/output/mx6sdl/sdk_unit_test/sabre_ai_rev_b/obj/apps/sdk_unit_test/src/all_test.o
 .ARM.attributes
                0x000001ab       0x39 /home/leon/git/swp-report/iMX6_Platform_SDK/output/mx6sdl/sdk_unit_test/sabre_ai_rev_b/obj/apps/sdk_unit_test/src/unit_test_main.o
 .ARM.attributes
                0x000001e4       0x39 /home/leon/git/swp-report/iMX6_Platform_SDK/output/mx6sdl/lib/libsdk.a(ccm_pll.o)
 .ARM.attributes
                0x0000021d       0x16 /home/leon/git/swp-report/iMX6_Platform_SDK/output/mx6sdl/lib/libsdk.a(cortexA9.o)
 .ARM.attributes
                0x00000233       0x39 /home/leon/git/swp-report/iMX6_Platform_SDK/output/mx6sdl/lib/libsdk.a(gic.o)
 .ARM.attributes
                0x0000026c       0x39 /home/leon/git/swp-report/iMX6_Platform_SDK/output/mx6sdl/lib/libsdk.a(mmu.o)
 .ARM.attributes
                0x000002a5       0x16 /home/leon/git/swp-report/iMX6_Platform_SDK/output/mx6sdl/lib/libsdk.a(startup.o)
 .ARM.attributes
                0x000002bb       0x14 /home/leon/git/swp-report/iMX6_Platform_SDK/output/mx6sdl/lib/libsdk.a(vectors.o)
 .ARM.attributes
                0x000002cf       0x39 /home/leon/git/swp-report/iMX6_Platform_SDK/output/mx6sdl/lib/libsdk.a(menu.o)
 .ARM.attributes
                0x00000308       0x39 /home/leon/git/swp-report/iMX6_Platform_SDK/output/mx6sdl/lib/libsdk.a(sdk_version.o)
 .ARM.attributes
                0x00000341       0x39 /home/leon/git/swp-report/iMX6_Platform_SDK/output/mx6sdl/lib/libsdk.a(system_util.o)
 .ARM.attributes
                0x0000037a       0x39 /home/leon/git/swp-report/iMX6_Platform_SDK/output/mx6sdl/lib/libsdk.a(text_color.o)
 .ARM.attributes
                0x000003b3       0x39 /home/leon/git/swp-report/iMX6_Platform_SDK/output/mx6sdl/lib/libsdk.a(board_id.o)
 .ARM.attributes
                0x000003ec       0x39 /home/leon/git/swp-report/iMX6_Platform_SDK/output/mx6sdl/lib/libsdk.a(timer.o)
 .ARM.attributes
                0x00000425       0x39 /home/leon/git/swp-report/iMX6_Platform_SDK/output/mx6sdl/lib/libsdk.a(imx_uart.o)
 .ARM.attributes
                0x0000045e       0x14 /home/leon/git/swp-report/iMX6_Platform_SDK/output/mx6sdl/lib/libsdk.a(arm_abort.o)
 .ARM.attributes
                0x00000472       0x39 /home/leon/git/swp-report/iMX6_Platform_SDK/output/mx6sdl/lib/libsdk.a(interrupt.o)
 .ARM.attributes
                0x000004ab       0x39 /home/leon/git/swp-report/iMX6_Platform_SDK/output/mx6sdl/lib/libsdk.a(epit.o)
 .ARM.attributes
                0x000004e4       0x39 /home/leon/git/swp-report/iMX6_Platform_SDK/output/mx6sdl/lib/libsdk.a(abort_handler.o)
 .ARM.attributes
                0x0000051d       0x39 /home/leon/git/swp-report/iMX6_Platform_SDK/output/mx6sdl/lib/libboard_sabre_ai_rev_b.a(board_io_expanders.o)
 .ARM.attributes
                0x00000556       0x39 /home/leon/git/swp-report/iMX6_Platform_SDK/output/mx6sdl/lib/libboard_sabre_ai_rev_b.a(hardware_modules.o)
 .ARM.attributes
                0x0000058f       0x39 /home/leon/git/swp-report/iMX6_Platform_SDK/output/mx6sdl/lib/libboard_sabre_ai_rev_b.a(dcd.o)
 .ARM.attributes
                0x000005c8       0x39 /home/leon/git/swp-report/iMX6_Platform_SDK/output/mx6sdl/lib/libboard_sabre_ai_rev_b.a(i2c3_iomux_config.o)
 .ARM.attributes
                0x00000601       0x39 /home/leon/git/swp-report/iMX6_Platform_SDK/output/mx6sdl/lib/libboard_sabre_ai_rev_b.a(uart_iomux_config.o)
 .ARM.attributes
                0x0000063a       0x39 /home/leon/git/swp-report/iMX6_Platform_SDK/output/mx6sdl/lib/libboard_sabre_ai_rev_b.a(iomux_config.o)
 .ARM.attributes
                0x00000673       0x39 /home/leon/git/swp-report/iMX6_Platform_SDK/output/mx6sdl/lib/libboard_sabre_ai_rev_b.a(ipu1_iomux_config.o)
 .ARM.attributes
                0x000006ac       0x39 /home/leon/git/swp-report/iMX6_Platform_SDK/output/mx6sdl/lib/libboard_sabre_ai_rev_b.a(mlb_iomux_config.o)
 .ARM.attributes
                0x000006e5       0x39 /home/leon/git/swp-report/iMX6_Platform_SDK/output/mx6sdl/lib/libboard_sabre_ai_rev_b.a(mmdc_iomux_config.o)
 .ARM.attributes
                0x0000071e       0x39 /home/leon/git/swp-report/iMX6_Platform_SDK/output/mx6sdl/lib/libboard_sabre_ai_rev_b.a(pwm3_iomux_config.o)
 .ARM.attributes
                0x00000757       0x39 /home/leon/git/swp-report/iMX6_Platform_SDK/output/mx6sdl/lib/libboard_sabre_ai_rev_b.a(pwm4_iomux_config.o)
 .ARM.attributes
                0x00000790       0x39 /home/leon/git/swp-report/iMX6_Platform_SDK/output/mx6sdl/lib/libboard_sabre_ai_rev_b.a(sjc_iomux_config.o)
 .ARM.attributes
                0x000007c9       0x39 /home/leon/git/swp-report/iMX6_Platform_SDK/output/mx6sdl/lib/libboard_sabre_ai_rev_b.a(spdif_iomux_config.o)
 .ARM.attributes
                0x00000802       0x39 /home/leon/git/swp-report/iMX6_Platform_SDK/output/mx6sdl/lib/libboard_sabre_ai_rev_b.a(uart2_iomux_config.o)
 .ARM.attributes
                0x0000083b       0x39 /home/leon/git/swp-report/iMX6_Platform_SDK/output/mx6sdl/lib/libboard_sabre_ai_rev_b.a(uart3_iomux_config.o)
 .ARM.attributes
                0x00000874       0x39 /home/leon/git/swp-report/iMX6_Platform_SDK/output/mx6sdl/lib/libboard_sabre_ai_rev_b.a(uart4_iomux_config.o)
 .ARM.attributes
                0x000008ad       0x39 /home/leon/git/swp-report/iMX6_Platform_SDK/output/mx6sdl/lib/libboard_sabre_ai_rev_b.a(usdhc1_iomux_config.o)
 .ARM.attributes
                0x000008e6       0x39 /home/leon/git/swp-report/iMX6_Platform_SDK/output/mx6sdl/lib/libboard_sabre_ai_rev_b.a(usdhc3_iomux_config.o)
 .ARM.attributes
                0x0000091f       0x39 /home/leon/git/swp-report/iMX6_Platform_SDK/output/mx6sdl/lib/libboard_sabre_ai_rev_b.a(wdog1_iomux_config.o)
 .ARM.attributes
                0x00000958       0x39 /home/leon/git/swp-report/iMX6_Platform_SDK/output/mx6sdl/lib/libboard_sabre_ai_rev_b.a(audmux_iomux_config.o)
 .ARM.attributes
                0x00000991       0x39 /home/leon/git/swp-report/iMX6_Platform_SDK/output/mx6sdl/lib/libboard_sabre_ai_rev_b.a(ccm_iomux_config.o)
 .ARM.attributes
                0x000009ca       0x39 /home/leon/git/swp-report/iMX6_Platform_SDK/output/mx6sdl/lib/libboard_sabre_ai_rev_b.a(ecspi1_iomux_config.o)
 .ARM.attributes
                0x00000a03       0x39 /home/leon/git/swp-report/iMX6_Platform_SDK/output/mx6sdl/lib/libboard_sabre_ai_rev_b.a(eim_iomux_config.o)
 .ARM.attributes
                0x00000a3c       0x39 /home/leon/git/swp-report/iMX6_Platform_SDK/output/mx6sdl/lib/libboard_sabre_ai_rev_b.a(enet_iomux_config.o)
 .ARM.attributes
                0x00000a75       0x39 /home/leon/git/swp-report/iMX6_Platform_SDK/output/mx6sdl/lib/libboard_sabre_ai_rev_b.a(esai_iomux_config.o)
 .ARM.attributes
                0x00000aae       0x39 /home/leon/git/swp-report/iMX6_Platform_SDK/output/mx6sdl/lib/libboard_sabre_ai_rev_b.a(flexcan1_iomux_config.o)
 .ARM.attributes
                0x00000ae7       0x39 /home/leon/git/swp-report/iMX6_Platform_SDK/output/mx6sdl/lib/libboard_sabre_ai_rev_b.a(flexcan2_iomux_config.o)
 .ARM.attributes
                0x00000b20       0x39 /home/leon/git/swp-report/iMX6_Platform_SDK/output/mx6sdl/lib/libboard_sabre_ai_rev_b.a(gpio1_iomux_config.o)
 .ARM.attributes
                0x00000b59       0x39 /home/leon/git/swp-report/iMX6_Platform_SDK/output/mx6sdl/lib/libboard_sabre_ai_rev_b.a(gpio2_iomux_config.o)
 .ARM.attributes
                0x00000b92       0x39 /home/leon/git/swp-report/iMX6_Platform_SDK/output/mx6sdl/lib/libboard_sabre_ai_rev_b.a(gpio4_iomux_config.o)
 .ARM.attributes
                0x00000bcb       0x39 /home/leon/git/swp-report/iMX6_Platform_SDK/output/mx6sdl/lib/libboard_sabre_ai_rev_b.a(gpio5_iomux_config.o)
 .ARM.attributes
                0x00000c04       0x39 /home/leon/git/swp-report/iMX6_Platform_SDK/output/mx6sdl/lib/libboard_sabre_ai_rev_b.a(gpio6_iomux_config.o)
 .ARM.attributes
                0x00000c3d       0x39 /home/leon/git/swp-report/iMX6_Platform_SDK/output/mx6sdl/lib/libboard_sabre_ai_rev_b.a(gpmi_iomux_config.o)
 .ARM.attributes
                0x00000c76       0x39 /home/leon/git/swp-report/iMX6_Platform_SDK/output/mx6sdl/lib/libboard_sabre_ai_rev_b.a(i2c2_iomux_config.o)
 .ARM.attributes
                0x00000caf       0x39 /home/leon/git/swp-report/iMX6_Platform_SDK/output/mx6sdl/sdk_unit_test/sabre_ai_rev_b/libsdk_unit_test.a(gic_test.o)
 .ARM.attributes
                0x00000ce8       0x39 /home/leon/git/swp-report/iMX6_Platform_SDK/output/mx6sdl/sdk_unit_test/sabre_ai_rev_b/libsdk_unit_test.a(cpu_wp_test.o)
 .ARM.attributes
                0x00000d21       0x39 /home/leon/git/swp-report/iMX6_Platform_SDK/output/mx6sdl/sdk_unit_test/sabre_ai_rev_b/libsdk_unit_test.a(multicore_test.o)
 .ARM.attributes
                0x00000d5a       0x39 /home/leon/git/swp-report/iMX6_Platform_SDK/output/mx6sdl/sdk_unit_test/sabre_ai_rev_b/libsdk_unit_test.a(ocotp_test.o)
 .ARM.attributes
                0x00000d93       0x39 /home/leon/git/swp-report/iMX6_Platform_SDK/output/mx6sdl/sdk_unit_test/sabre_ai_rev_b/libsdk_unit_test.a(i2c_test.o)
 .ARM.attributes
                0x00000dcc       0x39 /home/leon/git/swp-report/iMX6_Platform_SDK/output/mx6sdl/sdk_unit_test/sabre_ai_rev_b/libsdk_unit_test.a(imx6_i2c_device.o)
 .ARM.attributes
                0x00000e05       0x39 /home/leon/git/swp-report/iMX6_Platform_SDK/output/mx6sdl/sdk_unit_test/sabre_ai_rev_b/libsdk_unit_test.a(snvs_rtc_test.o)
 .ARM.attributes
                0x00000e3e       0x39 /home/leon/git/swp-report/iMX6_Platform_SDK/output/mx6sdl/sdk_unit_test/sabre_ai_rev_b/libsdk_unit_test.a(snvs_srtc_test.o)
 .ARM.attributes
                0x00000e77       0x39 /home/leon/git/swp-report/iMX6_Platform_SDK/output/mx6sdl/sdk_unit_test/sabre_ai_rev_b/libsdk_unit_test.a(tempmon_test.o)
 .ARM.attributes
                0x00000eb0       0x39 /home/leon/git/swp-report/iMX6_Platform_SDK/output/mx6sdl/sdk_unit_test/sabre_ai_rev_b/libsdk_unit_test.a(sdma_test.o)
 .ARM.attributes
                0x00000ee9       0x39 /home/leon/git/swp-report/iMX6_Platform_SDK/output/mx6sdl/sdk_unit_test/sabre_ai_rev_b/libsdk_unit_test.a(spi_lpb.o)
 .ARM.attributes
                0x00000f22       0x39 /home/leon/git/swp-report/iMX6_Platform_SDK/output/mx6sdl/sdk_unit_test/sabre_ai_rev_b/libsdk_unit_test.a(uart_loopback.o)
 .ARM.attributes
                0x00000f5b       0x39 /home/leon/git/swp-report/iMX6_Platform_SDK/output/mx6sdl/sdk_unit_test/sabre_ai_rev_b/libsdk_unit_test.a(epit_test.o)
 .ARM.attributes
                0x00000f94       0x39 /home/leon/git/swp-report/iMX6_Platform_SDK/output/mx6sdl/sdk_unit_test/sabre_ai_rev_b/libsdk_unit_test.a(gpt_test.o)
 .ARM.attributes
                0x00000fcd       0x39 /home/leon/git/swp-report/iMX6_Platform_SDK/output/mx6sdl/sdk_unit_test/sabre_ai_rev_b/libsdk_unit_test.a(timer_test.o)
 .ARM.attributes
                0x00001006       0x39 /home/leon/git/swp-report/iMX6_Platform_SDK/output/mx6sdl/sdk_unit_test/sabre_ai_rev_b/libsdk_unit_test.a(uart_test.o)
 .ARM.attributes
                0x0000103f       0x39 /home/leon/git/swp-report/iMX6_Platform_SDK/output/mx6sdl/sdk_unit_test/sabre_ai_rev_b/libsdk_unit_test.a(usdhc_test.o)
 .ARM.attributes
                0x00001078       0x39 /home/leon/git/swp-report/iMX6_Platform_SDK/output/mx6sdl/sdk_unit_test/sabre_ai_rev_b/libsdk_unit_test.a(pwm_test.o)
 .ARM.attributes
                0x000010b1       0x39 /home/leon/git/swp-report/iMX6_Platform_SDK/output/mx6sdl/sdk_unit_test/sabre_ai_rev_b/libsdk_unit_test.a(watchdog_test.o)
 .ARM.attributes
                0x000010ea       0x39 /home/leon/git/swp-report/iMX6_Platform_SDK/output/mx6sdl/sdk_unit_test/sabre_ai_rev_b/libsdk_unit_test.a(hdmi_test.o)
 .ARM.attributes
                0x00001123       0x39 /home/leon/git/swp-report/iMX6_Platform_SDK/output/mx6sdl/sdk_unit_test/sabre_ai_rev_b/libsdk_unit_test.a(ips_display.o)
 .ARM.attributes
                0x0000115c       0x39 /home/leon/git/swp-report/iMX6_Platform_SDK/output/mx6sdl/sdk_unit_test/sabre_ai_rev_b/libsdk_unit_test.a(ips_test.o)
 .ARM.attributes
                0x00001195       0x39 /home/leon/git/swp-report/iMX6_Platform_SDK/output/mx6sdl/sdk_unit_test/sabre_ai_rev_b/libsdk_unit_test.a(ipu_image.o)
 .ARM.attributes
                0x000011ce       0x39 /home/leon/git/swp-report/iMX6_Platform_SDK/output/mx6sdl/sdk_unit_test/sabre_ai_rev_b/libsdk_unit_test.a(mipi_test.o)
 .ARM.attributes
                0x00001207       0x39 /home/leon/git/swp-report/iMX6_Platform_SDK/output/mx6sdl/sdk_unit_test/sabre_ai_rev_b/libsdk_unit_test.a(can_test.o)
 .ARM.attributes
                0x00001240       0x39 /home/leon/git/swp-report/iMX6_Platform_SDK/output/mx6sdl/sdk_unit_test/sabre_ai_rev_b/libsdk_unit_test.a(usb_test.o)
 .ARM.attributes
                0x00001279       0x39 /home/leon/git/swp-report/iMX6_Platform_SDK/output/mx6sdl/sdk_unit_test/sabre_ai_rev_b/libsdk_unit_test.a(eim_test.o)
 .ARM.attributes
                0x000012b2       0x39 /home/leon/git/swp-report/iMX6_Platform_SDK/output/mx6sdl/sdk_unit_test/sabre_ai_rev_b/libsdk_unit_test.a(pcie_test_rc.o)
 .ARM.attributes
                0x000012eb       0x39 /home/leon/git/swp-report/iMX6_Platform_SDK/output/mx6sdl/sdk_unit_test/sabre_ai_rev_b/libsdk_unit_test.a(spi_test.o)
 .ARM.attributes
                0x00001324       0x39 /home/leon/git/swp-report/iMX6_Platform_SDK/output/mx6sdl/sdk_unit_test/sabre_ai_rev_b/libsdk_unit_test.a(camera_test.o)
 .ARM.attributes
                0x0000135d       0x39 /home/leon/git/swp-report/iMX6_Platform_SDK/output/mx6sdl/sdk_unit_test/sabre_ai_rev_b/libsdk_unit_test.a(csi_test_mode.o)
 .ARM.attributes
                0x00001396       0x39 /home/leon/git/swp-report/iMX6_Platform_SDK/output/mx6sdl/sdk_unit_test/sabre_ai_rev_b/libsdk_unit_test.a(accelerometer_test.o)
 .ARM.attributes
                0x000013cf       0x39 /home/leon/git/swp-report/iMX6_Platform_SDK/output/mx6sdl/sdk_unit_test/sabre_ai_rev_b/libsdk_unit_test.a(at24cxx.o)
 .ARM.attributes
                0x00001408       0x39 /home/leon/git/swp-report/iMX6_Platform_SDK/output/mx6sdl/sdk_unit_test/sabre_ai_rev_b/libsdk_unit_test.a(mem_2_mem.o)
 .ARM.attributes
                0x00001441       0x39 /home/leon/git/swp-report/iMX6_Platform_SDK/output/mx6sdl/sdk_unit_test/sabre_ai_rev_b/libsdk_unit_test.a(pwm_output.o)
 .ARM.attributes
                0x0000147a       0x39 /home/leon/git/swp-report/iMX6_Platform_SDK/output/mx6sdl/sdk_unit_test/sabre_ai_rev_b/libsdk_unit_test.a(init_dma_data.o)
 .ARM.attributes
                0x000014b3       0x39 /home/leon/git/swp-report/iMX6_Platform_SDK/output/mx6sdl/sdk_unit_test/sabre_ai_rev_b/libsdk_unit_test.a(ips_combiner.o)
 .ARM.attributes
                0x000014ec       0x39 /home/leon/git/swp-report/iMX6_Platform_SDK/output/mx6sdl/sdk_unit_test/sabre_ai_rev_b/libsdk_unit_test.a(ips_csc.o)
 .ARM.attributes
                0x00001525       0x39 /home/leon/git/swp-report/iMX6_Platform_SDK/output/mx6sdl/sdk_unit_test/sabre_ai_rev_b/libsdk_unit_test.a(ips_resize.o)
 .ARM.attributes
                0x0000155e       0x39 /home/leon/git/swp-report/iMX6_Platform_SDK/output/mx6sdl/sdk_unit_test/sabre_ai_rev_b/libsdk_unit_test.a(ips_rotate.o)
 .ARM.attributes
                0x00001597       0x39 /home/leon/git/swp-report/iMX6_Platform_SDK/output/mx6sdl/sdk_unit_test/sabre_ai_rev_b/libsdk_unit_test.a(mipi_csi2_test.o)
 .ARM.attributes
                0x000015d0       0x39 /home/leon/git/swp-report/iMX6_Platform_SDK/output/mx6sdl/sdk_unit_test/sabre_ai_rev_b/libsdk_unit_test.a(mipi_dsi_test.o)
 .ARM.attributes
                0x00001609       0x39 /home/leon/git/swp-report/iMX6_Platform_SDK/output/mx6sdl/sdk_unit_test/sabre_ai_rev_b/libsdk_unit_test.a(usb0_device_mouse_test.o)
 .ARM.attributes
                0x00001642       0x39 /home/leon/git/swp-report/iMX6_Platform_SDK/output/mx6sdl/sdk_unit_test/sabre_ai_rev_b/libsdk_unit_test.a(usb0_host_test.o)
 .ARM.attributes
                0x0000167b       0x39 /home/leon/git/swp-report/iMX6_Platform_SDK/output/mx6sdl/sdk_unit_test/sabre_ai_rev_b/libsdk_unit_test.a(usb0_host_testmodes_test.o)
 .ARM.attributes
                0x000016b4       0x39 /home/leon/git/swp-report/iMX6_Platform_SDK/output/mx6sdl/sdk_unit_test/sabre_ai_rev_b/libsdk_unit_test.a(cfi_flash_api.o)
 .ARM.attributes
                0x000016ed       0x39 /home/leon/git/swp-report/iMX6_Platform_SDK/output/mx6sdl/sdk_unit_test/sabre_ai_rev_b/libsdk_unit_test.a(cfi_flash_driver.o)
 .ARM.attributes
                0x00001726       0x39 /home/leon/git/swp-report/iMX6_Platform_SDK/output/mx6sdl/sdk_unit_test/sabre_ai_rev_b/libsdk_unit_test.a(spi_nor_numonyx.o)
 .ARM.attributes
                0x0000175f       0x39 /home/leon/git/swp-report/iMX6_Platform_SDK/output/mx6sdl/sdk_unit_test/sabre_ai_rev_b/libsdk_unit_test.a(adv7180_capture.o)
 .ARM.attributes
                0x00001798       0x30 /home/leon/riotboard/arm-2012.09/bin/../arm-none-eabi/lib//libm.a(lib_a-sf_cos.o)
 .ARM.attributes
                0x000017c8       0x30 /home/leon/riotboard/arm-2012.09/bin/../arm-none-eabi/lib//libm.a(lib_a-sf_fabs.o)
 .ARM.attributes
                0x000017f8       0x30 /home/leon/riotboard/arm-2012.09/bin/../arm-none-eabi/lib//libm.a(lib_a-sf_modf.o)
 .ARM.attributes
                0x00001828       0x30 /home/leon/riotboard/arm-2012.09/bin/../arm-none-eabi/lib//libm.a(lib_a-sf_sin.o)
 .ARM.attributes
                0x00001858       0x30 /home/leon/riotboard/arm-2012.09/bin/../arm-none-eabi/lib//libm.a(lib_a-ef_rem_pio2.o)
 .ARM.attributes
                0x00001888       0x30 /home/leon/riotboard/arm-2012.09/bin/../arm-none-eabi/lib//libm.a(lib_a-kf_cos.o)
 .ARM.attributes
                0x000018b8       0x30 /home/leon/riotboard/arm-2012.09/bin/../arm-none-eabi/lib//libm.a(lib_a-kf_rem_pio2.o)
 .ARM.attributes
                0x000018e8       0x30 /home/leon/riotboard/arm-2012.09/bin/../arm-none-eabi/lib//libm.a(lib_a-kf_sin.o)
 .ARM.attributes
                0x00001918       0x30 /home/leon/riotboard/arm-2012.09/bin/../arm-none-eabi/lib//libm.a(lib_a-sf_floor.o)
 .ARM.attributes
                0x00001948       0x30 /home/leon/riotboard/arm-2012.09/bin/../arm-none-eabi/lib//libm.a(lib_a-sf_scalbn.o)
 .ARM.attributes
                0x00001978       0x30 /home/leon/riotboard/arm-2012.09/bin/../arm-none-eabi/lib//libm.a(lib_a-sf_copysign.o)
 .ARM.attributes
                0x000019a8       0x30 /home/leon/riotboard/arm-2012.09/bin/../arm-none-eabi/lib//libc.a(lib_a-assert.o)
 .ARM.attributes
                0x000019d8       0x30 /home/leon/riotboard/arm-2012.09/bin/../arm-none-eabi/lib//libc.a(lib_a-bzero.o)
 .ARM.attributes
                0x00001a08       0x30 /home/leon/riotboard/arm-2012.09/bin/../arm-none-eabi/lib//libc.a(lib_a-fflush.o)
 .ARM.attributes
                0x00001a38       0x30 /home/leon/riotboard/arm-2012.09/bin/../arm-none-eabi/lib//libc.a(lib_a-findfp.o)
 .ARM.attributes
                0x00001a68       0x30 /home/leon/riotboard/arm-2012.09/bin/../arm-none-eabi/lib//libc.a(lib_a-fiprintf.o)
 .ARM.attributes
                0x00001a98       0x30 /home/leon/riotboard/arm-2012.09/bin/../arm-none-eabi/lib//libc.a(lib_a-fputc.o)
 .ARM.attributes
                0x00001ac8       0x30 /home/leon/riotboard/arm-2012.09/bin/../arm-none-eabi/lib//libc.a(lib_a-fputs.o)
 .ARM.attributes
                0x00001af8       0x30 /home/leon/riotboard/arm-2012.09/bin/../arm-none-eabi/lib//libc.a(lib_a-freer.o)
 .ARM.attributes
                0x00001b28       0x30 /home/leon/riotboard/arm-2012.09/bin/../arm-none-eabi/lib//libc.a(lib_a-fvwrite.o)
 .ARM.attributes
                0x00001b58       0x30 /home/leon/riotboard/arm-2012.09/bin/../arm-none-eabi/lib//libc.a(lib_a-fwalk.o)
 .ARM.attributes
                0x00001b88       0x30 /home/leon/riotboard/arm-2012.09/bin/../arm-none-eabi/lib//libc.a(lib_a-impure.o)
 .ARM.attributes
                0x00001bb8       0x30 /home/leon/riotboard/arm-2012.09/bin/../arm-none-eabi/lib//libc.a(lib_a-init.o)
 .ARM.attributes
                0x00001be8       0x30 /home/leon/riotboard/arm-2012.09/bin/../arm-none-eabi/lib//libc.a(lib_a-malloc.o)
 .ARM.attributes
                0x00001c18       0x30 /home/leon/riotboard/arm-2012.09/bin/../arm-none-eabi/lib//libc.a(lib_a-mallocr.o)
 .ARM.attributes
                0x00001c48       0x30 /home/leon/riotboard/arm-2012.09/bin/../arm-none-eabi/lib//libc.a(lib_a-memchr.o)
 .ARM.attributes
                0x00001c78       0x30 /home/leon/riotboard/arm-2012.09/bin/../arm-none-eabi/lib//libc.a(lib_a-memcpy.o)
 .ARM.attributes
                0x00001ca8       0x30 /home/leon/riotboard/arm-2012.09/bin/../arm-none-eabi/lib//libc.a(lib_a-memmove.o)
 .ARM.attributes
                0x00001cd8       0x30 /home/leon/riotboard/arm-2012.09/bin/../arm-none-eabi/lib//libc.a(lib_a-memset.o)
 .ARM.attributes
                0x00001d08       0x30 /home/leon/riotboard/arm-2012.09/bin/../arm-none-eabi/lib//libc.a(lib_a-mlock.o)
 .ARM.attributes
                0x00001d38       0x30 /home/leon/riotboard/arm-2012.09/bin/../arm-none-eabi/lib//libc.a(lib_a-printf.o)
 .ARM.attributes
                0x00001d68       0x30 /home/leon/riotboard/arm-2012.09/bin/../arm-none-eabi/lib//libc.a(lib_a-putc.o)
 .ARM.attributes
                0x00001d98       0x30 /home/leon/riotboard/arm-2012.09/bin/../arm-none-eabi/lib//libc.a(lib_a-puts.o)
 .ARM.attributes
                0x00001dc8       0x30 /home/leon/riotboard/arm-2012.09/bin/../arm-none-eabi/lib//libc.a(lib_a-realloc.o)
 .ARM.attributes
                0x00001df8       0x30 /home/leon/riotboard/arm-2012.09/bin/../arm-none-eabi/lib//libc.a(lib_a-reallocr.o)
 .ARM.attributes
                0x00001e28       0x30 /home/leon/riotboard/arm-2012.09/bin/../arm-none-eabi/lib//libc.a(lib_a-rget.o)
 .ARM.attributes
                0x00001e58       0x30 /home/leon/riotboard/arm-2012.09/bin/../arm-none-eabi/lib//libc.a(lib_a-sbrkr.o)
 .ARM.attributes
                0x00001e88       0x30 /home/leon/riotboard/arm-2012.09/bin/../arm-none-eabi/lib//libc.a(lib_a-sprintf.o)
 .ARM.attributes
                0x00001eb8       0x30 /home/leon/riotboard/arm-2012.09/bin/../arm-none-eabi/lib//libc.a(lib_a-stdio.o)
 .ARM.attributes
                0x00001ee8       0x30 /home/leon/riotboard/arm-2012.09/bin/../arm-none-eabi/lib//libc.a(lib_a-strlen.o)
 .ARM.attributes
                0x00001f18       0x30 /home/leon/riotboard/arm-2012.09/bin/../arm-none-eabi/lib//libc.a(lib_a-strncasecmp.o)
 .ARM.attributes
                0x00001f48       0x30 /home/leon/riotboard/arm-2012.09/bin/../arm-none-eabi/lib//libc.a(lib_a-svfprintf.o)
 .ARM.attributes
                0x00001f78       0x30 /home/leon/riotboard/arm-2012.09/bin/../arm-none-eabi/lib//libc.a(lib_a-vfiprintf.o)
 .ARM.attributes
                0x00001fa8       0x30 /home/leon/riotboard/arm-2012.09/bin/../arm-none-eabi/lib//libc.a(lib_a-vfprintf.o)
 .ARM.attributes
                0x00001fd8       0x30 /home/leon/riotboard/arm-2012.09/bin/../arm-none-eabi/lib//libc.a(lib_a-vprintf.o)
 .ARM.attributes
                0x00002008       0x30 /home/leon/riotboard/arm-2012.09/bin/../arm-none-eabi/lib//libc.a(lib_a-wbuf.o)
 .ARM.attributes
                0x00002038       0x30 /home/leon/riotboard/arm-2012.09/bin/../arm-none-eabi/lib//libc.a(lib_a-writer.o)
 .ARM.attributes
                0x00002068       0x30 /home/leon/riotboard/arm-2012.09/bin/../arm-none-eabi/lib//libc.a(lib_a-wsetup.o)
 .ARM.attributes
                0x00002098       0x30 /home/leon/riotboard/arm-2012.09/bin/../arm-none-eabi/lib//libc.a(lib_a-abort.o)
 .ARM.attributes
                0x000020c8       0x30 /home/leon/riotboard/arm-2012.09/bin/../arm-none-eabi/lib//libc.a(lib_a-closer.o)
 .ARM.attributes
                0x000020f8       0x30 /home/leon/riotboard/arm-2012.09/bin/../arm-none-eabi/lib//libc.a(lib_a-ctype_.o)
 .ARM.attributes
                0x00002128       0x30 /home/leon/riotboard/arm-2012.09/bin/../arm-none-eabi/lib//libc.a(lib_a-dtoa.o)
 .ARM.attributes
                0x00002158       0x30 /home/leon/riotboard/arm-2012.09/bin/../arm-none-eabi/lib//libc.a(lib_a-fclose.o)
 .ARM.attributes
                0x00002188       0x30 /home/leon/riotboard/arm-2012.09/bin/../arm-none-eabi/lib//libc.a(lib_a-fputwc.o)
 .ARM.attributes
                0x000021b8       0x30 /home/leon/riotboard/arm-2012.09/bin/../arm-none-eabi/lib//libc.a(lib_a-locale.o)
 .ARM.attributes
                0x000021e8       0x30 /home/leon/riotboard/arm-2012.09/bin/../arm-none-eabi/lib//libc.a(lib_a-lseekr.o)
 .ARM.attributes
                0x00002218       0x30 /home/leon/riotboard/arm-2012.09/bin/../arm-none-eabi/lib//libc.a(lib_a-makebuf.o)
 .ARM.attributes
                0x00002248       0x30 /home/leon/riotboard/arm-2012.09/bin/../arm-none-eabi/lib//libc.a(lib_a-mprec.o)
 .ARM.attributes
                0x00002278       0x30 /home/leon/riotboard/arm-2012.09/bin/../arm-none-eabi/lib//libc.a(lib_a-readr.o)
 .ARM.attributes
                0x000022a8       0x30 /home/leon/riotboard/arm-2012.09/bin/../arm-none-eabi/lib//libc.a(lib_a-reent.o)
 .ARM.attributes
                0x000022d8       0x30 /home/leon/riotboard/arm-2012.09/bin/../arm-none-eabi/lib//libc.a(lib_a-refill.o)
 .ARM.attributes
                0x00002308       0x30 /home/leon/riotboard/arm-2012.09/bin/../arm-none-eabi/lib//libc.a(lib_a-s_fpclassify.o)
 .ARM.attributes
                0x00002338       0x30 /home/leon/riotboard/arm-2012.09/bin/../arm-none-eabi/lib//libc.a(lib_a-signal.o)
 .ARM.attributes
                0x00002368       0x30 /home/leon/riotboard/arm-2012.09/bin/../arm-none-eabi/lib//libc.a(lib_a-signalr.o)
 .ARM.attributes
                0x00002398       0x30 /home/leon/riotboard/arm-2012.09/bin/../arm-none-eabi/lib//libc.a(lib_a-strcmp.o)
 .ARM.attributes
                0x000023c8       0x30 /home/leon/riotboard/arm-2012.09/bin/../arm-none-eabi/lib//libc.a(lib_a-svfiprintf.o)
 .ARM.attributes
                0x000023f8       0x30 /home/leon/riotboard/arm-2012.09/bin/../arm-none-eabi/lib//libc.a(lib_a-wcrtomb.o)
 .ARM.attributes
                0x00002428       0x30 /home/leon/riotboard/arm-2012.09/bin/../arm-none-eabi/lib//libc.a(lib_a-wctomb_r.o)
 .ARM.attributes
                0x00002458       0x30 /home/leon/riotboard/arm-2012.09/bin/../arm-none-eabi/lib//libc.a(lib_a-callocr.o)
 .ARM.attributes
                0x00002488       0x30 /home/leon/riotboard/arm-2012.09/bin/../arm-none-eabi/lib//libc.a(lib_a-fstatr.o)
 .ARM.attributes
                0x000024b8       0x30 /home/leon/riotboard/arm-2012.09/bin/../arm-none-eabi/lib//libc.a(lib_a-isattyr.o)
 .ARM.attributes
                0x000024e8       0x18 /home/leon/riotboard/arm-2012.09/bin/../lib/gcc/arm-none-eabi/4.7.2//libgcc.a(_udivsi3.o)
 .ARM.attributes
                0x00002500       0x18 /home/leon/riotboard/arm-2012.09/bin/../lib/gcc/arm-none-eabi/4.7.2//libgcc.a(_divsi3.o)
 .ARM.attributes
                0x00002518       0x18 /home/leon/riotboard/arm-2012.09/bin/../lib/gcc/arm-none-eabi/4.7.2//libgcc.a(_dvmd_tls.o)
 .ARM.attributes
                0x00002530       0x18 /home/leon/riotboard/arm-2012.09/bin/../lib/gcc/arm-none-eabi/4.7.2//libgcc.a(_arm_addsubdf3.o)
 .ARM.attributes
                0x00002548       0x18 /home/leon/riotboard/arm-2012.09/bin/../lib/gcc/arm-none-eabi/4.7.2//libgcc.a(_arm_muldivdf3.o)
 .ARM.attributes
                0x00002560       0x18 /home/leon/riotboard/arm-2012.09/bin/../lib/gcc/arm-none-eabi/4.7.2//libgcc.a(_arm_cmpdf2.o)
 .ARM.attributes
                0x00002578       0x18 /home/leon/riotboard/arm-2012.09/bin/../lib/gcc/arm-none-eabi/4.7.2//libgcc.a(_arm_fixdfsi.o)
 .ARM.attributes
                0x00002590       0x18 /home/leon/riotboard/arm-2012.09/bin/../lib/gcc/arm-none-eabi/4.7.2//libgcc.a(_arm_addsubsf3.o)
 .ARM.attributes
                0x000025a8       0x18 /home/leon/riotboard/arm-2012.09/bin/../lib/gcc/arm-none-eabi/4.7.2//libgcc.a(_arm_muldivsf3.o)
 .ARM.attributes
                0x000025c0       0x18 /home/leon/riotboard/arm-2012.09/bin/../lib/gcc/arm-none-eabi/4.7.2//libgcc.a(_arm_cmpsf2.o)
 .ARM.attributes
                0x000025d8       0x18 /home/leon/riotboard/arm-2012.09/bin/../lib/gcc/arm-none-eabi/4.7.2//libgcc.a(_arm_fixsfsi.o)
 .ARM.attributes
                0x000025f0       0x18 /home/leon/riotboard/arm-2012.09/bin/../lib/gcc/arm-none-eabi/4.7.2//libgcc.a(_aeabi_uldivmod.o)
 .ARM.attributes
                0x00002608       0x30 /home/leon/riotboard/arm-2012.09/bin/../lib/gcc/arm-none-eabi/4.7.2//libgcc.a(bpabi.o)
 .ARM.attributes
                0x00002638       0x30 /home/leon/riotboard/arm-2012.09/bin/../lib/gcc/arm-none-eabi/4.7.2//libgcc.a(_divdi3.o)
 .ARM.attributes
                0x00002668       0x30 /home/leon/riotboard/arm-2012.09/bin/../lib/gcc/arm-none-eabi/4.7.2//libgcc.a(_udivdi3.o)
 .ARM.attributes
                0x00002698       0x18 /home/leon/riotboard/arm-2012.09/bin/../lib/gcc/arm-none-eabi/4.7.2//libgcc.a(_clzsi2.o)
 .ARM.attributes
                0x000026b0       0x39 /home/leon/git/swp-report/iMX6_Platform_SDK/output/mx6sdl/lib/libsdk.a(max7310.o)
 .ARM.attributes
                0x000026e9       0x39 /home/leon/git/swp-report/iMX6_Platform_SDK/output/mx6sdl/lib/libsdk.a(profile.o)
 .ARM.attributes
                0x00002722       0x39 /home/leon/git/swp-report/iMX6_Platform_SDK/output/mx6sdl/lib/libsdk.a(armv7_cache.o)
 .ARM.attributes
                0x0000275b       0x39 /home/leon/git/swp-report/iMX6_Platform_SDK/output/mx6sdl/lib/libsdk.a(runtime_support.o)
 .ARM.attributes
                0x00002794       0x39 /home/leon/git/swp-report/iMX6_Platform_SDK/output/mx6sdl/lib/libsdk.a(mma8451.o)
 .ARM.attributes
                0x000027cd       0x39 /home/leon/git/swp-report/iMX6_Platform_SDK/output/mx6sdl/lib/libsdk.a(cpu_get_cores.o)
 .ARM.attributes
                0x00002806       0x39 /home/leon/git/swp-report/iMX6_Platform_SDK/output/mx6sdl/lib/libsdk.a(cpu_multicore.o)
 .ARM.attributes
                0x0000283f       0x39 /home/leon/git/swp-report/iMX6_Platform_SDK/output/mx6sdl/lib/libsdk.a(cpu_workpoint.o)
 .ARM.attributes
                0x00002878       0x39 /home/leon/git/swp-report/iMX6_Platform_SDK/output/mx6sdl/lib/libsdk.a(eim.o)
 .ARM.attributes
                0x000028b1       0x39 /home/leon/git/swp-report/iMX6_Platform_SDK/output/mx6sdl/lib/libsdk.a(can.o)
 .ARM.attributes
                0x000028ea       0x39 /home/leon/git/swp-report/iMX6_Platform_SDK/output/mx6sdl/lib/libsdk.a(gpio.o)
 .ARM.attributes
                0x00002923       0x39 /home/leon/git/swp-report/iMX6_Platform_SDK/output/mx6sdl/lib/libsdk.a(imx6sdl_gpio_map.o)
 .ARM.attributes
                0x0000295c       0x39 /home/leon/git/swp-report/iMX6_Platform_SDK/output/mx6sdl/lib/libsdk.a(hdmi_tx.o)
 .ARM.attributes
                0x00002995       0x39 /home/leon/git/swp-report/iMX6_Platform_SDK/output/mx6sdl/lib/libsdk.a(hdmi_tx_audio.o)
 .ARM.attributes
                0x000029ce       0x39 /home/leon/git/swp-report/iMX6_Platform_SDK/output/mx6sdl/lib/libsdk.a(hdmi_tx_phy.o)
 .ARM.attributes
                0x00002a07       0x39 /home/leon/git/swp-report/iMX6_Platform_SDK/output/mx6sdl/lib/libsdk.a(imx_i2c.o)
 .ARM.attributes
                0x00002a40       0x39 /home/leon/git/swp-report/iMX6_Platform_SDK/output/mx6sdl/lib/libsdk.a(imx_i2c_slave.o)
 .ARM.attributes
                0x00002a79       0x39 /home/leon/git/swp-report/iMX6_Platform_SDK/output/mx6sdl/lib/libsdk.a(ips_disp_panel.o)
 .ARM.attributes
                0x00002ab2       0x39 /home/leon/git/swp-report/iMX6_Platform_SDK/output/mx6sdl/lib/libsdk.a(ipu_common.o)
 .ARM.attributes
                0x00002aeb       0x39 /home/leon/git/swp-report/iMX6_Platform_SDK/output/mx6sdl/lib/libsdk.a(ipu_csi.o)
 .ARM.attributes
                0x00002b24       0x39 /home/leon/git/swp-report/iMX6_Platform_SDK/output/mx6sdl/lib/libsdk.a(ipu_dc.o)
 .ARM.attributes
                0x00002b5d       0x39 /home/leon/git/swp-report/iMX6_Platform_SDK/output/mx6sdl/lib/libsdk.a(ipu_di.o)
 .ARM.attributes
                0x00002b96       0x39 /home/leon/git/swp-report/iMX6_Platform_SDK/output/mx6sdl/lib/libsdk.a(ipu_dmfc.o)
 .ARM.attributes
                0x00002bcf       0x39 /home/leon/git/swp-report/iMX6_Platform_SDK/output/mx6sdl/lib/libsdk.a(ipu_dp.o)
 .ARM.attributes
                0x00002c08       0x39 /home/leon/git/swp-report/iMX6_Platform_SDK/output/mx6sdl/lib/libsdk.a(ipu_ic.o)
 .ARM.attributes
                0x00002c41       0x39 /home/leon/git/swp-report/iMX6_Platform_SDK/output/mx6sdl/lib/libsdk.a(ipu_idmac.o)
 .ARM.attributes
                0x00002c7a       0x39 /home/leon/git/swp-report/iMX6_Platform_SDK/output/mx6sdl/lib/libsdk.a(ipu_vdi.o)
 .ARM.attributes
                0x00002cb3       0x39 /home/leon/git/swp-report/iMX6_Platform_SDK/output/mx6sdl/lib/libsdk.a(ldb.o)
 .ARM.attributes
                0x00002cec       0x39 /home/leon/git/swp-report/iMX6_Platform_SDK/output/mx6sdl/lib/libsdk.a(mipi_csi2_common.o)
 .ARM.attributes
                0x00002d25       0x39 /home/leon/git/swp-report/iMX6_Platform_SDK/output/mx6sdl/lib/libsdk.a(mipi_dsi_common.o)
 .ARM.attributes
                0x00002d5e       0x39 /home/leon/git/swp-report/iMX6_Platform_SDK/output/mx6sdl/lib/libsdk.a(ov5640_mipi_fm.o)
 .ARM.attributes
                0x00002d97       0x39 /home/leon/git/swp-report/iMX6_Platform_SDK/output/mx6sdl/lib/libsdk.a(ocotp.o)
 .ARM.attributes
                0x00002dd0       0x39 /home/leon/git/swp-report/iMX6_Platform_SDK/output/mx6sdl/lib/libsdk.a(pcie.o)
 .ARM.attributes
                0x00002e09       0x39 /home/leon/git/swp-report/iMX6_Platform_SDK/output/mx6sdl/lib/libsdk.a(pcie_phy.o)
 .ARM.attributes
                0x00002e42       0x39 /home/leon/git/swp-report/iMX6_Platform_SDK/output/mx6sdl/lib/libsdk.a(pcie_prot.o)
 .ARM.attributes
                0x00002e7b       0x39 /home/leon/git/swp-report/iMX6_Platform_SDK/output/mx6sdl/lib/libsdk.a(pmu_driver.o)
 .ARM.attributes
                0x00002eb4       0x39 /home/leon/git/swp-report/iMX6_Platform_SDK/output/mx6sdl/lib/libsdk.a(pwm.o)
 .ARM.attributes
                0x00002eed       0x39 /home/leon/git/swp-report/iMX6_Platform_SDK/output/mx6sdl/lib/libsdk.a(rtc.o)
 .ARM.attributes
                0x00002f26       0x39 /home/leon/git/swp-report/iMX6_Platform_SDK/output/mx6sdl/lib/libsdk.a(srtc.o)
 .ARM.attributes
                0x00002f5f       0x39 /home/leon/git/swp-report/iMX6_Platform_SDK/output/mx6sdl/lib/libsdk.a(sdma.o)
 .ARM.attributes
                0x00002f98       0x39 /home/leon/git/swp-report/iMX6_Platform_SDK/output/mx6sdl/lib/libsdk.a(sdma_script_info.o)
 .ARM.attributes
                0x00002fd1       0x39 /home/leon/git/swp-report/iMX6_Platform_SDK/output/mx6sdl/lib/libsdk.a(snvs.o)
 .ARM.attributes
                0x0000300a       0x39 /home/leon/git/swp-report/iMX6_Platform_SDK/output/mx6sdl/lib/libsdk.a(ecspi.o)
 .ARM.attributes
                0x00003043       0x39 /home/leon/git/swp-report/iMX6_Platform_SDK/output/mx6sdl/lib/libsdk.a(tempmon.o)
 .ARM.attributes
                0x0000307c       0x39 /home/leon/git/swp-report/iMX6_Platform_SDK/output/mx6sdl/lib/libsdk.a(gpt.o)
 .ARM.attributes
                0x000030b5       0x39 /home/leon/git/swp-report/iMX6_Platform_SDK/output/mx6sdl/lib/libsdk.a(usb_common.o)
 .ARM.attributes
                0x000030ee       0x39 /home/leon/git/swp-report/iMX6_Platform_SDK/output/mx6sdl/lib/libsdk.a(usbd_drv.o)
 .ARM.attributes
                0x00003127       0x39 /home/leon/git/swp-report/iMX6_Platform_SDK/output/mx6sdl/lib/libsdk.a(usbh_drv.o)
 .ARM.attributes
                0x00003160       0x39 /home/leon/git/swp-report/iMX6_Platform_SDK/output/mx6sdl/lib/libsdk.a(usdhc.o)
 .ARM.attributes
                0x00003199       0x39 /home/leon/git/swp-report/iMX6_Platform_SDK/output/mx6sdl/lib/libsdk.a(usdhc_host.o)
 .ARM.attributes
                0x000031d2       0x39 /home/leon/git/swp-report/iMX6_Platform_SDK/output/mx6sdl/lib/libsdk.a(usdhc_mmc.o)
 .ARM.attributes
                0x0000320b       0x39 /home/leon/git/swp-report/iMX6_Platform_SDK/output/mx6sdl/lib/libsdk.a(usdhc_sd.o)
 .ARM.attributes
                0x00003244       0x39 /home/leon/git/swp-report/iMX6_Platform_SDK/output/mx6sdl/lib/libsdk.a(adv7180.o)
 .ARM.attributes
                0x0000327d       0x39 /home/leon/git/swp-report/iMX6_Platform_SDK/output/mx6sdl/lib/libsdk.a(hdmi_common.o)
 .ARM.attributes
                0x000032b6       0x39 /home/leon/git/swp-report/iMX6_Platform_SDK/output/mx6sdl/lib/libsdk.a(mx6x_usb.o)
 .ARM.attributes
                0x000032ef       0x39 /home/leon/git/swp-report/iMX6_Platform_SDK/output/mx6sdl/lib/libboard_sabre_ai_rev_b.a(board_camera.o)
 .ARM.attributes
                0x00003328       0x39 /home/leon/git/swp-report/iMX6_Platform_SDK/output/mx6sdl/lib/libboard_sabre_ai_rev_b.a(board_can.o)
 .ARM.attributes
                0x00003361       0x39 /home/leon/git/swp-report/iMX6_Platform_SDK/output/mx6sdl/lib/libboard_sabre_ai_rev_b.a(board_display.o)
 .ARM.attributes
                0x0000339a       0x39 /home/leon/git/swp-report/iMX6_Platform_SDK/output/mx6sdl/lib/libboard_sabre_ai_rev_b.a(board_hdmi.o)
 .ARM.attributes
                0x000033d3       0x39 /home/leon/git/swp-report/iMX6_Platform_SDK/output/mx6sdl/lib/libboard_sabre_ai_rev_b.a(board_i2c.o)
 .ARM.attributes
                0x0000340c       0x39 /home/leon/git/swp-report/iMX6_Platform_SDK/output/mx6sdl/lib/libboard_sabre_ai_rev_b.a(board_mipi.o)
 .ARM.attributes
                0x00003445       0x39 /home/leon/git/swp-report/iMX6_Platform_SDK/output/mx6sdl/lib/libboard_sabre_ai_rev_b.a(board_pcie.o)
 .ARM.attributes
                0x0000347e       0x39 /home/leon/git/swp-report/iMX6_Platform_SDK/output/mx6sdl/lib/libboard_sabre_ai_rev_b.a(board_usb.o)
 .ARM.attributes
                0x000034b7       0x39 /home/leon/git/swp-report/iMX6_Platform_SDK/output/mx6sdl/lib/libboard_sabre_ai_rev_b.a(board_usdhc.o)
 .ARM.attributes
                0x000034f0       0x39 /home/leon/git/swp-report/iMX6_Platform_SDK/output/mx6sdl/lib/libboard_sabre_ai_rev_b.a(ecspi_iomux_config.o)
 .ARM.attributes
                0x00003529       0x39 /home/leon/git/swp-report/iMX6_Platform_SDK/output/mx6sdl/lib/libboard_sabre_ai_rev_b.a(flexcan_iomux_config.o)
 .ARM.attributes
                0x00003562       0x39 /home/leon/git/swp-report/iMX6_Platform_SDK/output/mx6sdl/lib/libboard_sabre_ai_rev_b.a(i2c_iomux_config.o)
 .ARM.attributes
                0x0000359b       0x39 /home/leon/git/swp-report/iMX6_Platform_SDK/output/mx6sdl/lib/libboard_sabre_ai_rev_b.a(pwm_iomux_config.o)
 .ARM.attributes
                0x000035d4       0x39 /home/leon/git/swp-report/iMX6_Platform_SDK/output/mx6sdl/lib/libboard_sabre_ai_rev_b.a(usdhc_iomux_config.o)
 .ARM.attributes
                0x0000360d       0x30 /home/leon/riotboard/arm-2012.09/bin/../arm-none-eabi/lib//libstdc++.a(pure.o)
 .ARM.attributes
                0x0000363d       0x30 /home/leon/riotboard/arm-2012.09/bin/../arm-none-eabi/lib//libstdc++.a(eh_terminate.o)
 .ARM.attributes
                0x0000366d       0x30 /home/leon/riotboard/arm-2012.09/bin/../arm-none-eabi/lib//libstdc++.a(eh_unex_handler.o)
 .ARM.attributes
                0x0000369d       0x30 /home/leon/riotboard/arm-2012.09/bin/../arm-none-eabi/lib//libstdc++.a(eh_call.o)
 .ARM.attributes
                0x000036cd       0x30 /home/leon/riotboard/arm-2012.09/bin/../arm-none-eabi/lib//libstdc++.a(eh_throw.o)
 .ARM.attributes
                0x000036fd       0x30 /home/leon/riotboard/arm-2012.09/bin/../arm-none-eabi/lib//libstdc++.a(eh_arm.o)
 .ARM.attributes
                0x0000372d       0x30 /home/leon/riotboard/arm-2012.09/bin/../arm-none-eabi/lib//libstdc++.a(eh_exception.o)
 .ARM.attributes
                0x0000375d       0x30 /home/leon/riotboard/arm-2012.09/bin/../arm-none-eabi/lib//libstdc++.a(eh_alloc.o)
 .ARM.attributes
                0x0000378d       0x30 /home/leon/riotboard/arm-2012.09/bin/../arm-none-eabi/lib//libstdc++.a(eh_globals.o)
 .ARM.attributes
                0x000037bd       0x30 /home/leon/riotboard/arm-2012.09/bin/../arm-none-eabi/lib//libstdc++.a(si_class_type_info.o)
 .ARM.attributes
                0x000037ed       0x30 /home/leon/riotboard/arm-2012.09/bin/../arm-none-eabi/lib//libstdc++.a(eh_personality.o)
 .ARM.attributes
                0x0000381d       0x30 /home/leon/riotboard/arm-2012.09/bin/../arm-none-eabi/lib//libstdc++.a(eh_term_handler.o)
 .ARM.attributes
                0x0000384d       0x30 /home/leon/riotboard/arm-2012.09/bin/../arm-none-eabi/lib//libstdc++.a(eh_catch.o)
 .ARM.attributes
                0x0000387d       0x30 /home/leon/riotboard/arm-2012.09/bin/../arm-none-eabi/lib//libstdc++.a(class_type_info.o)
 .ARM.attributes
                0x000038ad       0x30 /home/leon/riotboard/arm-2012.09/bin/../arm-none-eabi/lib//libstdc++.a(vterminate.o)
 .ARM.attributes
                0x000038dd       0x30 /home/leon/riotboard/arm-2012.09/bin/../arm-none-eabi/lib//libstdc++.a(cp-demangle.o)
 .ARM.attributes
                0x0000390d       0x30 /home/leon/riotboard/arm-2012.09/bin/../arm-none-eabi/lib//libstdc++.a(eh_type.o)
 .ARM.attributes
                0x0000393d       0x30 /home/leon/riotboard/arm-2012.09/bin/../arm-none-eabi/lib//libstdc++.a(del_op.o)
 .ARM.attributes
                0x0000396d       0x30 /home/leon/riotboard/arm-2012.09/bin/../arm-none-eabi/lib//libstdc++.a(tinfo.o)
 .ARM.attributes
                0x0000399d       0x30 /home/leon/riotboard/arm-2012.09/bin/../arm-none-eabi/lib//libc.a(lib_a-fwrite.o)
 .ARM.attributes
                0x000039cd       0x30 /home/leon/riotboard/arm-2012.09/bin/../arm-none-eabi/lib//libc.a(lib_a-memcmp.o)
 .ARM.attributes
                0x000039fd       0x30 /home/leon/riotboard/arm-2012.09/bin/../arm-none-eabi/lib//libc.a(lib_a-strncmp.o)
 .ARM.attributes
                0x00003a2d       0x30 /home/leon/riotboard/arm-2012.09/bin/../arm-none-eabi/lib//libc.a(lib_a-syswrite.o)
 .ARM.attributes
                0x00003a5d       0x30 /home/leon/riotboard/arm-2012.09/bin/../lib/gcc/arm-none-eabi/4.7.2//libgcc.a(unwind-arm.o)
 .ARM.attributes
                0x00003a8d       0x1c /home/leon/riotboard/arm-2012.09/bin/../lib/gcc/arm-none-eabi/4.7.2//libgcc.a(libunwind.o)
 .ARM.attributes
                0x00003aa9       0x30 /home/leon/riotboard/arm-2012.09/bin/../lib/gcc/arm-none-eabi/4.7.2//libgcc.a(pr-support.o)

.comment        0x00000000       0x30
 .comment       0x00000000       0x30 /home/leon/git/swp-report/iMX6_Platform_SDK/output/mx6sdl/sdk_unit_test/sabre_ai_rev_b/obj/apps/common/ivt.o
                                 0x31 (size before relaxing)
 .comment       0x00000000       0x31 /home/leon/git/swp-report/iMX6_Platform_SDK/output/mx6sdl/sdk_unit_test/sabre_ai_rev_b/obj/apps/common/platform_init.o
 .comment       0x00000000       0x31 /home/leon/git/swp-report/iMX6_Platform_SDK/output/mx6sdl/sdk_unit_test/sabre_ai_rev_b/obj/apps/common/print_clock_info.o
 .comment       0x00000000       0x31 /home/leon/git/swp-report/iMX6_Platform_SDK/output/mx6sdl/sdk_unit_test/sabre_ai_rev_b/obj/apps/common/print_version.o
 .comment       0x00000000       0x31 /home/leon/git/swp-report/iMX6_Platform_SDK/output/mx6sdl/sdk_unit_test/sabre_ai_rev_b/obj/apps/sdk_unit_test/src/all_test.o
 .comment       0x00000000       0x31 /home/leon/git/swp-report/iMX6_Platform_SDK/output/mx6sdl/sdk_unit_test/sabre_ai_rev_b/obj/apps/sdk_unit_test/src/unit_test_main.o
 .comment       0x00000000       0x31 /home/leon/git/swp-report/iMX6_Platform_SDK/output/mx6sdl/lib/libsdk.a(ccm_pll.o)
 .comment       0x00000000       0x31 /home/leon/git/swp-report/iMX6_Platform_SDK/output/mx6sdl/lib/libsdk.a(gic.o)
 .comment       0x00000000       0x31 /home/leon/git/swp-report/iMX6_Platform_SDK/output/mx6sdl/lib/libsdk.a(mmu.o)
 .comment       0x00000000       0x31 /home/leon/git/swp-report/iMX6_Platform_SDK/output/mx6sdl/lib/libsdk.a(menu.o)
 .comment       0x00000000       0x31 /home/leon/git/swp-report/iMX6_Platform_SDK/output/mx6sdl/lib/libsdk.a(sdk_version.o)
 .comment       0x00000000       0x31 /home/leon/git/swp-report/iMX6_Platform_SDK/output/mx6sdl/lib/libsdk.a(system_util.o)
 .comment       0x00000000       0x31 /home/leon/git/swp-report/iMX6_Platform_SDK/output/mx6sdl/lib/libsdk.a(text_color.o)
 .comment       0x00000000       0x31 /home/leon/git/swp-report/iMX6_Platform_SDK/output/mx6sdl/lib/libsdk.a(board_id.o)
 .comment       0x00000000       0x31 /home/leon/git/swp-report/iMX6_Platform_SDK/output/mx6sdl/lib/libsdk.a(timer.o)
 .comment       0x00000000       0x31 /home/leon/git/swp-report/iMX6_Platform_SDK/output/mx6sdl/lib/libsdk.a(imx_uart.o)
 .comment       0x00000000       0x31 /home/leon/git/swp-report/iMX6_Platform_SDK/output/mx6sdl/lib/libsdk.a(interrupt.o)
 .comment       0x00000000       0x31 /home/leon/git/swp-report/iMX6_Platform_SDK/output/mx6sdl/lib/libsdk.a(epit.o)
 .comment       0x00000000       0x31 /home/leon/git/swp-report/iMX6_Platform_SDK/output/mx6sdl/lib/libsdk.a(abort_handler.o)
 .comment       0x00000000       0x31 /home/leon/git/swp-report/iMX6_Platform_SDK/output/mx6sdl/lib/libboard_sabre_ai_rev_b.a(board_io_expanders.o)
 .comment       0x00000000       0x31 /home/leon/git/swp-report/iMX6_Platform_SDK/output/mx6sdl/lib/libboard_sabre_ai_rev_b.a(hardware_modules.o)
 .comment       0x00000000       0x31 /home/leon/git/swp-report/iMX6_Platform_SDK/output/mx6sdl/lib/libboard_sabre_ai_rev_b.a(dcd.o)
 .comment       0x00000000       0x31 /home/leon/git/swp-report/iMX6_Platform_SDK/output/mx6sdl/lib/libboard_sabre_ai_rev_b.a(i2c3_iomux_config.o)
 .comment       0x00000000       0x31 /home/leon/git/swp-report/iMX6_Platform_SDK/output/mx6sdl/lib/libboard_sabre_ai_rev_b.a(uart_iomux_config.o)
 .comment       0x00000000       0x31 /home/leon/git/swp-report/iMX6_Platform_SDK/output/mx6sdl/lib/libboard_sabre_ai_rev_b.a(iomux_config.o)
 .comment       0x00000000       0x31 /home/leon/git/swp-report/iMX6_Platform_SDK/output/mx6sdl/lib/libboard_sabre_ai_rev_b.a(ipu1_iomux_config.o)
 .comment       0x00000000       0x31 /home/leon/git/swp-report/iMX6_Platform_SDK/output/mx6sdl/lib/libboard_sabre_ai_rev_b.a(mlb_iomux_config.o)
 .comment       0x00000000       0x31 /home/leon/git/swp-report/iMX6_Platform_SDK/output/mx6sdl/lib/libboard_sabre_ai_rev_b.a(mmdc_iomux_config.o)
 .comment       0x00000000       0x31 /home/leon/git/swp-report/iMX6_Platform_SDK/output/mx6sdl/lib/libboard_sabre_ai_rev_b.a(pwm3_iomux_config.o)
 .comment       0x00000000       0x31 /home/leon/git/swp-report/iMX6_Platform_SDK/output/mx6sdl/lib/libboard_sabre_ai_rev_b.a(pwm4_iomux_config.o)
 .comment       0x00000000       0x31 /home/leon/git/swp-report/iMX6_Platform_SDK/output/mx6sdl/lib/libboard_sabre_ai_rev_b.a(sjc_iomux_config.o)
 .comment       0x00000000       0x31 /home/leon/git/swp-report/iMX6_Platform_SDK/output/mx6sdl/lib/libboard_sabre_ai_rev_b.a(spdif_iomux_config.o)
 .comment       0x00000000       0x31 /home/leon/git/swp-report/iMX6_Platform_SDK/output/mx6sdl/lib/libboard_sabre_ai_rev_b.a(uart2_iomux_config.o)
 .comment       0x00000000       0x31 /home/leon/git/swp-report/iMX6_Platform_SDK/output/mx6sdl/lib/libboard_sabre_ai_rev_b.a(uart3_iomux_config.o)
 .comment       0x00000000       0x31 /home/leon/git/swp-report/iMX6_Platform_SDK/output/mx6sdl/lib/libboard_sabre_ai_rev_b.a(uart4_iomux_config.o)
 .comment       0x00000000       0x31 /home/leon/git/swp-report/iMX6_Platform_SDK/output/mx6sdl/lib/libboard_sabre_ai_rev_b.a(usdhc1_iomux_config.o)
 .comment       0x00000000       0x31 /home/leon/git/swp-report/iMX6_Platform_SDK/output/mx6sdl/lib/libboard_sabre_ai_rev_b.a(usdhc3_iomux_config.o)
 .comment       0x00000000       0x31 /home/leon/git/swp-report/iMX6_Platform_SDK/output/mx6sdl/lib/libboard_sabre_ai_rev_b.a(wdog1_iomux_config.o)
 .comment       0x00000000       0x31 /home/leon/git/swp-report/iMX6_Platform_SDK/output/mx6sdl/lib/libboard_sabre_ai_rev_b.a(audmux_iomux_config.o)
 .comment       0x00000000       0x31 /home/leon/git/swp-report/iMX6_Platform_SDK/output/mx6sdl/lib/libboard_sabre_ai_rev_b.a(ccm_iomux_config.o)
 .comment       0x00000000       0x31 /home/leon/git/swp-report/iMX6_Platform_SDK/output/mx6sdl/lib/libboard_sabre_ai_rev_b.a(ecspi1_iomux_config.o)
 .comment       0x00000000       0x31 /home/leon/git/swp-report/iMX6_Platform_SDK/output/mx6sdl/lib/libboard_sabre_ai_rev_b.a(eim_iomux_config.o)
 .comment       0x00000000       0x31 /home/leon/git/swp-report/iMX6_Platform_SDK/output/mx6sdl/lib/libboard_sabre_ai_rev_b.a(enet_iomux_config.o)
 .comment       0x00000000       0x31 /home/leon/git/swp-report/iMX6_Platform_SDK/output/mx6sdl/lib/libboard_sabre_ai_rev_b.a(esai_iomux_config.o)
 .comment       0x00000000       0x31 /home/leon/git/swp-report/iMX6_Platform_SDK/output/mx6sdl/lib/libboard_sabre_ai_rev_b.a(flexcan1_iomux_config.o)
 .comment       0x00000000       0x31 /home/leon/git/swp-report/iMX6_Platform_SDK/output/mx6sdl/lib/libboard_sabre_ai_rev_b.a(flexcan2_iomux_config.o)
 .comment       0x00000000       0x31 /home/leon/git/swp-report/iMX6_Platform_SDK/output/mx6sdl/lib/libboard_sabre_ai_rev_b.a(gpio1_iomux_config.o)
 .comment       0x00000000       0x31 /home/leon/git/swp-report/iMX6_Platform_SDK/output/mx6sdl/lib/libboard_sabre_ai_rev_b.a(gpio2_iomux_config.o)
 .comment       0x00000000       0x31 /home/leon/git/swp-report/iMX6_Platform_SDK/output/mx6sdl/lib/libboard_sabre_ai_rev_b.a(gpio4_iomux_config.o)
 .comment       0x00000000       0x31 /home/leon/git/swp-report/iMX6_Platform_SDK/output/mx6sdl/lib/libboard_sabre_ai_rev_b.a(gpio5_iomux_config.o)
 .comment       0x00000000       0x31 /home/leon/git/swp-report/iMX6_Platform_SDK/output/mx6sdl/lib/libboard_sabre_ai_rev_b.a(gpio6_iomux_config.o)
 .comment       0x00000000       0x31 /home/leon/git/swp-report/iMX6_Platform_SDK/output/mx6sdl/lib/libboard_sabre_ai_rev_b.a(gpmi_iomux_config.o)
 .comment       0x00000000       0x31 /home/leon/git/swp-report/iMX6_Platform_SDK/output/mx6sdl/lib/libboard_sabre_ai_rev_b.a(i2c2_iomux_config.o)
 .comment       0x00000000       0x31 /home/leon/git/swp-report/iMX6_Platform_SDK/output/mx6sdl/sdk_unit_test/sabre_ai_rev_b/libsdk_unit_test.a(gic_test.o)
 .comment       0x00000000       0x31 /home/leon/git/swp-report/iMX6_Platform_SDK/output/mx6sdl/sdk_unit_test/sabre_ai_rev_b/libsdk_unit_test.a(cpu_wp_test.o)
 .comment       0x00000000       0x31 /home/leon/git/swp-report/iMX6_Platform_SDK/output/mx6sdl/sdk_unit_test/sabre_ai_rev_b/libsdk_unit_test.a(multicore_test.o)
 .comment       0x00000000       0x31 /home/leon/git/swp-report/iMX6_Platform_SDK/output/mx6sdl/sdk_unit_test/sabre_ai_rev_b/libsdk_unit_test.a(ocotp_test.o)
 .comment       0x00000000       0x31 /home/leon/git/swp-report/iMX6_Platform_SDK/output/mx6sdl/sdk_unit_test/sabre_ai_rev_b/libsdk_unit_test.a(i2c_test.o)
 .comment       0x00000000       0x31 /home/leon/git/swp-report/iMX6_Platform_SDK/output/mx6sdl/sdk_unit_test/sabre_ai_rev_b/libsdk_unit_test.a(imx6_i2c_device.o)
 .comment       0x00000000       0x31 /home/leon/git/swp-report/iMX6_Platform_SDK/output/mx6sdl/sdk_unit_test/sabre_ai_rev_b/libsdk_unit_test.a(snvs_rtc_test.o)
 .comment       0x00000000       0x31 /home/leon/git/swp-report/iMX6_Platform_SDK/output/mx6sdl/sdk_unit_test/sabre_ai_rev_b/libsdk_unit_test.a(snvs_srtc_test.o)
 .comment       0x00000000       0x31 /home/leon/git/swp-report/iMX6_Platform_SDK/output/mx6sdl/sdk_unit_test/sabre_ai_rev_b/libsdk_unit_test.a(tempmon_test.o)
 .comment       0x00000000       0x31 /home/leon/git/swp-report/iMX6_Platform_SDK/output/mx6sdl/sdk_unit_test/sabre_ai_rev_b/libsdk_unit_test.a(sdma_test.o)
 .comment       0x00000000       0x31 /home/leon/git/swp-report/iMX6_Platform_SDK/output/mx6sdl/sdk_unit_test/sabre_ai_rev_b/libsdk_unit_test.a(spi_lpb.o)
 .comment       0x00000000       0x31 /home/leon/git/swp-report/iMX6_Platform_SDK/output/mx6sdl/sdk_unit_test/sabre_ai_rev_b/libsdk_unit_test.a(uart_loopback.o)
 .comment       0x00000000       0x31 /home/leon/git/swp-report/iMX6_Platform_SDK/output/mx6sdl/sdk_unit_test/sabre_ai_rev_b/libsdk_unit_test.a(epit_test.o)
 .comment       0x00000000       0x31 /home/leon/git/swp-report/iMX6_Platform_SDK/output/mx6sdl/sdk_unit_test/sabre_ai_rev_b/libsdk_unit_test.a(gpt_test.o)
 .comment       0x00000000       0x31 /home/leon/git/swp-report/iMX6_Platform_SDK/output/mx6sdl/sdk_unit_test/sabre_ai_rev_b/libsdk_unit_test.a(timer_test.o)
 .comment       0x00000000       0x31 /home/leon/git/swp-report/iMX6_Platform_SDK/output/mx6sdl/sdk_unit_test/sabre_ai_rev_b/libsdk_unit_test.a(uart_test.o)
 .comment       0x00000000       0x31 /home/leon/git/swp-report/iMX6_Platform_SDK/output/mx6sdl/sdk_unit_test/sabre_ai_rev_b/libsdk_unit_test.a(usdhc_test.o)
 .comment       0x00000000       0x31 /home/leon/git/swp-report/iMX6_Platform_SDK/output/mx6sdl/sdk_unit_test/sabre_ai_rev_b/libsdk_unit_test.a(pwm_test.o)
 .comment       0x00000000       0x31 /home/leon/git/swp-report/iMX6_Platform_SDK/output/mx6sdl/sdk_unit_test/sabre_ai_rev_b/libsdk_unit_test.a(watchdog_test.o)
 .comment       0x00000000       0x31 /home/leon/git/swp-report/iMX6_Platform_SDK/output/mx6sdl/sdk_unit_test/sabre_ai_rev_b/libsdk_unit_test.a(hdmi_test.o)
 .comment       0x00000000       0x31 /home/leon/git/swp-report/iMX6_Platform_SDK/output/mx6sdl/sdk_unit_test/sabre_ai_rev_b/libsdk_unit_test.a(ips_display.o)
 .comment       0x00000000       0x31 /home/leon/git/swp-report/iMX6_Platform_SDK/output/mx6sdl/sdk_unit_test/sabre_ai_rev_b/libsdk_unit_test.a(ips_test.o)
 .comment       0x00000000       0x31 /home/leon/git/swp-report/iMX6_Platform_SDK/output/mx6sdl/sdk_unit_test/sabre_ai_rev_b/libsdk_unit_test.a(ipu_image.o)
 .comment       0x00000000       0x31 /home/leon/git/swp-report/iMX6_Platform_SDK/output/mx6sdl/sdk_unit_test/sabre_ai_rev_b/libsdk_unit_test.a(mipi_test.o)
 .comment       0x00000000       0x31 /home/leon/git/swp-report/iMX6_Platform_SDK/output/mx6sdl/sdk_unit_test/sabre_ai_rev_b/libsdk_unit_test.a(can_test.o)
 .comment       0x00000000       0x31 /home/leon/git/swp-report/iMX6_Platform_SDK/output/mx6sdl/sdk_unit_test/sabre_ai_rev_b/libsdk_unit_test.a(usb_test.o)
 .comment       0x00000000       0x31 /home/leon/git/swp-report/iMX6_Platform_SDK/output/mx6sdl/sdk_unit_test/sabre_ai_rev_b/libsdk_unit_test.a(eim_test.o)
 .comment       0x00000000       0x31 /home/leon/git/swp-report/iMX6_Platform_SDK/output/mx6sdl/sdk_unit_test/sabre_ai_rev_b/libsdk_unit_test.a(pcie_test_rc.o)
 .comment       0x00000000       0x31 /home/leon/git/swp-report/iMX6_Platform_SDK/output/mx6sdl/sdk_unit_test/sabre_ai_rev_b/libsdk_unit_test.a(spi_test.o)
 .comment       0x00000000       0x31 /home/leon/git/swp-report/iMX6_Platform_SDK/output/mx6sdl/sdk_unit_test/sabre_ai_rev_b/libsdk_unit_test.a(camera_test.o)
 .comment       0x00000000       0x31 /home/leon/git/swp-report/iMX6_Platform_SDK/output/mx6sdl/sdk_unit_test/sabre_ai_rev_b/libsdk_unit_test.a(csi_test_mode.o)
 .comment       0x00000000       0x31 /home/leon/git/swp-report/iMX6_Platform_SDK/output/mx6sdl/sdk_unit_test/sabre_ai_rev_b/libsdk_unit_test.a(accelerometer_test.o)
 .comment       0x00000000       0x31 /home/leon/git/swp-report/iMX6_Platform_SDK/output/mx6sdl/sdk_unit_test/sabre_ai_rev_b/libsdk_unit_test.a(at24cxx.o)
 .comment       0x00000000       0x31 /home/leon/git/swp-report/iMX6_Platform_SDK/output/mx6sdl/sdk_unit_test/sabre_ai_rev_b/libsdk_unit_test.a(mem_2_mem.o)
 .comment       0x00000000       0x31 /home/leon/git/swp-report/iMX6_Platform_SDK/output/mx6sdl/sdk_unit_test/sabre_ai_rev_b/libsdk_unit_test.a(pwm_output.o)
 .comment       0x00000000       0x31 /home/leon/git/swp-report/iMX6_Platform_SDK/output/mx6sdl/sdk_unit_test/sabre_ai_rev_b/libsdk_unit_test.a(init_dma_data.o)
 .comment       0x00000000       0x31 /home/leon/git/swp-report/iMX6_Platform_SDK/output/mx6sdl/sdk_unit_test/sabre_ai_rev_b/libsdk_unit_test.a(ips_combiner.o)
 .comment       0x00000000       0x31 /home/leon/git/swp-report/iMX6_Platform_SDK/output/mx6sdl/sdk_unit_test/sabre_ai_rev_b/libsdk_unit_test.a(ips_csc.o)
 .comment       0x00000000       0x31 /home/leon/git/swp-report/iMX6_Platform_SDK/output/mx6sdl/sdk_unit_test/sabre_ai_rev_b/libsdk_unit_test.a(ips_resize.o)
 .comment       0x00000000       0x31 /home/leon/git/swp-report/iMX6_Platform_SDK/output/mx6sdl/sdk_unit_test/sabre_ai_rev_b/libsdk_unit_test.a(ips_rotate.o)
 .comment       0x00000000       0x31 /home/leon/git/swp-report/iMX6_Platform_SDK/output/mx6sdl/sdk_unit_test/sabre_ai_rev_b/libsdk_unit_test.a(mipi_csi2_test.o)
 .comment       0x00000000       0x31 /home/leon/git/swp-report/iMX6_Platform_SDK/output/mx6sdl/sdk_unit_test/sabre_ai_rev_b/libsdk_unit_test.a(mipi_dsi_test.o)
 .comment       0x00000000       0x31 /home/leon/git/swp-report/iMX6_Platform_SDK/output/mx6sdl/sdk_unit_test/sabre_ai_rev_b/libsdk_unit_test.a(usb0_device_mouse_test.o)
 .comment       0x00000000       0x31 /home/leon/git/swp-report/iMX6_Platform_SDK/output/mx6sdl/sdk_unit_test/sabre_ai_rev_b/libsdk_unit_test.a(usb0_host_test.o)
 .comment       0x00000000       0x31 /home/leon/git/swp-report/iMX6_Platform_SDK/output/mx6sdl/sdk_unit_test/sabre_ai_rev_b/libsdk_unit_test.a(usb0_host_testmodes_test.o)
 .comment       0x00000000       0x31 /home/leon/git/swp-report/iMX6_Platform_SDK/output/mx6sdl/sdk_unit_test/sabre_ai_rev_b/libsdk_unit_test.a(cfi_flash_api.o)
 .comment       0x00000000       0x31 /home/leon/git/swp-report/iMX6_Platform_SDK/output/mx6sdl/sdk_unit_test/sabre_ai_rev_b/libsdk_unit_test.a(cfi_flash_driver.o)
 .comment       0x00000000       0x31 /home/leon/git/swp-report/iMX6_Platform_SDK/output/mx6sdl/sdk_unit_test/sabre_ai_rev_b/libsdk_unit_test.a(spi_nor_numonyx.o)
 .comment       0x00000000       0x31 /home/leon/git/swp-report/iMX6_Platform_SDK/output/mx6sdl/sdk_unit_test/sabre_ai_rev_b/libsdk_unit_test.a(adv7180_capture.o)
 .comment       0x00000000       0x31 /home/leon/git/swp-report/iMX6_Platform_SDK/output/mx6sdl/lib/libsdk.a(max7310.o)
 .comment       0x00000000       0x31 /home/leon/git/swp-report/iMX6_Platform_SDK/output/mx6sdl/lib/libsdk.a(profile.o)
 .comment       0x00000000       0x31 /home/leon/git/swp-report/iMX6_Platform_SDK/output/mx6sdl/lib/libsdk.a(armv7_cache.o)
 .comment       0x00000000       0x31 /home/leon/git/swp-report/iMX6_Platform_SDK/output/mx6sdl/lib/libsdk.a(runtime_support.o)
 .comment       0x00000000       0x31 /home/leon/git/swp-report/iMX6_Platform_SDK/output/mx6sdl/lib/libsdk.a(mma8451.o)
 .comment       0x00000000       0x31 /home/leon/git/swp-report/iMX6_Platform_SDK/output/mx6sdl/lib/libsdk.a(cpu_get_cores.o)
 .comment       0x00000000       0x31 /home/leon/git/swp-report/iMX6_Platform_SDK/output/mx6sdl/lib/libsdk.a(cpu_multicore.o)
 .comment       0x00000000       0x31 /home/leon/git/swp-report/iMX6_Platform_SDK/output/mx6sdl/lib/libsdk.a(cpu_workpoint.o)
 .comment       0x00000000       0x31 /home/leon/git/swp-report/iMX6_Platform_SDK/output/mx6sdl/lib/libsdk.a(eim.o)
 .comment       0x00000000       0x31 /home/leon/git/swp-report/iMX6_Platform_SDK/output/mx6sdl/lib/libsdk.a(can.o)
 .comment       0x00000000       0x31 /home/leon/git/swp-report/iMX6_Platform_SDK/output/mx6sdl/lib/libsdk.a(gpio.o)
 .comment       0x00000000       0x31 /home/leon/git/swp-report/iMX6_Platform_SDK/output/mx6sdl/lib/libsdk.a(imx6sdl_gpio_map.o)
 .comment       0x00000000       0x31 /home/leon/git/swp-report/iMX6_Platform_SDK/output/mx6sdl/lib/libsdk.a(hdmi_tx.o)
 .comment       0x00000000       0x31 /home/leon/git/swp-report/iMX6_Platform_SDK/output/mx6sdl/lib/libsdk.a(hdmi_tx_audio.o)
 .comment       0x00000000       0x31 /home/leon/git/swp-report/iMX6_Platform_SDK/output/mx6sdl/lib/libsdk.a(hdmi_tx_phy.o)
 .comment       0x00000000       0x31 /home/leon/git/swp-report/iMX6_Platform_SDK/output/mx6sdl/lib/libsdk.a(imx_i2c.o)
 .comment       0x00000000       0x31 /home/leon/git/swp-report/iMX6_Platform_SDK/output/mx6sdl/lib/libsdk.a(imx_i2c_slave.o)
 .comment       0x00000000       0x31 /home/leon/git/swp-report/iMX6_Platform_SDK/output/mx6sdl/lib/libsdk.a(ips_disp_panel.o)
 .comment       0x00000000       0x31 /home/leon/git/swp-report/iMX6_Platform_SDK/output/mx6sdl/lib/libsdk.a(ipu_common.o)
 .comment       0x00000000       0x31 /home/leon/git/swp-report/iMX6_Platform_SDK/output/mx6sdl/lib/libsdk.a(ipu_csi.o)
 .comment       0x00000000       0x31 /home/leon/git/swp-report/iMX6_Platform_SDK/output/mx6sdl/lib/libsdk.a(ipu_dc.o)
 .comment       0x00000000       0x31 /home/leon/git/swp-report/iMX6_Platform_SDK/output/mx6sdl/lib/libsdk.a(ipu_di.o)
 .comment       0x00000000       0x31 /home/leon/git/swp-report/iMX6_Platform_SDK/output/mx6sdl/lib/libsdk.a(ipu_dmfc.o)
 .comment       0x00000000       0x31 /home/leon/git/swp-report/iMX6_Platform_SDK/output/mx6sdl/lib/libsdk.a(ipu_dp.o)
 .comment       0x00000000       0x31 /home/leon/git/swp-report/iMX6_Platform_SDK/output/mx6sdl/lib/libsdk.a(ipu_ic.o)
 .comment       0x00000000       0x31 /home/leon/git/swp-report/iMX6_Platform_SDK/output/mx6sdl/lib/libsdk.a(ipu_idmac.o)
 .comment       0x00000000       0x31 /home/leon/git/swp-report/iMX6_Platform_SDK/output/mx6sdl/lib/libsdk.a(ipu_vdi.o)
 .comment       0x00000000       0x31 /home/leon/git/swp-report/iMX6_Platform_SDK/output/mx6sdl/lib/libsdk.a(ldb.o)
 .comment       0x00000000       0x31 /home/leon/git/swp-report/iMX6_Platform_SDK/output/mx6sdl/lib/libsdk.a(mipi_csi2_common.o)
 .comment       0x00000000       0x31 /home/leon/git/swp-report/iMX6_Platform_SDK/output/mx6sdl/lib/libsdk.a(mipi_dsi_common.o)
 .comment       0x00000000       0x31 /home/leon/git/swp-report/iMX6_Platform_SDK/output/mx6sdl/lib/libsdk.a(ov5640_mipi_fm.o)
 .comment       0x00000000       0x31 /home/leon/git/swp-report/iMX6_Platform_SDK/output/mx6sdl/lib/libsdk.a(ocotp.o)
 .comment       0x00000000       0x31 /home/leon/git/swp-report/iMX6_Platform_SDK/output/mx6sdl/lib/libsdk.a(pcie.o)
 .comment       0x00000000       0x31 /home/leon/git/swp-report/iMX6_Platform_SDK/output/mx6sdl/lib/libsdk.a(pcie_phy.o)
 .comment       0x00000000       0x31 /home/leon/git/swp-report/iMX6_Platform_SDK/output/mx6sdl/lib/libsdk.a(pcie_prot.o)
 .comment       0x00000000       0x31 /home/leon/git/swp-report/iMX6_Platform_SDK/output/mx6sdl/lib/libsdk.a(pmu_driver.o)
 .comment       0x00000000       0x31 /home/leon/git/swp-report/iMX6_Platform_SDK/output/mx6sdl/lib/libsdk.a(pwm.o)
 .comment       0x00000000       0x31 /home/leon/git/swp-report/iMX6_Platform_SDK/output/mx6sdl/lib/libsdk.a(rtc.o)
 .comment       0x00000000       0x31 /home/leon/git/swp-report/iMX6_Platform_SDK/output/mx6sdl/lib/libsdk.a(srtc.o)
 .comment       0x00000000       0x31 /home/leon/git/swp-report/iMX6_Platform_SDK/output/mx6sdl/lib/libsdk.a(sdma.o)
 .comment       0x00000000       0x31 /home/leon/git/swp-report/iMX6_Platform_SDK/output/mx6sdl/lib/libsdk.a(sdma_script_info.o)
 .comment       0x00000000       0x31 /home/leon/git/swp-report/iMX6_Platform_SDK/output/mx6sdl/lib/libsdk.a(snvs.o)
 .comment       0x00000000       0x31 /home/leon/git/swp-report/iMX6_Platform_SDK/output/mx6sdl/lib/libsdk.a(ecspi.o)
 .comment       0x00000000       0x31 /home/leon/git/swp-report/iMX6_Platform_SDK/output/mx6sdl/lib/libsdk.a(tempmon.o)
 .comment       0x00000000       0x31 /home/leon/git/swp-report/iMX6_Platform_SDK/output/mx6sdl/lib/libsdk.a(gpt.o)
 .comment       0x00000000       0x31 /home/leon/git/swp-report/iMX6_Platform_SDK/output/mx6sdl/lib/libsdk.a(usb_common.o)
 .comment       0x00000000       0x31 /home/leon/git/swp-report/iMX6_Platform_SDK/output/mx6sdl/lib/libsdk.a(usbd_drv.o)
 .comment       0x00000000       0x31 /home/leon/git/swp-report/iMX6_Platform_SDK/output/mx6sdl/lib/libsdk.a(usbh_drv.o)
 .comment       0x00000000       0x31 /home/leon/git/swp-report/iMX6_Platform_SDK/output/mx6sdl/lib/libsdk.a(usdhc.o)
 .comment       0x00000000       0x31 /home/leon/git/swp-report/iMX6_Platform_SDK/output/mx6sdl/lib/libsdk.a(usdhc_host.o)
 .comment       0x00000000       0x31 /home/leon/git/swp-report/iMX6_Platform_SDK/output/mx6sdl/lib/libsdk.a(usdhc_mmc.o)
 .comment       0x00000000       0x31 /home/leon/git/swp-report/iMX6_Platform_SDK/output/mx6sdl/lib/libsdk.a(usdhc_sd.o)
 .comment       0x00000000       0x31 /home/leon/git/swp-report/iMX6_Platform_SDK/output/mx6sdl/lib/libsdk.a(adv7180.o)
 .comment       0x00000000       0x31 /home/leon/git/swp-report/iMX6_Platform_SDK/output/mx6sdl/lib/libsdk.a(hdmi_common.o)
 .comment       0x00000000       0x31 /home/leon/git/swp-report/iMX6_Platform_SDK/output/mx6sdl/lib/libsdk.a(mx6x_usb.o)
 .comment       0x00000000       0x31 /home/leon/git/swp-report/iMX6_Platform_SDK/output/mx6sdl/lib/libboard_sabre_ai_rev_b.a(board_camera.o)
 .comment       0x00000000       0x31 /home/leon/git/swp-report/iMX6_Platform_SDK/output/mx6sdl/lib/libboard_sabre_ai_rev_b.a(board_can.o)
 .comment       0x00000000       0x31 /home/leon/git/swp-report/iMX6_Platform_SDK/output/mx6sdl/lib/libboard_sabre_ai_rev_b.a(board_display.o)
 .comment       0x00000000       0x31 /home/leon/git/swp-report/iMX6_Platform_SDK/output/mx6sdl/lib/libboard_sabre_ai_rev_b.a(board_hdmi.o)
 .comment       0x00000000       0x31 /home/leon/git/swp-report/iMX6_Platform_SDK/output/mx6sdl/lib/libboard_sabre_ai_rev_b.a(board_i2c.o)
 .comment       0x00000000       0x31 /home/leon/git/swp-report/iMX6_Platform_SDK/output/mx6sdl/lib/libboard_sabre_ai_rev_b.a(board_mipi.o)
 .comment       0x00000000       0x31 /home/leon/git/swp-report/iMX6_Platform_SDK/output/mx6sdl/lib/libboard_sabre_ai_rev_b.a(board_pcie.o)
 .comment       0x00000000       0x31 /home/leon/git/swp-report/iMX6_Platform_SDK/output/mx6sdl/lib/libboard_sabre_ai_rev_b.a(board_usb.o)
 .comment       0x00000000       0x31 /home/leon/git/swp-report/iMX6_Platform_SDK/output/mx6sdl/lib/libboard_sabre_ai_rev_b.a(board_usdhc.o)
 .comment       0x00000000       0x31 /home/leon/git/swp-report/iMX6_Platform_SDK/output/mx6sdl/lib/libboard_sabre_ai_rev_b.a(ecspi_iomux_config.o)
 .comment       0x00000000       0x31 /home/leon/git/swp-report/iMX6_Platform_SDK/output/mx6sdl/lib/libboard_sabre_ai_rev_b.a(flexcan_iomux_config.o)
 .comment       0x00000000       0x31 /home/leon/git/swp-report/iMX6_Platform_SDK/output/mx6sdl/lib/libboard_sabre_ai_rev_b.a(i2c_iomux_config.o)
 .comment       0x00000000       0x31 /home/leon/git/swp-report/iMX6_Platform_SDK/output/mx6sdl/lib/libboard_sabre_ai_rev_b.a(pwm_iomux_config.o)
 .comment       0x00000000       0x31 /home/leon/git/swp-report/iMX6_Platform_SDK/output/mx6sdl/lib/libboard_sabre_ai_rev_b.a(usdhc_iomux_config.o)

.debug_info     0x00000000    0x6adf5
 .debug_info    0x00000000      0x228 /home/leon/git/swp-report/iMX6_Platform_SDK/output/mx6sdl/sdk_unit_test/sabre_ai_rev_b/obj/apps/common/ivt.o
 .debug_info    0x00000228      0x135 /home/leon/git/swp-report/iMX6_Platform_SDK/output/mx6sdl/sdk_unit_test/sabre_ai_rev_b/obj/apps/common/platform_init.o
 .debug_info    0x0000035d      0x17b /home/leon/git/swp-report/iMX6_Platform_SDK/output/mx6sdl/sdk_unit_test/sabre_ai_rev_b/obj/apps/common/print_clock_info.o
 .debug_info    0x000004d8      0x1bd /home/leon/git/swp-report/iMX6_Platform_SDK/output/mx6sdl/sdk_unit_test/sabre_ai_rev_b/obj/apps/common/print_version.o
 .debug_info    0x00000695      0x276 /home/leon/git/swp-report/iMX6_Platform_SDK/output/mx6sdl/sdk_unit_test/sabre_ai_rev_b/obj/apps/sdk_unit_test/src/all_test.o
 .debug_info    0x0000090b       0x9b /home/leon/git/swp-report/iMX6_Platform_SDK/output/mx6sdl/sdk_unit_test/sabre_ai_rev_b/obj/apps/sdk_unit_test/src/unit_test_main.o
 .debug_info    0x000009a6     0x1d26 /home/leon/git/swp-report/iMX6_Platform_SDK/output/mx6sdl/lib/libsdk.a(ccm_pll.o)
 .debug_info    0x000026cc      0x7f4 /home/leon/git/swp-report/iMX6_Platform_SDK/output/mx6sdl/lib/libsdk.a(gic.o)
 .debug_info    0x00002ec0      0x3e7 /home/leon/git/swp-report/iMX6_Platform_SDK/output/mx6sdl/lib/libsdk.a(mmu.o)
 .debug_info    0x000032a7      0xe7d /home/leon/git/swp-report/iMX6_Platform_SDK/output/mx6sdl/lib/libsdk.a(menu.o)
 .debug_info    0x00004124       0x76 /home/leon/git/swp-report/iMX6_Platform_SDK/output/mx6sdl/lib/libsdk.a(sdk_version.o)
 .debug_info    0x0000419a     0x1536 /home/leon/git/swp-report/iMX6_Platform_SDK/output/mx6sdl/lib/libsdk.a(system_util.o)
 .debug_info    0x000056d0      0x298 /home/leon/git/swp-report/iMX6_Platform_SDK/output/mx6sdl/lib/libsdk.a(text_color.o)
 .debug_info    0x00005968      0x4fe /home/leon/git/swp-report/iMX6_Platform_SDK/output/mx6sdl/lib/libsdk.a(board_id.o)
 .debug_info    0x00005e66      0x319 /home/leon/git/swp-report/iMX6_Platform_SDK/output/mx6sdl/lib/libsdk.a(timer.o)
 .debug_info    0x0000617f     0x11b6 /home/leon/git/swp-report/iMX6_Platform_SDK/output/mx6sdl/lib/libsdk.a(imx_uart.o)
 .debug_info    0x00007335      0x63b /home/leon/git/swp-report/iMX6_Platform_SDK/output/mx6sdl/lib/libsdk.a(interrupt.o)
 .debug_info    0x00007970      0x9b7 /home/leon/git/swp-report/iMX6_Platform_SDK/output/mx6sdl/lib/libsdk.a(epit.o)
 .debug_info    0x00008327      0x234 /home/leon/git/swp-report/iMX6_Platform_SDK/output/mx6sdl/lib/libsdk.a(abort_handler.o)
 .debug_info    0x0000855b      0x233 /home/leon/git/swp-report/iMX6_Platform_SDK/output/mx6sdl/lib/libboard_sabre_ai_rev_b.a(board_io_expanders.o)
 .debug_info    0x0000878e       0xa1 /home/leon/git/swp-report/iMX6_Platform_SDK/output/mx6sdl/lib/libboard_sabre_ai_rev_b.a(hardware_modules.o)
 .debug_info    0x0000882f       0xe9 /home/leon/git/swp-report/iMX6_Platform_SDK/output/mx6sdl/lib/libboard_sabre_ai_rev_b.a(dcd.o)
 .debug_info    0x00008918      0x455 /home/leon/git/swp-report/iMX6_Platform_SDK/output/mx6sdl/lib/libboard_sabre_ai_rev_b.a(i2c3_iomux_config.o)
 .debug_info    0x00008d6d       0xcf /home/leon/git/swp-report/iMX6_Platform_SDK/output/mx6sdl/lib/libboard_sabre_ai_rev_b.a(uart_iomux_config.o)
 .debug_info    0x00008e3c      0x350 /home/leon/git/swp-report/iMX6_Platform_SDK/output/mx6sdl/lib/libboard_sabre_ai_rev_b.a(iomux_config.o)
 .debug_info    0x0000918c     0x4001 /home/leon/git/swp-report/iMX6_Platform_SDK/output/mx6sdl/lib/libboard_sabre_ai_rev_b.a(ipu1_iomux_config.o)
 .debug_info    0x0000d18d      0x689 /home/leon/git/swp-report/iMX6_Platform_SDK/output/mx6sdl/lib/libboard_sabre_ai_rev_b.a(mlb_iomux_config.o)
 .debug_info    0x0000d816     0x3b2b /home/leon/git/swp-report/iMX6_Platform_SDK/output/mx6sdl/lib/libboard_sabre_ai_rev_b.a(mmdc_iomux_config.o)
 .debug_info    0x00011341      0x205 /home/leon/git/swp-report/iMX6_Platform_SDK/output/mx6sdl/lib/libboard_sabre_ai_rev_b.a(pwm3_iomux_config.o)
 .debug_info    0x00011546      0x205 /home/leon/git/swp-report/iMX6_Platform_SDK/output/mx6sdl/lib/libboard_sabre_ai_rev_b.a(pwm4_iomux_config.o)
 .debug_info    0x0001174b      0x72b /home/leon/git/swp-report/iMX6_Platform_SDK/output/mx6sdl/lib/libboard_sabre_ai_rev_b.a(sjc_iomux_config.o)
 .debug_info    0x00011e76      0x273 /home/leon/git/swp-report/iMX6_Platform_SDK/output/mx6sdl/lib/libboard_sabre_ai_rev_b.a(spdif_iomux_config.o)
 .debug_info    0x000120e9      0x7af /home/leon/git/swp-report/iMX6_Platform_SDK/output/mx6sdl/lib/libboard_sabre_ai_rev_b.a(uart2_iomux_config.o)
 .debug_info    0x00012898      0x78f /home/leon/git/swp-report/iMX6_Platform_SDK/output/mx6sdl/lib/libboard_sabre_ai_rev_b.a(uart3_iomux_config.o)
 .debug_info    0x00013027      0x419 /home/leon/git/swp-report/iMX6_Platform_SDK/output/mx6sdl/lib/libboard_sabre_ai_rev_b.a(uart4_iomux_config.o)
 .debug_info    0x00013440     0x12ef /home/leon/git/swp-report/iMX6_Platform_SDK/output/mx6sdl/lib/libboard_sabre_ai_rev_b.a(usdhc1_iomux_config.o)
 .debug_info    0x0001472f     0x1495 /home/leon/git/swp-report/iMX6_Platform_SDK/output/mx6sdl/lib/libboard_sabre_ai_rev_b.a(usdhc3_iomux_config.o)
 .debug_info    0x00015bc4      0x1e5 /home/leon/git/swp-report/iMX6_Platform_SDK/output/mx6sdl/lib/libboard_sabre_ai_rev_b.a(wdog1_iomux_config.o)
 .debug_info    0x00015da9      0xc0b /home/leon/git/swp-report/iMX6_Platform_SDK/output/mx6sdl/lib/libboard_sabre_ai_rev_b.a(audmux_iomux_config.o)
 .debug_info    0x000169b4      0x205 /home/leon/git/swp-report/iMX6_Platform_SDK/output/mx6sdl/lib/libboard_sabre_ai_rev_b.a(ccm_iomux_config.o)
 .debug_info    0x00016bb9      0x98d /home/leon/git/swp-report/iMX6_Platform_SDK/output/mx6sdl/lib/libboard_sabre_ai_rev_b.a(ecspi1_iomux_config.o)
 .debug_info    0x00017546     0x4185 /home/leon/git/swp-report/iMX6_Platform_SDK/output/mx6sdl/lib/libboard_sabre_ai_rev_b.a(eim_iomux_config.o)
 .debug_info    0x0001b6cb     0x1e0f /home/leon/git/swp-report/iMX6_Platform_SDK/output/mx6sdl/lib/libboard_sabre_ai_rev_b.a(enet_iomux_config.o)
 .debug_info    0x0001d4da     0x1503 /home/leon/git/swp-report/iMX6_Platform_SDK/output/mx6sdl/lib/libboard_sabre_ai_rev_b.a(esai_iomux_config.o)
 .debug_info    0x0001e9dd      0x419 /home/leon/git/swp-report/iMX6_Platform_SDK/output/mx6sdl/lib/libboard_sabre_ai_rev_b.a(flexcan1_iomux_config.o)
 .debug_info    0x0001edf6      0x419 /home/leon/git/swp-report/iMX6_Platform_SDK/output/mx6sdl/lib/libboard_sabre_ai_rev_b.a(flexcan2_iomux_config.o)
 .debug_info    0x0001f20f      0xd8f /home/leon/git/swp-report/iMX6_Platform_SDK/output/mx6sdl/lib/libboard_sabre_ai_rev_b.a(gpio1_iomux_config.o)
 .debug_info    0x0001ff9e      0xb81 /home/leon/git/swp-report/iMX6_Platform_SDK/output/mx6sdl/lib/libboard_sabre_ai_rev_b.a(gpio2_iomux_config.o)
 .debug_info    0x00020b1f      0x3ab /home/leon/git/swp-report/iMX6_Platform_SDK/output/mx6sdl/lib/libboard_sabre_ai_rev_b.a(gpio4_iomux_config.o)
 .debug_info    0x00020eca      0x971 /home/leon/git/swp-report/iMX6_Platform_SDK/output/mx6sdl/lib/libboard_sabre_ai_rev_b.a(gpio5_iomux_config.o)
 .debug_info    0x0002183b      0x367 /home/leon/git/swp-report/iMX6_Platform_SDK/output/mx6sdl/lib/libboard_sabre_ai_rev_b.a(gpio6_iomux_config.o)
 .debug_info    0x00021ba2     0x1bf9 /home/leon/git/swp-report/iMX6_Platform_SDK/output/mx6sdl/lib/libboard_sabre_ai_rev_b.a(gpmi_iomux_config.o)
 .debug_info    0x0002379b      0x475 /home/leon/git/swp-report/iMX6_Platform_SDK/output/mx6sdl/lib/libboard_sabre_ai_rev_b.a(i2c2_iomux_config.o)
 .debug_info    0x00023c10      0x533 /home/leon/git/swp-report/iMX6_Platform_SDK/output/mx6sdl/sdk_unit_test/sabre_ai_rev_b/libsdk_unit_test.a(gic_test.o)
 .debug_info    0x00024143      0x23d /home/leon/git/swp-report/iMX6_Platform_SDK/output/mx6sdl/sdk_unit_test/sabre_ai_rev_b/libsdk_unit_test.a(cpu_wp_test.o)
 .debug_info    0x00024380      0x585 /home/leon/git/swp-report/iMX6_Platform_SDK/output/mx6sdl/sdk_unit_test/sabre_ai_rev_b/libsdk_unit_test.a(multicore_test.o)
 .debug_info    0x00024905      0x9be /home/leon/git/swp-report/iMX6_Platform_SDK/output/mx6sdl/sdk_unit_test/sabre_ai_rev_b/libsdk_unit_test.a(ocotp_test.o)
 .debug_info    0x000252c3      0x989 /home/leon/git/swp-report/iMX6_Platform_SDK/output/mx6sdl/sdk_unit_test/sabre_ai_rev_b/libsdk_unit_test.a(i2c_test.o)
 .debug_info    0x00025c4c      0xc3a /home/leon/git/swp-report/iMX6_Platform_SDK/output/mx6sdl/sdk_unit_test/sabre_ai_rev_b/libsdk_unit_test.a(imx6_i2c_device.o)
 .debug_info    0x00026886      0xa4f /home/leon/git/swp-report/iMX6_Platform_SDK/output/mx6sdl/sdk_unit_test/sabre_ai_rev_b/libsdk_unit_test.a(snvs_rtc_test.o)
 .debug_info    0x000272d5      0x9ec /home/leon/git/swp-report/iMX6_Platform_SDK/output/mx6sdl/sdk_unit_test/sabre_ai_rev_b/libsdk_unit_test.a(snvs_srtc_test.o)
 .debug_info    0x00027cc1      0xa04 /home/leon/git/swp-report/iMX6_Platform_SDK/output/mx6sdl/sdk_unit_test/sabre_ai_rev_b/libsdk_unit_test.a(tempmon_test.o)
 .debug_info    0x000286c5      0x9f7 /home/leon/git/swp-report/iMX6_Platform_SDK/output/mx6sdl/sdk_unit_test/sabre_ai_rev_b/libsdk_unit_test.a(sdma_test.o)
 .debug_info    0x000290bc      0x4b3 /home/leon/git/swp-report/iMX6_Platform_SDK/output/mx6sdl/sdk_unit_test/sabre_ai_rev_b/libsdk_unit_test.a(spi_lpb.o)
 .debug_info    0x0002956f      0x577 /home/leon/git/swp-report/iMX6_Platform_SDK/output/mx6sdl/sdk_unit_test/sabre_ai_rev_b/libsdk_unit_test.a(uart_loopback.o)
 .debug_info    0x00029ae6      0xac5 /home/leon/git/swp-report/iMX6_Platform_SDK/output/mx6sdl/sdk_unit_test/sabre_ai_rev_b/libsdk_unit_test.a(epit_test.o)
 .debug_info    0x0002a5ab      0xd60 /home/leon/git/swp-report/iMX6_Platform_SDK/output/mx6sdl/sdk_unit_test/sabre_ai_rev_b/libsdk_unit_test.a(gpt_test.o)
 .debug_info    0x0002b30b       0xca /home/leon/git/swp-report/iMX6_Platform_SDK/output/mx6sdl/sdk_unit_test/sabre_ai_rev_b/libsdk_unit_test.a(timer_test.o)
 .debug_info    0x0002b3d5      0xad8 /home/leon/git/swp-report/iMX6_Platform_SDK/output/mx6sdl/sdk_unit_test/sabre_ai_rev_b/libsdk_unit_test.a(uart_test.o)
 .debug_info    0x0002bead      0xd3f /home/leon/git/swp-report/iMX6_Platform_SDK/output/mx6sdl/sdk_unit_test/sabre_ai_rev_b/libsdk_unit_test.a(usdhc_test.o)
 .debug_info    0x0002cbec      0xa45 /home/leon/git/swp-report/iMX6_Platform_SDK/output/mx6sdl/sdk_unit_test/sabre_ai_rev_b/libsdk_unit_test.a(pwm_test.o)
 .debug_info    0x0002d631      0xa3d /home/leon/git/swp-report/iMX6_Platform_SDK/output/mx6sdl/sdk_unit_test/sabre_ai_rev_b/libsdk_unit_test.a(watchdog_test.o)
 .debug_info    0x0002e06e     0x10f1 /home/leon/git/swp-report/iMX6_Platform_SDK/output/mx6sdl/sdk_unit_test/sabre_ai_rev_b/libsdk_unit_test.a(hdmi_test.o)
 .debug_info    0x0002f15f     0x1059 /home/leon/git/swp-report/iMX6_Platform_SDK/output/mx6sdl/sdk_unit_test/sabre_ai_rev_b/libsdk_unit_test.a(ips_display.o)
 .debug_info    0x000301b8      0xbfb /home/leon/git/swp-report/iMX6_Platform_SDK/output/mx6sdl/sdk_unit_test/sabre_ai_rev_b/libsdk_unit_test.a(ips_test.o)
 .debug_info    0x00030db3      0x50d /home/leon/git/swp-report/iMX6_Platform_SDK/output/mx6sdl/sdk_unit_test/sabre_ai_rev_b/libsdk_unit_test.a(ipu_image.o)
 .debug_info    0x000312c0      0xa45 /home/leon/git/swp-report/iMX6_Platform_SDK/output/mx6sdl/sdk_unit_test/sabre_ai_rev_b/libsdk_unit_test.a(mipi_test.o)
 .debug_info    0x00031d05      0xa06 /home/leon/git/swp-report/iMX6_Platform_SDK/output/mx6sdl/sdk_unit_test/sabre_ai_rev_b/libsdk_unit_test.a(can_test.o)
 .debug_info    0x0003270b      0x1bc /home/leon/git/swp-report/iMX6_Platform_SDK/output/mx6sdl/sdk_unit_test/sabre_ai_rev_b/libsdk_unit_test.a(usb_test.o)
 .debug_info    0x000328c7      0xdff /home/leon/git/swp-report/iMX6_Platform_SDK/output/mx6sdl/sdk_unit_test/sabre_ai_rev_b/libsdk_unit_test.a(eim_test.o)
 .debug_info    0x000336c6      0xc02 /home/leon/git/swp-report/iMX6_Platform_SDK/output/mx6sdl/sdk_unit_test/sabre_ai_rev_b/libsdk_unit_test.a(pcie_test_rc.o)
 .debug_info    0x000342c8      0xc85 /home/leon/git/swp-report/iMX6_Platform_SDK/output/mx6sdl/sdk_unit_test/sabre_ai_rev_b/libsdk_unit_test.a(spi_test.o)
 .debug_info    0x00034f4d      0xa84 /home/leon/git/swp-report/iMX6_Platform_SDK/output/mx6sdl/sdk_unit_test/sabre_ai_rev_b/libsdk_unit_test.a(camera_test.o)
 .debug_info    0x000359d1      0xc1b /home/leon/git/swp-report/iMX6_Platform_SDK/output/mx6sdl/sdk_unit_test/sabre_ai_rev_b/libsdk_unit_test.a(csi_test_mode.o)
 .debug_info    0x000365ec      0xab3 /home/leon/git/swp-report/iMX6_Platform_SDK/output/mx6sdl/sdk_unit_test/sabre_ai_rev_b/libsdk_unit_test.a(accelerometer_test.o)
 .debug_info    0x0003709f      0x2ee /home/leon/git/swp-report/iMX6_Platform_SDK/output/mx6sdl/sdk_unit_test/sabre_ai_rev_b/libsdk_unit_test.a(at24cxx.o)
 .debug_info    0x0003738d      0x3ee /home/leon/git/swp-report/iMX6_Platform_SDK/output/mx6sdl/sdk_unit_test/sabre_ai_rev_b/libsdk_unit_test.a(mem_2_mem.o)
 .debug_info    0x0003777b      0x243 /home/leon/git/swp-report/iMX6_Platform_SDK/output/mx6sdl/sdk_unit_test/sabre_ai_rev_b/libsdk_unit_test.a(pwm_output.o)
 .debug_info    0x000379be      0x37c /home/leon/git/swp-report/iMX6_Platform_SDK/output/mx6sdl/sdk_unit_test/sabre_ai_rev_b/libsdk_unit_test.a(init_dma_data.o)
 .debug_info    0x00037d3a      0xc2b /home/leon/git/swp-report/iMX6_Platform_SDK/output/mx6sdl/sdk_unit_test/sabre_ai_rev_b/libsdk_unit_test.a(ips_combiner.o)
 .debug_info    0x00038965      0xe67 /home/leon/git/swp-report/iMX6_Platform_SDK/output/mx6sdl/sdk_unit_test/sabre_ai_rev_b/libsdk_unit_test.a(ips_csc.o)
 .debug_info    0x000397cc      0xf5b /home/leon/git/swp-report/iMX6_Platform_SDK/output/mx6sdl/sdk_unit_test/sabre_ai_rev_b/libsdk_unit_test.a(ips_resize.o)
 .debug_info    0x0003a727      0xe27 /home/leon/git/swp-report/iMX6_Platform_SDK/output/mx6sdl/sdk_unit_test/sabre_ai_rev_b/libsdk_unit_test.a(ips_rotate.o)
 .debug_info    0x0003b54e      0x2da /home/leon/git/swp-report/iMX6_Platform_SDK/output/mx6sdl/sdk_unit_test/sabre_ai_rev_b/libsdk_unit_test.a(mipi_csi2_test.o)
 .debug_info    0x0003b828       0xf2 /home/leon/git/swp-report/iMX6_Platform_SDK/output/mx6sdl/sdk_unit_test/sabre_ai_rev_b/libsdk_unit_test.a(mipi_dsi_test.o)
 .debug_info    0x0003b91a     0x2a82 /home/leon/git/swp-report/iMX6_Platform_SDK/output/mx6sdl/sdk_unit_test/sabre_ai_rev_b/libsdk_unit_test.a(usb0_device_mouse_test.o)
 .debug_info    0x0003e39c     0x19b5 /home/leon/git/swp-report/iMX6_Platform_SDK/output/mx6sdl/sdk_unit_test/sabre_ai_rev_b/libsdk_unit_test.a(usb0_host_test.o)
 .debug_info    0x0003fd51      0x987 /home/leon/git/swp-report/iMX6_Platform_SDK/output/mx6sdl/sdk_unit_test/sabre_ai_rev_b/libsdk_unit_test.a(usb0_host_testmodes_test.o)
 .debug_info    0x000406d8      0x5b6 /home/leon/git/swp-report/iMX6_Platform_SDK/output/mx6sdl/sdk_unit_test/sabre_ai_rev_b/libsdk_unit_test.a(cfi_flash_api.o)
 .debug_info    0x00040c8e      0xef9 /home/leon/git/swp-report/iMX6_Platform_SDK/output/mx6sdl/sdk_unit_test/sabre_ai_rev_b/libsdk_unit_test.a(cfi_flash_driver.o)
 .debug_info    0x00041b87      0x359 /home/leon/git/swp-report/iMX6_Platform_SDK/output/mx6sdl/sdk_unit_test/sabre_ai_rev_b/libsdk_unit_test.a(spi_nor_numonyx.o)
 .debug_info    0x00041ee0      0xce7 /home/leon/git/swp-report/iMX6_Platform_SDK/output/mx6sdl/sdk_unit_test/sabre_ai_rev_b/libsdk_unit_test.a(adv7180_capture.o)
 .debug_info    0x00042bc7      0x2ed /home/leon/git/swp-report/iMX6_Platform_SDK/output/mx6sdl/lib/libsdk.a(max7310.o)
 .debug_info    0x00042eb4       0x6c /home/leon/git/swp-report/iMX6_Platform_SDK/output/mx6sdl/lib/libsdk.a(profile.o)
 .debug_info    0x00042f20      0x4cd /home/leon/git/swp-report/iMX6_Platform_SDK/output/mx6sdl/lib/libsdk.a(armv7_cache.o)
 .debug_info    0x000433ed      0x804 /home/leon/git/swp-report/iMX6_Platform_SDK/output/mx6sdl/lib/libsdk.a(runtime_support.o)
 .debug_info    0x00043bf1      0x470 /home/leon/git/swp-report/iMX6_Platform_SDK/output/mx6sdl/lib/libsdk.a(mma8451.o)
 .debug_info    0x00044061      0x141 /home/leon/git/swp-report/iMX6_Platform_SDK/output/mx6sdl/lib/libsdk.a(cpu_get_cores.o)
 .debug_info    0x000441a2      0x421 /home/leon/git/swp-report/iMX6_Platform_SDK/output/mx6sdl/lib/libsdk.a(cpu_multicore.o)
 .debug_info    0x000445c3      0x42c /home/leon/git/swp-report/iMX6_Platform_SDK/output/mx6sdl/lib/libsdk.a(cpu_workpoint.o)
 .debug_info    0x000449ef      0xbb3 /home/leon/git/swp-report/iMX6_Platform_SDK/output/mx6sdl/lib/libsdk.a(eim.o)
 .debug_info    0x000455a2      0xec1 /home/leon/git/swp-report/iMX6_Platform_SDK/output/mx6sdl/lib/libsdk.a(can.o)
 .debug_info    0x00046463      0x871 /home/leon/git/swp-report/iMX6_Platform_SDK/output/mx6sdl/lib/libsdk.a(gpio.o)
 .debug_info    0x00046cd4       0x9f /home/leon/git/swp-report/iMX6_Platform_SDK/output/mx6sdl/lib/libsdk.a(imx6sdl_gpio_map.o)
 .debug_info    0x00046d73     0x1f20 /home/leon/git/swp-report/iMX6_Platform_SDK/output/mx6sdl/lib/libsdk.a(hdmi_tx.o)
 .debug_info    0x00048c93      0xf27 /home/leon/git/swp-report/iMX6_Platform_SDK/output/mx6sdl/lib/libsdk.a(hdmi_tx_audio.o)
 .debug_info    0x00049bba      0xcb3 /home/leon/git/swp-report/iMX6_Platform_SDK/output/mx6sdl/lib/libsdk.a(hdmi_tx_phy.o)
 .debug_info    0x0004a86d      0xe21 /home/leon/git/swp-report/iMX6_Platform_SDK/output/mx6sdl/lib/libsdk.a(imx_i2c.o)
 .debug_info    0x0004b68e      0x5ab /home/leon/git/swp-report/iMX6_Platform_SDK/output/mx6sdl/lib/libsdk.a(imx_i2c_slave.o)
 .debug_info    0x0004bc39      0x698 /home/leon/git/swp-report/iMX6_Platform_SDK/output/mx6sdl/lib/libsdk.a(ips_disp_panel.o)
 .debug_info    0x0004c2d1      0xba2 /home/leon/git/swp-report/iMX6_Platform_SDK/output/mx6sdl/lib/libsdk.a(ipu_common.o)
 .debug_info    0x0004ce73      0x33a /home/leon/git/swp-report/iMX6_Platform_SDK/output/mx6sdl/lib/libsdk.a(ipu_csi.o)
 .debug_info    0x0004d1ad      0x51a /home/leon/git/swp-report/iMX6_Platform_SDK/output/mx6sdl/lib/libsdk.a(ipu_dc.o)
 .debug_info    0x0004d6c7      0x74d /home/leon/git/swp-report/iMX6_Platform_SDK/output/mx6sdl/lib/libsdk.a(ipu_di.o)
 .debug_info    0x0004de14      0x1c6 /home/leon/git/swp-report/iMX6_Platform_SDK/output/mx6sdl/lib/libsdk.a(ipu_dmfc.o)
 .debug_info    0x0004dfda      0x22b /home/leon/git/swp-report/iMX6_Platform_SDK/output/mx6sdl/lib/libsdk.a(ipu_dp.o)
 .debug_info    0x0004e205      0x7df /home/leon/git/swp-report/iMX6_Platform_SDK/output/mx6sdl/lib/libsdk.a(ipu_ic.o)
 .debug_info    0x0004e9e4     0x15fd /home/leon/git/swp-report/iMX6_Platform_SDK/output/mx6sdl/lib/libsdk.a(ipu_idmac.o)
 .debug_info    0x0004ffe1      0x7bd /home/leon/git/swp-report/iMX6_Platform_SDK/output/mx6sdl/lib/libsdk.a(ipu_vdi.o)
 .debug_info    0x0005079e      0x44a /home/leon/git/swp-report/iMX6_Platform_SDK/output/mx6sdl/lib/libsdk.a(ldb.o)
 .debug_info    0x00050be8     0x125b /home/leon/git/swp-report/iMX6_Platform_SDK/output/mx6sdl/lib/libsdk.a(mipi_csi2_common.o)
 .debug_info    0x00051e43     0x10ac /home/leon/git/swp-report/iMX6_Platform_SDK/output/mx6sdl/lib/libsdk.a(mipi_dsi_common.o)
 .debug_info    0x00052eef      0x196 /home/leon/git/swp-report/iMX6_Platform_SDK/output/mx6sdl/lib/libsdk.a(ov5640_mipi_fm.o)
 .debug_info    0x00053085      0x4c9 /home/leon/git/swp-report/iMX6_Platform_SDK/output/mx6sdl/lib/libsdk.a(ocotp.o)
 .debug_info    0x0005354e      0xaf9 /home/leon/git/swp-report/iMX6_Platform_SDK/output/mx6sdl/lib/libsdk.a(pcie.o)
 .debug_info    0x00054047      0x262 /home/leon/git/swp-report/iMX6_Platform_SDK/output/mx6sdl/lib/libsdk.a(pcie_phy.o)
 .debug_info    0x000542a9      0x6d0 /home/leon/git/swp-report/iMX6_Platform_SDK/output/mx6sdl/lib/libsdk.a(pcie_prot.o)
 .debug_info    0x00054979     0x3676 /home/leon/git/swp-report/iMX6_Platform_SDK/output/mx6sdl/lib/libsdk.a(pmu_driver.o)
 .debug_info    0x00057fef      0xb20 /home/leon/git/swp-report/iMX6_Platform_SDK/output/mx6sdl/lib/libsdk.a(pwm.o)
 .debug_info    0x00058b0f      0x7d6 /home/leon/git/swp-report/iMX6_Platform_SDK/output/mx6sdl/lib/libsdk.a(rtc.o)
 .debug_info    0x000592e5      0x778 /home/leon/git/swp-report/iMX6_Platform_SDK/output/mx6sdl/lib/libsdk.a(srtc.o)
 .debug_info    0x00059a5d     0x126a /home/leon/git/swp-report/iMX6_Platform_SDK/output/mx6sdl/lib/libsdk.a(sdma.o)
 .debug_info    0x0005acc7      0x1de /home/leon/git/swp-report/iMX6_Platform_SDK/output/mx6sdl/lib/libsdk.a(sdma_script_info.o)
 .debug_info    0x0005aea5      0x6c6 /home/leon/git/swp-report/iMX6_Platform_SDK/output/mx6sdl/lib/libsdk.a(snvs.o)
 .debug_info    0x0005b56b      0x70d /home/leon/git/swp-report/iMX6_Platform_SDK/output/mx6sdl/lib/libsdk.a(ecspi.o)
 .debug_info    0x0005bc78      0x86a /home/leon/git/swp-report/iMX6_Platform_SDK/output/mx6sdl/lib/libsdk.a(tempmon.o)
 .debug_info    0x0005c4e2      0xca8 /home/leon/git/swp-report/iMX6_Platform_SDK/output/mx6sdl/lib/libsdk.a(gpt.o)
 .debug_info    0x0005d18a     0x130c /home/leon/git/swp-report/iMX6_Platform_SDK/output/mx6sdl/lib/libsdk.a(usb_common.o)
 .debug_info    0x0005e496     0x23a1 /home/leon/git/swp-report/iMX6_Platform_SDK/output/mx6sdl/lib/libsdk.a(usbd_drv.o)
 .debug_info    0x00060837     0x1d3c /home/leon/git/swp-report/iMX6_Platform_SDK/output/mx6sdl/lib/libsdk.a(usbh_drv.o)
 .debug_info    0x00062573      0xf19 /home/leon/git/swp-report/iMX6_Platform_SDK/output/mx6sdl/lib/libsdk.a(usdhc.o)
 .debug_info    0x0006348c     0x1b51 /home/leon/git/swp-report/iMX6_Platform_SDK/output/mx6sdl/lib/libsdk.a(usdhc_host.o)
 .debug_info    0x00064fdd      0x9c7 /home/leon/git/swp-report/iMX6_Platform_SDK/output/mx6sdl/lib/libsdk.a(usdhc_mmc.o)
 .debug_info    0x000659a4      0x680 /home/leon/git/swp-report/iMX6_Platform_SDK/output/mx6sdl/lib/libsdk.a(usdhc_sd.o)
 .debug_info    0x00066024      0x5b0 /home/leon/git/swp-report/iMX6_Platform_SDK/output/mx6sdl/lib/libsdk.a(adv7180.o)
 .debug_info    0x000665d4      0x34b /home/leon/git/swp-report/iMX6_Platform_SDK/output/mx6sdl/lib/libsdk.a(hdmi_common.o)
 .debug_info    0x0006691f      0x5e4 /home/leon/git/swp-report/iMX6_Platform_SDK/output/mx6sdl/lib/libsdk.a(mx6x_usb.o)
 .debug_info    0x00066f03     0x17ff /home/leon/git/swp-report/iMX6_Platform_SDK/output/mx6sdl/lib/libboard_sabre_ai_rev_b.a(board_camera.o)
 .debug_info    0x00068702       0xea /home/leon/git/swp-report/iMX6_Platform_SDK/output/mx6sdl/lib/libboard_sabre_ai_rev_b.a(board_can.o)
 .debug_info    0x000687ec      0x632 /home/leon/git/swp-report/iMX6_Platform_SDK/output/mx6sdl/lib/libboard_sabre_ai_rev_b.a(board_display.o)
 .debug_info    0x00068e1e      0xb48 /home/leon/git/swp-report/iMX6_Platform_SDK/output/mx6sdl/lib/libboard_sabre_ai_rev_b.a(board_hdmi.o)
 .debug_info    0x00069966      0x1d2 /home/leon/git/swp-report/iMX6_Platform_SDK/output/mx6sdl/lib/libboard_sabre_ai_rev_b.a(board_i2c.o)
 .debug_info    0x00069b38      0x52e /home/leon/git/swp-report/iMX6_Platform_SDK/output/mx6sdl/lib/libboard_sabre_ai_rev_b.a(board_mipi.o)
 .debug_info    0x0006a066      0x4d0 /home/leon/git/swp-report/iMX6_Platform_SDK/output/mx6sdl/lib/libboard_sabre_ai_rev_b.a(board_pcie.o)
 .debug_info    0x0006a536      0x193 /home/leon/git/swp-report/iMX6_Platform_SDK/output/mx6sdl/lib/libboard_sabre_ai_rev_b.a(board_usb.o)
 .debug_info    0x0006a6c9      0x321 /home/leon/git/swp-report/iMX6_Platform_SDK/output/mx6sdl/lib/libboard_sabre_ai_rev_b.a(board_usdhc.o)
 .debug_info    0x0006a9ea       0xcf /home/leon/git/swp-report/iMX6_Platform_SDK/output/mx6sdl/lib/libboard_sabre_ai_rev_b.a(ecspi_iomux_config.o)
 .debug_info    0x0006aab9       0xcf /home/leon/git/swp-report/iMX6_Platform_SDK/output/mx6sdl/lib/libboard_sabre_ai_rev_b.a(flexcan_iomux_config.o)
 .debug_info    0x0006ab88       0xcf /home/leon/git/swp-report/iMX6_Platform_SDK/output/mx6sdl/lib/libboard_sabre_ai_rev_b.a(i2c_iomux_config.o)
 .debug_info    0x0006ac57       0xcf /home/leon/git/swp-report/iMX6_Platform_SDK/output/mx6sdl/lib/libboard_sabre_ai_rev_b.a(pwm_iomux_config.o)
 .debug_info    0x0006ad26       0xcf /home/leon/git/swp-report/iMX6_Platform_SDK/output/mx6sdl/lib/libboard_sabre_ai_rev_b.a(usdhc_iomux_config.o)

.debug_abbrev   0x00000000     0xe246
 .debug_abbrev  0x00000000       0xe6 /home/leon/git/swp-report/iMX6_Platform_SDK/output/mx6sdl/sdk_unit_test/sabre_ai_rev_b/obj/apps/common/ivt.o
 .debug_abbrev  0x000000e6       0x89 /home/leon/git/swp-report/iMX6_Platform_SDK/output/mx6sdl/sdk_unit_test/sabre_ai_rev_b/obj/apps/common/platform_init.o
 .debug_abbrev  0x0000016f       0xa1 /home/leon/git/swp-report/iMX6_Platform_SDK/output/mx6sdl/sdk_unit_test/sabre_ai_rev_b/obj/apps/common/print_clock_info.o
 .debug_abbrev  0x00000210       0xcf /home/leon/git/swp-report/iMX6_Platform_SDK/output/mx6sdl/sdk_unit_test/sabre_ai_rev_b/obj/apps/common/print_version.o
 .debug_abbrev  0x000002df      0x121 /home/leon/git/swp-report/iMX6_Platform_SDK/output/mx6sdl/sdk_unit_test/sabre_ai_rev_b/obj/apps/sdk_unit_test/src/all_test.o
 .debug_abbrev  0x00000400       0x44 /home/leon/git/swp-report/iMX6_Platform_SDK/output/mx6sdl/sdk_unit_test/sabre_ai_rev_b/obj/apps/sdk_unit_test/src/unit_test_main.o
 .debug_abbrev  0x00000444      0x1b1 /home/leon/git/swp-report/iMX6_Platform_SDK/output/mx6sdl/lib/libsdk.a(ccm_pll.o)
 .debug_abbrev  0x000005f5      0x179 /home/leon/git/swp-report/iMX6_Platform_SDK/output/mx6sdl/lib/libsdk.a(gic.o)
 .debug_abbrev  0x0000076e      0x172 /home/leon/git/swp-report/iMX6_Platform_SDK/output/mx6sdl/lib/libsdk.a(mmu.o)
 .debug_abbrev  0x000008e0      0x2b3 /home/leon/git/swp-report/iMX6_Platform_SDK/output/mx6sdl/lib/libsdk.a(menu.o)
 .debug_abbrev  0x00000b93       0x43 /home/leon/git/swp-report/iMX6_Platform_SDK/output/mx6sdl/lib/libsdk.a(sdk_version.o)
 .debug_abbrev  0x00000bd6      0x276 /home/leon/git/swp-report/iMX6_Platform_SDK/output/mx6sdl/lib/libsdk.a(system_util.o)
 .debug_abbrev  0x00000e4c       0xd0 /home/leon/git/swp-report/iMX6_Platform_SDK/output/mx6sdl/lib/libsdk.a(text_color.o)
 .debug_abbrev  0x00000f1c      0x13a /home/leon/git/swp-report/iMX6_Platform_SDK/output/mx6sdl/lib/libsdk.a(board_id.o)
 .debug_abbrev  0x00001056      0x122 /home/leon/git/swp-report/iMX6_Platform_SDK/output/mx6sdl/lib/libsdk.a(timer.o)
 .debug_abbrev  0x00001178      0x1e3 /home/leon/git/swp-report/iMX6_Platform_SDK/output/mx6sdl/lib/libsdk.a(imx_uart.o)
 .debug_abbrev  0x0000135b      0x11a /home/leon/git/swp-report/iMX6_Platform_SDK/output/mx6sdl/lib/libsdk.a(interrupt.o)
 .debug_abbrev  0x00001475      0x194 /home/leon/git/swp-report/iMX6_Platform_SDK/output/mx6sdl/lib/libsdk.a(epit.o)
 .debug_abbrev  0x00001609       0xc8 /home/leon/git/swp-report/iMX6_Platform_SDK/output/mx6sdl/lib/libsdk.a(abort_handler.o)
 .debug_abbrev  0x000016d1       0xc8 /home/leon/git/swp-report/iMX6_Platform_SDK/output/mx6sdl/lib/libboard_sabre_ai_rev_b.a(board_io_expanders.o)
 .debug_abbrev  0x00001799       0x44 /home/leon/git/swp-report/iMX6_Platform_SDK/output/mx6sdl/lib/libboard_sabre_ai_rev_b.a(hardware_modules.o)
 .debug_abbrev  0x000017dd       0x75 /home/leon/git/swp-report/iMX6_Platform_SDK/output/mx6sdl/lib/libboard_sabre_ai_rev_b.a(dcd.o)
 .debug_abbrev  0x00001852      0x106 /home/leon/git/swp-report/iMX6_Platform_SDK/output/mx6sdl/lib/libboard_sabre_ai_rev_b.a(i2c3_iomux_config.o)
 .debug_abbrev  0x00001958       0x79 /home/leon/git/swp-report/iMX6_Platform_SDK/output/mx6sdl/lib/libboard_sabre_ai_rev_b.a(uart_iomux_config.o)
 .debug_abbrev  0x000019d1       0x42 /home/leon/git/swp-report/iMX6_Platform_SDK/output/mx6sdl/lib/libboard_sabre_ai_rev_b.a(iomux_config.o)
 .debug_abbrev  0x00001a13       0xa4 /home/leon/git/swp-report/iMX6_Platform_SDK/output/mx6sdl/lib/libboard_sabre_ai_rev_b.a(ipu1_iomux_config.o)
 .debug_abbrev  0x00001ab7       0xf1 /home/leon/git/swp-report/iMX6_Platform_SDK/output/mx6sdl/lib/libboard_sabre_ai_rev_b.a(mlb_iomux_config.o)
 .debug_abbrev  0x00001ba8      0x106 /home/leon/git/swp-report/iMX6_Platform_SDK/output/mx6sdl/lib/libboard_sabre_ai_rev_b.a(mmdc_iomux_config.o)
 .debug_abbrev  0x00001cae       0xf1 /home/leon/git/swp-report/iMX6_Platform_SDK/output/mx6sdl/lib/libboard_sabre_ai_rev_b.a(pwm3_iomux_config.o)
 .debug_abbrev  0x00001d9f       0xf1 /home/leon/git/swp-report/iMX6_Platform_SDK/output/mx6sdl/lib/libboard_sabre_ai_rev_b.a(pwm4_iomux_config.o)
 .debug_abbrev  0x00001e90       0xa4 /home/leon/git/swp-report/iMX6_Platform_SDK/output/mx6sdl/lib/libboard_sabre_ai_rev_b.a(sjc_iomux_config.o)
 .debug_abbrev  0x00001f34       0xf1 /home/leon/git/swp-report/iMX6_Platform_SDK/output/mx6sdl/lib/libboard_sabre_ai_rev_b.a(spdif_iomux_config.o)
 .debug_abbrev  0x00002025       0xf1 /home/leon/git/swp-report/iMX6_Platform_SDK/output/mx6sdl/lib/libboard_sabre_ai_rev_b.a(uart2_iomux_config.o)
 .debug_abbrev  0x00002116      0x106 /home/leon/git/swp-report/iMX6_Platform_SDK/output/mx6sdl/lib/libboard_sabre_ai_rev_b.a(uart3_iomux_config.o)
 .debug_abbrev  0x0000221c       0xf1 /home/leon/git/swp-report/iMX6_Platform_SDK/output/mx6sdl/lib/libboard_sabre_ai_rev_b.a(uart4_iomux_config.o)
 .debug_abbrev  0x0000230d       0xf1 /home/leon/git/swp-report/iMX6_Platform_SDK/output/mx6sdl/lib/libboard_sabre_ai_rev_b.a(usdhc1_iomux_config.o)
 .debug_abbrev  0x000023fe       0xf1 /home/leon/git/swp-report/iMX6_Platform_SDK/output/mx6sdl/lib/libboard_sabre_ai_rev_b.a(usdhc3_iomux_config.o)
 .debug_abbrev  0x000024ef       0xa4 /home/leon/git/swp-report/iMX6_Platform_SDK/output/mx6sdl/lib/libboard_sabre_ai_rev_b.a(wdog1_iomux_config.o)
 .debug_abbrev  0x00002593       0xf1 /home/leon/git/swp-report/iMX6_Platform_SDK/output/mx6sdl/lib/libboard_sabre_ai_rev_b.a(audmux_iomux_config.o)
 .debug_abbrev  0x00002684       0xf1 /home/leon/git/swp-report/iMX6_Platform_SDK/output/mx6sdl/lib/libboard_sabre_ai_rev_b.a(ccm_iomux_config.o)
 .debug_abbrev  0x00002775      0x106 /home/leon/git/swp-report/iMX6_Platform_SDK/output/mx6sdl/lib/libboard_sabre_ai_rev_b.a(ecspi1_iomux_config.o)
 .debug_abbrev  0x0000287b      0x106 /home/leon/git/swp-report/iMX6_Platform_SDK/output/mx6sdl/lib/libboard_sabre_ai_rev_b.a(eim_iomux_config.o)
 .debug_abbrev  0x00002981       0xf1 /home/leon/git/swp-report/iMX6_Platform_SDK/output/mx6sdl/lib/libboard_sabre_ai_rev_b.a(enet_iomux_config.o)
 .debug_abbrev  0x00002a72       0xf1 /home/leon/git/swp-report/iMX6_Platform_SDK/output/mx6sdl/lib/libboard_sabre_ai_rev_b.a(esai_iomux_config.o)
 .debug_abbrev  0x00002b63       0xf1 /home/leon/git/swp-report/iMX6_Platform_SDK/output/mx6sdl/lib/libboard_sabre_ai_rev_b.a(flexcan1_iomux_config.o)
 .debug_abbrev  0x00002c54       0xf1 /home/leon/git/swp-report/iMX6_Platform_SDK/output/mx6sdl/lib/libboard_sabre_ai_rev_b.a(flexcan2_iomux_config.o)
 .debug_abbrev  0x00002d45       0xf1 /home/leon/git/swp-report/iMX6_Platform_SDK/output/mx6sdl/lib/libboard_sabre_ai_rev_b.a(gpio1_iomux_config.o)
 .debug_abbrev  0x00002e36      0x106 /home/leon/git/swp-report/iMX6_Platform_SDK/output/mx6sdl/lib/libboard_sabre_ai_rev_b.a(gpio2_iomux_config.o)
 .debug_abbrev  0x00002f3c       0xf1 /home/leon/git/swp-report/iMX6_Platform_SDK/output/mx6sdl/lib/libboard_sabre_ai_rev_b.a(gpio4_iomux_config.o)
 .debug_abbrev  0x0000302d       0xa4 /home/leon/git/swp-report/iMX6_Platform_SDK/output/mx6sdl/lib/libboard_sabre_ai_rev_b.a(gpio5_iomux_config.o)
 .debug_abbrev  0x000030d1      0x106 /home/leon/git/swp-report/iMX6_Platform_SDK/output/mx6sdl/lib/libboard_sabre_ai_rev_b.a(gpio6_iomux_config.o)
 .debug_abbrev  0x000031d7       0xf1 /home/leon/git/swp-report/iMX6_Platform_SDK/output/mx6sdl/lib/libboard_sabre_ai_rev_b.a(gpmi_iomux_config.o)
 .debug_abbrev  0x000032c8       0xf1 /home/leon/git/swp-report/iMX6_Platform_SDK/output/mx6sdl/lib/libboard_sabre_ai_rev_b.a(i2c2_iomux_config.o)
 .debug_abbrev  0x000033b9       0x78 /home/leon/git/swp-report/iMX6_Platform_SDK/output/mx6sdl/sdk_unit_test/sabre_ai_rev_b/libsdk_unit_test.a(gic_test.o)
 .debug_abbrev  0x00003431       0xf1 /home/leon/git/swp-report/iMX6_Platform_SDK/output/mx6sdl/sdk_unit_test/sabre_ai_rev_b/libsdk_unit_test.a(cpu_wp_test.o)
 .debug_abbrev  0x00003522       0xb7 /home/leon/git/swp-report/iMX6_Platform_SDK/output/mx6sdl/sdk_unit_test/sabre_ai_rev_b/libsdk_unit_test.a(multicore_test.o)
 .debug_abbrev  0x000035d9      0x191 /home/leon/git/swp-report/iMX6_Platform_SDK/output/mx6sdl/sdk_unit_test/sabre_ai_rev_b/libsdk_unit_test.a(ocotp_test.o)
 .debug_abbrev  0x0000376a      0x182 /home/leon/git/swp-report/iMX6_Platform_SDK/output/mx6sdl/sdk_unit_test/sabre_ai_rev_b/libsdk_unit_test.a(i2c_test.o)
 .debug_abbrev  0x000038ec      0x1d4 /home/leon/git/swp-report/iMX6_Platform_SDK/output/mx6sdl/sdk_unit_test/sabre_ai_rev_b/libsdk_unit_test.a(imx6_i2c_device.o)
 .debug_abbrev  0x00003ac0      0x1d4 /home/leon/git/swp-report/iMX6_Platform_SDK/output/mx6sdl/sdk_unit_test/sabre_ai_rev_b/libsdk_unit_test.a(snvs_rtc_test.o)
 .debug_abbrev  0x00003c94      0x1d4 /home/leon/git/swp-report/iMX6_Platform_SDK/output/mx6sdl/sdk_unit_test/sabre_ai_rev_b/libsdk_unit_test.a(snvs_srtc_test.o)
 .debug_abbrev  0x00003e68      0x1a7 /home/leon/git/swp-report/iMX6_Platform_SDK/output/mx6sdl/sdk_unit_test/sabre_ai_rev_b/libsdk_unit_test.a(tempmon_test.o)
 .debug_abbrev  0x0000400f      0x19a /home/leon/git/swp-report/iMX6_Platform_SDK/output/mx6sdl/sdk_unit_test/sabre_ai_rev_b/libsdk_unit_test.a(sdma_test.o)
 .debug_abbrev  0x000041a9      0x102 /home/leon/git/swp-report/iMX6_Platform_SDK/output/mx6sdl/sdk_unit_test/sabre_ai_rev_b/libsdk_unit_test.a(spi_lpb.o)
 .debug_abbrev  0x000042ab      0x196 /home/leon/git/swp-report/iMX6_Platform_SDK/output/mx6sdl/sdk_unit_test/sabre_ai_rev_b/libsdk_unit_test.a(uart_loopback.o)
 .debug_abbrev  0x00004441      0x1de /home/leon/git/swp-report/iMX6_Platform_SDK/output/mx6sdl/sdk_unit_test/sabre_ai_rev_b/libsdk_unit_test.a(epit_test.o)
 .debug_abbrev  0x0000461f      0x275 /home/leon/git/swp-report/iMX6_Platform_SDK/output/mx6sdl/sdk_unit_test/sabre_ai_rev_b/libsdk_unit_test.a(gpt_test.o)
 .debug_abbrev  0x00004894       0x5e /home/leon/git/swp-report/iMX6_Platform_SDK/output/mx6sdl/sdk_unit_test/sabre_ai_rev_b/libsdk_unit_test.a(timer_test.o)
 .debug_abbrev  0x000048f2      0x1db /home/leon/git/swp-report/iMX6_Platform_SDK/output/mx6sdl/sdk_unit_test/sabre_ai_rev_b/libsdk_unit_test.a(uart_test.o)
 .debug_abbrev  0x00004acd      0x243 /home/leon/git/swp-report/iMX6_Platform_SDK/output/mx6sdl/sdk_unit_test/sabre_ai_rev_b/libsdk_unit_test.a(usdhc_test.o)
 .debug_abbrev  0x00004d10      0x1b2 /home/leon/git/swp-report/iMX6_Platform_SDK/output/mx6sdl/sdk_unit_test/sabre_ai_rev_b/libsdk_unit_test.a(pwm_test.o)
 .debug_abbrev  0x00004ec2      0x1b0 /home/leon/git/swp-report/iMX6_Platform_SDK/output/mx6sdl/sdk_unit_test/sabre_ai_rev_b/libsdk_unit_test.a(watchdog_test.o)
 .debug_abbrev  0x00005072      0x15c /home/leon/git/swp-report/iMX6_Platform_SDK/output/mx6sdl/sdk_unit_test/sabre_ai_rev_b/libsdk_unit_test.a(hdmi_test.o)
 .debug_abbrev  0x000051ce      0x1fe /home/leon/git/swp-report/iMX6_Platform_SDK/output/mx6sdl/sdk_unit_test/sabre_ai_rev_b/libsdk_unit_test.a(ips_display.o)
 .debug_abbrev  0x000053cc      0x19a /home/leon/git/swp-report/iMX6_Platform_SDK/output/mx6sdl/sdk_unit_test/sabre_ai_rev_b/libsdk_unit_test.a(ips_test.o)
 .debug_abbrev  0x00005566      0x10d /home/leon/git/swp-report/iMX6_Platform_SDK/output/mx6sdl/sdk_unit_test/sabre_ai_rev_b/libsdk_unit_test.a(ipu_image.o)
 .debug_abbrev  0x00005673      0x1b2 /home/leon/git/swp-report/iMX6_Platform_SDK/output/mx6sdl/sdk_unit_test/sabre_ai_rev_b/libsdk_unit_test.a(mipi_test.o)
 .debug_abbrev  0x00005825      0x1a0 /home/leon/git/swp-report/iMX6_Platform_SDK/output/mx6sdl/sdk_unit_test/sabre_ai_rev_b/libsdk_unit_test.a(can_test.o)
 .debug_abbrev  0x000059c5       0xc1 /home/leon/git/swp-report/iMX6_Platform_SDK/output/mx6sdl/sdk_unit_test/sabre_ai_rev_b/libsdk_unit_test.a(usb_test.o)
 .debug_abbrev  0x00005a86      0x212 /home/leon/git/swp-report/iMX6_Platform_SDK/output/mx6sdl/sdk_unit_test/sabre_ai_rev_b/libsdk_unit_test.a(eim_test.o)
 .debug_abbrev  0x00005c98      0x1d0 /home/leon/git/swp-report/iMX6_Platform_SDK/output/mx6sdl/sdk_unit_test/sabre_ai_rev_b/libsdk_unit_test.a(pcie_test_rc.o)
 .debug_abbrev  0x00005e68      0x221 /home/leon/git/swp-report/iMX6_Platform_SDK/output/mx6sdl/sdk_unit_test/sabre_ai_rev_b/libsdk_unit_test.a(spi_test.o)
 .debug_abbrev  0x00006089      0x1d4 /home/leon/git/swp-report/iMX6_Platform_SDK/output/mx6sdl/sdk_unit_test/sabre_ai_rev_b/libsdk_unit_test.a(camera_test.o)
 .debug_abbrev  0x0000625d      0x1c1 /home/leon/git/swp-report/iMX6_Platform_SDK/output/mx6sdl/sdk_unit_test/sabre_ai_rev_b/libsdk_unit_test.a(csi_test_mode.o)
 .debug_abbrev  0x0000641e      0x1a9 /home/leon/git/swp-report/iMX6_Platform_SDK/output/mx6sdl/sdk_unit_test/sabre_ai_rev_b/libsdk_unit_test.a(accelerometer_test.o)
 .debug_abbrev  0x000065c7      0x124 /home/leon/git/swp-report/iMX6_Platform_SDK/output/mx6sdl/sdk_unit_test/sabre_ai_rev_b/libsdk_unit_test.a(at24cxx.o)
 .debug_abbrev  0x000066eb       0xe5 /home/leon/git/swp-report/iMX6_Platform_SDK/output/mx6sdl/sdk_unit_test/sabre_ai_rev_b/libsdk_unit_test.a(mem_2_mem.o)
 .debug_abbrev  0x000067d0      0x10b /home/leon/git/swp-report/iMX6_Platform_SDK/output/mx6sdl/sdk_unit_test/sabre_ai_rev_b/libsdk_unit_test.a(pwm_output.o)
 .debug_abbrev  0x000068db      0x117 /home/leon/git/swp-report/iMX6_Platform_SDK/output/mx6sdl/sdk_unit_test/sabre_ai_rev_b/libsdk_unit_test.a(init_dma_data.o)
 .debug_abbrev  0x000069f2      0x1bd /home/leon/git/swp-report/iMX6_Platform_SDK/output/mx6sdl/sdk_unit_test/sabre_ai_rev_b/libsdk_unit_test.a(ips_combiner.o)
 .debug_abbrev  0x00006baf      0x1d5 /home/leon/git/swp-report/iMX6_Platform_SDK/output/mx6sdl/sdk_unit_test/sabre_ai_rev_b/libsdk_unit_test.a(ips_csc.o)
 .debug_abbrev  0x00006d84      0x1ce /home/leon/git/swp-report/iMX6_Platform_SDK/output/mx6sdl/sdk_unit_test/sabre_ai_rev_b/libsdk_unit_test.a(ips_resize.o)
 .debug_abbrev  0x00006f52      0x1ce /home/leon/git/swp-report/iMX6_Platform_SDK/output/mx6sdl/sdk_unit_test/sabre_ai_rev_b/libsdk_unit_test.a(ips_rotate.o)
 .debug_abbrev  0x00007120       0xd9 /home/leon/git/swp-report/iMX6_Platform_SDK/output/mx6sdl/sdk_unit_test/sabre_ai_rev_b/libsdk_unit_test.a(mipi_csi2_test.o)
 .debug_abbrev  0x000071f9       0x69 /home/leon/git/swp-report/iMX6_Platform_SDK/output/mx6sdl/sdk_unit_test/sabre_ai_rev_b/libsdk_unit_test.a(mipi_dsi_test.o)
 .debug_abbrev  0x00007262      0x26c /home/leon/git/swp-report/iMX6_Platform_SDK/output/mx6sdl/sdk_unit_test/sabre_ai_rev_b/libsdk_unit_test.a(usb0_device_mouse_test.o)
 .debug_abbrev  0x000074ce      0x1b7 /home/leon/git/swp-report/iMX6_Platform_SDK/output/mx6sdl/sdk_unit_test/sabre_ai_rev_b/libsdk_unit_test.a(usb0_host_test.o)
 .debug_abbrev  0x00007685      0x129 /home/leon/git/swp-report/iMX6_Platform_SDK/output/mx6sdl/sdk_unit_test/sabre_ai_rev_b/libsdk_unit_test.a(usb0_host_testmodes_test.o)
 .debug_abbrev  0x000077ae      0x17a /home/leon/git/swp-report/iMX6_Platform_SDK/output/mx6sdl/sdk_unit_test/sabre_ai_rev_b/libsdk_unit_test.a(cfi_flash_api.o)
 .debug_abbrev  0x00007928      0x20c /home/leon/git/swp-report/iMX6_Platform_SDK/output/mx6sdl/sdk_unit_test/sabre_ai_rev_b/libsdk_unit_test.a(cfi_flash_driver.o)
 .debug_abbrev  0x00007b34      0x15b /home/leon/git/swp-report/iMX6_Platform_SDK/output/mx6sdl/sdk_unit_test/sabre_ai_rev_b/libsdk_unit_test.a(spi_nor_numonyx.o)
 .debug_abbrev  0x00007c8f      0x1e2 /home/leon/git/swp-report/iMX6_Platform_SDK/output/mx6sdl/sdk_unit_test/sabre_ai_rev_b/libsdk_unit_test.a(adv7180_capture.o)
 .debug_abbrev  0x00007e71       0xf9 /home/leon/git/swp-report/iMX6_Platform_SDK/output/mx6sdl/lib/libsdk.a(max7310.o)
 .debug_abbrev  0x00007f6a       0x60 /home/leon/git/swp-report/iMX6_Platform_SDK/output/mx6sdl/lib/libsdk.a(profile.o)
 .debug_abbrev  0x00007fca      0x133 /home/leon/git/swp-report/iMX6_Platform_SDK/output/mx6sdl/lib/libsdk.a(armv7_cache.o)
 .debug_abbrev  0x000080fd      0x1e2 /home/leon/git/swp-report/iMX6_Platform_SDK/output/mx6sdl/lib/libsdk.a(runtime_support.o)
 .debug_abbrev  0x000082df       0xf9 /home/leon/git/swp-report/iMX6_Platform_SDK/output/mx6sdl/lib/libsdk.a(mma8451.o)
 .debug_abbrev  0x000083d8       0xc5 /home/leon/git/swp-report/iMX6_Platform_SDK/output/mx6sdl/lib/libsdk.a(cpu_get_cores.o)
 .debug_abbrev  0x0000849d      0x187 /home/leon/git/swp-report/iMX6_Platform_SDK/output/mx6sdl/lib/libsdk.a(cpu_multicore.o)
 .debug_abbrev  0x00008624      0x15c /home/leon/git/swp-report/iMX6_Platform_SDK/output/mx6sdl/lib/libsdk.a(cpu_workpoint.o)
 .debug_abbrev  0x00008780      0x1ab /home/leon/git/swp-report/iMX6_Platform_SDK/output/mx6sdl/lib/libsdk.a(eim.o)
 .debug_abbrev  0x0000892b      0x1f5 /home/leon/git/swp-report/iMX6_Platform_SDK/output/mx6sdl/lib/libsdk.a(can.o)
 .debug_abbrev  0x00008b20      0x228 /home/leon/git/swp-report/iMX6_Platform_SDK/output/mx6sdl/lib/libsdk.a(gpio.o)
 .debug_abbrev  0x00008d48       0x5b /home/leon/git/swp-report/iMX6_Platform_SDK/output/mx6sdl/lib/libsdk.a(imx6sdl_gpio_map.o)
 .debug_abbrev  0x00008da3      0x1af /home/leon/git/swp-report/iMX6_Platform_SDK/output/mx6sdl/lib/libsdk.a(hdmi_tx.o)
 .debug_abbrev  0x00008f52      0x1c1 /home/leon/git/swp-report/iMX6_Platform_SDK/output/mx6sdl/lib/libsdk.a(hdmi_tx_audio.o)
 .debug_abbrev  0x00009113      0x180 /home/leon/git/swp-report/iMX6_Platform_SDK/output/mx6sdl/lib/libsdk.a(hdmi_tx_phy.o)
 .debug_abbrev  0x00009293      0x2c9 /home/leon/git/swp-report/iMX6_Platform_SDK/output/mx6sdl/lib/libsdk.a(imx_i2c.o)
 .debug_abbrev  0x0000955c      0x199 /home/leon/git/swp-report/iMX6_Platform_SDK/output/mx6sdl/lib/libsdk.a(imx_i2c_slave.o)
 .debug_abbrev  0x000096f5      0x1ac /home/leon/git/swp-report/iMX6_Platform_SDK/output/mx6sdl/lib/libsdk.a(ips_disp_panel.o)
 .debug_abbrev  0x000098a1      0x212 /home/leon/git/swp-report/iMX6_Platform_SDK/output/mx6sdl/lib/libsdk.a(ipu_common.o)
 .debug_abbrev  0x00009ab3       0xf9 /home/leon/git/swp-report/iMX6_Platform_SDK/output/mx6sdl/lib/libsdk.a(ipu_csi.o)
 .debug_abbrev  0x00009bac      0x164 /home/leon/git/swp-report/iMX6_Platform_SDK/output/mx6sdl/lib/libsdk.a(ipu_dc.o)
 .debug_abbrev  0x00009d10      0x1ac /home/leon/git/swp-report/iMX6_Platform_SDK/output/mx6sdl/lib/libsdk.a(ipu_di.o)
 .debug_abbrev  0x00009ebc       0x8e /home/leon/git/swp-report/iMX6_Platform_SDK/output/mx6sdl/lib/libsdk.a(ipu_dmfc.o)
 .debug_abbrev  0x00009f4a       0xc7 /home/leon/git/swp-report/iMX6_Platform_SDK/output/mx6sdl/lib/libsdk.a(ipu_dp.o)
 .debug_abbrev  0x0000a011      0x171 /home/leon/git/swp-report/iMX6_Platform_SDK/output/mx6sdl/lib/libsdk.a(ipu_ic.o)
 .debug_abbrev  0x0000a182      0x20c /home/leon/git/swp-report/iMX6_Platform_SDK/output/mx6sdl/lib/libsdk.a(ipu_idmac.o)
 .debug_abbrev  0x0000a38e      0x161 /home/leon/git/swp-report/iMX6_Platform_SDK/output/mx6sdl/lib/libsdk.a(ipu_vdi.o)
 .debug_abbrev  0x0000a4ef      0x144 /home/leon/git/swp-report/iMX6_Platform_SDK/output/mx6sdl/lib/libsdk.a(ldb.o)
 .debug_abbrev  0x0000a633      0x2d1 /home/leon/git/swp-report/iMX6_Platform_SDK/output/mx6sdl/lib/libsdk.a(mipi_csi2_common.o)
 .debug_abbrev  0x0000a904      0x178 /home/leon/git/swp-report/iMX6_Platform_SDK/output/mx6sdl/lib/libsdk.a(mipi_dsi_common.o)
 .debug_abbrev  0x0000aa7c       0x95 /home/leon/git/swp-report/iMX6_Platform_SDK/output/mx6sdl/lib/libsdk.a(ov5640_mipi_fm.o)
 .debug_abbrev  0x0000ab11      0x1ae /home/leon/git/swp-report/iMX6_Platform_SDK/output/mx6sdl/lib/libsdk.a(ocotp.o)
 .debug_abbrev  0x0000acbf      0x215 /home/leon/git/swp-report/iMX6_Platform_SDK/output/mx6sdl/lib/libsdk.a(pcie.o)
 .debug_abbrev  0x0000aed4      0x124 /home/leon/git/swp-report/iMX6_Platform_SDK/output/mx6sdl/lib/libsdk.a(pcie_phy.o)
 .debug_abbrev  0x0000aff8      0x142 /home/leon/git/swp-report/iMX6_Platform_SDK/output/mx6sdl/lib/libsdk.a(pcie_prot.o)
 .debug_abbrev  0x0000b13a      0x52d /home/leon/git/swp-report/iMX6_Platform_SDK/output/mx6sdl/lib/libsdk.a(pmu_driver.o)
 .debug_abbrev  0x0000b667      0x1f8 /home/leon/git/swp-report/iMX6_Platform_SDK/output/mx6sdl/lib/libsdk.a(pwm.o)
 .debug_abbrev  0x0000b85f      0x162 /home/leon/git/swp-report/iMX6_Platform_SDK/output/mx6sdl/lib/libsdk.a(rtc.o)
 .debug_abbrev  0x0000b9c1      0x162 /home/leon/git/swp-report/iMX6_Platform_SDK/output/mx6sdl/lib/libsdk.a(srtc.o)
 .debug_abbrev  0x0000bb23      0x2f2 /home/leon/git/swp-report/iMX6_Platform_SDK/output/mx6sdl/lib/libsdk.a(sdma.o)
 .debug_abbrev  0x0000be15       0xbd /home/leon/git/swp-report/iMX6_Platform_SDK/output/mx6sdl/lib/libsdk.a(sdma_script_info.o)
 .debug_abbrev  0x0000bed2       0xf4 /home/leon/git/swp-report/iMX6_Platform_SDK/output/mx6sdl/lib/libsdk.a(snvs.o)
 .debug_abbrev  0x0000bfc6      0x1f9 /home/leon/git/swp-report/iMX6_Platform_SDK/output/mx6sdl/lib/libsdk.a(ecspi.o)
 .debug_abbrev  0x0000c1bf      0x1c9 /home/leon/git/swp-report/iMX6_Platform_SDK/output/mx6sdl/lib/libsdk.a(tempmon.o)
 .debug_abbrev  0x0000c388      0x1f1 /home/leon/git/swp-report/iMX6_Platform_SDK/output/mx6sdl/lib/libsdk.a(gpt.o)
 .debug_abbrev  0x0000c579      0x223 /home/leon/git/swp-report/iMX6_Platform_SDK/output/mx6sdl/lib/libsdk.a(usb_common.o)
 .debug_abbrev  0x0000c79c      0x21a /home/leon/git/swp-report/iMX6_Platform_SDK/output/mx6sdl/lib/libsdk.a(usbd_drv.o)
 .debug_abbrev  0x0000c9b6      0x1c8 /home/leon/git/swp-report/iMX6_Platform_SDK/output/mx6sdl/lib/libsdk.a(usbh_drv.o)
 .debug_abbrev  0x0000cb7e      0x20c /home/leon/git/swp-report/iMX6_Platform_SDK/output/mx6sdl/lib/libsdk.a(usdhc.o)
 .debug_abbrev  0x0000cd8a      0x296 /home/leon/git/swp-report/iMX6_Platform_SDK/output/mx6sdl/lib/libsdk.a(usdhc_host.o)
 .debug_abbrev  0x0000d020      0x1ac /home/leon/git/swp-report/iMX6_Platform_SDK/output/mx6sdl/lib/libsdk.a(usdhc_mmc.o)
 .debug_abbrev  0x0000d1cc      0x143 /home/leon/git/swp-report/iMX6_Platform_SDK/output/mx6sdl/lib/libsdk.a(usdhc_sd.o)
 .debug_abbrev  0x0000d30f      0x1f4 /home/leon/git/swp-report/iMX6_Platform_SDK/output/mx6sdl/lib/libsdk.a(adv7180.o)
 .debug_abbrev  0x0000d503       0xb9 /home/leon/git/swp-report/iMX6_Platform_SDK/output/mx6sdl/lib/libsdk.a(hdmi_common.o)
 .debug_abbrev  0x0000d5bc      0x155 /home/leon/git/swp-report/iMX6_Platform_SDK/output/mx6sdl/lib/libsdk.a(mx6x_usb.o)
 .debug_abbrev  0x0000d711      0x18a /home/leon/git/swp-report/iMX6_Platform_SDK/output/mx6sdl/lib/libboard_sabre_ai_rev_b.a(board_camera.o)
 .debug_abbrev  0x0000d89b       0x74 /home/leon/git/swp-report/iMX6_Platform_SDK/output/mx6sdl/lib/libboard_sabre_ai_rev_b.a(board_can.o)
 .debug_abbrev  0x0000d90f      0x187 /home/leon/git/swp-report/iMX6_Platform_SDK/output/mx6sdl/lib/libboard_sabre_ai_rev_b.a(board_display.o)
 .debug_abbrev  0x0000da96      0x152 /home/leon/git/swp-report/iMX6_Platform_SDK/output/mx6sdl/lib/libboard_sabre_ai_rev_b.a(board_hdmi.o)
 .debug_abbrev  0x0000dbe8       0x69 /home/leon/git/swp-report/iMX6_Platform_SDK/output/mx6sdl/lib/libboard_sabre_ai_rev_b.a(board_i2c.o)
 .debug_abbrev  0x0000dc51       0xc9 /home/leon/git/swp-report/iMX6_Platform_SDK/output/mx6sdl/lib/libboard_sabre_ai_rev_b.a(board_mipi.o)
 .debug_abbrev  0x0000dd1a       0xf2 /home/leon/git/swp-report/iMX6_Platform_SDK/output/mx6sdl/lib/libboard_sabre_ai_rev_b.a(board_pcie.o)
 .debug_abbrev  0x0000de0c       0xc0 /home/leon/git/swp-report/iMX6_Platform_SDK/output/mx6sdl/lib/libboard_sabre_ai_rev_b.a(board_usb.o)
 .debug_abbrev  0x0000decc      0x11d /home/leon/git/swp-report/iMX6_Platform_SDK/output/mx6sdl/lib/libboard_sabre_ai_rev_b.a(board_usdhc.o)
 .debug_abbrev  0x0000dfe9       0x79 /home/leon/git/swp-report/iMX6_Platform_SDK/output/mx6sdl/lib/libboard_sabre_ai_rev_b.a(ecspi_iomux_config.o)
 .debug_abbrev  0x0000e062       0x79 /home/leon/git/swp-report/iMX6_Platform_SDK/output/mx6sdl/lib/libboard_sabre_ai_rev_b.a(flexcan_iomux_config.o)
 .debug_abbrev  0x0000e0db       0x79 /home/leon/git/swp-report/iMX6_Platform_SDK/output/mx6sdl/lib/libboard_sabre_ai_rev_b.a(i2c_iomux_config.o)
 .debug_abbrev  0x0000e154       0x79 /home/leon/git/swp-report/iMX6_Platform_SDK/output/mx6sdl/lib/libboard_sabre_ai_rev_b.a(pwm_iomux_config.o)
 .debug_abbrev  0x0000e1cd       0x79 /home/leon/git/swp-report/iMX6_Platform_SDK/output/mx6sdl/lib/libboard_sabre_ai_rev_b.a(usdhc_iomux_config.o)

.debug_aranges  0x00000000     0x1650
 .debug_aranges
                0x00000000       0x18 /home/leon/git/swp-report/iMX6_Platform_SDK/output/mx6sdl/sdk_unit_test/sabre_ai_rev_b/obj/apps/common/ivt.o
 .debug_aranges
                0x00000018       0x20 /home/leon/git/swp-report/iMX6_Platform_SDK/output/mx6sdl/sdk_unit_test/sabre_ai_rev_b/obj/apps/common/platform_init.o
 .debug_aranges
                0x00000038       0x20 /home/leon/git/swp-report/iMX6_Platform_SDK/output/mx6sdl/sdk_unit_test/sabre_ai_rev_b/obj/apps/common/print_clock_info.o
 .debug_aranges
                0x00000058       0x20 /home/leon/git/swp-report/iMX6_Platform_SDK/output/mx6sdl/sdk_unit_test/sabre_ai_rev_b/obj/apps/common/print_version.o
 .debug_aranges
                0x00000078       0x20 /home/leon/git/swp-report/iMX6_Platform_SDK/output/mx6sdl/sdk_unit_test/sabre_ai_rev_b/obj/apps/sdk_unit_test/src/all_test.o
 .debug_aranges
                0x00000098       0x20 /home/leon/git/swp-report/iMX6_Platform_SDK/output/mx6sdl/sdk_unit_test/sabre_ai_rev_b/obj/apps/sdk_unit_test/src/unit_test_main.o
 .debug_aranges
                0x000000b8       0x20 /home/leon/git/swp-report/iMX6_Platform_SDK/output/mx6sdl/lib/libsdk.a(ccm_pll.o)
 .debug_aranges
                0x000000d8       0x20 /home/leon/git/swp-report/iMX6_Platform_SDK/output/mx6sdl/lib/libsdk.a(gic.o)
 .debug_aranges
                0x000000f8       0x20 /home/leon/git/swp-report/iMX6_Platform_SDK/output/mx6sdl/lib/libsdk.a(mmu.o)
 .debug_aranges
                0x00000118       0x20 /home/leon/git/swp-report/iMX6_Platform_SDK/output/mx6sdl/lib/libsdk.a(menu.o)
 .debug_aranges
                0x00000138       0x18 /home/leon/git/swp-report/iMX6_Platform_SDK/output/mx6sdl/lib/libsdk.a(sdk_version.o)
 .debug_aranges
                0x00000150       0x20 /home/leon/git/swp-report/iMX6_Platform_SDK/output/mx6sdl/lib/libsdk.a(system_util.o)
 .debug_aranges
                0x00000170       0x20 /home/leon/git/swp-report/iMX6_Platform_SDK/output/mx6sdl/lib/libsdk.a(text_color.o)
 .debug_aranges
                0x00000190       0x20 /home/leon/git/swp-report/iMX6_Platform_SDK/output/mx6sdl/lib/libsdk.a(board_id.o)
 .debug_aranges
                0x000001b0       0x20 /home/leon/git/swp-report/iMX6_Platform_SDK/output/mx6sdl/lib/libsdk.a(timer.o)
 .debug_aranges
                0x000001d0       0x20 /home/leon/git/swp-report/iMX6_Platform_SDK/output/mx6sdl/lib/libsdk.a(imx_uart.o)
 .debug_aranges
                0x000001f0       0x20 /home/leon/git/swp-report/iMX6_Platform_SDK/output/mx6sdl/lib/libsdk.a(interrupt.o)
 .debug_aranges
                0x00000210       0x20 /home/leon/git/swp-report/iMX6_Platform_SDK/output/mx6sdl/lib/libsdk.a(epit.o)
 .debug_aranges
                0x00000230       0x20 /home/leon/git/swp-report/iMX6_Platform_SDK/output/mx6sdl/lib/libsdk.a(abort_handler.o)
 .debug_aranges
                0x00000250       0x20 /home/leon/git/swp-report/iMX6_Platform_SDK/output/mx6sdl/lib/libboard_sabre_ai_rev_b.a(board_io_expanders.o)
 .debug_aranges
                0x00000270       0x18 /home/leon/git/swp-report/iMX6_Platform_SDK/output/mx6sdl/lib/libboard_sabre_ai_rev_b.a(hardware_modules.o)
 .debug_aranges
                0x00000288       0x18 /home/leon/git/swp-report/iMX6_Platform_SDK/output/mx6sdl/lib/libboard_sabre_ai_rev_b.a(dcd.o)
 .debug_aranges
                0x000002a0       0x20 /home/leon/git/swp-report/iMX6_Platform_SDK/output/mx6sdl/lib/libboard_sabre_ai_rev_b.a(i2c3_iomux_config.o)
 .debug_aranges
                0x000002c0       0x20 /home/leon/git/swp-report/iMX6_Platform_SDK/output/mx6sdl/lib/libboard_sabre_ai_rev_b.a(uart_iomux_config.o)
 .debug_aranges
                0x000002e0       0x20 /home/leon/git/swp-report/iMX6_Platform_SDK/output/mx6sdl/lib/libboard_sabre_ai_rev_b.a(iomux_config.o)
 .debug_aranges
                0x00000300       0x20 /home/leon/git/swp-report/iMX6_Platform_SDK/output/mx6sdl/lib/libboard_sabre_ai_rev_b.a(ipu1_iomux_config.o)
 .debug_aranges
                0x00000320       0x20 /home/leon/git/swp-report/iMX6_Platform_SDK/output/mx6sdl/lib/libboard_sabre_ai_rev_b.a(mlb_iomux_config.o)
 .debug_aranges
                0x00000340       0x20 /home/leon/git/swp-report/iMX6_Platform_SDK/output/mx6sdl/lib/libboard_sabre_ai_rev_b.a(mmdc_iomux_config.o)
 .debug_aranges
                0x00000360       0x20 /home/leon/git/swp-report/iMX6_Platform_SDK/output/mx6sdl/lib/libboard_sabre_ai_rev_b.a(pwm3_iomux_config.o)
 .debug_aranges
                0x00000380       0x20 /home/leon/git/swp-report/iMX6_Platform_SDK/output/mx6sdl/lib/libboard_sabre_ai_rev_b.a(pwm4_iomux_config.o)
 .debug_aranges
                0x000003a0       0x20 /home/leon/git/swp-report/iMX6_Platform_SDK/output/mx6sdl/lib/libboard_sabre_ai_rev_b.a(sjc_iomux_config.o)
 .debug_aranges
                0x000003c0       0x20 /home/leon/git/swp-report/iMX6_Platform_SDK/output/mx6sdl/lib/libboard_sabre_ai_rev_b.a(spdif_iomux_config.o)
 .debug_aranges
                0x000003e0       0x20 /home/leon/git/swp-report/iMX6_Platform_SDK/output/mx6sdl/lib/libboard_sabre_ai_rev_b.a(uart2_iomux_config.o)
 .debug_aranges
                0x00000400       0x20 /home/leon/git/swp-report/iMX6_Platform_SDK/output/mx6sdl/lib/libboard_sabre_ai_rev_b.a(uart3_iomux_config.o)
 .debug_aranges
                0x00000420       0x20 /home/leon/git/swp-report/iMX6_Platform_SDK/output/mx6sdl/lib/libboard_sabre_ai_rev_b.a(uart4_iomux_config.o)
 .debug_aranges
                0x00000440       0x20 /home/leon/git/swp-report/iMX6_Platform_SDK/output/mx6sdl/lib/libboard_sabre_ai_rev_b.a(usdhc1_iomux_config.o)
 .debug_aranges
                0x00000460       0x20 /home/leon/git/swp-report/iMX6_Platform_SDK/output/mx6sdl/lib/libboard_sabre_ai_rev_b.a(usdhc3_iomux_config.o)
 .debug_aranges
                0x00000480       0x20 /home/leon/git/swp-report/iMX6_Platform_SDK/output/mx6sdl/lib/libboard_sabre_ai_rev_b.a(wdog1_iomux_config.o)
 .debug_aranges
                0x000004a0       0x20 /home/leon/git/swp-report/iMX6_Platform_SDK/output/mx6sdl/lib/libboard_sabre_ai_rev_b.a(audmux_iomux_config.o)
 .debug_aranges
                0x000004c0       0x20 /home/leon/git/swp-report/iMX6_Platform_SDK/output/mx6sdl/lib/libboard_sabre_ai_rev_b.a(ccm_iomux_config.o)
 .debug_aranges
                0x000004e0       0x20 /home/leon/git/swp-report/iMX6_Platform_SDK/output/mx6sdl/lib/libboard_sabre_ai_rev_b.a(ecspi1_iomux_config.o)
 .debug_aranges
                0x00000500       0x20 /home/leon/git/swp-report/iMX6_Platform_SDK/output/mx6sdl/lib/libboard_sabre_ai_rev_b.a(eim_iomux_config.o)
 .debug_aranges
                0x00000520       0x20 /home/leon/git/swp-report/iMX6_Platform_SDK/output/mx6sdl/lib/libboard_sabre_ai_rev_b.a(enet_iomux_config.o)
 .debug_aranges
                0x00000540       0x20 /home/leon/git/swp-report/iMX6_Platform_SDK/output/mx6sdl/lib/libboard_sabre_ai_rev_b.a(esai_iomux_config.o)
 .debug_aranges
                0x00000560       0x20 /home/leon/git/swp-report/iMX6_Platform_SDK/output/mx6sdl/lib/libboard_sabre_ai_rev_b.a(flexcan1_iomux_config.o)
 .debug_aranges
                0x00000580       0x20 /home/leon/git/swp-report/iMX6_Platform_SDK/output/mx6sdl/lib/libboard_sabre_ai_rev_b.a(flexcan2_iomux_config.o)
 .debug_aranges
                0x000005a0       0x20 /home/leon/git/swp-report/iMX6_Platform_SDK/output/mx6sdl/lib/libboard_sabre_ai_rev_b.a(gpio1_iomux_config.o)
 .debug_aranges
                0x000005c0       0x20 /home/leon/git/swp-report/iMX6_Platform_SDK/output/mx6sdl/lib/libboard_sabre_ai_rev_b.a(gpio2_iomux_config.o)
 .debug_aranges
                0x000005e0       0x20 /home/leon/git/swp-report/iMX6_Platform_SDK/output/mx6sdl/lib/libboard_sabre_ai_rev_b.a(gpio4_iomux_config.o)
 .debug_aranges
                0x00000600       0x20 /home/leon/git/swp-report/iMX6_Platform_SDK/output/mx6sdl/lib/libboard_sabre_ai_rev_b.a(gpio5_iomux_config.o)
 .debug_aranges
                0x00000620       0x20 /home/leon/git/swp-report/iMX6_Platform_SDK/output/mx6sdl/lib/libboard_sabre_ai_rev_b.a(gpio6_iomux_config.o)
 .debug_aranges
                0x00000640       0x20 /home/leon/git/swp-report/iMX6_Platform_SDK/output/mx6sdl/lib/libboard_sabre_ai_rev_b.a(gpmi_iomux_config.o)
 .debug_aranges
                0x00000660       0x20 /home/leon/git/swp-report/iMX6_Platform_SDK/output/mx6sdl/lib/libboard_sabre_ai_rev_b.a(i2c2_iomux_config.o)
 .debug_aranges
                0x00000680       0x20 /home/leon/git/swp-report/iMX6_Platform_SDK/output/mx6sdl/sdk_unit_test/sabre_ai_rev_b/libsdk_unit_test.a(gic_test.o)
 .debug_aranges
                0x000006a0       0x20 /home/leon/git/swp-report/iMX6_Platform_SDK/output/mx6sdl/sdk_unit_test/sabre_ai_rev_b/libsdk_unit_test.a(cpu_wp_test.o)
 .debug_aranges
                0x000006c0       0x20 /home/leon/git/swp-report/iMX6_Platform_SDK/output/mx6sdl/sdk_unit_test/sabre_ai_rev_b/libsdk_unit_test.a(multicore_test.o)
 .debug_aranges
                0x000006e0       0x20 /home/leon/git/swp-report/iMX6_Platform_SDK/output/mx6sdl/sdk_unit_test/sabre_ai_rev_b/libsdk_unit_test.a(ocotp_test.o)
 .debug_aranges
                0x00000700       0x20 /home/leon/git/swp-report/iMX6_Platform_SDK/output/mx6sdl/sdk_unit_test/sabre_ai_rev_b/libsdk_unit_test.a(i2c_test.o)
 .debug_aranges
                0x00000720       0x20 /home/leon/git/swp-report/iMX6_Platform_SDK/output/mx6sdl/sdk_unit_test/sabre_ai_rev_b/libsdk_unit_test.a(imx6_i2c_device.o)
 .debug_aranges
                0x00000740       0x20 /home/leon/git/swp-report/iMX6_Platform_SDK/output/mx6sdl/sdk_unit_test/sabre_ai_rev_b/libsdk_unit_test.a(snvs_rtc_test.o)
 .debug_aranges
                0x00000760       0x20 /home/leon/git/swp-report/iMX6_Platform_SDK/output/mx6sdl/sdk_unit_test/sabre_ai_rev_b/libsdk_unit_test.a(snvs_srtc_test.o)
 .debug_aranges
                0x00000780       0x20 /home/leon/git/swp-report/iMX6_Platform_SDK/output/mx6sdl/sdk_unit_test/sabre_ai_rev_b/libsdk_unit_test.a(tempmon_test.o)
 .debug_aranges
                0x000007a0       0x20 /home/leon/git/swp-report/iMX6_Platform_SDK/output/mx6sdl/sdk_unit_test/sabre_ai_rev_b/libsdk_unit_test.a(sdma_test.o)
 .debug_aranges
                0x000007c0       0x20 /home/leon/git/swp-report/iMX6_Platform_SDK/output/mx6sdl/sdk_unit_test/sabre_ai_rev_b/libsdk_unit_test.a(spi_lpb.o)
 .debug_aranges
                0x000007e0       0x20 /home/leon/git/swp-report/iMX6_Platform_SDK/output/mx6sdl/sdk_unit_test/sabre_ai_rev_b/libsdk_unit_test.a(uart_loopback.o)
 .debug_aranges
                0x00000800       0x20 /home/leon/git/swp-report/iMX6_Platform_SDK/output/mx6sdl/sdk_unit_test/sabre_ai_rev_b/libsdk_unit_test.a(epit_test.o)
 .debug_aranges
                0x00000820       0x20 /home/leon/git/swp-report/iMX6_Platform_SDK/output/mx6sdl/sdk_unit_test/sabre_ai_rev_b/libsdk_unit_test.a(gpt_test.o)
 .debug_aranges
                0x00000840       0x20 /home/leon/git/swp-report/iMX6_Platform_SDK/output/mx6sdl/sdk_unit_test/sabre_ai_rev_b/libsdk_unit_test.a(timer_test.o)
 .debug_aranges
                0x00000860       0x20 /home/leon/git/swp-report/iMX6_Platform_SDK/output/mx6sdl/sdk_unit_test/sabre_ai_rev_b/libsdk_unit_test.a(uart_test.o)
 .debug_aranges
                0x00000880       0x20 /home/leon/git/swp-report/iMX6_Platform_SDK/output/mx6sdl/sdk_unit_test/sabre_ai_rev_b/libsdk_unit_test.a(usdhc_test.o)
 .debug_aranges
                0x000008a0       0x20 /home/leon/git/swp-report/iMX6_Platform_SDK/output/mx6sdl/sdk_unit_test/sabre_ai_rev_b/libsdk_unit_test.a(pwm_test.o)
 .debug_aranges
                0x000008c0       0x20 /home/leon/git/swp-report/iMX6_Platform_SDK/output/mx6sdl/sdk_unit_test/sabre_ai_rev_b/libsdk_unit_test.a(watchdog_test.o)
 .debug_aranges
                0x000008e0       0x20 /home/leon/git/swp-report/iMX6_Platform_SDK/output/mx6sdl/sdk_unit_test/sabre_ai_rev_b/libsdk_unit_test.a(hdmi_test.o)
 .debug_aranges
                0x00000900       0x20 /home/leon/git/swp-report/iMX6_Platform_SDK/output/mx6sdl/sdk_unit_test/sabre_ai_rev_b/libsdk_unit_test.a(ips_display.o)
 .debug_aranges
                0x00000920       0x20 /home/leon/git/swp-report/iMX6_Platform_SDK/output/mx6sdl/sdk_unit_test/sabre_ai_rev_b/libsdk_unit_test.a(ips_test.o)
 .debug_aranges
                0x00000940       0x20 /home/leon/git/swp-report/iMX6_Platform_SDK/output/mx6sdl/sdk_unit_test/sabre_ai_rev_b/libsdk_unit_test.a(ipu_image.o)
 .debug_aranges
                0x00000960       0x20 /home/leon/git/swp-report/iMX6_Platform_SDK/output/mx6sdl/sdk_unit_test/sabre_ai_rev_b/libsdk_unit_test.a(mipi_test.o)
 .debug_aranges
                0x00000980       0x20 /home/leon/git/swp-report/iMX6_Platform_SDK/output/mx6sdl/sdk_unit_test/sabre_ai_rev_b/libsdk_unit_test.a(can_test.o)
 .debug_aranges
                0x000009a0       0x20 /home/leon/git/swp-report/iMX6_Platform_SDK/output/mx6sdl/sdk_unit_test/sabre_ai_rev_b/libsdk_unit_test.a(usb_test.o)
 .debug_aranges
                0x000009c0       0x20 /home/leon/git/swp-report/iMX6_Platform_SDK/output/mx6sdl/sdk_unit_test/sabre_ai_rev_b/libsdk_unit_test.a(eim_test.o)
 .debug_aranges
                0x000009e0       0x20 /home/leon/git/swp-report/iMX6_Platform_SDK/output/mx6sdl/sdk_unit_test/sabre_ai_rev_b/libsdk_unit_test.a(pcie_test_rc.o)
 .debug_aranges
                0x00000a00       0x20 /home/leon/git/swp-report/iMX6_Platform_SDK/output/mx6sdl/sdk_unit_test/sabre_ai_rev_b/libsdk_unit_test.a(spi_test.o)
 .debug_aranges
                0x00000a20       0x20 /home/leon/git/swp-report/iMX6_Platform_SDK/output/mx6sdl/sdk_unit_test/sabre_ai_rev_b/libsdk_unit_test.a(camera_test.o)
 .debug_aranges
                0x00000a40       0x20 /home/leon/git/swp-report/iMX6_Platform_SDK/output/mx6sdl/sdk_unit_test/sabre_ai_rev_b/libsdk_unit_test.a(csi_test_mode.o)
 .debug_aranges
                0x00000a60       0x20 /home/leon/git/swp-report/iMX6_Platform_SDK/output/mx6sdl/sdk_unit_test/sabre_ai_rev_b/libsdk_unit_test.a(accelerometer_test.o)
 .debug_aranges
                0x00000a80       0x20 /home/leon/git/swp-report/iMX6_Platform_SDK/output/mx6sdl/sdk_unit_test/sabre_ai_rev_b/libsdk_unit_test.a(at24cxx.o)
 .debug_aranges
                0x00000aa0       0x20 /home/leon/git/swp-report/iMX6_Platform_SDK/output/mx6sdl/sdk_unit_test/sabre_ai_rev_b/libsdk_unit_test.a(mem_2_mem.o)
 .debug_aranges
                0x00000ac0       0x20 /home/leon/git/swp-report/iMX6_Platform_SDK/output/mx6sdl/sdk_unit_test/sabre_ai_rev_b/libsdk_unit_test.a(pwm_output.o)
 .debug_aranges
                0x00000ae0       0x20 /home/leon/git/swp-report/iMX6_Platform_SDK/output/mx6sdl/sdk_unit_test/sabre_ai_rev_b/libsdk_unit_test.a(init_dma_data.o)
 .debug_aranges
                0x00000b00       0x20 /home/leon/git/swp-report/iMX6_Platform_SDK/output/mx6sdl/sdk_unit_test/sabre_ai_rev_b/libsdk_unit_test.a(ips_combiner.o)
 .debug_aranges
                0x00000b20       0x20 /home/leon/git/swp-report/iMX6_Platform_SDK/output/mx6sdl/sdk_unit_test/sabre_ai_rev_b/libsdk_unit_test.a(ips_csc.o)
 .debug_aranges
                0x00000b40       0x20 /home/leon/git/swp-report/iMX6_Platform_SDK/output/mx6sdl/sdk_unit_test/sabre_ai_rev_b/libsdk_unit_test.a(ips_resize.o)
 .debug_aranges
                0x00000b60       0x20 /home/leon/git/swp-report/iMX6_Platform_SDK/output/mx6sdl/sdk_unit_test/sabre_ai_rev_b/libsdk_unit_test.a(ips_rotate.o)
 .debug_aranges
                0x00000b80       0x20 /home/leon/git/swp-report/iMX6_Platform_SDK/output/mx6sdl/sdk_unit_test/sabre_ai_rev_b/libsdk_unit_test.a(mipi_csi2_test.o)
 .debug_aranges
                0x00000ba0       0x20 /home/leon/git/swp-report/iMX6_Platform_SDK/output/mx6sdl/sdk_unit_test/sabre_ai_rev_b/libsdk_unit_test.a(mipi_dsi_test.o)
 .debug_aranges
                0x00000bc0       0x20 /home/leon/git/swp-report/iMX6_Platform_SDK/output/mx6sdl/sdk_unit_test/sabre_ai_rev_b/libsdk_unit_test.a(usb0_device_mouse_test.o)
 .debug_aranges
                0x00000be0       0x20 /home/leon/git/swp-report/iMX6_Platform_SDK/output/mx6sdl/sdk_unit_test/sabre_ai_rev_b/libsdk_unit_test.a(usb0_host_test.o)
 .debug_aranges
                0x00000c00       0x20 /home/leon/git/swp-report/iMX6_Platform_SDK/output/mx6sdl/sdk_unit_test/sabre_ai_rev_b/libsdk_unit_test.a(usb0_host_testmodes_test.o)
 .debug_aranges
                0x00000c20       0x20 /home/leon/git/swp-report/iMX6_Platform_SDK/output/mx6sdl/sdk_unit_test/sabre_ai_rev_b/libsdk_unit_test.a(cfi_flash_api.o)
 .debug_aranges
                0x00000c40       0x20 /home/leon/git/swp-report/iMX6_Platform_SDK/output/mx6sdl/sdk_unit_test/sabre_ai_rev_b/libsdk_unit_test.a(cfi_flash_driver.o)
 .debug_aranges
                0x00000c60       0x20 /home/leon/git/swp-report/iMX6_Platform_SDK/output/mx6sdl/sdk_unit_test/sabre_ai_rev_b/libsdk_unit_test.a(spi_nor_numonyx.o)
 .debug_aranges
                0x00000c80       0x20 /home/leon/git/swp-report/iMX6_Platform_SDK/output/mx6sdl/sdk_unit_test/sabre_ai_rev_b/libsdk_unit_test.a(adv7180_capture.o)
 .debug_aranges
                0x00000ca0       0x20 /home/leon/git/swp-report/iMX6_Platform_SDK/output/mx6sdl/lib/libsdk.a(max7310.o)
 .debug_aranges
                0x00000cc0       0x20 /home/leon/git/swp-report/iMX6_Platform_SDK/output/mx6sdl/lib/libsdk.a(profile.o)
 .debug_aranges
                0x00000ce0       0x20 /home/leon/git/swp-report/iMX6_Platform_SDK/output/mx6sdl/lib/libsdk.a(armv7_cache.o)
 .debug_aranges
                0x00000d00       0x20 /home/leon/git/swp-report/iMX6_Platform_SDK/output/mx6sdl/lib/libsdk.a(runtime_support.o)
 .debug_aranges
                0x00000d20       0x20 /home/leon/git/swp-report/iMX6_Platform_SDK/output/mx6sdl/lib/libsdk.a(mma8451.o)
 .debug_aranges
                0x00000d40       0x20 /home/leon/git/swp-report/iMX6_Platform_SDK/output/mx6sdl/lib/libsdk.a(cpu_get_cores.o)
 .debug_aranges
                0x00000d60       0x20 /home/leon/git/swp-report/iMX6_Platform_SDK/output/mx6sdl/lib/libsdk.a(cpu_multicore.o)
 .debug_aranges
                0x00000d80       0x20 /home/leon/git/swp-report/iMX6_Platform_SDK/output/mx6sdl/lib/libsdk.a(cpu_workpoint.o)
 .debug_aranges
                0x00000da0       0x20 /home/leon/git/swp-report/iMX6_Platform_SDK/output/mx6sdl/lib/libsdk.a(eim.o)
 .debug_aranges
                0x00000dc0       0x20 /home/leon/git/swp-report/iMX6_Platform_SDK/output/mx6sdl/lib/libsdk.a(can.o)
 .debug_aranges
                0x00000de0       0x20 /home/leon/git/swp-report/iMX6_Platform_SDK/output/mx6sdl/lib/libsdk.a(gpio.o)
 .debug_aranges
                0x00000e00       0x18 /home/leon/git/swp-report/iMX6_Platform_SDK/output/mx6sdl/lib/libsdk.a(imx6sdl_gpio_map.o)
 .debug_aranges
                0x00000e18       0x20 /home/leon/git/swp-report/iMX6_Platform_SDK/output/mx6sdl/lib/libsdk.a(hdmi_tx.o)
 .debug_aranges
                0x00000e38       0x20 /home/leon/git/swp-report/iMX6_Platform_SDK/output/mx6sdl/lib/libsdk.a(hdmi_tx_audio.o)
 .debug_aranges
                0x00000e58       0x20 /home/leon/git/swp-report/iMX6_Platform_SDK/output/mx6sdl/lib/libsdk.a(hdmi_tx_phy.o)
 .debug_aranges
                0x00000e78       0x20 /home/leon/git/swp-report/iMX6_Platform_SDK/output/mx6sdl/lib/libsdk.a(imx_i2c.o)
 .debug_aranges
                0x00000e98       0x20 /home/leon/git/swp-report/iMX6_Platform_SDK/output/mx6sdl/lib/libsdk.a(imx_i2c_slave.o)
 .debug_aranges
                0x00000eb8       0x20 /home/leon/git/swp-report/iMX6_Platform_SDK/output/mx6sdl/lib/libsdk.a(ips_disp_panel.o)
 .debug_aranges
                0x00000ed8       0x20 /home/leon/git/swp-report/iMX6_Platform_SDK/output/mx6sdl/lib/libsdk.a(ipu_common.o)
 .debug_aranges
                0x00000ef8       0x20 /home/leon/git/swp-report/iMX6_Platform_SDK/output/mx6sdl/lib/libsdk.a(ipu_csi.o)
 .debug_aranges
                0x00000f18       0x20 /home/leon/git/swp-report/iMX6_Platform_SDK/output/mx6sdl/lib/libsdk.a(ipu_dc.o)
 .debug_aranges
                0x00000f38       0x20 /home/leon/git/swp-report/iMX6_Platform_SDK/output/mx6sdl/lib/libsdk.a(ipu_di.o)
 .debug_aranges
                0x00000f58       0x20 /home/leon/git/swp-report/iMX6_Platform_SDK/output/mx6sdl/lib/libsdk.a(ipu_dmfc.o)
 .debug_aranges
                0x00000f78       0x20 /home/leon/git/swp-report/iMX6_Platform_SDK/output/mx6sdl/lib/libsdk.a(ipu_dp.o)
 .debug_aranges
                0x00000f98       0x20 /home/leon/git/swp-report/iMX6_Platform_SDK/output/mx6sdl/lib/libsdk.a(ipu_ic.o)
 .debug_aranges
                0x00000fb8       0x20 /home/leon/git/swp-report/iMX6_Platform_SDK/output/mx6sdl/lib/libsdk.a(ipu_idmac.o)
 .debug_aranges
                0x00000fd8       0x20 /home/leon/git/swp-report/iMX6_Platform_SDK/output/mx6sdl/lib/libsdk.a(ipu_vdi.o)
 .debug_aranges
                0x00000ff8       0x20 /home/leon/git/swp-report/iMX6_Platform_SDK/output/mx6sdl/lib/libsdk.a(ldb.o)
 .debug_aranges
                0x00001018       0x20 /home/leon/git/swp-report/iMX6_Platform_SDK/output/mx6sdl/lib/libsdk.a(mipi_csi2_common.o)
 .debug_aranges
                0x00001038       0x20 /home/leon/git/swp-report/iMX6_Platform_SDK/output/mx6sdl/lib/libsdk.a(mipi_dsi_common.o)
 .debug_aranges
                0x00001058       0x18 /home/leon/git/swp-report/iMX6_Platform_SDK/output/mx6sdl/lib/libsdk.a(ov5640_mipi_fm.o)
 .debug_aranges
                0x00001070       0x20 /home/leon/git/swp-report/iMX6_Platform_SDK/output/mx6sdl/lib/libsdk.a(ocotp.o)
 .debug_aranges
                0x00001090       0x20 /home/leon/git/swp-report/iMX6_Platform_SDK/output/mx6sdl/lib/libsdk.a(pcie.o)
 .debug_aranges
                0x000010b0       0x20 /home/leon/git/swp-report/iMX6_Platform_SDK/output/mx6sdl/lib/libsdk.a(pcie_phy.o)
 .debug_aranges
                0x000010d0       0x20 /home/leon/git/swp-report/iMX6_Platform_SDK/output/mx6sdl/lib/libsdk.a(pcie_prot.o)
 .debug_aranges
                0x000010f0      0x150 /home/leon/git/swp-report/iMX6_Platform_SDK/output/mx6sdl/lib/libsdk.a(pmu_driver.o)
 .debug_aranges
                0x00001240       0x20 /home/leon/git/swp-report/iMX6_Platform_SDK/output/mx6sdl/lib/libsdk.a(pwm.o)
 .debug_aranges
                0x00001260       0x20 /home/leon/git/swp-report/iMX6_Platform_SDK/output/mx6sdl/lib/libsdk.a(rtc.o)
 .debug_aranges
                0x00001280       0x20 /home/leon/git/swp-report/iMX6_Platform_SDK/output/mx6sdl/lib/libsdk.a(srtc.o)
 .debug_aranges
                0x000012a0       0x20 /home/leon/git/swp-report/iMX6_Platform_SDK/output/mx6sdl/lib/libsdk.a(sdma.o)
 .debug_aranges
                0x000012c0       0x18 /home/leon/git/swp-report/iMX6_Platform_SDK/output/mx6sdl/lib/libsdk.a(sdma_script_info.o)
 .debug_aranges
                0x000012d8       0x20 /home/leon/git/swp-report/iMX6_Platform_SDK/output/mx6sdl/lib/libsdk.a(snvs.o)
 .debug_aranges
                0x000012f8       0x20 /home/leon/git/swp-report/iMX6_Platform_SDK/output/mx6sdl/lib/libsdk.a(ecspi.o)
 .debug_aranges
                0x00001318       0x20 /home/leon/git/swp-report/iMX6_Platform_SDK/output/mx6sdl/lib/libsdk.a(tempmon.o)
 .debug_aranges
                0x00001338       0x20 /home/leon/git/swp-report/iMX6_Platform_SDK/output/mx6sdl/lib/libsdk.a(gpt.o)
 .debug_aranges
                0x00001358       0x20 /home/leon/git/swp-report/iMX6_Platform_SDK/output/mx6sdl/lib/libsdk.a(usb_common.o)
 .debug_aranges
                0x00001378       0x20 /home/leon/git/swp-report/iMX6_Platform_SDK/output/mx6sdl/lib/libsdk.a(usbd_drv.o)
 .debug_aranges
                0x00001398       0x20 /home/leon/git/swp-report/iMX6_Platform_SDK/output/mx6sdl/lib/libsdk.a(usbh_drv.o)
 .debug_aranges
                0x000013b8       0x20 /home/leon/git/swp-report/iMX6_Platform_SDK/output/mx6sdl/lib/libsdk.a(usdhc.o)
 .debug_aranges
                0x000013d8       0x20 /home/leon/git/swp-report/iMX6_Platform_SDK/output/mx6sdl/lib/libsdk.a(usdhc_host.o)
 .debug_aranges
                0x000013f8       0x20 /home/leon/git/swp-report/iMX6_Platform_SDK/output/mx6sdl/lib/libsdk.a(usdhc_mmc.o)
 .debug_aranges
                0x00001418       0x20 /home/leon/git/swp-report/iMX6_Platform_SDK/output/mx6sdl/lib/libsdk.a(usdhc_sd.o)
 .debug_aranges
                0x00001438       0x20 /home/leon/git/swp-report/iMX6_Platform_SDK/output/mx6sdl/lib/libsdk.a(adv7180.o)
 .debug_aranges
                0x00001458       0x20 /home/leon/git/swp-report/iMX6_Platform_SDK/output/mx6sdl/lib/libsdk.a(hdmi_common.o)
 .debug_aranges
                0x00001478       0x20 /home/leon/git/swp-report/iMX6_Platform_SDK/output/mx6sdl/lib/libsdk.a(mx6x_usb.o)
 .debug_aranges
                0x00001498       0x20 /home/leon/git/swp-report/iMX6_Platform_SDK/output/mx6sdl/lib/libboard_sabre_ai_rev_b.a(board_camera.o)
 .debug_aranges
                0x000014b8       0x20 /home/leon/git/swp-report/iMX6_Platform_SDK/output/mx6sdl/lib/libboard_sabre_ai_rev_b.a(board_can.o)
 .debug_aranges
                0x000014d8       0x20 /home/leon/git/swp-report/iMX6_Platform_SDK/output/mx6sdl/lib/libboard_sabre_ai_rev_b.a(board_display.o)
 .debug_aranges
                0x000014f8       0x20 /home/leon/git/swp-report/iMX6_Platform_SDK/output/mx6sdl/lib/libboard_sabre_ai_rev_b.a(board_hdmi.o)
 .debug_aranges
                0x00001518       0x18 /home/leon/git/swp-report/iMX6_Platform_SDK/output/mx6sdl/lib/libboard_sabre_ai_rev_b.a(board_i2c.o)
 .debug_aranges
                0x00001530       0x20 /home/leon/git/swp-report/iMX6_Platform_SDK/output/mx6sdl/lib/libboard_sabre_ai_rev_b.a(board_mipi.o)
 .debug_aranges
                0x00001550       0x20 /home/leon/git/swp-report/iMX6_Platform_SDK/output/mx6sdl/lib/libboard_sabre_ai_rev_b.a(board_pcie.o)
 .debug_aranges
                0x00001570       0x20 /home/leon/git/swp-report/iMX6_Platform_SDK/output/mx6sdl/lib/libboard_sabre_ai_rev_b.a(board_usb.o)
 .debug_aranges
                0x00001590       0x20 /home/leon/git/swp-report/iMX6_Platform_SDK/output/mx6sdl/lib/libboard_sabre_ai_rev_b.a(board_usdhc.o)
 .debug_aranges
                0x000015b0       0x20 /home/leon/git/swp-report/iMX6_Platform_SDK/output/mx6sdl/lib/libboard_sabre_ai_rev_b.a(ecspi_iomux_config.o)
 .debug_aranges
                0x000015d0       0x20 /home/leon/git/swp-report/iMX6_Platform_SDK/output/mx6sdl/lib/libboard_sabre_ai_rev_b.a(flexcan_iomux_config.o)
 .debug_aranges
                0x000015f0       0x20 /home/leon/git/swp-report/iMX6_Platform_SDK/output/mx6sdl/lib/libboard_sabre_ai_rev_b.a(i2c_iomux_config.o)
 .debug_aranges
                0x00001610       0x20 /home/leon/git/swp-report/iMX6_Platform_SDK/output/mx6sdl/lib/libboard_sabre_ai_rev_b.a(pwm_iomux_config.o)
 .debug_aranges
                0x00001630       0x20 /home/leon/git/swp-report/iMX6_Platform_SDK/output/mx6sdl/lib/libboard_sabre_ai_rev_b.a(usdhc_iomux_config.o)

.debug_line     0x00000000    0x1c212
 .debug_line    0x00000000      0x103 /home/leon/git/swp-report/iMX6_Platform_SDK/output/mx6sdl/sdk_unit_test/sabre_ai_rev_b/obj/apps/common/ivt.o
 .debug_line    0x00000103      0x17e /home/leon/git/swp-report/iMX6_Platform_SDK/output/mx6sdl/sdk_unit_test/sabre_ai_rev_b/obj/apps/common/platform_init.o
 .debug_line    0x00000281      0x171 /home/leon/git/swp-report/iMX6_Platform_SDK/output/mx6sdl/sdk_unit_test/sabre_ai_rev_b/obj/apps/common/print_clock_info.o
 .debug_line    0x000003f2      0x17f /home/leon/git/swp-report/iMX6_Platform_SDK/output/mx6sdl/sdk_unit_test/sabre_ai_rev_b/obj/apps/common/print_version.o
 .debug_line    0x00000571       0xc7 /home/leon/git/swp-report/iMX6_Platform_SDK/output/mx6sdl/sdk_unit_test/sabre_ai_rev_b/obj/apps/sdk_unit_test/src/all_test.o
 .debug_line    0x00000638       0x8a /home/leon/git/swp-report/iMX6_Platform_SDK/output/mx6sdl/sdk_unit_test/sabre_ai_rev_b/obj/apps/sdk_unit_test/src/unit_test_main.o
 .debug_line    0x000006c2      0x26d /home/leon/git/swp-report/iMX6_Platform_SDK/output/mx6sdl/lib/libsdk.a(ccm_pll.o)
 .debug_line    0x0000092f      0x165 /home/leon/git/swp-report/iMX6_Platform_SDK/output/mx6sdl/lib/libsdk.a(gic.o)
 .debug_line    0x00000a94      0x188 /home/leon/git/swp-report/iMX6_Platform_SDK/output/mx6sdl/lib/libsdk.a(mmu.o)
 .debug_line    0x00000c1c      0x2e0 /home/leon/git/swp-report/iMX6_Platform_SDK/output/mx6sdl/lib/libsdk.a(menu.o)
 .debug_line    0x00000efc       0x6a /home/leon/git/swp-report/iMX6_Platform_SDK/output/mx6sdl/lib/libsdk.a(sdk_version.o)
 .debug_line    0x00000f66      0x366 /home/leon/git/swp-report/iMX6_Platform_SDK/output/mx6sdl/lib/libsdk.a(system_util.o)
 .debug_line    0x000012cc       0xf0 /home/leon/git/swp-report/iMX6_Platform_SDK/output/mx6sdl/lib/libsdk.a(text_color.o)
 .debug_line    0x000013bc      0x279 /home/leon/git/swp-report/iMX6_Platform_SDK/output/mx6sdl/lib/libsdk.a(board_id.o)
 .debug_line    0x00001635      0x201 /home/leon/git/swp-report/iMX6_Platform_SDK/output/mx6sdl/lib/libsdk.a(timer.o)
 .debug_line    0x00001836     0x12cc /home/leon/git/swp-report/iMX6_Platform_SDK/output/mx6sdl/lib/libsdk.a(imx_uart.o)
 .debug_line    0x00002b02      0x181 /home/leon/git/swp-report/iMX6_Platform_SDK/output/mx6sdl/lib/libsdk.a(interrupt.o)
 .debug_line    0x00002c83      0x581 /home/leon/git/swp-report/iMX6_Platform_SDK/output/mx6sdl/lib/libsdk.a(epit.o)
 .debug_line    0x00003204      0x24a /home/leon/git/swp-report/iMX6_Platform_SDK/output/mx6sdl/lib/libsdk.a(abort_handler.o)
 .debug_line    0x0000344e      0x180 /home/leon/git/swp-report/iMX6_Platform_SDK/output/mx6sdl/lib/libboard_sabre_ai_rev_b.a(board_io_expanders.o)
 .debug_line    0x000035ce       0xc8 /home/leon/git/swp-report/iMX6_Platform_SDK/output/mx6sdl/lib/libboard_sabre_ai_rev_b.a(hardware_modules.o)
 .debug_line    0x00003696      0x10d /home/leon/git/swp-report/iMX6_Platform_SDK/output/mx6sdl/lib/libboard_sabre_ai_rev_b.a(dcd.o)
 .debug_line    0x000037a3      0x107 /home/leon/git/swp-report/iMX6_Platform_SDK/output/mx6sdl/lib/libboard_sabre_ai_rev_b.a(i2c3_iomux_config.o)
 .debug_line    0x000038aa       0x9a /home/leon/git/swp-report/iMX6_Platform_SDK/output/mx6sdl/lib/libboard_sabre_ai_rev_b.a(uart_iomux_config.o)
 .debug_line    0x00003944       0xf2 /home/leon/git/swp-report/iMX6_Platform_SDK/output/mx6sdl/lib/libboard_sabre_ai_rev_b.a(iomux_config.o)
 .debug_line    0x00003a36      0x1f3 /home/leon/git/swp-report/iMX6_Platform_SDK/output/mx6sdl/lib/libboard_sabre_ai_rev_b.a(ipu1_iomux_config.o)
 .debug_line    0x00003c29      0x10f /home/leon/git/swp-report/iMX6_Platform_SDK/output/mx6sdl/lib/libboard_sabre_ai_rev_b.a(mlb_iomux_config.o)
 .debug_line    0x00003d38      0x5d7 /home/leon/git/swp-report/iMX6_Platform_SDK/output/mx6sdl/lib/libboard_sabre_ai_rev_b.a(mmdc_iomux_config.o)
 .debug_line    0x0000430f       0xfd /home/leon/git/swp-report/iMX6_Platform_SDK/output/mx6sdl/lib/libboard_sabre_ai_rev_b.a(pwm3_iomux_config.o)
 .debug_line    0x0000440c       0xfd /home/leon/git/swp-report/iMX6_Platform_SDK/output/mx6sdl/lib/libboard_sabre_ai_rev_b.a(pwm4_iomux_config.o)
 .debug_line    0x00004509      0x106 /home/leon/git/swp-report/iMX6_Platform_SDK/output/mx6sdl/lib/libboard_sabre_ai_rev_b.a(sjc_iomux_config.o)
 .debug_line    0x0000460f       0xff /home/leon/git/swp-report/iMX6_Platform_SDK/output/mx6sdl/lib/libboard_sabre_ai_rev_b.a(spdif_iomux_config.o)
 .debug_line    0x0000470e      0x11a /home/leon/git/swp-report/iMX6_Platform_SDK/output/mx6sdl/lib/libboard_sabre_ai_rev_b.a(uart2_iomux_config.o)
 .debug_line    0x00004828      0x11a /home/leon/git/swp-report/iMX6_Platform_SDK/output/mx6sdl/lib/libboard_sabre_ai_rev_b.a(uart3_iomux_config.o)
 .debug_line    0x00004942      0x108 /home/leon/git/swp-report/iMX6_Platform_SDK/output/mx6sdl/lib/libboard_sabre_ai_rev_b.a(uart4_iomux_config.o)
 .debug_line    0x00004a4a      0x13e /home/leon/git/swp-report/iMX6_Platform_SDK/output/mx6sdl/lib/libboard_sabre_ai_rev_b.a(usdhc1_iomux_config.o)
 .debug_line    0x00004b88      0x144 /home/leon/git/swp-report/iMX6_Platform_SDK/output/mx6sdl/lib/libboard_sabre_ai_rev_b.a(usdhc3_iomux_config.o)
 .debug_line    0x00004ccc       0xfe /home/leon/git/swp-report/iMX6_Platform_SDK/output/mx6sdl/lib/libboard_sabre_ai_rev_b.a(wdog1_iomux_config.o)
 .debug_line    0x00004dca      0x12c /home/leon/git/swp-report/iMX6_Platform_SDK/output/mx6sdl/lib/libboard_sabre_ai_rev_b.a(audmux_iomux_config.o)
 .debug_line    0x00004ef6       0xfa /home/leon/git/swp-report/iMX6_Platform_SDK/output/mx6sdl/lib/libboard_sabre_ai_rev_b.a(ccm_iomux_config.o)
 .debug_line    0x00004ff0      0x121 /home/leon/git/swp-report/iMX6_Platform_SDK/output/mx6sdl/lib/libboard_sabre_ai_rev_b.a(ecspi1_iomux_config.o)
 .debug_line    0x00005111      0x1fe /home/leon/git/swp-report/iMX6_Platform_SDK/output/mx6sdl/lib/libboard_sabre_ai_rev_b.a(eim_iomux_config.o)
 .debug_line    0x0000530f      0x19a /home/leon/git/swp-report/iMX6_Platform_SDK/output/mx6sdl/lib/libboard_sabre_ai_rev_b.a(enet_iomux_config.o)
 .debug_line    0x000054a9      0x14f /home/leon/git/swp-report/iMX6_Platform_SDK/output/mx6sdl/lib/libboard_sabre_ai_rev_b.a(esai_iomux_config.o)
 .debug_line    0x000055f8      0x10a /home/leon/git/swp-report/iMX6_Platform_SDK/output/mx6sdl/lib/libboard_sabre_ai_rev_b.a(flexcan1_iomux_config.o)
 .debug_line    0x00005702      0x10a /home/leon/git/swp-report/iMX6_Platform_SDK/output/mx6sdl/lib/libboard_sabre_ai_rev_b.a(flexcan2_iomux_config.o)
 .debug_line    0x0000580c      0x126 /home/leon/git/swp-report/iMX6_Platform_SDK/output/mx6sdl/lib/libboard_sabre_ai_rev_b.a(gpio1_iomux_config.o)
 .debug_line    0x00005932      0x122 /home/leon/git/swp-report/iMX6_Platform_SDK/output/mx6sdl/lib/libboard_sabre_ai_rev_b.a(gpio2_iomux_config.o)
 .debug_line    0x00005a54      0x104 /home/leon/git/swp-report/iMX6_Platform_SDK/output/mx6sdl/lib/libboard_sabre_ai_rev_b.a(gpio4_iomux_config.o)
 .debug_line    0x00005b58      0x11c /home/leon/git/swp-report/iMX6_Platform_SDK/output/mx6sdl/lib/libboard_sabre_ai_rev_b.a(gpio5_iomux_config.o)
 .debug_line    0x00005c74      0x104 /home/leon/git/swp-report/iMX6_Platform_SDK/output/mx6sdl/lib/libboard_sabre_ai_rev_b.a(gpio6_iomux_config.o)
 .debug_line    0x00005d78      0x15d /home/leon/git/swp-report/iMX6_Platform_SDK/output/mx6sdl/lib/libboard_sabre_ai_rev_b.a(gpmi_iomux_config.o)
 .debug_line    0x00005ed5      0x107 /home/leon/git/swp-report/iMX6_Platform_SDK/output/mx6sdl/lib/libboard_sabre_ai_rev_b.a(i2c2_iomux_config.o)
 .debug_line    0x00005fdc      0x126 /home/leon/git/swp-report/iMX6_Platform_SDK/output/mx6sdl/sdk_unit_test/sabre_ai_rev_b/libsdk_unit_test.a(gic_test.o)
 .debug_line    0x00006102      0x1f5 /home/leon/git/swp-report/iMX6_Platform_SDK/output/mx6sdl/sdk_unit_test/sabre_ai_rev_b/libsdk_unit_test.a(cpu_wp_test.o)
 .debug_line    0x000062f7      0x1a5 /home/leon/git/swp-report/iMX6_Platform_SDK/output/mx6sdl/sdk_unit_test/sabre_ai_rev_b/libsdk_unit_test.a(multicore_test.o)
 .debug_line    0x0000649c      0x1dc /home/leon/git/swp-report/iMX6_Platform_SDK/output/mx6sdl/sdk_unit_test/sabre_ai_rev_b/libsdk_unit_test.a(ocotp_test.o)
 .debug_line    0x00006678      0x176 /home/leon/git/swp-report/iMX6_Platform_SDK/output/mx6sdl/sdk_unit_test/sabre_ai_rev_b/libsdk_unit_test.a(i2c_test.o)
 .debug_line    0x000067ee      0x2dd /home/leon/git/swp-report/iMX6_Platform_SDK/output/mx6sdl/sdk_unit_test/sabre_ai_rev_b/libsdk_unit_test.a(imx6_i2c_device.o)
 .debug_line    0x00006acb      0x1a9 /home/leon/git/swp-report/iMX6_Platform_SDK/output/mx6sdl/sdk_unit_test/sabre_ai_rev_b/libsdk_unit_test.a(snvs_rtc_test.o)
 .debug_line    0x00006c74      0x18b /home/leon/git/swp-report/iMX6_Platform_SDK/output/mx6sdl/sdk_unit_test/sabre_ai_rev_b/libsdk_unit_test.a(snvs_srtc_test.o)
 .debug_line    0x00006dff      0x181 /home/leon/git/swp-report/iMX6_Platform_SDK/output/mx6sdl/sdk_unit_test/sabre_ai_rev_b/libsdk_unit_test.a(tempmon_test.o)
 .debug_line    0x00006f80      0x1a6 /home/leon/git/swp-report/iMX6_Platform_SDK/output/mx6sdl/sdk_unit_test/sabre_ai_rev_b/libsdk_unit_test.a(sdma_test.o)
 .debug_line    0x00007126      0x217 /home/leon/git/swp-report/iMX6_Platform_SDK/output/mx6sdl/sdk_unit_test/sabre_ai_rev_b/libsdk_unit_test.a(spi_lpb.o)
 .debug_line    0x0000733d      0x313 /home/leon/git/swp-report/iMX6_Platform_SDK/output/mx6sdl/sdk_unit_test/sabre_ai_rev_b/libsdk_unit_test.a(uart_loopback.o)
 .debug_line    0x00007650      0x23f /home/leon/git/swp-report/iMX6_Platform_SDK/output/mx6sdl/sdk_unit_test/sabre_ai_rev_b/libsdk_unit_test.a(epit_test.o)
 .debug_line    0x0000788f      0x2d4 /home/leon/git/swp-report/iMX6_Platform_SDK/output/mx6sdl/sdk_unit_test/sabre_ai_rev_b/libsdk_unit_test.a(gpt_test.o)
 .debug_line    0x00007b63       0xe6 /home/leon/git/swp-report/iMX6_Platform_SDK/output/mx6sdl/sdk_unit_test/sabre_ai_rev_b/libsdk_unit_test.a(timer_test.o)
 .debug_line    0x00007c49      0x217 /home/leon/git/swp-report/iMX6_Platform_SDK/output/mx6sdl/sdk_unit_test/sabre_ai_rev_b/libsdk_unit_test.a(uart_test.o)
 .debug_line    0x00007e60      0x395 /home/leon/git/swp-report/iMX6_Platform_SDK/output/mx6sdl/sdk_unit_test/sabre_ai_rev_b/libsdk_unit_test.a(usdhc_test.o)
 .debug_line    0x000081f5      0x1db /home/leon/git/swp-report/iMX6_Platform_SDK/output/mx6sdl/sdk_unit_test/sabre_ai_rev_b/libsdk_unit_test.a(pwm_test.o)
 .debug_line    0x000083d0      0x1eb /home/leon/git/swp-report/iMX6_Platform_SDK/output/mx6sdl/sdk_unit_test/sabre_ai_rev_b/libsdk_unit_test.a(watchdog_test.o)
 .debug_line    0x000085bb      0x293 /home/leon/git/swp-report/iMX6_Platform_SDK/output/mx6sdl/sdk_unit_test/sabre_ai_rev_b/libsdk_unit_test.a(hdmi_test.o)
 .debug_line    0x0000884e      0x401 /home/leon/git/swp-report/iMX6_Platform_SDK/output/mx6sdl/sdk_unit_test/sabre_ai_rev_b/libsdk_unit_test.a(ips_display.o)
 .debug_line    0x00008c4f      0x1f4 /home/leon/git/swp-report/iMX6_Platform_SDK/output/mx6sdl/sdk_unit_test/sabre_ai_rev_b/libsdk_unit_test.a(ips_test.o)
 .debug_line    0x00008e43      0x1e5 /home/leon/git/swp-report/iMX6_Platform_SDK/output/mx6sdl/sdk_unit_test/sabre_ai_rev_b/libsdk_unit_test.a(ipu_image.o)
 .debug_line    0x00009028      0x1dd /home/leon/git/swp-report/iMX6_Platform_SDK/output/mx6sdl/sdk_unit_test/sabre_ai_rev_b/libsdk_unit_test.a(mipi_test.o)
 .debug_line    0x00009205      0x1bd /home/leon/git/swp-report/iMX6_Platform_SDK/output/mx6sdl/sdk_unit_test/sabre_ai_rev_b/libsdk_unit_test.a(can_test.o)
 .debug_line    0x000093c2       0xef /home/leon/git/swp-report/iMX6_Platform_SDK/output/mx6sdl/sdk_unit_test/sabre_ai_rev_b/libsdk_unit_test.a(usb_test.o)
 .debug_line    0x000094b1      0x26e /home/leon/git/swp-report/iMX6_Platform_SDK/output/mx6sdl/sdk_unit_test/sabre_ai_rev_b/libsdk_unit_test.a(eim_test.o)
 .debug_line    0x0000971f      0x25d /home/leon/git/swp-report/iMX6_Platform_SDK/output/mx6sdl/sdk_unit_test/sabre_ai_rev_b/libsdk_unit_test.a(pcie_test_rc.o)
 .debug_line    0x0000997c      0x2f1 /home/leon/git/swp-report/iMX6_Platform_SDK/output/mx6sdl/sdk_unit_test/sabre_ai_rev_b/libsdk_unit_test.a(spi_test.o)
 .debug_line    0x00009c6d      0x1e3 /home/leon/git/swp-report/iMX6_Platform_SDK/output/mx6sdl/sdk_unit_test/sabre_ai_rev_b/libsdk_unit_test.a(camera_test.o)
 .debug_line    0x00009e50      0x28d /home/leon/git/swp-report/iMX6_Platform_SDK/output/mx6sdl/sdk_unit_test/sabre_ai_rev_b/libsdk_unit_test.a(csi_test_mode.o)
 .debug_line    0x0000a0dd      0x27a /home/leon/git/swp-report/iMX6_Platform_SDK/output/mx6sdl/sdk_unit_test/sabre_ai_rev_b/libsdk_unit_test.a(accelerometer_test.o)
 .debug_line    0x0000a357      0x1f5 /home/leon/git/swp-report/iMX6_Platform_SDK/output/mx6sdl/sdk_unit_test/sabre_ai_rev_b/libsdk_unit_test.a(at24cxx.o)
 .debug_line    0x0000a54c      0x1c4 /home/leon/git/swp-report/iMX6_Platform_SDK/output/mx6sdl/sdk_unit_test/sabre_ai_rev_b/libsdk_unit_test.a(mem_2_mem.o)
 .debug_line    0x0000a710      0x19d /home/leon/git/swp-report/iMX6_Platform_SDK/output/mx6sdl/sdk_unit_test/sabre_ai_rev_b/libsdk_unit_test.a(pwm_output.o)
 .debug_line    0x0000a8ad      0x157 /home/leon/git/swp-report/iMX6_Platform_SDK/output/mx6sdl/sdk_unit_test/sabre_ai_rev_b/libsdk_unit_test.a(init_dma_data.o)
 .debug_line    0x0000aa04      0x20f /home/leon/git/swp-report/iMX6_Platform_SDK/output/mx6sdl/sdk_unit_test/sabre_ai_rev_b/libsdk_unit_test.a(ips_combiner.o)
 .debug_line    0x0000ac13      0x21e /home/leon/git/swp-report/iMX6_Platform_SDK/output/mx6sdl/sdk_unit_test/sabre_ai_rev_b/libsdk_unit_test.a(ips_csc.o)
 .debug_line    0x0000ae31      0x249 /home/leon/git/swp-report/iMX6_Platform_SDK/output/mx6sdl/sdk_unit_test/sabre_ai_rev_b/libsdk_unit_test.a(ips_resize.o)
 .debug_line    0x0000b07a      0x1fd /home/leon/git/swp-report/iMX6_Platform_SDK/output/mx6sdl/sdk_unit_test/sabre_ai_rev_b/libsdk_unit_test.a(ips_rotate.o)
 .debug_line    0x0000b277      0x184 /home/leon/git/swp-report/iMX6_Platform_SDK/output/mx6sdl/sdk_unit_test/sabre_ai_rev_b/libsdk_unit_test.a(mipi_csi2_test.o)
 .debug_line    0x0000b3fb      0x128 /home/leon/git/swp-report/iMX6_Platform_SDK/output/mx6sdl/sdk_unit_test/sabre_ai_rev_b/libsdk_unit_test.a(mipi_dsi_test.o)
 .debug_line    0x0000b523      0x619 /home/leon/git/swp-report/iMX6_Platform_SDK/output/mx6sdl/sdk_unit_test/sabre_ai_rev_b/libsdk_unit_test.a(usb0_device_mouse_test.o)
 .debug_line    0x0000bb3c     0x10e0 /home/leon/git/swp-report/iMX6_Platform_SDK/output/mx6sdl/sdk_unit_test/sabre_ai_rev_b/libsdk_unit_test.a(usb0_host_test.o)
 .debug_line    0x0000cc1c      0x4c9 /home/leon/git/swp-report/iMX6_Platform_SDK/output/mx6sdl/sdk_unit_test/sabre_ai_rev_b/libsdk_unit_test.a(usb0_host_testmodes_test.o)
 .debug_line    0x0000d0e5      0x2c1 /home/leon/git/swp-report/iMX6_Platform_SDK/output/mx6sdl/sdk_unit_test/sabre_ai_rev_b/libsdk_unit_test.a(cfi_flash_api.o)
 .debug_line    0x0000d3a6      0x515 /home/leon/git/swp-report/iMX6_Platform_SDK/output/mx6sdl/sdk_unit_test/sabre_ai_rev_b/libsdk_unit_test.a(cfi_flash_driver.o)
 .debug_line    0x0000d8bb      0x22d /home/leon/git/swp-report/iMX6_Platform_SDK/output/mx6sdl/sdk_unit_test/sabre_ai_rev_b/libsdk_unit_test.a(spi_nor_numonyx.o)
 .debug_line    0x0000dae8      0x2a3 /home/leon/git/swp-report/iMX6_Platform_SDK/output/mx6sdl/sdk_unit_test/sabre_ai_rev_b/libsdk_unit_test.a(adv7180_capture.o)
 .debug_line    0x0000dd8b      0x194 /home/leon/git/swp-report/iMX6_Platform_SDK/output/mx6sdl/lib/libsdk.a(max7310.o)
 .debug_line    0x0000df1f       0x86 /home/leon/git/swp-report/iMX6_Platform_SDK/output/mx6sdl/lib/libsdk.a(profile.o)
 .debug_line    0x0000dfa5      0x1aa /home/leon/git/swp-report/iMX6_Platform_SDK/output/mx6sdl/lib/libsdk.a(armv7_cache.o)
 .debug_line    0x0000e14f      0x234 /home/leon/git/swp-report/iMX6_Platform_SDK/output/mx6sdl/lib/libsdk.a(runtime_support.o)
 .debug_line    0x0000e383      0x22f /home/leon/git/swp-report/iMX6_Platform_SDK/output/mx6sdl/lib/libsdk.a(mma8451.o)
 .debug_line    0x0000e5b2      0x1a9 /home/leon/git/swp-report/iMX6_Platform_SDK/output/mx6sdl/lib/libsdk.a(cpu_get_cores.o)
 .debug_line    0x0000e75b      0x1d1 /home/leon/git/swp-report/iMX6_Platform_SDK/output/mx6sdl/lib/libsdk.a(cpu_multicore.o)
 .debug_line    0x0000e92c      0x21a /home/leon/git/swp-report/iMX6_Platform_SDK/output/mx6sdl/lib/libsdk.a(cpu_workpoint.o)
 .debug_line    0x0000eb46      0x1da /home/leon/git/swp-report/iMX6_Platform_SDK/output/mx6sdl/lib/libsdk.a(eim.o)
 .debug_line    0x0000ed20      0x6e6 /home/leon/git/swp-report/iMX6_Platform_SDK/output/mx6sdl/lib/libsdk.a(can.o)
 .debug_line    0x0000f406      0x7bb /home/leon/git/swp-report/iMX6_Platform_SDK/output/mx6sdl/lib/libsdk.a(gpio.o)
 .debug_line    0x0000fbc1       0xd0 /home/leon/git/swp-report/iMX6_Platform_SDK/output/mx6sdl/lib/libsdk.a(imx6sdl_gpio_map.o)
 .debug_line    0x0000fc91      0x2cb /home/leon/git/swp-report/iMX6_Platform_SDK/output/mx6sdl/lib/libsdk.a(hdmi_tx.o)
 .debug_line    0x0000ff5c      0x2cc /home/leon/git/swp-report/iMX6_Platform_SDK/output/mx6sdl/lib/libsdk.a(hdmi_tx_audio.o)
 .debug_line    0x00010228      0x2eb /home/leon/git/swp-report/iMX6_Platform_SDK/output/mx6sdl/lib/libsdk.a(hdmi_tx_phy.o)
 .debug_line    0x00010513      0x9c0 /home/leon/git/swp-report/iMX6_Platform_SDK/output/mx6sdl/lib/libsdk.a(imx_i2c.o)
 .debug_line    0x00010ed3      0x577 /home/leon/git/swp-report/iMX6_Platform_SDK/output/mx6sdl/lib/libsdk.a(imx_i2c_slave.o)
 .debug_line    0x0001144a      0x22d /home/leon/git/swp-report/iMX6_Platform_SDK/output/mx6sdl/lib/libsdk.a(ips_disp_panel.o)
 .debug_line    0x00011677      0x30b /home/leon/git/swp-report/iMX6_Platform_SDK/output/mx6sdl/lib/libsdk.a(ipu_common.o)
 .debug_line    0x00011982      0x1d0 /home/leon/git/swp-report/iMX6_Platform_SDK/output/mx6sdl/lib/libsdk.a(ipu_csi.o)
 .debug_line    0x00011b52      0x30d /home/leon/git/swp-report/iMX6_Platform_SDK/output/mx6sdl/lib/libsdk.a(ipu_dc.o)
 .debug_line    0x00011e5f      0x243 /home/leon/git/swp-report/iMX6_Platform_SDK/output/mx6sdl/lib/libsdk.a(ipu_di.o)
 .debug_line    0x000120a2      0x14b /home/leon/git/swp-report/iMX6_Platform_SDK/output/mx6sdl/lib/libsdk.a(ipu_dmfc.o)
 .debug_line    0x000121ed      0x17e /home/leon/git/swp-report/iMX6_Platform_SDK/output/mx6sdl/lib/libsdk.a(ipu_dp.o)
 .debug_line    0x0001236b      0x2f5 /home/leon/git/swp-report/iMX6_Platform_SDK/output/mx6sdl/lib/libsdk.a(ipu_ic.o)
 .debug_line    0x00012660      0x98a /home/leon/git/swp-report/iMX6_Platform_SDK/output/mx6sdl/lib/libsdk.a(ipu_idmac.o)
 .debug_line    0x00012fea      0x18e /home/leon/git/swp-report/iMX6_Platform_SDK/output/mx6sdl/lib/libsdk.a(ipu_vdi.o)
 .debug_line    0x00013178      0x1df /home/leon/git/swp-report/iMX6_Platform_SDK/output/mx6sdl/lib/libsdk.a(ldb.o)
 .debug_line    0x00013357      0x34b /home/leon/git/swp-report/iMX6_Platform_SDK/output/mx6sdl/lib/libsdk.a(mipi_csi2_common.o)
 .debug_line    0x000136a2      0x253 /home/leon/git/swp-report/iMX6_Platform_SDK/output/mx6sdl/lib/libsdk.a(mipi_dsi_common.o)
 .debug_line    0x000138f5       0xc0 /home/leon/git/swp-report/iMX6_Platform_SDK/output/mx6sdl/lib/libsdk.a(ov5640_mipi_fm.o)
 .debug_line    0x000139b5      0x1ae /home/leon/git/swp-report/iMX6_Platform_SDK/output/mx6sdl/lib/libsdk.a(ocotp.o)
 .debug_line    0x00013b63      0x1f6 /home/leon/git/swp-report/iMX6_Platform_SDK/output/mx6sdl/lib/libsdk.a(pcie.o)
 .debug_line    0x00013d59      0x183 /home/leon/git/swp-report/iMX6_Platform_SDK/output/mx6sdl/lib/libsdk.a(pcie_phy.o)
 .debug_line    0x00013edc      0x197 /home/leon/git/swp-report/iMX6_Platform_SDK/output/mx6sdl/lib/libsdk.a(pcie_prot.o)
 .debug_line    0x00014073      0x912 /home/leon/git/swp-report/iMX6_Platform_SDK/output/mx6sdl/lib/libsdk.a(pmu_driver.o)
 .debug_line    0x00014985      0x5ee /home/leon/git/swp-report/iMX6_Platform_SDK/output/mx6sdl/lib/libsdk.a(pwm.o)
 .debug_line    0x00014f73      0x255 /home/leon/git/swp-report/iMX6_Platform_SDK/output/mx6sdl/lib/libsdk.a(rtc.o)
 .debug_line    0x000151c8      0x23a /home/leon/git/swp-report/iMX6_Platform_SDK/output/mx6sdl/lib/libsdk.a(srtc.o)
 .debug_line    0x00015402      0x402 /home/leon/git/swp-report/iMX6_Platform_SDK/output/mx6sdl/lib/libsdk.a(sdma.o)
 .debug_line    0x00015804      0x14a /home/leon/git/swp-report/iMX6_Platform_SDK/output/mx6sdl/lib/libsdk.a(sdma_script_info.o)
 .debug_line    0x0001594e      0x1bf /home/leon/git/swp-report/iMX6_Platform_SDK/output/mx6sdl/lib/libsdk.a(snvs.o)
 .debug_line    0x00015b0d      0x85b /home/leon/git/swp-report/iMX6_Platform_SDK/output/mx6sdl/lib/libsdk.a(ecspi.o)
 .debug_line    0x00016368      0x27b /home/leon/git/swp-report/iMX6_Platform_SDK/output/mx6sdl/lib/libsdk.a(tempmon.o)
 .debug_line    0x000165e3      0x281 /home/leon/git/swp-report/iMX6_Platform_SDK/output/mx6sdl/lib/libsdk.a(gpt.o)
 .debug_line    0x00016864      0x2a9 /home/leon/git/swp-report/iMX6_Platform_SDK/output/mx6sdl/lib/libsdk.a(usb_common.o)
 .debug_line    0x00016b0d      0xcc5 /home/leon/git/swp-report/iMX6_Platform_SDK/output/mx6sdl/lib/libsdk.a(usbd_drv.o)
 .debug_line    0x000177d2     0x1253 /home/leon/git/swp-report/iMX6_Platform_SDK/output/mx6sdl/lib/libsdk.a(usbh_drv.o)
 .debug_line    0x00018a25      0x380 /home/leon/git/swp-report/iMX6_Platform_SDK/output/mx6sdl/lib/libsdk.a(usdhc.o)
 .debug_line    0x00018da5     0x14a5 /home/leon/git/swp-report/iMX6_Platform_SDK/output/mx6sdl/lib/libsdk.a(usdhc_host.o)
 .debug_line    0x0001a24a      0x348 /home/leon/git/swp-report/iMX6_Platform_SDK/output/mx6sdl/lib/libsdk.a(usdhc_mmc.o)
 .debug_line    0x0001a592      0x202 /home/leon/git/swp-report/iMX6_Platform_SDK/output/mx6sdl/lib/libsdk.a(usdhc_sd.o)
 .debug_line    0x0001a794      0x292 /home/leon/git/swp-report/iMX6_Platform_SDK/output/mx6sdl/lib/libsdk.a(adv7180.o)
 .debug_line    0x0001aa26      0x59e /home/leon/git/swp-report/iMX6_Platform_SDK/output/mx6sdl/lib/libsdk.a(hdmi_common.o)
 .debug_line    0x0001afc4      0x271 /home/leon/git/swp-report/iMX6_Platform_SDK/output/mx6sdl/lib/libsdk.a(mx6x_usb.o)
 .debug_line    0x0001b235      0x241 /home/leon/git/swp-report/iMX6_Platform_SDK/output/mx6sdl/lib/libboard_sabre_ai_rev_b.a(board_camera.o)
 .debug_line    0x0001b476      0x127 /home/leon/git/swp-report/iMX6_Platform_SDK/output/mx6sdl/lib/libboard_sabre_ai_rev_b.a(board_can.o)
 .debug_line    0x0001b59d      0x180 /home/leon/git/swp-report/iMX6_Platform_SDK/output/mx6sdl/lib/libboard_sabre_ai_rev_b.a(board_display.o)
 .debug_line    0x0001b71d      0x172 /home/leon/git/swp-report/iMX6_Platform_SDK/output/mx6sdl/lib/libboard_sabre_ai_rev_b.a(board_hdmi.o)
 .debug_line    0x0001b88f      0x10a /home/leon/git/swp-report/iMX6_Platform_SDK/output/mx6sdl/lib/libboard_sabre_ai_rev_b.a(board_i2c.o)
 .debug_line    0x0001b999      0x120 /home/leon/git/swp-report/iMX6_Platform_SDK/output/mx6sdl/lib/libboard_sabre_ai_rev_b.a(board_mipi.o)
 .debug_line    0x0001bab9      0x1b8 /home/leon/git/swp-report/iMX6_Platform_SDK/output/mx6sdl/lib/libboard_sabre_ai_rev_b.a(board_pcie.o)
 .debug_line    0x0001bc71       0xd8 /home/leon/git/swp-report/iMX6_Platform_SDK/output/mx6sdl/lib/libboard_sabre_ai_rev_b.a(board_usb.o)
 .debug_line    0x0001bd49      0x1cc /home/leon/git/swp-report/iMX6_Platform_SDK/output/mx6sdl/lib/libboard_sabre_ai_rev_b.a(board_usdhc.o)
 .debug_line    0x0001bf15       0x9a /home/leon/git/swp-report/iMX6_Platform_SDK/output/mx6sdl/lib/libboard_sabre_ai_rev_b.a(ecspi_iomux_config.o)
 .debug_line    0x0001bfaf       0x99 /home/leon/git/swp-report/iMX6_Platform_SDK/output/mx6sdl/lib/libboard_sabre_ai_rev_b.a(flexcan_iomux_config.o)
 .debug_line    0x0001c048       0x98 /home/leon/git/swp-report/iMX6_Platform_SDK/output/mx6sdl/lib/libboard_sabre_ai_rev_b.a(i2c_iomux_config.o)
 .debug_line    0x0001c0e0       0x98 /home/leon/git/swp-report/iMX6_Platform_SDK/output/mx6sdl/lib/libboard_sabre_ai_rev_b.a(pwm_iomux_config.o)
 .debug_line    0x0001c178       0x9a /home/leon/git/swp-report/iMX6_Platform_SDK/output/mx6sdl/lib/libboard_sabre_ai_rev_b.a(usdhc_iomux_config.o)

.debug_str      0x00000000    0x28c72
 .debug_str     0x00000000      0x142 /home/leon/git/swp-report/iMX6_Platform_SDK/output/mx6sdl/sdk_unit_test/sabre_ai_rev_b/obj/apps/common/ivt.o
                                0x1ad (size before relaxing)
 .debug_str     0x00000142      0x146 /home/leon/git/swp-report/iMX6_Platform_SDK/output/mx6sdl/sdk_unit_test/sabre_ai_rev_b/obj/apps/common/platform_init.o
                                0x1f5 (size before relaxing)
 .debug_str     0x00000288      0x170 /home/leon/git/swp-report/iMX6_Platform_SDK/output/mx6sdl/sdk_unit_test/sabre_ai_rev_b/obj/apps/common/print_clock_info.o
                                0x277 (size before relaxing)
 .debug_str     0x000003f8      0x11a /home/leon/git/swp-report/iMX6_Platform_SDK/output/mx6sdl/sdk_unit_test/sabre_ai_rev_b/obj/apps/common/print_version.o
                                0x20c (size before relaxing)
 .debug_str     0x00000512      0x1ee /home/leon/git/swp-report/iMX6_Platform_SDK/output/mx6sdl/sdk_unit_test/sabre_ai_rev_b/obj/apps/sdk_unit_test/src/all_test.o
                                0x2d1 (size before relaxing)
 .debug_str     0x00000700       0x54 /home/leon/git/swp-report/iMX6_Platform_SDK/output/mx6sdl/sdk_unit_test/sabre_ai_rev_b/obj/apps/sdk_unit_test/src/unit_test_main.o
                                0x140 (size before relaxing)
 .debug_str     0x00000754      0xe62 /home/leon/git/swp-report/iMX6_Platform_SDK/output/mx6sdl/lib/libsdk.a(ccm_pll.o)
                               0x109a (size before relaxing)
 .debug_str     0x000015b6      0x4e1 /home/leon/git/swp-report/iMX6_Platform_SDK/output/mx6sdl/lib/libsdk.a(gic.o)
                                0x5f2 (size before relaxing)
 .debug_str     0x00001a97      0x256 /home/leon/git/swp-report/iMX6_Platform_SDK/output/mx6sdl/lib/libsdk.a(mmu.o)
                                0x35e (size before relaxing)
 .debug_str     0x00001ced      0x5e9 /home/leon/git/swp-report/iMX6_Platform_SDK/output/mx6sdl/lib/libsdk.a(menu.o)
                                0x85d (size before relaxing)
 .debug_str     0x000022d6       0x4a /home/leon/git/swp-report/iMX6_Platform_SDK/output/mx6sdl/lib/libsdk.a(sdk_version.o)
                                 0x82 (size before relaxing)
 .debug_str     0x00002320      0x10f /home/leon/git/swp-report/iMX6_Platform_SDK/output/mx6sdl/lib/libsdk.a(system_util.o)
                                0x7ac (size before relaxing)
 .debug_str     0x0000242f      0x19c /home/leon/git/swp-report/iMX6_Platform_SDK/output/mx6sdl/lib/libsdk.a(text_color.o)
                                0x305 (size before relaxing)
 .debug_str     0x000025cb      0x21c /home/leon/git/swp-report/iMX6_Platform_SDK/output/mx6sdl/lib/libsdk.a(board_id.o)
                                0x3d2 (size before relaxing)
 .debug_str     0x000027e7      0x2ba /home/leon/git/swp-report/iMX6_Platform_SDK/output/mx6sdl/lib/libsdk.a(timer.o)
                                0x3f8 (size before relaxing)
 .debug_str     0x00002aa1     0x1047 /home/leon/git/swp-report/iMX6_Platform_SDK/output/mx6sdl/lib/libsdk.a(imx_uart.o)
                               0x12ee (size before relaxing)
 .debug_str     0x00003ae8       0xd7 /home/leon/git/swp-report/iMX6_Platform_SDK/output/mx6sdl/lib/libsdk.a(interrupt.o)
                                0xc85 (size before relaxing)
 .debug_str     0x00003bbf      0x283 /home/leon/git/swp-report/iMX6_Platform_SDK/output/mx6sdl/lib/libsdk.a(epit.o)
                                0xf06 (size before relaxing)
 .debug_str     0x00003e42       0xbc /home/leon/git/swp-report/iMX6_Platform_SDK/output/mx6sdl/lib/libsdk.a(abort_handler.o)
                                0x1a1 (size before relaxing)
 .debug_str     0x00003efe      0x19d /home/leon/git/swp-report/iMX6_Platform_SDK/output/mx6sdl/lib/libboard_sabre_ai_rev_b.a(board_io_expanders.o)
                                0x297 (size before relaxing)
 .debug_str     0x0000409b       0x4c /home/leon/git/swp-report/iMX6_Platform_SDK/output/mx6sdl/lib/libboard_sabre_ai_rev_b.a(hardware_modules.o)
                                0x152 (size before relaxing)
 .debug_str     0x000040e7       0xaf /home/leon/git/swp-report/iMX6_Platform_SDK/output/mx6sdl/lib/libboard_sabre_ai_rev_b.a(dcd.o)
                                0x15e (size before relaxing)
 .debug_str     0x00004196      0x347 /home/leon/git/swp-report/iMX6_Platform_SDK/output/mx6sdl/lib/libboard_sabre_ai_rev_b.a(i2c3_iomux_config.o)
                                0x3b5 (size before relaxing)
 .debug_str     0x000044dd       0xc2 /home/leon/git/swp-report/iMX6_Platform_SDK/output/mx6sdl/lib/libboard_sabre_ai_rev_b.a(uart_iomux_config.o)
                                0x178 (size before relaxing)
 .debug_str     0x0000459f      0x2ee /home/leon/git/swp-report/iMX6_Platform_SDK/output/mx6sdl/lib/libboard_sabre_ai_rev_b.a(iomux_config.o)
                                0x318 (size before relaxing)
 .debug_str     0x0000488d     0x299c /home/leon/git/swp-report/iMX6_Platform_SDK/output/mx6sdl/lib/libboard_sabre_ai_rev_b.a(ipu1_iomux_config.o)
                               0x2a2b (size before relaxing)
 .debug_str     0x00007229      0x4b3 /home/leon/git/swp-report/iMX6_Platform_SDK/output/mx6sdl/lib/libboard_sabre_ai_rev_b.a(mlb_iomux_config.o)
                                0x536 (size before relaxing)
 .debug_str     0x000076dc     0x1dea /home/leon/git/swp-report/iMX6_Platform_SDK/output/mx6sdl/lib/libboard_sabre_ai_rev_b.a(mmdc_iomux_config.o)
                               0x1e5d (size before relaxing)
 .debug_str     0x000094c6      0x162 /home/leon/git/swp-report/iMX6_Platform_SDK/output/mx6sdl/lib/libboard_sabre_ai_rev_b.a(pwm3_iomux_config.o)
                                0x1df (size before relaxing)
 .debug_str     0x00009628      0x162 /home/leon/git/swp-report/iMX6_Platform_SDK/output/mx6sdl/lib/libboard_sabre_ai_rev_b.a(pwm4_iomux_config.o)
                                0x1df (size before relaxing)
 .debug_str     0x0000978a      0x330 /home/leon/git/swp-report/iMX6_Platform_SDK/output/mx6sdl/lib/libboard_sabre_ai_rev_b.a(sjc_iomux_config.o)
                                0x39f (size before relaxing)
 .debug_str     0x00009aba      0x1e1 /home/leon/git/swp-report/iMX6_Platform_SDK/output/mx6sdl/lib/libboard_sabre_ai_rev_b.a(spdif_iomux_config.o)
                                0x264 (size before relaxing)
 .debug_str     0x00009c9b      0x51c /home/leon/git/swp-report/iMX6_Platform_SDK/output/mx6sdl/lib/libboard_sabre_ai_rev_b.a(uart2_iomux_config.o)
                                0x59f (size before relaxing)
 .debug_str     0x0000a1b7      0x522 /home/leon/git/swp-report/iMX6_Platform_SDK/output/mx6sdl/lib/libboard_sabre_ai_rev_b.a(uart3_iomux_config.o)
                                0x5a5 (size before relaxing)
 .debug_str     0x0000a6d9      0x2d2 /home/leon/git/swp-report/iMX6_Platform_SDK/output/mx6sdl/lib/libboard_sabre_ai_rev_b.a(uart4_iomux_config.o)
                                0x355 (size before relaxing)
 .debug_str     0x0000a9ab      0xb44 /home/leon/git/swp-report/iMX6_Platform_SDK/output/mx6sdl/lib/libboard_sabre_ai_rev_b.a(usdhc1_iomux_config.o)
                                0xbc7 (size before relaxing)
 .debug_str     0x0000b4ef      0xc02 /home/leon/git/swp-report/iMX6_Platform_SDK/output/mx6sdl/lib/libboard_sabre_ai_rev_b.a(usdhc3_iomux_config.o)
                                0xc85 (size before relaxing)
 .debug_str     0x0000c0f1       0x76 /home/leon/git/swp-report/iMX6_Platform_SDK/output/mx6sdl/lib/libboard_sabre_ai_rev_b.a(wdog1_iomux_config.o)
                                0x1f3 (size before relaxing)
 .debug_str     0x0000c167      0x422 /home/leon/git/swp-report/iMX6_Platform_SDK/output/mx6sdl/lib/libboard_sabre_ai_rev_b.a(audmux_iomux_config.o)
                                0x95d (size before relaxing)
 .debug_str     0x0000c589      0x14e /home/leon/git/swp-report/iMX6_Platform_SDK/output/mx6sdl/lib/libboard_sabre_ai_rev_b.a(ccm_iomux_config.o)
                                0x1cb (size before relaxing)
 .debug_str     0x0000c6d7      0x61e /home/leon/git/swp-report/iMX6_Platform_SDK/output/mx6sdl/lib/libboard_sabre_ai_rev_b.a(ecspi1_iomux_config.o)
                                0x795 (size before relaxing)
 .debug_str     0x0000ccf5     0x2490 /home/leon/git/swp-report/iMX6_Platform_SDK/output/mx6sdl/lib/libboard_sabre_ai_rev_b.a(eim_iomux_config.o)
                               0x29d1 (size before relaxing)
 .debug_str     0x0000f185     0x1357 /home/leon/git/swp-report/iMX6_Platform_SDK/output/mx6sdl/lib/libboard_sabre_ai_rev_b.a(enet_iomux_config.o)
                               0x13ee (size before relaxing)
 .debug_str     0x000104dc      0xe84 /home/leon/git/swp-report/iMX6_Platform_SDK/output/mx6sdl/lib/libboard_sabre_ai_rev_b.a(esai_iomux_config.o)
                                0xf07 (size before relaxing)
 .debug_str     0x00011360      0x1db /home/leon/git/swp-report/iMX6_Platform_SDK/output/mx6sdl/lib/libboard_sabre_ai_rev_b.a(flexcan1_iomux_config.o)
                                0x346 (size before relaxing)
 .debug_str     0x0001153b      0x2c3 /home/leon/git/swp-report/iMX6_Platform_SDK/output/mx6sdl/lib/libboard_sabre_ai_rev_b.a(flexcan2_iomux_config.o)
                                0x346 (size before relaxing)
 .debug_str     0x000117fe      0x7d4 /home/leon/git/swp-report/iMX6_Platform_SDK/output/mx6sdl/lib/libboard_sabre_ai_rev_b.a(gpio1_iomux_config.o)
                                0x851 (size before relaxing)
 .debug_str     0x00011fd2      0x6c8 /home/leon/git/swp-report/iMX6_Platform_SDK/output/mx6sdl/lib/libboard_sabre_ai_rev_b.a(gpio2_iomux_config.o)
                                0x745 (size before relaxing)
 .debug_str     0x0001269a      0x15e /home/leon/git/swp-report/iMX6_Platform_SDK/output/mx6sdl/lib/libboard_sabre_ai_rev_b.a(gpio4_iomux_config.o)
                                0x2b7 (size before relaxing)
 .debug_str     0x000127f8      0x66a /home/leon/git/swp-report/iMX6_Platform_SDK/output/mx6sdl/lib/libboard_sabre_ai_rev_b.a(gpio5_iomux_config.o)
                                0x6e7 (size before relaxing)
 .debug_str     0x00012e62      0x252 /home/leon/git/swp-report/iMX6_Platform_SDK/output/mx6sdl/lib/libboard_sabre_ai_rev_b.a(gpio6_iomux_config.o)
                                0x2cf (size before relaxing)
 .debug_str     0x000130b4      0xae4 /home/leon/git/swp-report/iMX6_Platform_SDK/output/mx6sdl/lib/libboard_sabre_ai_rev_b.a(gpmi_iomux_config.o)
                               0x110d (size before relaxing)
 .debug_str     0x00013b98      0x32c /home/leon/git/swp-report/iMX6_Platform_SDK/output/mx6sdl/lib/libboard_sabre_ai_rev_b.a(i2c2_iomux_config.o)
                                0x3af (size before relaxing)
 .debug_str     0x00013ec4      0x10b /home/leon/git/swp-report/iMX6_Platform_SDK/output/mx6sdl/sdk_unit_test/sabre_ai_rev_b/libsdk_unit_test.a(gic_test.o)
                                0xc7d (size before relaxing)
 .debug_str     0x00013fcf      0x16f /home/leon/git/swp-report/iMX6_Platform_SDK/output/mx6sdl/sdk_unit_test/sabre_ai_rev_b/libsdk_unit_test.a(cpu_wp_test.o)
                                0x304 (size before relaxing)
 .debug_str     0x0001413e       0x96 /home/leon/git/swp-report/iMX6_Platform_SDK/output/mx6sdl/sdk_unit_test/sabre_ai_rev_b/libsdk_unit_test.a(multicore_test.o)
                                0xcab (size before relaxing)
 .debug_str     0x000141d4       0xa3 /home/leon/git/swp-report/iMX6_Platform_SDK/output/mx6sdl/sdk_unit_test/sabre_ai_rev_b/libsdk_unit_test.a(ocotp_test.o)
                                0x521 (size before relaxing)
 .debug_str     0x00014277       0x96 /home/leon/git/swp-report/iMX6_Platform_SDK/output/mx6sdl/sdk_unit_test/sabre_ai_rev_b/libsdk_unit_test.a(i2c_test.o)
                                0x505 (size before relaxing)
 .debug_str     0x0001430d      0x17c /home/leon/git/swp-report/iMX6_Platform_SDK/output/mx6sdl/sdk_unit_test/sabre_ai_rev_b/libsdk_unit_test.a(imx6_i2c_device.o)
                                0x702 (size before relaxing)
 .debug_str     0x00014489       0xeb /home/leon/git/swp-report/iMX6_Platform_SDK/output/mx6sdl/sdk_unit_test/sabre_ai_rev_b/libsdk_unit_test.a(snvs_rtc_test.o)
                                0x585 (size before relaxing)
 .debug_str     0x00014574       0x96 /home/leon/git/swp-report/iMX6_Platform_SDK/output/mx6sdl/sdk_unit_test/sabre_ai_rev_b/libsdk_unit_test.a(snvs_srtc_test.o)
                                0x558 (size before relaxing)
 .debug_str     0x0001460a       0xe4 /home/leon/git/swp-report/iMX6_Platform_SDK/output/mx6sdl/sdk_unit_test/sabre_ai_rev_b/libsdk_unit_test.a(tempmon_test.o)
                                0x556 (size before relaxing)
 .debug_str     0x000146ee       0xb6 /home/leon/git/swp-report/iMX6_Platform_SDK/output/mx6sdl/sdk_unit_test/sabre_ai_rev_b/libsdk_unit_test.a(sdma_test.o)
                                0x527 (size before relaxing)
 .debug_str     0x000147a4      0x3a9 /home/leon/git/swp-report/iMX6_Platform_SDK/output/mx6sdl/sdk_unit_test/sabre_ai_rev_b/libsdk_unit_test.a(spi_lpb.o)
                                0x4ee (size before relaxing)
 .debug_str     0x00014b4d      0x11c /home/leon/git/swp-report/iMX6_Platform_SDK/output/mx6sdl/sdk_unit_test/sabre_ai_rev_b/libsdk_unit_test.a(uart_loopback.o)
                                0x5de (size before relaxing)
 .debug_str     0x00014c69       0xf4 /home/leon/git/swp-report/iMX6_Platform_SDK/output/mx6sdl/sdk_unit_test/sabre_ai_rev_b/libsdk_unit_test.a(epit_test.o)
                                0x66a (size before relaxing)
 .debug_str     0x00014d5d      0x272 /home/leon/git/swp-report/iMX6_Platform_SDK/output/mx6sdl/sdk_unit_test/sabre_ai_rev_b/libsdk_unit_test.a(gpt_test.o)
                                0x954 (size before relaxing)
 .debug_str     0x00014fcf       0x74 /home/leon/git/swp-report/iMX6_Platform_SDK/output/mx6sdl/sdk_unit_test/sabre_ai_rev_b/libsdk_unit_test.a(timer_test.o)
                                0x16d (size before relaxing)
 .debug_str     0x00015043       0xf1 /home/leon/git/swp-report/iMX6_Platform_SDK/output/mx6sdl/sdk_unit_test/sabre_ai_rev_b/libsdk_unit_test.a(uart_test.o)
                                0x6aa (size before relaxing)
 .debug_str     0x00015134      0x1aa /home/leon/git/swp-report/iMX6_Platform_SDK/output/mx6sdl/sdk_unit_test/sabre_ai_rev_b/libsdk_unit_test.a(usdhc_test.o)
                                0x6cf (size before relaxing)
 .debug_str     0x000152de       0xbc /home/leon/git/swp-report/iMX6_Platform_SDK/output/mx6sdl/sdk_unit_test/sabre_ai_rev_b/libsdk_unit_test.a(pwm_test.o)
                                0x5b2 (size before relaxing)
 .debug_str     0x0001539a       0xd3 /home/leon/git/swp-report/iMX6_Platform_SDK/output/mx6sdl/sdk_unit_test/sabre_ai_rev_b/libsdk_unit_test.a(watchdog_test.o)
                                0x552 (size before relaxing)
 .debug_str     0x0001546d      0xa40 /home/leon/git/swp-report/iMX6_Platform_SDK/output/mx6sdl/sdk_unit_test/sabre_ai_rev_b/libsdk_unit_test.a(hdmi_test.o)
                               0x1613 (size before relaxing)
 .debug_str     0x00015ead      0x44c /home/leon/git/swp-report/iMX6_Platform_SDK/output/mx6sdl/sdk_unit_test/sabre_ai_rev_b/libsdk_unit_test.a(ips_display.o)
                                0x92c (size before relaxing)
 .debug_str     0x000162f9       0x6a /home/leon/git/swp-report/iMX6_Platform_SDK/output/mx6sdl/sdk_unit_test/sabre_ai_rev_b/libsdk_unit_test.a(ips_test.o)
                                0x673 (size before relaxing)
 .debug_str     0x00016363      0x113 /home/leon/git/swp-report/iMX6_Platform_SDK/output/mx6sdl/sdk_unit_test/sabre_ai_rev_b/libsdk_unit_test.a(ipu_image.o)
                                0x33d (size before relaxing)
 .debug_str     0x00016476       0xb1 /home/leon/git/swp-report/iMX6_Platform_SDK/output/mx6sdl/sdk_unit_test/sabre_ai_rev_b/libsdk_unit_test.a(mipi_test.o)
                                0x5b8 (size before relaxing)
 .debug_str     0x00016527       0xdb /home/leon/git/swp-report/iMX6_Platform_SDK/output/mx6sdl/sdk_unit_test/sabre_ai_rev_b/libsdk_unit_test.a(can_test.o)
                                0x554 (size before relaxing)
 .debug_str     0x00016602      0x165 /home/leon/git/swp-report/iMX6_Platform_SDK/output/mx6sdl/sdk_unit_test/sabre_ai_rev_b/libsdk_unit_test.a(usb_test.o)
                                0x20e (size before relaxing)
 .debug_str     0x00016767      0x46b /home/leon/git/swp-report/iMX6_Platform_SDK/output/mx6sdl/sdk_unit_test/sabre_ai_rev_b/libsdk_unit_test.a(eim_test.o)
                                0x98b (size before relaxing)
 .debug_str     0x00016bd2      0x2f0 /home/leon/git/swp-report/iMX6_Platform_SDK/output/mx6sdl/sdk_unit_test/sabre_ai_rev_b/libsdk_unit_test.a(pcie_test_rc.o)
                                0x782 (size before relaxing)
 .debug_str     0x00016ec2      0x165 /home/leon/git/swp-report/iMX6_Platform_SDK/output/mx6sdl/sdk_unit_test/sabre_ai_rev_b/libsdk_unit_test.a(spi_test.o)
                                0x704 (size before relaxing)
 .debug_str     0x00017027       0xe2 /home/leon/git/swp-report/iMX6_Platform_SDK/output/mx6sdl/sdk_unit_test/sabre_ai_rev_b/libsdk_unit_test.a(camera_test.o)
                                0x5f7 (size before relaxing)
 .debug_str     0x00017109       0xee /home/leon/git/swp-report/iMX6_Platform_SDK/output/mx6sdl/sdk_unit_test/sabre_ai_rev_b/libsdk_unit_test.a(csi_test_mode.o)
                                0x784 (size before relaxing)
 .debug_str     0x000171f7      0x12c /home/leon/git/swp-report/iMX6_Platform_SDK/output/mx6sdl/sdk_unit_test/sabre_ai_rev_b/libsdk_unit_test.a(accelerometer_test.o)
                                0x5eb (size before relaxing)
 .debug_str     0x00017323       0xa0 /home/leon/git/swp-report/iMX6_Platform_SDK/output/mx6sdl/sdk_unit_test/sabre_ai_rev_b/libsdk_unit_test.a(at24cxx.o)
                                0x2df (size before relaxing)
 .debug_str     0x000173c3       0x83 /home/leon/git/swp-report/iMX6_Platform_SDK/output/mx6sdl/sdk_unit_test/sabre_ai_rev_b/libsdk_unit_test.a(mem_2_mem.o)
                                0x4f5 (size before relaxing)
 .debug_str     0x00017446      0x151 /home/leon/git/swp-report/iMX6_Platform_SDK/output/mx6sdl/sdk_unit_test/sabre_ai_rev_b/libsdk_unit_test.a(pwm_output.o)
                                0x289 (size before relaxing)
 .debug_str     0x00017597      0x14e /home/leon/git/swp-report/iMX6_Platform_SDK/output/mx6sdl/sdk_unit_test/sabre_ai_rev_b/libsdk_unit_test.a(init_dma_data.o)
                                0x2b0 (size before relaxing)
 .debug_str     0x000176e5       0x9e /home/leon/git/swp-report/iMX6_Platform_SDK/output/mx6sdl/sdk_unit_test/sabre_ai_rev_b/libsdk_unit_test.a(ips_combiner.o)
                                0x7ba (size before relaxing)
 .debug_str     0x00017783      0x3f5 /home/leon/git/swp-report/iMX6_Platform_SDK/output/mx6sdl/sdk_unit_test/sabre_ai_rev_b/libsdk_unit_test.a(ips_csc.o)
                                0xb2e (size before relaxing)
 .debug_str     0x00017b78       0xde /home/leon/git/swp-report/iMX6_Platform_SDK/output/mx6sdl/sdk_unit_test/sabre_ai_rev_b/libsdk_unit_test.a(ips_resize.o)
                                0xb5a (size before relaxing)
 .debug_str     0x00017c56       0x5e /home/leon/git/swp-report/iMX6_Platform_SDK/output/mx6sdl/sdk_unit_test/sabre_ai_rev_b/libsdk_unit_test.a(ips_rotate.o)
                                0xaf0 (size before relaxing)
 .debug_str     0x00017cb4       0x62 /home/leon/git/swp-report/iMX6_Platform_SDK/output/mx6sdl/sdk_unit_test/sabre_ai_rev_b/libsdk_unit_test.a(mipi_csi2_test.o)
                                0x31a (size before relaxing)
 .debug_str     0x00017d16       0x60 /home/leon/git/swp-report/iMX6_Platform_SDK/output/mx6sdl/sdk_unit_test/sabre_ai_rev_b/libsdk_unit_test.a(mipi_dsi_test.o)
                                0x1df (size before relaxing)
 .debug_str     0x00017d76      0xc3a /home/leon/git/swp-report/iMX6_Platform_SDK/output/mx6sdl/sdk_unit_test/sabre_ai_rev_b/libsdk_unit_test.a(usb0_device_mouse_test.o)
                               0x121f (size before relaxing)
 .debug_str     0x000189b0      0x466 /home/leon/git/swp-report/iMX6_Platform_SDK/output/mx6sdl/sdk_unit_test/sabre_ai_rev_b/libsdk_unit_test.a(usb0_host_test.o)
                                0xa0b (size before relaxing)
 .debug_str     0x00018e16       0x84 /home/leon/git/swp-report/iMX6_Platform_SDK/output/mx6sdl/sdk_unit_test/sabre_ai_rev_b/libsdk_unit_test.a(usb0_host_testmodes_test.o)
                                0x370 (size before relaxing)
 .debug_str     0x00018e9a      0x123 /home/leon/git/swp-report/iMX6_Platform_SDK/output/mx6sdl/sdk_unit_test/sabre_ai_rev_b/libsdk_unit_test.a(cfi_flash_api.o)
                                0x307 (size before relaxing)
 .debug_str     0x00018fbd      0x36c /home/leon/git/swp-report/iMX6_Platform_SDK/output/mx6sdl/sdk_unit_test/sabre_ai_rev_b/libsdk_unit_test.a(cfi_flash_driver.o)
                                0x581 (size before relaxing)
 .debug_str     0x00019329      0x138 /home/leon/git/swp-report/iMX6_Platform_SDK/output/mx6sdl/sdk_unit_test/sabre_ai_rev_b/libsdk_unit_test.a(spi_nor_numonyx.o)
                                0x2af (size before relaxing)
 .debug_str     0x00019461      0x120 /home/leon/git/swp-report/iMX6_Platform_SDK/output/mx6sdl/sdk_unit_test/sabre_ai_rev_b/libsdk_unit_test.a(adv7180_capture.o)
                                0x826 (size before relaxing)
 .debug_str     0x00019581      0x112 /home/leon/git/swp-report/iMX6_Platform_SDK/output/mx6sdl/lib/libsdk.a(max7310.o)
                                0x2ab (size before relaxing)
 .debug_str     0x00019693       0x6a /home/leon/git/swp-report/iMX6_Platform_SDK/output/mx6sdl/lib/libsdk.a(profile.o)
                                 0x8b (size before relaxing)
 .debug_str     0x000196fd      0x1e7 /home/leon/git/swp-report/iMX6_Platform_SDK/output/mx6sdl/lib/libsdk.a(armv7_cache.o)
                                0x2aa (size before relaxing)
 .debug_str     0x000198e4      0x204 /home/leon/git/swp-report/iMX6_Platform_SDK/output/mx6sdl/lib/libsdk.a(runtime_support.o)
                                0x3ac (size before relaxing)
 .debug_str     0x00019ae8      0x316 /home/leon/git/swp-report/iMX6_Platform_SDK/output/mx6sdl/lib/libsdk.a(mma8451.o)
                                0x4e1 (size before relaxing)
 .debug_str     0x00019dfe      0x118 /home/leon/git/swp-report/iMX6_Platform_SDK/output/mx6sdl/lib/libsdk.a(cpu_get_cores.o)
                                0x20a (size before relaxing)
 .debug_str     0x00019f16      0x259 /home/leon/git/swp-report/iMX6_Platform_SDK/output/mx6sdl/lib/libsdk.a(cpu_multicore.o)
                                0x39e (size before relaxing)
 .debug_str     0x0001a16f      0x461 /home/leon/git/swp-report/iMX6_Platform_SDK/output/mx6sdl/lib/libsdk.a(cpu_workpoint.o)
                                0x627 (size before relaxing)
 .debug_str     0x0001a5d0      0x30d /home/leon/git/swp-report/iMX6_Platform_SDK/output/mx6sdl/lib/libsdk.a(eim.o)
                                0x799 (size before relaxing)
 .debug_str     0x0001a8dd      0x493 /home/leon/git/swp-report/iMX6_Platform_SDK/output/mx6sdl/lib/libsdk.a(can.o)
                               0x1141 (size before relaxing)
 .debug_str     0x0001ad70      0x37a /home/leon/git/swp-report/iMX6_Platform_SDK/output/mx6sdl/lib/libsdk.a(gpio.o)
                                0x48b (size before relaxing)
 .debug_str     0x0001b0ea       0x54 /home/leon/git/swp-report/iMX6_Platform_SDK/output/mx6sdl/lib/libsdk.a(imx6sdl_gpio_map.o)
                                0x10b (size before relaxing)
 .debug_str     0x0001b13e     0x1b0d /home/leon/git/swp-report/iMX6_Platform_SDK/output/mx6sdl/lib/libsdk.a(hdmi_tx.o)
                               0x1f81 (size before relaxing)
 .debug_str     0x0001cc4b      0xb79 /home/leon/git/swp-report/iMX6_Platform_SDK/output/mx6sdl/lib/libsdk.a(hdmi_tx_audio.o)
                                0xd5b (size before relaxing)
 .debug_str     0x0001d7c4      0x8b2 /home/leon/git/swp-report/iMX6_Platform_SDK/output/mx6sdl/lib/libsdk.a(hdmi_tx_phy.o)
                                0xa56 (size before relaxing)
 .debug_str     0x0001e076      0x2e3 /home/leon/git/swp-report/iMX6_Platform_SDK/output/mx6sdl/lib/libsdk.a(imx_i2c.o)
                               0x1099 (size before relaxing)
 .debug_str     0x0001e359      0x10b /home/leon/git/swp-report/iMX6_Platform_SDK/output/mx6sdl/lib/libsdk.a(imx_i2c_slave.o)
                                0x3e9 (size before relaxing)
 .debug_str     0x0001e464      0x451 /home/leon/git/swp-report/iMX6_Platform_SDK/output/mx6sdl/lib/libsdk.a(ips_disp_panel.o)
                                0x66a (size before relaxing)
 .debug_str     0x0001e8b5      0x295 /home/leon/git/swp-report/iMX6_Platform_SDK/output/mx6sdl/lib/libsdk.a(ipu_common.o)
                                0xa48 (size before relaxing)
 .debug_str     0x0001eb4a      0x238 /home/leon/git/swp-report/iMX6_Platform_SDK/output/mx6sdl/lib/libsdk.a(ipu_csi.o)
                                0x430 (size before relaxing)
 .debug_str     0x0001ed82      0x22e /home/leon/git/swp-report/iMX6_Platform_SDK/output/mx6sdl/lib/libsdk.a(ipu_dc.o)
                                0x442 (size before relaxing)
 .debug_str     0x0001efb0      0x29f /home/leon/git/swp-report/iMX6_Platform_SDK/output/mx6sdl/lib/libsdk.a(ipu_di.o)
                                0x4f1 (size before relaxing)
 .debug_str     0x0001f24f       0x7b /home/leon/git/swp-report/iMX6_Platform_SDK/output/mx6sdl/lib/libsdk.a(ipu_dmfc.o)
                                0x399 (size before relaxing)
 .debug_str     0x0001f2ca       0x9e /home/leon/git/swp-report/iMX6_Platform_SDK/output/mx6sdl/lib/libsdk.a(ipu_dp.o)
                                0x1e2 (size before relaxing)
 .debug_str     0x0001f368      0x2b2 /home/leon/git/swp-report/iMX6_Platform_SDK/output/mx6sdl/lib/libsdk.a(ipu_ic.o)
                                0x581 (size before relaxing)
 .debug_str     0x0001f61a      0x24a /home/leon/git/swp-report/iMX6_Platform_SDK/output/mx6sdl/lib/libsdk.a(ipu_idmac.o)
                                0x88f (size before relaxing)
 .debug_str     0x0001f864      0x293 /home/leon/git/swp-report/iMX6_Platform_SDK/output/mx6sdl/lib/libsdk.a(ipu_vdi.o)
                                0x942 (size before relaxing)
 .debug_str     0x0001faf7      0x1a4 /home/leon/git/swp-report/iMX6_Platform_SDK/output/mx6sdl/lib/libsdk.a(ldb.o)
                                0x415 (size before relaxing)
 .debug_str     0x0001fc9b      0x5b4 /home/leon/git/swp-report/iMX6_Platform_SDK/output/mx6sdl/lib/libsdk.a(mipi_csi2_common.o)
                                0xb8d (size before relaxing)
 .debug_str     0x0002024f     0x1455 /home/leon/git/swp-report/iMX6_Platform_SDK/output/mx6sdl/lib/libsdk.a(mipi_dsi_common.o)
                               0x15f7 (size before relaxing)
 .debug_str     0x000216a4       0xc6 /home/leon/git/swp-report/iMX6_Platform_SDK/output/mx6sdl/lib/libsdk.a(ov5640_mipi_fm.o)
                                0x21a (size before relaxing)
 .debug_str     0x0002176a      0x2df /home/leon/git/swp-report/iMX6_Platform_SDK/output/mx6sdl/lib/libsdk.a(ocotp.o)
                                0x3d6 (size before relaxing)
 .debug_str     0x00021a49      0x8cd /home/leon/git/swp-report/iMX6_Platform_SDK/output/mx6sdl/lib/libsdk.a(pcie.o)
                                0xaa2 (size before relaxing)
 .debug_str     0x00022316      0x171 /home/leon/git/swp-report/iMX6_Platform_SDK/output/mx6sdl/lib/libsdk.a(pcie_phy.o)
                                0x279 (size before relaxing)
 .debug_str     0x00022487      0x29c /home/leon/git/swp-report/iMX6_Platform_SDK/output/mx6sdl/lib/libsdk.a(pcie_prot.o)
                                0x4a3 (size before relaxing)
 .debug_str     0x00022723     0x1c6b /home/leon/git/swp-report/iMX6_Platform_SDK/output/mx6sdl/lib/libsdk.a(pmu_driver.o)
                               0x2b63 (size before relaxing)
 .debug_str     0x0002438e      0x278 /home/leon/git/swp-report/iMX6_Platform_SDK/output/mx6sdl/lib/libsdk.a(pwm.o)
                                0xfb4 (size before relaxing)
 .debug_str     0x00024606      0x211 /home/leon/git/swp-report/iMX6_Platform_SDK/output/mx6sdl/lib/libsdk.a(rtc.o)
                                0xe35 (size before relaxing)
 .debug_str     0x00024817      0x14f /home/leon/git/swp-report/iMX6_Platform_SDK/output/mx6sdl/lib/libsdk.a(srtc.o)
                                0xd86 (size before relaxing)
 .debug_str     0x00024966      0x6f9 /home/leon/git/swp-report/iMX6_Platform_SDK/output/mx6sdl/lib/libsdk.a(sdma.o)
                               0x15e6 (size before relaxing)
 .debug_str     0x0002505f       0x5e /home/leon/git/swp-report/iMX6_Platform_SDK/output/mx6sdl/lib/libsdk.a(sdma_script_info.o)
                                0x2dc (size before relaxing)
 .debug_str     0x000250bd      0x3fa /home/leon/git/swp-report/iMX6_Platform_SDK/output/mx6sdl/lib/libsdk.a(snvs.o)
                                0x50b (size before relaxing)
 .debug_str     0x000254b7      0x2e1 /home/leon/git/swp-report/iMX6_Platform_SDK/output/mx6sdl/lib/libsdk.a(ecspi.o)
                                0x4a7 (size before relaxing)
 .debug_str     0x00025798      0x2e3 /home/leon/git/swp-report/iMX6_Platform_SDK/output/mx6sdl/lib/libsdk.a(tempmon.o)
                                0xe8c (size before relaxing)
 .debug_str     0x00025a7b      0x34d /home/leon/git/swp-report/iMX6_Platform_SDK/output/mx6sdl/lib/libsdk.a(gpt.o)
                               0x111f (size before relaxing)
 .debug_str     0x00025dc8       0xca /home/leon/git/swp-report/iMX6_Platform_SDK/output/mx6sdl/lib/libsdk.a(usb_common.o)
                                0x79d (size before relaxing)
 .debug_str     0x00025e92      0x4b3 /home/leon/git/swp-report/iMX6_Platform_SDK/output/mx6sdl/lib/libsdk.a(usbd_drv.o)
                                0xef2 (size before relaxing)
 .debug_str     0x00026345      0x2ef /home/leon/git/swp-report/iMX6_Platform_SDK/output/mx6sdl/lib/libsdk.a(usbh_drv.o)
                                0xaab (size before relaxing)
 .debug_str     0x00026634      0x58c /home/leon/git/swp-report/iMX6_Platform_SDK/output/mx6sdl/lib/libsdk.a(usdhc.o)
                               0x1201 (size before relaxing)
 .debug_str     0x00026bc0      0xb3c /home/leon/git/swp-report/iMX6_Platform_SDK/output/mx6sdl/lib/libsdk.a(usdhc_host.o)
                                0xfad (size before relaxing)
 .debug_str     0x000276fc      0x224 /home/leon/git/swp-report/iMX6_Platform_SDK/output/mx6sdl/lib/libsdk.a(usdhc_mmc.o)
                                0x72e (size before relaxing)
 .debug_str     0x00027920       0xae /home/leon/git/swp-report/iMX6_Platform_SDK/output/mx6sdl/lib/libsdk.a(usdhc_sd.o)
                                0x58d (size before relaxing)
 .debug_str     0x000279ce      0x19b /home/leon/git/swp-report/iMX6_Platform_SDK/output/mx6sdl/lib/libsdk.a(adv7180.o)
                                0x45a (size before relaxing)
 .debug_str     0x00027b69       0xbd /home/leon/git/swp-report/iMX6_Platform_SDK/output/mx6sdl/lib/libsdk.a(hdmi_common.o)
                                0x39d (size before relaxing)
 .debug_str     0x00027c26      0x1b6 /home/leon/git/swp-report/iMX6_Platform_SDK/output/mx6sdl/lib/libsdk.a(mx6x_usb.o)
                                0x3df (size before relaxing)
 .debug_str     0x00027ddc      0x34f /home/leon/git/swp-report/iMX6_Platform_SDK/output/mx6sdl/lib/libboard_sabre_ai_rev_b.a(board_camera.o)
                               0x1166 (size before relaxing)
 .debug_str     0x0002812b       0x69 /home/leon/git/swp-report/iMX6_Platform_SDK/output/mx6sdl/lib/libboard_sabre_ai_rev_b.a(board_can.o)
                                0x1a6 (size before relaxing)
 .debug_str     0x00028194       0xc1 /home/leon/git/swp-report/iMX6_Platform_SDK/output/mx6sdl/lib/libboard_sabre_ai_rev_b.a(board_display.o)
                                0x51a (size before relaxing)
 .debug_str     0x00028255      0x33b /home/leon/git/swp-report/iMX6_Platform_SDK/output/mx6sdl/lib/libboard_sabre_ai_rev_b.a(board_hdmi.o)
                                0x8bf (size before relaxing)
 .debug_str     0x00028590      0x13f /home/leon/git/swp-report/iMX6_Platform_SDK/output/mx6sdl/lib/libboard_sabre_ai_rev_b.a(board_i2c.o)
                                0x29f (size before relaxing)
 .debug_str     0x000286cf      0x108 /home/leon/git/swp-report/iMX6_Platform_SDK/output/mx6sdl/lib/libboard_sabre_ai_rev_b.a(board_mipi.o)
                                0x49f (size before relaxing)
 .debug_str     0x000287d7      0x15e /home/leon/git/swp-report/iMX6_Platform_SDK/output/mx6sdl/lib/libboard_sabre_ai_rev_b.a(board_pcie.o)
                                0x3aa (size before relaxing)
 .debug_str     0x00028935       0x70 /home/leon/git/swp-report/iMX6_Platform_SDK/output/mx6sdl/lib/libboard_sabre_ai_rev_b.a(board_usb.o)
                                0x1da (size before relaxing)
 .debug_str     0x000289a5       0x83 /home/leon/git/swp-report/iMX6_Platform_SDK/output/mx6sdl/lib/libboard_sabre_ai_rev_b.a(board_usdhc.o)
                                0x292 (size before relaxing)
 .debug_str     0x00028a28       0x76 /home/leon/git/swp-report/iMX6_Platform_SDK/output/mx6sdl/lib/libboard_sabre_ai_rev_b.a(ecspi_iomux_config.o)
                                0x17a (size before relaxing)
 .debug_str     0x00028a9e       0x7a /home/leon/git/swp-report/iMX6_Platform_SDK/output/mx6sdl/lib/libboard_sabre_ai_rev_b.a(flexcan_iomux_config.o)
                                0x17e (size before relaxing)
 .debug_str     0x00028b18       0x72 /home/leon/git/swp-report/iMX6_Platform_SDK/output/mx6sdl/lib/libboard_sabre_ai_rev_b.a(i2c_iomux_config.o)
                                0x176 (size before relaxing)
 .debug_str     0x00028b8a       0x72 /home/leon/git/swp-report/iMX6_Platform_SDK/output/mx6sdl/lib/libboard_sabre_ai_rev_b.a(pwm_iomux_config.o)
                                0x176 (size before relaxing)
 .debug_str     0x00028bfc       0x76 /home/leon/git/swp-report/iMX6_Platform_SDK/output/mx6sdl/lib/libboard_sabre_ai_rev_b.a(usdhc_iomux_config.o)
                                0x17a (size before relaxing)

.debug_loc      0x00000000     0x99a8
 .debug_loc     0x00000000       0x2c /home/leon/git/swp-report/iMX6_Platform_SDK/output/mx6sdl/sdk_unit_test/sabre_ai_rev_b/obj/apps/common/platform_init.o
 .debug_loc     0x0000002c       0x58 /home/leon/git/swp-report/iMX6_Platform_SDK/output/mx6sdl/sdk_unit_test/sabre_ai_rev_b/obj/apps/common/print_clock_info.o
 .debug_loc     0x00000084       0x2c /home/leon/git/swp-report/iMX6_Platform_SDK/output/mx6sdl/sdk_unit_test/sabre_ai_rev_b/obj/apps/common/print_version.o
 .debug_loc     0x000000b0       0x58 /home/leon/git/swp-report/iMX6_Platform_SDK/output/mx6sdl/sdk_unit_test/sabre_ai_rev_b/obj/apps/sdk_unit_test/src/all_test.o
 .debug_loc     0x00000108       0x2c /home/leon/git/swp-report/iMX6_Platform_SDK/output/mx6sdl/sdk_unit_test/sabre_ai_rev_b/obj/apps/sdk_unit_test/src/unit_test_main.o
 .debug_loc     0x00000134      0x18c /home/leon/git/swp-report/iMX6_Platform_SDK/output/mx6sdl/lib/libsdk.a(ccm_pll.o)
 .debug_loc     0x000002c0      0x2ec /home/leon/git/swp-report/iMX6_Platform_SDK/output/mx6sdl/lib/libsdk.a(gic.o)
 .debug_loc     0x000005ac       0xdc /home/leon/git/swp-report/iMX6_Platform_SDK/output/mx6sdl/lib/libsdk.a(mmu.o)
 .debug_loc     0x00000688      0x1e4 /home/leon/git/swp-report/iMX6_Platform_SDK/output/mx6sdl/lib/libsdk.a(menu.o)
 .debug_loc     0x0000086c      0x108 /home/leon/git/swp-report/iMX6_Platform_SDK/output/mx6sdl/lib/libsdk.a(system_util.o)
 .debug_loc     0x00000974       0x58 /home/leon/git/swp-report/iMX6_Platform_SDK/output/mx6sdl/lib/libsdk.a(text_color.o)
 .debug_loc     0x000009cc      0x134 /home/leon/git/swp-report/iMX6_Platform_SDK/output/mx6sdl/lib/libsdk.a(board_id.o)
 .debug_loc     0x00000b00       0xb0 /home/leon/git/swp-report/iMX6_Platform_SDK/output/mx6sdl/lib/libsdk.a(timer.o)
 .debug_loc     0x00000bb0      0x134 /home/leon/git/swp-report/iMX6_Platform_SDK/output/mx6sdl/lib/libsdk.a(imx_uart.o)
 .debug_loc     0x00000ce4       0xdc /home/leon/git/swp-report/iMX6_Platform_SDK/output/mx6sdl/lib/libsdk.a(interrupt.o)
 .debug_loc     0x00000dc0      0x160 /home/leon/git/swp-report/iMX6_Platform_SDK/output/mx6sdl/lib/libsdk.a(epit.o)
 .debug_loc     0x00000f20       0x2c /home/leon/git/swp-report/iMX6_Platform_SDK/output/mx6sdl/lib/libsdk.a(abort_handler.o)
 .debug_loc     0x00000f4c       0x58 /home/leon/git/swp-report/iMX6_Platform_SDK/output/mx6sdl/lib/libboard_sabre_ai_rev_b.a(board_io_expanders.o)
 .debug_loc     0x00000fa4       0x2c /home/leon/git/swp-report/iMX6_Platform_SDK/output/mx6sdl/lib/libboard_sabre_ai_rev_b.a(i2c3_iomux_config.o)
 .debug_loc     0x00000fd0       0x2c /home/leon/git/swp-report/iMX6_Platform_SDK/output/mx6sdl/lib/libboard_sabre_ai_rev_b.a(uart_iomux_config.o)
 .debug_loc     0x00000ffc      0x65c /home/leon/git/swp-report/iMX6_Platform_SDK/output/mx6sdl/lib/libboard_sabre_ai_rev_b.a(iomux_config.o)
 .debug_loc     0x00001658       0x2c /home/leon/git/swp-report/iMX6_Platform_SDK/output/mx6sdl/lib/libboard_sabre_ai_rev_b.a(ipu1_iomux_config.o)
 .debug_loc     0x00001684       0x2c /home/leon/git/swp-report/iMX6_Platform_SDK/output/mx6sdl/lib/libboard_sabre_ai_rev_b.a(mlb_iomux_config.o)
 .debug_loc     0x000016b0       0x2c /home/leon/git/swp-report/iMX6_Platform_SDK/output/mx6sdl/lib/libboard_sabre_ai_rev_b.a(mmdc_iomux_config.o)
 .debug_loc     0x000016dc       0x2c /home/leon/git/swp-report/iMX6_Platform_SDK/output/mx6sdl/lib/libboard_sabre_ai_rev_b.a(pwm3_iomux_config.o)
 .debug_loc     0x00001708       0x2c /home/leon/git/swp-report/iMX6_Platform_SDK/output/mx6sdl/lib/libboard_sabre_ai_rev_b.a(pwm4_iomux_config.o)
 .debug_loc     0x00001734       0x2c /home/leon/git/swp-report/iMX6_Platform_SDK/output/mx6sdl/lib/libboard_sabre_ai_rev_b.a(sjc_iomux_config.o)
 .debug_loc     0x00001760       0x2c /home/leon/git/swp-report/iMX6_Platform_SDK/output/mx6sdl/lib/libboard_sabre_ai_rev_b.a(spdif_iomux_config.o)
 .debug_loc     0x0000178c       0x2c /home/leon/git/swp-report/iMX6_Platform_SDK/output/mx6sdl/lib/libboard_sabre_ai_rev_b.a(uart2_iomux_config.o)
 .debug_loc     0x000017b8       0x2c /home/leon/git/swp-report/iMX6_Platform_SDK/output/mx6sdl/lib/libboard_sabre_ai_rev_b.a(uart3_iomux_config.o)
 .debug_loc     0x000017e4       0x2c /home/leon/git/swp-report/iMX6_Platform_SDK/output/mx6sdl/lib/libboard_sabre_ai_rev_b.a(uart4_iomux_config.o)
 .debug_loc     0x00001810       0x2c /home/leon/git/swp-report/iMX6_Platform_SDK/output/mx6sdl/lib/libboard_sabre_ai_rev_b.a(usdhc1_iomux_config.o)
 .debug_loc     0x0000183c       0x2c /home/leon/git/swp-report/iMX6_Platform_SDK/output/mx6sdl/lib/libboard_sabre_ai_rev_b.a(usdhc3_iomux_config.o)
 .debug_loc     0x00001868       0x2c /home/leon/git/swp-report/iMX6_Platform_SDK/output/mx6sdl/lib/libboard_sabre_ai_rev_b.a(wdog1_iomux_config.o)
 .debug_loc     0x00001894       0x2c /home/leon/git/swp-report/iMX6_Platform_SDK/output/mx6sdl/lib/libboard_sabre_ai_rev_b.a(audmux_iomux_config.o)
 .debug_loc     0x000018c0       0x2c /home/leon/git/swp-report/iMX6_Platform_SDK/output/mx6sdl/lib/libboard_sabre_ai_rev_b.a(ccm_iomux_config.o)
 .debug_loc     0x000018ec       0x2c /home/leon/git/swp-report/iMX6_Platform_SDK/output/mx6sdl/lib/libboard_sabre_ai_rev_b.a(ecspi1_iomux_config.o)
 .debug_loc     0x00001918       0x2c /home/leon/git/swp-report/iMX6_Platform_SDK/output/mx6sdl/lib/libboard_sabre_ai_rev_b.a(eim_iomux_config.o)
 .debug_loc     0x00001944       0x2c /home/leon/git/swp-report/iMX6_Platform_SDK/output/mx6sdl/lib/libboard_sabre_ai_rev_b.a(enet_iomux_config.o)
 .debug_loc     0x00001970       0x2c /home/leon/git/swp-report/iMX6_Platform_SDK/output/mx6sdl/lib/libboard_sabre_ai_rev_b.a(esai_iomux_config.o)
 .debug_loc     0x0000199c       0x2c /home/leon/git/swp-report/iMX6_Platform_SDK/output/mx6sdl/lib/libboard_sabre_ai_rev_b.a(flexcan1_iomux_config.o)
 .debug_loc     0x000019c8       0x2c /home/leon/git/swp-report/iMX6_Platform_SDK/output/mx6sdl/lib/libboard_sabre_ai_rev_b.a(flexcan2_iomux_config.o)
 .debug_loc     0x000019f4       0x2c /home/leon/git/swp-report/iMX6_Platform_SDK/output/mx6sdl/lib/libboard_sabre_ai_rev_b.a(gpio1_iomux_config.o)
 .debug_loc     0x00001a20       0x2c /home/leon/git/swp-report/iMX6_Platform_SDK/output/mx6sdl/lib/libboard_sabre_ai_rev_b.a(gpio2_iomux_config.o)
 .debug_loc     0x00001a4c       0x2c /home/leon/git/swp-report/iMX6_Platform_SDK/output/mx6sdl/lib/libboard_sabre_ai_rev_b.a(gpio4_iomux_config.o)
 .debug_loc     0x00001a78       0x2c /home/leon/git/swp-report/iMX6_Platform_SDK/output/mx6sdl/lib/libboard_sabre_ai_rev_b.a(gpio5_iomux_config.o)
 .debug_loc     0x00001aa4       0x2c /home/leon/git/swp-report/iMX6_Platform_SDK/output/mx6sdl/lib/libboard_sabre_ai_rev_b.a(gpio6_iomux_config.o)
 .debug_loc     0x00001ad0       0x2c /home/leon/git/swp-report/iMX6_Platform_SDK/output/mx6sdl/lib/libboard_sabre_ai_rev_b.a(gpmi_iomux_config.o)
 .debug_loc     0x00001afc       0x2c /home/leon/git/swp-report/iMX6_Platform_SDK/output/mx6sdl/lib/libboard_sabre_ai_rev_b.a(i2c2_iomux_config.o)
 .debug_loc     0x00001b28       0x58 /home/leon/git/swp-report/iMX6_Platform_SDK/output/mx6sdl/sdk_unit_test/sabre_ai_rev_b/libsdk_unit_test.a(gic_test.o)
 .debug_loc     0x00001b80       0x84 /home/leon/git/swp-report/iMX6_Platform_SDK/output/mx6sdl/sdk_unit_test/sabre_ai_rev_b/libsdk_unit_test.a(cpu_wp_test.o)
 .debug_loc     0x00001c04       0x84 /home/leon/git/swp-report/iMX6_Platform_SDK/output/mx6sdl/sdk_unit_test/sabre_ai_rev_b/libsdk_unit_test.a(multicore_test.o)
 .debug_loc     0x00001c88       0x2c /home/leon/git/swp-report/iMX6_Platform_SDK/output/mx6sdl/sdk_unit_test/sabre_ai_rev_b/libsdk_unit_test.a(ocotp_test.o)
 .debug_loc     0x00001cb4       0x2c /home/leon/git/swp-report/iMX6_Platform_SDK/output/mx6sdl/sdk_unit_test/sabre_ai_rev_b/libsdk_unit_test.a(i2c_test.o)
 .debug_loc     0x00001ce0       0x84 /home/leon/git/swp-report/iMX6_Platform_SDK/output/mx6sdl/sdk_unit_test/sabre_ai_rev_b/libsdk_unit_test.a(imx6_i2c_device.o)
 .debug_loc     0x00001d64       0xdc /home/leon/git/swp-report/iMX6_Platform_SDK/output/mx6sdl/sdk_unit_test/sabre_ai_rev_b/libsdk_unit_test.a(snvs_rtc_test.o)
 .debug_loc     0x00001e40       0x84 /home/leon/git/swp-report/iMX6_Platform_SDK/output/mx6sdl/sdk_unit_test/sabre_ai_rev_b/libsdk_unit_test.a(snvs_srtc_test.o)
 .debug_loc     0x00001ec4       0x84 /home/leon/git/swp-report/iMX6_Platform_SDK/output/mx6sdl/sdk_unit_test/sabre_ai_rev_b/libsdk_unit_test.a(tempmon_test.o)
 .debug_loc     0x00001f48       0x2c /home/leon/git/swp-report/iMX6_Platform_SDK/output/mx6sdl/sdk_unit_test/sabre_ai_rev_b/libsdk_unit_test.a(sdma_test.o)
 .debug_loc     0x00001f74       0x84 /home/leon/git/swp-report/iMX6_Platform_SDK/output/mx6sdl/sdk_unit_test/sabre_ai_rev_b/libsdk_unit_test.a(spi_lpb.o)
 .debug_loc     0x00001ff8      0x134 /home/leon/git/swp-report/iMX6_Platform_SDK/output/mx6sdl/sdk_unit_test/sabre_ai_rev_b/libsdk_unit_test.a(uart_loopback.o)
 .debug_loc     0x0000212c       0xb0 /home/leon/git/swp-report/iMX6_Platform_SDK/output/mx6sdl/sdk_unit_test/sabre_ai_rev_b/libsdk_unit_test.a(epit_test.o)
 .debug_loc     0x000021dc       0xb0 /home/leon/git/swp-report/iMX6_Platform_SDK/output/mx6sdl/sdk_unit_test/sabre_ai_rev_b/libsdk_unit_test.a(gpt_test.o)
 .debug_loc     0x0000228c       0x2c /home/leon/git/swp-report/iMX6_Platform_SDK/output/mx6sdl/sdk_unit_test/sabre_ai_rev_b/libsdk_unit_test.a(timer_test.o)
 .debug_loc     0x000022b8       0x58 /home/leon/git/swp-report/iMX6_Platform_SDK/output/mx6sdl/sdk_unit_test/sabre_ai_rev_b/libsdk_unit_test.a(uart_test.o)
 .debug_loc     0x00002310      0x1e4 /home/leon/git/swp-report/iMX6_Platform_SDK/output/mx6sdl/sdk_unit_test/sabre_ai_rev_b/libsdk_unit_test.a(usdhc_test.o)
 .debug_loc     0x000024f4       0x2c /home/leon/git/swp-report/iMX6_Platform_SDK/output/mx6sdl/sdk_unit_test/sabre_ai_rev_b/libsdk_unit_test.a(pwm_test.o)
 .debug_loc     0x00002520       0x58 /home/leon/git/swp-report/iMX6_Platform_SDK/output/mx6sdl/sdk_unit_test/sabre_ai_rev_b/libsdk_unit_test.a(watchdog_test.o)
 .debug_loc     0x00002578       0xdc /home/leon/git/swp-report/iMX6_Platform_SDK/output/mx6sdl/sdk_unit_test/sabre_ai_rev_b/libsdk_unit_test.a(hdmi_test.o)
 .debug_loc     0x00002654      0x134 /home/leon/git/swp-report/iMX6_Platform_SDK/output/mx6sdl/sdk_unit_test/sabre_ai_rev_b/libsdk_unit_test.a(ips_display.o)
 .debug_loc     0x00002788       0x2c /home/leon/git/swp-report/iMX6_Platform_SDK/output/mx6sdl/sdk_unit_test/sabre_ai_rev_b/libsdk_unit_test.a(ips_test.o)
 .debug_loc     0x000027b4       0xdc /home/leon/git/swp-report/iMX6_Platform_SDK/output/mx6sdl/sdk_unit_test/sabre_ai_rev_b/libsdk_unit_test.a(ipu_image.o)
 .debug_loc     0x00002890       0x2c /home/leon/git/swp-report/iMX6_Platform_SDK/output/mx6sdl/sdk_unit_test/sabre_ai_rev_b/libsdk_unit_test.a(mipi_test.o)
 .debug_loc     0x000028bc       0x58 /home/leon/git/swp-report/iMX6_Platform_SDK/output/mx6sdl/sdk_unit_test/sabre_ai_rev_b/libsdk_unit_test.a(can_test.o)
 .debug_loc     0x00002914       0x2c /home/leon/git/swp-report/iMX6_Platform_SDK/output/mx6sdl/sdk_unit_test/sabre_ai_rev_b/libsdk_unit_test.a(usb_test.o)
 .debug_loc     0x00002940       0x84 /home/leon/git/swp-report/iMX6_Platform_SDK/output/mx6sdl/sdk_unit_test/sabre_ai_rev_b/libsdk_unit_test.a(eim_test.o)
 .debug_loc     0x000029c4       0x2c /home/leon/git/swp-report/iMX6_Platform_SDK/output/mx6sdl/sdk_unit_test/sabre_ai_rev_b/libsdk_unit_test.a(pcie_test_rc.o)
 .debug_loc     0x000029f0       0x58 /home/leon/git/swp-report/iMX6_Platform_SDK/output/mx6sdl/sdk_unit_test/sabre_ai_rev_b/libsdk_unit_test.a(spi_test.o)
 .debug_loc     0x00002a48       0x2c /home/leon/git/swp-report/iMX6_Platform_SDK/output/mx6sdl/sdk_unit_test/sabre_ai_rev_b/libsdk_unit_test.a(camera_test.o)
 .debug_loc     0x00002a74       0x2c /home/leon/git/swp-report/iMX6_Platform_SDK/output/mx6sdl/sdk_unit_test/sabre_ai_rev_b/libsdk_unit_test.a(csi_test_mode.o)
 .debug_loc     0x00002aa0       0x2c /home/leon/git/swp-report/iMX6_Platform_SDK/output/mx6sdl/sdk_unit_test/sabre_ai_rev_b/libsdk_unit_test.a(accelerometer_test.o)
 .debug_loc     0x00002acc       0x84 /home/leon/git/swp-report/iMX6_Platform_SDK/output/mx6sdl/sdk_unit_test/sabre_ai_rev_b/libsdk_unit_test.a(at24cxx.o)
 .debug_loc     0x00002b50       0x2c /home/leon/git/swp-report/iMX6_Platform_SDK/output/mx6sdl/sdk_unit_test/sabre_ai_rev_b/libsdk_unit_test.a(mem_2_mem.o)
 .debug_loc     0x00002b7c       0x58 /home/leon/git/swp-report/iMX6_Platform_SDK/output/mx6sdl/sdk_unit_test/sabre_ai_rev_b/libsdk_unit_test.a(pwm_output.o)
 .debug_loc     0x00002bd4       0x2c /home/leon/git/swp-report/iMX6_Platform_SDK/output/mx6sdl/sdk_unit_test/sabre_ai_rev_b/libsdk_unit_test.a(init_dma_data.o)
 .debug_loc     0x00002c00       0x2c /home/leon/git/swp-report/iMX6_Platform_SDK/output/mx6sdl/sdk_unit_test/sabre_ai_rev_b/libsdk_unit_test.a(ips_combiner.o)
 .debug_loc     0x00002c2c       0x2c /home/leon/git/swp-report/iMX6_Platform_SDK/output/mx6sdl/sdk_unit_test/sabre_ai_rev_b/libsdk_unit_test.a(ips_csc.o)
 .debug_loc     0x00002c58       0x2c /home/leon/git/swp-report/iMX6_Platform_SDK/output/mx6sdl/sdk_unit_test/sabre_ai_rev_b/libsdk_unit_test.a(ips_resize.o)
 .debug_loc     0x00002c84       0x2c /home/leon/git/swp-report/iMX6_Platform_SDK/output/mx6sdl/sdk_unit_test/sabre_ai_rev_b/libsdk_unit_test.a(ips_rotate.o)
 .debug_loc     0x00002cb0       0x2c /home/leon/git/swp-report/iMX6_Platform_SDK/output/mx6sdl/sdk_unit_test/sabre_ai_rev_b/libsdk_unit_test.a(mipi_csi2_test.o)
 .debug_loc     0x00002cdc       0x2c /home/leon/git/swp-report/iMX6_Platform_SDK/output/mx6sdl/sdk_unit_test/sabre_ai_rev_b/libsdk_unit_test.a(mipi_dsi_test.o)
 .debug_loc     0x00002d08       0x84 /home/leon/git/swp-report/iMX6_Platform_SDK/output/mx6sdl/sdk_unit_test/sabre_ai_rev_b/libsdk_unit_test.a(usb0_device_mouse_test.o)
 .debug_loc     0x00002d8c      0x160 /home/leon/git/swp-report/iMX6_Platform_SDK/output/mx6sdl/sdk_unit_test/sabre_ai_rev_b/libsdk_unit_test.a(usb0_host_test.o)
 .debug_loc     0x00002eec       0x2c /home/leon/git/swp-report/iMX6_Platform_SDK/output/mx6sdl/sdk_unit_test/sabre_ai_rev_b/libsdk_unit_test.a(usb0_host_testmodes_test.o)
 .debug_loc     0x00002f18      0x134 /home/leon/git/swp-report/iMX6_Platform_SDK/output/mx6sdl/sdk_unit_test/sabre_ai_rev_b/libsdk_unit_test.a(cfi_flash_api.o)
 .debug_loc     0x0000304c      0x4fc /home/leon/git/swp-report/iMX6_Platform_SDK/output/mx6sdl/sdk_unit_test/sabre_ai_rev_b/libsdk_unit_test.a(cfi_flash_driver.o)
 .debug_loc     0x00003548      0x160 /home/leon/git/swp-report/iMX6_Platform_SDK/output/mx6sdl/sdk_unit_test/sabre_ai_rev_b/libsdk_unit_test.a(spi_nor_numonyx.o)
 .debug_loc     0x000036a8       0x2c /home/leon/git/swp-report/iMX6_Platform_SDK/output/mx6sdl/sdk_unit_test/sabre_ai_rev_b/libsdk_unit_test.a(adv7180_capture.o)
 .debug_loc     0x000036d4       0xb0 /home/leon/git/swp-report/iMX6_Platform_SDK/output/mx6sdl/lib/libsdk.a(max7310.o)
 .debug_loc     0x00003784       0x58 /home/leon/git/swp-report/iMX6_Platform_SDK/output/mx6sdl/lib/libsdk.a(profile.o)
 .debug_loc     0x000037dc      0x2c0 /home/leon/git/swp-report/iMX6_Platform_SDK/output/mx6sdl/lib/libsdk.a(armv7_cache.o)
 .debug_loc     0x00003a9c      0x370 /home/leon/git/swp-report/iMX6_Platform_SDK/output/mx6sdl/lib/libsdk.a(runtime_support.o)
 .debug_loc     0x00003e0c       0xb0 /home/leon/git/swp-report/iMX6_Platform_SDK/output/mx6sdl/lib/libsdk.a(mma8451.o)
 .debug_loc     0x00003ebc       0x2c /home/leon/git/swp-report/iMX6_Platform_SDK/output/mx6sdl/lib/libsdk.a(cpu_get_cores.o)
 .debug_loc     0x00003ee8       0x84 /home/leon/git/swp-report/iMX6_Platform_SDK/output/mx6sdl/lib/libsdk.a(cpu_multicore.o)
 .debug_loc     0x00003f6c       0x2c /home/leon/git/swp-report/iMX6_Platform_SDK/output/mx6sdl/lib/libsdk.a(cpu_workpoint.o)
 .debug_loc     0x00003f98       0x58 /home/leon/git/swp-report/iMX6_Platform_SDK/output/mx6sdl/lib/libsdk.a(eim.o)
 .debug_loc     0x00003ff0      0x210 /home/leon/git/swp-report/iMX6_Platform_SDK/output/mx6sdl/lib/libsdk.a(can.o)
 .debug_loc     0x00004200      0x1e4 /home/leon/git/swp-report/iMX6_Platform_SDK/output/mx6sdl/lib/libsdk.a(gpio.o)
 .debug_loc     0x000043e4      0x1b8 /home/leon/git/swp-report/iMX6_Platform_SDK/output/mx6sdl/lib/libsdk.a(hdmi_tx.o)
 .debug_loc     0x0000459c      0x39c /home/leon/git/swp-report/iMX6_Platform_SDK/output/mx6sdl/lib/libsdk.a(hdmi_tx_audio.o)
 .debug_loc     0x00004938      0x39c /home/leon/git/swp-report/iMX6_Platform_SDK/output/mx6sdl/lib/libsdk.a(hdmi_tx_phy.o)
 .debug_loc     0x00004cd4      0x268 /home/leon/git/swp-report/iMX6_Platform_SDK/output/mx6sdl/lib/libsdk.a(imx_i2c.o)
 .debug_loc     0x00004f3c       0x84 /home/leon/git/swp-report/iMX6_Platform_SDK/output/mx6sdl/lib/libsdk.a(imx_i2c_slave.o)
 .debug_loc     0x00004fc0      0x2ec /home/leon/git/swp-report/iMX6_Platform_SDK/output/mx6sdl/lib/libsdk.a(ips_disp_panel.o)
 .debug_loc     0x000052ac      0x268 /home/leon/git/swp-report/iMX6_Platform_SDK/output/mx6sdl/lib/libsdk.a(ipu_common.o)
 .debug_loc     0x00005514      0x108 /home/leon/git/swp-report/iMX6_Platform_SDK/output/mx6sdl/lib/libsdk.a(ipu_csi.o)
 .debug_loc     0x0000561c      0x108 /home/leon/git/swp-report/iMX6_Platform_SDK/output/mx6sdl/lib/libsdk.a(ipu_dc.o)
 .debug_loc     0x00005724      0x134 /home/leon/git/swp-report/iMX6_Platform_SDK/output/mx6sdl/lib/libsdk.a(ipu_di.o)
 .debug_loc     0x00005858       0x58 /home/leon/git/swp-report/iMX6_Platform_SDK/output/mx6sdl/lib/libsdk.a(ipu_dmfc.o)
 .debug_loc     0x000058b0       0x84 /home/leon/git/swp-report/iMX6_Platform_SDK/output/mx6sdl/lib/libsdk.a(ipu_dp.o)
 .debug_loc     0x00005934      0x18c /home/leon/git/swp-report/iMX6_Platform_SDK/output/mx6sdl/lib/libsdk.a(ipu_ic.o)
 .debug_loc     0x00005ac0      0x2ec /home/leon/git/swp-report/iMX6_Platform_SDK/output/mx6sdl/lib/libsdk.a(ipu_idmac.o)
 .debug_loc     0x00005dac      0x160 /home/leon/git/swp-report/iMX6_Platform_SDK/output/mx6sdl/lib/libsdk.a(ipu_vdi.o)
 .debug_loc     0x00005f0c       0x84 /home/leon/git/swp-report/iMX6_Platform_SDK/output/mx6sdl/lib/libsdk.a(ldb.o)
 .debug_loc     0x00005f90      0x23c /home/leon/git/swp-report/iMX6_Platform_SDK/output/mx6sdl/lib/libsdk.a(mipi_csi2_common.o)
 .debug_loc     0x000061cc      0x108 /home/leon/git/swp-report/iMX6_Platform_SDK/output/mx6sdl/lib/libsdk.a(mipi_dsi_common.o)
 .debug_loc     0x000062d4      0x134 /home/leon/git/swp-report/iMX6_Platform_SDK/output/mx6sdl/lib/libsdk.a(ocotp.o)
 .debug_loc     0x00006408       0xdc /home/leon/git/swp-report/iMX6_Platform_SDK/output/mx6sdl/lib/libsdk.a(pcie.o)
 .debug_loc     0x000064e4       0xb0 /home/leon/git/swp-report/iMX6_Platform_SDK/output/mx6sdl/lib/libsdk.a(pcie_phy.o)
 .debug_loc     0x00006594       0xdc /home/leon/git/swp-report/iMX6_Platform_SDK/output/mx6sdl/lib/libsdk.a(pcie_prot.o)
 .debug_loc     0x00006670      0xf20 /home/leon/git/swp-report/iMX6_Platform_SDK/output/mx6sdl/lib/libsdk.a(pmu_driver.o)
 .debug_loc     0x00007590      0x160 /home/leon/git/swp-report/iMX6_Platform_SDK/output/mx6sdl/lib/libsdk.a(pwm.o)
 .debug_loc     0x000076f0      0x134 /home/leon/git/swp-report/iMX6_Platform_SDK/output/mx6sdl/lib/libsdk.a(rtc.o)
 .debug_loc     0x00007824       0xdc /home/leon/git/swp-report/iMX6_Platform_SDK/output/mx6sdl/lib/libsdk.a(srtc.o)
 .debug_loc     0x00007900      0x2c0 /home/leon/git/swp-report/iMX6_Platform_SDK/output/mx6sdl/lib/libsdk.a(sdma.o)
 .debug_loc     0x00007bc0      0x1e4 /home/leon/git/swp-report/iMX6_Platform_SDK/output/mx6sdl/lib/libsdk.a(snvs.o)
 .debug_loc     0x00007da4      0x134 /home/leon/git/swp-report/iMX6_Platform_SDK/output/mx6sdl/lib/libsdk.a(ecspi.o)
 .debug_loc     0x00007ed8      0x134 /home/leon/git/swp-report/iMX6_Platform_SDK/output/mx6sdl/lib/libsdk.a(tempmon.o)
 .debug_loc     0x0000800c      0x1b8 /home/leon/git/swp-report/iMX6_Platform_SDK/output/mx6sdl/lib/libsdk.a(gpt.o)
 .debug_loc     0x000081c4       0x84 /home/leon/git/swp-report/iMX6_Platform_SDK/output/mx6sdl/lib/libsdk.a(usb_common.o)
 .debug_loc     0x00008248      0x18c /home/leon/git/swp-report/iMX6_Platform_SDK/output/mx6sdl/lib/libsdk.a(usbd_drv.o)
 .debug_loc     0x000083d4      0x160 /home/leon/git/swp-report/iMX6_Platform_SDK/output/mx6sdl/lib/libsdk.a(usbh_drv.o)
 .debug_loc     0x00008534      0x318 /home/leon/git/swp-report/iMX6_Platform_SDK/output/mx6sdl/lib/libsdk.a(usdhc.o)
 .debug_loc     0x0000884c      0x44c /home/leon/git/swp-report/iMX6_Platform_SDK/output/mx6sdl/lib/libsdk.a(usdhc_host.o)
 .debug_loc     0x00008c98      0x23c /home/leon/git/swp-report/iMX6_Platform_SDK/output/mx6sdl/lib/libsdk.a(usdhc_mmc.o)
 .debug_loc     0x00008ed4       0xb0 /home/leon/git/swp-report/iMX6_Platform_SDK/output/mx6sdl/lib/libsdk.a(usdhc_sd.o)
 .debug_loc     0x00008f84      0x1e4 /home/leon/git/swp-report/iMX6_Platform_SDK/output/mx6sdl/lib/libsdk.a(adv7180.o)
 .debug_loc     0x00009168       0xdc /home/leon/git/swp-report/iMX6_Platform_SDK/output/mx6sdl/lib/libsdk.a(hdmi_common.o)
 .debug_loc     0x00009244       0x58 /home/leon/git/swp-report/iMX6_Platform_SDK/output/mx6sdl/lib/libsdk.a(mx6x_usb.o)
 .debug_loc     0x0000929c      0x108 /home/leon/git/swp-report/iMX6_Platform_SDK/output/mx6sdl/lib/libboard_sabre_ai_rev_b.a(board_camera.o)
 .debug_loc     0x000093a4       0x2c /home/leon/git/swp-report/iMX6_Platform_SDK/output/mx6sdl/lib/libboard_sabre_ai_rev_b.a(board_can.o)
 .debug_loc     0x000093d0      0x134 /home/leon/git/swp-report/iMX6_Platform_SDK/output/mx6sdl/lib/libboard_sabre_ai_rev_b.a(board_display.o)
 .debug_loc     0x00009504      0x108 /home/leon/git/swp-report/iMX6_Platform_SDK/output/mx6sdl/lib/libboard_sabre_ai_rev_b.a(board_hdmi.o)
 .debug_loc     0x0000960c       0xdc /home/leon/git/swp-report/iMX6_Platform_SDK/output/mx6sdl/lib/libboard_sabre_ai_rev_b.a(board_mipi.o)
 .debug_loc     0x000096e8       0xdc /home/leon/git/swp-report/iMX6_Platform_SDK/output/mx6sdl/lib/libboard_sabre_ai_rev_b.a(board_pcie.o)
 .debug_loc     0x000097c4       0x84 /home/leon/git/swp-report/iMX6_Platform_SDK/output/mx6sdl/lib/libboard_sabre_ai_rev_b.a(board_usb.o)
 .debug_loc     0x00009848       0x84 /home/leon/git/swp-report/iMX6_Platform_SDK/output/mx6sdl/lib/libboard_sabre_ai_rev_b.a(board_usdhc.o)
 .debug_loc     0x000098cc       0x2c /home/leon/git/swp-report/iMX6_Platform_SDK/output/mx6sdl/lib/libboard_sabre_ai_rev_b.a(ecspi_iomux_config.o)
 .debug_loc     0x000098f8       0x2c /home/leon/git/swp-report/iMX6_Platform_SDK/output/mx6sdl/lib/libboard_sabre_ai_rev_b.a(flexcan_iomux_config.o)
 .debug_loc     0x00009924       0x2c /home/leon/git/swp-report/iMX6_Platform_SDK/output/mx6sdl/lib/libboard_sabre_ai_rev_b.a(i2c_iomux_config.o)
 .debug_loc     0x00009950       0x2c /home/leon/git/swp-report/iMX6_Platform_SDK/output/mx6sdl/lib/libboard_sabre_ai_rev_b.a(pwm_iomux_config.o)
 .debug_loc     0x0000997c       0x2c /home/leon/git/swp-report/iMX6_Platform_SDK/output/mx6sdl/lib/libboard_sabre_ai_rev_b.a(usdhc_iomux_config.o)

.debug_frame    0x00000000     0x9ef0
 .debug_frame   0x00000000       0x30 /home/leon/git/swp-report/iMX6_Platform_SDK/output/mx6sdl/sdk_unit_test/sabre_ai_rev_b/obj/apps/common/platform_init.o
 .debug_frame   0x00000030       0x50 /home/leon/git/swp-report/iMX6_Platform_SDK/output/mx6sdl/sdk_unit_test/sabre_ai_rev_b/obj/apps/common/print_clock_info.o
 .debug_frame   0x00000080       0x30 /home/leon/git/swp-report/iMX6_Platform_SDK/output/mx6sdl/sdk_unit_test/sabre_ai_rev_b/obj/apps/common/print_version.o
 .debug_frame   0x000000b0       0x50 /home/leon/git/swp-report/iMX6_Platform_SDK/output/mx6sdl/sdk_unit_test/sabre_ai_rev_b/obj/apps/sdk_unit_test/src/all_test.o
 .debug_frame   0x00000100       0x30 /home/leon/git/swp-report/iMX6_Platform_SDK/output/mx6sdl/sdk_unit_test/sabre_ai_rev_b/obj/apps/sdk_unit_test/src/unit_test_main.o
 .debug_frame   0x00000130      0x130 /home/leon/git/swp-report/iMX6_Platform_SDK/output/mx6sdl/lib/libsdk.a(ccm_pll.o)
 .debug_frame   0x00000260      0x230 /home/leon/git/swp-report/iMX6_Platform_SDK/output/mx6sdl/lib/libsdk.a(gic.o)
 .debug_frame   0x00000490       0xb0 /home/leon/git/swp-report/iMX6_Platform_SDK/output/mx6sdl/lib/libsdk.a(mmu.o)
 .debug_frame   0x00000540      0x170 /home/leon/git/swp-report/iMX6_Platform_SDK/output/mx6sdl/lib/libsdk.a(menu.o)
 .debug_frame   0x000006b0       0xe0 /home/leon/git/swp-report/iMX6_Platform_SDK/output/mx6sdl/lib/libsdk.a(system_util.o)
 .debug_frame   0x00000790       0x54 /home/leon/git/swp-report/iMX6_Platform_SDK/output/mx6sdl/lib/libsdk.a(text_color.o)
 .debug_frame   0x000007e4       0xf0 /home/leon/git/swp-report/iMX6_Platform_SDK/output/mx6sdl/lib/libsdk.a(board_id.o)
 .debug_frame   0x000008d4       0x94 /home/leon/git/swp-report/iMX6_Platform_SDK/output/mx6sdl/lib/libsdk.a(timer.o)
 .debug_frame   0x00000968       0xf0 /home/leon/git/swp-report/iMX6_Platform_SDK/output/mx6sdl/lib/libsdk.a(imx_uart.o)
 .debug_frame   0x00000a58       0xb8 /home/leon/git/swp-report/iMX6_Platform_SDK/output/mx6sdl/lib/libsdk.a(interrupt.o)
 .debug_frame   0x00000b10      0x110 /home/leon/git/swp-report/iMX6_Platform_SDK/output/mx6sdl/lib/libsdk.a(epit.o)
 .debug_frame   0x00000c20       0x38 /home/leon/git/swp-report/iMX6_Platform_SDK/output/mx6sdl/lib/libsdk.a(abort_handler.o)
 .debug_frame   0x00000c58       0x50 /home/leon/git/swp-report/iMX6_Platform_SDK/output/mx6sdl/lib/libboard_sabre_ai_rev_b.a(board_io_expanders.o)
 .debug_frame   0x00000ca8       0x30 /home/leon/git/swp-report/iMX6_Platform_SDK/output/mx6sdl/lib/libboard_sabre_ai_rev_b.a(i2c3_iomux_config.o)
 .debug_frame   0x00000cd8       0x30 /home/leon/git/swp-report/iMX6_Platform_SDK/output/mx6sdl/lib/libboard_sabre_ai_rev_b.a(uart_iomux_config.o)
 .debug_frame   0x00000d08      0x4b0 /home/leon/git/swp-report/iMX6_Platform_SDK/output/mx6sdl/lib/libboard_sabre_ai_rev_b.a(iomux_config.o)
 .debug_frame   0x000011b8       0x30 /home/leon/git/swp-report/iMX6_Platform_SDK/output/mx6sdl/lib/libboard_sabre_ai_rev_b.a(ipu1_iomux_config.o)
 .debug_frame   0x000011e8       0x30 /home/leon/git/swp-report/iMX6_Platform_SDK/output/mx6sdl/lib/libboard_sabre_ai_rev_b.a(mlb_iomux_config.o)
 .debug_frame   0x00001218       0x30 /home/leon/git/swp-report/iMX6_Platform_SDK/output/mx6sdl/lib/libboard_sabre_ai_rev_b.a(mmdc_iomux_config.o)
 .debug_frame   0x00001248       0x30 /home/leon/git/swp-report/iMX6_Platform_SDK/output/mx6sdl/lib/libboard_sabre_ai_rev_b.a(pwm3_iomux_config.o)
 .debug_frame   0x00001278       0x30 /home/leon/git/swp-report/iMX6_Platform_SDK/output/mx6sdl/lib/libboard_sabre_ai_rev_b.a(pwm4_iomux_config.o)
 .debug_frame   0x000012a8       0x30 /home/leon/git/swp-report/iMX6_Platform_SDK/output/mx6sdl/lib/libboard_sabre_ai_rev_b.a(sjc_iomux_config.o)
 .debug_frame   0x000012d8       0x30 /home/leon/git/swp-report/iMX6_Platform_SDK/output/mx6sdl/lib/libboard_sabre_ai_rev_b.a(spdif_iomux_config.o)
 .debug_frame   0x00001308       0x30 /home/leon/git/swp-report/iMX6_Platform_SDK/output/mx6sdl/lib/libboard_sabre_ai_rev_b.a(uart2_iomux_config.o)
 .debug_frame   0x00001338       0x30 /home/leon/git/swp-report/iMX6_Platform_SDK/output/mx6sdl/lib/libboard_sabre_ai_rev_b.a(uart3_iomux_config.o)
 .debug_frame   0x00001368       0x30 /home/leon/git/swp-report/iMX6_Platform_SDK/output/mx6sdl/lib/libboard_sabre_ai_rev_b.a(uart4_iomux_config.o)
 .debug_frame   0x00001398       0x30 /home/leon/git/swp-report/iMX6_Platform_SDK/output/mx6sdl/lib/libboard_sabre_ai_rev_b.a(usdhc1_iomux_config.o)
 .debug_frame   0x000013c8       0x30 /home/leon/git/swp-report/iMX6_Platform_SDK/output/mx6sdl/lib/libboard_sabre_ai_rev_b.a(usdhc3_iomux_config.o)
 .debug_frame   0x000013f8       0x30 /home/leon/git/swp-report/iMX6_Platform_SDK/output/mx6sdl/lib/libboard_sabre_ai_rev_b.a(wdog1_iomux_config.o)
 .debug_frame   0x00001428       0x30 /home/leon/git/swp-report/iMX6_Platform_SDK/output/mx6sdl/lib/libboard_sabre_ai_rev_b.a(audmux_iomux_config.o)
 .debug_frame   0x00001458       0x30 /home/leon/git/swp-report/iMX6_Platform_SDK/output/mx6sdl/lib/libboard_sabre_ai_rev_b.a(ccm_iomux_config.o)
 .debug_frame   0x00001488       0x30 /home/leon/git/swp-report/iMX6_Platform_SDK/output/mx6sdl/lib/libboard_sabre_ai_rev_b.a(ecspi1_iomux_config.o)
 .debug_frame   0x000014b8       0x30 /home/leon/git/swp-report/iMX6_Platform_SDK/output/mx6sdl/lib/libboard_sabre_ai_rev_b.a(eim_iomux_config.o)
 .debug_frame   0x000014e8       0x30 /home/leon/git/swp-report/iMX6_Platform_SDK/output/mx6sdl/lib/libboard_sabre_ai_rev_b.a(enet_iomux_config.o)
 .debug_frame   0x00001518       0x30 /home/leon/git/swp-report/iMX6_Platform_SDK/output/mx6sdl/lib/libboard_sabre_ai_rev_b.a(esai_iomux_config.o)
 .debug_frame   0x00001548       0x30 /home/leon/git/swp-report/iMX6_Platform_SDK/output/mx6sdl/lib/libboard_sabre_ai_rev_b.a(flexcan1_iomux_config.o)
 .debug_frame   0x00001578       0x30 /home/leon/git/swp-report/iMX6_Platform_SDK/output/mx6sdl/lib/libboard_sabre_ai_rev_b.a(flexcan2_iomux_config.o)
 .debug_frame   0x000015a8       0x30 /home/leon/git/swp-report/iMX6_Platform_SDK/output/mx6sdl/lib/libboard_sabre_ai_rev_b.a(gpio1_iomux_config.o)
 .debug_frame   0x000015d8       0x30 /home/leon/git/swp-report/iMX6_Platform_SDK/output/mx6sdl/lib/libboard_sabre_ai_rev_b.a(gpio2_iomux_config.o)
 .debug_frame   0x00001608       0x30 /home/leon/git/swp-report/iMX6_Platform_SDK/output/mx6sdl/lib/libboard_sabre_ai_rev_b.a(gpio4_iomux_config.o)
 .debug_frame   0x00001638       0x30 /home/leon/git/swp-report/iMX6_Platform_SDK/output/mx6sdl/lib/libboard_sabre_ai_rev_b.a(gpio5_iomux_config.o)
 .debug_frame   0x00001668       0x30 /home/leon/git/swp-report/iMX6_Platform_SDK/output/mx6sdl/lib/libboard_sabre_ai_rev_b.a(gpio6_iomux_config.o)
 .debug_frame   0x00001698       0x30 /home/leon/git/swp-report/iMX6_Platform_SDK/output/mx6sdl/lib/libboard_sabre_ai_rev_b.a(gpmi_iomux_config.o)
 .debug_frame   0x000016c8       0x30 /home/leon/git/swp-report/iMX6_Platform_SDK/output/mx6sdl/lib/libboard_sabre_ai_rev_b.a(i2c2_iomux_config.o)
 .debug_frame   0x000016f8       0x50 /home/leon/git/swp-report/iMX6_Platform_SDK/output/mx6sdl/sdk_unit_test/sabre_ai_rev_b/libsdk_unit_test.a(gic_test.o)
 .debug_frame   0x00001748       0x70 /home/leon/git/swp-report/iMX6_Platform_SDK/output/mx6sdl/sdk_unit_test/sabre_ai_rev_b/libsdk_unit_test.a(cpu_wp_test.o)
 .debug_frame   0x000017b8       0x70 /home/leon/git/swp-report/iMX6_Platform_SDK/output/mx6sdl/sdk_unit_test/sabre_ai_rev_b/libsdk_unit_test.a(multicore_test.o)
 .debug_frame   0x00001828       0x30 /home/leon/git/swp-report/iMX6_Platform_SDK/output/mx6sdl/sdk_unit_test/sabre_ai_rev_b/libsdk_unit_test.a(ocotp_test.o)
 .debug_frame   0x00001858       0x30 /home/leon/git/swp-report/iMX6_Platform_SDK/output/mx6sdl/sdk_unit_test/sabre_ai_rev_b/libsdk_unit_test.a(i2c_test.o)
 .debug_frame   0x00001888       0x70 /home/leon/git/swp-report/iMX6_Platform_SDK/output/mx6sdl/sdk_unit_test/sabre_ai_rev_b/libsdk_unit_test.a(imx6_i2c_device.o)
 .debug_frame   0x000018f8       0xb0 /home/leon/git/swp-report/iMX6_Platform_SDK/output/mx6sdl/sdk_unit_test/sabre_ai_rev_b/libsdk_unit_test.a(snvs_rtc_test.o)
 .debug_frame   0x000019a8       0x70 /home/leon/git/swp-report/iMX6_Platform_SDK/output/mx6sdl/sdk_unit_test/sabre_ai_rev_b/libsdk_unit_test.a(snvs_srtc_test.o)
 .debug_frame   0x00001a18       0x70 /home/leon/git/swp-report/iMX6_Platform_SDK/output/mx6sdl/sdk_unit_test/sabre_ai_rev_b/libsdk_unit_test.a(tempmon_test.o)
 .debug_frame   0x00001a88       0x30 /home/leon/git/swp-report/iMX6_Platform_SDK/output/mx6sdl/sdk_unit_test/sabre_ai_rev_b/libsdk_unit_test.a(sdma_test.o)
 .debug_frame   0x00001ab8       0x70 /home/leon/git/swp-report/iMX6_Platform_SDK/output/mx6sdl/sdk_unit_test/sabre_ai_rev_b/libsdk_unit_test.a(spi_lpb.o)
 .debug_frame   0x00001b28       0xf0 /home/leon/git/swp-report/iMX6_Platform_SDK/output/mx6sdl/sdk_unit_test/sabre_ai_rev_b/libsdk_unit_test.a(uart_loopback.o)
 .debug_frame   0x00001c18       0x90 /home/leon/git/swp-report/iMX6_Platform_SDK/output/mx6sdl/sdk_unit_test/sabre_ai_rev_b/libsdk_unit_test.a(epit_test.o)
 .debug_frame   0x00001ca8       0x90 /home/leon/git/swp-report/iMX6_Platform_SDK/output/mx6sdl/sdk_unit_test/sabre_ai_rev_b/libsdk_unit_test.a(gpt_test.o)
 .debug_frame   0x00001d38       0x38 /home/leon/git/swp-report/iMX6_Platform_SDK/output/mx6sdl/sdk_unit_test/sabre_ai_rev_b/libsdk_unit_test.a(timer_test.o)
 .debug_frame   0x00001d70       0x50 /home/leon/git/swp-report/iMX6_Platform_SDK/output/mx6sdl/sdk_unit_test/sabre_ai_rev_b/libsdk_unit_test.a(uart_test.o)
 .debug_frame   0x00001dc0      0x170 /home/leon/git/swp-report/iMX6_Platform_SDK/output/mx6sdl/sdk_unit_test/sabre_ai_rev_b/libsdk_unit_test.a(usdhc_test.o)
 .debug_frame   0x00001f30       0x30 /home/leon/git/swp-report/iMX6_Platform_SDK/output/mx6sdl/sdk_unit_test/sabre_ai_rev_b/libsdk_unit_test.a(pwm_test.o)
 .debug_frame   0x00001f60       0x50 /home/leon/git/swp-report/iMX6_Platform_SDK/output/mx6sdl/sdk_unit_test/sabre_ai_rev_b/libsdk_unit_test.a(watchdog_test.o)
 .debug_frame   0x00001fb0       0xb0 /home/leon/git/swp-report/iMX6_Platform_SDK/output/mx6sdl/sdk_unit_test/sabre_ai_rev_b/libsdk_unit_test.a(hdmi_test.o)
 .debug_frame   0x00002060       0xf0 /home/leon/git/swp-report/iMX6_Platform_SDK/output/mx6sdl/sdk_unit_test/sabre_ai_rev_b/libsdk_unit_test.a(ips_display.o)
 .debug_frame   0x00002150       0x30 /home/leon/git/swp-report/iMX6_Platform_SDK/output/mx6sdl/sdk_unit_test/sabre_ai_rev_b/libsdk_unit_test.a(ips_test.o)
 .debug_frame   0x00002180       0xb0 /home/leon/git/swp-report/iMX6_Platform_SDK/output/mx6sdl/sdk_unit_test/sabre_ai_rev_b/libsdk_unit_test.a(ipu_image.o)
 .debug_frame   0x00002230       0x30 /home/leon/git/swp-report/iMX6_Platform_SDK/output/mx6sdl/sdk_unit_test/sabre_ai_rev_b/libsdk_unit_test.a(mipi_test.o)
 .debug_frame   0x00002260       0x50 /home/leon/git/swp-report/iMX6_Platform_SDK/output/mx6sdl/sdk_unit_test/sabre_ai_rev_b/libsdk_unit_test.a(can_test.o)
 .debug_frame   0x000022b0       0x30 /home/leon/git/swp-report/iMX6_Platform_SDK/output/mx6sdl/sdk_unit_test/sabre_ai_rev_b/libsdk_unit_test.a(usb_test.o)
 .debug_frame   0x000022e0       0x70 /home/leon/git/swp-report/iMX6_Platform_SDK/output/mx6sdl/sdk_unit_test/sabre_ai_rev_b/libsdk_unit_test.a(eim_test.o)
 .debug_frame   0x00002350       0x30 /home/leon/git/swp-report/iMX6_Platform_SDK/output/mx6sdl/sdk_unit_test/sabre_ai_rev_b/libsdk_unit_test.a(pcie_test_rc.o)
 .debug_frame   0x00002380       0x50 /home/leon/git/swp-report/iMX6_Platform_SDK/output/mx6sdl/sdk_unit_test/sabre_ai_rev_b/libsdk_unit_test.a(spi_test.o)
 .debug_frame   0x000023d0       0x30 /home/leon/git/swp-report/iMX6_Platform_SDK/output/mx6sdl/sdk_unit_test/sabre_ai_rev_b/libsdk_unit_test.a(camera_test.o)
 .debug_frame   0x00002400       0x30 /home/leon/git/swp-report/iMX6_Platform_SDK/output/mx6sdl/sdk_unit_test/sabre_ai_rev_b/libsdk_unit_test.a(csi_test_mode.o)
 .debug_frame   0x00002430       0x38 /home/leon/git/swp-report/iMX6_Platform_SDK/output/mx6sdl/sdk_unit_test/sabre_ai_rev_b/libsdk_unit_test.a(accelerometer_test.o)
 .debug_frame   0x00002468       0x70 /home/leon/git/swp-report/iMX6_Platform_SDK/output/mx6sdl/sdk_unit_test/sabre_ai_rev_b/libsdk_unit_test.a(at24cxx.o)
 .debug_frame   0x000024d8       0x34 /home/leon/git/swp-report/iMX6_Platform_SDK/output/mx6sdl/sdk_unit_test/sabre_ai_rev_b/libsdk_unit_test.a(mem_2_mem.o)
 .debug_frame   0x0000250c       0x54 /home/leon/git/swp-report/iMX6_Platform_SDK/output/mx6sdl/sdk_unit_test/sabre_ai_rev_b/libsdk_unit_test.a(pwm_output.o)
 .debug_frame   0x00002560       0x34 /home/leon/git/swp-report/iMX6_Platform_SDK/output/mx6sdl/sdk_unit_test/sabre_ai_rev_b/libsdk_unit_test.a(init_dma_data.o)
 .debug_frame   0x00002594       0x30 /home/leon/git/swp-report/iMX6_Platform_SDK/output/mx6sdl/sdk_unit_test/sabre_ai_rev_b/libsdk_unit_test.a(ips_combiner.o)
 .debug_frame   0x000025c4       0x30 /home/leon/git/swp-report/iMX6_Platform_SDK/output/mx6sdl/sdk_unit_test/sabre_ai_rev_b/libsdk_unit_test.a(ips_csc.o)
 .debug_frame   0x000025f4       0x34 /home/leon/git/swp-report/iMX6_Platform_SDK/output/mx6sdl/sdk_unit_test/sabre_ai_rev_b/libsdk_unit_test.a(ips_resize.o)
 .debug_frame   0x00002628       0x30 /home/leon/git/swp-report/iMX6_Platform_SDK/output/mx6sdl/sdk_unit_test/sabre_ai_rev_b/libsdk_unit_test.a(ips_rotate.o)
 .debug_frame   0x00002658       0x30 /home/leon/git/swp-report/iMX6_Platform_SDK/output/mx6sdl/sdk_unit_test/sabre_ai_rev_b/libsdk_unit_test.a(mipi_csi2_test.o)
 .debug_frame   0x00002688       0x30 /home/leon/git/swp-report/iMX6_Platform_SDK/output/mx6sdl/sdk_unit_test/sabre_ai_rev_b/libsdk_unit_test.a(mipi_dsi_test.o)
 .debug_frame   0x000026b8       0x70 /home/leon/git/swp-report/iMX6_Platform_SDK/output/mx6sdl/sdk_unit_test/sabre_ai_rev_b/libsdk_unit_test.a(usb0_device_mouse_test.o)
 .debug_frame   0x00002728      0x110 /home/leon/git/swp-report/iMX6_Platform_SDK/output/mx6sdl/sdk_unit_test/sabre_ai_rev_b/libsdk_unit_test.a(usb0_host_test.o)
 .debug_frame   0x00002838       0x30 /home/leon/git/swp-report/iMX6_Platform_SDK/output/mx6sdl/sdk_unit_test/sabre_ai_rev_b/libsdk_unit_test.a(usb0_host_testmodes_test.o)
 .debug_frame   0x00002868       0xf0 /home/leon/git/swp-report/iMX6_Platform_SDK/output/mx6sdl/sdk_unit_test/sabre_ai_rev_b/libsdk_unit_test.a(cfi_flash_api.o)
 .debug_frame   0x00002958      0x3b0 /home/leon/git/swp-report/iMX6_Platform_SDK/output/mx6sdl/sdk_unit_test/sabre_ai_rev_b/libsdk_unit_test.a(cfi_flash_driver.o)
 .debug_frame   0x00002d08      0x110 /home/leon/git/swp-report/iMX6_Platform_SDK/output/mx6sdl/sdk_unit_test/sabre_ai_rev_b/libsdk_unit_test.a(spi_nor_numonyx.o)
 .debug_frame   0x00002e18       0x30 /home/leon/git/swp-report/iMX6_Platform_SDK/output/mx6sdl/sdk_unit_test/sabre_ai_rev_b/libsdk_unit_test.a(adv7180_capture.o)
 .debug_frame   0x00002e48       0x28 /home/leon/riotboard/arm-2012.09/bin/../arm-none-eabi/lib//libm.a(lib_a-sf_cos.o)
 .debug_frame   0x00002e70       0x20 /home/leon/riotboard/arm-2012.09/bin/../arm-none-eabi/lib//libm.a(lib_a-sf_fabs.o)
 .debug_frame   0x00002e90       0x28 /home/leon/riotboard/arm-2012.09/bin/../arm-none-eabi/lib//libm.a(lib_a-sf_modf.o)
 .debug_frame   0x00002eb8       0x28 /home/leon/riotboard/arm-2012.09/bin/../arm-none-eabi/lib//libm.a(lib_a-sf_sin.o)
 .debug_frame   0x00002ee0       0x38 /home/leon/riotboard/arm-2012.09/bin/../arm-none-eabi/lib//libm.a(lib_a-ef_rem_pio2.o)
 .debug_frame   0x00002f18       0x34 /home/leon/riotboard/arm-2012.09/bin/../arm-none-eabi/lib//libm.a(lib_a-kf_cos.o)
 .debug_frame   0x00002f4c       0x3c /home/leon/riotboard/arm-2012.09/bin/../arm-none-eabi/lib//libm.a(lib_a-kf_rem_pio2.o)
 .debug_frame   0x00002f88       0x34 /home/leon/riotboard/arm-2012.09/bin/../arm-none-eabi/lib//libm.a(lib_a-kf_sin.o)
 .debug_frame   0x00002fbc       0x30 /home/leon/riotboard/arm-2012.09/bin/../arm-none-eabi/lib//libm.a(lib_a-sf_floor.o)
 .debug_frame   0x00002fec       0x28 /home/leon/riotboard/arm-2012.09/bin/../arm-none-eabi/lib//libm.a(lib_a-sf_scalbn.o)
 .debug_frame   0x00003014       0x20 /home/leon/riotboard/arm-2012.09/bin/../arm-none-eabi/lib//libm.a(lib_a-sf_copysign.o)
 .debug_frame   0x00003034       0x40 /home/leon/riotboard/arm-2012.09/bin/../arm-none-eabi/lib//libc.a(lib_a-assert.o)
 .debug_frame   0x00003074       0x20 /home/leon/riotboard/arm-2012.09/bin/../arm-none-eabi/lib//libc.a(lib_a-bzero.o)
 .debug_frame   0x00003094       0x48 /home/leon/riotboard/arm-2012.09/bin/../arm-none-eabi/lib//libc.a(lib_a-fflush.o)
 .debug_frame   0x000030dc      0x134 /home/leon/riotboard/arm-2012.09/bin/../arm-none-eabi/lib//libc.a(lib_a-findfp.o)
 .debug_frame   0x00003210       0x54 /home/leon/riotboard/arm-2012.09/bin/../arm-none-eabi/lib//libc.a(lib_a-fiprintf.o)
 .debug_frame   0x00003264       0x48 /home/leon/riotboard/arm-2012.09/bin/../arm-none-eabi/lib//libc.a(lib_a-fputc.o)
 .debug_frame   0x000032ac       0x3c /home/leon/riotboard/arm-2012.09/bin/../arm-none-eabi/lib//libc.a(lib_a-fputs.o)
 .debug_frame   0x000032e8       0x50 /home/leon/riotboard/arm-2012.09/bin/../arm-none-eabi/lib//libc.a(lib_a-freer.o)
 .debug_frame   0x00003338       0x38 /home/leon/riotboard/arm-2012.09/bin/../arm-none-eabi/lib//libc.a(lib_a-fvwrite.o)
 .debug_frame   0x00003370       0x54 /home/leon/riotboard/arm-2012.09/bin/../arm-none-eabi/lib//libc.a(lib_a-fwalk.o)
 .debug_frame   0x000033c4       0x2c /home/leon/riotboard/arm-2012.09/bin/../arm-none-eabi/lib//libc.a(lib_a-init.o)
 .debug_frame   0x000033f0       0x40 /home/leon/riotboard/arm-2012.09/bin/../arm-none-eabi/lib//libc.a(lib_a-malloc.o)
 .debug_frame   0x00003430       0x38 /home/leon/riotboard/arm-2012.09/bin/../arm-none-eabi/lib//libc.a(lib_a-mallocr.o)
 .debug_frame   0x00003468       0x2c /home/leon/riotboard/arm-2012.09/bin/../arm-none-eabi/lib//libc.a(lib_a-memchr.o)
 .debug_frame   0x00003494       0x30 /home/leon/riotboard/arm-2012.09/bin/../arm-none-eabi/lib//libc.a(lib_a-memcpy.o)
 .debug_frame   0x000034c4       0x2c /home/leon/riotboard/arm-2012.09/bin/../arm-none-eabi/lib//libc.a(lib_a-memmove.o)
 .debug_frame   0x000034f0       0x28 /home/leon/riotboard/arm-2012.09/bin/../arm-none-eabi/lib//libc.a(lib_a-memset.o)
 .debug_frame   0x00003518       0x30 /home/leon/riotboard/arm-2012.09/bin/../arm-none-eabi/lib//libc.a(lib_a-mlock.o)
 .debug_frame   0x00003548       0x58 /home/leon/riotboard/arm-2012.09/bin/../arm-none-eabi/lib//libc.a(lib_a-printf.o)
 .debug_frame   0x000035a0       0x48 /home/leon/riotboard/arm-2012.09/bin/../arm-none-eabi/lib//libc.a(lib_a-putc.o)
 .debug_frame   0x000035e8       0x3c /home/leon/riotboard/arm-2012.09/bin/../arm-none-eabi/lib//libc.a(lib_a-puts.o)
 .debug_frame   0x00003624       0x28 /home/leon/riotboard/arm-2012.09/bin/../arm-none-eabi/lib//libc.a(lib_a-realloc.o)
 .debug_frame   0x0000364c       0x38 /home/leon/riotboard/arm-2012.09/bin/../arm-none-eabi/lib//libc.a(lib_a-reallocr.o)
 .debug_frame   0x00003684       0x3c /home/leon/riotboard/arm-2012.09/bin/../arm-none-eabi/lib//libc.a(lib_a-rget.o)
 .debug_frame   0x000036c0       0x2c /home/leon/riotboard/arm-2012.09/bin/../arm-none-eabi/lib//libc.a(lib_a-sbrkr.o)
 .debug_frame   0x000036ec       0x5c /home/leon/riotboard/arm-2012.09/bin/../arm-none-eabi/lib//libc.a(lib_a-sprintf.o)
 .debug_frame   0x00003748       0x88 /home/leon/riotboard/arm-2012.09/bin/../arm-none-eabi/lib//libc.a(lib_a-stdio.o)
 .debug_frame   0x000037d0       0x20 /home/leon/riotboard/arm-2012.09/bin/../arm-none-eabi/lib//libc.a(lib_a-strlen.o)
 .debug_frame   0x000037f0       0x28 /home/leon/riotboard/arm-2012.09/bin/../arm-none-eabi/lib//libc.a(lib_a-strncasecmp.o)
 .debug_frame   0x00003818       0x3c /home/leon/riotboard/arm-2012.09/bin/../arm-none-eabi/lib//libc.a(lib_a-svfprintf.o)
 .debug_frame   0x00003854       0x7c /home/leon/riotboard/arm-2012.09/bin/../arm-none-eabi/lib//libc.a(lib_a-vfiprintf.o)
 .debug_frame   0x000038d0       0x58 /home/leon/riotboard/arm-2012.09/bin/../arm-none-eabi/lib//libc.a(lib_a-vfprintf.o)
 .debug_frame   0x00003928       0x40 /home/leon/riotboard/arm-2012.09/bin/../arm-none-eabi/lib//libc.a(lib_a-vprintf.o)
 .debug_frame   0x00003968       0x3c /home/leon/riotboard/arm-2012.09/bin/../arm-none-eabi/lib//libc.a(lib_a-wbuf.o)
 .debug_frame   0x000039a4       0x2c /home/leon/riotboard/arm-2012.09/bin/../arm-none-eabi/lib//libc.a(lib_a-writer.o)
 .debug_frame   0x000039d0       0x2c /home/leon/riotboard/arm-2012.09/bin/../arm-none-eabi/lib//libc.a(lib_a-wsetup.o)
 .debug_frame   0x000039fc       0x28 /home/leon/riotboard/arm-2012.09/bin/../arm-none-eabi/lib//libc.a(lib_a-abort.o)
 .debug_frame   0x00003a24       0x2c /home/leon/riotboard/arm-2012.09/bin/../arm-none-eabi/lib//libc.a(lib_a-closer.o)
 .debug_frame   0x00003a50       0x64 /home/leon/riotboard/arm-2012.09/bin/../arm-none-eabi/lib//libc.a(lib_a-dtoa.o)
 .debug_frame   0x00003ab4       0x3c /home/leon/riotboard/arm-2012.09/bin/../arm-none-eabi/lib//libc.a(lib_a-fclose.o)
 .debug_frame   0x00003af0       0x50 /home/leon/riotboard/arm-2012.09/bin/../arm-none-eabi/lib//libc.a(lib_a-fputwc.o)
 .debug_frame   0x00003b40       0x98 /home/leon/riotboard/arm-2012.09/bin/../arm-none-eabi/lib//libc.a(lib_a-locale.o)
 .debug_frame   0x00003bd8       0x2c /home/leon/riotboard/arm-2012.09/bin/../arm-none-eabi/lib//libc.a(lib_a-lseekr.o)
 .debug_frame   0x00003c04       0x30 /home/leon/riotboard/arm-2012.09/bin/../arm-none-eabi/lib//libc.a(lib_a-makebuf.o)
 .debug_frame   0x00003c34      0x220 /home/leon/riotboard/arm-2012.09/bin/../arm-none-eabi/lib//libc.a(lib_a-mprec.o)
 .debug_frame   0x00003e54       0x2c /home/leon/riotboard/arm-2012.09/bin/../arm-none-eabi/lib//libc.a(lib_a-readr.o)
 .debug_frame   0x00003e80       0x68 /home/leon/riotboard/arm-2012.09/bin/../arm-none-eabi/lib//libc.a(lib_a-reent.o)
 .debug_frame   0x00003ee8       0x44 /home/leon/riotboard/arm-2012.09/bin/../arm-none-eabi/lib//libc.a(lib_a-refill.o)
 .debug_frame   0x00003f2c       0x20 /home/leon/riotboard/arm-2012.09/bin/../arm-none-eabi/lib//libc.a(lib_a-s_fpclassify.o)
 .debug_frame   0x00003f4c       0xc0 /home/leon/riotboard/arm-2012.09/bin/../arm-none-eabi/lib//libc.a(lib_a-signal.o)
 .debug_frame   0x0000400c       0x44 /home/leon/riotboard/arm-2012.09/bin/../arm-none-eabi/lib//libc.a(lib_a-signalr.o)
 .debug_frame   0x00004050       0x30 /home/leon/riotboard/arm-2012.09/bin/../arm-none-eabi/lib//libc.a(lib_a-strcmp.o)
 .debug_frame   0x00004080       0x64 /home/leon/riotboard/arm-2012.09/bin/../arm-none-eabi/lib//libc.a(lib_a-svfiprintf.o)
 .debug_frame   0x000040e4       0x58 /home/leon/riotboard/arm-2012.09/bin/../arm-none-eabi/lib//libc.a(lib_a-wcrtomb.o)
 .debug_frame   0x0000413c       0x44 /home/leon/riotboard/arm-2012.09/bin/../arm-none-eabi/lib//libc.a(lib_a-wctomb_r.o)
 .debug_frame   0x00004180       0x28 /home/leon/riotboard/arm-2012.09/bin/../arm-none-eabi/lib//libc.a(lib_a-callocr.o)
 .debug_frame   0x000041a8       0x2c /home/leon/riotboard/arm-2012.09/bin/../arm-none-eabi/lib//libc.a(lib_a-fstatr.o)
 .debug_frame   0x000041d4       0x2c /home/leon/riotboard/arm-2012.09/bin/../arm-none-eabi/lib//libc.a(lib_a-isattyr.o)
 .debug_frame   0x00004200       0x20 /home/leon/riotboard/arm-2012.09/bin/../lib/gcc/arm-none-eabi/4.7.2//libgcc.a(_udivsi3.o)
 .debug_frame   0x00004220       0x20 /home/leon/riotboard/arm-2012.09/bin/../lib/gcc/arm-none-eabi/4.7.2//libgcc.a(_divsi3.o)
 .debug_frame   0x00004240       0x54 /home/leon/riotboard/arm-2012.09/bin/../lib/gcc/arm-none-eabi/4.7.2//libgcc.a(bpabi.o)
 .debug_frame   0x00004294       0x38 /home/leon/riotboard/arm-2012.09/bin/../lib/gcc/arm-none-eabi/4.7.2//libgcc.a(_divdi3.o)
 .debug_frame   0x000042cc       0x38 /home/leon/riotboard/arm-2012.09/bin/../lib/gcc/arm-none-eabi/4.7.2//libgcc.a(_udivdi3.o)
 .debug_frame   0x00004304       0x90 /home/leon/git/swp-report/iMX6_Platform_SDK/output/mx6sdl/lib/libsdk.a(max7310.o)
 .debug_frame   0x00004394       0x50 /home/leon/git/swp-report/iMX6_Platform_SDK/output/mx6sdl/lib/libsdk.a(profile.o)
 .debug_frame   0x000043e4      0x210 /home/leon/git/swp-report/iMX6_Platform_SDK/output/mx6sdl/lib/libsdk.a(armv7_cache.o)
 .debug_frame   0x000045f4      0x290 /home/leon/git/swp-report/iMX6_Platform_SDK/output/mx6sdl/lib/libsdk.a(runtime_support.o)
 .debug_frame   0x00004884       0x90 /home/leon/git/swp-report/iMX6_Platform_SDK/output/mx6sdl/lib/libsdk.a(mma8451.o)
 .debug_frame   0x00004914       0x30 /home/leon/git/swp-report/iMX6_Platform_SDK/output/mx6sdl/lib/libsdk.a(cpu_get_cores.o)
 .debug_frame   0x00004944       0x70 /home/leon/git/swp-report/iMX6_Platform_SDK/output/mx6sdl/lib/libsdk.a(cpu_multicore.o)
 .debug_frame   0x000049b4       0x30 /home/leon/git/swp-report/iMX6_Platform_SDK/output/mx6sdl/lib/libsdk.a(cpu_workpoint.o)
 .debug_frame   0x000049e4       0x50 /home/leon/git/swp-report/iMX6_Platform_SDK/output/mx6sdl/lib/libsdk.a(eim.o)
 .debug_frame   0x00004a34      0x190 /home/leon/git/swp-report/iMX6_Platform_SDK/output/mx6sdl/lib/libsdk.a(can.o)
 .debug_frame   0x00004bc4      0x178 /home/leon/git/swp-report/iMX6_Platform_SDK/output/mx6sdl/lib/libsdk.a(gpio.o)
 .debug_frame   0x00004d3c      0x150 /home/leon/git/swp-report/iMX6_Platform_SDK/output/mx6sdl/lib/libsdk.a(hdmi_tx.o)
 .debug_frame   0x00004e8c      0x2b0 /home/leon/git/swp-report/iMX6_Platform_SDK/output/mx6sdl/lib/libsdk.a(hdmi_tx_audio.o)
 .debug_frame   0x0000513c      0x2b0 /home/leon/git/swp-report/iMX6_Platform_SDK/output/mx6sdl/lib/libsdk.a(hdmi_tx_phy.o)
 .debug_frame   0x000053ec      0x1d8 /home/leon/git/swp-report/iMX6_Platform_SDK/output/mx6sdl/lib/libsdk.a(imx_i2c.o)
 .debug_frame   0x000055c4       0x70 /home/leon/git/swp-report/iMX6_Platform_SDK/output/mx6sdl/lib/libsdk.a(imx_i2c_slave.o)
 .debug_frame   0x00005634      0x230 /home/leon/git/swp-report/iMX6_Platform_SDK/output/mx6sdl/lib/libsdk.a(ips_disp_panel.o)
 .debug_frame   0x00005864      0x1d0 /home/leon/git/swp-report/iMX6_Platform_SDK/output/mx6sdl/lib/libsdk.a(ipu_common.o)
 .debug_frame   0x00005a34       0xd0 /home/leon/git/swp-report/iMX6_Platform_SDK/output/mx6sdl/lib/libsdk.a(ipu_csi.o)
 .debug_frame   0x00005b04       0xd0 /home/leon/git/swp-report/iMX6_Platform_SDK/output/mx6sdl/lib/libsdk.a(ipu_dc.o)
 .debug_frame   0x00005bd4       0xf4 /home/leon/git/swp-report/iMX6_Platform_SDK/output/mx6sdl/lib/libsdk.a(ipu_di.o)
 .debug_frame   0x00005cc8       0x50 /home/leon/git/swp-report/iMX6_Platform_SDK/output/mx6sdl/lib/libsdk.a(ipu_dmfc.o)
 .debug_frame   0x00005d18       0x70 /home/leon/git/swp-report/iMX6_Platform_SDK/output/mx6sdl/lib/libsdk.a(ipu_dp.o)
 .debug_frame   0x00005d88      0x130 /home/leon/git/swp-report/iMX6_Platform_SDK/output/mx6sdl/lib/libsdk.a(ipu_ic.o)
 .debug_frame   0x00005eb8      0x230 /home/leon/git/swp-report/iMX6_Platform_SDK/output/mx6sdl/lib/libsdk.a(ipu_idmac.o)
 .debug_frame   0x000060e8      0x110 /home/leon/git/swp-report/iMX6_Platform_SDK/output/mx6sdl/lib/libsdk.a(ipu_vdi.o)
 .debug_frame   0x000061f8       0x70 /home/leon/git/swp-report/iMX6_Platform_SDK/output/mx6sdl/lib/libsdk.a(ldb.o)
 .debug_frame   0x00006268      0x1b0 /home/leon/git/swp-report/iMX6_Platform_SDK/output/mx6sdl/lib/libsdk.a(mipi_csi2_common.o)
 .debug_frame   0x00006418       0xd0 /home/leon/git/swp-report/iMX6_Platform_SDK/output/mx6sdl/lib/libsdk.a(mipi_dsi_common.o)
 .debug_frame   0x000064e8       0xf0 /home/leon/git/swp-report/iMX6_Platform_SDK/output/mx6sdl/lib/libsdk.a(ocotp.o)
 .debug_frame   0x000065d8       0xb0 /home/leon/git/swp-report/iMX6_Platform_SDK/output/mx6sdl/lib/libsdk.a(pcie.o)
 .debug_frame   0x00006688       0x90 /home/leon/git/swp-report/iMX6_Platform_SDK/output/mx6sdl/lib/libsdk.a(pcie_phy.o)
 .debug_frame   0x00006718       0xb0 /home/leon/git/swp-report/iMX6_Platform_SDK/output/mx6sdl/lib/libsdk.a(pcie_prot.o)
 .debug_frame   0x000067c8      0xb10 /home/leon/git/swp-report/iMX6_Platform_SDK/output/mx6sdl/lib/libsdk.a(pmu_driver.o)
 .debug_frame   0x000072d8      0x110 /home/leon/git/swp-report/iMX6_Platform_SDK/output/mx6sdl/lib/libsdk.a(pwm.o)
 .debug_frame   0x000073e8       0xf0 /home/leon/git/swp-report/iMX6_Platform_SDK/output/mx6sdl/lib/libsdk.a(rtc.o)
 .debug_frame   0x000074d8       0xb0 /home/leon/git/swp-report/iMX6_Platform_SDK/output/mx6sdl/lib/libsdk.a(srtc.o)
 .debug_frame   0x00007588      0x210 /home/leon/git/swp-report/iMX6_Platform_SDK/output/mx6sdl/lib/libsdk.a(sdma.o)
 .debug_frame   0x00007798      0x17c /home/leon/git/swp-report/iMX6_Platform_SDK/output/mx6sdl/lib/libsdk.a(snvs.o)
 .debug_frame   0x00007914       0xf0 /home/leon/git/swp-report/iMX6_Platform_SDK/output/mx6sdl/lib/libsdk.a(ecspi.o)
 .debug_frame   0x00007a04       0xf0 /home/leon/git/swp-report/iMX6_Platform_SDK/output/mx6sdl/lib/libsdk.a(tempmon.o)
 .debug_frame   0x00007af4      0x150 /home/leon/git/swp-report/iMX6_Platform_SDK/output/mx6sdl/lib/libsdk.a(gpt.o)
 .debug_frame   0x00007c44       0x70 /home/leon/git/swp-report/iMX6_Platform_SDK/output/mx6sdl/lib/libsdk.a(usb_common.o)
 .debug_frame   0x00007cb4      0x130 /home/leon/git/swp-report/iMX6_Platform_SDK/output/mx6sdl/lib/libsdk.a(usbd_drv.o)
 .debug_frame   0x00007de4      0x110 /home/leon/git/swp-report/iMX6_Platform_SDK/output/mx6sdl/lib/libsdk.a(usbh_drv.o)
 .debug_frame   0x00007ef4      0x250 /home/leon/git/swp-report/iMX6_Platform_SDK/output/mx6sdl/lib/libsdk.a(usdhc.o)
 .debug_frame   0x00008144      0x330 /home/leon/git/swp-report/iMX6_Platform_SDK/output/mx6sdl/lib/libsdk.a(usdhc_host.o)
 .debug_frame   0x00008474      0x1b0 /home/leon/git/swp-report/iMX6_Platform_SDK/output/mx6sdl/lib/libsdk.a(usdhc_mmc.o)
 .debug_frame   0x00008624       0x90 /home/leon/git/swp-report/iMX6_Platform_SDK/output/mx6sdl/lib/libsdk.a(usdhc_sd.o)
 .debug_frame   0x000086b4      0x170 /home/leon/git/swp-report/iMX6_Platform_SDK/output/mx6sdl/lib/libsdk.a(adv7180.o)
 .debug_frame   0x00008824       0xb0 /home/leon/git/swp-report/iMX6_Platform_SDK/output/mx6sdl/lib/libsdk.a(hdmi_common.o)
 .debug_frame   0x000088d4       0x50 /home/leon/git/swp-report/iMX6_Platform_SDK/output/mx6sdl/lib/libsdk.a(mx6x_usb.o)
 .debug_frame   0x00008924       0xd0 /home/leon/git/swp-report/iMX6_Platform_SDK/output/mx6sdl/lib/libboard_sabre_ai_rev_b.a(board_camera.o)
 .debug_frame   0x000089f4       0x30 /home/leon/git/swp-report/iMX6_Platform_SDK/output/mx6sdl/lib/libboard_sabre_ai_rev_b.a(board_can.o)
 .debug_frame   0x00008a24       0xf0 /home/leon/git/swp-report/iMX6_Platform_SDK/output/mx6sdl/lib/libboard_sabre_ai_rev_b.a(board_display.o)
 .debug_frame   0x00008b14       0xd0 /home/leon/git/swp-report/iMX6_Platform_SDK/output/mx6sdl/lib/libboard_sabre_ai_rev_b.a(board_hdmi.o)
 .debug_frame   0x00008be4       0xb0 /home/leon/git/swp-report/iMX6_Platform_SDK/output/mx6sdl/lib/libboard_sabre_ai_rev_b.a(board_mipi.o)
 .debug_frame   0x00008c94       0xb0 /home/leon/git/swp-report/iMX6_Platform_SDK/output/mx6sdl/lib/libboard_sabre_ai_rev_b.a(board_pcie.o)
 .debug_frame   0x00008d44       0x70 /home/leon/git/swp-report/iMX6_Platform_SDK/output/mx6sdl/lib/libboard_sabre_ai_rev_b.a(board_usb.o)
 .debug_frame   0x00008db4       0x70 /home/leon/git/swp-report/iMX6_Platform_SDK/output/mx6sdl/lib/libboard_sabre_ai_rev_b.a(board_usdhc.o)
 .debug_frame   0x00008e24       0x30 /home/leon/git/swp-report/iMX6_Platform_SDK/output/mx6sdl/lib/libboard_sabre_ai_rev_b.a(ecspi_iomux_config.o)
 .debug_frame   0x00008e54       0x30 /home/leon/git/swp-report/iMX6_Platform_SDK/output/mx6sdl/lib/libboard_sabre_ai_rev_b.a(flexcan_iomux_config.o)
 .debug_frame   0x00008e84       0x30 /home/leon/git/swp-report/iMX6_Platform_SDK/output/mx6sdl/lib/libboard_sabre_ai_rev_b.a(i2c_iomux_config.o)
 .debug_frame   0x00008eb4       0x30 /home/leon/git/swp-report/iMX6_Platform_SDK/output/mx6sdl/lib/libboard_sabre_ai_rev_b.a(pwm_iomux_config.o)
 .debug_frame   0x00008ee4       0x30 /home/leon/git/swp-report/iMX6_Platform_SDK/output/mx6sdl/lib/libboard_sabre_ai_rev_b.a(usdhc_iomux_config.o)
 .debug_frame   0x00008f14       0x40 /home/leon/riotboard/arm-2012.09/bin/../arm-none-eabi/lib//libstdc++.a(pure.o)
 .debug_frame   0x00008f54       0x90 /home/leon/riotboard/arm-2012.09/bin/../arm-none-eabi/lib//libstdc++.a(eh_terminate.o)
 .debug_frame   0x00008fe4       0x60 /home/leon/riotboard/arm-2012.09/bin/../arm-none-eabi/lib//libstdc++.a(eh_call.o)
 .debug_frame   0x00009044       0x5c /home/leon/riotboard/arm-2012.09/bin/../arm-none-eabi/lib//libstdc++.a(eh_throw.o)
 .debug_frame   0x000090a0       0x60 /home/leon/riotboard/arm-2012.09/bin/../arm-none-eabi/lib//libstdc++.a(eh_arm.o)
 .debug_frame   0x00009100       0xd0 /home/leon/riotboard/arm-2012.09/bin/../arm-none-eabi/lib//libstdc++.a(eh_exception.o)
 .debug_frame   0x000091d0       0x74 /home/leon/riotboard/arm-2012.09/bin/../arm-none-eabi/lib//libstdc++.a(eh_alloc.o)
 .debug_frame   0x00009244       0x30 /home/leon/riotboard/arm-2012.09/bin/../arm-none-eabi/lib//libstdc++.a(eh_globals.o)
 .debug_frame   0x00009274       0xa8 /home/leon/riotboard/arm-2012.09/bin/../arm-none-eabi/lib//libstdc++.a(si_class_type_info.o)
 .debug_frame   0x0000931c       0xa8 /home/leon/riotboard/arm-2012.09/bin/../arm-none-eabi/lib//libstdc++.a(eh_personality.o)
 .debug_frame   0x000093c4       0x68 /home/leon/riotboard/arm-2012.09/bin/../arm-none-eabi/lib//libstdc++.a(eh_catch.o)
 .debug_frame   0x0000942c       0xc8 /home/leon/riotboard/arm-2012.09/bin/../arm-none-eabi/lib//libstdc++.a(class_type_info.o)
 .debug_frame   0x000094f4       0x30 /home/leon/riotboard/arm-2012.09/bin/../arm-none-eabi/lib//libstdc++.a(vterminate.o)
 .debug_frame   0x00009524      0x4b0 /home/leon/riotboard/arm-2012.09/bin/../arm-none-eabi/lib//libstdc++.a(cp-demangle.o)
 .debug_frame   0x000099d4       0x28 /home/leon/riotboard/arm-2012.09/bin/../arm-none-eabi/lib//libstdc++.a(eh_type.o)
 .debug_frame   0x000099fc       0x28 /home/leon/riotboard/arm-2012.09/bin/../arm-none-eabi/lib//libstdc++.a(del_op.o)
 .debug_frame   0x00009a24       0x90 /home/leon/riotboard/arm-2012.09/bin/../arm-none-eabi/lib//libstdc++.a(tinfo.o)
 .debug_frame   0x00009ab4       0x50 /home/leon/riotboard/arm-2012.09/bin/../arm-none-eabi/lib//libc.a(lib_a-fwrite.o)
 .debug_frame   0x00009b04       0x28 /home/leon/riotboard/arm-2012.09/bin/../arm-none-eabi/lib//libc.a(lib_a-memcmp.o)
 .debug_frame   0x00009b2c       0x28 /home/leon/riotboard/arm-2012.09/bin/../arm-none-eabi/lib//libc.a(lib_a-strncmp.o)
 .debug_frame   0x00009b54       0x28 /home/leon/riotboard/arm-2012.09/bin/../arm-none-eabi/lib//libc.a(lib_a-syswrite.o)
 .debug_frame   0x00009b7c      0x290 /home/leon/riotboard/arm-2012.09/bin/../lib/gcc/arm-none-eabi/4.7.2//libgcc.a(unwind-arm.o)
 .debug_frame   0x00009e0c       0xe4 /home/leon/riotboard/arm-2012.09/bin/../lib/gcc/arm-none-eabi/4.7.2//libgcc.a(pr-support.o)

.debug_ranges   0x00000000      0x188
 .debug_ranges  0x00000000       0x30 /home/leon/git/swp-report/iMX6_Platform_SDK/output/mx6sdl/lib/libsdk.a(menu.o)
 .debug_ranges  0x00000030       0x18 /home/leon/git/swp-report/iMX6_Platform_SDK/output/mx6sdl/lib/libsdk.a(system_util.o)
 .debug_ranges  0x00000048      0x140 /home/leon/git/swp-report/iMX6_Platform_SDK/output/mx6sdl/lib/libsdk.a(pmu_driver.o)

Cross Reference Table

Symbol                                            File
ALL_test                                          /home/leon/git/swp-report/iMX6_Platform_SDK/output/mx6sdl/sdk_unit_test/sabre_ai_rev_b/obj/apps/sdk_unit_test/src/all_test.o
                                                  /home/leon/git/swp-report/iMX6_Platform_SDK/output/mx6sdl/sdk_unit_test/sabre_ai_rev_b/obj/apps/sdk_unit_test/src/unit_test_main.o
Audio_ChannelCount                                /home/leon/git/swp-report/iMX6_Platform_SDK/output/mx6sdl/lib/libsdk.a(hdmi_tx_audio.o)
Delay4Reload                                      /home/leon/git/swp-report/iMX6_Platform_SDK/output/mx6sdl/lib/libsdk.a(ocotp.o)
IRQ_HDLR                                          /home/leon/git/swp-report/iMX6_Platform_SDK/output/mx6sdl/lib/libsdk.a(interrupt.o)
                                                  /home/leon/git/swp-report/iMX6_Platform_SDK/output/mx6sdl/lib/libsdk.a(vectors.o)
PLL1_OUTPUT                                       /home/leon/git/swp-report/iMX6_Platform_SDK/output/mx6sdl/lib/libsdk.a(ccm_pll.o)
PLL2_OUTPUT                                       /home/leon/git/swp-report/iMX6_Platform_SDK/output/mx6sdl/lib/libsdk.a(ccm_pll.o)
PLL3_OUTPUT                                       /home/leon/git/swp-report/iMX6_Platform_SDK/output/mx6sdl/lib/libsdk.a(ccm_pll.o)
PLL4_OUTPUT                                       /home/leon/git/swp-report/iMX6_Platform_SDK/output/mx6sdl/lib/libsdk.a(ccm_pll.o)
PLL5_OUTPUT                                       /home/leon/git/swp-report/iMX6_Platform_SDK/output/mx6sdl/lib/libsdk.a(ccm_pll.o)
SGI3_ISR                                          /home/leon/git/swp-report/iMX6_Platform_SDK/output/mx6sdl/sdk_unit_test/sabre_ai_rev_b/libsdk_unit_test.a(multicore_test.o)
StartPerfCounter                                  /home/leon/git/swp-report/iMX6_Platform_SDK/output/mx6sdl/lib/libsdk.a(profile.o)
                                                  /home/leon/git/swp-report/iMX6_Platform_SDK/output/mx6sdl/sdk_unit_test/sabre_ai_rev_b/libsdk_unit_test.a(mem_2_mem.o)
StopPerfCounter                                   /home/leon/git/swp-report/iMX6_Platform_SDK/output/mx6sdl/lib/libsdk.a(profile.o)
                                                  /home/leon/git/swp-report/iMX6_Platform_SDK/output/mx6sdl/sdk_unit_test/sabre_ai_rev_b/libsdk_unit_test.a(mem_2_mem.o)
_Balloc                                           /home/leon/riotboard/arm-2012.09/bin/../arm-none-eabi/lib//libc.a(lib_a-mprec.o)
                                                  /home/leon/riotboard/arm-2012.09/bin/../arm-none-eabi/lib//libc.a(lib_a-dtoa.o)
_Bfree                                            /home/leon/riotboard/arm-2012.09/bin/../arm-none-eabi/lib//libc.a(lib_a-mprec.o)
                                                  /home/leon/riotboard/arm-2012.09/bin/../arm-none-eabi/lib//libc.a(lib_a-dtoa.o)
_ITM_deregisterTMCloneTable                       /home/leon/riotboard/arm-2012.09/bin/../lib/gcc/arm-none-eabi/4.7.2//crtbegin.o
_ITM_registerTMCloneTable                         /home/leon/riotboard/arm-2012.09/bin/../lib/gcc/arm-none-eabi/4.7.2//crtbegin.o
_Jv_RegisterClasses                               /home/leon/riotboard/arm-2012.09/bin/../lib/gcc/arm-none-eabi/4.7.2//crtbegin.o
_PathLocale                                       /home/leon/riotboard/arm-2012.09/bin/../arm-none-eabi/lib//libc.a(lib_a-locale.o)
_Unwind_Backtrace                                 /home/leon/riotboard/arm-2012.09/bin/../lib/gcc/arm-none-eabi/4.7.2//libgcc.a(libunwind.o)
_Unwind_Complete                                  /home/leon/riotboard/arm-2012.09/bin/../lib/gcc/arm-none-eabi/4.7.2//libgcc.a(unwind-arm.o)
                                                  /home/leon/riotboard/arm-2012.09/bin/../arm-none-eabi/lib//libstdc++.a(eh_catch.o)
_Unwind_DeleteException                           /home/leon/riotboard/arm-2012.09/bin/../lib/gcc/arm-none-eabi/4.7.2//libgcc.a(unwind-arm.o)
                                                  /home/leon/riotboard/arm-2012.09/bin/../arm-none-eabi/lib//libstdc++.a(eh_catch.o)
_Unwind_ForcedUnwind                              /home/leon/riotboard/arm-2012.09/bin/../lib/gcc/arm-none-eabi/4.7.2//libgcc.a(libunwind.o)
_Unwind_GetCFA                                    /home/leon/riotboard/arm-2012.09/bin/../lib/gcc/arm-none-eabi/4.7.2//libgcc.a(unwind-arm.o)
_Unwind_GetDataRelBase                            /home/leon/riotboard/arm-2012.09/bin/../lib/gcc/arm-none-eabi/4.7.2//libgcc.a(pr-support.o)
                                                  /home/leon/riotboard/arm-2012.09/bin/../arm-none-eabi/lib//libstdc++.a(eh_personality.o)
_Unwind_GetLanguageSpecificData                   /home/leon/riotboard/arm-2012.09/bin/../lib/gcc/arm-none-eabi/4.7.2//libgcc.a(pr-support.o)
                                                  /home/leon/riotboard/arm-2012.09/bin/../arm-none-eabi/lib//libstdc++.a(eh_personality.o)
_Unwind_GetRegionStart                            /home/leon/riotboard/arm-2012.09/bin/../lib/gcc/arm-none-eabi/4.7.2//libgcc.a(pr-support.o)
                                                  /home/leon/riotboard/arm-2012.09/bin/../arm-none-eabi/lib//libstdc++.a(eh_personality.o)
_Unwind_GetTextRelBase                            /home/leon/riotboard/arm-2012.09/bin/../lib/gcc/arm-none-eabi/4.7.2//libgcc.a(pr-support.o)
                                                  /home/leon/riotboard/arm-2012.09/bin/../arm-none-eabi/lib//libstdc++.a(eh_personality.o)
_Unwind_RaiseException                            /home/leon/riotboard/arm-2012.09/bin/../lib/gcc/arm-none-eabi/4.7.2//libgcc.a(libunwind.o)
                                                  /home/leon/riotboard/arm-2012.09/bin/../arm-none-eabi/lib//libstdc++.a(eh_throw.o)
_Unwind_Resume                                    /home/leon/riotboard/arm-2012.09/bin/../lib/gcc/arm-none-eabi/4.7.2//libgcc.a(libunwind.o)
                                                  /home/leon/riotboard/arm-2012.09/bin/../arm-none-eabi/lib//libstdc++.a(eh_arm.o)
_Unwind_Resume_or_Rethrow                         /home/leon/riotboard/arm-2012.09/bin/../lib/gcc/arm-none-eabi/4.7.2//libgcc.a(libunwind.o)
                                                  /home/leon/riotboard/arm-2012.09/bin/../arm-none-eabi/lib//libstdc++.a(eh_throw.o)
_Unwind_VRS_Get                                   /home/leon/riotboard/arm-2012.09/bin/../lib/gcc/arm-none-eabi/4.7.2//libgcc.a(unwind-arm.o)
                                                  /home/leon/riotboard/arm-2012.09/bin/../lib/gcc/arm-none-eabi/4.7.2//libgcc.a(pr-support.o)
                                                  /home/leon/riotboard/arm-2012.09/bin/../arm-none-eabi/lib//libstdc++.a(eh_personality.o)
_Unwind_VRS_Pop                                   /home/leon/riotboard/arm-2012.09/bin/../lib/gcc/arm-none-eabi/4.7.2//libgcc.a(unwind-arm.o)
                                                  /home/leon/riotboard/arm-2012.09/bin/../lib/gcc/arm-none-eabi/4.7.2//libgcc.a(pr-support.o)
_Unwind_VRS_Set                                   /home/leon/riotboard/arm-2012.09/bin/../lib/gcc/arm-none-eabi/4.7.2//libgcc.a(unwind-arm.o)
                                                  /home/leon/riotboard/arm-2012.09/bin/../lib/gcc/arm-none-eabi/4.7.2//libgcc.a(pr-support.o)
                                                  /home/leon/riotboard/arm-2012.09/bin/../arm-none-eabi/lib//libstdc++.a(eh_personality.o)
__TMC_END__                                       /home/leon/riotboard/arm-2012.09/bin/../lib/gcc/arm-none-eabi/4.7.2//crtend.o
                                                  /home/leon/riotboard/arm-2012.09/bin/../lib/gcc/arm-none-eabi/4.7.2//crtbegin.o
___Unwind_Backtrace                               /home/leon/riotboard/arm-2012.09/bin/../lib/gcc/arm-none-eabi/4.7.2//libgcc.a(libunwind.o)
___Unwind_ForcedUnwind                            /home/leon/riotboard/arm-2012.09/bin/../lib/gcc/arm-none-eabi/4.7.2//libgcc.a(libunwind.o)
___Unwind_RaiseException                          /home/leon/riotboard/arm-2012.09/bin/../lib/gcc/arm-none-eabi/4.7.2//libgcc.a(libunwind.o)
___Unwind_Resume                                  /home/leon/riotboard/arm-2012.09/bin/../lib/gcc/arm-none-eabi/4.7.2//libgcc.a(libunwind.o)
___Unwind_Resume_or_Rethrow                       /home/leon/riotboard/arm-2012.09/bin/../lib/gcc/arm-none-eabi/4.7.2//libgcc.a(libunwind.o)
__adddf3                                          /home/leon/riotboard/arm-2012.09/bin/../lib/gcc/arm-none-eabi/4.7.2//libgcc.a(_arm_addsubdf3.o)
__addsf3                                          /home/leon/riotboard/arm-2012.09/bin/../lib/gcc/arm-none-eabi/4.7.2//libgcc.a(_arm_addsubsf3.o)
__aeabi_cdcmpeq                                   /home/leon/riotboard/arm-2012.09/bin/../lib/gcc/arm-none-eabi/4.7.2//libgcc.a(_arm_cmpdf2.o)
__aeabi_cdcmple                                   /home/leon/riotboard/arm-2012.09/bin/../lib/gcc/arm-none-eabi/4.7.2//libgcc.a(_arm_cmpdf2.o)
__aeabi_cdrcmple                                  /home/leon/riotboard/arm-2012.09/bin/../lib/gcc/arm-none-eabi/4.7.2//libgcc.a(_arm_cmpdf2.o)
__aeabi_cfcmpeq                                   /home/leon/riotboard/arm-2012.09/bin/../lib/gcc/arm-none-eabi/4.7.2//libgcc.a(_arm_cmpsf2.o)
__aeabi_cfcmple                                   /home/leon/riotboard/arm-2012.09/bin/../lib/gcc/arm-none-eabi/4.7.2//libgcc.a(_arm_cmpsf2.o)
__aeabi_cfrcmple                                  /home/leon/riotboard/arm-2012.09/bin/../lib/gcc/arm-none-eabi/4.7.2//libgcc.a(_arm_cmpsf2.o)
__aeabi_d2iz                                      /home/leon/riotboard/arm-2012.09/bin/../lib/gcc/arm-none-eabi/4.7.2//libgcc.a(_arm_fixdfsi.o)
                                                  /home/leon/riotboard/arm-2012.09/bin/../arm-none-eabi/lib//libc.a(lib_a-dtoa.o)
__aeabi_dadd                                      /home/leon/riotboard/arm-2012.09/bin/../lib/gcc/arm-none-eabi/4.7.2//libgcc.a(_arm_addsubdf3.o)
                                                  /home/leon/riotboard/arm-2012.09/bin/../arm-none-eabi/lib//libc.a(lib_a-dtoa.o)
__aeabi_dcmpeq                                    /home/leon/riotboard/arm-2012.09/bin/../lib/gcc/arm-none-eabi/4.7.2//libgcc.a(_arm_cmpdf2.o)
                                                  /home/leon/riotboard/arm-2012.09/bin/../arm-none-eabi/lib//libc.a(lib_a-dtoa.o)
                                                  /home/leon/riotboard/arm-2012.09/bin/../arm-none-eabi/lib//libc.a(lib_a-vfprintf.o)
                                                  /home/leon/riotboard/arm-2012.09/bin/../arm-none-eabi/lib//libc.a(lib_a-svfprintf.o)
__aeabi_dcmpge                                    /home/leon/riotboard/arm-2012.09/bin/../lib/gcc/arm-none-eabi/4.7.2//libgcc.a(_arm_cmpdf2.o)
                                                  /home/leon/riotboard/arm-2012.09/bin/../arm-none-eabi/lib//libc.a(lib_a-dtoa.o)
__aeabi_dcmpgt                                    /home/leon/riotboard/arm-2012.09/bin/../lib/gcc/arm-none-eabi/4.7.2//libgcc.a(_arm_cmpdf2.o)
                                                  /home/leon/riotboard/arm-2012.09/bin/../arm-none-eabi/lib//libc.a(lib_a-dtoa.o)
__aeabi_dcmple                                    /home/leon/riotboard/arm-2012.09/bin/../lib/gcc/arm-none-eabi/4.7.2//libgcc.a(_arm_cmpdf2.o)
__aeabi_dcmplt                                    /home/leon/riotboard/arm-2012.09/bin/../lib/gcc/arm-none-eabi/4.7.2//libgcc.a(_arm_cmpdf2.o)
                                                  /home/leon/riotboard/arm-2012.09/bin/../arm-none-eabi/lib//libc.a(lib_a-dtoa.o)
                                                  /home/leon/riotboard/arm-2012.09/bin/../arm-none-eabi/lib//libc.a(lib_a-vfprintf.o)
                                                  /home/leon/riotboard/arm-2012.09/bin/../arm-none-eabi/lib//libc.a(lib_a-svfprintf.o)
__aeabi_ddiv                                      /home/leon/riotboard/arm-2012.09/bin/../lib/gcc/arm-none-eabi/4.7.2//libgcc.a(_arm_muldivdf3.o)
                                                  /home/leon/riotboard/arm-2012.09/bin/../arm-none-eabi/lib//libc.a(lib_a-mprec.o)
                                                  /home/leon/riotboard/arm-2012.09/bin/../arm-none-eabi/lib//libc.a(lib_a-dtoa.o)
__aeabi_dmul                                      /home/leon/riotboard/arm-2012.09/bin/../lib/gcc/arm-none-eabi/4.7.2//libgcc.a(_arm_muldivdf3.o)
                                                  /home/leon/riotboard/arm-2012.09/bin/../arm-none-eabi/lib//libc.a(lib_a-mprec.o)
                                                  /home/leon/riotboard/arm-2012.09/bin/../arm-none-eabi/lib//libc.a(lib_a-dtoa.o)
__aeabi_drsub                                     /home/leon/riotboard/arm-2012.09/bin/../lib/gcc/arm-none-eabi/4.7.2//libgcc.a(_arm_addsubdf3.o)
__aeabi_dsub                                      /home/leon/riotboard/arm-2012.09/bin/../lib/gcc/arm-none-eabi/4.7.2//libgcc.a(_arm_addsubdf3.o)
                                                  /home/leon/riotboard/arm-2012.09/bin/../arm-none-eabi/lib//libc.a(lib_a-dtoa.o)
__aeabi_f2d                                       /home/leon/riotboard/arm-2012.09/bin/../lib/gcc/arm-none-eabi/4.7.2//libgcc.a(_arm_addsubdf3.o)
__aeabi_f2iz                                      /home/leon/riotboard/arm-2012.09/bin/../lib/gcc/arm-none-eabi/4.7.2//libgcc.a(_arm_fixsfsi.o)
                                                  /home/leon/riotboard/arm-2012.09/bin/../arm-none-eabi/lib//libm.a(lib_a-kf_sin.o)
                                                  /home/leon/riotboard/arm-2012.09/bin/../arm-none-eabi/lib//libm.a(lib_a-kf_rem_pio2.o)
                                                  /home/leon/riotboard/arm-2012.09/bin/../arm-none-eabi/lib//libm.a(lib_a-kf_cos.o)
                                                  /home/leon/riotboard/arm-2012.09/bin/../arm-none-eabi/lib//libm.a(lib_a-ef_rem_pio2.o)
__aeabi_fadd                                      /home/leon/riotboard/arm-2012.09/bin/../lib/gcc/arm-none-eabi/4.7.2//libgcc.a(_arm_addsubsf3.o)
                                                  /home/leon/riotboard/arm-2012.09/bin/../arm-none-eabi/lib//libm.a(lib_a-sf_scalbn.o)
                                                  /home/leon/riotboard/arm-2012.09/bin/../arm-none-eabi/lib//libm.a(lib_a-sf_floor.o)
                                                  /home/leon/riotboard/arm-2012.09/bin/../arm-none-eabi/lib//libm.a(lib_a-kf_sin.o)
                                                  /home/leon/riotboard/arm-2012.09/bin/../arm-none-eabi/lib//libm.a(lib_a-kf_rem_pio2.o)
                                                  /home/leon/riotboard/arm-2012.09/bin/../arm-none-eabi/lib//libm.a(lib_a-kf_cos.o)
                                                  /home/leon/riotboard/arm-2012.09/bin/../arm-none-eabi/lib//libm.a(lib_a-ef_rem_pio2.o)
__aeabi_fcmpeq                                    /home/leon/riotboard/arm-2012.09/bin/../lib/gcc/arm-none-eabi/4.7.2//libgcc.a(_arm_cmpsf2.o)
                                                  /home/leon/riotboard/arm-2012.09/bin/../arm-none-eabi/lib//libm.a(lib_a-kf_rem_pio2.o)
                                                  /home/leon/riotboard/arm-2012.09/bin/../arm-none-eabi/lib//libm.a(lib_a-ef_rem_pio2.o)
__aeabi_fcmpge                                    /home/leon/riotboard/arm-2012.09/bin/../lib/gcc/arm-none-eabi/4.7.2//libgcc.a(_arm_cmpsf2.o)
                                                  /home/leon/riotboard/arm-2012.09/bin/../arm-none-eabi/lib//libm.a(lib_a-kf_rem_pio2.o)
__aeabi_fcmpgt                                    /home/leon/riotboard/arm-2012.09/bin/../lib/gcc/arm-none-eabi/4.7.2//libgcc.a(_arm_cmpsf2.o)
                                                  /home/leon/riotboard/arm-2012.09/bin/../arm-none-eabi/lib//libm.a(lib_a-sf_floor.o)
__aeabi_fcmple                                    /home/leon/riotboard/arm-2012.09/bin/../lib/gcc/arm-none-eabi/4.7.2//libgcc.a(_arm_cmpsf2.o)
__aeabi_fcmplt                                    /home/leon/riotboard/arm-2012.09/bin/../lib/gcc/arm-none-eabi/4.7.2//libgcc.a(_arm_cmpsf2.o)
__aeabi_fdiv                                      /home/leon/riotboard/arm-2012.09/bin/../lib/gcc/arm-none-eabi/4.7.2//libgcc.a(_arm_muldivsf3.o)
__aeabi_fmul                                      /home/leon/riotboard/arm-2012.09/bin/../lib/gcc/arm-none-eabi/4.7.2//libgcc.a(_arm_muldivsf3.o)
                                                  /home/leon/riotboard/arm-2012.09/bin/../arm-none-eabi/lib//libm.a(lib_a-sf_scalbn.o)
                                                  /home/leon/riotboard/arm-2012.09/bin/../arm-none-eabi/lib//libm.a(lib_a-kf_sin.o)
                                                  /home/leon/riotboard/arm-2012.09/bin/../arm-none-eabi/lib//libm.a(lib_a-kf_rem_pio2.o)
                                                  /home/leon/riotboard/arm-2012.09/bin/../arm-none-eabi/lib//libm.a(lib_a-kf_cos.o)
                                                  /home/leon/riotboard/arm-2012.09/bin/../arm-none-eabi/lib//libm.a(lib_a-ef_rem_pio2.o)
__aeabi_frsub                                     /home/leon/riotboard/arm-2012.09/bin/../lib/gcc/arm-none-eabi/4.7.2//libgcc.a(_arm_addsubsf3.o)
__aeabi_fsub                                      /home/leon/riotboard/arm-2012.09/bin/../lib/gcc/arm-none-eabi/4.7.2//libgcc.a(_arm_addsubsf3.o)
                                                  /home/leon/riotboard/arm-2012.09/bin/../arm-none-eabi/lib//libm.a(lib_a-kf_sin.o)
                                                  /home/leon/riotboard/arm-2012.09/bin/../arm-none-eabi/lib//libm.a(lib_a-kf_rem_pio2.o)
                                                  /home/leon/riotboard/arm-2012.09/bin/../arm-none-eabi/lib//libm.a(lib_a-kf_cos.o)
                                                  /home/leon/riotboard/arm-2012.09/bin/../arm-none-eabi/lib//libm.a(lib_a-ef_rem_pio2.o)
                                                  /home/leon/riotboard/arm-2012.09/bin/../arm-none-eabi/lib//libm.a(lib_a-sf_sin.o)
                                                  /home/leon/riotboard/arm-2012.09/bin/../arm-none-eabi/lib//libm.a(lib_a-sf_modf.o)
                                                  /home/leon/riotboard/arm-2012.09/bin/../arm-none-eabi/lib//libm.a(lib_a-sf_cos.o)
__aeabi_i2d                                       /home/leon/riotboard/arm-2012.09/bin/../lib/gcc/arm-none-eabi/4.7.2//libgcc.a(_arm_addsubdf3.o)
                                                  /home/leon/riotboard/arm-2012.09/bin/../arm-none-eabi/lib//libc.a(lib_a-dtoa.o)
__aeabi_i2f                                       /home/leon/riotboard/arm-2012.09/bin/../lib/gcc/arm-none-eabi/4.7.2//libgcc.a(_arm_addsubsf3.o)
                                                  /home/leon/riotboard/arm-2012.09/bin/../arm-none-eabi/lib//libm.a(lib_a-kf_rem_pio2.o)
                                                  /home/leon/riotboard/arm-2012.09/bin/../arm-none-eabi/lib//libm.a(lib_a-ef_rem_pio2.o)
__aeabi_idiv                                      /home/leon/riotboard/arm-2012.09/bin/../lib/gcc/arm-none-eabi/4.7.2//libgcc.a(_divsi3.o)
                                                  /home/leon/git/swp-report/iMX6_Platform_SDK/output/mx6sdl/lib/libsdk.a(usdhc_host.o)
                                                  /home/leon/git/swp-report/iMX6_Platform_SDK/output/mx6sdl/lib/libsdk.a(ipu_ic.o)
                                                  /home/leon/git/swp-report/iMX6_Platform_SDK/output/mx6sdl/lib/libsdk.a(ipu_common.o)
__aeabi_idiv0                                     /home/leon/riotboard/arm-2012.09/bin/../lib/gcc/arm-none-eabi/4.7.2//libgcc.a(_dvmd_tls.o)
                                                  /home/leon/riotboard/arm-2012.09/bin/../lib/gcc/arm-none-eabi/4.7.2//libgcc.a(_divsi3.o)
                                                  /home/leon/riotboard/arm-2012.09/bin/../lib/gcc/arm-none-eabi/4.7.2//libgcc.a(_udivsi3.o)
__aeabi_idivmod                                   /home/leon/riotboard/arm-2012.09/bin/../lib/gcc/arm-none-eabi/4.7.2//libgcc.a(_divsi3.o)
                                                  /home/leon/git/swp-report/iMX6_Platform_SDK/output/mx6sdl/lib/libsdk.a(usdhc_host.o)
                                                  /home/leon/git/swp-report/iMX6_Platform_SDK/output/mx6sdl/lib/libsdk.a(ipu_common.o)
                                                  /home/leon/git/swp-report/iMX6_Platform_SDK/output/mx6sdl/sdk_unit_test/sabre_ai_rev_b/libsdk_unit_test.a(cfi_flash_driver.o)
__aeabi_l2d                                       /home/leon/riotboard/arm-2012.09/bin/../lib/gcc/arm-none-eabi/4.7.2//libgcc.a(_arm_addsubdf3.o)
__aeabi_l2f                                       /home/leon/riotboard/arm-2012.09/bin/../lib/gcc/arm-none-eabi/4.7.2//libgcc.a(_arm_addsubsf3.o)
__aeabi_ldiv0                                     /home/leon/riotboard/arm-2012.09/bin/../lib/gcc/arm-none-eabi/4.7.2//libgcc.a(_dvmd_tls.o)
                                                  /home/leon/riotboard/arm-2012.09/bin/../lib/gcc/arm-none-eabi/4.7.2//libgcc.a(_aeabi_uldivmod.o)
__aeabi_ui2d                                      /home/leon/riotboard/arm-2012.09/bin/../lib/gcc/arm-none-eabi/4.7.2//libgcc.a(_arm_addsubdf3.o)
                                                  /home/leon/riotboard/arm-2012.09/bin/../arm-none-eabi/lib//libc.a(lib_a-dtoa.o)
__aeabi_ui2f                                      /home/leon/riotboard/arm-2012.09/bin/../lib/gcc/arm-none-eabi/4.7.2//libgcc.a(_arm_addsubsf3.o)
__aeabi_uidiv                                     /home/leon/riotboard/arm-2012.09/bin/../lib/gcc/arm-none-eabi/4.7.2//libgcc.a(_udivsi3.o)
                                                  /home/leon/riotboard/arm-2012.09/bin/../arm-none-eabi/lib//libc.a(lib_a-fwrite.o)
                                                  /home/leon/git/swp-report/iMX6_Platform_SDK/output/mx6sdl/lib/libsdk.a(imx_i2c.o)
                                                  /home/leon/riotboard/arm-2012.09/bin/../lib/gcc/arm-none-eabi/4.7.2//libgcc.a(_udivdi3.o)
                                                  /home/leon/riotboard/arm-2012.09/bin/../lib/gcc/arm-none-eabi/4.7.2//libgcc.a(_divdi3.o)
                                                  /home/leon/riotboard/arm-2012.09/bin/../arm-none-eabi/lib//libc.a(lib_a-dtoa.o)
                                                  /home/leon/git/swp-report/iMX6_Platform_SDK/output/mx6sdl/sdk_unit_test/sabre_ai_rev_b/libsdk_unit_test.a(cfi_flash_driver.o)
                                                  /home/leon/git/swp-report/iMX6_Platform_SDK/output/mx6sdl/sdk_unit_test/sabre_ai_rev_b/libsdk_unit_test.a(ips_resize.o)
                                                  /home/leon/git/swp-report/iMX6_Platform_SDK/output/mx6sdl/sdk_unit_test/sabre_ai_rev_b/libsdk_unit_test.a(gpt_test.o)
                                                  /home/leon/git/swp-report/iMX6_Platform_SDK/output/mx6sdl/lib/libsdk.a(ccm_pll.o)
__aeabi_uidivmod                                  /home/leon/riotboard/arm-2012.09/bin/../lib/gcc/arm-none-eabi/4.7.2//libgcc.a(_udivsi3.o)
                                                  /home/leon/riotboard/arm-2012.09/bin/../lib/gcc/arm-none-eabi/4.7.2//libgcc.a(_udivdi3.o)
                                                  /home/leon/riotboard/arm-2012.09/bin/../lib/gcc/arm-none-eabi/4.7.2//libgcc.a(_divdi3.o)
                                                  /home/leon/git/swp-report/iMX6_Platform_SDK/output/mx6sdl/sdk_unit_test/sabre_ai_rev_b/libsdk_unit_test.a(cfi_flash_driver.o)
__aeabi_ul2d                                      /home/leon/riotboard/arm-2012.09/bin/../lib/gcc/arm-none-eabi/4.7.2//libgcc.a(_arm_addsubdf3.o)
__aeabi_ul2f                                      /home/leon/riotboard/arm-2012.09/bin/../lib/gcc/arm-none-eabi/4.7.2//libgcc.a(_arm_addsubsf3.o)
__aeabi_uldivmod                                  /home/leon/riotboard/arm-2012.09/bin/../lib/gcc/arm-none-eabi/4.7.2//libgcc.a(_aeabi_uldivmod.o)
                                                  /home/leon/git/swp-report/iMX6_Platform_SDK/output/mx6sdl/lib/libsdk.a(runtime_support.o)
                                                  /home/leon/riotboard/arm-2012.09/bin/../arm-none-eabi/lib//libc.a(lib_a-svfiprintf.o)
                                                  /home/leon/riotboard/arm-2012.09/bin/../arm-none-eabi/lib//libc.a(lib_a-vfprintf.o)
                                                  /home/leon/riotboard/arm-2012.09/bin/../arm-none-eabi/lib//libc.a(lib_a-vfiprintf.o)
                                                  /home/leon/riotboard/arm-2012.09/bin/../arm-none-eabi/lib//libc.a(lib_a-svfprintf.o)
                                                  /home/leon/git/swp-report/iMX6_Platform_SDK/output/mx6sdl/lib/libsdk.a(timer.o)
__aeabi_unwind_cpp_pr0                            /home/leon/riotboard/arm-2012.09/bin/../lib/gcc/arm-none-eabi/4.7.2//libgcc.a(unwind-arm.o)
                                                  /home/leon/riotboard/arm-2012.09/bin/../lib/gcc/arm-none-eabi/4.7.2//libgcc.a(pr-support.o)
                                                  /home/leon/riotboard/arm-2012.09/bin/../arm-none-eabi/lib//libstdc++.a(class_type_info.o)
                                                  /home/leon/riotboard/arm-2012.09/bin/../arm-none-eabi/lib//libstdc++.a(eh_personality.o)
                                                  /home/leon/riotboard/arm-2012.09/bin/../arm-none-eabi/lib//libstdc++.a(si_class_type_info.o)
                                                  /home/leon/riotboard/arm-2012.09/bin/../arm-none-eabi/lib//libstdc++.a(eh_arm.o)
                                                  /home/leon/riotboard/arm-2012.09/bin/../arm-none-eabi/lib//libstdc++.a(eh_throw.o)
__aeabi_unwind_cpp_pr1                            /home/leon/riotboard/arm-2012.09/bin/../lib/gcc/arm-none-eabi/4.7.2//libgcc.a(unwind-arm.o)
                                                  /home/leon/riotboard/arm-2012.09/bin/../lib/gcc/arm-none-eabi/4.7.2//libgcc.a(pr-support.o)
                                                  /home/leon/riotboard/arm-2012.09/bin/../arm-none-eabi/lib//libstdc++.a(eh_catch.o)
                                                  /home/leon/riotboard/arm-2012.09/bin/../arm-none-eabi/lib//libstdc++.a(eh_personality.o)
                                                  /home/leon/riotboard/arm-2012.09/bin/../arm-none-eabi/lib//libstdc++.a(eh_terminate.o)
                                                  /home/leon/riotboard/arm-2012.09/bin/../arm-none-eabi/lib//libstdc++.a(pure.o)
__aeabi_unwind_cpp_pr2                            /home/leon/riotboard/arm-2012.09/bin/../lib/gcc/arm-none-eabi/4.7.2//libgcc.a(unwind-arm.o)
__any_on                                          /home/leon/riotboard/arm-2012.09/bin/../arm-none-eabi/lib//libc.a(lib_a-mprec.o)
__ascii_wctomb                                    /home/leon/riotboard/arm-2012.09/bin/../arm-none-eabi/lib//libc.a(lib_a-wctomb_r.o)
__assert                                          /home/leon/riotboard/arm-2012.09/bin/../arm-none-eabi/lib//libc.a(lib_a-assert.o)
__assert_func                                     /home/leon/riotboard/arm-2012.09/bin/../arm-none-eabi/lib//libc.a(lib_a-assert.o)
                                                  /home/leon/git/swp-report/iMX6_Platform_SDK/output/mx6sdl/lib/libboard_sabre_ai_rev_b.a(usdhc_iomux_config.o)
                                                  /home/leon/git/swp-report/iMX6_Platform_SDK/output/mx6sdl/lib/libboard_sabre_ai_rev_b.a(pwm_iomux_config.o)
                                                  /home/leon/git/swp-report/iMX6_Platform_SDK/output/mx6sdl/lib/libboard_sabre_ai_rev_b.a(i2c_iomux_config.o)
                                                  /home/leon/git/swp-report/iMX6_Platform_SDK/output/mx6sdl/lib/libboard_sabre_ai_rev_b.a(flexcan_iomux_config.o)
                                                  /home/leon/git/swp-report/iMX6_Platform_SDK/output/mx6sdl/lib/libboard_sabre_ai_rev_b.a(ecspi_iomux_config.o)
                                                  /home/leon/git/swp-report/iMX6_Platform_SDK/output/mx6sdl/lib/libsdk.a(cpu_multicore.o)
                                                  /home/leon/git/swp-report/iMX6_Platform_SDK/output/mx6sdl/lib/libboard_sabre_ai_rev_b.a(uart_iomux_config.o)
                                                  /home/leon/git/swp-report/iMX6_Platform_SDK/output/mx6sdl/lib/libsdk.a(gic.o)
__b2d                                             /home/leon/riotboard/arm-2012.09/bin/../arm-none-eabi/lib//libc.a(lib_a-mprec.o)
__bss_end__                                       /home/leon/git/swp-report/iMX6_Platform_SDK/output/mx6sdl/lib/libsdk.a(startup.o)
__bss_start__                                     /home/leon/git/swp-report/iMX6_Platform_SDK/output/mx6sdl/lib/libsdk.a(startup.o)
__clzsi2                                          /home/leon/riotboard/arm-2012.09/bin/../lib/gcc/arm-none-eabi/4.7.2//libgcc.a(_clzsi2.o)
                                                  /home/leon/riotboard/arm-2012.09/bin/../lib/gcc/arm-none-eabi/4.7.2//libgcc.a(_udivdi3.o)
                                                  /home/leon/riotboard/arm-2012.09/bin/../lib/gcc/arm-none-eabi/4.7.2//libgcc.a(_divdi3.o)
__cmpdf2                                          /home/leon/riotboard/arm-2012.09/bin/../lib/gcc/arm-none-eabi/4.7.2//libgcc.a(_arm_cmpdf2.o)
__cmpsf2                                          /home/leon/riotboard/arm-2012.09/bin/../lib/gcc/arm-none-eabi/4.7.2//libgcc.a(_arm_cmpsf2.o)
__copybits                                        /home/leon/riotboard/arm-2012.09/bin/../arm-none-eabi/lib//libc.a(lib_a-mprec.o)
__ctype_ptr__                                     /home/leon/riotboard/arm-2012.09/bin/../arm-none-eabi/lib//libc.a(lib_a-ctype_.o)
                                                  /home/leon/riotboard/arm-2012.09/bin/../arm-none-eabi/lib//libc.a(lib_a-strncasecmp.o)
__cxa_allocate_dependent_exception                /home/leon/riotboard/arm-2012.09/bin/../arm-none-eabi/lib//libstdc++.a(eh_alloc.o)
__cxa_allocate_exception                          /home/leon/riotboard/arm-2012.09/bin/../arm-none-eabi/lib//libstdc++.a(eh_alloc.o)
                                                  /home/leon/riotboard/arm-2012.09/bin/../arm-none-eabi/lib//libstdc++.a(eh_call.o)
__cxa_begin_catch                                 /home/leon/riotboard/arm-2012.09/bin/../arm-none-eabi/lib//libstdc++.a(eh_catch.o)
                                                  /home/leon/riotboard/arm-2012.09/bin/../arm-none-eabi/lib//libstdc++.a(vterminate.o)
                                                  /home/leon/riotboard/arm-2012.09/bin/../arm-none-eabi/lib//libstdc++.a(eh_personality.o)
                                                  /home/leon/riotboard/arm-2012.09/bin/../arm-none-eabi/lib//libstdc++.a(eh_throw.o)
                                                  /home/leon/riotboard/arm-2012.09/bin/../arm-none-eabi/lib//libstdc++.a(eh_call.o)
                                                  /home/leon/riotboard/arm-2012.09/bin/../arm-none-eabi/lib//libstdc++.a(eh_terminate.o)
__cxa_begin_cleanup                               /home/leon/riotboard/arm-2012.09/bin/../arm-none-eabi/lib//libstdc++.a(eh_arm.o)
                                                  /home/leon/riotboard/arm-2012.09/bin/../lib/gcc/arm-none-eabi/4.7.2//libgcc.a(unwind-arm.o)
                                                  /home/leon/riotboard/arm-2012.09/bin/../arm-none-eabi/lib//libstdc++.a(eh_personality.o)
__cxa_call_terminate                              /home/leon/riotboard/arm-2012.09/bin/../arm-none-eabi/lib//libstdc++.a(eh_call.o)
                                                  /home/leon/riotboard/arm-2012.09/bin/../arm-none-eabi/lib//libstdc++.a(eh_personality.o)
__cxa_call_unexpected                             /home/leon/riotboard/arm-2012.09/bin/../arm-none-eabi/lib//libstdc++.a(eh_call.o)
                                                  /home/leon/riotboard/arm-2012.09/bin/../lib/gcc/arm-none-eabi/4.7.2//libgcc.a(unwind-arm.o)
                                                  /home/leon/riotboard/arm-2012.09/bin/../arm-none-eabi/lib//libstdc++.a(eh_catch.o)
                                                  /home/leon/riotboard/arm-2012.09/bin/../arm-none-eabi/lib//libstdc++.a(eh_terminate.o)
__cxa_current_exception_type                      /home/leon/riotboard/arm-2012.09/bin/../arm-none-eabi/lib//libstdc++.a(eh_type.o)
                                                  /home/leon/riotboard/arm-2012.09/bin/../arm-none-eabi/lib//libstdc++.a(vterminate.o)
__cxa_deleted_virtual                             /home/leon/riotboard/arm-2012.09/bin/../arm-none-eabi/lib//libstdc++.a(pure.o)
__cxa_demangle                                    /home/leon/riotboard/arm-2012.09/bin/../arm-none-eabi/lib//libstdc++.a(cp-demangle.o)
                                                  /home/leon/riotboard/arm-2012.09/bin/../arm-none-eabi/lib//libstdc++.a(vterminate.o)
__cxa_end_catch                                   /home/leon/riotboard/arm-2012.09/bin/../arm-none-eabi/lib//libstdc++.a(eh_catch.o)
                                                  /home/leon/riotboard/arm-2012.09/bin/../arm-none-eabi/lib//libstdc++.a(vterminate.o)
                                                  /home/leon/riotboard/arm-2012.09/bin/../arm-none-eabi/lib//libstdc++.a(eh_call.o)
                                                  /home/leon/riotboard/arm-2012.09/bin/../arm-none-eabi/lib//libstdc++.a(eh_terminate.o)
__cxa_end_cleanup                                 /home/leon/riotboard/arm-2012.09/bin/../arm-none-eabi/lib//libstdc++.a(eh_arm.o)
                                                  /home/leon/riotboard/arm-2012.09/bin/../arm-none-eabi/lib//libstdc++.a(vterminate.o)
                                                  /home/leon/riotboard/arm-2012.09/bin/../arm-none-eabi/lib//libstdc++.a(eh_catch.o)
                                                  /home/leon/riotboard/arm-2012.09/bin/../arm-none-eabi/lib//libstdc++.a(eh_call.o)
                                                  /home/leon/riotboard/arm-2012.09/bin/../arm-none-eabi/lib//libstdc++.a(eh_terminate.o)
__cxa_free_dependent_exception                    /home/leon/riotboard/arm-2012.09/bin/../arm-none-eabi/lib//libstdc++.a(eh_alloc.o)
__cxa_free_exception                              /home/leon/riotboard/arm-2012.09/bin/../arm-none-eabi/lib//libstdc++.a(eh_alloc.o)
                                                  /home/leon/riotboard/arm-2012.09/bin/../arm-none-eabi/lib//libstdc++.a(eh_throw.o)
__cxa_get_exception_ptr                           /home/leon/riotboard/arm-2012.09/bin/../arm-none-eabi/lib//libstdc++.a(eh_catch.o)
__cxa_get_globals                                 /home/leon/riotboard/arm-2012.09/bin/../arm-none-eabi/lib//libstdc++.a(eh_globals.o)
                                                  /home/leon/riotboard/arm-2012.09/bin/../arm-none-eabi/lib//libstdc++.a(eh_type.o)
                                                  /home/leon/riotboard/arm-2012.09/bin/../arm-none-eabi/lib//libstdc++.a(eh_catch.o)
                                                  /home/leon/riotboard/arm-2012.09/bin/../arm-none-eabi/lib//libstdc++.a(eh_alloc.o)
                                                  /home/leon/riotboard/arm-2012.09/bin/../arm-none-eabi/lib//libstdc++.a(eh_arm.o)
                                                  /home/leon/riotboard/arm-2012.09/bin/../arm-none-eabi/lib//libstdc++.a(eh_throw.o)
__cxa_get_globals_fast                            /home/leon/riotboard/arm-2012.09/bin/../arm-none-eabi/lib//libstdc++.a(eh_globals.o)
                                                  /home/leon/riotboard/arm-2012.09/bin/../arm-none-eabi/lib//libstdc++.a(eh_catch.o)
                                                  /home/leon/riotboard/arm-2012.09/bin/../arm-none-eabi/lib//libstdc++.a(eh_call.o)
__cxa_pure_virtual                                /home/leon/riotboard/arm-2012.09/bin/../arm-none-eabi/lib//libstdc++.a(pure.o)
                                                  /home/leon/riotboard/arm-2012.09/bin/../arm-none-eabi/lib//libstdc++.a(eh_exception.o)
                                                  /home/leon/git/swp-report/iMX6_Platform_SDK/output/mx6sdl/lib/libsdk.a(pmu_driver.o)
__cxa_rethrow                                     /home/leon/riotboard/arm-2012.09/bin/../arm-none-eabi/lib//libstdc++.a(eh_throw.o)
                                                  /home/leon/riotboard/arm-2012.09/bin/../arm-none-eabi/lib//libstdc++.a(vterminate.o)
                                                  /home/leon/riotboard/arm-2012.09/bin/../arm-none-eabi/lib//libstdc++.a(eh_call.o)
__cxa_throw                                       /home/leon/riotboard/arm-2012.09/bin/../arm-none-eabi/lib//libstdc++.a(eh_throw.o)
                                                  /home/leon/riotboard/arm-2012.09/bin/../arm-none-eabi/lib//libstdc++.a(eh_call.o)
__cxa_type_match                                  /home/leon/riotboard/arm-2012.09/bin/../arm-none-eabi/lib//libstdc++.a(eh_arm.o)
                                                  /home/leon/riotboard/arm-2012.09/bin/../lib/gcc/arm-none-eabi/4.7.2//libgcc.a(unwind-arm.o)
                                                  /home/leon/riotboard/arm-2012.09/bin/../arm-none-eabi/lib//libstdc++.a(eh_personality.o)
                                                  /home/leon/riotboard/arm-2012.09/bin/../arm-none-eabi/lib//libstdc++.a(eh_call.o)
__cxxabiv1::__class_type_info::__do_catch(std::type_info const*, void**, unsigned int) const /home/leon/riotboard/arm-2012.09/bin/../arm-none-eabi/lib//libstdc++.a(class_type_info.o)
                                                  /home/leon/riotboard/arm-2012.09/bin/../arm-none-eabi/lib//libstdc++.a(si_class_type_info.o)
__cxxabiv1::__class_type_info::__do_dyncast(int, __cxxabiv1::__class_type_info::__sub_kind, __cxxabiv1::__class_type_info const*, void const*, __cxxabiv1::__class_type_info const*, void const*, __cxxabiv1::__class_type_info::__dyncast_result&) const /home/leon/riotboard/arm-2012.09/bin/../arm-none-eabi/lib//libstdc++.a(class_type_info.o)
__cxxabiv1::__class_type_info::__do_find_public_src(int, void const*, __cxxabiv1::__class_type_info const*, void const*) const /home/leon/riotboard/arm-2012.09/bin/../arm-none-eabi/lib//libstdc++.a(class_type_info.o)
__cxxabiv1::__class_type_info::__do_upcast(__cxxabiv1::__class_type_info const*, void const*, __cxxabiv1::__class_type_info::__upcast_result&) const /home/leon/riotboard/arm-2012.09/bin/../arm-none-eabi/lib//libstdc++.a(class_type_info.o)
                                                  /home/leon/riotboard/arm-2012.09/bin/../arm-none-eabi/lib//libstdc++.a(si_class_type_info.o)
__cxxabiv1::__class_type_info::__do_upcast(__cxxabiv1::__class_type_info const*, void**) const /home/leon/riotboard/arm-2012.09/bin/../arm-none-eabi/lib//libstdc++.a(class_type_info.o)
                                                  /home/leon/riotboard/arm-2012.09/bin/../arm-none-eabi/lib//libstdc++.a(si_class_type_info.o)
__cxxabiv1::__class_type_info::~__class_type_info() /home/leon/riotboard/arm-2012.09/bin/../arm-none-eabi/lib//libstdc++.a(class_type_info.o)
__cxxabiv1::__class_type_info::~__class_type_info() /home/leon/riotboard/arm-2012.09/bin/../arm-none-eabi/lib//libstdc++.a(class_type_info.o)
                                                  /home/leon/riotboard/arm-2012.09/bin/../arm-none-eabi/lib//libstdc++.a(si_class_type_info.o)
__cxxabiv1::__class_type_info::~__class_type_info() /home/leon/riotboard/arm-2012.09/bin/../arm-none-eabi/lib//libstdc++.a(class_type_info.o)
__cxxabiv1::__forced_unwind::~__forced_unwind()   /home/leon/riotboard/arm-2012.09/bin/../arm-none-eabi/lib//libstdc++.a(eh_exception.o)
__cxxabiv1::__forced_unwind::~__forced_unwind()   /home/leon/riotboard/arm-2012.09/bin/../arm-none-eabi/lib//libstdc++.a(eh_exception.o)
__cxxabiv1::__forced_unwind::~__forced_unwind()   /home/leon/riotboard/arm-2012.09/bin/../arm-none-eabi/lib//libstdc++.a(eh_exception.o)
__cxxabiv1::__foreign_exception::~__foreign_exception() /home/leon/riotboard/arm-2012.09/bin/../arm-none-eabi/lib//libstdc++.a(eh_exception.o)
__cxxabiv1::__foreign_exception::~__foreign_exception() /home/leon/riotboard/arm-2012.09/bin/../arm-none-eabi/lib//libstdc++.a(eh_exception.o)
__cxxabiv1::__foreign_exception::~__foreign_exception() /home/leon/riotboard/arm-2012.09/bin/../arm-none-eabi/lib//libstdc++.a(eh_exception.o)
__cxxabiv1::__si_class_type_info::__do_dyncast(int, __cxxabiv1::__class_type_info::__sub_kind, __cxxabiv1::__class_type_info const*, void const*, __cxxabiv1::__class_type_info const*, void const*, __cxxabiv1::__class_type_info::__dyncast_result&) const /home/leon/riotboard/arm-2012.09/bin/../arm-none-eabi/lib//libstdc++.a(si_class_type_info.o)
__cxxabiv1::__si_class_type_info::__do_find_public_src(int, void const*, __cxxabiv1::__class_type_info const*, void const*) const /home/leon/riotboard/arm-2012.09/bin/../arm-none-eabi/lib//libstdc++.a(si_class_type_info.o)
__cxxabiv1::__si_class_type_info::__do_upcast(__cxxabiv1::__class_type_info const*, void const*, __cxxabiv1::__class_type_info::__upcast_result&) const /home/leon/riotboard/arm-2012.09/bin/../arm-none-eabi/lib//libstdc++.a(si_class_type_info.o)
__cxxabiv1::__si_class_type_info::~__si_class_type_info() /home/leon/riotboard/arm-2012.09/bin/../arm-none-eabi/lib//libstdc++.a(si_class_type_info.o)
__cxxabiv1::__si_class_type_info::~__si_class_type_info() /home/leon/riotboard/arm-2012.09/bin/../arm-none-eabi/lib//libstdc++.a(si_class_type_info.o)
__cxxabiv1::__si_class_type_info::~__si_class_type_info() /home/leon/riotboard/arm-2012.09/bin/../arm-none-eabi/lib//libstdc++.a(si_class_type_info.o)
__cxxabiv1::__terminate(void (*)())               /home/leon/riotboard/arm-2012.09/bin/../arm-none-eabi/lib//libstdc++.a(eh_terminate.o)
                                                  /home/leon/riotboard/arm-2012.09/bin/../arm-none-eabi/lib//libstdc++.a(eh_throw.o)
                                                  /home/leon/riotboard/arm-2012.09/bin/../arm-none-eabi/lib//libstdc++.a(eh_call.o)
__cxxabiv1::__terminate_handler                   /home/leon/riotboard/arm-2012.09/bin/../arm-none-eabi/lib//libstdc++.a(eh_term_handler.o)
                                                  /home/leon/riotboard/arm-2012.09/bin/../arm-none-eabi/lib//libstdc++.a(eh_throw.o)
                                                  /home/leon/riotboard/arm-2012.09/bin/../arm-none-eabi/lib//libstdc++.a(eh_terminate.o)
__cxxabiv1::__unexpected(void (*)())              /home/leon/riotboard/arm-2012.09/bin/../arm-none-eabi/lib//libstdc++.a(eh_terminate.o)
                                                  /home/leon/riotboard/arm-2012.09/bin/../arm-none-eabi/lib//libstdc++.a(eh_call.o)
__cxxabiv1::__unexpected_handler                  /home/leon/riotboard/arm-2012.09/bin/../arm-none-eabi/lib//libstdc++.a(eh_unex_handler.o)
                                                  /home/leon/riotboard/arm-2012.09/bin/../arm-none-eabi/lib//libstdc++.a(eh_throw.o)
                                                  /home/leon/riotboard/arm-2012.09/bin/../arm-none-eabi/lib//libstdc++.a(eh_terminate.o)
__d2b                                             /home/leon/riotboard/arm-2012.09/bin/../arm-none-eabi/lib//libc.a(lib_a-mprec.o)
                                                  /home/leon/riotboard/arm-2012.09/bin/../arm-none-eabi/lib//libc.a(lib_a-dtoa.o)
__deregister_frame_info                           /home/leon/riotboard/arm-2012.09/bin/../lib/gcc/arm-none-eabi/4.7.2//crtbegin.o
__divdf3                                          /home/leon/riotboard/arm-2012.09/bin/../lib/gcc/arm-none-eabi/4.7.2//libgcc.a(_arm_muldivdf3.o)
__divdi3                                          /home/leon/riotboard/arm-2012.09/bin/../lib/gcc/arm-none-eabi/4.7.2//libgcc.a(_divdi3.o)
                                                  /home/leon/riotboard/arm-2012.09/bin/../lib/gcc/arm-none-eabi/4.7.2//libgcc.a(bpabi.o)
__divsf3                                          /home/leon/riotboard/arm-2012.09/bin/../lib/gcc/arm-none-eabi/4.7.2//libgcc.a(_arm_muldivsf3.o)
__divsi3                                          /home/leon/riotboard/arm-2012.09/bin/../lib/gcc/arm-none-eabi/4.7.2//libgcc.a(_divsi3.o)
__dso_handle                                      /home/leon/riotboard/arm-2012.09/bin/../lib/gcc/arm-none-eabi/4.7.2//crtbegin.o
__env                                             /home/leon/git/swp-report/iMX6_Platform_SDK/output/mx6sdl/lib/libsdk.a(runtime_support.o)
__eqdf2                                           /home/leon/riotboard/arm-2012.09/bin/../lib/gcc/arm-none-eabi/4.7.2//libgcc.a(_arm_cmpdf2.o)
__eqsf2                                           /home/leon/riotboard/arm-2012.09/bin/../lib/gcc/arm-none-eabi/4.7.2//libgcc.a(_arm_cmpsf2.o)
__exidx_end                                       /home/leon/riotboard/arm-2012.09/bin/../lib/gcc/arm-none-eabi/4.7.2//libgcc.a(unwind-arm.o)
__exidx_start                                     /home/leon/riotboard/arm-2012.09/bin/../lib/gcc/arm-none-eabi/4.7.2//libgcc.a(unwind-arm.o)
__extendsfdf2                                     /home/leon/riotboard/arm-2012.09/bin/../lib/gcc/arm-none-eabi/4.7.2//libgcc.a(_arm_addsubdf3.o)
__fixdfsi                                         /home/leon/riotboard/arm-2012.09/bin/../lib/gcc/arm-none-eabi/4.7.2//libgcc.a(_arm_fixdfsi.o)
__fixsfsi                                         /home/leon/riotboard/arm-2012.09/bin/../lib/gcc/arm-none-eabi/4.7.2//libgcc.a(_arm_fixsfsi.o)
__floatdidf                                       /home/leon/riotboard/arm-2012.09/bin/../lib/gcc/arm-none-eabi/4.7.2//libgcc.a(_arm_addsubdf3.o)
__floatdisf                                       /home/leon/riotboard/arm-2012.09/bin/../lib/gcc/arm-none-eabi/4.7.2//libgcc.a(_arm_addsubsf3.o)
__floatsidf                                       /home/leon/riotboard/arm-2012.09/bin/../lib/gcc/arm-none-eabi/4.7.2//libgcc.a(_arm_addsubdf3.o)
__floatsisf                                       /home/leon/riotboard/arm-2012.09/bin/../lib/gcc/arm-none-eabi/4.7.2//libgcc.a(_arm_addsubsf3.o)
__floatundidf                                     /home/leon/riotboard/arm-2012.09/bin/../lib/gcc/arm-none-eabi/4.7.2//libgcc.a(_arm_addsubdf3.o)
__floatundisf                                     /home/leon/riotboard/arm-2012.09/bin/../lib/gcc/arm-none-eabi/4.7.2//libgcc.a(_arm_addsubsf3.o)
__floatunsidf                                     /home/leon/riotboard/arm-2012.09/bin/../lib/gcc/arm-none-eabi/4.7.2//libgcc.a(_arm_addsubdf3.o)
__floatunsisf                                     /home/leon/riotboard/arm-2012.09/bin/../lib/gcc/arm-none-eabi/4.7.2//libgcc.a(_arm_addsubsf3.o)
__fp_lock_all                                     /home/leon/riotboard/arm-2012.09/bin/../arm-none-eabi/lib//libc.a(lib_a-findfp.o)
__fp_unlock_all                                   /home/leon/riotboard/arm-2012.09/bin/../arm-none-eabi/lib//libc.a(lib_a-findfp.o)
__fpclassifyd                                     /home/leon/riotboard/arm-2012.09/bin/../arm-none-eabi/lib//libc.a(lib_a-s_fpclassify.o)
                                                  /home/leon/riotboard/arm-2012.09/bin/../arm-none-eabi/lib//libc.a(lib_a-vfprintf.o)
                                                  /home/leon/riotboard/arm-2012.09/bin/../arm-none-eabi/lib//libc.a(lib_a-svfprintf.o)
__gcclibcxx_demangle_callback                     /home/leon/riotboard/arm-2012.09/bin/../arm-none-eabi/lib//libstdc++.a(cp-demangle.o)
__gedf2                                           /home/leon/riotboard/arm-2012.09/bin/../lib/gcc/arm-none-eabi/4.7.2//libgcc.a(_arm_cmpdf2.o)
__gesf2                                           /home/leon/riotboard/arm-2012.09/bin/../lib/gcc/arm-none-eabi/4.7.2//libgcc.a(_arm_cmpsf2.o)
__gnu_Unwind_Backtrace                            /home/leon/riotboard/arm-2012.09/bin/../lib/gcc/arm-none-eabi/4.7.2//libgcc.a(unwind-arm.o)
                                                  /home/leon/riotboard/arm-2012.09/bin/../lib/gcc/arm-none-eabi/4.7.2//libgcc.a(libunwind.o)
__gnu_Unwind_Find_exidx                           /home/leon/riotboard/arm-2012.09/bin/../lib/gcc/arm-none-eabi/4.7.2//libgcc.a(unwind-arm.o)
__gnu_Unwind_ForcedUnwind                         /home/leon/riotboard/arm-2012.09/bin/../lib/gcc/arm-none-eabi/4.7.2//libgcc.a(unwind-arm.o)
                                                  /home/leon/riotboard/arm-2012.09/bin/../lib/gcc/arm-none-eabi/4.7.2//libgcc.a(libunwind.o)
__gnu_Unwind_RaiseException                       /home/leon/riotboard/arm-2012.09/bin/../lib/gcc/arm-none-eabi/4.7.2//libgcc.a(unwind-arm.o)
                                                  /home/leon/riotboard/arm-2012.09/bin/../lib/gcc/arm-none-eabi/4.7.2//libgcc.a(libunwind.o)
__gnu_Unwind_Restore_VFP                          /home/leon/riotboard/arm-2012.09/bin/../lib/gcc/arm-none-eabi/4.7.2//libgcc.a(libunwind.o)
                                                  /home/leon/riotboard/arm-2012.09/bin/../lib/gcc/arm-none-eabi/4.7.2//libgcc.a(unwind-arm.o)
__gnu_Unwind_Restore_VFP_D                        /home/leon/riotboard/arm-2012.09/bin/../lib/gcc/arm-none-eabi/4.7.2//libgcc.a(libunwind.o)
                                                  /home/leon/riotboard/arm-2012.09/bin/../lib/gcc/arm-none-eabi/4.7.2//libgcc.a(unwind-arm.o)
__gnu_Unwind_Restore_VFP_D_16_to_31               /home/leon/riotboard/arm-2012.09/bin/../lib/gcc/arm-none-eabi/4.7.2//libgcc.a(libunwind.o)
                                                  /home/leon/riotboard/arm-2012.09/bin/../lib/gcc/arm-none-eabi/4.7.2//libgcc.a(unwind-arm.o)
__gnu_Unwind_Restore_WMMXC                        /home/leon/riotboard/arm-2012.09/bin/../lib/gcc/arm-none-eabi/4.7.2//libgcc.a(libunwind.o)
                                                  /home/leon/riotboard/arm-2012.09/bin/../lib/gcc/arm-none-eabi/4.7.2//libgcc.a(unwind-arm.o)
__gnu_Unwind_Restore_WMMXD                        /home/leon/riotboard/arm-2012.09/bin/../lib/gcc/arm-none-eabi/4.7.2//libgcc.a(libunwind.o)
                                                  /home/leon/riotboard/arm-2012.09/bin/../lib/gcc/arm-none-eabi/4.7.2//libgcc.a(unwind-arm.o)
__gnu_Unwind_Resume                               /home/leon/riotboard/arm-2012.09/bin/../lib/gcc/arm-none-eabi/4.7.2//libgcc.a(unwind-arm.o)
                                                  /home/leon/riotboard/arm-2012.09/bin/../lib/gcc/arm-none-eabi/4.7.2//libgcc.a(libunwind.o)
__gnu_Unwind_Resume_or_Rethrow                    /home/leon/riotboard/arm-2012.09/bin/../lib/gcc/arm-none-eabi/4.7.2//libgcc.a(unwind-arm.o)
                                                  /home/leon/riotboard/arm-2012.09/bin/../lib/gcc/arm-none-eabi/4.7.2//libgcc.a(libunwind.o)
__gnu_Unwind_Save_VFP                             /home/leon/riotboard/arm-2012.09/bin/../lib/gcc/arm-none-eabi/4.7.2//libgcc.a(libunwind.o)
                                                  /home/leon/riotboard/arm-2012.09/bin/../lib/gcc/arm-none-eabi/4.7.2//libgcc.a(unwind-arm.o)
__gnu_Unwind_Save_VFP_D                           /home/leon/riotboard/arm-2012.09/bin/../lib/gcc/arm-none-eabi/4.7.2//libgcc.a(libunwind.o)
                                                  /home/leon/riotboard/arm-2012.09/bin/../lib/gcc/arm-none-eabi/4.7.2//libgcc.a(unwind-arm.o)
__gnu_Unwind_Save_VFP_D_16_to_31                  /home/leon/riotboard/arm-2012.09/bin/../lib/gcc/arm-none-eabi/4.7.2//libgcc.a(libunwind.o)
                                                  /home/leon/riotboard/arm-2012.09/bin/../lib/gcc/arm-none-eabi/4.7.2//libgcc.a(unwind-arm.o)
__gnu_Unwind_Save_WMMXC                           /home/leon/riotboard/arm-2012.09/bin/../lib/gcc/arm-none-eabi/4.7.2//libgcc.a(libunwind.o)
                                                  /home/leon/riotboard/arm-2012.09/bin/../lib/gcc/arm-none-eabi/4.7.2//libgcc.a(unwind-arm.o)
__gnu_Unwind_Save_WMMXD                           /home/leon/riotboard/arm-2012.09/bin/../lib/gcc/arm-none-eabi/4.7.2//libgcc.a(libunwind.o)
                                                  /home/leon/riotboard/arm-2012.09/bin/../lib/gcc/arm-none-eabi/4.7.2//libgcc.a(unwind-arm.o)
__gnu_cxx::__verbose_terminate_handler()          /home/leon/riotboard/arm-2012.09/bin/../arm-none-eabi/lib//libstdc++.a(vterminate.o)
                                                  /home/leon/riotboard/arm-2012.09/bin/../arm-none-eabi/lib//libstdc++.a(eh_term_handler.o)
__gnu_end_cleanup                                 /home/leon/riotboard/arm-2012.09/bin/../arm-none-eabi/lib//libstdc++.a(eh_arm.o)
__gnu_ldivmod_helper                              /home/leon/riotboard/arm-2012.09/bin/../lib/gcc/arm-none-eabi/4.7.2//libgcc.a(bpabi.o)
__gnu_uldivmod_helper                             /home/leon/riotboard/arm-2012.09/bin/../lib/gcc/arm-none-eabi/4.7.2//libgcc.a(bpabi.o)
                                                  /home/leon/riotboard/arm-2012.09/bin/../lib/gcc/arm-none-eabi/4.7.2//libgcc.a(_aeabi_uldivmod.o)
__gnu_unwind_execute                              /home/leon/riotboard/arm-2012.09/bin/../lib/gcc/arm-none-eabi/4.7.2//libgcc.a(pr-support.o)
                                                  /home/leon/riotboard/arm-2012.09/bin/../lib/gcc/arm-none-eabi/4.7.2//libgcc.a(unwind-arm.o)
__gnu_unwind_frame                                /home/leon/riotboard/arm-2012.09/bin/../lib/gcc/arm-none-eabi/4.7.2//libgcc.a(pr-support.o)
                                                  /home/leon/riotboard/arm-2012.09/bin/../arm-none-eabi/lib//libstdc++.a(eh_personality.o)
__gtdf2                                           /home/leon/riotboard/arm-2012.09/bin/../lib/gcc/arm-none-eabi/4.7.2//libgcc.a(_arm_cmpdf2.o)
__gtsf2                                           /home/leon/riotboard/arm-2012.09/bin/../lib/gcc/arm-none-eabi/4.7.2//libgcc.a(_arm_cmpsf2.o)
__gxx_personality_v0                              /home/leon/riotboard/arm-2012.09/bin/../arm-none-eabi/lib//libstdc++.a(eh_personality.o)
                                                  /home/leon/riotboard/arm-2012.09/bin/../arm-none-eabi/lib//libstdc++.a(vterminate.o)
                                                  /home/leon/riotboard/arm-2012.09/bin/../arm-none-eabi/lib//libstdc++.a(eh_catch.o)
                                                  /home/leon/riotboard/arm-2012.09/bin/../arm-none-eabi/lib//libstdc++.a(eh_call.o)
                                                  /home/leon/riotboard/arm-2012.09/bin/../arm-none-eabi/lib//libstdc++.a(eh_terminate.o)
__hab_data                                        /home/leon/git/swp-report/iMX6_Platform_SDK/output/mx6sdl/sdk_unit_test/sabre_ai_rev_b/obj/apps/common/ivt.o
__hi0bits                                         /home/leon/riotboard/arm-2012.09/bin/../arm-none-eabi/lib//libc.a(lib_a-mprec.o)
                                                  /home/leon/riotboard/arm-2012.09/bin/../arm-none-eabi/lib//libc.a(lib_a-dtoa.o)
__i2b                                             /home/leon/riotboard/arm-2012.09/bin/../arm-none-eabi/lib//libc.a(lib_a-mprec.o)
                                                  /home/leon/riotboard/arm-2012.09/bin/../arm-none-eabi/lib//libc.a(lib_a-dtoa.o)
__ieee754_rem_pio2f                               /home/leon/riotboard/arm-2012.09/bin/../arm-none-eabi/lib//libm.a(lib_a-ef_rem_pio2.o)
                                                  /home/leon/riotboard/arm-2012.09/bin/../arm-none-eabi/lib//libm.a(lib_a-sf_sin.o)
                                                  /home/leon/riotboard/arm-2012.09/bin/../arm-none-eabi/lib//libm.a(lib_a-sf_cos.o)
__init_array_end                                  /home/leon/riotboard/arm-2012.09/bin/../arm-none-eabi/lib//libc.a(lib_a-init.o)
__init_array_start                                /home/leon/riotboard/arm-2012.09/bin/../arm-none-eabi/lib//libc.a(lib_a-init.o)
__kernel_cosf                                     /home/leon/riotboard/arm-2012.09/bin/../arm-none-eabi/lib//libm.a(lib_a-kf_cos.o)
                                                  /home/leon/riotboard/arm-2012.09/bin/../arm-none-eabi/lib//libm.a(lib_a-sf_sin.o)
                                                  /home/leon/riotboard/arm-2012.09/bin/../arm-none-eabi/lib//libm.a(lib_a-sf_cos.o)
__kernel_rem_pio2f                                /home/leon/riotboard/arm-2012.09/bin/../arm-none-eabi/lib//libm.a(lib_a-kf_rem_pio2.o)
                                                  /home/leon/riotboard/arm-2012.09/bin/../arm-none-eabi/lib//libm.a(lib_a-ef_rem_pio2.o)
__kernel_sinf                                     /home/leon/riotboard/arm-2012.09/bin/../arm-none-eabi/lib//libm.a(lib_a-kf_sin.o)
                                                  /home/leon/riotboard/arm-2012.09/bin/../arm-none-eabi/lib//libm.a(lib_a-sf_sin.o)
                                                  /home/leon/riotboard/arm-2012.09/bin/../arm-none-eabi/lib//libm.a(lib_a-sf_cos.o)
__l1_page_table_start                             /home/leon/git/swp-report/iMX6_Platform_SDK/output/mx6sdl/lib/libsdk.a(mmu.o)
__ledf2                                           /home/leon/riotboard/arm-2012.09/bin/../lib/gcc/arm-none-eabi/4.7.2//libgcc.a(_arm_cmpdf2.o)
__lesf2                                           /home/leon/riotboard/arm-2012.09/bin/../lib/gcc/arm-none-eabi/4.7.2//libgcc.a(_arm_cmpsf2.o)
__libc_init_array                                 /home/leon/riotboard/arm-2012.09/bin/../arm-none-eabi/lib//libc.a(lib_a-init.o)
                                                  /home/leon/git/swp-report/iMX6_Platform_SDK/output/mx6sdl/lib/libsdk.a(startup.o)
__lo0bits                                         /home/leon/riotboard/arm-2012.09/bin/../arm-none-eabi/lib//libc.a(lib_a-mprec.o)
__locale_charset                                  /home/leon/riotboard/arm-2012.09/bin/../arm-none-eabi/lib//libc.a(lib_a-locale.o)
                                                  /home/leon/riotboard/arm-2012.09/bin/../arm-none-eabi/lib//libc.a(lib_a-wctomb_r.o)
                                                  /home/leon/riotboard/arm-2012.09/bin/../arm-none-eabi/lib//libc.a(lib_a-wcrtomb.o)
__locale_cjk_lang                                 /home/leon/riotboard/arm-2012.09/bin/../arm-none-eabi/lib//libc.a(lib_a-locale.o)
__locale_mb_cur_max                               /home/leon/riotboard/arm-2012.09/bin/../arm-none-eabi/lib//libc.a(lib_a-locale.o)
                                                  /home/leon/riotboard/arm-2012.09/bin/../arm-none-eabi/lib//libc.a(lib_a-fputwc.o)
__locale_msgcharset                               /home/leon/riotboard/arm-2012.09/bin/../arm-none-eabi/lib//libc.a(lib_a-locale.o)
__lshift                                          /home/leon/riotboard/arm-2012.09/bin/../arm-none-eabi/lib//libc.a(lib_a-mprec.o)
                                                  /home/leon/riotboard/arm-2012.09/bin/../arm-none-eabi/lib//libc.a(lib_a-dtoa.o)
__ltdf2                                           /home/leon/riotboard/arm-2012.09/bin/../lib/gcc/arm-none-eabi/4.7.2//libgcc.a(_arm_cmpdf2.o)
__ltsf2                                           /home/leon/riotboard/arm-2012.09/bin/../lib/gcc/arm-none-eabi/4.7.2//libgcc.a(_arm_cmpsf2.o)
__malloc_av_                                      /home/leon/riotboard/arm-2012.09/bin/../arm-none-eabi/lib//libc.a(lib_a-mallocr.o)
                                                  /home/leon/riotboard/arm-2012.09/bin/../arm-none-eabi/lib//libc.a(lib_a-reallocr.o)
                                                  /home/leon/riotboard/arm-2012.09/bin/../arm-none-eabi/lib//libc.a(lib_a-freer.o)
__malloc_current_mallinfo                         /home/leon/riotboard/arm-2012.09/bin/../arm-none-eabi/lib//libc.a(lib_a-mallocr.o)
                                                  /home/leon/riotboard/arm-2012.09/bin/../arm-none-eabi/lib//libc.a(lib_a-freer.o)
__malloc_lock                                     /home/leon/riotboard/arm-2012.09/bin/../arm-none-eabi/lib//libc.a(lib_a-mlock.o)
                                                  /home/leon/riotboard/arm-2012.09/bin/../arm-none-eabi/lib//libc.a(lib_a-reallocr.o)
                                                  /home/leon/riotboard/arm-2012.09/bin/../arm-none-eabi/lib//libc.a(lib_a-mallocr.o)
                                                  /home/leon/riotboard/arm-2012.09/bin/../arm-none-eabi/lib//libc.a(lib_a-freer.o)
__malloc_max_sbrked_mem                           /home/leon/riotboard/arm-2012.09/bin/../arm-none-eabi/lib//libc.a(lib_a-mallocr.o)
__malloc_max_total_mem                            /home/leon/riotboard/arm-2012.09/bin/../arm-none-eabi/lib//libc.a(lib_a-mallocr.o)
__malloc_sbrk_base                                /home/leon/riotboard/arm-2012.09/bin/../arm-none-eabi/lib//libc.a(lib_a-mallocr.o)
                                                  /home/leon/riotboard/arm-2012.09/bin/../arm-none-eabi/lib//libc.a(lib_a-freer.o)
__malloc_top_pad                                  /home/leon/riotboard/arm-2012.09/bin/../arm-none-eabi/lib//libc.a(lib_a-mallocr.o)
                                                  /home/leon/riotboard/arm-2012.09/bin/../arm-none-eabi/lib//libc.a(lib_a-freer.o)
__malloc_trim_threshold                           /home/leon/riotboard/arm-2012.09/bin/../arm-none-eabi/lib//libc.a(lib_a-mallocr.o)
                                                  /home/leon/riotboard/arm-2012.09/bin/../arm-none-eabi/lib//libc.a(lib_a-freer.o)
__malloc_unlock                                   /home/leon/riotboard/arm-2012.09/bin/../arm-none-eabi/lib//libc.a(lib_a-mlock.o)
                                                  /home/leon/riotboard/arm-2012.09/bin/../arm-none-eabi/lib//libc.a(lib_a-reallocr.o)
                                                  /home/leon/riotboard/arm-2012.09/bin/../arm-none-eabi/lib//libc.a(lib_a-mallocr.o)
                                                  /home/leon/riotboard/arm-2012.09/bin/../arm-none-eabi/lib//libc.a(lib_a-freer.o)
__mb_cur_max                                      /home/leon/riotboard/arm-2012.09/bin/../arm-none-eabi/lib//libc.a(lib_a-locale.o)
__mcmp                                            /home/leon/riotboard/arm-2012.09/bin/../arm-none-eabi/lib//libc.a(lib_a-mprec.o)
                                                  /home/leon/riotboard/arm-2012.09/bin/../arm-none-eabi/lib//libc.a(lib_a-dtoa.o)
__mdiff                                           /home/leon/riotboard/arm-2012.09/bin/../arm-none-eabi/lib//libc.a(lib_a-mprec.o)
                                                  /home/leon/riotboard/arm-2012.09/bin/../arm-none-eabi/lib//libc.a(lib_a-dtoa.o)
__mlocale_changed                                 /home/leon/riotboard/arm-2012.09/bin/../arm-none-eabi/lib//libc.a(lib_a-locale.o)
__mprec_bigtens                                   /home/leon/riotboard/arm-2012.09/bin/../arm-none-eabi/lib//libc.a(lib_a-mprec.o)
                                                  /home/leon/riotboard/arm-2012.09/bin/../arm-none-eabi/lib//libc.a(lib_a-dtoa.o)
__mprec_tens                                      /home/leon/riotboard/arm-2012.09/bin/../arm-none-eabi/lib//libc.a(lib_a-mprec.o)
                                                  /home/leon/riotboard/arm-2012.09/bin/../arm-none-eabi/lib//libc.a(lib_a-dtoa.o)
__mprec_tinytens                                  /home/leon/riotboard/arm-2012.09/bin/../arm-none-eabi/lib//libc.a(lib_a-mprec.o)
__muldf3                                          /home/leon/riotboard/arm-2012.09/bin/../lib/gcc/arm-none-eabi/4.7.2//libgcc.a(_arm_muldivdf3.o)
__mulsf3                                          /home/leon/riotboard/arm-2012.09/bin/../lib/gcc/arm-none-eabi/4.7.2//libgcc.a(_arm_muldivsf3.o)
__multadd                                         /home/leon/riotboard/arm-2012.09/bin/../arm-none-eabi/lib//libc.a(lib_a-mprec.o)
                                                  /home/leon/riotboard/arm-2012.09/bin/../arm-none-eabi/lib//libc.a(lib_a-dtoa.o)
__multiply                                        /home/leon/riotboard/arm-2012.09/bin/../arm-none-eabi/lib//libc.a(lib_a-mprec.o)
                                                  /home/leon/riotboard/arm-2012.09/bin/../arm-none-eabi/lib//libc.a(lib_a-dtoa.o)
__nedf2                                           /home/leon/riotboard/arm-2012.09/bin/../lib/gcc/arm-none-eabi/4.7.2//libgcc.a(_arm_cmpdf2.o)
__nesf2                                           /home/leon/riotboard/arm-2012.09/bin/../lib/gcc/arm-none-eabi/4.7.2//libgcc.a(_arm_cmpsf2.o)
__nlocale_changed                                 /home/leon/riotboard/arm-2012.09/bin/../arm-none-eabi/lib//libc.a(lib_a-locale.o)
__pow5mult                                        /home/leon/riotboard/arm-2012.09/bin/../arm-none-eabi/lib//libc.a(lib_a-mprec.o)
                                                  /home/leon/riotboard/arm-2012.09/bin/../arm-none-eabi/lib//libc.a(lib_a-dtoa.o)
__preinit_array_end                               /home/leon/riotboard/arm-2012.09/bin/../arm-none-eabi/lib//libc.a(lib_a-init.o)
__preinit_array_start                             /home/leon/riotboard/arm-2012.09/bin/../arm-none-eabi/lib//libc.a(lib_a-init.o)
__ram_vectors_end                                 /home/leon/git/swp-report/iMX6_Platform_SDK/output/mx6sdl/lib/libsdk.a(startup.o)
__ram_vectors_start                               /home/leon/git/swp-report/iMX6_Platform_SDK/output/mx6sdl/lib/libsdk.a(startup.o)
__ratio                                           /home/leon/riotboard/arm-2012.09/bin/../arm-none-eabi/lib//libc.a(lib_a-mprec.o)
__register_frame_info                             /home/leon/riotboard/arm-2012.09/bin/../lib/gcc/arm-none-eabi/4.7.2//crtbegin.o
__restore_core_regs                               /home/leon/riotboard/arm-2012.09/bin/../lib/gcc/arm-none-eabi/4.7.2//libgcc.a(libunwind.o)
__s2b                                             /home/leon/riotboard/arm-2012.09/bin/../arm-none-eabi/lib//libc.a(lib_a-mprec.o)
__sclose                                          /home/leon/riotboard/arm-2012.09/bin/../arm-none-eabi/lib//libc.a(lib_a-stdio.o)
                                                  /home/leon/riotboard/arm-2012.09/bin/../arm-none-eabi/lib//libc.a(lib_a-findfp.o)
__seofread                                        /home/leon/riotboard/arm-2012.09/bin/../arm-none-eabi/lib//libc.a(lib_a-stdio.o)
__sfmoreglue                                      /home/leon/riotboard/arm-2012.09/bin/../arm-none-eabi/lib//libc.a(lib_a-findfp.o)
__sfp                                             /home/leon/riotboard/arm-2012.09/bin/../arm-none-eabi/lib//libc.a(lib_a-findfp.o)
__sfp_lock_acquire                                /home/leon/riotboard/arm-2012.09/bin/../arm-none-eabi/lib//libc.a(lib_a-findfp.o)
                                                  /home/leon/riotboard/arm-2012.09/bin/../arm-none-eabi/lib//libc.a(lib_a-fclose.o)
                                                  /home/leon/riotboard/arm-2012.09/bin/../arm-none-eabi/lib//libc.a(lib_a-fwalk.o)
__sfp_lock_release                                /home/leon/riotboard/arm-2012.09/bin/../arm-none-eabi/lib//libc.a(lib_a-findfp.o)
                                                  /home/leon/riotboard/arm-2012.09/bin/../arm-none-eabi/lib//libc.a(lib_a-fclose.o)
                                                  /home/leon/riotboard/arm-2012.09/bin/../arm-none-eabi/lib//libc.a(lib_a-fwalk.o)
__sfvwrite_r                                      /home/leon/riotboard/arm-2012.09/bin/../arm-none-eabi/lib//libc.a(lib_a-fvwrite.o)
                                                  /home/leon/riotboard/arm-2012.09/bin/../arm-none-eabi/lib//libc.a(lib_a-fwrite.o)
                                                  /home/leon/riotboard/arm-2012.09/bin/../arm-none-eabi/lib//libc.a(lib_a-vfiprintf.o)
                                                  /home/leon/riotboard/arm-2012.09/bin/../arm-none-eabi/lib//libc.a(lib_a-puts.o)
                                                  /home/leon/riotboard/arm-2012.09/bin/../arm-none-eabi/lib//libc.a(lib_a-fputs.o)
__sigtramp                                        /home/leon/riotboard/arm-2012.09/bin/../arm-none-eabi/lib//libc.a(lib_a-signal.o)
__sigtramp_r                                      /home/leon/riotboard/arm-2012.09/bin/../arm-none-eabi/lib//libc.a(lib_a-signal.o)
__sinit                                           /home/leon/riotboard/arm-2012.09/bin/../arm-none-eabi/lib//libc.a(lib_a-findfp.o)
                                                  /home/leon/riotboard/arm-2012.09/bin/../arm-none-eabi/lib//libc.a(lib_a-fwrite.o)
                                                  /home/leon/riotboard/arm-2012.09/bin/../arm-none-eabi/lib//libc.a(lib_a-refill.o)
                                                  /home/leon/riotboard/arm-2012.09/bin/../arm-none-eabi/lib//libc.a(lib_a-fputwc.o)
                                                  /home/leon/riotboard/arm-2012.09/bin/../arm-none-eabi/lib//libc.a(lib_a-fclose.o)
                                                  /home/leon/riotboard/arm-2012.09/bin/../arm-none-eabi/lib//libc.a(lib_a-wsetup.o)
                                                  /home/leon/riotboard/arm-2012.09/bin/../arm-none-eabi/lib//libc.a(lib_a-wbuf.o)
                                                  /home/leon/riotboard/arm-2012.09/bin/../arm-none-eabi/lib//libc.a(lib_a-vfprintf.o)
                                                  /home/leon/riotboard/arm-2012.09/bin/../arm-none-eabi/lib//libc.a(lib_a-vfiprintf.o)
                                                  /home/leon/riotboard/arm-2012.09/bin/../arm-none-eabi/lib//libc.a(lib_a-rget.o)
                                                  /home/leon/riotboard/arm-2012.09/bin/../arm-none-eabi/lib//libc.a(lib_a-putc.o)
                                                  /home/leon/riotboard/arm-2012.09/bin/../arm-none-eabi/lib//libc.a(lib_a-fputs.o)
                                                  /home/leon/riotboard/arm-2012.09/bin/../arm-none-eabi/lib//libc.a(lib_a-fputc.o)
                                                  /home/leon/riotboard/arm-2012.09/bin/../arm-none-eabi/lib//libc.a(lib_a-fflush.o)
__sinit_lock_acquire                              /home/leon/riotboard/arm-2012.09/bin/../arm-none-eabi/lib//libc.a(lib_a-findfp.o)
__sinit_lock_release                              /home/leon/riotboard/arm-2012.09/bin/../arm-none-eabi/lib//libc.a(lib_a-findfp.o)
__smakebuf_r                                      /home/leon/riotboard/arm-2012.09/bin/../arm-none-eabi/lib//libc.a(lib_a-makebuf.o)
                                                  /home/leon/riotboard/arm-2012.09/bin/../arm-none-eabi/lib//libc.a(lib_a-refill.o)
                                                  /home/leon/riotboard/arm-2012.09/bin/../arm-none-eabi/lib//libc.a(lib_a-wsetup.o)
__sprint_r                                        /home/leon/riotboard/arm-2012.09/bin/../arm-none-eabi/lib//libc.a(lib_a-vfiprintf.o)
                                                  /home/leon/riotboard/arm-2012.09/bin/../arm-none-eabi/lib//libc.a(lib_a-vfprintf.o)
__sread                                           /home/leon/riotboard/arm-2012.09/bin/../arm-none-eabi/lib//libc.a(lib_a-stdio.o)
                                                  /home/leon/riotboard/arm-2012.09/bin/../arm-none-eabi/lib//libc.a(lib_a-findfp.o)
__srefill_r                                       /home/leon/riotboard/arm-2012.09/bin/../arm-none-eabi/lib//libc.a(lib_a-refill.o)
                                                  /home/leon/riotboard/arm-2012.09/bin/../arm-none-eabi/lib//libc.a(lib_a-rget.o)
__srget                                           /home/leon/riotboard/arm-2012.09/bin/../arm-none-eabi/lib//libc.a(lib_a-rget.o)
__srget_r                                         /home/leon/riotboard/arm-2012.09/bin/../arm-none-eabi/lib//libc.a(lib_a-rget.o)
                                                  /home/leon/git/swp-report/iMX6_Platform_SDK/output/mx6sdl/lib/libsdk.a(usb_common.o)
                                                  /home/leon/git/swp-report/iMX6_Platform_SDK/output/mx6sdl/lib/libsdk.a(mipi_csi2_common.o)
                                                  /home/leon/git/swp-report/iMX6_Platform_SDK/output/mx6sdl/sdk_unit_test/sabre_ai_rev_b/libsdk_unit_test.a(adv7180_capture.o)
                                                  /home/leon/git/swp-report/iMX6_Platform_SDK/output/mx6sdl/sdk_unit_test/sabre_ai_rev_b/libsdk_unit_test.a(usb0_device_mouse_test.o)
                                                  /home/leon/git/swp-report/iMX6_Platform_SDK/output/mx6sdl/sdk_unit_test/sabre_ai_rev_b/libsdk_unit_test.a(ips_rotate.o)
                                                  /home/leon/git/swp-report/iMX6_Platform_SDK/output/mx6sdl/sdk_unit_test/sabre_ai_rev_b/libsdk_unit_test.a(ips_resize.o)
                                                  /home/leon/git/swp-report/iMX6_Platform_SDK/output/mx6sdl/sdk_unit_test/sabre_ai_rev_b/libsdk_unit_test.a(ips_csc.o)
                                                  /home/leon/git/swp-report/iMX6_Platform_SDK/output/mx6sdl/sdk_unit_test/sabre_ai_rev_b/libsdk_unit_test.a(ips_combiner.o)
                                                  /home/leon/git/swp-report/iMX6_Platform_SDK/output/mx6sdl/sdk_unit_test/sabre_ai_rev_b/libsdk_unit_test.a(accelerometer_test.o)
                                                  /home/leon/git/swp-report/iMX6_Platform_SDK/output/mx6sdl/sdk_unit_test/sabre_ai_rev_b/libsdk_unit_test.a(csi_test_mode.o)
                                                  /home/leon/git/swp-report/iMX6_Platform_SDK/output/mx6sdl/sdk_unit_test/sabre_ai_rev_b/libsdk_unit_test.a(camera_test.o)
                                                  /home/leon/git/swp-report/iMX6_Platform_SDK/output/mx6sdl/sdk_unit_test/sabre_ai_rev_b/libsdk_unit_test.a(spi_test.o)
                                                  /home/leon/git/swp-report/iMX6_Platform_SDK/output/mx6sdl/sdk_unit_test/sabre_ai_rev_b/libsdk_unit_test.a(pcie_test_rc.o)
                                                  /home/leon/git/swp-report/iMX6_Platform_SDK/output/mx6sdl/sdk_unit_test/sabre_ai_rev_b/libsdk_unit_test.a(eim_test.o)
                                                  /home/leon/git/swp-report/iMX6_Platform_SDK/output/mx6sdl/sdk_unit_test/sabre_ai_rev_b/libsdk_unit_test.a(can_test.o)
                                                  /home/leon/git/swp-report/iMX6_Platform_SDK/output/mx6sdl/sdk_unit_test/sabre_ai_rev_b/libsdk_unit_test.a(mipi_test.o)
                                                  /home/leon/git/swp-report/iMX6_Platform_SDK/output/mx6sdl/sdk_unit_test/sabre_ai_rev_b/libsdk_unit_test.a(ips_test.o)
                                                  /home/leon/git/swp-report/iMX6_Platform_SDK/output/mx6sdl/sdk_unit_test/sabre_ai_rev_b/libsdk_unit_test.a(ips_display.o)
                                                  /home/leon/git/swp-report/iMX6_Platform_SDK/output/mx6sdl/sdk_unit_test/sabre_ai_rev_b/libsdk_unit_test.a(watchdog_test.o)
                                                  /home/leon/git/swp-report/iMX6_Platform_SDK/output/mx6sdl/sdk_unit_test/sabre_ai_rev_b/libsdk_unit_test.a(pwm_test.o)
                                                  /home/leon/git/swp-report/iMX6_Platform_SDK/output/mx6sdl/sdk_unit_test/sabre_ai_rev_b/libsdk_unit_test.a(usdhc_test.o)
                                                  /home/leon/git/swp-report/iMX6_Platform_SDK/output/mx6sdl/sdk_unit_test/sabre_ai_rev_b/libsdk_unit_test.a(uart_test.o)
                                                  /home/leon/git/swp-report/iMX6_Platform_SDK/output/mx6sdl/sdk_unit_test/sabre_ai_rev_b/libsdk_unit_test.a(gpt_test.o)
                                                  /home/leon/git/swp-report/iMX6_Platform_SDK/output/mx6sdl/sdk_unit_test/sabre_ai_rev_b/libsdk_unit_test.a(epit_test.o)
                                                  /home/leon/git/swp-report/iMX6_Platform_SDK/output/mx6sdl/sdk_unit_test/sabre_ai_rev_b/libsdk_unit_test.a(sdma_test.o)
                                                  /home/leon/git/swp-report/iMX6_Platform_SDK/output/mx6sdl/sdk_unit_test/sabre_ai_rev_b/libsdk_unit_test.a(tempmon_test.o)
                                                  /home/leon/git/swp-report/iMX6_Platform_SDK/output/mx6sdl/sdk_unit_test/sabre_ai_rev_b/libsdk_unit_test.a(snvs_srtc_test.o)
                                                  /home/leon/git/swp-report/iMX6_Platform_SDK/output/mx6sdl/sdk_unit_test/sabre_ai_rev_b/libsdk_unit_test.a(snvs_rtc_test.o)
                                                  /home/leon/git/swp-report/iMX6_Platform_SDK/output/mx6sdl/sdk_unit_test/sabre_ai_rev_b/libsdk_unit_test.a(imx6_i2c_device.o)
                                                  /home/leon/git/swp-report/iMX6_Platform_SDK/output/mx6sdl/sdk_unit_test/sabre_ai_rev_b/libsdk_unit_test.a(i2c_test.o)
                                                  /home/leon/git/swp-report/iMX6_Platform_SDK/output/mx6sdl/sdk_unit_test/sabre_ai_rev_b/libsdk_unit_test.a(ocotp_test.o)
                                                  /home/leon/git/swp-report/iMX6_Platform_SDK/output/mx6sdl/lib/libsdk.a(system_util.o)
                                                  /home/leon/git/swp-report/iMX6_Platform_SDK/output/mx6sdl/lib/libsdk.a(menu.o)
__sseek                                           /home/leon/riotboard/arm-2012.09/bin/../arm-none-eabi/lib//libc.a(lib_a-stdio.o)
                                                  /home/leon/riotboard/arm-2012.09/bin/../arm-none-eabi/lib//libc.a(lib_a-makebuf.o)
                                                  /home/leon/riotboard/arm-2012.09/bin/../arm-none-eabi/lib//libc.a(lib_a-findfp.o)
__ssprint_r                                       /home/leon/riotboard/arm-2012.09/bin/../arm-none-eabi/lib//libc.a(lib_a-svfiprintf.o)
                                                  /home/leon/riotboard/arm-2012.09/bin/../arm-none-eabi/lib//libc.a(lib_a-svfprintf.o)
__stacks_start                                    /home/leon/git/swp-report/iMX6_Platform_SDK/output/mx6sdl/lib/libsdk.a(startup.o)
__start_boot_data                                 /home/leon/git/swp-report/iMX6_Platform_SDK/output/mx6sdl/sdk_unit_test/sabre_ai_rev_b/obj/apps/common/ivt.o
__subdf3                                          /home/leon/riotboard/arm-2012.09/bin/../lib/gcc/arm-none-eabi/4.7.2//libgcc.a(_arm_addsubdf3.o)
__subsf3                                          /home/leon/riotboard/arm-2012.09/bin/../lib/gcc/arm-none-eabi/4.7.2//libgcc.a(_arm_addsubsf3.o)
__swbuf                                           /home/leon/riotboard/arm-2012.09/bin/../arm-none-eabi/lib//libc.a(lib_a-wbuf.o)
__swbuf_r                                         /home/leon/riotboard/arm-2012.09/bin/../arm-none-eabi/lib//libc.a(lib_a-wbuf.o)
                                                  /home/leon/riotboard/arm-2012.09/bin/../arm-none-eabi/lib//libc.a(lib_a-fputwc.o)
                                                  /home/leon/riotboard/arm-2012.09/bin/../arm-none-eabi/lib//libc.a(lib_a-putc.o)
__swrite                                          /home/leon/riotboard/arm-2012.09/bin/../arm-none-eabi/lib//libc.a(lib_a-stdio.o)
                                                  /home/leon/riotboard/arm-2012.09/bin/../arm-none-eabi/lib//libc.a(lib_a-findfp.o)
__swsetup_r                                       /home/leon/riotboard/arm-2012.09/bin/../arm-none-eabi/lib//libc.a(lib_a-wsetup.o)
                                                  /home/leon/riotboard/arm-2012.09/bin/../arm-none-eabi/lib//libc.a(lib_a-wbuf.o)
                                                  /home/leon/riotboard/arm-2012.09/bin/../arm-none-eabi/lib//libc.a(lib_a-vfprintf.o)
                                                  /home/leon/riotboard/arm-2012.09/bin/../arm-none-eabi/lib//libc.a(lib_a-vfiprintf.o)
                                                  /home/leon/riotboard/arm-2012.09/bin/../arm-none-eabi/lib//libc.a(lib_a-fvwrite.o)
__udivdi3                                         /home/leon/riotboard/arm-2012.09/bin/../lib/gcc/arm-none-eabi/4.7.2//libgcc.a(_udivdi3.o)
                                                  /home/leon/riotboard/arm-2012.09/bin/../lib/gcc/arm-none-eabi/4.7.2//libgcc.a(bpabi.o)
__udivsi3                                         /home/leon/riotboard/arm-2012.09/bin/../lib/gcc/arm-none-eabi/4.7.2//libgcc.a(_udivsi3.o)
__ulp                                             /home/leon/riotboard/arm-2012.09/bin/../arm-none-eabi/lib//libc.a(lib_a-mprec.o)
__wctomb                                          /home/leon/riotboard/arm-2012.09/bin/../arm-none-eabi/lib//libc.a(lib_a-wctomb_r.o)
                                                  /home/leon/riotboard/arm-2012.09/bin/../arm-none-eabi/lib//libc.a(lib_a-wcrtomb.o)
_calloc_r                                         /home/leon/riotboard/arm-2012.09/bin/../arm-none-eabi/lib//libc.a(lib_a-callocr.o)
                                                  /home/leon/riotboard/arm-2012.09/bin/../arm-none-eabi/lib//libc.a(lib_a-mprec.o)
_cleanup                                          /home/leon/riotboard/arm-2012.09/bin/../arm-none-eabi/lib//libc.a(lib_a-findfp.o)
_cleanup_r                                        /home/leon/riotboard/arm-2012.09/bin/../arm-none-eabi/lib//libc.a(lib_a-findfp.o)
                                                  /home/leon/riotboard/arm-2012.09/bin/../arm-none-eabi/lib//libc.a(lib_a-makebuf.o)
_close                                            /home/leon/git/swp-report/iMX6_Platform_SDK/output/mx6sdl/lib/libsdk.a(runtime_support.o)
                                                  /home/leon/riotboard/arm-2012.09/bin/../arm-none-eabi/lib//libc.a(lib_a-closer.o)
_close_r                                          /home/leon/riotboard/arm-2012.09/bin/../arm-none-eabi/lib//libc.a(lib_a-closer.o)
                                                  /home/leon/riotboard/arm-2012.09/bin/../arm-none-eabi/lib//libc.a(lib_a-stdio.o)
_ctype_                                           /home/leon/riotboard/arm-2012.09/bin/../arm-none-eabi/lib//libc.a(lib_a-ctype_.o)
_dtoa_r                                           /home/leon/riotboard/arm-2012.09/bin/../arm-none-eabi/lib//libc.a(lib_a-dtoa.o)
                                                  /home/leon/riotboard/arm-2012.09/bin/../arm-none-eabi/lib//libc.a(lib_a-vfprintf.o)
                                                  /home/leon/riotboard/arm-2012.09/bin/../arm-none-eabi/lib//libc.a(lib_a-svfprintf.o)
_execve                                           /home/leon/git/swp-report/iMX6_Platform_SDK/output/mx6sdl/lib/libsdk.a(runtime_support.o)
_exit                                             /home/leon/git/swp-report/iMX6_Platform_SDK/output/mx6sdl/lib/libsdk.a(runtime_support.o)
                                                  /home/leon/riotboard/arm-2012.09/bin/../arm-none-eabi/lib//libc.a(lib_a-abort.o)
_fclose_r                                         /home/leon/riotboard/arm-2012.09/bin/../arm-none-eabi/lib//libc.a(lib_a-fclose.o)
_fflush_r                                         /home/leon/riotboard/arm-2012.09/bin/../arm-none-eabi/lib//libc.a(lib_a-fflush.o)
                                                  /home/leon/riotboard/arm-2012.09/bin/../arm-none-eabi/lib//libc.a(lib_a-refill.o)
                                                  /home/leon/riotboard/arm-2012.09/bin/../arm-none-eabi/lib//libc.a(lib_a-fclose.o)
                                                  /home/leon/riotboard/arm-2012.09/bin/../arm-none-eabi/lib//libc.a(lib_a-wbuf.o)
                                                  /home/leon/riotboard/arm-2012.09/bin/../arm-none-eabi/lib//libc.a(lib_a-vfprintf.o)
                                                  /home/leon/riotboard/arm-2012.09/bin/../arm-none-eabi/lib//libc.a(lib_a-vfiprintf.o)
                                                  /home/leon/riotboard/arm-2012.09/bin/../arm-none-eabi/lib//libc.a(lib_a-fvwrite.o)
_fini                                             /home/leon/riotboard/arm-2012.09/bin/../lib/gcc/arm-none-eabi/4.7.2//crti.o
_fiprintf_r                                       /home/leon/riotboard/arm-2012.09/bin/../arm-none-eabi/lib//libc.a(lib_a-fiprintf.o)
_fork                                             /home/leon/git/swp-report/iMX6_Platform_SDK/output/mx6sdl/lib/libsdk.a(runtime_support.o)
_fputc_r                                          /home/leon/riotboard/arm-2012.09/bin/../arm-none-eabi/lib//libc.a(lib_a-fputc.o)
_fputs_r                                          /home/leon/riotboard/arm-2012.09/bin/../arm-none-eabi/lib//libc.a(lib_a-fputs.o)
_fputwc_r                                         /home/leon/riotboard/arm-2012.09/bin/../arm-none-eabi/lib//libc.a(lib_a-fputwc.o)
                                                  /home/leon/riotboard/arm-2012.09/bin/../arm-none-eabi/lib//libc.a(lib_a-vfiprintf.o)
_free_r                                           /home/leon/riotboard/arm-2012.09/bin/../arm-none-eabi/lib//libc.a(lib_a-freer.o)
                                                  /home/leon/riotboard/arm-2012.09/bin/../arm-none-eabi/lib//libc.a(lib_a-svfiprintf.o)
                                                  /home/leon/riotboard/arm-2012.09/bin/../arm-none-eabi/lib//libc.a(lib_a-refill.o)
                                                  /home/leon/riotboard/arm-2012.09/bin/../arm-none-eabi/lib//libc.a(lib_a-reent.o)
                                                  /home/leon/riotboard/arm-2012.09/bin/../arm-none-eabi/lib//libc.a(lib_a-fclose.o)
                                                  /home/leon/riotboard/arm-2012.09/bin/../arm-none-eabi/lib//libc.a(lib_a-wsetup.o)
                                                  /home/leon/riotboard/arm-2012.09/bin/../arm-none-eabi/lib//libc.a(lib_a-reallocr.o)
                                                  /home/leon/riotboard/arm-2012.09/bin/../arm-none-eabi/lib//libc.a(lib_a-mallocr.o)
                                                  /home/leon/riotboard/arm-2012.09/bin/../arm-none-eabi/lib//libc.a(lib_a-malloc.o)
                                                  /home/leon/riotboard/arm-2012.09/bin/../arm-none-eabi/lib//libc.a(lib_a-fvwrite.o)
                                                  /home/leon/riotboard/arm-2012.09/bin/../arm-none-eabi/lib//libc.a(lib_a-fflush.o)
_fstat                                            /home/leon/git/swp-report/iMX6_Platform_SDK/output/mx6sdl/lib/libsdk.a(runtime_support.o)
                                                  /home/leon/riotboard/arm-2012.09/bin/../arm-none-eabi/lib//libc.a(lib_a-fstatr.o)
_fstat_r                                          /home/leon/riotboard/arm-2012.09/bin/../arm-none-eabi/lib//libc.a(lib_a-fstatr.o)
                                                  /home/leon/riotboard/arm-2012.09/bin/../arm-none-eabi/lib//libc.a(lib_a-makebuf.o)
_fwalk                                            /home/leon/riotboard/arm-2012.09/bin/../arm-none-eabi/lib//libc.a(lib_a-fwalk.o)
                                                  /home/leon/riotboard/arm-2012.09/bin/../arm-none-eabi/lib//libc.a(lib_a-refill.o)
                                                  /home/leon/riotboard/arm-2012.09/bin/../arm-none-eabi/lib//libc.a(lib_a-findfp.o)
_fwalk_reent                                      /home/leon/riotboard/arm-2012.09/bin/../arm-none-eabi/lib//libc.a(lib_a-fwalk.o)
                                                  /home/leon/riotboard/arm-2012.09/bin/../arm-none-eabi/lib//libc.a(lib_a-fflush.o)
_fwrite_r                                         /home/leon/riotboard/arm-2012.09/bin/../arm-none-eabi/lib//libc.a(lib_a-fwrite.o)
_getpid                                           /home/leon/git/swp-report/iMX6_Platform_SDK/output/mx6sdl/lib/libsdk.a(runtime_support.o)
                                                  /home/leon/riotboard/arm-2012.09/bin/../arm-none-eabi/lib//libc.a(lib_a-signalr.o)
_getpid_r                                         /home/leon/riotboard/arm-2012.09/bin/../arm-none-eabi/lib//libc.a(lib_a-signalr.o)
                                                  /home/leon/riotboard/arm-2012.09/bin/../arm-none-eabi/lib//libc.a(lib_a-signal.o)
_gettimeofday                                     /home/leon/git/swp-report/iMX6_Platform_SDK/output/mx6sdl/lib/libsdk.a(runtime_support.o)
_global_impure_ptr                                /home/leon/riotboard/arm-2012.09/bin/../arm-none-eabi/lib//libc.a(lib_a-impure.o)
                                                  /home/leon/riotboard/arm-2012.09/bin/../arm-none-eabi/lib//libc.a(lib_a-refill.o)
                                                  /home/leon/riotboard/arm-2012.09/bin/../arm-none-eabi/lib//libc.a(lib_a-findfp.o)
                                                  /home/leon/riotboard/arm-2012.09/bin/../arm-none-eabi/lib//libc.a(lib_a-fflush.o)
_image_size                                       /home/leon/git/swp-report/iMX6_Platform_SDK/output/mx6sdl/sdk_unit_test/sabre_ai_rev_b/obj/apps/common/ivt.o
_impure_ptr                                       /home/leon/riotboard/arm-2012.09/bin/../arm-none-eabi/lib//libc.a(lib_a-impure.o)
                                                  /home/leon/riotboard/arm-2012.09/bin/../arm-none-eabi/lib//libc.a(lib_a-syswrite.o)
                                                  /home/leon/riotboard/arm-2012.09/bin/../arm-none-eabi/lib//libc.a(lib_a-fwrite.o)
                                                  /home/leon/riotboard/arm-2012.09/bin/../arm-none-eabi/lib//libstdc++.a(vterminate.o)
                                                  /home/leon/git/swp-report/iMX6_Platform_SDK/output/mx6sdl/lib/libsdk.a(usb_common.o)
                                                  /home/leon/git/swp-report/iMX6_Platform_SDK/output/mx6sdl/lib/libsdk.a(mipi_csi2_common.o)
                                                  /home/leon/riotboard/arm-2012.09/bin/../arm-none-eabi/lib//libc.a(lib_a-wcrtomb.o)
                                                  /home/leon/riotboard/arm-2012.09/bin/../arm-none-eabi/lib//libc.a(lib_a-signal.o)
                                                  /home/leon/riotboard/arm-2012.09/bin/../arm-none-eabi/lib//libc.a(lib_a-reent.o)
                                                  /home/leon/riotboard/arm-2012.09/bin/../arm-none-eabi/lib//libc.a(lib_a-locale.o)
                                                  /home/leon/riotboard/arm-2012.09/bin/../arm-none-eabi/lib//libc.a(lib_a-fputwc.o)
                                                  /home/leon/riotboard/arm-2012.09/bin/../arm-none-eabi/lib//libc.a(lib_a-fclose.o)
                                                  /home/leon/riotboard/arm-2012.09/bin/../arm-none-eabi/lib//libc.a(lib_a-wsetup.o)
                                                  /home/leon/riotboard/arm-2012.09/bin/../arm-none-eabi/lib//libc.a(lib_a-wbuf.o)
                                                  /home/leon/riotboard/arm-2012.09/bin/../arm-none-eabi/lib//libc.a(lib_a-vprintf.o)
                                                  /home/leon/riotboard/arm-2012.09/bin/../arm-none-eabi/lib//libc.a(lib_a-vfprintf.o)
                                                  /home/leon/riotboard/arm-2012.09/bin/../arm-none-eabi/lib//libc.a(lib_a-vfiprintf.o)
                                                  /home/leon/riotboard/arm-2012.09/bin/../arm-none-eabi/lib//libc.a(lib_a-sprintf.o)
                                                  /home/leon/riotboard/arm-2012.09/bin/../arm-none-eabi/lib//libc.a(lib_a-rget.o)
                                                  /home/leon/riotboard/arm-2012.09/bin/../arm-none-eabi/lib//libc.a(lib_a-realloc.o)
                                                  /home/leon/riotboard/arm-2012.09/bin/../arm-none-eabi/lib//libc.a(lib_a-puts.o)
                                                  /home/leon/riotboard/arm-2012.09/bin/../arm-none-eabi/lib//libc.a(lib_a-putc.o)
                                                  /home/leon/riotboard/arm-2012.09/bin/../arm-none-eabi/lib//libc.a(lib_a-printf.o)
                                                  /home/leon/riotboard/arm-2012.09/bin/../arm-none-eabi/lib//libc.a(lib_a-malloc.o)
                                                  /home/leon/riotboard/arm-2012.09/bin/../arm-none-eabi/lib//libc.a(lib_a-fputs.o)
                                                  /home/leon/riotboard/arm-2012.09/bin/../arm-none-eabi/lib//libc.a(lib_a-fputc.o)
                                                  /home/leon/riotboard/arm-2012.09/bin/../arm-none-eabi/lib//libc.a(lib_a-fiprintf.o)
                                                  /home/leon/riotboard/arm-2012.09/bin/../arm-none-eabi/lib//libc.a(lib_a-findfp.o)
                                                  /home/leon/riotboard/arm-2012.09/bin/../arm-none-eabi/lib//libc.a(lib_a-fflush.o)
                                                  /home/leon/riotboard/arm-2012.09/bin/../arm-none-eabi/lib//libc.a(lib_a-assert.o)
                                                  /home/leon/git/swp-report/iMX6_Platform_SDK/output/mx6sdl/sdk_unit_test/sabre_ai_rev_b/libsdk_unit_test.a(adv7180_capture.o)
                                                  /home/leon/git/swp-report/iMX6_Platform_SDK/output/mx6sdl/sdk_unit_test/sabre_ai_rev_b/libsdk_unit_test.a(usb0_device_mouse_test.o)
                                                  /home/leon/git/swp-report/iMX6_Platform_SDK/output/mx6sdl/sdk_unit_test/sabre_ai_rev_b/libsdk_unit_test.a(ips_rotate.o)
                                                  /home/leon/git/swp-report/iMX6_Platform_SDK/output/mx6sdl/sdk_unit_test/sabre_ai_rev_b/libsdk_unit_test.a(ips_resize.o)
                                                  /home/leon/git/swp-report/iMX6_Platform_SDK/output/mx6sdl/sdk_unit_test/sabre_ai_rev_b/libsdk_unit_test.a(ips_csc.o)
                                                  /home/leon/git/swp-report/iMX6_Platform_SDK/output/mx6sdl/sdk_unit_test/sabre_ai_rev_b/libsdk_unit_test.a(ips_combiner.o)
                                                  /home/leon/git/swp-report/iMX6_Platform_SDK/output/mx6sdl/sdk_unit_test/sabre_ai_rev_b/libsdk_unit_test.a(accelerometer_test.o)
                                                  /home/leon/git/swp-report/iMX6_Platform_SDK/output/mx6sdl/sdk_unit_test/sabre_ai_rev_b/libsdk_unit_test.a(csi_test_mode.o)
                                                  /home/leon/git/swp-report/iMX6_Platform_SDK/output/mx6sdl/sdk_unit_test/sabre_ai_rev_b/libsdk_unit_test.a(camera_test.o)
                                                  /home/leon/git/swp-report/iMX6_Platform_SDK/output/mx6sdl/sdk_unit_test/sabre_ai_rev_b/libsdk_unit_test.a(spi_test.o)
                                                  /home/leon/git/swp-report/iMX6_Platform_SDK/output/mx6sdl/sdk_unit_test/sabre_ai_rev_b/libsdk_unit_test.a(pcie_test_rc.o)
                                                  /home/leon/git/swp-report/iMX6_Platform_SDK/output/mx6sdl/sdk_unit_test/sabre_ai_rev_b/libsdk_unit_test.a(eim_test.o)
                                                  /home/leon/git/swp-report/iMX6_Platform_SDK/output/mx6sdl/sdk_unit_test/sabre_ai_rev_b/libsdk_unit_test.a(can_test.o)
                                                  /home/leon/git/swp-report/iMX6_Platform_SDK/output/mx6sdl/sdk_unit_test/sabre_ai_rev_b/libsdk_unit_test.a(mipi_test.o)
                                                  /home/leon/git/swp-report/iMX6_Platform_SDK/output/mx6sdl/sdk_unit_test/sabre_ai_rev_b/libsdk_unit_test.a(ips_test.o)
                                                  /home/leon/git/swp-report/iMX6_Platform_SDK/output/mx6sdl/sdk_unit_test/sabre_ai_rev_b/libsdk_unit_test.a(ips_display.o)
                                                  /home/leon/git/swp-report/iMX6_Platform_SDK/output/mx6sdl/sdk_unit_test/sabre_ai_rev_b/libsdk_unit_test.a(watchdog_test.o)
                                                  /home/leon/git/swp-report/iMX6_Platform_SDK/output/mx6sdl/sdk_unit_test/sabre_ai_rev_b/libsdk_unit_test.a(pwm_test.o)
                                                  /home/leon/git/swp-report/iMX6_Platform_SDK/output/mx6sdl/sdk_unit_test/sabre_ai_rev_b/libsdk_unit_test.a(usdhc_test.o)
                                                  /home/leon/git/swp-report/iMX6_Platform_SDK/output/mx6sdl/sdk_unit_test/sabre_ai_rev_b/libsdk_unit_test.a(uart_test.o)
                                                  /home/leon/git/swp-report/iMX6_Platform_SDK/output/mx6sdl/sdk_unit_test/sabre_ai_rev_b/libsdk_unit_test.a(gpt_test.o)
                                                  /home/leon/git/swp-report/iMX6_Platform_SDK/output/mx6sdl/sdk_unit_test/sabre_ai_rev_b/libsdk_unit_test.a(epit_test.o)
                                                  /home/leon/git/swp-report/iMX6_Platform_SDK/output/mx6sdl/sdk_unit_test/sabre_ai_rev_b/libsdk_unit_test.a(sdma_test.o)
                                                  /home/leon/git/swp-report/iMX6_Platform_SDK/output/mx6sdl/sdk_unit_test/sabre_ai_rev_b/libsdk_unit_test.a(tempmon_test.o)
                                                  /home/leon/git/swp-report/iMX6_Platform_SDK/output/mx6sdl/sdk_unit_test/sabre_ai_rev_b/libsdk_unit_test.a(snvs_srtc_test.o)
                                                  /home/leon/git/swp-report/iMX6_Platform_SDK/output/mx6sdl/sdk_unit_test/sabre_ai_rev_b/libsdk_unit_test.a(snvs_rtc_test.o)
                                                  /home/leon/git/swp-report/iMX6_Platform_SDK/output/mx6sdl/sdk_unit_test/sabre_ai_rev_b/libsdk_unit_test.a(imx6_i2c_device.o)
                                                  /home/leon/git/swp-report/iMX6_Platform_SDK/output/mx6sdl/sdk_unit_test/sabre_ai_rev_b/libsdk_unit_test.a(i2c_test.o)
                                                  /home/leon/git/swp-report/iMX6_Platform_SDK/output/mx6sdl/sdk_unit_test/sabre_ai_rev_b/libsdk_unit_test.a(ocotp_test.o)
                                                  /home/leon/git/swp-report/iMX6_Platform_SDK/output/mx6sdl/lib/libsdk.a(system_util.o)
                                                  /home/leon/git/swp-report/iMX6_Platform_SDK/output/mx6sdl/lib/libsdk.a(menu.o)
_init                                             /home/leon/riotboard/arm-2012.09/bin/../lib/gcc/arm-none-eabi/4.7.2//crti.o
                                                  /home/leon/riotboard/arm-2012.09/bin/../arm-none-eabi/lib//libc.a(lib_a-init.o)
_init_signal                                      /home/leon/riotboard/arm-2012.09/bin/../arm-none-eabi/lib//libc.a(lib_a-signal.o)
_init_signal_r                                    /home/leon/riotboard/arm-2012.09/bin/../arm-none-eabi/lib//libc.a(lib_a-signal.o)
_isatty                                           /home/leon/git/swp-report/iMX6_Platform_SDK/output/mx6sdl/lib/libsdk.a(runtime_support.o)
                                                  /home/leon/riotboard/arm-2012.09/bin/../arm-none-eabi/lib//libc.a(lib_a-isattyr.o)
_isatty_r                                         /home/leon/riotboard/arm-2012.09/bin/../arm-none-eabi/lib//libc.a(lib_a-isattyr.o)
                                                  /home/leon/riotboard/arm-2012.09/bin/../arm-none-eabi/lib//libc.a(lib_a-makebuf.o)
_kill                                             /home/leon/git/swp-report/iMX6_Platform_SDK/output/mx6sdl/lib/libsdk.a(runtime_support.o)
                                                  /home/leon/riotboard/arm-2012.09/bin/../arm-none-eabi/lib//libc.a(lib_a-signalr.o)
_kill_r                                           /home/leon/riotboard/arm-2012.09/bin/../arm-none-eabi/lib//libc.a(lib_a-signalr.o)
                                                  /home/leon/riotboard/arm-2012.09/bin/../arm-none-eabi/lib//libc.a(lib_a-signal.o)
_link                                             /home/leon/git/swp-report/iMX6_Platform_SDK/output/mx6sdl/lib/libsdk.a(runtime_support.o)
_localeconv_r                                     /home/leon/riotboard/arm-2012.09/bin/../arm-none-eabi/lib//libc.a(lib_a-locale.o)
                                                  /home/leon/riotboard/arm-2012.09/bin/../arm-none-eabi/lib//libc.a(lib_a-vfprintf.o)
                                                  /home/leon/riotboard/arm-2012.09/bin/../arm-none-eabi/lib//libc.a(lib_a-svfprintf.o)
_lseek                                            /home/leon/git/swp-report/iMX6_Platform_SDK/output/mx6sdl/lib/libsdk.a(runtime_support.o)
                                                  /home/leon/riotboard/arm-2012.09/bin/../arm-none-eabi/lib//libc.a(lib_a-lseekr.o)
_lseek_r                                          /home/leon/riotboard/arm-2012.09/bin/../arm-none-eabi/lib//libc.a(lib_a-lseekr.o)
                                                  /home/leon/riotboard/arm-2012.09/bin/../arm-none-eabi/lib//libc.a(lib_a-stdio.o)
_malloc_r                                         /home/leon/riotboard/arm-2012.09/bin/../arm-none-eabi/lib//libc.a(lib_a-mallocr.o)
                                                  /home/leon/riotboard/arm-2012.09/bin/../arm-none-eabi/lib//libc.a(lib_a-callocr.o)
                                                  /home/leon/riotboard/arm-2012.09/bin/../arm-none-eabi/lib//libc.a(lib_a-svfiprintf.o)
                                                  /home/leon/riotboard/arm-2012.09/bin/../arm-none-eabi/lib//libc.a(lib_a-signal.o)
                                                  /home/leon/riotboard/arm-2012.09/bin/../arm-none-eabi/lib//libc.a(lib_a-makebuf.o)
                                                  /home/leon/riotboard/arm-2012.09/bin/../arm-none-eabi/lib//libc.a(lib_a-svfprintf.o)
                                                  /home/leon/riotboard/arm-2012.09/bin/../arm-none-eabi/lib//libc.a(lib_a-reallocr.o)
                                                  /home/leon/riotboard/arm-2012.09/bin/../arm-none-eabi/lib//libc.a(lib_a-malloc.o)
                                                  /home/leon/riotboard/arm-2012.09/bin/../arm-none-eabi/lib//libc.a(lib_a-fvwrite.o)
                                                  /home/leon/riotboard/arm-2012.09/bin/../arm-none-eabi/lib//libc.a(lib_a-findfp.o)
_malloc_trim_r                                    /home/leon/riotboard/arm-2012.09/bin/../arm-none-eabi/lib//libc.a(lib_a-freer.o)
_mprec_log10                                      /home/leon/riotboard/arm-2012.09/bin/../arm-none-eabi/lib//libc.a(lib_a-mprec.o)
_open                                             /home/leon/git/swp-report/iMX6_Platform_SDK/output/mx6sdl/lib/libsdk.a(runtime_support.o)
_printf_r                                         /home/leon/riotboard/arm-2012.09/bin/../arm-none-eabi/lib//libc.a(lib_a-printf.o)
_putc_r                                           /home/leon/riotboard/arm-2012.09/bin/../arm-none-eabi/lib//libc.a(lib_a-putc.o)
                                                  /home/leon/riotboard/arm-2012.09/bin/../arm-none-eabi/lib//libc.a(lib_a-fputc.o)
_puts_r                                           /home/leon/riotboard/arm-2012.09/bin/../arm-none-eabi/lib//libc.a(lib_a-puts.o)
_raise_r                                          /home/leon/riotboard/arm-2012.09/bin/../arm-none-eabi/lib//libc.a(lib_a-signal.o)
_raw_puts                                         /home/leon/git/swp-report/iMX6_Platform_SDK/output/mx6sdl/lib/libsdk.a(runtime_support.o)
_read                                             /home/leon/git/swp-report/iMX6_Platform_SDK/output/mx6sdl/lib/libsdk.a(runtime_support.o)
                                                  /home/leon/riotboard/arm-2012.09/bin/../arm-none-eabi/lib//libc.a(lib_a-readr.o)
_read_r                                           /home/leon/riotboard/arm-2012.09/bin/../arm-none-eabi/lib//libc.a(lib_a-readr.o)
                                                  /home/leon/riotboard/arm-2012.09/bin/../arm-none-eabi/lib//libc.a(lib_a-stdio.o)
_realloc_r                                        /home/leon/riotboard/arm-2012.09/bin/../arm-none-eabi/lib//libc.a(lib_a-reallocr.o)
                                                  /home/leon/riotboard/arm-2012.09/bin/../arm-none-eabi/lib//libc.a(lib_a-svfiprintf.o)
                                                  /home/leon/riotboard/arm-2012.09/bin/../arm-none-eabi/lib//libc.a(lib_a-realloc.o)
                                                  /home/leon/riotboard/arm-2012.09/bin/../arm-none-eabi/lib//libc.a(lib_a-fvwrite.o)
_reclaim_reent                                    /home/leon/riotboard/arm-2012.09/bin/../arm-none-eabi/lib//libc.a(lib_a-reent.o)
_sbrk                                             /home/leon/git/swp-report/iMX6_Platform_SDK/output/mx6sdl/lib/libsdk.a(runtime_support.o)
                                                  /home/leon/riotboard/arm-2012.09/bin/../arm-none-eabi/lib//libc.a(lib_a-sbrkr.o)
_sbrk_r                                           /home/leon/riotboard/arm-2012.09/bin/../arm-none-eabi/lib//libc.a(lib_a-sbrkr.o)
                                                  /home/leon/riotboard/arm-2012.09/bin/../arm-none-eabi/lib//libc.a(lib_a-mallocr.o)
                                                  /home/leon/riotboard/arm-2012.09/bin/../arm-none-eabi/lib//libc.a(lib_a-freer.o)
_setlocale_r                                      /home/leon/riotboard/arm-2012.09/bin/../arm-none-eabi/lib//libc.a(lib_a-locale.o)
_signal_r                                         /home/leon/riotboard/arm-2012.09/bin/../arm-none-eabi/lib//libc.a(lib_a-signal.o)
_sprintf_r                                        /home/leon/riotboard/arm-2012.09/bin/../arm-none-eabi/lib//libc.a(lib_a-sprintf.o)
_start                                            /home/leon/git/swp-report/iMX6_Platform_SDK/output/mx6sdl/lib/libsdk.a(startup.o)
                                                  /home/leon/git/swp-report/iMX6_Platform_SDK/output/mx6sdl/lib/libsdk.a(cpu_multicore.o)
                                                  /home/leon/git/swp-report/iMX6_Platform_SDK/output/mx6sdl/lib/libsdk.a(vectors.o)
                                                  /home/leon/git/swp-report/iMX6_Platform_SDK/output/mx6sdl/sdk_unit_test/sabre_ai_rev_b/obj/apps/common/ivt.o
_start_image_add                                  /home/leon/git/swp-report/iMX6_Platform_SDK/output/mx6sdl/sdk_unit_test/sabre_ai_rev_b/obj/apps/common/ivt.o
_stat                                             /home/leon/git/swp-report/iMX6_Platform_SDK/output/mx6sdl/lib/libsdk.a(runtime_support.o)
_svfiprintf_r                                     /home/leon/riotboard/arm-2012.09/bin/../arm-none-eabi/lib//libc.a(lib_a-svfiprintf.o)
_svfprintf_r                                      /home/leon/riotboard/arm-2012.09/bin/../arm-none-eabi/lib//libc.a(lib_a-svfprintf.o)
                                                  /home/leon/riotboard/arm-2012.09/bin/../arm-none-eabi/lib//libc.a(lib_a-sprintf.o)
_sys_exit                                         /home/leon/git/swp-report/iMX6_Platform_SDK/output/mx6sdl/lib/libsdk.a(system_util.o)
                                                  /home/leon/git/swp-report/iMX6_Platform_SDK/output/mx6sdl/lib/libsdk.a(runtime_support.o)
                                                  /home/leon/git/swp-report/iMX6_Platform_SDK/output/mx6sdl/lib/libsdk.a(startup.o)
_times                                            /home/leon/git/swp-report/iMX6_Platform_SDK/output/mx6sdl/lib/libsdk.a(runtime_support.o)
_unlink                                           /home/leon/git/swp-report/iMX6_Platform_SDK/output/mx6sdl/lib/libsdk.a(runtime_support.o)
_vfiprintf_r                                      /home/leon/riotboard/arm-2012.09/bin/../arm-none-eabi/lib//libc.a(lib_a-vfiprintf.o)
                                                  /home/leon/riotboard/arm-2012.09/bin/../arm-none-eabi/lib//libc.a(lib_a-fiprintf.o)
_vfprintf_r                                       /home/leon/riotboard/arm-2012.09/bin/../arm-none-eabi/lib//libc.a(lib_a-vfprintf.o)
                                                  /home/leon/riotboard/arm-2012.09/bin/../arm-none-eabi/lib//libc.a(lib_a-vprintf.o)
                                                  /home/leon/riotboard/arm-2012.09/bin/../arm-none-eabi/lib//libc.a(lib_a-printf.o)
_vprintf_r                                        /home/leon/riotboard/arm-2012.09/bin/../arm-none-eabi/lib//libc.a(lib_a-vprintf.o)
_wait                                             /home/leon/git/swp-report/iMX6_Platform_SDK/output/mx6sdl/lib/libsdk.a(runtime_support.o)
_wcrtomb_r                                        /home/leon/riotboard/arm-2012.09/bin/../arm-none-eabi/lib//libc.a(lib_a-wcrtomb.o)
                                                  /home/leon/riotboard/arm-2012.09/bin/../arm-none-eabi/lib//libc.a(lib_a-fputwc.o)
_wctomb_r                                         /home/leon/riotboard/arm-2012.09/bin/../arm-none-eabi/lib//libc.a(lib_a-wctomb_r.o)
_wrapup_reent                                     /home/leon/riotboard/arm-2012.09/bin/../arm-none-eabi/lib//libc.a(lib_a-reent.o)
_write                                            /home/leon/git/swp-report/iMX6_Platform_SDK/output/mx6sdl/lib/libsdk.a(runtime_support.o)
                                                  /home/leon/riotboard/arm-2012.09/bin/../arm-none-eabi/lib//libc.a(lib_a-writer.o)
_write_r                                          /home/leon/riotboard/arm-2012.09/bin/../arm-none-eabi/lib//libc.a(lib_a-writer.o)
                                                  /home/leon/riotboard/arm-2012.09/bin/../arm-none-eabi/lib//libc.a(lib_a-syswrite.o)
                                                  /home/leon/riotboard/arm-2012.09/bin/../arm-none-eabi/lib//libc.a(lib_a-stdio.o)
abort                                             /home/leon/riotboard/arm-2012.09/bin/../arm-none-eabi/lib//libc.a(lib_a-abort.o)
                                                  /home/leon/riotboard/arm-2012.09/bin/../lib/gcc/arm-none-eabi/4.7.2//libgcc.a(pr-support.o)
                                                  /home/leon/riotboard/arm-2012.09/bin/../lib/gcc/arm-none-eabi/4.7.2//libgcc.a(unwind-arm.o)
                                                  /home/leon/riotboard/arm-2012.09/bin/../arm-none-eabi/lib//libstdc++.a(vterminate.o)
                                                  /home/leon/riotboard/arm-2012.09/bin/../arm-none-eabi/lib//libstdc++.a(eh_personality.o)
                                                  /home/leon/riotboard/arm-2012.09/bin/../arm-none-eabi/lib//libstdc++.a(eh_terminate.o)
                                                  /home/leon/git/swp-report/iMX6_Platform_SDK/output/mx6sdl/lib/libsdk.a(runtime_support.o)
                                                  /home/leon/riotboard/arm-2012.09/bin/../arm-none-eabi/lib//libc.a(lib_a-assert.o)
accelerometer_test                                /home/leon/git/swp-report/iMX6_Platform_SDK/output/mx6sdl/sdk_unit_test/sabre_ai_rev_b/libsdk_unit_test.a(accelerometer_test.o)
                                                  /home/leon/git/swp-report/iMX6_Platform_SDK/output/mx6sdl/sdk_unit_test/sabre_ai_rev_b/obj/apps/sdk_unit_test/src/all_test.o
adv7180_capture                                   /home/leon/git/swp-report/iMX6_Platform_SDK/output/mx6sdl/sdk_unit_test/sabre_ai_rev_b/libsdk_unit_test.a(adv7180_capture.o)
                                                  /home/leon/git/swp-report/iMX6_Platform_SDK/output/mx6sdl/sdk_unit_test/sabre_ai_rev_b/libsdk_unit_test.a(camera_test.o)
adv7180_get_std                                   /home/leon/git/swp-report/iMX6_Platform_SDK/output/mx6sdl/lib/libsdk.a(adv7180.o)
                                                  /home/leon/git/swp-report/iMX6_Platform_SDK/output/mx6sdl/sdk_unit_test/sabre_ai_rev_b/libsdk_unit_test.a(adv7180_capture.o)
adv7180_init                                      /home/leon/git/swp-report/iMX6_Platform_SDK/output/mx6sdl/lib/libsdk.a(adv7180.o)
                                                  /home/leon/git/swp-report/iMX6_Platform_SDK/output/mx6sdl/sdk_unit_test/sabre_ai_rev_b/libsdk_unit_test.a(adv7180_capture.o)
adv7180_is_interlaced_mode                        /home/leon/git/swp-report/iMX6_Platform_SDK/output/mx6sdl/lib/libsdk.a(adv7180.o)
                                                  /home/leon/git/swp-report/iMX6_Platform_SDK/output/mx6sdl/sdk_unit_test/sabre_ai_rev_b/libsdk_unit_test.a(adv7180_capture.o)
adv7180_work_mode                                 /home/leon/git/swp-report/iMX6_Platform_SDK/output/mx6sdl/lib/libsdk.a(adv7180.o)
arm_branch_prediction_disable                     /home/leon/git/swp-report/iMX6_Platform_SDK/output/mx6sdl/lib/libsdk.a(cortexA9.o)
arm_branch_prediction_enable                      /home/leon/git/swp-report/iMX6_Platform_SDK/output/mx6sdl/lib/libsdk.a(cortexA9.o)
arm_branch_target_cache_invalidate                /home/leon/git/swp-report/iMX6_Platform_SDK/output/mx6sdl/lib/libsdk.a(cortexA9.o)
arm_branch_target_cache_invalidate_is             /home/leon/git/swp-report/iMX6_Platform_SDK/output/mx6sdl/lib/libsdk.a(cortexA9.o)
arm_dcache_disable                                /home/leon/git/swp-report/iMX6_Platform_SDK/output/mx6sdl/lib/libsdk.a(armv7_cache.o)
                                                  /home/leon/git/swp-report/iMX6_Platform_SDK/output/mx6sdl/sdk_unit_test/sabre_ai_rev_b/libsdk_unit_test.a(cpu_wp_test.o)
arm_dcache_enable                                 /home/leon/git/swp-report/iMX6_Platform_SDK/output/mx6sdl/lib/libsdk.a(armv7_cache.o)
arm_dcache_flush                                  /home/leon/git/swp-report/iMX6_Platform_SDK/output/mx6sdl/lib/libsdk.a(armv7_cache.o)
                                                  /home/leon/git/swp-report/iMX6_Platform_SDK/output/mx6sdl/sdk_unit_test/sabre_ai_rev_b/libsdk_unit_test.a(cpu_wp_test.o)
arm_dcache_flush_line                             /home/leon/git/swp-report/iMX6_Platform_SDK/output/mx6sdl/lib/libsdk.a(armv7_cache.o)
arm_dcache_flush_mlines                           /home/leon/git/swp-report/iMX6_Platform_SDK/output/mx6sdl/lib/libsdk.a(armv7_cache.o)
                                                  /home/leon/git/swp-report/iMX6_Platform_SDK/output/mx6sdl/lib/libsdk.a(usdhc.o)
arm_dcache_invalidate                             /home/leon/git/swp-report/iMX6_Platform_SDK/output/mx6sdl/lib/libsdk.a(armv7_cache.o)
                                                  /home/leon/git/swp-report/iMX6_Platform_SDK/output/mx6sdl/sdk_unit_test/sabre_ai_rev_b/libsdk_unit_test.a(cpu_wp_test.o)
arm_dcache_invalidate_line                        /home/leon/git/swp-report/iMX6_Platform_SDK/output/mx6sdl/lib/libsdk.a(armv7_cache.o)
arm_dcache_invalidate_mlines                      /home/leon/git/swp-report/iMX6_Platform_SDK/output/mx6sdl/lib/libsdk.a(armv7_cache.o)
                                                  /home/leon/git/swp-report/iMX6_Platform_SDK/output/mx6sdl/lib/libsdk.a(usdhc.o)
arm_dcache_state_query                            /home/leon/git/swp-report/iMX6_Platform_SDK/output/mx6sdl/lib/libsdk.a(armv7_cache.o)
                                                  /home/leon/git/swp-report/iMX6_Platform_SDK/output/mx6sdl/lib/libsdk.a(usdhc.o)
                                                  /home/leon/git/swp-report/iMX6_Platform_SDK/output/mx6sdl/sdk_unit_test/sabre_ai_rev_b/libsdk_unit_test.a(cpu_wp_test.o)
arm_icache_disable                                /home/leon/git/swp-report/iMX6_Platform_SDK/output/mx6sdl/lib/libsdk.a(armv7_cache.o)
arm_icache_enable                                 /home/leon/git/swp-report/iMX6_Platform_SDK/output/mx6sdl/lib/libsdk.a(armv7_cache.o)
arm_icache_invalidate                             /home/leon/git/swp-report/iMX6_Platform_SDK/output/mx6sdl/lib/libsdk.a(armv7_cache.o)
arm_icache_invalidate_is                          /home/leon/git/swp-report/iMX6_Platform_SDK/output/mx6sdl/lib/libsdk.a(armv7_cache.o)
arm_icache_invalidate_line                        /home/leon/git/swp-report/iMX6_Platform_SDK/output/mx6sdl/lib/libsdk.a(armv7_cache.o)
arm_icache_invalidate_mlines                      /home/leon/git/swp-report/iMX6_Platform_SDK/output/mx6sdl/lib/libsdk.a(armv7_cache.o)
arm_icache_state_query                            /home/leon/git/swp-report/iMX6_Platform_SDK/output/mx6sdl/lib/libsdk.a(armv7_cache.o)
arm_iomux_config                                  /home/leon/git/swp-report/iMX6_Platform_SDK/output/mx6sdl/lib/libboard_sabre_ai_rev_b.a(iomux_config.o)
arm_set_interrupt_state                           /home/leon/git/swp-report/iMX6_Platform_SDK/output/mx6sdl/lib/libsdk.a(cortexA9.o)
                                                  /home/leon/git/swp-report/iMX6_Platform_SDK/output/mx6sdl/sdk_unit_test/sabre_ai_rev_b/obj/apps/common/platform_init.o
arm_unified_tlb_invalidate                        /home/leon/git/swp-report/iMX6_Platform_SDK/output/mx6sdl/lib/libsdk.a(cortexA9.o)
                                                  /home/leon/git/swp-report/iMX6_Platform_SDK/output/mx6sdl/lib/libsdk.a(mmu.o)
arm_unified_tlb_invalidate_is                     /home/leon/git/swp-report/iMX6_Platform_SDK/output/mx6sdl/lib/libsdk.a(cortexA9.o)
asrc_iomux_config                                 /home/leon/git/swp-report/iMX6_Platform_SDK/output/mx6sdl/lib/libboard_sabre_ai_rev_b.a(iomux_config.o)
audio_ComputeCTS                                  /home/leon/git/swp-report/iMX6_Platform_SDK/output/mx6sdl/lib/libsdk.a(hdmi_tx_audio.o)
audio_ComputeN                                    /home/leon/git/swp-report/iMX6_Platform_SDK/output/mx6sdl/lib/libsdk.a(hdmi_tx_audio.o)
audio_Configure                                   /home/leon/git/swp-report/iMX6_Platform_SDK/output/mx6sdl/lib/libsdk.a(hdmi_tx_audio.o)
                                                  /home/leon/git/swp-report/iMX6_Platform_SDK/output/mx6sdl/sdk_unit_test/sabre_ai_rev_b/libsdk_unit_test.a(hdmi_test.o)
audio_Configure_DMA                               /home/leon/git/swp-report/iMX6_Platform_SDK/output/mx6sdl/lib/libsdk.a(hdmi_tx_audio.o)
                                                  /home/leon/git/swp-report/iMX6_Platform_SDK/output/mx6sdl/sdk_unit_test/sabre_ai_rev_b/libsdk_unit_test.a(hdmi_test.o)
audio_DMA_BurstMode                               /home/leon/git/swp-report/iMX6_Platform_SDK/output/mx6sdl/lib/libsdk.a(hdmi_tx_audio.o)
audio_DMA_IncrType                                /home/leon/git/swp-report/iMX6_Platform_SDK/output/mx6sdl/lib/libsdk.a(hdmi_tx_audio.o)
audio_DMA_InterruptMask                           /home/leon/git/swp-report/iMX6_Platform_SDK/output/mx6sdl/lib/libsdk.a(hdmi_tx_audio.o)
audio_DMA_InterruptPolarity                       /home/leon/git/swp-report/iMX6_Platform_SDK/output/mx6sdl/lib/libsdk.a(hdmi_tx_audio.o)
audio_DMA_LockEnable                              /home/leon/git/swp-report/iMX6_Platform_SDK/output/mx6sdl/lib/libsdk.a(hdmi_tx_audio.o)
audio_DMA_ResetFIFO                               /home/leon/git/swp-report/iMX6_Platform_SDK/output/mx6sdl/lib/libsdk.a(hdmi_tx_audio.o)
audio_DMA_SetCONF1                                /home/leon/git/swp-report/iMX6_Platform_SDK/output/mx6sdl/lib/libsdk.a(hdmi_tx_audio.o)
audio_DMA_Start                                   /home/leon/git/swp-report/iMX6_Platform_SDK/output/mx6sdl/lib/libsdk.a(hdmi_tx_audio.o)
audio_DMA_StartAddr                               /home/leon/git/swp-report/iMX6_Platform_SDK/output/mx6sdl/lib/libsdk.a(hdmi_tx_audio.o)
audio_DMA_StopAddr                                /home/leon/git/swp-report/iMX6_Platform_SDK/output/mx6sdl/lib/libsdk.a(hdmi_tx_audio.o)
audio_DMA_Threshold                               /home/leon/git/swp-report/iMX6_Platform_SDK/output/mx6sdl/lib/libsdk.a(hdmi_tx_audio.o)
audio_PacketLayout                                /home/leon/git/swp-report/iMX6_Platform_SDK/output/mx6sdl/lib/libsdk.a(hdmi_tx_audio.o)
audio_clk_CTS                                     /home/leon/git/swp-report/iMX6_Platform_SDK/output/mx6sdl/lib/libsdk.a(hdmi_tx_audio.o)
audio_clk_N                                       /home/leon/git/swp-report/iMX6_Platform_SDK/output/mx6sdl/lib/libsdk.a(hdmi_tx_audio.o)
audio_info_config                                 /home/leon/git/swp-report/iMX6_Platform_SDK/output/mx6sdl/lib/libsdk.a(hdmi_tx_audio.o)
audmux_iomux_config                               /home/leon/git/swp-report/iMX6_Platform_SDK/output/mx6sdl/lib/libboard_sabre_ai_rev_b.a(audmux_iomux_config.o)
                                                  /home/leon/git/swp-report/iMX6_Platform_SDK/output/mx6sdl/lib/libboard_sabre_ai_rev_b.a(iomux_config.o)
bd                                                /home/leon/git/swp-report/iMX6_Platform_SDK/output/mx6sdl/sdk_unit_test/sabre_ai_rev_b/obj/apps/common/ivt.o
board_description                                 /home/leon/git/swp-report/iMX6_Platform_SDK/output/mx6sdl/lib/libsdk.a(board_id.o)
board_ioexpander_init                             /home/leon/git/swp-report/iMX6_Platform_SDK/output/mx6sdl/lib/libboard_sabre_ai_rev_b.a(board_io_expanders.o)
                                                  /home/leon/git/swp-report/iMX6_Platform_SDK/output/mx6sdl/sdk_unit_test/sabre_ai_rev_b/obj/apps/common/platform_init.o
board_ioexpander_iomux_config                     /home/leon/git/swp-report/iMX6_Platform_SDK/output/mx6sdl/lib/libboard_sabre_ai_rev_b.a(board_io_expanders.o)
                                                  /home/leon/git/swp-report/iMX6_Platform_SDK/output/mx6sdl/lib/libboard_sabre_ai_rev_b.a(board_usb.o)
                                                  /home/leon/git/swp-report/iMX6_Platform_SDK/output/mx6sdl/lib/libboard_sabre_ai_rev_b.a(board_mipi.o)
                                                  /home/leon/git/swp-report/iMX6_Platform_SDK/output/mx6sdl/lib/libboard_sabre_ai_rev_b.a(board_display.o)
                                                  /home/leon/git/swp-report/iMX6_Platform_SDK/output/mx6sdl/lib/libboard_sabre_ai_rev_b.a(board_can.o)
board_name                                        /home/leon/git/swp-report/iMX6_Platform_SDK/output/mx6sdl/lib/libsdk.a(board_id.o)
                                                  /home/leon/git/swp-report/iMX6_Platform_SDK/output/mx6sdl/sdk_unit_test/sabre_ai_rev_b/obj/apps/common/print_version.o
board_revision                                    /home/leon/git/swp-report/iMX6_Platform_SDK/output/mx6sdl/lib/libsdk.a(board_id.o)
                                                  /home/leon/git/swp-report/iMX6_Platform_SDK/output/mx6sdl/sdk_unit_test/sabre_ai_rev_b/obj/apps/common/print_version.o
bzero                                             /home/leon/riotboard/arm-2012.09/bin/../arm-none-eabi/lib//libc.a(lib_a-bzero.o)
                                                  /home/leon/git/swp-report/iMX6_Platform_SDK/output/mx6sdl/lib/libsdk.a(mmu.o)
camera_ipu1_iomux_config                          /home/leon/git/swp-report/iMX6_Platform_SDK/output/mx6sdl/lib/libboard_sabre_ai_rev_b.a(board_camera.o)
camera_power_on                                   /home/leon/git/swp-report/iMX6_Platform_SDK/output/mx6sdl/lib/libboard_sabre_ai_rev_b.a(board_camera.o)
camera_test                                       /home/leon/git/swp-report/iMX6_Platform_SDK/output/mx6sdl/sdk_unit_test/sabre_ai_rev_b/libsdk_unit_test.a(camera_test.o)
                                                  /home/leon/git/swp-report/iMX6_Platform_SDK/output/mx6sdl/sdk_unit_test/sabre_ai_rev_b/obj/apps/sdk_unit_test/src/all_test.o
can1_port                                         /home/leon/git/swp-report/iMX6_Platform_SDK/output/mx6sdl/sdk_unit_test/sabre_ai_rev_b/libsdk_unit_test.a(can_test.o)
can2_port                                         /home/leon/git/swp-report/iMX6_Platform_SDK/output/mx6sdl/sdk_unit_test/sabre_ai_rev_b/libsdk_unit_test.a(can_test.o)
can2_rx_handler                                   /home/leon/git/swp-report/iMX6_Platform_SDK/output/mx6sdl/sdk_unit_test/sabre_ai_rev_b/libsdk_unit_test.a(can_test.o)
can_disable_mb_interrupt                          /home/leon/git/swp-report/iMX6_Platform_SDK/output/mx6sdl/lib/libsdk.a(can.o)
can_enable_mb_interrupt                           /home/leon/git/swp-report/iMX6_Platform_SDK/output/mx6sdl/lib/libsdk.a(can.o)
                                                  /home/leon/git/swp-report/iMX6_Platform_SDK/output/mx6sdl/sdk_unit_test/sabre_ai_rev_b/libsdk_unit_test.a(can_test.o)
can_exit_freeze                                   /home/leon/git/swp-report/iMX6_Platform_SDK/output/mx6sdl/lib/libsdk.a(can.o)
                                                  /home/leon/git/swp-report/iMX6_Platform_SDK/output/mx6sdl/sdk_unit_test/sabre_ai_rev_b/libsdk_unit_test.a(can_test.o)
can_freeze                                        /home/leon/git/swp-report/iMX6_Platform_SDK/output/mx6sdl/lib/libsdk.a(can.o)
                                                  /home/leon/git/swp-report/iMX6_Platform_SDK/output/mx6sdl/sdk_unit_test/sabre_ai_rev_b/libsdk_unit_test.a(can_test.o)
can_init                                          /home/leon/git/swp-report/iMX6_Platform_SDK/output/mx6sdl/lib/libsdk.a(can.o)
                                                  /home/leon/git/swp-report/iMX6_Platform_SDK/output/mx6sdl/sdk_unit_test/sabre_ai_rev_b/libsdk_unit_test.a(can_test.o)
can_mb_int_ack                                    /home/leon/git/swp-report/iMX6_Platform_SDK/output/mx6sdl/lib/libsdk.a(can.o)
                                                  /home/leon/git/swp-report/iMX6_Platform_SDK/output/mx6sdl/sdk_unit_test/sabre_ai_rev_b/libsdk_unit_test.a(can_test.o)
can_mb_int_flag                                   /home/leon/git/swp-report/iMX6_Platform_SDK/output/mx6sdl/lib/libsdk.a(can.o)
                                                  /home/leon/git/swp-report/iMX6_Platform_SDK/output/mx6sdl/sdk_unit_test/sabre_ai_rev_b/libsdk_unit_test.a(can_test.o)
can_setup_interrupt                               /home/leon/git/swp-report/iMX6_Platform_SDK/output/mx6sdl/lib/libsdk.a(can.o)
                                                  /home/leon/git/swp-report/iMX6_Platform_SDK/output/mx6sdl/sdk_unit_test/sabre_ai_rev_b/libsdk_unit_test.a(can_test.o)
can_sw_reset                                      /home/leon/git/swp-report/iMX6_Platform_SDK/output/mx6sdl/lib/libsdk.a(can.o)
can_test_count                                    /home/leon/git/swp-report/iMX6_Platform_SDK/output/mx6sdl/sdk_unit_test/sabre_ai_rev_b/libsdk_unit_test.a(can_test.o)
can_update_bitrate                                /home/leon/git/swp-report/iMX6_Platform_SDK/output/mx6sdl/lib/libsdk.a(can.o)
card_cmd_config                                   /home/leon/git/swp-report/iMX6_Platform_SDK/output/mx6sdl/lib/libsdk.a(usdhc.o)
                                                  /home/leon/git/swp-report/iMX6_Platform_SDK/output/mx6sdl/lib/libsdk.a(usdhc_sd.o)
                                                  /home/leon/git/swp-report/iMX6_Platform_SDK/output/mx6sdl/lib/libsdk.a(usdhc_mmc.o)
card_data_read                                    /home/leon/git/swp-report/iMX6_Platform_SDK/output/mx6sdl/lib/libsdk.a(usdhc.o)
                                                  /home/leon/git/swp-report/iMX6_Platform_SDK/output/mx6sdl/sdk_unit_test/sabre_ai_rev_b/libsdk_unit_test.a(usdhc_test.o)
card_data_write                                   /home/leon/git/swp-report/iMX6_Platform_SDK/output/mx6sdl/lib/libsdk.a(usdhc.o)
                                                  /home/leon/git/swp-report/iMX6_Platform_SDK/output/mx6sdl/sdk_unit_test/sabre_ai_rev_b/libsdk_unit_test.a(usdhc_test.o)
card_detect_test_en                               /home/leon/git/swp-report/iMX6_Platform_SDK/output/mx6sdl/lib/libsdk.a(usdhc.o)
card_emmc_init                                    /home/leon/git/swp-report/iMX6_Platform_SDK/output/mx6sdl/lib/libsdk.a(usdhc.o)
                                                  /home/leon/git/swp-report/iMX6_Platform_SDK/output/mx6sdl/sdk_unit_test/sabre_ai_rev_b/libsdk_unit_test.a(usdhc_test.o)
card_enter_trans                                  /home/leon/git/swp-report/iMX6_Platform_SDK/output/mx6sdl/lib/libsdk.a(usdhc.o)
                                                  /home/leon/git/swp-report/iMX6_Platform_SDK/output/mx6sdl/lib/libsdk.a(usdhc_sd.o)
                                                  /home/leon/git/swp-report/iMX6_Platform_SDK/output/mx6sdl/lib/libsdk.a(usdhc_mmc.o)
card_get_cid                                      /home/leon/git/swp-report/iMX6_Platform_SDK/output/mx6sdl/lib/libsdk.a(usdhc.o)
                                                  /home/leon/git/swp-report/iMX6_Platform_SDK/output/mx6sdl/lib/libsdk.a(usdhc_sd.o)
                                                  /home/leon/git/swp-report/iMX6_Platform_SDK/output/mx6sdl/lib/libsdk.a(usdhc_mmc.o)
card_get_port                                     /home/leon/git/swp-report/iMX6_Platform_SDK/output/mx6sdl/lib/libsdk.a(usdhc.o)
                                                  /home/leon/git/swp-report/iMX6_Platform_SDK/output/mx6sdl/lib/libsdk.a(usdhc_sd.o)
                                                  /home/leon/git/swp-report/iMX6_Platform_SDK/output/mx6sdl/lib/libsdk.a(usdhc_mmc.o)
                                                  /home/leon/git/swp-report/iMX6_Platform_SDK/output/mx6sdl/lib/libsdk.a(usdhc_host.o)
card_init                                         /home/leon/git/swp-report/iMX6_Platform_SDK/output/mx6sdl/lib/libsdk.a(usdhc.o)
                                                  /home/leon/git/swp-report/iMX6_Platform_SDK/output/mx6sdl/sdk_unit_test/sabre_ai_rev_b/libsdk_unit_test.a(usdhc_test.o)
card_set_blklen                                   /home/leon/git/swp-report/iMX6_Platform_SDK/output/mx6sdl/lib/libsdk.a(usdhc.o)
card_trans_status                                 /home/leon/git/swp-report/iMX6_Platform_SDK/output/mx6sdl/lib/libsdk.a(usdhc.o)
                                                  /home/leon/git/swp-report/iMX6_Platform_SDK/output/mx6sdl/lib/libsdk.a(usdhc_mmc.o)
card_wait_xfer_done                               /home/leon/git/swp-report/iMX6_Platform_SDK/output/mx6sdl/lib/libsdk.a(usdhc.o)
card_xfer_result                                  /home/leon/git/swp-report/iMX6_Platform_SDK/output/mx6sdl/lib/libsdk.a(usdhc.o)
                                                  /home/leon/git/swp-report/iMX6_Platform_SDK/output/mx6sdl/sdk_unit_test/sabre_ai_rev_b/libsdk_unit_test.a(usdhc_test.o)
ccm_ccgr_config                                   /home/leon/git/swp-report/iMX6_Platform_SDK/output/mx6sdl/lib/libsdk.a(ccm_pll.o)
ccm_enter_low_power                               /home/leon/git/swp-report/iMX6_Platform_SDK/output/mx6sdl/lib/libsdk.a(ccm_pll.o)
ccm_init                                          /home/leon/git/swp-report/iMX6_Platform_SDK/output/mx6sdl/lib/libsdk.a(ccm_pll.o)
                                                  /home/leon/git/swp-report/iMX6_Platform_SDK/output/mx6sdl/sdk_unit_test/sabre_ai_rev_b/obj/apps/common/platform_init.o
ccm_iomux_config                                  /home/leon/git/swp-report/iMX6_Platform_SDK/output/mx6sdl/lib/libboard_sabre_ai_rev_b.a(ccm_iomux_config.o)
                                                  /home/leon/git/swp-report/iMX6_Platform_SDK/output/mx6sdl/lib/libboard_sabre_ai_rev_b.a(iomux_config.o)
ccm_set_lpm_wakeup_source                         /home/leon/git/swp-report/iMX6_Platform_SDK/output/mx6sdl/lib/libsdk.a(ccm_pll.o)
chip_name                                         /home/leon/git/swp-report/iMX6_Platform_SDK/output/mx6sdl/lib/libsdk.a(board_id.o)
                                                  /home/leon/git/swp-report/iMX6_Platform_SDK/output/mx6sdl/sdk_unit_test/sabre_ai_rev_b/obj/apps/common/print_version.o
chip_revision                                     /home/leon/git/swp-report/iMX6_Platform_SDK/output/mx6sdl/lib/libsdk.a(board_id.o)
                                                  /home/leon/git/swp-report/iMX6_Platform_SDK/output/mx6sdl/sdk_unit_test/sabre_ai_rev_b/obj/apps/common/print_version.o
cleanup_glue                                      /home/leon/riotboard/arm-2012.09/bin/../arm-none-eabi/lib//libc.a(lib_a-reent.o)
clock_gating_config                               /home/leon/git/swp-report/iMX6_Platform_SDK/output/mx6sdl/lib/libsdk.a(ccm_pll.o)
                                                  /home/leon/git/swp-report/iMX6_Platform_SDK/output/mx6sdl/lib/libsdk.a(gpt.o)
                                                  /home/leon/git/swp-report/iMX6_Platform_SDK/output/mx6sdl/lib/libsdk.a(ecspi.o)
                                                  /home/leon/git/swp-report/iMX6_Platform_SDK/output/mx6sdl/lib/libsdk.a(imx_i2c.o)
                                                  /home/leon/git/swp-report/iMX6_Platform_SDK/output/mx6sdl/lib/libsdk.a(epit.o)
                                                  /home/leon/git/swp-report/iMX6_Platform_SDK/output/mx6sdl/lib/libsdk.a(imx_uart.o)
common_abort_handler                              /home/leon/git/swp-report/iMX6_Platform_SDK/output/mx6sdl/lib/libsdk.a(arm_abort.o)
compute_alarm                                     /home/leon/git/swp-report/iMX6_Platform_SDK/output/mx6sdl/lib/libsdk.a(tempmon.o)
compute_temp                                      /home/leon/git/swp-report/iMX6_Platform_SDK/output/mx6sdl/lib/libsdk.a(tempmon.o)
copysignf                                         /home/leon/riotboard/arm-2012.09/bin/../arm-none-eabi/lib//libm.a(lib_a-sf_copysign.o)
                                                  /home/leon/riotboard/arm-2012.09/bin/../arm-none-eabi/lib//libm.a(lib_a-sf_scalbn.o)
cosf                                              /home/leon/riotboard/arm-2012.09/bin/../arm-none-eabi/lib//libm.a(lib_a-sf_cos.o)
                                                  /home/leon/git/swp-report/iMX6_Platform_SDK/output/mx6sdl/sdk_unit_test/sabre_ai_rev_b/libsdk_unit_test.a(usb0_device_mouse_test.o)
cpu_disable                                       /home/leon/git/swp-report/iMX6_Platform_SDK/output/mx6sdl/lib/libsdk.a(cpu_multicore.o)
                                                  /home/leon/git/swp-report/iMX6_Platform_SDK/output/mx6sdl/sdk_unit_test/sabre_ai_rev_b/libsdk_unit_test.a(multicore_test.o)
cpu_get_cores                                     /home/leon/git/swp-report/iMX6_Platform_SDK/output/mx6sdl/lib/libsdk.a(cpu_get_cores.o)
                                                  /home/leon/git/swp-report/iMX6_Platform_SDK/output/mx6sdl/lib/libsdk.a(cpu_multicore.o)
                                                  /home/leon/git/swp-report/iMX6_Platform_SDK/output/mx6sdl/sdk_unit_test/sabre_ai_rev_b/libsdk_unit_test.a(multicore_test.o)
cpu_get_current                                   /home/leon/git/swp-report/iMX6_Platform_SDK/output/mx6sdl/lib/libsdk.a(cortexA9.o)
                                                  /home/leon/git/swp-report/iMX6_Platform_SDK/output/mx6sdl/lib/libsdk.a(cpu_multicore.o)
                                                  /home/leon/git/swp-report/iMX6_Platform_SDK/output/mx6sdl/sdk_unit_test/sabre_ai_rev_b/libsdk_unit_test.a(multicore_test.o)
cpu_start_secondary                               /home/leon/git/swp-report/iMX6_Platform_SDK/output/mx6sdl/lib/libsdk.a(cpu_multicore.o)
                                                  /home/leon/git/swp-report/iMX6_Platform_SDK/output/mx6sdl/sdk_unit_test/sabre_ai_rev_b/libsdk_unit_test.a(multicore_test.o)
cpu_workpoint_set                                 /home/leon/git/swp-report/iMX6_Platform_SDK/output/mx6sdl/lib/libsdk.a(cpu_workpoint.o)
                                                  /home/leon/git/swp-report/iMX6_Platform_SDK/output/mx6sdl/sdk_unit_test/sabre_ai_rev_b/libsdk_unit_test.a(cpu_wp_test.o)
cpu_wp_test                                       /home/leon/git/swp-report/iMX6_Platform_SDK/output/mx6sdl/sdk_unit_test/sabre_ai_rev_b/libsdk_unit_test.a(cpu_wp_test.o)
                                                  /home/leon/git/swp-report/iMX6_Platform_SDK/output/mx6sdl/sdk_unit_test/sabre_ai_rev_b/obj/apps/sdk_unit_test/src/all_test.o
csi_dma_band_mode                                 /home/leon/git/swp-report/iMX6_Platform_SDK/output/mx6sdl/lib/libsdk.a(ipu_common.o)
                                                  /home/leon/git/swp-report/iMX6_Platform_SDK/output/mx6sdl/sdk_unit_test/sabre_ai_rev_b/libsdk_unit_test.a(csi_test_mode.o)
                                                  /home/leon/git/swp-report/iMX6_Platform_SDK/output/mx6sdl/sdk_unit_test/sabre_ai_rev_b/libsdk_unit_test.a(camera_test.o)
csi_port0_iomux_config                            /home/leon/git/swp-report/iMX6_Platform_SDK/output/mx6sdl/lib/libboard_sabre_ai_rev_b.a(board_camera.o)
                                                  /home/leon/git/swp-report/iMX6_Platform_SDK/output/mx6sdl/lib/libsdk.a(adv7180.o)
csi_test_mode                                     /home/leon/git/swp-report/iMX6_Platform_SDK/output/mx6sdl/sdk_unit_test/sabre_ai_rev_b/libsdk_unit_test.a(csi_test_mode.o)
                                                  /home/leon/git/swp-report/iMX6_Platform_SDK/output/mx6sdl/sdk_unit_test/sabre_ai_rev_b/libsdk_unit_test.a(camera_test.o)
csi_vdi_direct_path                               /home/leon/git/swp-report/iMX6_Platform_SDK/output/mx6sdl/lib/libsdk.a(ipu_common.o)
                                                  /home/leon/git/swp-report/iMX6_Platform_SDK/output/mx6sdl/lib/libsdk.a(ipu_idmac.o)
                                                  /home/leon/git/swp-report/iMX6_Platform_SDK/output/mx6sdl/lib/libsdk.a(ipu_csi.o)
                                                  /home/leon/git/swp-report/iMX6_Platform_SDK/output/mx6sdl/sdk_unit_test/sabre_ai_rev_b/libsdk_unit_test.a(adv7180_capture.o)
data_abort_handler                                /home/leon/git/swp-report/iMX6_Platform_SDK/output/mx6sdl/lib/libsdk.a(arm_abort.o)
                                                  /home/leon/git/swp-report/iMX6_Platform_SDK/output/mx6sdl/lib/libsdk.a(vectors.o)
dcic1_iomux_config                                /home/leon/git/swp-report/iMX6_Platform_SDK/output/mx6sdl/lib/libboard_sabre_ai_rev_b.a(iomux_config.o)
dcic2_iomux_config                                /home/leon/git/swp-report/iMX6_Platform_SDK/output/mx6sdl/lib/libboard_sabre_ai_rev_b.a(iomux_config.o)
default_interrupt_routine                         /home/leon/git/swp-report/iMX6_Platform_SDK/output/mx6sdl/lib/libsdk.a(interrupt.o)
dev_spi_nor                                       /home/leon/git/swp-report/iMX6_Platform_SDK/output/mx6sdl/sdk_unit_test/sabre_ai_rev_b/libsdk_unit_test.a(spi_test.o)
                                                  /home/leon/git/swp-report/iMX6_Platform_SDK/output/mx6sdl/sdk_unit_test/sabre_ai_rev_b/libsdk_unit_test.a(spi_nor_numonyx.o)
disable_L1_cache                                  /home/leon/git/swp-report/iMX6_Platform_SDK/output/mx6sdl/lib/libsdk.a(cortexA9.o)
disable_interrupt                                 /home/leon/git/swp-report/iMX6_Platform_SDK/output/mx6sdl/lib/libsdk.a(interrupt.o)
                                                  /home/leon/git/swp-report/iMX6_Platform_SDK/output/mx6sdl/lib/libsdk.a(usdhc.o)
                                                  /home/leon/git/swp-report/iMX6_Platform_SDK/output/mx6sdl/lib/libsdk.a(gpt.o)
                                                  /home/leon/git/swp-report/iMX6_Platform_SDK/output/mx6sdl/lib/libsdk.a(tempmon.o)
                                                  /home/leon/git/swp-report/iMX6_Platform_SDK/output/mx6sdl/lib/libsdk.a(srtc.o)
                                                  /home/leon/git/swp-report/iMX6_Platform_SDK/output/mx6sdl/lib/libsdk.a(rtc.o)
                                                  /home/leon/git/swp-report/iMX6_Platform_SDK/output/mx6sdl/lib/libsdk.a(pwm.o)
                                                  /home/leon/git/swp-report/iMX6_Platform_SDK/output/mx6sdl/lib/libsdk.a(imx_i2c.o)
                                                  /home/leon/git/swp-report/iMX6_Platform_SDK/output/mx6sdl/lib/libsdk.a(can.o)
                                                  /home/leon/git/swp-report/iMX6_Platform_SDK/output/mx6sdl/sdk_unit_test/sabre_ai_rev_b/libsdk_unit_test.a(hdmi_test.o)
                                                  /home/leon/git/swp-report/iMX6_Platform_SDK/output/mx6sdl/lib/libsdk.a(epit.o)
                                                  /home/leon/git/swp-report/iMX6_Platform_SDK/output/mx6sdl/lib/libsdk.a(imx_uart.o)
disable_para_panel                                /home/leon/git/swp-report/iMX6_Platform_SDK/output/mx6sdl/lib/libboard_sabre_ai_rev_b.a(board_display.o)
disable_strict_align_check                        /home/leon/git/swp-report/iMX6_Platform_SDK/output/mx6sdl/lib/libsdk.a(cortexA9.o)
                                                  /home/leon/git/swp-report/iMX6_Platform_SDK/output/mx6sdl/sdk_unit_test/sabre_ai_rev_b/obj/apps/common/platform_init.o
disp_dev_list                                     /home/leon/git/swp-report/iMX6_Platform_SDK/output/mx6sdl/lib/libsdk.a(ips_disp_panel.o)
dump_regs                                         /home/leon/git/swp-report/iMX6_Platform_SDK/output/mx6sdl/lib/libsdk.a(abort_handler.o)
                                                  /home/leon/git/swp-report/iMX6_Platform_SDK/output/mx6sdl/lib/libsdk.a(arm_abort.o)
ecspi1_iomux_config                               /home/leon/git/swp-report/iMX6_Platform_SDK/output/mx6sdl/lib/libboard_sabre_ai_rev_b.a(ecspi1_iomux_config.o)
                                                  /home/leon/git/swp-report/iMX6_Platform_SDK/output/mx6sdl/lib/libboard_sabre_ai_rev_b.a(ecspi_iomux_config.o)
                                                  /home/leon/git/swp-report/iMX6_Platform_SDK/output/mx6sdl/lib/libboard_sabre_ai_rev_b.a(iomux_config.o)
ecspi2_iomux_config                               /home/leon/git/swp-report/iMX6_Platform_SDK/output/mx6sdl/lib/libboard_sabre_ai_rev_b.a(iomux_config.o)
                                                  /home/leon/git/swp-report/iMX6_Platform_SDK/output/mx6sdl/lib/libboard_sabre_ai_rev_b.a(ecspi_iomux_config.o)
ecspi3_iomux_config                               /home/leon/git/swp-report/iMX6_Platform_SDK/output/mx6sdl/lib/libboard_sabre_ai_rev_b.a(iomux_config.o)
                                                  /home/leon/git/swp-report/iMX6_Platform_SDK/output/mx6sdl/lib/libboard_sabre_ai_rev_b.a(ecspi_iomux_config.o)
ecspi4_iomux_config                               /home/leon/git/swp-report/iMX6_Platform_SDK/output/mx6sdl/lib/libboard_sabre_ai_rev_b.a(iomux_config.o)
                                                  /home/leon/git/swp-report/iMX6_Platform_SDK/output/mx6sdl/lib/libboard_sabre_ai_rev_b.a(ecspi_iomux_config.o)
ecspi_app_test                                    /home/leon/git/swp-report/iMX6_Platform_SDK/output/mx6sdl/sdk_unit_test/sabre_ai_rev_b/libsdk_unit_test.a(spi_lpb.o)
ecspi_close                                       /home/leon/git/swp-report/iMX6_Platform_SDK/output/mx6sdl/lib/libsdk.a(ecspi.o)
                                                  /home/leon/git/swp-report/iMX6_Platform_SDK/output/mx6sdl/sdk_unit_test/sabre_ai_rev_b/libsdk_unit_test.a(spi_test.o)
ecspi_configure                                   /home/leon/git/swp-report/iMX6_Platform_SDK/output/mx6sdl/lib/libsdk.a(ecspi.o)
                                                  /home/leon/git/swp-report/iMX6_Platform_SDK/output/mx6sdl/sdk_unit_test/sabre_ai_rev_b/libsdk_unit_test.a(spi_test.o)
ecspi_iomux_config                                /home/leon/git/swp-report/iMX6_Platform_SDK/output/mx6sdl/lib/libboard_sabre_ai_rev_b.a(ecspi_iomux_config.o)
                                                  /home/leon/git/swp-report/iMX6_Platform_SDK/output/mx6sdl/lib/libsdk.a(ecspi.o)
ecspi_open                                        /home/leon/git/swp-report/iMX6_Platform_SDK/output/mx6sdl/lib/libsdk.a(ecspi.o)
                                                  /home/leon/git/swp-report/iMX6_Platform_SDK/output/mx6sdl/sdk_unit_test/sabre_ai_rev_b/libsdk_unit_test.a(spi_test.o)
ecspi_shp_test                                    /home/leon/git/swp-report/iMX6_Platform_SDK/output/mx6sdl/sdk_unit_test/sabre_ai_rev_b/libsdk_unit_test.a(spi_lpb.o)
                                                  /home/leon/git/swp-report/iMX6_Platform_SDK/output/mx6sdl/sdk_unit_test/sabre_ai_rev_b/libsdk_unit_test.a(sdma_test.o)
ecspi_xfer                                        /home/leon/git/swp-report/iMX6_Platform_SDK/output/mx6sdl/lib/libsdk.a(ecspi.o)
                                                  /home/leon/git/swp-report/iMX6_Platform_SDK/output/mx6sdl/sdk_unit_test/sabre_ai_rev_b/libsdk_unit_test.a(spi_nor_numonyx.o)
eim_cfg_set                                       /home/leon/git/swp-report/iMX6_Platform_SDK/output/mx6sdl/lib/libsdk.a(eim.o)
                                                  /home/leon/git/swp-report/iMX6_Platform_SDK/output/mx6sdl/sdk_unit_test/sabre_ai_rev_b/libsdk_unit_test.a(eim_test.o)
eim_init                                          /home/leon/git/swp-report/iMX6_Platform_SDK/output/mx6sdl/lib/libsdk.a(eim.o)
                                                  /home/leon/git/swp-report/iMX6_Platform_SDK/output/mx6sdl/sdk_unit_test/sabre_ai_rev_b/libsdk_unit_test.a(eim_test.o)
eim_iomux_config                                  /home/leon/git/swp-report/iMX6_Platform_SDK/output/mx6sdl/lib/libboard_sabre_ai_rev_b.a(eim_iomux_config.o)
                                                  /home/leon/git/swp-report/iMX6_Platform_SDK/output/mx6sdl/lib/libsdk.a(eim.o)
                                                  /home/leon/git/swp-report/iMX6_Platform_SDK/output/mx6sdl/lib/libboard_sabre_ai_rev_b.a(iomux_config.o)
eim_test                                          /home/leon/git/swp-report/iMX6_Platform_SDK/output/mx6sdl/sdk_unit_test/sabre_ai_rev_b/libsdk_unit_test.a(eim_test.o)
                                                  /home/leon/git/swp-report/iMX6_Platform_SDK/output/mx6sdl/sdk_unit_test/sabre_ai_rev_b/obj/apps/sdk_unit_test/src/all_test.o
emmc_init                                         /home/leon/git/swp-report/iMX6_Platform_SDK/output/mx6sdl/lib/libsdk.a(usdhc_mmc.o)
                                                  /home/leon/git/swp-report/iMX6_Platform_SDK/output/mx6sdl/lib/libsdk.a(usdhc.o)
emmc_print_cfg_info                               /home/leon/git/swp-report/iMX6_Platform_SDK/output/mx6sdl/lib/libsdk.a(usdhc_mmc.o)
                                                  /home/leon/git/swp-report/iMX6_Platform_SDK/output/mx6sdl/sdk_unit_test/sabre_ai_rev_b/libsdk_unit_test.a(usdhc_test.o)
emuerateDevice                                    /home/leon/git/swp-report/iMX6_Platform_SDK/output/mx6sdl/sdk_unit_test/sabre_ai_rev_b/libsdk_unit_test.a(usb0_host_test.o)
enable_interrupt                                  /home/leon/git/swp-report/iMX6_Platform_SDK/output/mx6sdl/lib/libsdk.a(interrupt.o)
                                                  /home/leon/git/swp-report/iMX6_Platform_SDK/output/mx6sdl/lib/libsdk.a(usdhc.o)
                                                  /home/leon/git/swp-report/iMX6_Platform_SDK/output/mx6sdl/lib/libsdk.a(gpt.o)
                                                  /home/leon/git/swp-report/iMX6_Platform_SDK/output/mx6sdl/lib/libsdk.a(tempmon.o)
                                                  /home/leon/git/swp-report/iMX6_Platform_SDK/output/mx6sdl/lib/libsdk.a(sdma.o)
                                                  /home/leon/git/swp-report/iMX6_Platform_SDK/output/mx6sdl/lib/libsdk.a(srtc.o)
                                                  /home/leon/git/swp-report/iMX6_Platform_SDK/output/mx6sdl/lib/libsdk.a(rtc.o)
                                                  /home/leon/git/swp-report/iMX6_Platform_SDK/output/mx6sdl/lib/libsdk.a(pwm.o)
                                                  /home/leon/git/swp-report/iMX6_Platform_SDK/output/mx6sdl/lib/libsdk.a(ipu_common.o)
                                                  /home/leon/git/swp-report/iMX6_Platform_SDK/output/mx6sdl/lib/libsdk.a(imx_i2c.o)
                                                  /home/leon/git/swp-report/iMX6_Platform_SDK/output/mx6sdl/lib/libsdk.a(can.o)
                                                  /home/leon/git/swp-report/iMX6_Platform_SDK/output/mx6sdl/sdk_unit_test/sabre_ai_rev_b/libsdk_unit_test.a(hdmi_test.o)
                                                  /home/leon/git/swp-report/iMX6_Platform_SDK/output/mx6sdl/sdk_unit_test/sabre_ai_rev_b/libsdk_unit_test.a(gic_test.o)
                                                  /home/leon/git/swp-report/iMX6_Platform_SDK/output/mx6sdl/lib/libsdk.a(epit.o)
                                                  /home/leon/git/swp-report/iMX6_Platform_SDK/output/mx6sdl/lib/libsdk.a(imx_uart.o)
enable_neon_fpu                                   /home/leon/git/swp-report/iMX6_Platform_SDK/output/mx6sdl/lib/libsdk.a(cortexA9.o)
                                                  /home/leon/git/swp-report/iMX6_Platform_SDK/output/mx6sdl/sdk_unit_test/sabre_ai_rev_b/obj/apps/common/platform_init.o
endpointList                                      /home/leon/git/swp-report/iMX6_Platform_SDK/output/mx6sdl/sdk_unit_test/sabre_ai_rev_b/libsdk_unit_test.a(usb0_device_mouse_test.o)
enet_iomux_config                                 /home/leon/git/swp-report/iMX6_Platform_SDK/output/mx6sdl/lib/libboard_sabre_ai_rev_b.a(enet_iomux_config.o)
                                                  /home/leon/git/swp-report/iMX6_Platform_SDK/output/mx6sdl/lib/libboard_sabre_ai_rev_b.a(iomux_config.o)
environ                                           /home/leon/git/swp-report/iMX6_Platform_SDK/output/mx6sdl/lib/libsdk.a(runtime_support.o)
ep1_resources                                     /home/leon/git/swp-report/iMX6_Platform_SDK/output/mx6sdl/sdk_unit_test/sabre_ai_rev_b/libsdk_unit_test.a(pcie_test_rc.o)
epdc_clock_setting                                /home/leon/git/swp-report/iMX6_Platform_SDK/output/mx6sdl/lib/libboard_sabre_ai_rev_b.a(board_display.o)
epdc_iomux_config                                 /home/leon/git/swp-report/iMX6_Platform_SDK/output/mx6sdl/lib/libboard_sabre_ai_rev_b.a(iomux_config.o)
epdc_power_supply                                 /home/leon/git/swp-report/iMX6_Platform_SDK/output/mx6sdl/lib/libboard_sabre_ai_rev_b.a(board_display.o)
epit1_iomux_config                                /home/leon/git/swp-report/iMX6_Platform_SDK/output/mx6sdl/lib/libboard_sabre_ai_rev_b.a(iomux_config.o)
epit2_iomux_config                                /home/leon/git/swp-report/iMX6_Platform_SDK/output/mx6sdl/lib/libboard_sabre_ai_rev_b.a(iomux_config.o)
epit_counter_disable                              /home/leon/git/swp-report/iMX6_Platform_SDK/output/mx6sdl/lib/libsdk.a(epit.o)
                                                  /home/leon/git/swp-report/iMX6_Platform_SDK/output/mx6sdl/sdk_unit_test/sabre_ai_rev_b/libsdk_unit_test.a(epit_test.o)
                                                  /home/leon/git/swp-report/iMX6_Platform_SDK/output/mx6sdl/sdk_unit_test/sabre_ai_rev_b/libsdk_unit_test.a(cpu_wp_test.o)
                                                  /home/leon/git/swp-report/iMX6_Platform_SDK/output/mx6sdl/lib/libsdk.a(timer.o)
epit_counter_enable                               /home/leon/git/swp-report/iMX6_Platform_SDK/output/mx6sdl/lib/libsdk.a(epit.o)
                                                  /home/leon/git/swp-report/iMX6_Platform_SDK/output/mx6sdl/sdk_unit_test/sabre_ai_rev_b/libsdk_unit_test.a(epit_test.o)
                                                  /home/leon/git/swp-report/iMX6_Platform_SDK/output/mx6sdl/sdk_unit_test/sabre_ai_rev_b/libsdk_unit_test.a(cpu_wp_test.o)
                                                  /home/leon/git/swp-report/iMX6_Platform_SDK/output/mx6sdl/lib/libsdk.a(timer.o)
epit_get_compare_event                            /home/leon/git/swp-report/iMX6_Platform_SDK/output/mx6sdl/lib/libsdk.a(epit.o)
                                                  /home/leon/git/swp-report/iMX6_Platform_SDK/output/mx6sdl/sdk_unit_test/sabre_ai_rev_b/libsdk_unit_test.a(epit_test.o)
                                                  /home/leon/git/swp-report/iMX6_Platform_SDK/output/mx6sdl/lib/libsdk.a(timer.o)
epit_get_counter_value                            /home/leon/git/swp-report/iMX6_Platform_SDK/output/mx6sdl/lib/libsdk.a(epit.o)
                                                  /home/leon/git/swp-report/iMX6_Platform_SDK/output/mx6sdl/sdk_unit_test/sabre_ai_rev_b/libsdk_unit_test.a(cpu_wp_test.o)
epit_init                                         /home/leon/git/swp-report/iMX6_Platform_SDK/output/mx6sdl/lib/libsdk.a(epit.o)
                                                  /home/leon/git/swp-report/iMX6_Platform_SDK/output/mx6sdl/sdk_unit_test/sabre_ai_rev_b/libsdk_unit_test.a(epit_test.o)
                                                  /home/leon/git/swp-report/iMX6_Platform_SDK/output/mx6sdl/sdk_unit_test/sabre_ai_rev_b/libsdk_unit_test.a(cpu_wp_test.o)
                                                  /home/leon/git/swp-report/iMX6_Platform_SDK/output/mx6sdl/lib/libsdk.a(timer.o)
epit_reload_counter                               /home/leon/git/swp-report/iMX6_Platform_SDK/output/mx6sdl/lib/libsdk.a(epit.o)
epit_set_compare_event                            /home/leon/git/swp-report/iMX6_Platform_SDK/output/mx6sdl/lib/libsdk.a(epit.o)
epit_setup_interrupt                              /home/leon/git/swp-report/iMX6_Platform_SDK/output/mx6sdl/lib/libsdk.a(epit.o)
                                                  /home/leon/git/swp-report/iMX6_Platform_SDK/output/mx6sdl/sdk_unit_test/sabre_ai_rev_b/libsdk_unit_test.a(epit_test.o)
                                                  /home/leon/git/swp-report/iMX6_Platform_SDK/output/mx6sdl/sdk_unit_test/sabre_ai_rev_b/libsdk_unit_test.a(cpu_wp_test.o)
epit_test                                         /home/leon/git/swp-report/iMX6_Platform_SDK/output/mx6sdl/sdk_unit_test/sabre_ai_rev_b/libsdk_unit_test.a(epit_test.o)
                                                  /home/leon/git/swp-report/iMX6_Platform_SDK/output/mx6sdl/sdk_unit_test/sabre_ai_rev_b/obj/apps/sdk_unit_test/src/all_test.o
errno                                             /home/leon/git/swp-report/iMX6_Platform_SDK/output/mx6sdl/lib/libsdk.a(runtime_support.o)
                                                  /home/leon/riotboard/arm-2012.09/bin/../arm-none-eabi/lib//libc.a(lib_a-isattyr.o)
                                                  /home/leon/riotboard/arm-2012.09/bin/../arm-none-eabi/lib//libc.a(lib_a-fstatr.o)
                                                  /home/leon/riotboard/arm-2012.09/bin/../arm-none-eabi/lib//libc.a(lib_a-signalr.o)
                                                  /home/leon/riotboard/arm-2012.09/bin/../arm-none-eabi/lib//libc.a(lib_a-reent.o)
                                                  /home/leon/riotboard/arm-2012.09/bin/../arm-none-eabi/lib//libc.a(lib_a-readr.o)
                                                  /home/leon/riotboard/arm-2012.09/bin/../arm-none-eabi/lib//libc.a(lib_a-lseekr.o)
                                                  /home/leon/riotboard/arm-2012.09/bin/../arm-none-eabi/lib//libc.a(lib_a-closer.o)
                                                  /home/leon/riotboard/arm-2012.09/bin/../arm-none-eabi/lib//libc.a(lib_a-writer.o)
                                                  /home/leon/riotboard/arm-2012.09/bin/../arm-none-eabi/lib//libc.a(lib_a-sbrkr.o)
esai_iomux_config                                 /home/leon/git/swp-report/iMX6_Platform_SDK/output/mx6sdl/lib/libboard_sabre_ai_rev_b.a(esai_iomux_config.o)
                                                  /home/leon/git/swp-report/iMX6_Platform_SDK/output/mx6sdl/lib/libboard_sabre_ai_rev_b.a(iomux_config.o)
exception_handler                                 /home/leon/git/swp-report/iMX6_Platform_SDK/output/mx6sdl/lib/libsdk.a(vectors.o)
ext_hdmi_transmitter_power_on                     /home/leon/git/swp-report/iMX6_Platform_SDK/output/mx6sdl/lib/libboard_sabre_ai_rev_b.a(board_hdmi.o)
                                                  /home/leon/git/swp-report/iMX6_Platform_SDK/output/mx6sdl/lib/libsdk.a(ips_disp_panel.o)
fabsf                                             /home/leon/riotboard/arm-2012.09/bin/../arm-none-eabi/lib//libm.a(lib_a-sf_fabs.o)
                                                  /home/leon/riotboard/arm-2012.09/bin/../arm-none-eabi/lib//libm.a(lib_a-ef_rem_pio2.o)
                                                  /home/leon/git/swp-report/iMX6_Platform_SDK/output/mx6sdl/sdk_unit_test/sabre_ai_rev_b/libsdk_unit_test.a(accelerometer_test.o)
fclose                                            /home/leon/riotboard/arm-2012.09/bin/../arm-none-eabi/lib//libc.a(lib_a-fclose.o)
                                                  /home/leon/riotboard/arm-2012.09/bin/../arm-none-eabi/lib//libc.a(lib_a-findfp.o)
fflush                                            /home/leon/riotboard/arm-2012.09/bin/../arm-none-eabi/lib//libc.a(lib_a-fflush.o)
                                                  /home/leon/riotboard/arm-2012.09/bin/../arm-none-eabi/lib//libc.a(lib_a-refill.o)
                                                  /home/leon/git/swp-report/iMX6_Platform_SDK/output/mx6sdl/sdk_unit_test/sabre_ai_rev_b/libsdk_unit_test.a(accelerometer_test.o)
fillBuffer                                        /home/leon/git/swp-report/iMX6_Platform_SDK/output/mx6sdl/sdk_unit_test/sabre_ai_rev_b/libsdk_unit_test.a(usb0_device_mouse_test.o)
fiprintf                                          /home/leon/riotboard/arm-2012.09/bin/../arm-none-eabi/lib//libc.a(lib_a-fiprintf.o)
                                                  /home/leon/riotboard/arm-2012.09/bin/../arm-none-eabi/lib//libc.a(lib_a-assert.o)
flash_erase                                       /home/leon/git/swp-report/iMX6_Platform_SDK/output/mx6sdl/sdk_unit_test/sabre_ai_rev_b/libsdk_unit_test.a(cfi_flash_driver.o)
                                                  /home/leon/git/swp-report/iMX6_Platform_SDK/output/mx6sdl/sdk_unit_test/sabre_ai_rev_b/libsdk_unit_test.a(cfi_flash_api.o)
flash_fill_sect_ranges                            /home/leon/git/swp-report/iMX6_Platform_SDK/output/mx6sdl/sdk_unit_test/sabre_ai_rev_b/libsdk_unit_test.a(cfi_flash_api.o)
                                                  /home/leon/git/swp-report/iMX6_Platform_SDK/output/mx6sdl/sdk_unit_test/sabre_ai_rev_b/libsdk_unit_test.a(eim_test.o)
flash_info                                        /home/leon/git/swp-report/iMX6_Platform_SDK/output/mx6sdl/sdk_unit_test/sabre_ai_rev_b/libsdk_unit_test.a(cfi_flash_driver.o)
                                                  /home/leon/git/swp-report/iMX6_Platform_SDK/output/mx6sdl/sdk_unit_test/sabre_ai_rev_b/libsdk_unit_test.a(cfi_flash_api.o)
                                                  /home/leon/git/swp-report/iMX6_Platform_SDK/output/mx6sdl/sdk_unit_test/sabre_ai_rev_b/libsdk_unit_test.a(eim_test.o)
flash_init                                        /home/leon/git/swp-report/iMX6_Platform_SDK/output/mx6sdl/sdk_unit_test/sabre_ai_rev_b/libsdk_unit_test.a(cfi_flash_driver.o)
                                                  /home/leon/git/swp-report/iMX6_Platform_SDK/output/mx6sdl/sdk_unit_test/sabre_ai_rev_b/libsdk_unit_test.a(eim_test.o)
flash_perror                                      /home/leon/git/swp-report/iMX6_Platform_SDK/output/mx6sdl/sdk_unit_test/sabre_ai_rev_b/libsdk_unit_test.a(cfi_flash_api.o)
flash_print_info                                  /home/leon/git/swp-report/iMX6_Platform_SDK/output/mx6sdl/sdk_unit_test/sabre_ai_rev_b/libsdk_unit_test.a(cfi_flash_driver.o)
flash_protect                                     /home/leon/git/swp-report/iMX6_Platform_SDK/output/mx6sdl/sdk_unit_test/sabre_ai_rev_b/libsdk_unit_test.a(cfi_flash_api.o)
flash_reset                                       /home/leon/git/swp-report/iMX6_Platform_SDK/output/mx6sdl/sdk_unit_test/sabre_ai_rev_b/libsdk_unit_test.a(cfi_flash_driver.o)
                                                  /home/leon/git/swp-report/iMX6_Platform_SDK/output/mx6sdl/sdk_unit_test/sabre_ai_rev_b/libsdk_unit_test.a(eim_test.o)
flash_sects_erase                                 /home/leon/git/swp-report/iMX6_Platform_SDK/output/mx6sdl/sdk_unit_test/sabre_ai_rev_b/libsdk_unit_test.a(cfi_flash_api.o)
                                                  /home/leon/git/swp-report/iMX6_Platform_SDK/output/mx6sdl/sdk_unit_test/sabre_ai_rev_b/libsdk_unit_test.a(eim_test.o)
flash_sects_protect                               /home/leon/git/swp-report/iMX6_Platform_SDK/output/mx6sdl/sdk_unit_test/sabre_ai_rev_b/libsdk_unit_test.a(cfi_flash_api.o)
                                                  /home/leon/git/swp-report/iMX6_Platform_SDK/output/mx6sdl/sdk_unit_test/sabre_ai_rev_b/libsdk_unit_test.a(eim_test.o)
flash_write                                       /home/leon/git/swp-report/iMX6_Platform_SDK/output/mx6sdl/sdk_unit_test/sabre_ai_rev_b/libsdk_unit_test.a(cfi_flash_api.o)
                                                  /home/leon/git/swp-report/iMX6_Platform_SDK/output/mx6sdl/sdk_unit_test/sabre_ai_rev_b/libsdk_unit_test.a(eim_test.o)
flexcan1_iomux_config                             /home/leon/git/swp-report/iMX6_Platform_SDK/output/mx6sdl/lib/libboard_sabre_ai_rev_b.a(flexcan1_iomux_config.o)
                                                  /home/leon/git/swp-report/iMX6_Platform_SDK/output/mx6sdl/lib/libboard_sabre_ai_rev_b.a(flexcan_iomux_config.o)
                                                  /home/leon/git/swp-report/iMX6_Platform_SDK/output/mx6sdl/lib/libboard_sabre_ai_rev_b.a(iomux_config.o)
flexcan2_iomux_config                             /home/leon/git/swp-report/iMX6_Platform_SDK/output/mx6sdl/lib/libboard_sabre_ai_rev_b.a(flexcan2_iomux_config.o)
                                                  /home/leon/git/swp-report/iMX6_Platform_SDK/output/mx6sdl/lib/libboard_sabre_ai_rev_b.a(flexcan_iomux_config.o)
                                                  /home/leon/git/swp-report/iMX6_Platform_SDK/output/mx6sdl/lib/libboard_sabre_ai_rev_b.a(iomux_config.o)
flexcan_iomux_config                              /home/leon/git/swp-report/iMX6_Platform_SDK/output/mx6sdl/lib/libboard_sabre_ai_rev_b.a(flexcan_iomux_config.o)
                                                  /home/leon/git/swp-report/iMX6_Platform_SDK/output/mx6sdl/lib/libboard_sabre_ai_rev_b.a(board_can.o)
flexcan_test                                      /home/leon/git/swp-report/iMX6_Platform_SDK/output/mx6sdl/sdk_unit_test/sabre_ai_rev_b/libsdk_unit_test.a(can_test.o)
                                                  /home/leon/git/swp-report/iMX6_Platform_SDK/output/mx6sdl/sdk_unit_test/sabre_ai_rev_b/obj/apps/sdk_unit_test/src/all_test.o
floorf                                            /home/leon/riotboard/arm-2012.09/bin/../arm-none-eabi/lib//libm.a(lib_a-sf_floor.o)
                                                  /home/leon/riotboard/arm-2012.09/bin/../arm-none-eabi/lib//libm.a(lib_a-kf_rem_pio2.o)
fputc                                             /home/leon/riotboard/arm-2012.09/bin/../arm-none-eabi/lib//libc.a(lib_a-fputc.o)
                                                  /home/leon/riotboard/arm-2012.09/bin/../arm-none-eabi/lib//libstdc++.a(vterminate.o)
                                                  /home/leon/git/swp-report/iMX6_Platform_SDK/output/mx6sdl/lib/libsdk.a(system_util.o)
                                                  /home/leon/git/swp-report/iMX6_Platform_SDK/output/mx6sdl/lib/libsdk.a(menu.o)
fputs                                             /home/leon/riotboard/arm-2012.09/bin/../arm-none-eabi/lib//libc.a(lib_a-fputs.o)
                                                  /home/leon/riotboard/arm-2012.09/bin/../arm-none-eabi/lib//libstdc++.a(vterminate.o)
                                                  /home/leon/git/swp-report/iMX6_Platform_SDK/output/mx6sdl/sdk_unit_test/sabre_ai_rev_b/libsdk_unit_test.a(accelerometer_test.o)
fputwc                                            /home/leon/riotboard/arm-2012.09/bin/../arm-none-eabi/lib//libc.a(lib_a-fputwc.o)
frame_list                                        /home/leon/git/swp-report/iMX6_Platform_SDK/output/mx6sdl/sdk_unit_test/sabre_ai_rev_b/libsdk_unit_test.a(usb0_host_test.o)
free                                              /home/leon/riotboard/arm-2012.09/bin/../arm-none-eabi/lib//libc.a(lib_a-malloc.o)
                                                  /home/leon/riotboard/arm-2012.09/bin/../arm-none-eabi/lib//libstdc++.a(del_op.o)
                                                  /home/leon/riotboard/arm-2012.09/bin/../arm-none-eabi/lib//libstdc++.a(cp-demangle.o)
                                                  /home/leon/riotboard/arm-2012.09/bin/../arm-none-eabi/lib//libstdc++.a(vterminate.o)
                                                  /home/leon/riotboard/arm-2012.09/bin/../arm-none-eabi/lib//libstdc++.a(eh_alloc.o)
                                                  /home/leon/git/swp-report/iMX6_Platform_SDK/output/mx6sdl/lib/libsdk.a(usbh_drv.o)
                                                  /home/leon/git/swp-report/iMX6_Platform_SDK/output/mx6sdl/lib/libsdk.a(usbd_drv.o)
                                                  /home/leon/git/swp-report/iMX6_Platform_SDK/output/mx6sdl/sdk_unit_test/sabre_ai_rev_b/libsdk_unit_test.a(usb0_host_test.o)
free_memory_end                                   /home/leon/git/swp-report/iMX6_Platform_SDK/output/mx6sdl/lib/libsdk.a(runtime_support.o)
free_memory_start                                 /home/leon/git/swp-report/iMX6_Platform_SDK/output/mx6sdl/lib/libsdk.a(runtime_support.o)
fwrite                                            /home/leon/riotboard/arm-2012.09/bin/../arm-none-eabi/lib//libc.a(lib_a-fwrite.o)
                                                  /home/leon/riotboard/arm-2012.09/bin/../arm-none-eabi/lib//libstdc++.a(vterminate.o)
gAudio_sample                                     /home/leon/git/swp-report/iMX6_Platform_SDK/output/mx6sdl/sdk_unit_test/sabre_ai_rev_b/libsdk_unit_test.a(init_dma_data.o)
gImage_foretext                                   /home/leon/git/swp-report/iMX6_Platform_SDK/output/mx6sdl/sdk_unit_test/sabre_ai_rev_b/libsdk_unit_test.a(ipu_image.o)
g_TextAttributeBlink                              /home/leon/git/swp-report/iMX6_Platform_SDK/output/mx6sdl/lib/libsdk.a(text_color.o)
g_TextAttributeBold                               /home/leon/git/swp-report/iMX6_Platform_SDK/output/mx6sdl/lib/libsdk.a(text_color.o)
                                                  /home/leon/git/swp-report/iMX6_Platform_SDK/output/mx6sdl/lib/libsdk.a(system_util.o)
                                                  /home/leon/git/swp-report/iMX6_Platform_SDK/output/mx6sdl/lib/libsdk.a(menu.o)
g_TextAttributeDefault                            /home/leon/git/swp-report/iMX6_Platform_SDK/output/mx6sdl/lib/libsdk.a(text_color.o)
                                                  /home/leon/git/swp-report/iMX6_Platform_SDK/output/mx6sdl/lib/libsdk.a(menu.o)
g_TextAttributeDim                                /home/leon/git/swp-report/iMX6_Platform_SDK/output/mx6sdl/lib/libsdk.a(text_color.o)
g_TextAttributeHidden                             /home/leon/git/swp-report/iMX6_Platform_SDK/output/mx6sdl/lib/libsdk.a(text_color.o)
g_TextAttributeReverse                            /home/leon/git/swp-report/iMX6_Platform_SDK/output/mx6sdl/lib/libsdk.a(text_color.o)
g_TextAttributeUnderline                          /home/leon/git/swp-report/iMX6_Platform_SDK/output/mx6sdl/lib/libsdk.a(text_color.o)
g_TextColorBlack                                  /home/leon/git/swp-report/iMX6_Platform_SDK/output/mx6sdl/lib/libsdk.a(text_color.o)
g_TextColorBlue                                   /home/leon/git/swp-report/iMX6_Platform_SDK/output/mx6sdl/lib/libsdk.a(text_color.o)
                                                  /home/leon/git/swp-report/iMX6_Platform_SDK/output/mx6sdl/lib/libsdk.a(menu.o)
g_TextColorCyan                                   /home/leon/git/swp-report/iMX6_Platform_SDK/output/mx6sdl/lib/libsdk.a(text_color.o)
g_TextColorGray                                   /home/leon/git/swp-report/iMX6_Platform_SDK/output/mx6sdl/lib/libsdk.a(text_color.o)
g_TextColorGreen                                  /home/leon/git/swp-report/iMX6_Platform_SDK/output/mx6sdl/lib/libsdk.a(text_color.o)
g_TextColorLightBlue                              /home/leon/git/swp-report/iMX6_Platform_SDK/output/mx6sdl/lib/libsdk.a(text_color.o)
g_TextColorMagenta                                /home/leon/git/swp-report/iMX6_Platform_SDK/output/mx6sdl/lib/libsdk.a(text_color.o)
                                                  /home/leon/git/swp-report/iMX6_Platform_SDK/output/mx6sdl/lib/libsdk.a(menu.o)
g_TextColorOrange                                 /home/leon/git/swp-report/iMX6_Platform_SDK/output/mx6sdl/lib/libsdk.a(text_color.o)
g_TextColorPurple                                 /home/leon/git/swp-report/iMX6_Platform_SDK/output/mx6sdl/lib/libsdk.a(text_color.o)
g_TextColorRed                                    /home/leon/git/swp-report/iMX6_Platform_SDK/output/mx6sdl/lib/libsdk.a(text_color.o)
                                                  /home/leon/git/swp-report/iMX6_Platform_SDK/output/mx6sdl/lib/libsdk.a(system_util.o)
                                                  /home/leon/git/swp-report/iMX6_Platform_SDK/output/mx6sdl/lib/libsdk.a(menu.o)
g_TextColorWhite                                  /home/leon/git/swp-report/iMX6_Platform_SDK/output/mx6sdl/lib/libsdk.a(text_color.o)
g_TextColorYellow                                 /home/leon/git/swp-report/iMX6_Platform_SDK/output/mx6sdl/lib/libsdk.a(text_color.o)
                                                  /home/leon/git/swp-report/iMX6_Platform_SDK/output/mx6sdl/lib/libsdk.a(menu.o)
g_adv7180_i2c_device                              /home/leon/git/swp-report/iMX6_Platform_SDK/output/mx6sdl/lib/libboard_sabre_ai_rev_b.a(board_i2c.o)
                                                  /home/leon/git/swp-report/iMX6_Platform_SDK/output/mx6sdl/lib/libsdk.a(adv7180.o)
g_at24cx_i2c_device                               /home/leon/git/swp-report/iMX6_Platform_SDK/output/mx6sdl/lib/libboard_sabre_ai_rev_b.a(board_i2c.o)
                                                  /home/leon/git/swp-report/iMX6_Platform_SDK/output/mx6sdl/sdk_unit_test/sabre_ai_rev_b/libsdk_unit_test.a(at24cxx.o)
g_camera_i2c_port                                 /home/leon/git/swp-report/iMX6_Platform_SDK/output/mx6sdl/lib/libboard_sabre_ai_rev_b.a(board_camera.o)
g_camera_test_name                                /home/leon/git/swp-report/iMX6_Platform_SDK/output/mx6sdl/sdk_unit_test/sabre_ai_rev_b/libsdk_unit_test.a(camera_test.o)
g_cs42888_i2c_device                              /home/leon/git/swp-report/iMX6_Platform_SDK/output/mx6sdl/lib/libboard_sabre_ai_rev_b.a(board_i2c.o)
g_debug_uart_port                                 /home/leon/git/swp-report/iMX6_Platform_SDK/output/mx6sdl/lib/libboard_sabre_ai_rev_b.a(hardware_modules.o)
                                                  /home/leon/git/swp-report/iMX6_Platform_SDK/output/mx6sdl/lib/libsdk.a(runtime_support.o)
                                                  /home/leon/git/swp-report/iMX6_Platform_SDK/output/mx6sdl/sdk_unit_test/sabre_ai_rev_b/libsdk_unit_test.a(csi_test_mode.o)
                                                  /home/leon/git/swp-report/iMX6_Platform_SDK/output/mx6sdl/lib/libsdk.a(system_util.o)
                                                  /home/leon/git/swp-report/iMX6_Platform_SDK/output/mx6sdl/sdk_unit_test/sabre_ai_rev_b/obj/apps/common/print_clock_info.o
                                                  /home/leon/git/swp-report/iMX6_Platform_SDK/output/mx6sdl/sdk_unit_test/sabre_ai_rev_b/obj/apps/common/platform_init.o
g_interrupt_handlers                              /home/leon/git/swp-report/iMX6_Platform_SDK/output/mx6sdl/lib/libsdk.a(interrupt.o)
g_microsecondTimerMultiple                        /home/leon/git/swp-report/iMX6_Platform_SDK/output/mx6sdl/lib/libsdk.a(timer.o)
g_mma8451_i2c_device                              /home/leon/git/swp-report/iMX6_Platform_SDK/output/mx6sdl/lib/libboard_sabre_ai_rev_b.a(board_i2c.o)
                                                  /home/leon/git/swp-report/iMX6_Platform_SDK/output/mx6sdl/sdk_unit_test/sabre_ai_rev_b/libsdk_unit_test.a(accelerometer_test.o)
g_os81050_i2c_device                              /home/leon/git/swp-report/iMX6_Platform_SDK/output/mx6sdl/lib/libboard_sabre_ai_rev_b.a(board_i2c.o)
g_p1003_tsc_i2c_device                            /home/leon/git/swp-report/iMX6_Platform_SDK/output/mx6sdl/lib/libboard_sabre_ai_rev_b.a(board_i2c.o)
g_pmic_da9053_i2c_device                          /home/leon/git/swp-report/iMX6_Platform_SDK/output/mx6sdl/lib/libboard_sabre_ai_rev_b.a(board_i2c.o)
g_pmic_ltc3589_i2c_device                         /home/leon/git/swp-report/iMX6_Platform_SDK/output/mx6sdl/lib/libboard_sabre_ai_rev_b.a(board_i2c.o)
g_pmic_max17135_i2c_device                        /home/leon/git/swp-report/iMX6_Platform_SDK/output/mx6sdl/lib/libboard_sabre_ai_rev_b.a(board_i2c.o)
g_pmic_pf0100_i2c_device                          /home/leon/git/swp-report/iMX6_Platform_SDK/output/mx6sdl/lib/libboard_sabre_ai_rev_b.a(board_i2c.o)
g_pwm_test_end                                    /home/leon/git/swp-report/iMX6_Platform_SDK/output/mx6sdl/sdk_unit_test/sabre_ai_rev_b/libsdk_unit_test.a(pwm_output.o)
                                                  /home/leon/git/swp-report/iMX6_Platform_SDK/output/mx6sdl/lib/libsdk.a(pwm.o)
g_sgtl5000_i2c_device                             /home/leon/git/swp-report/iMX6_Platform_SDK/output/mx6sdl/lib/libboard_sabre_ai_rev_b.a(board_i2c.o)
g_si476x_i2c_device                               /home/leon/git/swp-report/iMX6_Platform_SDK/output/mx6sdl/lib/libboard_sabre_ai_rev_b.a(board_i2c.o)
g_system_timer_port                               /home/leon/git/swp-report/iMX6_Platform_SDK/output/mx6sdl/lib/libboard_sabre_ai_rev_b.a(hardware_modules.o)
                                                  /home/leon/git/swp-report/iMX6_Platform_SDK/output/mx6sdl/lib/libsdk.a(timer.o)
g_uart_test_name                                  /home/leon/git/swp-report/iMX6_Platform_SDK/output/mx6sdl/sdk_unit_test/sabre_ai_rev_b/libsdk_unit_test.a(uart_test.o)
g_vectNum                                         /home/leon/git/swp-report/iMX6_Platform_SDK/output/mx6sdl/lib/libsdk.a(interrupt.o)
g_wm8958_i2c_device                               /home/leon/git/swp-report/iMX6_Platform_SDK/output/mx6sdl/lib/libboard_sabre_ai_rev_b.a(board_i2c.o)
g_wm8962_i2c_device                               /home/leon/git/swp-report/iMX6_Platform_SDK/output/mx6sdl/lib/libboard_sabre_ai_rev_b.a(board_i2c.o)
get_arm_private_peripheral_base                   /home/leon/git/swp-report/iMX6_Platform_SDK/output/mx6sdl/lib/libsdk.a(cortexA9.o)
                                                  /home/leon/git/swp-report/iMX6_Platform_SDK/output/mx6sdl/lib/libsdk.a(gic.o)
get_board_id                                      /home/leon/git/swp-report/iMX6_Platform_SDK/output/mx6sdl/lib/libsdk.a(board_id.o)
                                                  /home/leon/git/swp-report/iMX6_Platform_SDK/output/mx6sdl/sdk_unit_test/sabre_ai_rev_b/obj/apps/common/print_version.o
get_color_supported                               /home/leon/git/swp-report/iMX6_Platform_SDK/output/mx6sdl/lib/libsdk.a(text_color.o)
get_input_hex                                     /home/leon/git/swp-report/iMX6_Platform_SDK/output/mx6sdl/lib/libsdk.a(system_util.o)
                                                  /home/leon/git/swp-report/iMX6_Platform_SDK/output/mx6sdl/sdk_unit_test/sabre_ai_rev_b/libsdk_unit_test.a(ocotp_test.o)
get_main_clock                                    /home/leon/git/swp-report/iMX6_Platform_SDK/output/mx6sdl/lib/libsdk.a(ccm_pll.o)
                                                  /home/leon/git/swp-report/iMX6_Platform_SDK/output/mx6sdl/lib/libsdk.a(pwm.o)
                                                  /home/leon/git/swp-report/iMX6_Platform_SDK/output/mx6sdl/lib/libsdk.a(imx_i2c.o)
                                                  /home/leon/git/swp-report/iMX6_Platform_SDK/output/mx6sdl/sdk_unit_test/sabre_ai_rev_b/libsdk_unit_test.a(mem_2_mem.o)
                                                  /home/leon/git/swp-report/iMX6_Platform_SDK/output/mx6sdl/sdk_unit_test/sabre_ai_rev_b/libsdk_unit_test.a(gpt_test.o)
                                                  /home/leon/git/swp-report/iMX6_Platform_SDK/output/mx6sdl/sdk_unit_test/sabre_ai_rev_b/libsdk_unit_test.a(epit_test.o)
                                                  /home/leon/git/swp-report/iMX6_Platform_SDK/output/mx6sdl/sdk_unit_test/sabre_ai_rev_b/libsdk_unit_test.a(cpu_wp_test.o)
                                                  /home/leon/git/swp-report/iMX6_Platform_SDK/output/mx6sdl/lib/libsdk.a(timer.o)
                                                  /home/leon/git/swp-report/iMX6_Platform_SDK/output/mx6sdl/sdk_unit_test/sabre_ai_rev_b/obj/apps/common/print_clock_info.o
get_menu_item                                     /home/leon/git/swp-report/iMX6_Platform_SDK/output/mx6sdl/lib/libsdk.a(usb_common.o)
                                                  /home/leon/git/swp-report/iMX6_Platform_SDK/output/mx6sdl/sdk_unit_test/sabre_ai_rev_b/libsdk_unit_test.a(usb0_host_testmodes_test.o)
                                                  /home/leon/git/swp-report/iMX6_Platform_SDK/output/mx6sdl/sdk_unit_test/sabre_ai_rev_b/libsdk_unit_test.a(usb_test.o)
get_panel_by_id                                   /home/leon/git/swp-report/iMX6_Platform_SDK/output/mx6sdl/lib/libsdk.a(ips_disp_panel.o)
get_peri_clock                                    /home/leon/git/swp-report/iMX6_Platform_SDK/output/mx6sdl/lib/libsdk.a(ccm_pll.o)
                                                  /home/leon/git/swp-report/iMX6_Platform_SDK/output/mx6sdl/lib/libsdk.a(can.o)
                                                  /home/leon/git/swp-report/iMX6_Platform_SDK/output/mx6sdl/lib/libsdk.a(imx_uart.o)
                                                  /home/leon/git/swp-report/iMX6_Platform_SDK/output/mx6sdl/sdk_unit_test/sabre_ai_rev_b/obj/apps/common/print_clock_info.o
gicTestDone                                       /home/leon/git/swp-report/iMX6_Platform_SDK/output/mx6sdl/sdk_unit_test/sabre_ai_rev_b/libsdk_unit_test.a(gic_test.o)
gic_cpu_enable                                    /home/leon/git/swp-report/iMX6_Platform_SDK/output/mx6sdl/lib/libsdk.a(gic.o)
gic_enable                                        /home/leon/git/swp-report/iMX6_Platform_SDK/output/mx6sdl/lib/libsdk.a(gic.o)
gic_enable_irq                                    /home/leon/git/swp-report/iMX6_Platform_SDK/output/mx6sdl/lib/libsdk.a(gic.o)
                                                  /home/leon/git/swp-report/iMX6_Platform_SDK/output/mx6sdl/lib/libsdk.a(interrupt.o)
gic_init                                          /home/leon/git/swp-report/iMX6_Platform_SDK/output/mx6sdl/lib/libsdk.a(gic.o)
                                                  /home/leon/git/swp-report/iMX6_Platform_SDK/output/mx6sdl/sdk_unit_test/sabre_ai_rev_b/obj/apps/common/platform_init.o
gic_init_cpu                                      /home/leon/git/swp-report/iMX6_Platform_SDK/output/mx6sdl/lib/libsdk.a(gic.o)
                                                  /home/leon/git/swp-report/iMX6_Platform_SDK/output/mx6sdl/sdk_unit_test/sabre_ai_rev_b/libsdk_unit_test.a(multicore_test.o)
gic_read_irq_ack                                  /home/leon/git/swp-report/iMX6_Platform_SDK/output/mx6sdl/lib/libsdk.a(gic.o)
                                                  /home/leon/git/swp-report/iMX6_Platform_SDK/output/mx6sdl/lib/libsdk.a(interrupt.o)
gic_send_sgi                                      /home/leon/git/swp-report/iMX6_Platform_SDK/output/mx6sdl/lib/libsdk.a(gic.o)
                                                  /home/leon/git/swp-report/iMX6_Platform_SDK/output/mx6sdl/sdk_unit_test/sabre_ai_rev_b/libsdk_unit_test.a(multicore_test.o)
                                                  /home/leon/git/swp-report/iMX6_Platform_SDK/output/mx6sdl/sdk_unit_test/sabre_ai_rev_b/libsdk_unit_test.a(gic_test.o)
gic_set_cpu_priority_mask                         /home/leon/git/swp-report/iMX6_Platform_SDK/output/mx6sdl/lib/libsdk.a(gic.o)
gic_set_cpu_target                                /home/leon/git/swp-report/iMX6_Platform_SDK/output/mx6sdl/lib/libsdk.a(gic.o)
                                                  /home/leon/git/swp-report/iMX6_Platform_SDK/output/mx6sdl/lib/libsdk.a(interrupt.o)
gic_set_irq_priority                              /home/leon/git/swp-report/iMX6_Platform_SDK/output/mx6sdl/lib/libsdk.a(gic.o)
                                                  /home/leon/git/swp-report/iMX6_Platform_SDK/output/mx6sdl/lib/libsdk.a(interrupt.o)
gic_set_irq_security                              /home/leon/git/swp-report/iMX6_Platform_SDK/output/mx6sdl/lib/libsdk.a(gic.o)
                                                  /home/leon/git/swp-report/iMX6_Platform_SDK/output/mx6sdl/lib/libsdk.a(interrupt.o)
gic_sgi_test_handler                              /home/leon/git/swp-report/iMX6_Platform_SDK/output/mx6sdl/sdk_unit_test/sabre_ai_rev_b/libsdk_unit_test.a(gic_test.o)
gic_test                                          /home/leon/git/swp-report/iMX6_Platform_SDK/output/mx6sdl/sdk_unit_test/sabre_ai_rev_b/libsdk_unit_test.a(gic_test.o)
                                                  /home/leon/git/swp-report/iMX6_Platform_SDK/output/mx6sdl/sdk_unit_test/sabre_ai_rev_b/obj/apps/sdk_unit_test/src/all_test.o
gic_write_end_of_irq                              /home/leon/git/swp-report/iMX6_Platform_SDK/output/mx6sdl/lib/libsdk.a(gic.o)
                                                  /home/leon/git/swp-report/iMX6_Platform_SDK/output/mx6sdl/lib/libsdk.a(interrupt.o)
gpio1_iomux_config                                /home/leon/git/swp-report/iMX6_Platform_SDK/output/mx6sdl/lib/libboard_sabre_ai_rev_b.a(gpio1_iomux_config.o)
                                                  /home/leon/git/swp-report/iMX6_Platform_SDK/output/mx6sdl/lib/libboard_sabre_ai_rev_b.a(iomux_config.o)
gpio2_iomux_config                                /home/leon/git/swp-report/iMX6_Platform_SDK/output/mx6sdl/lib/libboard_sabre_ai_rev_b.a(gpio2_iomux_config.o)
                                                  /home/leon/git/swp-report/iMX6_Platform_SDK/output/mx6sdl/lib/libboard_sabre_ai_rev_b.a(iomux_config.o)
gpio3_iomux_config                                /home/leon/git/swp-report/iMX6_Platform_SDK/output/mx6sdl/lib/libboard_sabre_ai_rev_b.a(iomux_config.o)
gpio4_iomux_config                                /home/leon/git/swp-report/iMX6_Platform_SDK/output/mx6sdl/lib/libboard_sabre_ai_rev_b.a(gpio4_iomux_config.o)
                                                  /home/leon/git/swp-report/iMX6_Platform_SDK/output/mx6sdl/lib/libboard_sabre_ai_rev_b.a(iomux_config.o)
gpio5_iomux_config                                /home/leon/git/swp-report/iMX6_Platform_SDK/output/mx6sdl/lib/libboard_sabre_ai_rev_b.a(gpio5_iomux_config.o)
                                                  /home/leon/git/swp-report/iMX6_Platform_SDK/output/mx6sdl/lib/libboard_sabre_ai_rev_b.a(iomux_config.o)
gpio6_iomux_config                                /home/leon/git/swp-report/iMX6_Platform_SDK/output/mx6sdl/lib/libboard_sabre_ai_rev_b.a(gpio6_iomux_config.o)
                                                  /home/leon/git/swp-report/iMX6_Platform_SDK/output/mx6sdl/lib/libboard_sabre_ai_rev_b.a(iomux_config.o)
gpio7_iomux_config                                /home/leon/git/swp-report/iMX6_Platform_SDK/output/mx6sdl/lib/libboard_sabre_ai_rev_b.a(iomux_config.o)
gpio_clear_interrupt                              /home/leon/git/swp-report/iMX6_Platform_SDK/output/mx6sdl/lib/libsdk.a(gpio.o)
gpio_get_direction                                /home/leon/git/swp-report/iMX6_Platform_SDK/output/mx6sdl/lib/libsdk.a(gpio.o)
gpio_get_interrupt_status                         /home/leon/git/swp-report/iMX6_Platform_SDK/output/mx6sdl/lib/libsdk.a(gpio.o)
gpio_get_level                                    /home/leon/git/swp-report/iMX6_Platform_SDK/output/mx6sdl/lib/libsdk.a(gpio.o)
                                                  /home/leon/git/swp-report/iMX6_Platform_SDK/output/mx6sdl/lib/libboard_sabre_ai_rev_b.a(board_usdhc.o)
gpio_get_port_count                               /home/leon/git/swp-report/iMX6_Platform_SDK/output/mx6sdl/lib/libsdk.a(gpio.o)
gpio_set_direction                                /home/leon/git/swp-report/iMX6_Platform_SDK/output/mx6sdl/lib/libsdk.a(gpio.o)
                                                  /home/leon/git/swp-report/iMX6_Platform_SDK/output/mx6sdl/lib/libboard_sabre_ai_rev_b.a(board_usdhc.o)
                                                  /home/leon/git/swp-report/iMX6_Platform_SDK/output/mx6sdl/lib/libboard_sabre_ai_rev_b.a(board_display.o)
                                                  /home/leon/git/swp-report/iMX6_Platform_SDK/output/mx6sdl/lib/libboard_sabre_ai_rev_b.a(board_can.o)
                                                  /home/leon/git/swp-report/iMX6_Platform_SDK/output/mx6sdl/lib/libboard_sabre_ai_rev_b.a(board_camera.o)
                                                  /home/leon/git/swp-report/iMX6_Platform_SDK/output/mx6sdl/sdk_unit_test/sabre_ai_rev_b/libsdk_unit_test.a(spi_test.o)
                                                  /home/leon/git/swp-report/iMX6_Platform_SDK/output/mx6sdl/lib/libboard_sabre_ai_rev_b.a(board_io_expanders.o)
gpio_set_gpio                                     /home/leon/git/swp-report/iMX6_Platform_SDK/output/mx6sdl/lib/libsdk.a(gpio.o)
                                                  /home/leon/git/swp-report/iMX6_Platform_SDK/output/mx6sdl/lib/libboard_sabre_ai_rev_b.a(board_usdhc.o)
                                                  /home/leon/git/swp-report/iMX6_Platform_SDK/output/mx6sdl/lib/libboard_sabre_ai_rev_b.a(board_display.o)
                                                  /home/leon/git/swp-report/iMX6_Platform_SDK/output/mx6sdl/lib/libboard_sabre_ai_rev_b.a(board_can.o)
                                                  /home/leon/git/swp-report/iMX6_Platform_SDK/output/mx6sdl/lib/libboard_sabre_ai_rev_b.a(board_io_expanders.o)
gpio_set_interrupt_config                         /home/leon/git/swp-report/iMX6_Platform_SDK/output/mx6sdl/lib/libsdk.a(gpio.o)
gpio_set_interrupt_mask                           /home/leon/git/swp-report/iMX6_Platform_SDK/output/mx6sdl/lib/libsdk.a(gpio.o)
gpio_set_level                                    /home/leon/git/swp-report/iMX6_Platform_SDK/output/mx6sdl/lib/libsdk.a(gpio.o)
                                                  /home/leon/git/swp-report/iMX6_Platform_SDK/output/mx6sdl/lib/libboard_sabre_ai_rev_b.a(board_display.o)
                                                  /home/leon/git/swp-report/iMX6_Platform_SDK/output/mx6sdl/lib/libboard_sabre_ai_rev_b.a(board_camera.o)
                                                  /home/leon/git/swp-report/iMX6_Platform_SDK/output/mx6sdl/sdk_unit_test/sabre_ai_rev_b/libsdk_unit_test.a(spi_test.o)
                                                  /home/leon/git/swp-report/iMX6_Platform_SDK/output/mx6sdl/sdk_unit_test/sabre_ai_rev_b/libsdk_unit_test.a(eim_test.o)
                                                  /home/leon/git/swp-report/iMX6_Platform_SDK/output/mx6sdl/lib/libboard_sabre_ai_rev_b.a(board_io_expanders.o)
gpmi_iomux_config                                 /home/leon/git/swp-report/iMX6_Platform_SDK/output/mx6sdl/lib/libboard_sabre_ai_rev_b.a(gpmi_iomux_config.o)
                                                  /home/leon/git/swp-report/iMX6_Platform_SDK/output/mx6sdl/lib/libboard_sabre_ai_rev_b.a(iomux_config.o)
gpt_counter_disable                               /home/leon/git/swp-report/iMX6_Platform_SDK/output/mx6sdl/lib/libsdk.a(gpt.o)
                                                  /home/leon/git/swp-report/iMX6_Platform_SDK/output/mx6sdl/sdk_unit_test/sabre_ai_rev_b/libsdk_unit_test.a(gpt_test.o)
gpt_counter_enable                                /home/leon/git/swp-report/iMX6_Platform_SDK/output/mx6sdl/lib/libsdk.a(gpt.o)
                                                  /home/leon/git/swp-report/iMX6_Platform_SDK/output/mx6sdl/sdk_unit_test/sabre_ai_rev_b/libsdk_unit_test.a(gpt_test.o)
gpt_get_capture_event                             /home/leon/git/swp-report/iMX6_Platform_SDK/output/mx6sdl/lib/libsdk.a(gpt.o)
                                                  /home/leon/git/swp-report/iMX6_Platform_SDK/output/mx6sdl/sdk_unit_test/sabre_ai_rev_b/libsdk_unit_test.a(gpt_test.o)
gpt_get_compare_event                             /home/leon/git/swp-report/iMX6_Platform_SDK/output/mx6sdl/lib/libsdk.a(gpt.o)
                                                  /home/leon/git/swp-report/iMX6_Platform_SDK/output/mx6sdl/sdk_unit_test/sabre_ai_rev_b/libsdk_unit_test.a(gpt_test.o)
gpt_get_rollover_event                            /home/leon/git/swp-report/iMX6_Platform_SDK/output/mx6sdl/lib/libsdk.a(gpt.o)
                                                  /home/leon/git/swp-report/iMX6_Platform_SDK/output/mx6sdl/sdk_unit_test/sabre_ai_rev_b/libsdk_unit_test.a(gpt_test.o)
gpt_in_capture_test                               /home/leon/git/swp-report/iMX6_Platform_SDK/output/mx6sdl/sdk_unit_test/sabre_ai_rev_b/libsdk_unit_test.a(gpt_test.o)
gpt_init                                          /home/leon/git/swp-report/iMX6_Platform_SDK/output/mx6sdl/lib/libsdk.a(gpt.o)
                                                  /home/leon/git/swp-report/iMX6_Platform_SDK/output/mx6sdl/sdk_unit_test/sabre_ai_rev_b/libsdk_unit_test.a(gpt_test.o)
gpt_interrupt_routine                             /home/leon/git/swp-report/iMX6_Platform_SDK/output/mx6sdl/sdk_unit_test/sabre_ai_rev_b/libsdk_unit_test.a(gpt_test.o)
gpt_iomux_config                                  /home/leon/git/swp-report/iMX6_Platform_SDK/output/mx6sdl/lib/libboard_sabre_ai_rev_b.a(iomux_config.o)
gpt_out_compare_test                              /home/leon/git/swp-report/iMX6_Platform_SDK/output/mx6sdl/sdk_unit_test/sabre_ai_rev_b/libsdk_unit_test.a(gpt_test.o)
gpt_set_capture_event                             /home/leon/git/swp-report/iMX6_Platform_SDK/output/mx6sdl/lib/libsdk.a(gpt.o)
                                                  /home/leon/git/swp-report/iMX6_Platform_SDK/output/mx6sdl/sdk_unit_test/sabre_ai_rev_b/libsdk_unit_test.a(gpt_test.o)
gpt_set_compare_event                             /home/leon/git/swp-report/iMX6_Platform_SDK/output/mx6sdl/lib/libsdk.a(gpt.o)
                                                  /home/leon/git/swp-report/iMX6_Platform_SDK/output/mx6sdl/sdk_unit_test/sabre_ai_rev_b/libsdk_unit_test.a(gpt_test.o)
gpt_setup_interrupt                               /home/leon/git/swp-report/iMX6_Platform_SDK/output/mx6sdl/lib/libsdk.a(gpt.o)
                                                  /home/leon/git/swp-report/iMX6_Platform_SDK/output/mx6sdl/sdk_unit_test/sabre_ai_rev_b/libsdk_unit_test.a(gpt_test.o)
gpt_test                                          /home/leon/git/swp-report/iMX6_Platform_SDK/output/mx6sdl/sdk_unit_test/sabre_ai_rev_b/libsdk_unit_test.a(gpt_test.o)
                                                  /home/leon/git/swp-report/iMX6_Platform_SDK/output/mx6sdl/sdk_unit_test/sabre_ai_rev_b/obj/apps/sdk_unit_test/src/all_test.o
gpu_clock_config                                  /home/leon/git/swp-report/iMX6_Platform_SDK/output/mx6sdl/lib/libsdk.a(ccm_pll.o)
hal_delay_us                                      /home/leon/git/swp-report/iMX6_Platform_SDK/output/mx6sdl/lib/libsdk.a(timer.o)
                                                  /home/leon/git/swp-report/iMX6_Platform_SDK/output/mx6sdl/lib/libboard_sabre_ai_rev_b.a(board_mipi.o)
                                                  /home/leon/git/swp-report/iMX6_Platform_SDK/output/mx6sdl/lib/libboard_sabre_ai_rev_b.a(board_camera.o)
                                                  /home/leon/git/swp-report/iMX6_Platform_SDK/output/mx6sdl/lib/libsdk.a(adv7180.o)
                                                  /home/leon/git/swp-report/iMX6_Platform_SDK/output/mx6sdl/lib/libsdk.a(usdhc_sd.o)
                                                  /home/leon/git/swp-report/iMX6_Platform_SDK/output/mx6sdl/lib/libsdk.a(usdhc_mmc.o)
                                                  /home/leon/git/swp-report/iMX6_Platform_SDK/output/mx6sdl/lib/libsdk.a(usdhc_host.o)
                                                  /home/leon/git/swp-report/iMX6_Platform_SDK/output/mx6sdl/lib/libsdk.a(ecspi.o)
                                                  /home/leon/git/swp-report/iMX6_Platform_SDK/output/mx6sdl/lib/libsdk.a(pcie.o)
                                                  /home/leon/git/swp-report/iMX6_Platform_SDK/output/mx6sdl/lib/libsdk.a(mipi_dsi_common.o)
                                                  /home/leon/git/swp-report/iMX6_Platform_SDK/output/mx6sdl/lib/libsdk.a(mipi_csi2_common.o)
                                                  /home/leon/git/swp-report/iMX6_Platform_SDK/output/mx6sdl/lib/libsdk.a(ipu_common.o)
                                                  /home/leon/git/swp-report/iMX6_Platform_SDK/output/mx6sdl/lib/libsdk.a(hdmi_tx_phy.o)
                                                  /home/leon/git/swp-report/iMX6_Platform_SDK/output/mx6sdl/sdk_unit_test/sabre_ai_rev_b/libsdk_unit_test.a(spi_nor_numonyx.o)
                                                  /home/leon/git/swp-report/iMX6_Platform_SDK/output/mx6sdl/sdk_unit_test/sabre_ai_rev_b/libsdk_unit_test.a(at24cxx.o)
                                                  /home/leon/git/swp-report/iMX6_Platform_SDK/output/mx6sdl/sdk_unit_test/sabre_ai_rev_b/libsdk_unit_test.a(accelerometer_test.o)
                                                  /home/leon/git/swp-report/iMX6_Platform_SDK/output/mx6sdl/sdk_unit_test/sabre_ai_rev_b/libsdk_unit_test.a(csi_test_mode.o)
                                                  /home/leon/git/swp-report/iMX6_Platform_SDK/output/mx6sdl/sdk_unit_test/sabre_ai_rev_b/libsdk_unit_test.a(hdmi_test.o)
                                                  /home/leon/git/swp-report/iMX6_Platform_SDK/output/mx6sdl/sdk_unit_test/sabre_ai_rev_b/libsdk_unit_test.a(timer_test.o)
                                                  /home/leon/git/swp-report/iMX6_Platform_SDK/output/mx6sdl/sdk_unit_test/sabre_ai_rev_b/libsdk_unit_test.a(gpt_test.o)
                                                  /home/leon/git/swp-report/iMX6_Platform_SDK/output/mx6sdl/sdk_unit_test/sabre_ai_rev_b/libsdk_unit_test.a(epit_test.o)
                                                  /home/leon/git/swp-report/iMX6_Platform_SDK/output/mx6sdl/sdk_unit_test/sabre_ai_rev_b/libsdk_unit_test.a(cpu_wp_test.o)
hdmi_1080P60_video_output                         /home/leon/git/swp-report/iMX6_Platform_SDK/output/mx6sdl/sdk_unit_test/sabre_ai_rev_b/libsdk_unit_test.a(hdmi_test.o)
hdmi_720P60_video_output                          /home/leon/git/swp-report/iMX6_Platform_SDK/output/mx6sdl/sdk_unit_test/sabre_ai_rev_b/libsdk_unit_test.a(hdmi_test.o)
hdmi_audio_mute                                   /home/leon/git/swp-report/iMX6_Platform_SDK/output/mx6sdl/lib/libsdk.a(hdmi_tx_audio.o)
                                                  /home/leon/git/swp-report/iMX6_Platform_SDK/output/mx6sdl/sdk_unit_test/sabre_ai_rev_b/libsdk_unit_test.a(hdmi_test.o)
hdmi_av_frame_composer                            /home/leon/git/swp-report/iMX6_Platform_SDK/output/mx6sdl/lib/libsdk.a(hdmi_tx.o)
                                                  /home/leon/git/swp-report/iMX6_Platform_SDK/output/mx6sdl/sdk_unit_test/sabre_ai_rev_b/libsdk_unit_test.a(hdmi_test.o)
hdmi_clock_set                                    /home/leon/git/swp-report/iMX6_Platform_SDK/output/mx6sdl/lib/libboard_sabre_ai_rev_b.a(board_hdmi.o)
                                                  /home/leon/git/swp-report/iMX6_Platform_SDK/output/mx6sdl/lib/libsdk.a(ips_disp_panel.o)
hdmi_config_force_video                           /home/leon/git/swp-report/iMX6_Platform_SDK/output/mx6sdl/lib/libsdk.a(hdmi_tx.o)
hdmi_config_forced_pixels                         /home/leon/git/swp-report/iMX6_Platform_SDK/output/mx6sdl/lib/libsdk.a(hdmi_tx.o)
hdmi_config_input_source                          /home/leon/git/swp-report/iMX6_Platform_SDK/output/mx6sdl/lib/libsdk.a(hdmi_tx.o)
                                                  /home/leon/git/swp-report/iMX6_Platform_SDK/output/mx6sdl/sdk_unit_test/sabre_ai_rev_b/libsdk_unit_test.a(hdmi_test.o)
hdmi_iomux_config                                 /home/leon/git/swp-report/iMX6_Platform_SDK/output/mx6sdl/lib/libboard_sabre_ai_rev_b.a(iomux_config.o)
hdmi_pgm_iomux                                    /home/leon/git/swp-report/iMX6_Platform_SDK/output/mx6sdl/lib/libboard_sabre_ai_rev_b.a(board_hdmi.o)
                                                  /home/leon/git/swp-report/iMX6_Platform_SDK/output/mx6sdl/lib/libsdk.a(ips_disp_panel.o)
hdmi_phy_init                                     /home/leon/git/swp-report/iMX6_Platform_SDK/output/mx6sdl/lib/libsdk.a(hdmi_tx_phy.o)
                                                  /home/leon/git/swp-report/iMX6_Platform_SDK/output/mx6sdl/sdk_unit_test/sabre_ai_rev_b/libsdk_unit_test.a(hdmi_test.o)
hdmi_phy_int_mask                                 /home/leon/git/swp-report/iMX6_Platform_SDK/output/mx6sdl/lib/libsdk.a(hdmi_tx_phy.o)
hdmi_set_video_mode                               /home/leon/git/swp-report/iMX6_Platform_SDK/output/mx6sdl/lib/libsdk.a(hdmi_common.o)
                                                  /home/leon/git/swp-report/iMX6_Platform_SDK/output/mx6sdl/lib/libsdk.a(hdmi_tx.o)
hdmi_test                                         /home/leon/git/swp-report/iMX6_Platform_SDK/output/mx6sdl/sdk_unit_test/sabre_ai_rev_b/libsdk_unit_test.a(hdmi_test.o)
                                                  /home/leon/git/swp-report/iMX6_Platform_SDK/output/mx6sdl/sdk_unit_test/sabre_ai_rev_b/obj/apps/sdk_unit_test/src/all_test.o
hdmi_tx_ISR                                       /home/leon/git/swp-report/iMX6_Platform_SDK/output/mx6sdl/sdk_unit_test/sabre_ai_rev_b/libsdk_unit_test.a(hdmi_test.o)
hdmi_tx_cec_pgm_iomux                             /home/leon/git/swp-report/iMX6_Platform_SDK/output/mx6sdl/lib/libboard_sabre_ai_rev_b.a(board_hdmi.o)
hdmi_tx_ddc_pgm_iomux                             /home/leon/git/swp-report/iMX6_Platform_SDK/output/mx6sdl/lib/libboard_sabre_ai_rev_b.a(board_hdmi.o)
hdmi_tx_hdcp_config                               /home/leon/git/swp-report/iMX6_Platform_SDK/output/mx6sdl/lib/libsdk.a(hdmi_tx.o)
                                                  /home/leon/git/swp-report/iMX6_Platform_SDK/output/mx6sdl/sdk_unit_test/sabre_ai_rev_b/libsdk_unit_test.a(hdmi_test.o)
hdmi_tx_phydtb_pgm_iomux                          /home/leon/git/swp-report/iMX6_Platform_SDK/output/mx6sdl/lib/libboard_sabre_ai_rev_b.a(board_hdmi.o)
hdmi_video_csc                                    /home/leon/git/swp-report/iMX6_Platform_SDK/output/mx6sdl/lib/libsdk.a(hdmi_tx.o)
                                                  /home/leon/git/swp-report/iMX6_Platform_SDK/output/mx6sdl/sdk_unit_test/sabre_ai_rev_b/libsdk_unit_test.a(hdmi_test.o)
hdmi_video_packetize                              /home/leon/git/swp-report/iMX6_Platform_SDK/output/mx6sdl/lib/libsdk.a(hdmi_tx.o)
                                                  /home/leon/git/swp-report/iMX6_Platform_SDK/output/mx6sdl/sdk_unit_test/sabre_ai_rev_b/libsdk_unit_test.a(hdmi_test.o)
hdmi_video_sample                                 /home/leon/git/swp-report/iMX6_Platform_SDK/output/mx6sdl/lib/libsdk.a(hdmi_tx.o)
                                                  /home/leon/git/swp-report/iMX6_Platform_SDK/output/mx6sdl/sdk_unit_test/sabre_ai_rev_b/libsdk_unit_test.a(hdmi_test.o)
hid_device_enum                                   /home/leon/git/swp-report/iMX6_Platform_SDK/output/mx6sdl/sdk_unit_test/sabre_ai_rev_b/libsdk_unit_test.a(usb0_device_mouse_test.o)
host_cfg_block                                    /home/leon/git/swp-report/iMX6_Platform_SDK/output/mx6sdl/lib/libsdk.a(usdhc_host.o)
                                                  /home/leon/git/swp-report/iMX6_Platform_SDK/output/mx6sdl/lib/libsdk.a(usdhc_mmc.o)
                                                  /home/leon/git/swp-report/iMX6_Platform_SDK/output/mx6sdl/lib/libsdk.a(usdhc.o)
host_cfg_clock                                    /home/leon/git/swp-report/iMX6_Platform_SDK/output/mx6sdl/lib/libsdk.a(usdhc_host.o)
                                                  /home/leon/git/swp-report/iMX6_Platform_SDK/output/mx6sdl/lib/libsdk.a(usdhc_sd.o)
                                                  /home/leon/git/swp-report/iMX6_Platform_SDK/output/mx6sdl/lib/libsdk.a(usdhc_mmc.o)
                                                  /home/leon/git/swp-report/iMX6_Platform_SDK/output/mx6sdl/lib/libsdk.a(usdhc.o)
host_clear_fifo                                   /home/leon/git/swp-report/iMX6_Platform_SDK/output/mx6sdl/lib/libsdk.a(usdhc_host.o)
                                                  /home/leon/git/swp-report/iMX6_Platform_SDK/output/mx6sdl/lib/libsdk.a(usdhc.o)
host_data_read                                    /home/leon/git/swp-report/iMX6_Platform_SDK/output/mx6sdl/lib/libsdk.a(usdhc_host.o)
                                                  /home/leon/git/swp-report/iMX6_Platform_SDK/output/mx6sdl/lib/libsdk.a(usdhc_mmc.o)
                                                  /home/leon/git/swp-report/iMX6_Platform_SDK/output/mx6sdl/lib/libsdk.a(usdhc.o)
host_data_write                                   /home/leon/git/swp-report/iMX6_Platform_SDK/output/mx6sdl/lib/libsdk.a(usdhc_host.o)
                                                  /home/leon/git/swp-report/iMX6_Platform_SDK/output/mx6sdl/lib/libsdk.a(usdhc.o)
host_init                                         /home/leon/git/swp-report/iMX6_Platform_SDK/output/mx6sdl/lib/libsdk.a(usdhc_host.o)
                                                  /home/leon/git/swp-report/iMX6_Platform_SDK/output/mx6sdl/lib/libsdk.a(usdhc.o)
host_init_active                                  /home/leon/git/swp-report/iMX6_Platform_SDK/output/mx6sdl/lib/libsdk.a(usdhc_host.o)
                                                  /home/leon/git/swp-report/iMX6_Platform_SDK/output/mx6sdl/lib/libsdk.a(usdhc.o)
host_read_response                                /home/leon/git/swp-report/iMX6_Platform_SDK/output/mx6sdl/lib/libsdk.a(usdhc_host.o)
                                                  /home/leon/git/swp-report/iMX6_Platform_SDK/output/mx6sdl/lib/libsdk.a(usdhc_sd.o)
                                                  /home/leon/git/swp-report/iMX6_Platform_SDK/output/mx6sdl/lib/libsdk.a(usdhc_mmc.o)
                                                  /home/leon/git/swp-report/iMX6_Platform_SDK/output/mx6sdl/lib/libsdk.a(usdhc.o)
host_reset                                        /home/leon/git/swp-report/iMX6_Platform_SDK/output/mx6sdl/lib/libsdk.a(usdhc_host.o)
                                                  /home/leon/git/swp-report/iMX6_Platform_SDK/output/mx6sdl/lib/libsdk.a(usdhc.o)
host_send_cmd                                     /home/leon/git/swp-report/iMX6_Platform_SDK/output/mx6sdl/lib/libsdk.a(usdhc_host.o)
                                                  /home/leon/git/swp-report/iMX6_Platform_SDK/output/mx6sdl/lib/libsdk.a(usdhc_sd.o)
                                                  /home/leon/git/swp-report/iMX6_Platform_SDK/output/mx6sdl/lib/libsdk.a(usdhc_mmc.o)
                                                  /home/leon/git/swp-report/iMX6_Platform_SDK/output/mx6sdl/lib/libsdk.a(usdhc.o)
host_set_bus_width                                /home/leon/git/swp-report/iMX6_Platform_SDK/output/mx6sdl/lib/libsdk.a(usdhc_host.o)
                                                  /home/leon/git/swp-report/iMX6_Platform_SDK/output/mx6sdl/lib/libsdk.a(usdhc_sd.o)
                                                  /home/leon/git/swp-report/iMX6_Platform_SDK/output/mx6sdl/lib/libsdk.a(usdhc_mmc.o)
host_setup_adma                                   /home/leon/git/swp-report/iMX6_Platform_SDK/output/mx6sdl/lib/libsdk.a(usdhc_host.o)
                                                  /home/leon/git/swp-report/iMX6_Platform_SDK/output/mx6sdl/lib/libsdk.a(usdhc.o)
hw_can_iomux_config                               /home/leon/git/swp-report/iMX6_Platform_SDK/output/mx6sdl/lib/libboard_sabre_ai_rev_b.a(board_can.o)
                                                  /home/leon/git/swp-report/iMX6_Platform_SDK/output/mx6sdl/lib/libsdk.a(can.o)
i2c1_iomux_config                                 /home/leon/git/swp-report/iMX6_Platform_SDK/output/mx6sdl/lib/libboard_sabre_ai_rev_b.a(iomux_config.o)
                                                  /home/leon/git/swp-report/iMX6_Platform_SDK/output/mx6sdl/lib/libboard_sabre_ai_rev_b.a(i2c_iomux_config.o)
i2c2_iomux_config                                 /home/leon/git/swp-report/iMX6_Platform_SDK/output/mx6sdl/lib/libboard_sabre_ai_rev_b.a(i2c2_iomux_config.o)
                                                  /home/leon/git/swp-report/iMX6_Platform_SDK/output/mx6sdl/lib/libboard_sabre_ai_rev_b.a(i2c_iomux_config.o)
                                                  /home/leon/git/swp-report/iMX6_Platform_SDK/output/mx6sdl/lib/libboard_sabre_ai_rev_b.a(iomux_config.o)
i2c3_iomux_config                                 /home/leon/git/swp-report/iMX6_Platform_SDK/output/mx6sdl/lib/libboard_sabre_ai_rev_b.a(i2c3_iomux_config.o)
                                                  /home/leon/git/swp-report/iMX6_Platform_SDK/output/mx6sdl/lib/libboard_sabre_ai_rev_b.a(i2c_iomux_config.o)
                                                  /home/leon/git/swp-report/iMX6_Platform_SDK/output/mx6sdl/lib/libboard_sabre_ai_rev_b.a(iomux_config.o)
                                                  /home/leon/git/swp-report/iMX6_Platform_SDK/output/mx6sdl/lib/libboard_sabre_ai_rev_b.a(board_io_expanders.o)
i2c4_iomux_config                                 /home/leon/git/swp-report/iMX6_Platform_SDK/output/mx6sdl/lib/libboard_sabre_ai_rev_b.a(iomux_config.o)
                                                  /home/leon/git/swp-report/iMX6_Platform_SDK/output/mx6sdl/lib/libboard_sabre_ai_rev_b.a(i2c_iomux_config.o)
i2c_eeprom_at24cxx_test                           /home/leon/git/swp-report/iMX6_Platform_SDK/output/mx6sdl/sdk_unit_test/sabre_ai_rev_b/libsdk_unit_test.a(at24cxx.o)
                                                  /home/leon/git/swp-report/iMX6_Platform_SDK/output/mx6sdl/sdk_unit_test/sabre_ai_rev_b/libsdk_unit_test.a(i2c_test.o)
i2c_get_request_instance                          /home/leon/git/swp-report/iMX6_Platform_SDK/output/mx6sdl/lib/libsdk.a(imx_i2c.o)
                                                  /home/leon/git/swp-report/iMX6_Platform_SDK/output/mx6sdl/lib/libsdk.a(imx_i2c_slave.o)
i2c_imx6_slave_test                               /home/leon/git/swp-report/iMX6_Platform_SDK/output/mx6sdl/sdk_unit_test/sabre_ai_rev_b/libsdk_unit_test.a(imx6_i2c_device.o)
                                                  /home/leon/git/swp-report/iMX6_Platform_SDK/output/mx6sdl/sdk_unit_test/sabre_ai_rev_b/libsdk_unit_test.a(i2c_test.o)
i2c_init                                          /home/leon/git/swp-report/iMX6_Platform_SDK/output/mx6sdl/lib/libsdk.a(imx_i2c.o)
                                                  /home/leon/git/swp-report/iMX6_Platform_SDK/output/mx6sdl/lib/libsdk.a(adv7180.o)
                                                  /home/leon/git/swp-report/iMX6_Platform_SDK/output/mx6sdl/lib/libsdk.a(mipi_csi2_common.o)
                                                  /home/leon/git/swp-report/iMX6_Platform_SDK/output/mx6sdl/lib/libsdk.a(mma8451.o)
                                                  /home/leon/git/swp-report/iMX6_Platform_SDK/output/mx6sdl/lib/libsdk.a(max7310.o)
                                                  /home/leon/git/swp-report/iMX6_Platform_SDK/output/mx6sdl/sdk_unit_test/sabre_ai_rev_b/libsdk_unit_test.a(at24cxx.o)
                                                  /home/leon/git/swp-report/iMX6_Platform_SDK/output/mx6sdl/sdk_unit_test/sabre_ai_rev_b/libsdk_unit_test.a(imx6_i2c_device.o)
i2c_iomux_config                                  /home/leon/git/swp-report/iMX6_Platform_SDK/output/mx6sdl/lib/libboard_sabre_ai_rev_b.a(i2c_iomux_config.o)
                                                  /home/leon/git/swp-report/iMX6_Platform_SDK/output/mx6sdl/lib/libsdk.a(imx_i2c.o)
i2c_read                                          /home/leon/git/swp-report/iMX6_Platform_SDK/output/mx6sdl/lib/libsdk.a(imx_i2c.o)
                                                  /home/leon/git/swp-report/iMX6_Platform_SDK/output/mx6sdl/lib/libsdk.a(mma8451.o)
                                                  /home/leon/git/swp-report/iMX6_Platform_SDK/output/mx6sdl/lib/libsdk.a(max7310.o)
                                                  /home/leon/git/swp-report/iMX6_Platform_SDK/output/mx6sdl/sdk_unit_test/sabre_ai_rev_b/libsdk_unit_test.a(at24cxx.o)
i2c_setup_interrupt                               /home/leon/git/swp-report/iMX6_Platform_SDK/output/mx6sdl/lib/libsdk.a(imx_i2c.o)
                                                  /home/leon/git/swp-report/iMX6_Platform_SDK/output/mx6sdl/lib/libsdk.a(imx_i2c_slave.o)
i2c_slave_handler                                 /home/leon/git/swp-report/iMX6_Platform_SDK/output/mx6sdl/lib/libsdk.a(imx_i2c_slave.o)
i2c_slave_interrupt_routine                       /home/leon/git/swp-report/iMX6_Platform_SDK/output/mx6sdl/lib/libsdk.a(imx_i2c_slave.o)
i2c_slave_xfer                                    /home/leon/git/swp-report/iMX6_Platform_SDK/output/mx6sdl/lib/libsdk.a(imx_i2c_slave.o)
                                                  /home/leon/git/swp-report/iMX6_Platform_SDK/output/mx6sdl/sdk_unit_test/sabre_ai_rev_b/libsdk_unit_test.a(imx6_i2c_device.o)
i2c_test                                          /home/leon/git/swp-report/iMX6_Platform_SDK/output/mx6sdl/sdk_unit_test/sabre_ai_rev_b/libsdk_unit_test.a(i2c_test.o)
                                                  /home/leon/git/swp-report/iMX6_Platform_SDK/output/mx6sdl/sdk_unit_test/sabre_ai_rev_b/obj/apps/sdk_unit_test/src/all_test.o
i2c_write                                         /home/leon/git/swp-report/iMX6_Platform_SDK/output/mx6sdl/lib/libsdk.a(imx_i2c.o)
                                                  /home/leon/git/swp-report/iMX6_Platform_SDK/output/mx6sdl/lib/libsdk.a(mma8451.o)
                                                  /home/leon/git/swp-report/iMX6_Platform_SDK/output/mx6sdl/lib/libsdk.a(max7310.o)
                                                  /home/leon/git/swp-report/iMX6_Platform_SDK/output/mx6sdl/sdk_unit_test/sabre_ai_rev_b/libsdk_unit_test.a(at24cxx.o)
i2c_xfer                                          /home/leon/git/swp-report/iMX6_Platform_SDK/output/mx6sdl/lib/libsdk.a(imx_i2c.o)
                                                  /home/leon/git/swp-report/iMX6_Platform_SDK/output/mx6sdl/lib/libsdk.a(adv7180.o)
                                                  /home/leon/git/swp-report/iMX6_Platform_SDK/output/mx6sdl/lib/libsdk.a(mipi_csi2_common.o)
imx6_slave_receive                                /home/leon/git/swp-report/iMX6_Platform_SDK/output/mx6sdl/sdk_unit_test/sabre_ai_rev_b/libsdk_unit_test.a(imx6_i2c_device.o)
imx6_slave_transmit                               /home/leon/git/swp-report/iMX6_Platform_SDK/output/mx6sdl/sdk_unit_test/sabre_ai_rev_b/libsdk_unit_test.a(imx6_i2c_device.o)
init_dma_data                                     /home/leon/git/swp-report/iMX6_Platform_SDK/output/mx6sdl/sdk_unit_test/sabre_ai_rev_b/libsdk_unit_test.a(init_dma_data.o)
                                                  /home/leon/git/swp-report/iMX6_Platform_SDK/output/mx6sdl/sdk_unit_test/sabre_ai_rev_b/libsdk_unit_test.a(hdmi_test.o)
init_hdmi_interrupt                               /home/leon/git/swp-report/iMX6_Platform_SDK/output/mx6sdl/sdk_unit_test/sabre_ai_rev_b/libsdk_unit_test.a(hdmi_test.o)
input_dcd                                         /home/leon/git/swp-report/iMX6_Platform_SDK/output/mx6sdl/lib/libboard_sabre_ai_rev_b.a(dcd.o)
input_dcd_hdr                                     /home/leon/git/swp-report/iMX6_Platform_SDK/output/mx6sdl/lib/libboard_sabre_ai_rev_b.a(dcd.o)
                                                  /home/leon/git/swp-report/iMX6_Platform_SDK/output/mx6sdl/sdk_unit_test/sabre_ai_rev_b/obj/apps/common/ivt.o
input_dcd_wrt_cmd                                 /home/leon/git/swp-report/iMX6_Platform_SDK/output/mx6sdl/lib/libboard_sabre_ai_rev_b.a(dcd.o)
input_ivt                                         /home/leon/git/swp-report/iMX6_Platform_SDK/output/mx6sdl/sdk_unit_test/sabre_ai_rev_b/obj/apps/common/ivt.o
iomux_config                                      /home/leon/git/swp-report/iMX6_Platform_SDK/output/mx6sdl/lib/libboard_sabre_ai_rev_b.a(iomux_config.o)
ips_combiner_test                                 /home/leon/git/swp-report/iMX6_Platform_SDK/output/mx6sdl/sdk_unit_test/sabre_ai_rev_b/libsdk_unit_test.a(ips_combiner.o)
                                                  /home/leon/git/swp-report/iMX6_Platform_SDK/output/mx6sdl/sdk_unit_test/sabre_ai_rev_b/libsdk_unit_test.a(ips_test.o)
ips_csc_test                                      /home/leon/git/swp-report/iMX6_Platform_SDK/output/mx6sdl/sdk_unit_test/sabre_ai_rev_b/libsdk_unit_test.a(ips_csc.o)
                                                  /home/leon/git/swp-report/iMX6_Platform_SDK/output/mx6sdl/sdk_unit_test/sabre_ai_rev_b/libsdk_unit_test.a(ips_test.o)
ips_deinterlace_proc                              /home/leon/git/swp-report/iMX6_Platform_SDK/output/mx6sdl/lib/libsdk.a(ipu_vdi.o)
                                                  /home/leon/git/swp-report/iMX6_Platform_SDK/output/mx6sdl/lib/libsdk.a(ipu_common.o)
ips_display_test                                  /home/leon/git/swp-report/iMX6_Platform_SDK/output/mx6sdl/sdk_unit_test/sabre_ai_rev_b/libsdk_unit_test.a(ips_display.o)
                                                  /home/leon/git/swp-report/iMX6_Platform_SDK/output/mx6sdl/sdk_unit_test/sabre_ai_rev_b/libsdk_unit_test.a(ips_test.o)
ips_ext_hdmi_transmitter_1080P60_stream           /home/leon/git/swp-report/iMX6_Platform_SDK/output/mx6sdl/sdk_unit_test/sabre_ai_rev_b/libsdk_unit_test.a(ips_display.o)
ips_hannstar_xga_yuv_stream                       /home/leon/git/swp-report/iMX6_Platform_SDK/output/mx6sdl/sdk_unit_test/sabre_ai_rev_b/libsdk_unit_test.a(ips_display.o)
ips_hdmi_1080P60_stream                           /home/leon/git/swp-report/iMX6_Platform_SDK/output/mx6sdl/sdk_unit_test/sabre_ai_rev_b/libsdk_unit_test.a(ips_display.o)
                                                  /home/leon/git/swp-report/iMX6_Platform_SDK/output/mx6sdl/sdk_unit_test/sabre_ai_rev_b/libsdk_unit_test.a(hdmi_test.o)
ips_hdmi_720P60_stream                            /home/leon/git/swp-report/iMX6_Platform_SDK/output/mx6sdl/sdk_unit_test/sabre_ai_rev_b/libsdk_unit_test.a(ips_display.o)
                                                  /home/leon/git/swp-report/iMX6_Platform_SDK/output/mx6sdl/sdk_unit_test/sabre_ai_rev_b/libsdk_unit_test.a(hdmi_test.o)
ips_hdmi_stream                                   /home/leon/git/swp-report/iMX6_Platform_SDK/output/mx6sdl/sdk_unit_test/sabre_ai_rev_b/libsdk_unit_test.a(ips_display.o)
                                                  /home/leon/git/swp-report/iMX6_Platform_SDK/output/mx6sdl/sdk_unit_test/sabre_ai_rev_b/libsdk_unit_test.a(hdmi_test.o)
ips_mipi_wvga_rgb_stream                          /home/leon/git/swp-report/iMX6_Platform_SDK/output/mx6sdl/sdk_unit_test/sabre_ai_rev_b/libsdk_unit_test.a(ips_display.o)
                                                  /home/leon/git/swp-report/iMX6_Platform_SDK/output/mx6sdl/sdk_unit_test/sabre_ai_rev_b/libsdk_unit_test.a(mipi_dsi_test.o)
ips_resize_test                                   /home/leon/git/swp-report/iMX6_Platform_SDK/output/mx6sdl/sdk_unit_test/sabre_ai_rev_b/libsdk_unit_test.a(ips_resize.o)
                                                  /home/leon/git/swp-report/iMX6_Platform_SDK/output/mx6sdl/sdk_unit_test/sabre_ai_rev_b/libsdk_unit_test.a(ips_test.o)
ips_rotate_test                                   /home/leon/git/swp-report/iMX6_Platform_SDK/output/mx6sdl/sdk_unit_test/sabre_ai_rev_b/libsdk_unit_test.a(ips_rotate.o)
                                                  /home/leon/git/swp-report/iMX6_Platform_SDK/output/mx6sdl/sdk_unit_test/sabre_ai_rev_b/libsdk_unit_test.a(ips_test.o)
ipu1_ch0_eobnd_isr                                /home/leon/git/swp-report/iMX6_Platform_SDK/output/mx6sdl/lib/libsdk.a(ipu_common.o)
ipu1_iomux_config                                 /home/leon/git/swp-report/iMX6_Platform_SDK/output/mx6sdl/lib/libboard_sabre_ai_rev_b.a(ipu1_iomux_config.o)
                                                  /home/leon/git/swp-report/iMX6_Platform_SDK/output/mx6sdl/lib/libboard_sabre_ai_rev_b.a(board_hdmi.o)
                                                  /home/leon/git/swp-report/iMX6_Platform_SDK/output/mx6sdl/lib/libsdk.a(ips_disp_panel.o)
                                                  /home/leon/git/swp-report/iMX6_Platform_SDK/output/mx6sdl/sdk_unit_test/sabre_ai_rev_b/libsdk_unit_test.a(adv7180_capture.o)
                                                  /home/leon/git/swp-report/iMX6_Platform_SDK/output/mx6sdl/sdk_unit_test/sabre_ai_rev_b/libsdk_unit_test.a(mipi_csi2_test.o)
                                                  /home/leon/git/swp-report/iMX6_Platform_SDK/output/mx6sdl/sdk_unit_test/sabre_ai_rev_b/libsdk_unit_test.a(csi_test_mode.o)
                                                  /home/leon/git/swp-report/iMX6_Platform_SDK/output/mx6sdl/sdk_unit_test/sabre_ai_rev_b/libsdk_unit_test.a(ips_test.o)
                                                  /home/leon/git/swp-report/iMX6_Platform_SDK/output/mx6sdl/lib/libboard_sabre_ai_rev_b.a(iomux_config.o)
ipu_capture_disp_link                             /home/leon/git/swp-report/iMX6_Platform_SDK/output/mx6sdl/lib/libsdk.a(ipu_csi.o)
                                                  /home/leon/git/swp-report/iMX6_Platform_SDK/output/mx6sdl/lib/libsdk.a(ipu_common.o)
ipu_capture_setup                                 /home/leon/git/swp-report/iMX6_Platform_SDK/output/mx6sdl/lib/libsdk.a(ipu_common.o)
                                                  /home/leon/git/swp-report/iMX6_Platform_SDK/output/mx6sdl/sdk_unit_test/sabre_ai_rev_b/libsdk_unit_test.a(adv7180_capture.o)
                                                  /home/leon/git/swp-report/iMX6_Platform_SDK/output/mx6sdl/sdk_unit_test/sabre_ai_rev_b/libsdk_unit_test.a(csi_test_mode.o)
ipu_capture_streamoff                             /home/leon/git/swp-report/iMX6_Platform_SDK/output/mx6sdl/lib/libsdk.a(ipu_common.o)
                                                  /home/leon/git/swp-report/iMX6_Platform_SDK/output/mx6sdl/sdk_unit_test/sabre_ai_rev_b/libsdk_unit_test.a(csi_test_mode.o)
ipu_ch0_eobnd_interrupt_register                  /home/leon/git/swp-report/iMX6_Platform_SDK/output/mx6sdl/lib/libsdk.a(ipu_common.o)
ipu_channel_buf_not_ready                         /home/leon/git/swp-report/iMX6_Platform_SDK/output/mx6sdl/lib/libsdk.a(ipu_idmac.o)
ipu_channel_buf_ready                             /home/leon/git/swp-report/iMX6_Platform_SDK/output/mx6sdl/lib/libsdk.a(ipu_idmac.o)
                                                  /home/leon/git/swp-report/iMX6_Platform_SDK/output/mx6sdl/lib/libsdk.a(ipu_vdi.o)
                                                  /home/leon/git/swp-report/iMX6_Platform_SDK/output/mx6sdl/lib/libsdk.a(ipu_common.o)
                                                  /home/leon/git/swp-report/iMX6_Platform_SDK/output/mx6sdl/sdk_unit_test/sabre_ai_rev_b/libsdk_unit_test.a(mipi_csi2_test.o)
                                                  /home/leon/git/swp-report/iMX6_Platform_SDK/output/mx6sdl/sdk_unit_test/sabre_ai_rev_b/libsdk_unit_test.a(ips_rotate.o)
                                                  /home/leon/git/swp-report/iMX6_Platform_SDK/output/mx6sdl/sdk_unit_test/sabre_ai_rev_b/libsdk_unit_test.a(ips_resize.o)
                                                  /home/leon/git/swp-report/iMX6_Platform_SDK/output/mx6sdl/sdk_unit_test/sabre_ai_rev_b/libsdk_unit_test.a(ips_csc.o)
ipu_cpmem_mod_field                               /home/leon/git/swp-report/iMX6_Platform_SDK/output/mx6sdl/lib/libsdk.a(ipu_idmac.o)
                                                  /home/leon/git/swp-report/iMX6_Platform_SDK/output/mx6sdl/sdk_unit_test/sabre_ai_rev_b/libsdk_unit_test.a(ips_display.o)
ipu_cpmem_read_field                              /home/leon/git/swp-report/iMX6_Platform_SDK/output/mx6sdl/lib/libsdk.a(ipu_idmac.o)
ipu_cpmem_set_field                               /home/leon/git/swp-report/iMX6_Platform_SDK/output/mx6sdl/lib/libsdk.a(ipu_idmac.o)
                                                  /home/leon/git/swp-report/iMX6_Platform_SDK/output/mx6sdl/lib/libsdk.a(ipu_common.o)
ipu_csi_config                                    /home/leon/git/swp-report/iMX6_Platform_SDK/output/mx6sdl/lib/libsdk.a(ipu_csi.o)
                                                  /home/leon/git/swp-report/iMX6_Platform_SDK/output/mx6sdl/lib/libsdk.a(ipu_common.o)
ipu_csi_test_mode_color                           /home/leon/git/swp-report/iMX6_Platform_SDK/output/mx6sdl/lib/libsdk.a(ipu_csi.o)
                                                  /home/leon/git/swp-report/iMX6_Platform_SDK/output/mx6sdl/sdk_unit_test/sabre_ai_rev_b/libsdk_unit_test.a(csi_test_mode.o)
ipu_dc_config                                     /home/leon/git/swp-report/iMX6_Platform_SDK/output/mx6sdl/lib/libsdk.a(ipu_dc.o)
                                                  /home/leon/git/swp-report/iMX6_Platform_SDK/output/mx6sdl/lib/libsdk.a(ipu_common.o)
ipu_dc_display_config                             /home/leon/git/swp-report/iMX6_Platform_SDK/output/mx6sdl/lib/libsdk.a(ipu_dc.o)
ipu_dc_map                                        /home/leon/git/swp-report/iMX6_Platform_SDK/output/mx6sdl/lib/libsdk.a(ipu_dc.o)
ipu_dc_microcode_config                           /home/leon/git/swp-report/iMX6_Platform_SDK/output/mx6sdl/lib/libsdk.a(ipu_dc.o)
ipu_dc_microcode_event                            /home/leon/git/swp-report/iMX6_Platform_SDK/output/mx6sdl/lib/libsdk.a(ipu_dc.o)
ipu_dc_write_channel_config                       /home/leon/git/swp-report/iMX6_Platform_SDK/output/mx6sdl/lib/libsdk.a(ipu_dc.o)
ipu_deinterlace_3_fields                          /home/leon/git/swp-report/iMX6_Platform_SDK/output/mx6sdl/lib/libsdk.a(ipu_vdi.o)
ipu_deinterlace_idmac_config                      /home/leon/git/swp-report/iMX6_Platform_SDK/output/mx6sdl/lib/libsdk.a(ipu_idmac.o)
                                                  /home/leon/git/swp-report/iMX6_Platform_SDK/output/mx6sdl/lib/libsdk.a(ipu_vdi.o)
ipu_di_bsclk_gen                                  /home/leon/git/swp-report/iMX6_Platform_SDK/output/mx6sdl/lib/libsdk.a(ipu_di.o)
ipu_di_config                                     /home/leon/git/swp-report/iMX6_Platform_SDK/output/mx6sdl/lib/libsdk.a(ipu_di.o)
                                                  /home/leon/git/swp-report/iMX6_Platform_SDK/output/mx6sdl/lib/libsdk.a(ipu_common.o)
ipu_di_interface_set                              /home/leon/git/swp-report/iMX6_Platform_SDK/output/mx6sdl/lib/libsdk.a(ipu_di.o)
ipu_di_pointer_config                             /home/leon/git/swp-report/iMX6_Platform_SDK/output/mx6sdl/lib/libsdk.a(ipu_di.o)
ipu_di_screen_set                                 /home/leon/git/swp-report/iMX6_Platform_SDK/output/mx6sdl/lib/libsdk.a(ipu_di.o)
ipu_di_sync_config                                /home/leon/git/swp-report/iMX6_Platform_SDK/output/mx6sdl/lib/libsdk.a(ipu_di.o)
ipu_di_waveform_config                            /home/leon/git/swp-report/iMX6_Platform_SDK/output/mx6sdl/lib/libsdk.a(ipu_di.o)
ipu_disable_csi                                   /home/leon/git/swp-report/iMX6_Platform_SDK/output/mx6sdl/lib/libsdk.a(ipu_csi.o)
                                                  /home/leon/git/swp-report/iMX6_Platform_SDK/output/mx6sdl/lib/libsdk.a(ipu_common.o)
ipu_disable_display                               /home/leon/git/swp-report/iMX6_Platform_SDK/output/mx6sdl/lib/libsdk.a(ipu_common.o)
ipu_disable_smfc                                  /home/leon/git/swp-report/iMX6_Platform_SDK/output/mx6sdl/lib/libsdk.a(ipu_csi.o)
                                                  /home/leon/git/swp-report/iMX6_Platform_SDK/output/mx6sdl/lib/libsdk.a(ipu_common.o)
ipu_disp_bg_idmac_config                          /home/leon/git/swp-report/iMX6_Platform_SDK/output/mx6sdl/lib/libsdk.a(ipu_idmac.o)
                                                  /home/leon/git/swp-report/iMX6_Platform_SDK/output/mx6sdl/lib/libsdk.a(ipu_common.o)
ipu_disp_fg_idmac_config                          /home/leon/git/swp-report/iMX6_Platform_SDK/output/mx6sdl/lib/libsdk.a(ipu_idmac.o)
                                                  /home/leon/git/swp-report/iMX6_Platform_SDK/output/mx6sdl/lib/libsdk.a(ipu_common.o)
ipu_display_setup                                 /home/leon/git/swp-report/iMX6_Platform_SDK/output/mx6sdl/lib/libsdk.a(ipu_common.o)
                                                  /home/leon/git/swp-report/iMX6_Platform_SDK/output/mx6sdl/sdk_unit_test/sabre_ai_rev_b/libsdk_unit_test.a(ips_rotate.o)
                                                  /home/leon/git/swp-report/iMX6_Platform_SDK/output/mx6sdl/sdk_unit_test/sabre_ai_rev_b/libsdk_unit_test.a(ips_resize.o)
                                                  /home/leon/git/swp-report/iMX6_Platform_SDK/output/mx6sdl/sdk_unit_test/sabre_ai_rev_b/libsdk_unit_test.a(ips_csc.o)
                                                  /home/leon/git/swp-report/iMX6_Platform_SDK/output/mx6sdl/sdk_unit_test/sabre_ai_rev_b/libsdk_unit_test.a(ips_display.o)
ipu_dma_update_buffer                             /home/leon/git/swp-report/iMX6_Platform_SDK/output/mx6sdl/lib/libsdk.a(ipu_idmac.o)
ipu_dmfc_alloc                                    /home/leon/git/swp-report/iMX6_Platform_SDK/output/mx6sdl/lib/libsdk.a(ipu_dmfc.o)
                                                  /home/leon/git/swp-report/iMX6_Platform_SDK/output/mx6sdl/sdk_unit_test/sabre_ai_rev_b/libsdk_unit_test.a(ips_display.o)
ipu_dmfc_config                                   /home/leon/git/swp-report/iMX6_Platform_SDK/output/mx6sdl/lib/libsdk.a(ipu_dmfc.o)
                                                  /home/leon/git/swp-report/iMX6_Platform_SDK/output/mx6sdl/lib/libsdk.a(ipu_common.o)
ipu_dp_config                                     /home/leon/git/swp-report/iMX6_Platform_SDK/output/mx6sdl/lib/libsdk.a(ipu_dp.o)
                                                  /home/leon/git/swp-report/iMX6_Platform_SDK/output/mx6sdl/lib/libsdk.a(ipu_common.o)
                                                  /home/leon/git/swp-report/iMX6_Platform_SDK/output/mx6sdl/sdk_unit_test/sabre_ai_rev_b/libsdk_unit_test.a(ips_combiner.o)
ipu_dp_csc_config                                 /home/leon/git/swp-report/iMX6_Platform_SDK/output/mx6sdl/lib/libsdk.a(ipu_dp.o)
ipu_dp_fg_config                                  /home/leon/git/swp-report/iMX6_Platform_SDK/output/mx6sdl/lib/libsdk.a(ipu_dp.o)
ipu_dual_display_setup                            /home/leon/git/swp-report/iMX6_Platform_SDK/output/mx6sdl/lib/libsdk.a(ipu_common.o)
                                                  /home/leon/git/swp-report/iMX6_Platform_SDK/output/mx6sdl/sdk_unit_test/sabre_ai_rev_b/libsdk_unit_test.a(ips_combiner.o)
ipu_enable_display                                /home/leon/git/swp-report/iMX6_Platform_SDK/output/mx6sdl/lib/libsdk.a(ipu_common.o)
                                                  /home/leon/git/swp-report/iMX6_Platform_SDK/output/mx6sdl/sdk_unit_test/sabre_ai_rev_b/libsdk_unit_test.a(adv7180_capture.o)
                                                  /home/leon/git/swp-report/iMX6_Platform_SDK/output/mx6sdl/sdk_unit_test/sabre_ai_rev_b/libsdk_unit_test.a(mipi_csi2_test.o)
                                                  /home/leon/git/swp-report/iMX6_Platform_SDK/output/mx6sdl/sdk_unit_test/sabre_ai_rev_b/libsdk_unit_test.a(ips_rotate.o)
                                                  /home/leon/git/swp-report/iMX6_Platform_SDK/output/mx6sdl/sdk_unit_test/sabre_ai_rev_b/libsdk_unit_test.a(ips_resize.o)
                                                  /home/leon/git/swp-report/iMX6_Platform_SDK/output/mx6sdl/sdk_unit_test/sabre_ai_rev_b/libsdk_unit_test.a(ips_csc.o)
                                                  /home/leon/git/swp-report/iMX6_Platform_SDK/output/mx6sdl/sdk_unit_test/sabre_ai_rev_b/libsdk_unit_test.a(ips_combiner.o)
                                                  /home/leon/git/swp-report/iMX6_Platform_SDK/output/mx6sdl/sdk_unit_test/sabre_ai_rev_b/libsdk_unit_test.a(csi_test_mode.o)
                                                  /home/leon/git/swp-report/iMX6_Platform_SDK/output/mx6sdl/sdk_unit_test/sabre_ai_rev_b/libsdk_unit_test.a(ips_display.o)
ipu_general_idmac_config                          /home/leon/git/swp-report/iMX6_Platform_SDK/output/mx6sdl/lib/libsdk.a(ipu_idmac.o)
                                                  /home/leon/git/swp-report/iMX6_Platform_SDK/output/mx6sdl/lib/libsdk.a(ipu_common.o)
ipu_hsp_clk_config                                /home/leon/git/swp-report/iMX6_Platform_SDK/output/mx6sdl/lib/libsdk.a(ccm_pll.o)
ipu_ic_calc_resize_coeffs                         /home/leon/git/swp-report/iMX6_Platform_SDK/output/mx6sdl/lib/libsdk.a(ipu_ic.o)
ipu_ic_combine_config                             /home/leon/git/swp-report/iMX6_Platform_SDK/output/mx6sdl/lib/libsdk.a(ipu_ic.o)
ipu_ic_config_resize_rate                         /home/leon/git/swp-report/iMX6_Platform_SDK/output/mx6sdl/lib/libsdk.a(ipu_ic.o)
ipu_ic_csc_config                                 /home/leon/git/swp-report/iMX6_Platform_SDK/output/mx6sdl/lib/libsdk.a(ipu_ic.o)
                                                  /home/leon/git/swp-report/iMX6_Platform_SDK/output/mx6sdl/sdk_unit_test/sabre_ai_rev_b/libsdk_unit_test.a(ips_csc.o)
ipu_ic_deinterlace_config                         /home/leon/git/swp-report/iMX6_Platform_SDK/output/mx6sdl/lib/libsdk.a(ipu_ic.o)
                                                  /home/leon/git/swp-report/iMX6_Platform_SDK/output/mx6sdl/lib/libsdk.a(ipu_vdi.o)
ipu_ic_enable                                     /home/leon/git/swp-report/iMX6_Platform_SDK/output/mx6sdl/lib/libsdk.a(ipu_ic.o)
                                                  /home/leon/git/swp-report/iMX6_Platform_SDK/output/mx6sdl/lib/libsdk.a(ipu_vdi.o)
                                                  /home/leon/git/swp-report/iMX6_Platform_SDK/output/mx6sdl/sdk_unit_test/sabre_ai_rev_b/libsdk_unit_test.a(ips_rotate.o)
                                                  /home/leon/git/swp-report/iMX6_Platform_SDK/output/mx6sdl/sdk_unit_test/sabre_ai_rev_b/libsdk_unit_test.a(ips_resize.o)
                                                  /home/leon/git/swp-report/iMX6_Platform_SDK/output/mx6sdl/sdk_unit_test/sabre_ai_rev_b/libsdk_unit_test.a(ips_csc.o)
ipu_ic_resize_config                              /home/leon/git/swp-report/iMX6_Platform_SDK/output/mx6sdl/lib/libsdk.a(ipu_ic.o)
                                                  /home/leon/git/swp-report/iMX6_Platform_SDK/output/mx6sdl/sdk_unit_test/sabre_ai_rev_b/libsdk_unit_test.a(ips_resize.o)
                                                  /home/leon/git/swp-report/iMX6_Platform_SDK/output/mx6sdl/sdk_unit_test/sabre_ai_rev_b/libsdk_unit_test.a(ips_csc.o)
ipu_ic_rotation_config                            /home/leon/git/swp-report/iMX6_Platform_SDK/output/mx6sdl/lib/libsdk.a(ipu_ic.o)
                                                  /home/leon/git/swp-report/iMX6_Platform_SDK/output/mx6sdl/sdk_unit_test/sabre_ai_rev_b/libsdk_unit_test.a(ips_rotate.o)
                                                  /home/leon/git/swp-report/iMX6_Platform_SDK/output/mx6sdl/sdk_unit_test/sabre_ai_rev_b/libsdk_unit_test.a(ips_resize.o)
ipu_ic_task_enable                                /home/leon/git/swp-report/iMX6_Platform_SDK/output/mx6sdl/lib/libsdk.a(ipu_ic.o)
                                                  /home/leon/git/swp-report/iMX6_Platform_SDK/output/mx6sdl/lib/libsdk.a(ipu_vdi.o)
                                                  /home/leon/git/swp-report/iMX6_Platform_SDK/output/mx6sdl/sdk_unit_test/sabre_ai_rev_b/libsdk_unit_test.a(ips_rotate.o)
                                                  /home/leon/git/swp-report/iMX6_Platform_SDK/output/mx6sdl/sdk_unit_test/sabre_ai_rev_b/libsdk_unit_test.a(ips_resize.o)
                                                  /home/leon/git/swp-report/iMX6_Platform_SDK/output/mx6sdl/sdk_unit_test/sabre_ai_rev_b/libsdk_unit_test.a(ips_csc.o)
ipu_idma_pixel_format_config                      /home/leon/git/swp-report/iMX6_Platform_SDK/output/mx6sdl/lib/libsdk.a(ipu_idmac.o)
ipu_idmac_chan_cur_buff                           /home/leon/git/swp-report/iMX6_Platform_SDK/output/mx6sdl/lib/libsdk.a(ipu_idmac.o)
ipu_idmac_channel_busy                            /home/leon/git/swp-report/iMX6_Platform_SDK/output/mx6sdl/lib/libsdk.a(ipu_idmac.o)
                                                  /home/leon/git/swp-report/iMX6_Platform_SDK/output/mx6sdl/lib/libsdk.a(ipu_vdi.o)
                                                  /home/leon/git/swp-report/iMX6_Platform_SDK/output/mx6sdl/sdk_unit_test/sabre_ai_rev_b/libsdk_unit_test.a(ips_rotate.o)
                                                  /home/leon/git/swp-report/iMX6_Platform_SDK/output/mx6sdl/sdk_unit_test/sabre_ai_rev_b/libsdk_unit_test.a(ips_resize.o)
                                                  /home/leon/git/swp-report/iMX6_Platform_SDK/output/mx6sdl/sdk_unit_test/sabre_ai_rev_b/libsdk_unit_test.a(ips_csc.o)
ipu_idmac_channel_enable                          /home/leon/git/swp-report/iMX6_Platform_SDK/output/mx6sdl/lib/libsdk.a(ipu_idmac.o)
                                                  /home/leon/git/swp-report/iMX6_Platform_SDK/output/mx6sdl/lib/libsdk.a(ipu_common.o)
                                                  /home/leon/git/swp-report/iMX6_Platform_SDK/output/mx6sdl/sdk_unit_test/sabre_ai_rev_b/libsdk_unit_test.a(ips_csc.o)
ipu_idmac_channel_mode_sel                        /home/leon/git/swp-report/iMX6_Platform_SDK/output/mx6sdl/lib/libsdk.a(ipu_idmac.o)
ipu_mipi_csi2_setup                               /home/leon/git/swp-report/iMX6_Platform_SDK/output/mx6sdl/lib/libsdk.a(ipu_common.o)
                                                  /home/leon/git/swp-report/iMX6_Platform_SDK/output/mx6sdl/sdk_unit_test/sabre_ai_rev_b/libsdk_unit_test.a(mipi_csi2_test.o)
ipu_read                                          /home/leon/git/swp-report/iMX6_Platform_SDK/output/mx6sdl/lib/libsdk.a(ipu_common.o)
                                                  /home/leon/git/swp-report/iMX6_Platform_SDK/output/mx6sdl/lib/libsdk.a(ipu_vdi.o)
ipu_resize_idmac_config                           /home/leon/git/swp-report/iMX6_Platform_SDK/output/mx6sdl/lib/libsdk.a(ipu_idmac.o)
                                                  /home/leon/git/swp-report/iMX6_Platform_SDK/output/mx6sdl/sdk_unit_test/sabre_ai_rev_b/libsdk_unit_test.a(ips_resize.o)
                                                  /home/leon/git/swp-report/iMX6_Platform_SDK/output/mx6sdl/sdk_unit_test/sabre_ai_rev_b/libsdk_unit_test.a(ips_csc.o)
ipu_rotate_idmac_config                           /home/leon/git/swp-report/iMX6_Platform_SDK/output/mx6sdl/lib/libsdk.a(ipu_idmac.o)
                                                  /home/leon/git/swp-report/iMX6_Platform_SDK/output/mx6sdl/sdk_unit_test/sabre_ai_rev_b/libsdk_unit_test.a(ips_rotate.o)
                                                  /home/leon/git/swp-report/iMX6_Platform_SDK/output/mx6sdl/sdk_unit_test/sabre_ai_rev_b/libsdk_unit_test.a(ips_resize.o)
ipu_smfc_fifo_allocate                            /home/leon/git/swp-report/iMX6_Platform_SDK/output/mx6sdl/lib/libsdk.a(ipu_csi.o)
                                                  /home/leon/git/swp-report/iMX6_Platform_SDK/output/mx6sdl/lib/libsdk.a(ipu_common.o)
ipu_sw_reset                                      /home/leon/git/swp-report/iMX6_Platform_SDK/output/mx6sdl/lib/libsdk.a(ipu_common.o)
                                                  /home/leon/git/swp-report/iMX6_Platform_SDK/output/mx6sdl/sdk_unit_test/sabre_ai_rev_b/libsdk_unit_test.a(adv7180_capture.o)
                                                  /home/leon/git/swp-report/iMX6_Platform_SDK/output/mx6sdl/sdk_unit_test/sabre_ai_rev_b/libsdk_unit_test.a(mipi_csi2_test.o)
                                                  /home/leon/git/swp-report/iMX6_Platform_SDK/output/mx6sdl/sdk_unit_test/sabre_ai_rev_b/libsdk_unit_test.a(ips_resize.o)
                                                  /home/leon/git/swp-report/iMX6_Platform_SDK/output/mx6sdl/sdk_unit_test/sabre_ai_rev_b/libsdk_unit_test.a(ips_csc.o)
                                                  /home/leon/git/swp-report/iMX6_Platform_SDK/output/mx6sdl/sdk_unit_test/sabre_ai_rev_b/libsdk_unit_test.a(ips_combiner.o)
                                                  /home/leon/git/swp-report/iMX6_Platform_SDK/output/mx6sdl/sdk_unit_test/sabre_ai_rev_b/libsdk_unit_test.a(csi_test_mode.o)
                                                  /home/leon/git/swp-report/iMX6_Platform_SDK/output/mx6sdl/sdk_unit_test/sabre_ai_rev_b/libsdk_unit_test.a(ips_display.o)
ipu_test                                          /home/leon/git/swp-report/iMX6_Platform_SDK/output/mx6sdl/sdk_unit_test/sabre_ai_rev_b/libsdk_unit_test.a(ips_test.o)
                                                  /home/leon/git/swp-report/iMX6_Platform_SDK/output/mx6sdl/sdk_unit_test/sabre_ai_rev_b/obj/apps/sdk_unit_test/src/all_test.o
ipu_vdi_init                                      /home/leon/git/swp-report/iMX6_Platform_SDK/output/mx6sdl/lib/libsdk.a(ipu_vdi.o)
ipu_vdi_set_motion                                /home/leon/git/swp-report/iMX6_Platform_SDK/output/mx6sdl/lib/libsdk.a(ipu_vdi.o)
ipu_vdi_set_top_field_man                         /home/leon/git/swp-report/iMX6_Platform_SDK/output/mx6sdl/lib/libsdk.a(ipu_vdi.o)
ipu_vdi_uninit                                    /home/leon/git/swp-report/iMX6_Platform_SDK/output/mx6sdl/lib/libsdk.a(ipu_vdi.o)
ipu_write                                         /home/leon/git/swp-report/iMX6_Platform_SDK/output/mx6sdl/lib/libsdk.a(ipu_common.o)
                                                  /home/leon/git/swp-report/iMX6_Platform_SDK/output/mx6sdl/lib/libsdk.a(ipu_vdi.o)
ipu_write_field                                   /home/leon/git/swp-report/iMX6_Platform_SDK/output/mx6sdl/lib/libsdk.a(ipu_common.o)
                                                  /home/leon/git/swp-report/iMX6_Platform_SDK/output/mx6sdl/lib/libsdk.a(ipu_vdi.o)
                                                  /home/leon/git/swp-report/iMX6_Platform_SDK/output/mx6sdl/lib/libsdk.a(ipu_idmac.o)
                                                  /home/leon/git/swp-report/iMX6_Platform_SDK/output/mx6sdl/lib/libsdk.a(ipu_ic.o)
                                                  /home/leon/git/swp-report/iMX6_Platform_SDK/output/mx6sdl/lib/libsdk.a(ipu_dp.o)
                                                  /home/leon/git/swp-report/iMX6_Platform_SDK/output/mx6sdl/lib/libsdk.a(ipu_dmfc.o)
                                                  /home/leon/git/swp-report/iMX6_Platform_SDK/output/mx6sdl/lib/libsdk.a(ipu_di.o)
                                                  /home/leon/git/swp-report/iMX6_Platform_SDK/output/mx6sdl/lib/libsdk.a(ipu_dc.o)
                                                  /home/leon/git/swp-report/iMX6_Platform_SDK/output/mx6sdl/lib/libsdk.a(ipu_csi.o)
isColorSpaceConversion                            /home/leon/git/swp-report/iMX6_Platform_SDK/output/mx6sdl/lib/libsdk.a(hdmi_common.o)
                                                  /home/leon/git/swp-report/iMX6_Platform_SDK/output/mx6sdl/lib/libsdk.a(hdmi_tx.o)
isColorSpaceDecimation                            /home/leon/git/swp-report/iMX6_Platform_SDK/output/mx6sdl/lib/libsdk.a(hdmi_common.o)
                                                  /home/leon/git/swp-report/iMX6_Platform_SDK/output/mx6sdl/lib/libsdk.a(hdmi_tx.o)
isColorSpaceInterpolation                         /home/leon/git/swp-report/iMX6_Platform_SDK/output/mx6sdl/lib/libsdk.a(hdmi_common.o)
                                                  /home/leon/git/swp-report/iMX6_Platform_SDK/output/mx6sdl/lib/libsdk.a(hdmi_tx.o)
isPixelRepetition                                 /home/leon/git/swp-report/iMX6_Platform_SDK/output/mx6sdl/lib/libsdk.a(hdmi_common.o)
isTestDone                                        /home/leon/git/swp-report/iMX6_Platform_SDK/output/mx6sdl/sdk_unit_test/sabre_ai_rev_b/libsdk_unit_test.a(multicore_test.o)
is_color_supported                                /home/leon/git/swp-report/iMX6_Platform_SDK/output/mx6sdl/lib/libsdk.a(text_color.o)
is_input_char                                     /home/leon/git/swp-report/iMX6_Platform_SDK/output/mx6sdl/lib/libsdk.a(system_util.o)
                                                  /home/leon/git/swp-report/iMX6_Platform_SDK/output/mx6sdl/sdk_unit_test/sabre_ai_rev_b/libsdk_unit_test.a(mipi_csi2_test.o)
                                                  /home/leon/git/swp-report/iMX6_Platform_SDK/output/mx6sdl/sdk_unit_test/sabre_ai_rev_b/libsdk_unit_test.a(spi_test.o)
jump_to_sdp                                       /home/leon/git/swp-report/iMX6_Platform_SDK/output/mx6sdl/lib/libsdk.a(system_util.o)
k_gpio_mux_registers                              /home/leon/git/swp-report/iMX6_Platform_SDK/output/mx6sdl/lib/libsdk.a(imx6sdl_gpio_map.o)
                                                  /home/leon/git/swp-report/iMX6_Platform_SDK/output/mx6sdl/lib/libsdk.a(gpio.o)
k_mainMenu                                        /home/leon/git/swp-report/iMX6_Platform_SDK/output/mx6sdl/sdk_unit_test/sabre_ai_rev_b/obj/apps/sdk_unit_test/src/all_test.o
k_menuItems                                       /home/leon/git/swp-report/iMX6_Platform_SDK/output/mx6sdl/sdk_unit_test/sabre_ai_rev_b/obj/apps/sdk_unit_test/src/all_test.o
k_sdk_copyright                                   /home/leon/git/swp-report/iMX6_Platform_SDK/output/mx6sdl/lib/libsdk.a(sdk_version.o)
                                                  /home/leon/git/swp-report/iMX6_Platform_SDK/output/mx6sdl/sdk_unit_test/sabre_ai_rev_b/obj/apps/common/print_version.o
k_sdk_version                                     /home/leon/git/swp-report/iMX6_Platform_SDK/output/mx6sdl/lib/libsdk.a(sdk_version.o)
                                                  /home/leon/git/swp-report/iMX6_Platform_SDK/output/mx6sdl/sdk_unit_test/sabre_ai_rev_b/obj/apps/common/print_version.o
kpp_iomux_config                                  /home/leon/git/swp-report/iMX6_Platform_SDK/output/mx6sdl/lib/libboard_sabre_ai_rev_b.a(iomux_config.o)
lcd_iomux_config                                  /home/leon/git/swp-report/iMX6_Platform_SDK/output/mx6sdl/lib/libboard_sabre_ai_rev_b.a(iomux_config.o)
ldb_clock_config                                  /home/leon/git/swp-report/iMX6_Platform_SDK/output/mx6sdl/lib/libboard_sabre_ai_rev_b.a(board_display.o)
                                                  /home/leon/git/swp-report/iMX6_Platform_SDK/output/mx6sdl/lib/libsdk.a(ips_disp_panel.o)
ldb_config                                        /home/leon/git/swp-report/iMX6_Platform_SDK/output/mx6sdl/lib/libsdk.a(ldb.o)
                                                  /home/leon/git/swp-report/iMX6_Platform_SDK/output/mx6sdl/lib/libsdk.a(ips_disp_panel.o)
ldb_iomux_config                                  /home/leon/git/swp-report/iMX6_Platform_SDK/output/mx6sdl/lib/libboard_sabre_ai_rev_b.a(iomux_config.o)
                                                  /home/leon/git/swp-report/iMX6_Platform_SDK/output/mx6sdl/lib/libsdk.a(ips_disp_panel.o)
ldb_set_vs_polarity                               /home/leon/git/swp-report/iMX6_Platform_SDK/output/mx6sdl/lib/libsdk.a(ldb.o)
list_panel                                        /home/leon/git/swp-report/iMX6_Platform_SDK/output/mx6sdl/lib/libsdk.a(ips_disp_panel.o)
load_centralized_image                            /home/leon/git/swp-report/iMX6_Platform_SDK/output/mx6sdl/sdk_unit_test/sabre_ai_rev_b/libsdk_unit_test.a(ipu_image.o)
                                                  /home/leon/git/swp-report/iMX6_Platform_SDK/output/mx6sdl/sdk_unit_test/sabre_ai_rev_b/libsdk_unit_test.a(ips_rotate.o)
                                                  /home/leon/git/swp-report/iMX6_Platform_SDK/output/mx6sdl/sdk_unit_test/sabre_ai_rev_b/libsdk_unit_test.a(ips_combiner.o)
                                                  /home/leon/git/swp-report/iMX6_Platform_SDK/output/mx6sdl/sdk_unit_test/sabre_ai_rev_b/libsdk_unit_test.a(ips_display.o)
load_foreground_image                             /home/leon/git/swp-report/iMX6_Platform_SDK/output/mx6sdl/sdk_unit_test/sabre_ai_rev_b/libsdk_unit_test.a(ipu_image.o)
                                                  /home/leon/git/swp-report/iMX6_Platform_SDK/output/mx6sdl/sdk_unit_test/sabre_ai_rev_b/libsdk_unit_test.a(ips_combiner.o)
load_horiz_image                                  /home/leon/git/swp-report/iMX6_Platform_SDK/output/mx6sdl/sdk_unit_test/sabre_ai_rev_b/libsdk_unit_test.a(ipu_image.o)
                                                  /home/leon/git/swp-report/iMX6_Platform_SDK/output/mx6sdl/sdk_unit_test/sabre_ai_rev_b/libsdk_unit_test.a(ips_csc.o)
load_vert_image                                   /home/leon/git/swp-report/iMX6_Platform_SDK/output/mx6sdl/sdk_unit_test/sabre_ai_rev_b/libsdk_unit_test.a(ipu_image.o)
localeconv                                        /home/leon/riotboard/arm-2012.09/bin/../arm-none-eabi/lib//libc.a(lib_a-locale.o)
lvds_power_on                                     /home/leon/git/swp-report/iMX6_Platform_SDK/output/mx6sdl/lib/libboard_sabre_ai_rev_b.a(board_display.o)
                                                  /home/leon/git/swp-report/iMX6_Platform_SDK/output/mx6sdl/lib/libsdk.a(ips_disp_panel.o)
main                                              /home/leon/git/swp-report/iMX6_Platform_SDK/output/mx6sdl/sdk_unit_test/sabre_ai_rev_b/obj/apps/sdk_unit_test/src/unit_test_main.o
                                                  /home/leon/git/swp-report/iMX6_Platform_SDK/output/mx6sdl/lib/libsdk.a(startup.o)
malloc                                            /home/leon/riotboard/arm-2012.09/bin/../arm-none-eabi/lib//libc.a(lib_a-malloc.o)
                                                  /home/leon/riotboard/arm-2012.09/bin/../arm-none-eabi/lib//libstdc++.a(eh_alloc.o)
                                                  /home/leon/git/swp-report/iMX6_Platform_SDK/output/mx6sdl/lib/libsdk.a(usbh_drv.o)
                                                  /home/leon/git/swp-report/iMX6_Platform_SDK/output/mx6sdl/lib/libsdk.a(usbd_drv.o)
                                                  /home/leon/git/swp-report/iMX6_Platform_SDK/output/mx6sdl/sdk_unit_test/sabre_ai_rev_b/libsdk_unit_test.a(usb0_host_test.o)
                                                  /home/leon/git/swp-report/iMX6_Platform_SDK/output/mx6sdl/sdk_unit_test/sabre_ai_rev_b/libsdk_unit_test.a(usb0_device_mouse_test.o)
                                                  /home/leon/git/swp-report/iMX6_Platform_SDK/output/mx6sdl/lib/libsdk.a(system_util.o)
max7310_i2c_req_array                             /home/leon/git/swp-report/iMX6_Platform_SDK/output/mx6sdl/lib/libboard_sabre_ai_rev_b.a(board_io_expanders.o)
                                                  /home/leon/git/swp-report/iMX6_Platform_SDK/output/mx6sdl/lib/libsdk.a(max7310.o)
max7310_init                                      /home/leon/git/swp-report/iMX6_Platform_SDK/output/mx6sdl/lib/libsdk.a(max7310.o)
                                                  /home/leon/git/swp-report/iMX6_Platform_SDK/output/mx6sdl/lib/libboard_sabre_ai_rev_b.a(board_io_expanders.o)
max7310_reg_read                                  /home/leon/git/swp-report/iMX6_Platform_SDK/output/mx6sdl/lib/libsdk.a(max7310.o)
max7310_reg_write                                 /home/leon/git/swp-report/iMX6_Platform_SDK/output/mx6sdl/lib/libsdk.a(max7310.o)
max7310_set_gpio_output                           /home/leon/git/swp-report/iMX6_Platform_SDK/output/mx6sdl/lib/libsdk.a(max7310.o)
                                                  /home/leon/git/swp-report/iMX6_Platform_SDK/output/mx6sdl/lib/libboard_sabre_ai_rev_b.a(board_usb.o)
                                                  /home/leon/git/swp-report/iMX6_Platform_SDK/output/mx6sdl/lib/libboard_sabre_ai_rev_b.a(board_mipi.o)
                                                  /home/leon/git/swp-report/iMX6_Platform_SDK/output/mx6sdl/lib/libboard_sabre_ai_rev_b.a(board_display.o)
                                                  /home/leon/git/swp-report/iMX6_Platform_SDK/output/mx6sdl/lib/libboard_sabre_ai_rev_b.a(board_can.o)
                                                  /home/leon/git/swp-report/iMX6_Platform_SDK/output/mx6sdl/lib/libsdk.a(adv7180.o)
mem_2_mem_test                                    /home/leon/git/swp-report/iMX6_Platform_SDK/output/mx6sdl/sdk_unit_test/sabre_ai_rev_b/libsdk_unit_test.a(mem_2_mem.o)
                                                  /home/leon/git/swp-report/iMX6_Platform_SDK/output/mx6sdl/sdk_unit_test/sabre_ai_rev_b/libsdk_unit_test.a(sdma_test.o)
memchr                                            /home/leon/riotboard/arm-2012.09/bin/../arm-none-eabi/lib//libc.a(lib_a-memchr.o)
                                                  /home/leon/riotboard/arm-2012.09/bin/../arm-none-eabi/lib//libc.a(lib_a-svfiprintf.o)
                                                  /home/leon/riotboard/arm-2012.09/bin/../arm-none-eabi/lib//libc.a(lib_a-vfprintf.o)
                                                  /home/leon/riotboard/arm-2012.09/bin/../arm-none-eabi/lib//libc.a(lib_a-vfiprintf.o)
                                                  /home/leon/riotboard/arm-2012.09/bin/../arm-none-eabi/lib//libc.a(lib_a-svfprintf.o)
                                                  /home/leon/riotboard/arm-2012.09/bin/../arm-none-eabi/lib//libc.a(lib_a-fvwrite.o)
memcmp                                            /home/leon/riotboard/arm-2012.09/bin/../arm-none-eabi/lib//libc.a(lib_a-memcmp.o)
                                                  /home/leon/riotboard/arm-2012.09/bin/../arm-none-eabi/lib//libstdc++.a(cp-demangle.o)
memcpy                                            /home/leon/riotboard/arm-2012.09/bin/../arm-none-eabi/lib//libc.a(lib_a-memcpy.o)
                                                  /home/leon/riotboard/arm-2012.09/bin/../lib/gcc/arm-none-eabi/4.7.2//libgcc.a(unwind-arm.o)
                                                  /home/leon/riotboard/arm-2012.09/bin/../arm-none-eabi/lib//libstdc++.a(cp-demangle.o)
                                                  /home/leon/git/swp-report/iMX6_Platform_SDK/output/mx6sdl/lib/libsdk.a(usbd_drv.o)
                                                  /home/leon/git/swp-report/iMX6_Platform_SDK/output/mx6sdl/lib/libsdk.a(ipu_common.o)
                                                  /home/leon/riotboard/arm-2012.09/bin/../arm-none-eabi/lib//libc.a(lib_a-svfiprintf.o)
                                                  /home/leon/riotboard/arm-2012.09/bin/../arm-none-eabi/lib//libc.a(lib_a-mprec.o)
                                                  /home/leon/riotboard/arm-2012.09/bin/../arm-none-eabi/lib//libc.a(lib_a-dtoa.o)
                                                  /home/leon/riotboard/arm-2012.09/bin/../arm-none-eabi/lib//libc.a(lib_a-fvwrite.o)
                                                  /home/leon/git/swp-report/iMX6_Platform_SDK/output/mx6sdl/sdk_unit_test/sabre_ai_rev_b/libsdk_unit_test.a(usb0_device_mouse_test.o)
                                                  /home/leon/git/swp-report/iMX6_Platform_SDK/output/mx6sdl/sdk_unit_test/sabre_ai_rev_b/libsdk_unit_test.a(ips_rotate.o)
                                                  /home/leon/git/swp-report/iMX6_Platform_SDK/output/mx6sdl/sdk_unit_test/sabre_ai_rev_b/libsdk_unit_test.a(ips_resize.o)
                                                  /home/leon/git/swp-report/iMX6_Platform_SDK/output/mx6sdl/sdk_unit_test/sabre_ai_rev_b/libsdk_unit_test.a(ips_csc.o)
                                                  /home/leon/git/swp-report/iMX6_Platform_SDK/output/mx6sdl/sdk_unit_test/sabre_ai_rev_b/libsdk_unit_test.a(pwm_output.o)
                                                  /home/leon/git/swp-report/iMX6_Platform_SDK/output/mx6sdl/sdk_unit_test/sabre_ai_rev_b/libsdk_unit_test.a(ipu_image.o)
                                                  /home/leon/git/swp-report/iMX6_Platform_SDK/output/mx6sdl/lib/libsdk.a(menu.o)
memcpy_perf_record                                /home/leon/git/swp-report/iMX6_Platform_SDK/output/mx6sdl/sdk_unit_test/sabre_ai_rev_b/libsdk_unit_test.a(cpu_wp_test.o)
memmove                                           /home/leon/riotboard/arm-2012.09/bin/../arm-none-eabi/lib//libc.a(lib_a-memmove.o)
                                                  /home/leon/riotboard/arm-2012.09/bin/../arm-none-eabi/lib//libc.a(lib_a-svfiprintf.o)
                                                  /home/leon/riotboard/arm-2012.09/bin/../arm-none-eabi/lib//libc.a(lib_a-reallocr.o)
                                                  /home/leon/riotboard/arm-2012.09/bin/../arm-none-eabi/lib//libc.a(lib_a-fvwrite.o)
memset                                            /home/leon/riotboard/arm-2012.09/bin/../arm-none-eabi/lib//libc.a(lib_a-memset.o)
                                                  /home/leon/riotboard/arm-2012.09/bin/../arm-none-eabi/lib//libstdc++.a(eh_alloc.o)
                                                  /home/leon/git/swp-report/iMX6_Platform_SDK/output/mx6sdl/lib/libsdk.a(pmu_driver.o)
                                                  /home/leon/git/swp-report/iMX6_Platform_SDK/output/mx6sdl/lib/libsdk.a(ipu_vdi.o)
                                                  /home/leon/git/swp-report/iMX6_Platform_SDK/output/mx6sdl/lib/libsdk.a(ipu_idmac.o)
                                                  /home/leon/git/swp-report/iMX6_Platform_SDK/output/mx6sdl/lib/libsdk.a(ipu_di.o)
                                                  /home/leon/git/swp-report/iMX6_Platform_SDK/output/mx6sdl/lib/libsdk.a(ipu_common.o)
                                                  /home/leon/git/swp-report/iMX6_Platform_SDK/output/mx6sdl/lib/libsdk.a(mma8451.o)
                                                  /home/leon/riotboard/arm-2012.09/bin/../arm-none-eabi/lib//libc.a(lib_a-callocr.o)
                                                  /home/leon/riotboard/arm-2012.09/bin/../arm-none-eabi/lib//libc.a(lib_a-findfp.o)
                                                  /home/leon/git/swp-report/iMX6_Platform_SDK/output/mx6sdl/sdk_unit_test/sabre_ai_rev_b/libsdk_unit_test.a(spi_nor_numonyx.o)
                                                  /home/leon/git/swp-report/iMX6_Platform_SDK/output/mx6sdl/sdk_unit_test/sabre_ai_rev_b/libsdk_unit_test.a(ips_rotate.o)
                                                  /home/leon/git/swp-report/iMX6_Platform_SDK/output/mx6sdl/sdk_unit_test/sabre_ai_rev_b/libsdk_unit_test.a(ips_resize.o)
                                                  /home/leon/git/swp-report/iMX6_Platform_SDK/output/mx6sdl/sdk_unit_test/sabre_ai_rev_b/libsdk_unit_test.a(ips_csc.o)
                                                  /home/leon/git/swp-report/iMX6_Platform_SDK/output/mx6sdl/sdk_unit_test/sabre_ai_rev_b/libsdk_unit_test.a(mem_2_mem.o)
                                                  /home/leon/git/swp-report/iMX6_Platform_SDK/output/mx6sdl/sdk_unit_test/sabre_ai_rev_b/libsdk_unit_test.a(accelerometer_test.o)
                                                  /home/leon/git/swp-report/iMX6_Platform_SDK/output/mx6sdl/sdk_unit_test/sabre_ai_rev_b/libsdk_unit_test.a(spi_test.o)
                                                  /home/leon/git/swp-report/iMX6_Platform_SDK/output/mx6sdl/sdk_unit_test/sabre_ai_rev_b/libsdk_unit_test.a(ipu_image.o)
                                                  /home/leon/git/swp-report/iMX6_Platform_SDK/output/mx6sdl/sdk_unit_test/sabre_ai_rev_b/libsdk_unit_test.a(ips_display.o)
                                                  /home/leon/git/swp-report/iMX6_Platform_SDK/output/mx6sdl/sdk_unit_test/sabre_ai_rev_b/libsdk_unit_test.a(hdmi_test.o)
                                                  /home/leon/git/swp-report/iMX6_Platform_SDK/output/mx6sdl/sdk_unit_test/sabre_ai_rev_b/libsdk_unit_test.a(usdhc_test.o)
                                                  /home/leon/git/swp-report/iMX6_Platform_SDK/output/mx6sdl/sdk_unit_test/sabre_ai_rev_b/libsdk_unit_test.a(uart_loopback.o)
                                                  /home/leon/git/swp-report/iMX6_Platform_SDK/output/mx6sdl/sdk_unit_test/sabre_ai_rev_b/libsdk_unit_test.a(spi_lpb.o)
                                                  /home/leon/git/swp-report/iMX6_Platform_SDK/output/mx6sdl/sdk_unit_test/sabre_ai_rev_b/libsdk_unit_test.a(imx6_i2c_device.o)
                                                  /home/leon/git/swp-report/iMX6_Platform_SDK/output/mx6sdl/lib/libsdk.a(board_id.o)
                                                  /home/leon/git/swp-report/iMX6_Platform_SDK/output/mx6sdl/lib/libsdk.a(menu.o)
                                                  /home/leon/git/swp-report/iMX6_Platform_SDK/output/mx6sdl/sdk_unit_test/sabre_ai_rev_b/obj/apps/common/print_version.o
menu_append_menuitems                             /home/leon/git/swp-report/iMX6_Platform_SDK/output/mx6sdl/lib/libsdk.a(menu.o)
menu_get_indent                                   /home/leon/git/swp-report/iMX6_Platform_SDK/output/mx6sdl/lib/libsdk.a(menu.o)
                                                  /home/leon/git/swp-report/iMX6_Platform_SDK/output/mx6sdl/lib/libsdk.a(usdhc.o)
                                                  /home/leon/git/swp-report/iMX6_Platform_SDK/output/mx6sdl/sdk_unit_test/sabre_ai_rev_b/libsdk_unit_test.a(usdhc_test.o)
                                                  /home/leon/git/swp-report/iMX6_Platform_SDK/output/mx6sdl/sdk_unit_test/sabre_ai_rev_b/libsdk_unit_test.a(uart_test.o)
menu_present                                      /home/leon/git/swp-report/iMX6_Platform_SDK/output/mx6sdl/lib/libsdk.a(menu.o)
                                                  /home/leon/git/swp-report/iMX6_Platform_SDK/output/mx6sdl/sdk_unit_test/sabre_ai_rev_b/obj/apps/sdk_unit_test/src/all_test.o
menu_print_menuitem                               /home/leon/git/swp-report/iMX6_Platform_SDK/output/mx6sdl/lib/libsdk.a(menu.o)
menuitem_cmd_exitmenu                             /home/leon/git/swp-report/iMX6_Platform_SDK/output/mx6sdl/lib/libsdk.a(menu.o)
                                                  /home/leon/git/swp-report/iMX6_Platform_SDK/output/mx6sdl/sdk_unit_test/sabre_ai_rev_b/obj/apps/sdk_unit_test/src/all_test.o
menuitem_cmd_showmenu                             /home/leon/git/swp-report/iMX6_Platform_SDK/output/mx6sdl/lib/libsdk.a(menu.o)
microseconds_test                                 /home/leon/git/swp-report/iMX6_Platform_SDK/output/mx6sdl/sdk_unit_test/sabre_ai_rev_b/libsdk_unit_test.a(timer_test.o)
                                                  /home/leon/git/swp-report/iMX6_Platform_SDK/output/mx6sdl/sdk_unit_test/sabre_ai_rev_b/obj/apps/sdk_unit_test/src/all_test.o
mipi_backlight_en                                 /home/leon/git/swp-report/iMX6_Platform_SDK/output/mx6sdl/lib/libboard_sabre_ai_rev_b.a(board_mipi.o)
                                                  /home/leon/git/swp-report/iMX6_Platform_SDK/output/mx6sdl/lib/libsdk.a(ips_disp_panel.o)
mipi_cam_modes                                    /home/leon/git/swp-report/iMX6_Platform_SDK/output/mx6sdl/lib/libsdk.a(ov5640_mipi_fm.o)
                                                  /home/leon/git/swp-report/iMX6_Platform_SDK/output/mx6sdl/lib/libsdk.a(mipi_csi2_common.o)
mipi_cam_power_on                                 /home/leon/git/swp-report/iMX6_Platform_SDK/output/mx6sdl/lib/libboard_sabre_ai_rev_b.a(board_mipi.o)
                                                  /home/leon/git/swp-report/iMX6_Platform_SDK/output/mx6sdl/lib/libsdk.a(mipi_csi2_common.o)
mipi_clock_set                                    /home/leon/git/swp-report/iMX6_Platform_SDK/output/mx6sdl/lib/libboard_sabre_ai_rev_b.a(board_mipi.o)
                                                  /home/leon/git/swp-report/iMX6_Platform_SDK/output/mx6sdl/lib/libsdk.a(ips_disp_panel.o)
mipi_csi2_clock_set                               /home/leon/git/swp-report/iMX6_Platform_SDK/output/mx6sdl/lib/libboard_sabre_ai_rev_b.a(board_mipi.o)
                                                  /home/leon/git/swp-report/iMX6_Platform_SDK/output/mx6sdl/lib/libsdk.a(mipi_csi2_common.o)
mipi_csi2_config                                  /home/leon/git/swp-report/iMX6_Platform_SDK/output/mx6sdl/lib/libsdk.a(mipi_csi2_common.o)
                                                  /home/leon/git/swp-report/iMX6_Platform_SDK/output/mx6sdl/sdk_unit_test/sabre_ai_rev_b/libsdk_unit_test.a(mipi_csi2_test.o)
mipi_csi2_test                                    /home/leon/git/swp-report/iMX6_Platform_SDK/output/mx6sdl/sdk_unit_test/sabre_ai_rev_b/libsdk_unit_test.a(mipi_csi2_test.o)
                                                  /home/leon/git/swp-report/iMX6_Platform_SDK/output/mx6sdl/sdk_unit_test/sabre_ai_rev_b/libsdk_unit_test.a(mipi_test.o)
mipi_csi_iomux_config                             /home/leon/git/swp-report/iMX6_Platform_SDK/output/mx6sdl/lib/libboard_sabre_ai_rev_b.a(iomux_config.o)
mipi_display_reset                                /home/leon/git/swp-report/iMX6_Platform_SDK/output/mx6sdl/lib/libboard_sabre_ai_rev_b.a(board_mipi.o)
                                                  /home/leon/git/swp-report/iMX6_Platform_SDK/output/mx6sdl/lib/libsdk.a(ips_disp_panel.o)
mipi_dsi_init                                     /home/leon/git/swp-report/iMX6_Platform_SDK/output/mx6sdl/lib/libsdk.a(mipi_dsi_common.o)
                                                  /home/leon/git/swp-report/iMX6_Platform_SDK/output/mx6sdl/sdk_unit_test/sabre_ai_rev_b/libsdk_unit_test.a(mipi_dsi_test.o)
mipi_dsi_iomux_config                             /home/leon/git/swp-report/iMX6_Platform_SDK/output/mx6sdl/lib/libboard_sabre_ai_rev_b.a(iomux_config.o)
mipi_dsi_test                                     /home/leon/git/swp-report/iMX6_Platform_SDK/output/mx6sdl/sdk_unit_test/sabre_ai_rev_b/libsdk_unit_test.a(mipi_dsi_test.o)
                                                  /home/leon/git/swp-report/iMX6_Platform_SDK/output/mx6sdl/sdk_unit_test/sabre_ai_rev_b/libsdk_unit_test.a(mipi_test.o)
mipi_hsi_iomux_config                             /home/leon/git/swp-report/iMX6_Platform_SDK/output/mx6sdl/lib/libboard_sabre_ai_rev_b.a(iomux_config.o)
mipi_test                                         /home/leon/git/swp-report/iMX6_Platform_SDK/output/mx6sdl/sdk_unit_test/sabre_ai_rev_b/libsdk_unit_test.a(mipi_test.o)
                                                  /home/leon/git/swp-report/iMX6_Platform_SDK/output/mx6sdl/sdk_unit_test/sabre_ai_rev_b/obj/apps/sdk_unit_test/src/all_test.o
mlb_iomux_config                                  /home/leon/git/swp-report/iMX6_Platform_SDK/output/mx6sdl/lib/libboard_sabre_ai_rev_b.a(mlb_iomux_config.o)
                                                  /home/leon/git/swp-report/iMX6_Platform_SDK/output/mx6sdl/lib/libboard_sabre_ai_rev_b.a(iomux_config.o)
mma8451_get_acceleration                          /home/leon/git/swp-report/iMX6_Platform_SDK/output/mx6sdl/lib/libsdk.a(mma8451.o)
                                                  /home/leon/git/swp-report/iMX6_Platform_SDK/output/mx6sdl/sdk_unit_test/sabre_ai_rev_b/libsdk_unit_test.a(accelerometer_test.o)
mma8451_init                                      /home/leon/git/swp-report/iMX6_Platform_SDK/output/mx6sdl/lib/libsdk.a(mma8451.o)
                                                  /home/leon/git/swp-report/iMX6_Platform_SDK/output/mx6sdl/sdk_unit_test/sabre_ai_rev_b/libsdk_unit_test.a(accelerometer_test.o)
mma8451_read_register                             /home/leon/git/swp-report/iMX6_Platform_SDK/output/mx6sdl/lib/libsdk.a(mma8451.o)
mma8451_write_register                            /home/leon/git/swp-report/iMX6_Platform_SDK/output/mx6sdl/lib/libsdk.a(mma8451.o)
mmc_init                                          /home/leon/git/swp-report/iMX6_Platform_SDK/output/mx6sdl/lib/libsdk.a(usdhc_mmc.o)
                                                  /home/leon/git/swp-report/iMX6_Platform_SDK/output/mx6sdl/lib/libsdk.a(usdhc.o)
mmc_sd_test                                       /home/leon/git/swp-report/iMX6_Platform_SDK/output/mx6sdl/sdk_unit_test/sabre_ai_rev_b/libsdk_unit_test.a(usdhc_test.o)
mmc_set_boot_ack                                  /home/leon/git/swp-report/iMX6_Platform_SDK/output/mx6sdl/lib/libsdk.a(usdhc_mmc.o)
                                                  /home/leon/git/swp-report/iMX6_Platform_SDK/output/mx6sdl/sdk_unit_test/sabre_ai_rev_b/libsdk_unit_test.a(usdhc_test.o)
mmc_set_boot_bus_width                            /home/leon/git/swp-report/iMX6_Platform_SDK/output/mx6sdl/lib/libsdk.a(usdhc_mmc.o)
                                                  /home/leon/git/swp-report/iMX6_Platform_SDK/output/mx6sdl/sdk_unit_test/sabre_ai_rev_b/libsdk_unit_test.a(usdhc_test.o)
mmc_set_boot_partition                            /home/leon/git/swp-report/iMX6_Platform_SDK/output/mx6sdl/lib/libsdk.a(usdhc_mmc.o)
                                                  /home/leon/git/swp-report/iMX6_Platform_SDK/output/mx6sdl/sdk_unit_test/sabre_ai_rev_b/libsdk_unit_test.a(usdhc_test.o)
mmc_voltage_validation                            /home/leon/git/swp-report/iMX6_Platform_SDK/output/mx6sdl/lib/libsdk.a(usdhc_mmc.o)
                                                  /home/leon/git/swp-report/iMX6_Platform_SDK/output/mx6sdl/lib/libsdk.a(usdhc.o)
mmdc_iomux_config                                 /home/leon/git/swp-report/iMX6_Platform_SDK/output/mx6sdl/lib/libboard_sabre_ai_rev_b.a(mmdc_iomux_config.o)
                                                  /home/leon/git/swp-report/iMX6_Platform_SDK/output/mx6sdl/lib/libboard_sabre_ai_rev_b.a(iomux_config.o)
mmu_disable                                       /home/leon/git/swp-report/iMX6_Platform_SDK/output/mx6sdl/lib/libsdk.a(mmu.o)
                                                  /home/leon/git/swp-report/iMX6_Platform_SDK/output/mx6sdl/sdk_unit_test/sabre_ai_rev_b/libsdk_unit_test.a(cpu_wp_test.o)
mmu_enable                                        /home/leon/git/swp-report/iMX6_Platform_SDK/output/mx6sdl/lib/libsdk.a(mmu.o)
mmu_init                                          /home/leon/git/swp-report/iMX6_Platform_SDK/output/mx6sdl/lib/libsdk.a(mmu.o)
                                                  /home/leon/git/swp-report/iMX6_Platform_SDK/output/mx6sdl/sdk_unit_test/sabre_ai_rev_b/obj/apps/common/platform_init.o
mmu_map_l1_range                                  /home/leon/git/swp-report/iMX6_Platform_SDK/output/mx6sdl/lib/libsdk.a(mmu.o)
mmu_virtual_to_physical                           /home/leon/git/swp-report/iMX6_Platform_SDK/output/mx6sdl/lib/libsdk.a(mmu.o)
modff                                             /home/leon/riotboard/arm-2012.09/bin/../arm-none-eabi/lib//libm.a(lib_a-sf_modf.o)
                                                  /home/leon/git/swp-report/iMX6_Platform_SDK/output/mx6sdl/sdk_unit_test/sabre_ai_rev_b/libsdk_unit_test.a(accelerometer_test.o)
multicore_entry                                   /home/leon/git/swp-report/iMX6_Platform_SDK/output/mx6sdl/sdk_unit_test/sabre_ai_rev_b/libsdk_unit_test.a(multicore_test.o)
multicore_test                                    /home/leon/git/swp-report/iMX6_Platform_SDK/output/mx6sdl/sdk_unit_test/sabre_ai_rev_b/libsdk_unit_test.a(multicore_test.o)
                                                  /home/leon/git/swp-report/iMX6_Platform_SDK/output/mx6sdl/sdk_unit_test/sabre_ai_rev_b/obj/apps/sdk_unit_test/src/all_test.o
my_memcpy                                         /home/leon/git/swp-report/iMX6_Platform_SDK/output/mx6sdl/sdk_unit_test/sabre_ai_rev_b/libsdk_unit_test.a(cpu_wp_test.o)
mybkpt                                            /home/leon/git/swp-report/iMX6_Platform_SDK/output/mx6sdl/lib/libsdk.a(system_util.o)
need_csc                                          /home/leon/git/swp-report/iMX6_Platform_SDK/output/mx6sdl/lib/libsdk.a(ipu_common.o)
num_of_panels                                     /home/leon/git/swp-report/iMX6_Platform_SDK/output/mx6sdl/lib/libsdk.a(ips_disp_panel.o)
ocotp_fuse_blow_row                               /home/leon/git/swp-report/iMX6_Platform_SDK/output/mx6sdl/lib/libsdk.a(ocotp.o)
                                                  /home/leon/git/swp-report/iMX6_Platform_SDK/output/mx6sdl/sdk_unit_test/sabre_ai_rev_b/libsdk_unit_test.a(ocotp_test.o)
ocotp_reload_otp_shadow_registers                 /home/leon/git/swp-report/iMX6_Platform_SDK/output/mx6sdl/lib/libsdk.a(ocotp.o)
ocotp_sense_fuse                                  /home/leon/git/swp-report/iMX6_Platform_SDK/output/mx6sdl/lib/libsdk.a(ocotp.o)
                                                  /home/leon/git/swp-report/iMX6_Platform_SDK/output/mx6sdl/sdk_unit_test/sabre_ai_rev_b/libsdk_unit_test.a(ocotp_test.o)
ocotp_test                                        /home/leon/git/swp-report/iMX6_Platform_SDK/output/mx6sdl/sdk_unit_test/sabre_ai_rev_b/libsdk_unit_test.a(ocotp_test.o)
                                                  /home/leon/git/swp-report/iMX6_Platform_SDK/output/mx6sdl/sdk_unit_test/sabre_ai_rev_b/obj/apps/sdk_unit_test/src/all_test.o
one_time_tick_callback                            /home/leon/git/swp-report/iMX6_Platform_SDK/output/mx6sdl/sdk_unit_test/sabre_ai_rev_b/libsdk_unit_test.a(snvs_rtc_test.o)
one_time_timer_test                               /home/leon/git/swp-report/iMX6_Platform_SDK/output/mx6sdl/sdk_unit_test/sabre_ai_rev_b/libsdk_unit_test.a(snvs_rtc_test.o)
operator delete(void*)                            /home/leon/riotboard/arm-2012.09/bin/../arm-none-eabi/lib//libstdc++.a(del_op.o)
                                                  /home/leon/riotboard/arm-2012.09/bin/../arm-none-eabi/lib//libstdc++.a(tinfo.o)
                                                  /home/leon/riotboard/arm-2012.09/bin/../arm-none-eabi/lib//libstdc++.a(class_type_info.o)
                                                  /home/leon/riotboard/arm-2012.09/bin/../arm-none-eabi/lib//libstdc++.a(si_class_type_info.o)
                                                  /home/leon/riotboard/arm-2012.09/bin/../arm-none-eabi/lib//libstdc++.a(eh_exception.o)
operator new(unsigned int, void*)                 /home/leon/git/swp-report/iMX6_Platform_SDK/output/mx6sdl/lib/libsdk.a(pmu_driver.o)
ov5640_mipi_480x480_30fps_RGB565_fm               /home/leon/git/swp-report/iMX6_Platform_SDK/output/mx6sdl/lib/libsdk.a(ov5640_mipi_fm.o)
ov5640_mipi_VGA_640x480_15fps_YUV422_fm           /home/leon/git/swp-report/iMX6_Platform_SDK/output/mx6sdl/lib/libsdk.a(ov5640_mipi_fm.o)
ov5640_mipi_VGA_640x480_30fps_YUV422_fm           /home/leon/git/swp-report/iMX6_Platform_SDK/output/mx6sdl/lib/libsdk.a(ov5640_mipi_fm.o)
over_temp_callback                                /home/leon/git/swp-report/iMX6_Platform_SDK/output/mx6sdl/sdk_unit_test/sabre_ai_rev_b/libsdk_unit_test.a(tempmon_test.o)
pcie_card_pwr_setup                               /home/leon/git/swp-report/iMX6_Platform_SDK/output/mx6sdl/lib/libboard_sabre_ai_rev_b.a(board_pcie.o)
                                                  /home/leon/git/swp-report/iMX6_Platform_SDK/output/mx6sdl/sdk_unit_test/sabre_ai_rev_b/libsdk_unit_test.a(pcie_test_rc.o)
pcie_card_rst                                     /home/leon/git/swp-report/iMX6_Platform_SDK/output/mx6sdl/lib/libboard_sabre_ai_rev_b.a(board_pcie.o)
                                                  /home/leon/git/swp-report/iMX6_Platform_SDK/output/mx6sdl/sdk_unit_test/sabre_ai_rev_b/libsdk_unit_test.a(pcie_test_rc.o)
pcie_cfg_ep_bar                                   /home/leon/git/swp-report/iMX6_Platform_SDK/output/mx6sdl/lib/libsdk.a(pcie_prot.o)
                                                  /home/leon/git/swp-report/iMX6_Platform_SDK/output/mx6sdl/sdk_unit_test/sabre_ai_rev_b/libsdk_unit_test.a(pcie_test_rc.o)
pcie_clk_setup                                    /home/leon/git/swp-report/iMX6_Platform_SDK/output/mx6sdl/lib/libboard_sabre_ai_rev_b.a(board_pcie.o)
                                                  /home/leon/git/swp-report/iMX6_Platform_SDK/output/mx6sdl/sdk_unit_test/sabre_ai_rev_b/libsdk_unit_test.a(pcie_test_rc.o)
pcie_dump_cfg_header                              /home/leon/git/swp-report/iMX6_Platform_SDK/output/mx6sdl/lib/libsdk.a(pcie_prot.o)
                                                  /home/leon/git/swp-report/iMX6_Platform_SDK/output/mx6sdl/sdk_unit_test/sabre_ai_rev_b/libsdk_unit_test.a(pcie_test_rc.o)
pcie_enable_extrn_100mhz_clk                      /home/leon/git/swp-report/iMX6_Platform_SDK/output/mx6sdl/lib/libboard_sabre_ai_rev_b.a(board_pcie.o)
                                                  /home/leon/git/swp-report/iMX6_Platform_SDK/output/mx6sdl/sdk_unit_test/sabre_ai_rev_b/libsdk_unit_test.a(pcie_test_rc.o)
pcie_enable_extrn_125mhz_clk                      /home/leon/git/swp-report/iMX6_Platform_SDK/output/mx6sdl/lib/libboard_sabre_ai_rev_b.a(board_pcie.o)
pcie_enum_resources                               /home/leon/git/swp-report/iMX6_Platform_SDK/output/mx6sdl/lib/libsdk.a(pcie_prot.o)
                                                  /home/leon/git/swp-report/iMX6_Platform_SDK/output/mx6sdl/sdk_unit_test/sabre_ai_rev_b/libsdk_unit_test.a(pcie_test_rc.o)
pcie_func_card_pwr_setup                          /home/leon/git/swp-report/iMX6_Platform_SDK/output/mx6sdl/lib/libsdk.a(pcie.o)
                                                  /home/leon/git/swp-report/iMX6_Platform_SDK/output/mx6sdl/sdk_unit_test/sabre_ai_rev_b/libsdk_unit_test.a(pcie_test_rc.o)
pcie_func_card_ref_clk_setup                      /home/leon/git/swp-report/iMX6_Platform_SDK/output/mx6sdl/lib/libsdk.a(pcie.o)
                                                  /home/leon/git/swp-report/iMX6_Platform_SDK/output/mx6sdl/sdk_unit_test/sabre_ai_rev_b/libsdk_unit_test.a(pcie_test_rc.o)
pcie_func_card_rst                                /home/leon/git/swp-report/iMX6_Platform_SDK/output/mx6sdl/lib/libsdk.a(pcie.o)
                                                  /home/leon/git/swp-report/iMX6_Platform_SDK/output/mx6sdl/sdk_unit_test/sabre_ai_rev_b/libsdk_unit_test.a(pcie_test_rc.o)
pcie_func_clk_setup                               /home/leon/git/swp-report/iMX6_Platform_SDK/output/mx6sdl/lib/libsdk.a(pcie.o)
                                                  /home/leon/git/swp-report/iMX6_Platform_SDK/output/mx6sdl/sdk_unit_test/sabre_ai_rev_b/libsdk_unit_test.a(pcie_test_rc.o)
pcie_func_pwr_setup                               /home/leon/git/swp-report/iMX6_Platform_SDK/output/mx6sdl/lib/libsdk.a(pcie.o)
pcie_init                                         /home/leon/git/swp-report/iMX6_Platform_SDK/output/mx6sdl/lib/libsdk.a(pcie.o)
                                                  /home/leon/git/swp-report/iMX6_Platform_SDK/output/mx6sdl/sdk_unit_test/sabre_ai_rev_b/libsdk_unit_test.a(pcie_test_rc.o)
pcie_iomux_config                                 /home/leon/git/swp-report/iMX6_Platform_SDK/output/mx6sdl/lib/libboard_sabre_ai_rev_b.a(iomux_config.o)
pcie_map_space                                    /home/leon/git/swp-report/iMX6_Platform_SDK/output/mx6sdl/lib/libsdk.a(pcie.o)
                                                  /home/leon/git/swp-report/iMX6_Platform_SDK/output/mx6sdl/sdk_unit_test/sabre_ai_rev_b/libsdk_unit_test.a(pcie_test_rc.o)
pcie_phy_cr_read                                  /home/leon/git/swp-report/iMX6_Platform_SDK/output/mx6sdl/lib/libsdk.a(pcie_phy.o)
                                                  /home/leon/git/swp-report/iMX6_Platform_SDK/output/mx6sdl/lib/libsdk.a(pcie.o)
pcie_phy_cr_write                                 /home/leon/git/swp-report/iMX6_Platform_SDK/output/mx6sdl/lib/libsdk.a(pcie_phy.o)
                                                  /home/leon/git/swp-report/iMX6_Platform_SDK/output/mx6sdl/lib/libsdk.a(pcie.o)
pcie_test                                         /home/leon/git/swp-report/iMX6_Platform_SDK/output/mx6sdl/sdk_unit_test/sabre_ai_rev_b/libsdk_unit_test.a(pcie_test_rc.o)
                                                  /home/leon/git/swp-report/iMX6_Platform_SDK/output/mx6sdl/sdk_unit_test/sabre_ai_rev_b/obj/apps/sdk_unit_test/src/all_test.o
periodic_tick_callback                            /home/leon/git/swp-report/iMX6_Platform_SDK/output/mx6sdl/sdk_unit_test/sabre_ai_rev_b/libsdk_unit_test.a(snvs_rtc_test.o)
periodic_timer_test                               /home/leon/git/swp-report/iMX6_Platform_SDK/output/mx6sdl/sdk_unit_test/sabre_ai_rev_b/libsdk_unit_test.a(snvs_rtc_test.o)
platform_init                                     /home/leon/git/swp-report/iMX6_Platform_SDK/output/mx6sdl/sdk_unit_test/sabre_ai_rev_b/obj/apps/common/platform_init.o
                                                  /home/leon/git/swp-report/iMX6_Platform_SDK/output/mx6sdl/sdk_unit_test/sabre_ai_rev_b/obj/apps/sdk_unit_test/src/unit_test_main.o
pmu::AnalogRegulator::AnalogRegulator(_hw_pmu_reg_1p1 volatile&) /home/leon/git/swp-report/iMX6_Platform_SDK/output/mx6sdl/lib/libsdk.a(pmu_driver.o)
pmu::AnalogRegulator::AnalogRegulator(_hw_pmu_reg_1p1 volatile&) /home/leon/git/swp-report/iMX6_Platform_SDK/output/mx6sdl/lib/libsdk.a(pmu_driver.o)
pmu::AnalogRegulator::AnalogRegulator<_hw_pmu_reg_2p5>(_hw_pmu_reg_2p5 volatile&) /home/leon/git/swp-report/iMX6_Platform_SDK/output/mx6sdl/lib/libsdk.a(pmu_driver.o)
pmu::AnalogRegulator::AnalogRegulator<_hw_pmu_reg_2p5>(_hw_pmu_reg_2p5 volatile&) /home/leon/git/swp-report/iMX6_Platform_SDK/output/mx6sdl/lib/libsdk.a(pmu_driver.o)
pmu::AnalogRegulator::AnalogRegulator<_hw_pmu_reg_3p0>(_hw_pmu_reg_3p0 volatile&) /home/leon/git/swp-report/iMX6_Platform_SDK/output/mx6sdl/lib/libsdk.a(pmu_driver.o)
pmu::AnalogRegulator::AnalogRegulator<_hw_pmu_reg_3p0>(_hw_pmu_reg_3p0 volatile&) /home/leon/git/swp-report/iMX6_Platform_SDK/output/mx6sdl/lib/libsdk.a(pmu_driver.o)
pmu::AnalogRegulator::getBrownoutMillivolts() const /home/leon/git/swp-report/iMX6_Platform_SDK/output/mx6sdl/lib/libsdk.a(pmu_driver.o)
pmu::AnalogRegulator::getOutputMillivolts() const /home/leon/git/swp-report/iMX6_Platform_SDK/output/mx6sdl/lib/libsdk.a(pmu_driver.o)
pmu::AnalogRegulator::getProperty(_pmu_regulator_properties, void*) /home/leon/git/swp-report/iMX6_Platform_SDK/output/mx6sdl/lib/libsdk.a(pmu_driver.o)
pmu::AnalogRegulator::isBrownoutDetectEnabled() const /home/leon/git/swp-report/iMX6_Platform_SDK/output/mx6sdl/lib/libsdk.a(pmu_driver.o)
pmu::AnalogRegulator::isEnabled() const           /home/leon/git/swp-report/iMX6_Platform_SDK/output/mx6sdl/lib/libsdk.a(pmu_driver.o)
pmu::AnalogRegulator::setBrownoutDetectIsEnabled(bool) /home/leon/git/swp-report/iMX6_Platform_SDK/output/mx6sdl/lib/libsdk.a(pmu_driver.o)
pmu::AnalogRegulator::setBrownoutMillivolts(unsigned long) /home/leon/git/swp-report/iMX6_Platform_SDK/output/mx6sdl/lib/libsdk.a(pmu_driver.o)
pmu::AnalogRegulator::setIsEnabled(bool)          /home/leon/git/swp-report/iMX6_Platform_SDK/output/mx6sdl/lib/libsdk.a(pmu_driver.o)
pmu::AnalogRegulator::setOutputMillivolts(unsigned long) /home/leon/git/swp-report/iMX6_Platform_SDK/output/mx6sdl/lib/libsdk.a(pmu_driver.o)
pmu::AnalogRegulator::setProperty(_pmu_regulator_properties, void const*) /home/leon/git/swp-report/iMX6_Platform_SDK/output/mx6sdl/lib/libsdk.a(pmu_driver.o)
pmu::DigitalRegulator::DigitalRegulator()         /home/leon/git/swp-report/iMX6_Platform_SDK/output/mx6sdl/lib/libsdk.a(pmu_driver.o)
pmu::DigitalRegulator::DigitalRegulator()         /home/leon/git/swp-report/iMX6_Platform_SDK/output/mx6sdl/lib/libsdk.a(pmu_driver.o)
pmu::DigitalRegulator::getBrownoutMillivolts() const /home/leon/git/swp-report/iMX6_Platform_SDK/output/mx6sdl/lib/libsdk.a(pmu_driver.o)
pmu::DigitalRegulator::getOutputMillivolts() const /home/leon/git/swp-report/iMX6_Platform_SDK/output/mx6sdl/lib/libsdk.a(pmu_driver.o)
pmu::DigitalRegulator::getProperty(_pmu_regulator_properties, void*) /home/leon/git/swp-report/iMX6_Platform_SDK/output/mx6sdl/lib/libsdk.a(pmu_driver.o)
pmu::DigitalRegulator::isBypassed() const         /home/leon/git/swp-report/iMX6_Platform_SDK/output/mx6sdl/lib/libsdk.a(pmu_driver.o)
pmu::DigitalRegulator::isEnabled() const          /home/leon/git/swp-report/iMX6_Platform_SDK/output/mx6sdl/lib/libsdk.a(pmu_driver.o)
pmu::DigitalRegulator::setBrownoutMillivolts(unsigned long) /home/leon/git/swp-report/iMX6_Platform_SDK/output/mx6sdl/lib/libsdk.a(pmu_driver.o)
pmu::DigitalRegulator::setIsBypassed(bool)        /home/leon/git/swp-report/iMX6_Platform_SDK/output/mx6sdl/lib/libsdk.a(pmu_driver.o)
pmu::DigitalRegulator::setIsEnabled(bool)         /home/leon/git/swp-report/iMX6_Platform_SDK/output/mx6sdl/lib/libsdk.a(pmu_driver.o)
pmu::DigitalRegulator::setOutputMillivolts(unsigned long) /home/leon/git/swp-report/iMX6_Platform_SDK/output/mx6sdl/lib/libsdk.a(pmu_driver.o)
pmu::DigitalRegulator::setProperty(_pmu_regulator_properties, void const*) /home/leon/git/swp-report/iMX6_Platform_SDK/output/mx6sdl/lib/libsdk.a(pmu_driver.o)
pmu::LDO1p1Regulator::LDO1p1Regulator()           /home/leon/git/swp-report/iMX6_Platform_SDK/output/mx6sdl/lib/libsdk.a(pmu_driver.o)
pmu::LDO1p1Regulator::LDO1p1Regulator()           /home/leon/git/swp-report/iMX6_Platform_SDK/output/mx6sdl/lib/libsdk.a(pmu_driver.o)
pmu::LDO1p1Regulator::getOutputMillivolts() const /home/leon/git/swp-report/iMX6_Platform_SDK/output/mx6sdl/lib/libsdk.a(pmu_driver.o)
pmu::LDO1p1Regulator::getProperty(_pmu_regulator_properties, void*) /home/leon/git/swp-report/iMX6_Platform_SDK/output/mx6sdl/lib/libsdk.a(pmu_driver.o)
pmu::LDO1p1Regulator::isInBrownout() const        /home/leon/git/swp-report/iMX6_Platform_SDK/output/mx6sdl/lib/libsdk.a(pmu_driver.o)
pmu::LDO1p1Regulator::isOK() const                /home/leon/git/swp-report/iMX6_Platform_SDK/output/mx6sdl/lib/libsdk.a(pmu_driver.o)
pmu::LDO1p1Regulator::setOutputMillivolts(unsigned long) /home/leon/git/swp-report/iMX6_Platform_SDK/output/mx6sdl/lib/libsdk.a(pmu_driver.o)
pmu::LDO2p5Regulator::LDO2p5Regulator()           /home/leon/git/swp-report/iMX6_Platform_SDK/output/mx6sdl/lib/libsdk.a(pmu_driver.o)
pmu::LDO2p5Regulator::LDO2p5Regulator()           /home/leon/git/swp-report/iMX6_Platform_SDK/output/mx6sdl/lib/libsdk.a(pmu_driver.o)
pmu::LDO2p5Regulator::isInBrownout() const        /home/leon/git/swp-report/iMX6_Platform_SDK/output/mx6sdl/lib/libsdk.a(pmu_driver.o)
pmu::LDO2p5Regulator::isOK() const                /home/leon/git/swp-report/iMX6_Platform_SDK/output/mx6sdl/lib/libsdk.a(pmu_driver.o)
pmu::LDO3p0Regulator::LDO3p0Regulator()           /home/leon/git/swp-report/iMX6_Platform_SDK/output/mx6sdl/lib/libsdk.a(pmu_driver.o)
pmu::LDO3p0Regulator::LDO3p0Regulator()           /home/leon/git/swp-report/iMX6_Platform_SDK/output/mx6sdl/lib/libsdk.a(pmu_driver.o)
pmu::LDO3p0Regulator::getProperty(_pmu_regulator_properties, void*) /home/leon/git/swp-report/iMX6_Platform_SDK/output/mx6sdl/lib/libsdk.a(pmu_driver.o)
pmu::LDO3p0Regulator::isInBrownout() const        /home/leon/git/swp-report/iMX6_Platform_SDK/output/mx6sdl/lib/libsdk.a(pmu_driver.o)
pmu::LDO3p0Regulator::isOK() const                /home/leon/git/swp-report/iMX6_Platform_SDK/output/mx6sdl/lib/libsdk.a(pmu_driver.o)
pmu::LDO3p0Regulator::setProperty(_pmu_regulator_properties, void const*) /home/leon/git/swp-report/iMX6_Platform_SDK/output/mx6sdl/lib/libsdk.a(pmu_driver.o)
pmu::LDOARMRegulator::LDOARMRegulator()           /home/leon/git/swp-report/iMX6_Platform_SDK/output/mx6sdl/lib/libsdk.a(pmu_driver.o)
pmu::LDOARMRegulator::LDOARMRegulator()           /home/leon/git/swp-report/iMX6_Platform_SDK/output/mx6sdl/lib/libsdk.a(pmu_driver.o)
pmu::LDOARMRegulator::getBrownout() const         /home/leon/git/swp-report/iMX6_Platform_SDK/output/mx6sdl/lib/libsdk.a(pmu_driver.o)
pmu::LDOARMRegulator::getRampRate() const         /home/leon/git/swp-report/iMX6_Platform_SDK/output/mx6sdl/lib/libsdk.a(pmu_driver.o)
pmu::LDOARMRegulator::getTrigger() const          /home/leon/git/swp-report/iMX6_Platform_SDK/output/mx6sdl/lib/libsdk.a(pmu_driver.o)
pmu::LDOARMRegulator::isBrownoutDetectEnabled() const /home/leon/git/swp-report/iMX6_Platform_SDK/output/mx6sdl/lib/libsdk.a(pmu_driver.o)
pmu::LDOARMRegulator::isInBrownout() const        /home/leon/git/swp-report/iMX6_Platform_SDK/output/mx6sdl/lib/libsdk.a(pmu_driver.o)
pmu::LDOARMRegulator::isOK() const                /home/leon/git/swp-report/iMX6_Platform_SDK/output/mx6sdl/lib/libsdk.a(pmu_driver.o)
pmu::LDOARMRegulator::setBrownout(unsigned long)  /home/leon/git/swp-report/iMX6_Platform_SDK/output/mx6sdl/lib/libsdk.a(pmu_driver.o)
pmu::LDOARMRegulator::setBrownoutDetectIsEnabled(bool) /home/leon/git/swp-report/iMX6_Platform_SDK/output/mx6sdl/lib/libsdk.a(pmu_driver.o)
pmu::LDOARMRegulator::setRampRate(unsigned long)  /home/leon/git/swp-report/iMX6_Platform_SDK/output/mx6sdl/lib/libsdk.a(pmu_driver.o)
pmu::LDOARMRegulator::setTrigger(unsigned long)   /home/leon/git/swp-report/iMX6_Platform_SDK/output/mx6sdl/lib/libsdk.a(pmu_driver.o)
pmu::LDOGraphicsRegulator::LDOGraphicsRegulator() /home/leon/git/swp-report/iMX6_Platform_SDK/output/mx6sdl/lib/libsdk.a(pmu_driver.o)
pmu::LDOGraphicsRegulator::LDOGraphicsRegulator() /home/leon/git/swp-report/iMX6_Platform_SDK/output/mx6sdl/lib/libsdk.a(pmu_driver.o)
pmu::LDOGraphicsRegulator::getBrownout() const    /home/leon/git/swp-report/iMX6_Platform_SDK/output/mx6sdl/lib/libsdk.a(pmu_driver.o)
pmu::LDOGraphicsRegulator::getRampRate() const    /home/leon/git/swp-report/iMX6_Platform_SDK/output/mx6sdl/lib/libsdk.a(pmu_driver.o)
pmu::LDOGraphicsRegulator::getTrigger() const     /home/leon/git/swp-report/iMX6_Platform_SDK/output/mx6sdl/lib/libsdk.a(pmu_driver.o)
pmu::LDOGraphicsRegulator::isBrownoutDetectEnabled() const /home/leon/git/swp-report/iMX6_Platform_SDK/output/mx6sdl/lib/libsdk.a(pmu_driver.o)
pmu::LDOGraphicsRegulator::isInBrownout() const   /home/leon/git/swp-report/iMX6_Platform_SDK/output/mx6sdl/lib/libsdk.a(pmu_driver.o)
pmu::LDOGraphicsRegulator::isOK() const           /home/leon/git/swp-report/iMX6_Platform_SDK/output/mx6sdl/lib/libsdk.a(pmu_driver.o)
pmu::LDOGraphicsRegulator::setBrownout(unsigned long) /home/leon/git/swp-report/iMX6_Platform_SDK/output/mx6sdl/lib/libsdk.a(pmu_driver.o)
pmu::LDOGraphicsRegulator::setBrownoutDetectIsEnabled(bool) /home/leon/git/swp-report/iMX6_Platform_SDK/output/mx6sdl/lib/libsdk.a(pmu_driver.o)
pmu::LDOGraphicsRegulator::setRampRate(unsigned long) /home/leon/git/swp-report/iMX6_Platform_SDK/output/mx6sdl/lib/libsdk.a(pmu_driver.o)
pmu::LDOGraphicsRegulator::setTrigger(unsigned long) /home/leon/git/swp-report/iMX6_Platform_SDK/output/mx6sdl/lib/libsdk.a(pmu_driver.o)
pmu::LDOSoCRegulator::LDOSoCRegulator()           /home/leon/git/swp-report/iMX6_Platform_SDK/output/mx6sdl/lib/libsdk.a(pmu_driver.o)
pmu::LDOSoCRegulator::LDOSoCRegulator()           /home/leon/git/swp-report/iMX6_Platform_SDK/output/mx6sdl/lib/libsdk.a(pmu_driver.o)
pmu::LDOSoCRegulator::getBrownout() const         /home/leon/git/swp-report/iMX6_Platform_SDK/output/mx6sdl/lib/libsdk.a(pmu_driver.o)
pmu::LDOSoCRegulator::getRampRate() const         /home/leon/git/swp-report/iMX6_Platform_SDK/output/mx6sdl/lib/libsdk.a(pmu_driver.o)
pmu::LDOSoCRegulator::getTrigger() const          /home/leon/git/swp-report/iMX6_Platform_SDK/output/mx6sdl/lib/libsdk.a(pmu_driver.o)
pmu::LDOSoCRegulator::isBrownoutDetectEnabled() const /home/leon/git/swp-report/iMX6_Platform_SDK/output/mx6sdl/lib/libsdk.a(pmu_driver.o)
pmu::LDOSoCRegulator::isInBrownout() const        /home/leon/git/swp-report/iMX6_Platform_SDK/output/mx6sdl/lib/libsdk.a(pmu_driver.o)
pmu::LDOSoCRegulator::isOK() const                /home/leon/git/swp-report/iMX6_Platform_SDK/output/mx6sdl/lib/libsdk.a(pmu_driver.o)
pmu::LDOSoCRegulator::setBrownout(unsigned long)  /home/leon/git/swp-report/iMX6_Platform_SDK/output/mx6sdl/lib/libsdk.a(pmu_driver.o)
pmu::LDOSoCRegulator::setBrownoutDetectIsEnabled(bool) /home/leon/git/swp-report/iMX6_Platform_SDK/output/mx6sdl/lib/libsdk.a(pmu_driver.o)
pmu::LDOSoCRegulator::setRampRate(unsigned long)  /home/leon/git/swp-report/iMX6_Platform_SDK/output/mx6sdl/lib/libsdk.a(pmu_driver.o)
pmu::LDOSoCRegulator::setTrigger(unsigned long)   /home/leon/git/swp-report/iMX6_Platform_SDK/output/mx6sdl/lib/libsdk.a(pmu_driver.o)
pmu::Regulator::Regulator()                       /home/leon/git/swp-report/iMX6_Platform_SDK/output/mx6sdl/lib/libsdk.a(pmu_driver.o)
pmu::Regulator::Regulator()                       /home/leon/git/swp-report/iMX6_Platform_SDK/output/mx6sdl/lib/libsdk.a(pmu_driver.o)
pmu::Regulator::getBrownoutHandler()              /home/leon/git/swp-report/iMX6_Platform_SDK/output/mx6sdl/lib/libsdk.a(pmu_driver.o)
pmu::Regulator::getProperty(_pmu_regulator_properties, void*) /home/leon/git/swp-report/iMX6_Platform_SDK/output/mx6sdl/lib/libsdk.a(pmu_driver.o)
pmu::Regulator::setBrownoutHandler(void (*)(_pmu_regs)) /home/leon/git/swp-report/iMX6_Platform_SDK/output/mx6sdl/lib/libsdk.a(pmu_driver.o)
pmu::Regulator::setProperty(_pmu_regulator_properties, void const*) /home/leon/git/swp-report/iMX6_Platform_SDK/output/mx6sdl/lib/libsdk.a(pmu_driver.o)
pmu::Regulator::setVoltageRange(unsigned long, unsigned long, unsigned long) /home/leon/git/swp-report/iMX6_Platform_SDK/output/mx6sdl/lib/libsdk.a(pmu_driver.o)
pmu::_pmu_info::_pmu_info()                       /home/leon/git/swp-report/iMX6_Platform_SDK/output/mx6sdl/lib/libsdk.a(pmu_driver.o)
pmu::_pmu_info::_pmu_info()                       /home/leon/git/swp-report/iMX6_Platform_SDK/output/mx6sdl/lib/libsdk.a(pmu_driver.o)
pmu_get_property                                  /home/leon/git/swp-report/iMX6_Platform_SDK/output/mx6sdl/lib/libsdk.a(pmu_driver.o)
pmu_init                                          /home/leon/git/swp-report/iMX6_Platform_SDK/output/mx6sdl/lib/libsdk.a(pmu_driver.o)
                                                  /home/leon/git/swp-report/iMX6_Platform_SDK/output/mx6sdl/lib/libsdk.a(cpu_workpoint.o)
pmu_iomux_config                                  /home/leon/git/swp-report/iMX6_Platform_SDK/output/mx6sdl/lib/libboard_sabre_ai_rev_b.a(iomux_config.o)
pmu_set_property                                  /home/leon/git/swp-report/iMX6_Platform_SDK/output/mx6sdl/lib/libsdk.a(pmu_driver.o)
                                                  /home/leon/git/swp-report/iMX6_Platform_SDK/output/mx6sdl/lib/libsdk.a(cpu_workpoint.o)
preamble_filter_set                               /home/leon/git/swp-report/iMX6_Platform_SDK/output/mx6sdl/lib/libsdk.a(hdmi_tx.o)
prefetch_abort_handler                            /home/leon/git/swp-report/iMX6_Platform_SDK/output/mx6sdl/lib/libsdk.a(arm_abort.o)
                                                  /home/leon/git/swp-report/iMX6_Platform_SDK/output/mx6sdl/lib/libsdk.a(vectors.o)
print_can_mb                                      /home/leon/git/swp-report/iMX6_Platform_SDK/output/mx6sdl/lib/libsdk.a(can.o)
                                                  /home/leon/git/swp-report/iMX6_Platform_SDK/output/mx6sdl/sdk_unit_test/sabre_ai_rev_b/libsdk_unit_test.a(can_test.o)
print_current_temp                                /home/leon/git/swp-report/iMX6_Platform_SDK/output/mx6sdl/sdk_unit_test/sabre_ai_rev_b/libsdk_unit_test.a(tempmon_test.o)
print_version                                     /home/leon/git/swp-report/iMX6_Platform_SDK/output/mx6sdl/sdk_unit_test/sabre_ai_rev_b/obj/apps/common/print_version.o
                                                  /home/leon/git/swp-report/iMX6_Platform_SDK/output/mx6sdl/sdk_unit_test/sabre_ai_rev_b/obj/apps/sdk_unit_test/src/unit_test_main.o
printf                                            /home/leon/riotboard/arm-2012.09/bin/../arm-none-eabi/lib//libc.a(lib_a-printf.o)
                                                  /home/leon/git/swp-report/iMX6_Platform_SDK/output/mx6sdl/lib/libboard_sabre_ai_rev_b.a(board_hdmi.o)
                                                  /home/leon/git/swp-report/iMX6_Platform_SDK/output/mx6sdl/lib/libboard_sabre_ai_rev_b.a(board_display.o)
                                                  /home/leon/git/swp-report/iMX6_Platform_SDK/output/mx6sdl/lib/libboard_sabre_ai_rev_b.a(board_can.o)
                                                  /home/leon/git/swp-report/iMX6_Platform_SDK/output/mx6sdl/lib/libsdk.a(hdmi_common.o)
                                                  /home/leon/git/swp-report/iMX6_Platform_SDK/output/mx6sdl/lib/libsdk.a(adv7180.o)
                                                  /home/leon/git/swp-report/iMX6_Platform_SDK/output/mx6sdl/lib/libsdk.a(usdhc_sd.o)
                                                  /home/leon/git/swp-report/iMX6_Platform_SDK/output/mx6sdl/lib/libsdk.a(usdhc_mmc.o)
                                                  /home/leon/git/swp-report/iMX6_Platform_SDK/output/mx6sdl/lib/libsdk.a(usdhc_host.o)
                                                  /home/leon/git/swp-report/iMX6_Platform_SDK/output/mx6sdl/lib/libsdk.a(usdhc.o)
                                                  /home/leon/git/swp-report/iMX6_Platform_SDK/output/mx6sdl/lib/libsdk.a(usbh_drv.o)
                                                  /home/leon/git/swp-report/iMX6_Platform_SDK/output/mx6sdl/lib/libsdk.a(usbd_drv.o)
                                                  /home/leon/git/swp-report/iMX6_Platform_SDK/output/mx6sdl/lib/libsdk.a(usb_common.o)
                                                  /home/leon/git/swp-report/iMX6_Platform_SDK/output/mx6sdl/lib/libsdk.a(ecspi.o)
                                                  /home/leon/git/swp-report/iMX6_Platform_SDK/output/mx6sdl/lib/libsdk.a(sdma.o)
                                                  /home/leon/git/swp-report/iMX6_Platform_SDK/output/mx6sdl/lib/libsdk.a(pwm.o)
                                                  /home/leon/git/swp-report/iMX6_Platform_SDK/output/mx6sdl/lib/libsdk.a(pcie_prot.o)
                                                  /home/leon/git/swp-report/iMX6_Platform_SDK/output/mx6sdl/lib/libsdk.a(pcie.o)
                                                  /home/leon/git/swp-report/iMX6_Platform_SDK/output/mx6sdl/lib/libsdk.a(mipi_csi2_common.o)
                                                  /home/leon/git/swp-report/iMX6_Platform_SDK/output/mx6sdl/lib/libsdk.a(ldb.o)
                                                  /home/leon/git/swp-report/iMX6_Platform_SDK/output/mx6sdl/lib/libsdk.a(ipu_idmac.o)
                                                  /home/leon/git/swp-report/iMX6_Platform_SDK/output/mx6sdl/lib/libsdk.a(ipu_ic.o)
                                                  /home/leon/git/swp-report/iMX6_Platform_SDK/output/mx6sdl/lib/libsdk.a(ipu_di.o)
                                                  /home/leon/git/swp-report/iMX6_Platform_SDK/output/mx6sdl/lib/libsdk.a(ipu_dc.o)
                                                  /home/leon/git/swp-report/iMX6_Platform_SDK/output/mx6sdl/lib/libsdk.a(ipu_csi.o)
                                                  /home/leon/git/swp-report/iMX6_Platform_SDK/output/mx6sdl/lib/libsdk.a(ipu_common.o)
                                                  /home/leon/git/swp-report/iMX6_Platform_SDK/output/mx6sdl/lib/libsdk.a(ips_disp_panel.o)
                                                  /home/leon/git/swp-report/iMX6_Platform_SDK/output/mx6sdl/lib/libsdk.a(imx_i2c_slave.o)
                                                  /home/leon/git/swp-report/iMX6_Platform_SDK/output/mx6sdl/lib/libsdk.a(hdmi_tx_phy.o)
                                                  /home/leon/git/swp-report/iMX6_Platform_SDK/output/mx6sdl/lib/libsdk.a(hdmi_tx_audio.o)
                                                  /home/leon/git/swp-report/iMX6_Platform_SDK/output/mx6sdl/lib/libsdk.a(hdmi_tx.o)
                                                  /home/leon/git/swp-report/iMX6_Platform_SDK/output/mx6sdl/lib/libsdk.a(gpio.o)
                                                  /home/leon/git/swp-report/iMX6_Platform_SDK/output/mx6sdl/lib/libsdk.a(can.o)
                                                  /home/leon/git/swp-report/iMX6_Platform_SDK/output/mx6sdl/lib/libsdk.a(eim.o)
                                                  /home/leon/git/swp-report/iMX6_Platform_SDK/output/mx6sdl/lib/libsdk.a(cpu_workpoint.o)
                                                  /home/leon/git/swp-report/iMX6_Platform_SDK/output/mx6sdl/lib/libsdk.a(mma8451.o)
                                                  /home/leon/git/swp-report/iMX6_Platform_SDK/output/mx6sdl/sdk_unit_test/sabre_ai_rev_b/libsdk_unit_test.a(adv7180_capture.o)
                                                  /home/leon/git/swp-report/iMX6_Platform_SDK/output/mx6sdl/sdk_unit_test/sabre_ai_rev_b/libsdk_unit_test.a(spi_nor_numonyx.o)
                                                  /home/leon/git/swp-report/iMX6_Platform_SDK/output/mx6sdl/sdk_unit_test/sabre_ai_rev_b/libsdk_unit_test.a(cfi_flash_driver.o)
                                                  /home/leon/git/swp-report/iMX6_Platform_SDK/output/mx6sdl/sdk_unit_test/sabre_ai_rev_b/libsdk_unit_test.a(cfi_flash_api.o)
                                                  /home/leon/git/swp-report/iMX6_Platform_SDK/output/mx6sdl/sdk_unit_test/sabre_ai_rev_b/libsdk_unit_test.a(usb0_host_testmodes_test.o)
                                                  /home/leon/git/swp-report/iMX6_Platform_SDK/output/mx6sdl/sdk_unit_test/sabre_ai_rev_b/libsdk_unit_test.a(usb0_host_test.o)
                                                  /home/leon/git/swp-report/iMX6_Platform_SDK/output/mx6sdl/sdk_unit_test/sabre_ai_rev_b/libsdk_unit_test.a(usb0_device_mouse_test.o)
                                                  /home/leon/git/swp-report/iMX6_Platform_SDK/output/mx6sdl/sdk_unit_test/sabre_ai_rev_b/libsdk_unit_test.a(mipi_csi2_test.o)
                                                  /home/leon/git/swp-report/iMX6_Platform_SDK/output/mx6sdl/sdk_unit_test/sabre_ai_rev_b/libsdk_unit_test.a(ips_rotate.o)
                                                  /home/leon/git/swp-report/iMX6_Platform_SDK/output/mx6sdl/sdk_unit_test/sabre_ai_rev_b/libsdk_unit_test.a(ips_resize.o)
                                                  /home/leon/git/swp-report/iMX6_Platform_SDK/output/mx6sdl/sdk_unit_test/sabre_ai_rev_b/libsdk_unit_test.a(ips_csc.o)
                                                  /home/leon/git/swp-report/iMX6_Platform_SDK/output/mx6sdl/sdk_unit_test/sabre_ai_rev_b/libsdk_unit_test.a(ips_combiner.o)
                                                  /home/leon/git/swp-report/iMX6_Platform_SDK/output/mx6sdl/sdk_unit_test/sabre_ai_rev_b/libsdk_unit_test.a(init_dma_data.o)
                                                  /home/leon/git/swp-report/iMX6_Platform_SDK/output/mx6sdl/sdk_unit_test/sabre_ai_rev_b/libsdk_unit_test.a(pwm_output.o)
                                                  /home/leon/git/swp-report/iMX6_Platform_SDK/output/mx6sdl/sdk_unit_test/sabre_ai_rev_b/libsdk_unit_test.a(mem_2_mem.o)
                                                  /home/leon/git/swp-report/iMX6_Platform_SDK/output/mx6sdl/sdk_unit_test/sabre_ai_rev_b/libsdk_unit_test.a(at24cxx.o)
                                                  /home/leon/git/swp-report/iMX6_Platform_SDK/output/mx6sdl/sdk_unit_test/sabre_ai_rev_b/libsdk_unit_test.a(accelerometer_test.o)
                                                  /home/leon/git/swp-report/iMX6_Platform_SDK/output/mx6sdl/sdk_unit_test/sabre_ai_rev_b/libsdk_unit_test.a(csi_test_mode.o)
                                                  /home/leon/git/swp-report/iMX6_Platform_SDK/output/mx6sdl/sdk_unit_test/sabre_ai_rev_b/libsdk_unit_test.a(camera_test.o)
                                                  /home/leon/git/swp-report/iMX6_Platform_SDK/output/mx6sdl/sdk_unit_test/sabre_ai_rev_b/libsdk_unit_test.a(spi_test.o)
                                                  /home/leon/git/swp-report/iMX6_Platform_SDK/output/mx6sdl/sdk_unit_test/sabre_ai_rev_b/libsdk_unit_test.a(pcie_test_rc.o)
                                                  /home/leon/git/swp-report/iMX6_Platform_SDK/output/mx6sdl/sdk_unit_test/sabre_ai_rev_b/libsdk_unit_test.a(eim_test.o)
                                                  /home/leon/git/swp-report/iMX6_Platform_SDK/output/mx6sdl/sdk_unit_test/sabre_ai_rev_b/libsdk_unit_test.a(usb_test.o)
                                                  /home/leon/git/swp-report/iMX6_Platform_SDK/output/mx6sdl/sdk_unit_test/sabre_ai_rev_b/libsdk_unit_test.a(can_test.o)
                                                  /home/leon/git/swp-report/iMX6_Platform_SDK/output/mx6sdl/sdk_unit_test/sabre_ai_rev_b/libsdk_unit_test.a(mipi_test.o)
                                                  /home/leon/git/swp-report/iMX6_Platform_SDK/output/mx6sdl/sdk_unit_test/sabre_ai_rev_b/libsdk_unit_test.a(ips_test.o)
                                                  /home/leon/git/swp-report/iMX6_Platform_SDK/output/mx6sdl/sdk_unit_test/sabre_ai_rev_b/libsdk_unit_test.a(ips_display.o)
                                                  /home/leon/git/swp-report/iMX6_Platform_SDK/output/mx6sdl/sdk_unit_test/sabre_ai_rev_b/libsdk_unit_test.a(hdmi_test.o)
                                                  /home/leon/git/swp-report/iMX6_Platform_SDK/output/mx6sdl/sdk_unit_test/sabre_ai_rev_b/libsdk_unit_test.a(watchdog_test.o)
                                                  /home/leon/git/swp-report/iMX6_Platform_SDK/output/mx6sdl/sdk_unit_test/sabre_ai_rev_b/libsdk_unit_test.a(pwm_test.o)
                                                  /home/leon/git/swp-report/iMX6_Platform_SDK/output/mx6sdl/sdk_unit_test/sabre_ai_rev_b/libsdk_unit_test.a(usdhc_test.o)
                                                  /home/leon/git/swp-report/iMX6_Platform_SDK/output/mx6sdl/sdk_unit_test/sabre_ai_rev_b/libsdk_unit_test.a(uart_test.o)
                                                  /home/leon/git/swp-report/iMX6_Platform_SDK/output/mx6sdl/sdk_unit_test/sabre_ai_rev_b/libsdk_unit_test.a(timer_test.o)
                                                  /home/leon/git/swp-report/iMX6_Platform_SDK/output/mx6sdl/sdk_unit_test/sabre_ai_rev_b/libsdk_unit_test.a(gpt_test.o)
                                                  /home/leon/git/swp-report/iMX6_Platform_SDK/output/mx6sdl/sdk_unit_test/sabre_ai_rev_b/libsdk_unit_test.a(epit_test.o)
                                                  /home/leon/git/swp-report/iMX6_Platform_SDK/output/mx6sdl/sdk_unit_test/sabre_ai_rev_b/libsdk_unit_test.a(uart_loopback.o)
                                                  /home/leon/git/swp-report/iMX6_Platform_SDK/output/mx6sdl/sdk_unit_test/sabre_ai_rev_b/libsdk_unit_test.a(spi_lpb.o)
                                                  /home/leon/git/swp-report/iMX6_Platform_SDK/output/mx6sdl/sdk_unit_test/sabre_ai_rev_b/libsdk_unit_test.a(sdma_test.o)
                                                  /home/leon/git/swp-report/iMX6_Platform_SDK/output/mx6sdl/sdk_unit_test/sabre_ai_rev_b/libsdk_unit_test.a(tempmon_test.o)
                                                  /home/leon/git/swp-report/iMX6_Platform_SDK/output/mx6sdl/sdk_unit_test/sabre_ai_rev_b/libsdk_unit_test.a(snvs_srtc_test.o)
                                                  /home/leon/git/swp-report/iMX6_Platform_SDK/output/mx6sdl/sdk_unit_test/sabre_ai_rev_b/libsdk_unit_test.a(snvs_rtc_test.o)
                                                  /home/leon/git/swp-report/iMX6_Platform_SDK/output/mx6sdl/sdk_unit_test/sabre_ai_rev_b/libsdk_unit_test.a(imx6_i2c_device.o)
                                                  /home/leon/git/swp-report/iMX6_Platform_SDK/output/mx6sdl/sdk_unit_test/sabre_ai_rev_b/libsdk_unit_test.a(i2c_test.o)
                                                  /home/leon/git/swp-report/iMX6_Platform_SDK/output/mx6sdl/sdk_unit_test/sabre_ai_rev_b/libsdk_unit_test.a(ocotp_test.o)
                                                  /home/leon/git/swp-report/iMX6_Platform_SDK/output/mx6sdl/sdk_unit_test/sabre_ai_rev_b/libsdk_unit_test.a(multicore_test.o)
                                                  /home/leon/git/swp-report/iMX6_Platform_SDK/output/mx6sdl/sdk_unit_test/sabre_ai_rev_b/libsdk_unit_test.a(cpu_wp_test.o)
                                                  /home/leon/git/swp-report/iMX6_Platform_SDK/output/mx6sdl/sdk_unit_test/sabre_ai_rev_b/libsdk_unit_test.a(gic_test.o)
                                                  /home/leon/git/swp-report/iMX6_Platform_SDK/output/mx6sdl/lib/libsdk.a(abort_handler.o)
                                                  /home/leon/git/swp-report/iMX6_Platform_SDK/output/mx6sdl/lib/libsdk.a(interrupt.o)
                                                  /home/leon/git/swp-report/iMX6_Platform_SDK/output/mx6sdl/lib/libsdk.a(board_id.o)
                                                  /home/leon/git/swp-report/iMX6_Platform_SDK/output/mx6sdl/lib/libsdk.a(text_color.o)
                                                  /home/leon/git/swp-report/iMX6_Platform_SDK/output/mx6sdl/lib/libsdk.a(system_util.o)
                                                  /home/leon/git/swp-report/iMX6_Platform_SDK/output/mx6sdl/lib/libsdk.a(menu.o)
                                                  /home/leon/git/swp-report/iMX6_Platform_SDK/output/mx6sdl/sdk_unit_test/sabre_ai_rev_b/obj/apps/common/print_version.o
                                                  /home/leon/git/swp-report/iMX6_Platform_SDK/output/mx6sdl/sdk_unit_test/sabre_ai_rev_b/obj/apps/common/print_clock_info.o
printf_color                                      /home/leon/git/swp-report/iMX6_Platform_SDK/output/mx6sdl/lib/libsdk.a(text_color.o)
                                                  /home/leon/git/swp-report/iMX6_Platform_SDK/output/mx6sdl/lib/libsdk.a(system_util.o)
                                                  /home/leon/git/swp-report/iMX6_Platform_SDK/output/mx6sdl/lib/libsdk.a(menu.o)
putc                                              /home/leon/riotboard/arm-2012.09/bin/../arm-none-eabi/lib//libc.a(lib_a-putc.o)
puts                                              /home/leon/riotboard/arm-2012.09/bin/../arm-none-eabi/lib//libc.a(lib_a-puts.o)
                                                  /home/leon/git/swp-report/iMX6_Platform_SDK/output/mx6sdl/sdk_unit_test/sabre_ai_rev_b/libsdk_unit_test.a(cfi_flash_api.o)
pwm1_iomux_config                                 /home/leon/git/swp-report/iMX6_Platform_SDK/output/mx6sdl/lib/libboard_sabre_ai_rev_b.a(iomux_config.o)
                                                  /home/leon/git/swp-report/iMX6_Platform_SDK/output/mx6sdl/lib/libboard_sabre_ai_rev_b.a(pwm_iomux_config.o)
pwm2_iomux_config                                 /home/leon/git/swp-report/iMX6_Platform_SDK/output/mx6sdl/lib/libboard_sabre_ai_rev_b.a(iomux_config.o)
                                                  /home/leon/git/swp-report/iMX6_Platform_SDK/output/mx6sdl/lib/libboard_sabre_ai_rev_b.a(pwm_iomux_config.o)
pwm3_iomux_config                                 /home/leon/git/swp-report/iMX6_Platform_SDK/output/mx6sdl/lib/libboard_sabre_ai_rev_b.a(pwm3_iomux_config.o)
                                                  /home/leon/git/swp-report/iMX6_Platform_SDK/output/mx6sdl/lib/libboard_sabre_ai_rev_b.a(pwm_iomux_config.o)
                                                  /home/leon/git/swp-report/iMX6_Platform_SDK/output/mx6sdl/lib/libboard_sabre_ai_rev_b.a(iomux_config.o)
pwm4_iomux_config                                 /home/leon/git/swp-report/iMX6_Platform_SDK/output/mx6sdl/lib/libboard_sabre_ai_rev_b.a(pwm4_iomux_config.o)
                                                  /home/leon/git/swp-report/iMX6_Platform_SDK/output/mx6sdl/lib/libboard_sabre_ai_rev_b.a(pwm_iomux_config.o)
                                                  /home/leon/git/swp-report/iMX6_Platform_SDK/output/mx6sdl/lib/libboard_sabre_ai_rev_b.a(iomux_config.o)
pwm_clear_int_status                              /home/leon/git/swp-report/iMX6_Platform_SDK/output/mx6sdl/lib/libsdk.a(pwm.o)
pwm_disable                                       /home/leon/git/swp-report/iMX6_Platform_SDK/output/mx6sdl/lib/libsdk.a(pwm.o)
                                                  /home/leon/git/swp-report/iMX6_Platform_SDK/output/mx6sdl/sdk_unit_test/sabre_ai_rev_b/libsdk_unit_test.a(pwm_output.o)
pwm_enable                                        /home/leon/git/swp-report/iMX6_Platform_SDK/output/mx6sdl/lib/libsdk.a(pwm.o)
                                                  /home/leon/git/swp-report/iMX6_Platform_SDK/output/mx6sdl/sdk_unit_test/sabre_ai_rev_b/libsdk_unit_test.a(pwm_output.o)
pwm_free_interrupt                                /home/leon/git/swp-report/iMX6_Platform_SDK/output/mx6sdl/lib/libsdk.a(pwm.o)
pwm_get_clock_freq                                /home/leon/git/swp-report/iMX6_Platform_SDK/output/mx6sdl/lib/libsdk.a(pwm.o)
                                                  /home/leon/git/swp-report/iMX6_Platform_SDK/output/mx6sdl/sdk_unit_test/sabre_ai_rev_b/libsdk_unit_test.a(pwm_output.o)
pwm_init                                          /home/leon/git/swp-report/iMX6_Platform_SDK/output/mx6sdl/lib/libsdk.a(pwm.o)
                                                  /home/leon/git/swp-report/iMX6_Platform_SDK/output/mx6sdl/sdk_unit_test/sabre_ai_rev_b/libsdk_unit_test.a(pwm_output.o)
pwm_int_test_end                                  /home/leon/git/swp-report/iMX6_Platform_SDK/output/mx6sdl/lib/libsdk.a(pwm.o)
pwm_iomux_config                                  /home/leon/git/swp-report/iMX6_Platform_SDK/output/mx6sdl/lib/libboard_sabre_ai_rev_b.a(pwm_iomux_config.o)
                                                  /home/leon/git/swp-report/iMX6_Platform_SDK/output/mx6sdl/sdk_unit_test/sabre_ai_rev_b/libsdk_unit_test.a(pwm_output.o)
pwm_isr_test_end                                  /home/leon/git/swp-report/iMX6_Platform_SDK/output/mx6sdl/lib/libsdk.a(pwm.o)
pwm_output_test                                   /home/leon/git/swp-report/iMX6_Platform_SDK/output/mx6sdl/sdk_unit_test/sabre_ai_rev_b/libsdk_unit_test.a(pwm_output.o)
                                                  /home/leon/git/swp-report/iMX6_Platform_SDK/output/mx6sdl/sdk_unit_test/sabre_ai_rev_b/libsdk_unit_test.a(pwm_test.o)
pwm_setup_interrupt                               /home/leon/git/swp-report/iMX6_Platform_SDK/output/mx6sdl/lib/libsdk.a(pwm.o)
pwm_test                                          /home/leon/git/swp-report/iMX6_Platform_SDK/output/mx6sdl/sdk_unit_test/sabre_ai_rev_b/libsdk_unit_test.a(pwm_test.o)
                                                  /home/leon/git/swp-report/iMX6_Platform_SDK/output/mx6sdl/sdk_unit_test/sabre_ai_rev_b/obj/apps/sdk_unit_test/src/all_test.o
qf_Descriptor                                     /home/leon/git/swp-report/iMX6_Platform_SDK/output/mx6sdl/sdk_unit_test/sabre_ai_rev_b/libsdk_unit_test.a(usb0_device_mouse_test.o)
raise                                             /home/leon/riotboard/arm-2012.09/bin/../arm-none-eabi/lib//libc.a(lib_a-signal.o)
                                                  /home/leon/riotboard/arm-2012.09/bin/../arm-none-eabi/lib//libc.a(lib_a-abort.o)
read_input_string                                 /home/leon/git/swp-report/iMX6_Platform_SDK/output/mx6sdl/lib/libsdk.a(system_util.o)
read_int                                          /home/leon/git/swp-report/iMX6_Platform_SDK/output/mx6sdl/lib/libsdk.a(system_util.o)
                                                  /home/leon/git/swp-report/iMX6_Platform_SDK/output/mx6sdl/sdk_unit_test/sabre_ai_rev_b/libsdk_unit_test.a(pwm_output.o)
                                                  /home/leon/git/swp-report/iMX6_Platform_SDK/output/mx6sdl/sdk_unit_test/sabre_ai_rev_b/libsdk_unit_test.a(tempmon_test.o)
read_usdhc_adma_mode                              /home/leon/git/swp-report/iMX6_Platform_SDK/output/mx6sdl/lib/libsdk.a(usdhc.o)
                                                  /home/leon/git/swp-report/iMX6_Platform_SDK/output/mx6sdl/lib/libsdk.a(usdhc_host.o)
read_usdhc_intr_mode                              /home/leon/git/swp-report/iMX6_Platform_SDK/output/mx6sdl/lib/libsdk.a(usdhc.o)
                                                  /home/leon/git/swp-report/iMX6_Platform_SDK/output/mx6sdl/lib/libsdk.a(usdhc_host.o)
                                                  /home/leon/git/swp-report/iMX6_Platform_SDK/output/mx6sdl/sdk_unit_test/sabre_ai_rev_b/libsdk_unit_test.a(usdhc_test.o)
realloc                                           /home/leon/riotboard/arm-2012.09/bin/../arm-none-eabi/lib//libc.a(lib_a-realloc.o)
                                                  /home/leon/riotboard/arm-2012.09/bin/../arm-none-eabi/lib//libstdc++.a(cp-demangle.o)
                                                  /home/leon/git/swp-report/iMX6_Platform_SDK/output/mx6sdl/lib/libsdk.a(system_util.o)
register_interrupt_routine                        /home/leon/git/swp-report/iMX6_Platform_SDK/output/mx6sdl/lib/libsdk.a(interrupt.o)
                                                  /home/leon/git/swp-report/iMX6_Platform_SDK/output/mx6sdl/lib/libsdk.a(usdhc.o)
                                                  /home/leon/git/swp-report/iMX6_Platform_SDK/output/mx6sdl/lib/libsdk.a(gpt.o)
                                                  /home/leon/git/swp-report/iMX6_Platform_SDK/output/mx6sdl/lib/libsdk.a(tempmon.o)
                                                  /home/leon/git/swp-report/iMX6_Platform_SDK/output/mx6sdl/lib/libsdk.a(sdma.o)
                                                  /home/leon/git/swp-report/iMX6_Platform_SDK/output/mx6sdl/lib/libsdk.a(srtc.o)
                                                  /home/leon/git/swp-report/iMX6_Platform_SDK/output/mx6sdl/lib/libsdk.a(rtc.o)
                                                  /home/leon/git/swp-report/iMX6_Platform_SDK/output/mx6sdl/lib/libsdk.a(pwm.o)
                                                  /home/leon/git/swp-report/iMX6_Platform_SDK/output/mx6sdl/lib/libsdk.a(pmu_driver.o)
                                                  /home/leon/git/swp-report/iMX6_Platform_SDK/output/mx6sdl/lib/libsdk.a(ipu_common.o)
                                                  /home/leon/git/swp-report/iMX6_Platform_SDK/output/mx6sdl/lib/libsdk.a(imx_i2c.o)
                                                  /home/leon/git/swp-report/iMX6_Platform_SDK/output/mx6sdl/lib/libsdk.a(can.o)
                                                  /home/leon/git/swp-report/iMX6_Platform_SDK/output/mx6sdl/sdk_unit_test/sabre_ai_rev_b/libsdk_unit_test.a(hdmi_test.o)
                                                  /home/leon/git/swp-report/iMX6_Platform_SDK/output/mx6sdl/sdk_unit_test/sabre_ai_rev_b/libsdk_unit_test.a(multicore_test.o)
                                                  /home/leon/git/swp-report/iMX6_Platform_SDK/output/mx6sdl/sdk_unit_test/sabre_ai_rev_b/libsdk_unit_test.a(gic_test.o)
                                                  /home/leon/git/swp-report/iMX6_Platform_SDK/output/mx6sdl/lib/libsdk.a(epit.o)
                                                  /home/leon/git/swp-report/iMX6_Platform_SDK/output/mx6sdl/lib/libsdk.a(imx_uart.o)
res_num                                           /home/leon/git/swp-report/iMX6_Platform_SDK/output/mx6sdl/sdk_unit_test/sabre_ai_rev_b/libsdk_unit_test.a(pcie_test_rc.o)
reset_usb_hub                                     /home/leon/git/swp-report/iMX6_Platform_SDK/output/mx6sdl/lib/libboard_sabre_ai_rev_b.a(board_usb.o)
restore_core_regs                                 /home/leon/riotboard/arm-2012.09/bin/../lib/gcc/arm-none-eabi/4.7.2//libgcc.a(libunwind.o)
                                                  /home/leon/riotboard/arm-2012.09/bin/../lib/gcc/arm-none-eabi/4.7.2//libgcc.a(unwind-arm.o)
rtc_deinit                                        /home/leon/git/swp-report/iMX6_Platform_SDK/output/mx6sdl/lib/libsdk.a(rtc.o)
                                                  /home/leon/git/swp-report/iMX6_Platform_SDK/output/mx6sdl/sdk_unit_test/sabre_ai_rev_b/libsdk_unit_test.a(snvs_rtc_test.o)
rtc_disable_periodic_timer                        /home/leon/git/swp-report/iMX6_Platform_SDK/output/mx6sdl/lib/libsdk.a(rtc.o)
rtc_init                                          /home/leon/git/swp-report/iMX6_Platform_SDK/output/mx6sdl/lib/libsdk.a(rtc.o)
                                                  /home/leon/git/swp-report/iMX6_Platform_SDK/output/mx6sdl/sdk_unit_test/sabre_ai_rev_b/libsdk_unit_test.a(snvs_rtc_test.o)
rtc_setup_onetime_timer                           /home/leon/git/swp-report/iMX6_Platform_SDK/output/mx6sdl/lib/libsdk.a(rtc.o)
                                                  /home/leon/git/swp-report/iMX6_Platform_SDK/output/mx6sdl/sdk_unit_test/sabre_ai_rev_b/libsdk_unit_test.a(snvs_rtc_test.o)
rtc_setup_periodic_timer                          /home/leon/git/swp-report/iMX6_Platform_SDK/output/mx6sdl/lib/libsdk.a(rtc.o)
                                                  /home/leon/git/swp-report/iMX6_Platform_SDK/output/mx6sdl/sdk_unit_test/sabre_ai_rev_b/libsdk_unit_test.a(snvs_rtc_test.o)
run_test                                          /home/leon/git/swp-report/iMX6_Platform_SDK/output/mx6sdl/sdk_unit_test/sabre_ai_rev_b/obj/apps/sdk_unit_test/src/all_test.o
scalbnf                                           /home/leon/riotboard/arm-2012.09/bin/../arm-none-eabi/lib//libm.a(lib_a-sf_scalbn.o)
                                                  /home/leon/riotboard/arm-2012.09/bin/../arm-none-eabi/lib//libm.a(lib_a-kf_rem_pio2.o)
script_info                                       /home/leon/git/swp-report/iMX6_Platform_SDK/output/mx6sdl/lib/libsdk.a(sdma_script_info.o)
                                                  /home/leon/git/swp-report/iMX6_Platform_SDK/output/mx6sdl/lib/libsdk.a(sdma.o)
scu_disable_maintenance_broadcast                 /home/leon/git/swp-report/iMX6_Platform_SDK/output/mx6sdl/lib/libsdk.a(cortexA9.o)
scu_enable                                        /home/leon/git/swp-report/iMX6_Platform_SDK/output/mx6sdl/lib/libsdk.a(cortexA9.o)
scu_enable_maintenance_broadcast                  /home/leon/git/swp-report/iMX6_Platform_SDK/output/mx6sdl/lib/libsdk.a(cortexA9.o)
scu_get_cpus_in_smp                               /home/leon/git/swp-report/iMX6_Platform_SDK/output/mx6sdl/lib/libsdk.a(cortexA9.o)
scu_join_smp                                      /home/leon/git/swp-report/iMX6_Platform_SDK/output/mx6sdl/lib/libsdk.a(cortexA9.o)
scu_leave_smp                                     /home/leon/git/swp-report/iMX6_Platform_SDK/output/mx6sdl/lib/libsdk.a(cortexA9.o)
scu_secure_invalidate                             /home/leon/git/swp-report/iMX6_Platform_SDK/output/mx6sdl/lib/libsdk.a(cortexA9.o)
sd_if_cmd_arg                                     /home/leon/git/swp-report/iMX6_Platform_SDK/output/mx6sdl/lib/libsdk.a(usdhc_sd.o)
sd_init                                           /home/leon/git/swp-report/iMX6_Platform_SDK/output/mx6sdl/lib/libsdk.a(usdhc_sd.o)
                                                  /home/leon/git/swp-report/iMX6_Platform_SDK/output/mx6sdl/lib/libsdk.a(usdhc.o)
sd_ocr_value                                      /home/leon/git/swp-report/iMX6_Platform_SDK/output/mx6sdl/lib/libsdk.a(usdhc_sd.o)
sd_voltage_validation                             /home/leon/git/swp-report/iMX6_Platform_SDK/output/mx6sdl/lib/libsdk.a(usdhc_sd.o)
                                                  /home/leon/git/swp-report/iMX6_Platform_SDK/output/mx6sdl/lib/libsdk.a(usdhc.o)
sdma_channel_isr_attach                           /home/leon/git/swp-report/iMX6_Platform_SDK/output/mx6sdl/lib/libsdk.a(sdma.o)
                                                  /home/leon/git/swp-report/iMX6_Platform_SDK/output/mx6sdl/sdk_unit_test/sabre_ai_rev_b/libsdk_unit_test.a(uart_loopback.o)
sdma_channel_release                              /home/leon/git/swp-report/iMX6_Platform_SDK/output/mx6sdl/lib/libsdk.a(sdma.o)
                                                  /home/leon/git/swp-report/iMX6_Platform_SDK/output/mx6sdl/sdk_unit_test/sabre_ai_rev_b/libsdk_unit_test.a(mem_2_mem.o)
                                                  /home/leon/git/swp-report/iMX6_Platform_SDK/output/mx6sdl/sdk_unit_test/sabre_ai_rev_b/libsdk_unit_test.a(uart_loopback.o)
                                                  /home/leon/git/swp-report/iMX6_Platform_SDK/output/mx6sdl/sdk_unit_test/sabre_ai_rev_b/libsdk_unit_test.a(spi_lpb.o)
sdma_channel_request                              /home/leon/git/swp-report/iMX6_Platform_SDK/output/mx6sdl/lib/libsdk.a(sdma.o)
                                                  /home/leon/git/swp-report/iMX6_Platform_SDK/output/mx6sdl/sdk_unit_test/sabre_ai_rev_b/libsdk_unit_test.a(mem_2_mem.o)
                                                  /home/leon/git/swp-report/iMX6_Platform_SDK/output/mx6sdl/sdk_unit_test/sabre_ai_rev_b/libsdk_unit_test.a(uart_loopback.o)
                                                  /home/leon/git/swp-report/iMX6_Platform_SDK/output/mx6sdl/sdk_unit_test/sabre_ai_rev_b/libsdk_unit_test.a(spi_lpb.o)
sdma_channel_start                                /home/leon/git/swp-report/iMX6_Platform_SDK/output/mx6sdl/lib/libsdk.a(sdma.o)
                                                  /home/leon/git/swp-report/iMX6_Platform_SDK/output/mx6sdl/sdk_unit_test/sabre_ai_rev_b/libsdk_unit_test.a(mem_2_mem.o)
                                                  /home/leon/git/swp-report/iMX6_Platform_SDK/output/mx6sdl/sdk_unit_test/sabre_ai_rev_b/libsdk_unit_test.a(uart_loopback.o)
                                                  /home/leon/git/swp-report/iMX6_Platform_SDK/output/mx6sdl/sdk_unit_test/sabre_ai_rev_b/libsdk_unit_test.a(spi_lpb.o)
sdma_channel_status                               /home/leon/git/swp-report/iMX6_Platform_SDK/output/mx6sdl/lib/libsdk.a(sdma.o)
                                                  /home/leon/git/swp-report/iMX6_Platform_SDK/output/mx6sdl/sdk_unit_test/sabre_ai_rev_b/libsdk_unit_test.a(mem_2_mem.o)
                                                  /home/leon/git/swp-report/iMX6_Platform_SDK/output/mx6sdl/sdk_unit_test/sabre_ai_rev_b/libsdk_unit_test.a(uart_loopback.o)
                                                  /home/leon/git/swp-report/iMX6_Platform_SDK/output/mx6sdl/sdk_unit_test/sabre_ai_rev_b/libsdk_unit_test.a(spi_lpb.o)
sdma_channel_stop                                 /home/leon/git/swp-report/iMX6_Platform_SDK/output/mx6sdl/lib/libsdk.a(sdma.o)
                                                  /home/leon/git/swp-report/iMX6_Platform_SDK/output/mx6sdl/sdk_unit_test/sabre_ai_rev_b/libsdk_unit_test.a(mem_2_mem.o)
                                                  /home/leon/git/swp-report/iMX6_Platform_SDK/output/mx6sdl/sdk_unit_test/sabre_ai_rev_b/libsdk_unit_test.a(uart_loopback.o)
                                                  /home/leon/git/swp-report/iMX6_Platform_SDK/output/mx6sdl/sdk_unit_test/sabre_ai_rev_b/libsdk_unit_test.a(spi_lpb.o)
sdma_deinit                                       /home/leon/git/swp-report/iMX6_Platform_SDK/output/mx6sdl/lib/libsdk.a(sdma.o)
                                                  /home/leon/git/swp-report/iMX6_Platform_SDK/output/mx6sdl/sdk_unit_test/sabre_ai_rev_b/libsdk_unit_test.a(mem_2_mem.o)
                                                  /home/leon/git/swp-report/iMX6_Platform_SDK/output/mx6sdl/sdk_unit_test/sabre_ai_rev_b/libsdk_unit_test.a(uart_loopback.o)
                                                  /home/leon/git/swp-report/iMX6_Platform_SDK/output/mx6sdl/sdk_unit_test/sabre_ai_rev_b/libsdk_unit_test.a(spi_lpb.o)
sdma_init                                         /home/leon/git/swp-report/iMX6_Platform_SDK/output/mx6sdl/lib/libsdk.a(sdma.o)
                                                  /home/leon/git/swp-report/iMX6_Platform_SDK/output/mx6sdl/sdk_unit_test/sabre_ai_rev_b/libsdk_unit_test.a(mem_2_mem.o)
                                                  /home/leon/git/swp-report/iMX6_Platform_SDK/output/mx6sdl/sdk_unit_test/sabre_ai_rev_b/libsdk_unit_test.a(uart_loopback.o)
                                                  /home/leon/git/swp-report/iMX6_Platform_SDK/output/mx6sdl/sdk_unit_test/sabre_ai_rev_b/libsdk_unit_test.a(spi_lpb.o)
sdma_iomux_config                                 /home/leon/git/swp-report/iMX6_Platform_SDK/output/mx6sdl/lib/libboard_sabre_ai_rev_b.a(iomux_config.o)
sdma_lookup_script                                /home/leon/git/swp-report/iMX6_Platform_SDK/output/mx6sdl/lib/libsdk.a(sdma.o)
                                                  /home/leon/git/swp-report/iMX6_Platform_SDK/output/mx6sdl/sdk_unit_test/sabre_ai_rev_b/libsdk_unit_test.a(mem_2_mem.o)
                                                  /home/leon/git/swp-report/iMX6_Platform_SDK/output/mx6sdl/sdk_unit_test/sabre_ai_rev_b/libsdk_unit_test.a(uart_loopback.o)
                                                  /home/leon/git/swp-report/iMX6_Platform_SDK/output/mx6sdl/sdk_unit_test/sabre_ai_rev_b/libsdk_unit_test.a(spi_lpb.o)
sdma_setup_interrupt                              /home/leon/git/swp-report/iMX6_Platform_SDK/output/mx6sdl/lib/libsdk.a(sdma.o)
                                                  /home/leon/git/swp-report/iMX6_Platform_SDK/output/mx6sdl/sdk_unit_test/sabre_ai_rev_b/libsdk_unit_test.a(uart_loopback.o)
sdma_test                                         /home/leon/git/swp-report/iMX6_Platform_SDK/output/mx6sdl/sdk_unit_test/sabre_ai_rev_b/libsdk_unit_test.a(sdma_test.o)
                                                  /home/leon/git/swp-report/iMX6_Platform_SDK/output/mx6sdl/sdk_unit_test/sabre_ai_rev_b/obj/apps/sdk_unit_test/src/all_test.o
search_panel                                      /home/leon/git/swp-report/iMX6_Platform_SDK/output/mx6sdl/lib/libsdk.a(ips_disp_panel.o)
                                                  /home/leon/git/swp-report/iMX6_Platform_SDK/output/mx6sdl/sdk_unit_test/sabre_ai_rev_b/libsdk_unit_test.a(adv7180_capture.o)
                                                  /home/leon/git/swp-report/iMX6_Platform_SDK/output/mx6sdl/sdk_unit_test/sabre_ai_rev_b/libsdk_unit_test.a(mipi_csi2_test.o)
                                                  /home/leon/git/swp-report/iMX6_Platform_SDK/output/mx6sdl/sdk_unit_test/sabre_ai_rev_b/libsdk_unit_test.a(csi_test_mode.o)
                                                  /home/leon/git/swp-report/iMX6_Platform_SDK/output/mx6sdl/sdk_unit_test/sabre_ai_rev_b/libsdk_unit_test.a(ips_test.o)
                                                  /home/leon/git/swp-report/iMX6_Platform_SDK/output/mx6sdl/sdk_unit_test/sabre_ai_rev_b/libsdk_unit_test.a(ips_display.o)
sensor_clock_setting                              /home/leon/git/swp-report/iMX6_Platform_SDK/output/mx6sdl/lib/libboard_sabre_ai_rev_b.a(board_camera.o)
sensor_reset                                      /home/leon/git/swp-report/iMX6_Platform_SDK/output/mx6sdl/lib/libboard_sabre_ai_rev_b.a(board_camera.o)
sensor_standby                                    /home/leon/git/swp-report/iMX6_Platform_SDK/output/mx6sdl/lib/libboard_sabre_ai_rev_b.a(board_camera.o)
set_background_margin                             /home/leon/git/swp-report/iMX6_Platform_SDK/output/mx6sdl/sdk_unit_test/sabre_ai_rev_b/libsdk_unit_test.a(ipu_image.o)
                                                  /home/leon/git/swp-report/iMX6_Platform_SDK/output/mx6sdl/sdk_unit_test/sabre_ai_rev_b/libsdk_unit_test.a(ips_resize.o)
set_can_mb                                        /home/leon/git/swp-report/iMX6_Platform_SDK/output/mx6sdl/lib/libsdk.a(can.o)
                                                  /home/leon/git/swp-report/iMX6_Platform_SDK/output/mx6sdl/sdk_unit_test/sabre_ai_rev_b/libsdk_unit_test.a(can_test.o)
set_card_access_mode                              /home/leon/git/swp-report/iMX6_Platform_SDK/output/mx6sdl/lib/libsdk.a(usdhc.o)
                                                  /home/leon/git/swp-report/iMX6_Platform_SDK/output/mx6sdl/sdk_unit_test/sabre_ai_rev_b/libsdk_unit_test.a(usdhc_test.o)
setlocale                                         /home/leon/riotboard/arm-2012.09/bin/../arm-none-eabi/lib//libc.a(lib_a-locale.o)
show_board_id                                     /home/leon/git/swp-report/iMX6_Platform_SDK/output/mx6sdl/lib/libsdk.a(board_id.o)
show_ddr_config                                   /home/leon/git/swp-report/iMX6_Platform_SDK/output/mx6sdl/sdk_unit_test/sabre_ai_rev_b/obj/apps/common/print_clock_info.o
                                                  /home/leon/git/swp-report/iMX6_Platform_SDK/output/mx6sdl/sdk_unit_test/sabre_ai_rev_b/obj/apps/sdk_unit_test/src/unit_test_main.o
show_freq                                         /home/leon/git/swp-report/iMX6_Platform_SDK/output/mx6sdl/sdk_unit_test/sabre_ai_rev_b/obj/apps/common/print_clock_info.o
                                                  /home/leon/git/swp-report/iMX6_Platform_SDK/output/mx6sdl/sdk_unit_test/sabre_ai_rev_b/obj/apps/sdk_unit_test/src/unit_test_main.o
signal                                            /home/leon/riotboard/arm-2012.09/bin/../arm-none-eabi/lib//libc.a(lib_a-signal.o)
sinf                                              /home/leon/riotboard/arm-2012.09/bin/../arm-none-eabi/lib//libm.a(lib_a-sf_sin.o)
                                                  /home/leon/git/swp-report/iMX6_Platform_SDK/output/mx6sdl/sdk_unit_test/sabre_ai_rev_b/libsdk_unit_test.a(usb0_device_mouse_test.o)
sjc_iomux_config                                  /home/leon/git/swp-report/iMX6_Platform_SDK/output/mx6sdl/lib/libboard_sabre_ai_rev_b.a(sjc_iomux_config.o)
                                                  /home/leon/git/swp-report/iMX6_Platform_SDK/output/mx6sdl/lib/libboard_sabre_ai_rev_b.a(iomux_config.o)
snvs_deinit                                       /home/leon/git/swp-report/iMX6_Platform_SDK/output/mx6sdl/lib/libsdk.a(snvs.o)
                                                  /home/leon/git/swp-report/iMX6_Platform_SDK/output/mx6sdl/lib/libsdk.a(srtc.o)
                                                  /home/leon/git/swp-report/iMX6_Platform_SDK/output/mx6sdl/lib/libsdk.a(rtc.o)
snvs_init                                         /home/leon/git/swp-report/iMX6_Platform_SDK/output/mx6sdl/lib/libsdk.a(snvs.o)
                                                  /home/leon/git/swp-report/iMX6_Platform_SDK/output/mx6sdl/lib/libsdk.a(srtc.o)
                                                  /home/leon/git/swp-report/iMX6_Platform_SDK/output/mx6sdl/lib/libsdk.a(rtc.o)
snvs_iomux_config                                 /home/leon/git/swp-report/iMX6_Platform_SDK/output/mx6sdl/lib/libboard_sabre_ai_rev_b.a(iomux_config.o)
snvs_rtc_alarm                                    /home/leon/git/swp-report/iMX6_Platform_SDK/output/mx6sdl/lib/libsdk.a(snvs.o)
                                                  /home/leon/git/swp-report/iMX6_Platform_SDK/output/mx6sdl/lib/libsdk.a(rtc.o)
snvs_rtc_counter                                  /home/leon/git/swp-report/iMX6_Platform_SDK/output/mx6sdl/lib/libsdk.a(snvs.o)
                                                  /home/leon/git/swp-report/iMX6_Platform_SDK/output/mx6sdl/lib/libsdk.a(rtc.o)
snvs_rtc_interrupt_handler                        /home/leon/git/swp-report/iMX6_Platform_SDK/output/mx6sdl/lib/libsdk.a(rtc.o)
snvs_rtc_periodic_interrupt                       /home/leon/git/swp-report/iMX6_Platform_SDK/output/mx6sdl/lib/libsdk.a(snvs.o)
                                                  /home/leon/git/swp-report/iMX6_Platform_SDK/output/mx6sdl/lib/libsdk.a(rtc.o)
snvs_rtc_set_alarm_timeout                        /home/leon/git/swp-report/iMX6_Platform_SDK/output/mx6sdl/lib/libsdk.a(snvs.o)
                                                  /home/leon/git/swp-report/iMX6_Platform_SDK/output/mx6sdl/lib/libsdk.a(rtc.o)
snvs_rtc_set_counter                              /home/leon/git/swp-report/iMX6_Platform_SDK/output/mx6sdl/lib/libsdk.a(snvs.o)
                                                  /home/leon/git/swp-report/iMX6_Platform_SDK/output/mx6sdl/lib/libsdk.a(rtc.o)
snvs_rtc_setup_interrupt                          /home/leon/git/swp-report/iMX6_Platform_SDK/output/mx6sdl/lib/libsdk.a(rtc.o)
snvs_rtc_test                                     /home/leon/git/swp-report/iMX6_Platform_SDK/output/mx6sdl/sdk_unit_test/sabre_ai_rev_b/libsdk_unit_test.a(snvs_rtc_test.o)
                                                  /home/leon/git/swp-report/iMX6_Platform_SDK/output/mx6sdl/sdk_unit_test/sabre_ai_rev_b/obj/apps/sdk_unit_test/src/all_test.o
snvs_srtc_alarm                                   /home/leon/git/swp-report/iMX6_Platform_SDK/output/mx6sdl/lib/libsdk.a(snvs.o)
                                                  /home/leon/git/swp-report/iMX6_Platform_SDK/output/mx6sdl/lib/libsdk.a(srtc.o)
snvs_srtc_counter                                 /home/leon/git/swp-report/iMX6_Platform_SDK/output/mx6sdl/lib/libsdk.a(snvs.o)
                                                  /home/leon/git/swp-report/iMX6_Platform_SDK/output/mx6sdl/lib/libsdk.a(srtc.o)
snvs_srtc_interrupt_handler                       /home/leon/git/swp-report/iMX6_Platform_SDK/output/mx6sdl/lib/libsdk.a(srtc.o)
snvs_srtc_set_alarm_timeout                       /home/leon/git/swp-report/iMX6_Platform_SDK/output/mx6sdl/lib/libsdk.a(snvs.o)
                                                  /home/leon/git/swp-report/iMX6_Platform_SDK/output/mx6sdl/lib/libsdk.a(srtc.o)
snvs_srtc_set_counter                             /home/leon/git/swp-report/iMX6_Platform_SDK/output/mx6sdl/lib/libsdk.a(snvs.o)
                                                  /home/leon/git/swp-report/iMX6_Platform_SDK/output/mx6sdl/lib/libsdk.a(srtc.o)
snvs_srtc_setup_interrupt                         /home/leon/git/swp-report/iMX6_Platform_SDK/output/mx6sdl/lib/libsdk.a(srtc.o)
snvs_srtc_test                                    /home/leon/git/swp-report/iMX6_Platform_SDK/output/mx6sdl/sdk_unit_test/sabre_ai_rev_b/libsdk_unit_test.a(snvs_srtc_test.o)
                                                  /home/leon/git/swp-report/iMX6_Platform_SDK/output/mx6sdl/sdk_unit_test/sabre_ai_rev_b/obj/apps/sdk_unit_test/src/all_test.o
spdif_iomux_config                                /home/leon/git/swp-report/iMX6_Platform_SDK/output/mx6sdl/lib/libboard_sabre_ai_rev_b.a(spdif_iomux_config.o)
                                                  /home/leon/git/swp-report/iMX6_Platform_SDK/output/mx6sdl/lib/libboard_sabre_ai_rev_b.a(iomux_config.o)
spi_nor_erase_numonyx                             /home/leon/git/swp-report/iMX6_Platform_SDK/output/mx6sdl/sdk_unit_test/sabre_ai_rev_b/libsdk_unit_test.a(spi_nor_numonyx.o)
                                                  /home/leon/git/swp-report/iMX6_Platform_SDK/output/mx6sdl/sdk_unit_test/sabre_ai_rev_b/libsdk_unit_test.a(spi_test.o)
spi_nor_query_numonyx                             /home/leon/git/swp-report/iMX6_Platform_SDK/output/mx6sdl/sdk_unit_test/sabre_ai_rev_b/libsdk_unit_test.a(spi_nor_numonyx.o)
                                                  /home/leon/git/swp-report/iMX6_Platform_SDK/output/mx6sdl/sdk_unit_test/sabre_ai_rev_b/libsdk_unit_test.a(spi_test.o)
spi_nor_read_numonyx                              /home/leon/git/swp-report/iMX6_Platform_SDK/output/mx6sdl/sdk_unit_test/sabre_ai_rev_b/libsdk_unit_test.a(spi_nor_numonyx.o)
                                                  /home/leon/git/swp-report/iMX6_Platform_SDK/output/mx6sdl/sdk_unit_test/sabre_ai_rev_b/libsdk_unit_test.a(spi_test.o)
spi_nor_write_numonyx                             /home/leon/git/swp-report/iMX6_Platform_SDK/output/mx6sdl/sdk_unit_test/sabre_ai_rev_b/libsdk_unit_test.a(spi_nor_numonyx.o)
                                                  /home/leon/git/swp-report/iMX6_Platform_SDK/output/mx6sdl/sdk_unit_test/sabre_ai_rev_b/libsdk_unit_test.a(spi_test.o)
spi_test                                          /home/leon/git/swp-report/iMX6_Platform_SDK/output/mx6sdl/sdk_unit_test/sabre_ai_rev_b/libsdk_unit_test.a(spi_test.o)
                                                  /home/leon/git/swp-report/iMX6_Platform_SDK/output/mx6sdl/sdk_unit_test/sabre_ai_rev_b/obj/apps/sdk_unit_test/src/all_test.o
sprintf                                           /home/leon/riotboard/arm-2012.09/bin/../arm-none-eabi/lib//libc.a(lib_a-sprintf.o)
                                                  /home/leon/riotboard/arm-2012.09/bin/../arm-none-eabi/lib//libstdc++.a(cp-demangle.o)
                                                  /home/leon/git/swp-report/iMX6_Platform_SDK/output/mx6sdl/sdk_unit_test/sabre_ai_rev_b/libsdk_unit_test.a(accelerometer_test.o)
                                                  /home/leon/git/swp-report/iMX6_Platform_SDK/output/mx6sdl/lib/libsdk.a(board_id.o)
src_iomux_config                                  /home/leon/git/swp-report/iMX6_Platform_SDK/output/mx6sdl/lib/libboard_sabre_ai_rev_b.a(iomux_config.o)
srtc_deinit                                       /home/leon/git/swp-report/iMX6_Platform_SDK/output/mx6sdl/lib/libsdk.a(srtc.o)
                                                  /home/leon/git/swp-report/iMX6_Platform_SDK/output/mx6sdl/sdk_unit_test/sabre_ai_rev_b/libsdk_unit_test.a(snvs_srtc_test.o)
srtc_init                                         /home/leon/git/swp-report/iMX6_Platform_SDK/output/mx6sdl/lib/libsdk.a(srtc.o)
                                                  /home/leon/git/swp-report/iMX6_Platform_SDK/output/mx6sdl/sdk_unit_test/sabre_ai_rev_b/libsdk_unit_test.a(snvs_srtc_test.o)
srtc_one_time_tick_callback                       /home/leon/git/swp-report/iMX6_Platform_SDK/output/mx6sdl/sdk_unit_test/sabre_ai_rev_b/libsdk_unit_test.a(snvs_srtc_test.o)
srtc_one_time_timer_test                          /home/leon/git/swp-report/iMX6_Platform_SDK/output/mx6sdl/sdk_unit_test/sabre_ai_rev_b/libsdk_unit_test.a(snvs_srtc_test.o)
srtc_setup_onetime_timer                          /home/leon/git/swp-report/iMX6_Platform_SDK/output/mx6sdl/lib/libsdk.a(srtc.o)
                                                  /home/leon/git/swp-report/iMX6_Platform_SDK/output/mx6sdl/sdk_unit_test/sabre_ai_rev_b/libsdk_unit_test.a(snvs_srtc_test.o)
std::bad_exception::what() const                  /home/leon/riotboard/arm-2012.09/bin/../arm-none-eabi/lib//libstdc++.a(eh_exception.o)
std::bad_exception::~bad_exception()              /home/leon/riotboard/arm-2012.09/bin/../arm-none-eabi/lib//libstdc++.a(eh_exception.o)
std::bad_exception::~bad_exception()              /home/leon/riotboard/arm-2012.09/bin/../arm-none-eabi/lib//libstdc++.a(eh_exception.o)
                                                  /home/leon/riotboard/arm-2012.09/bin/../arm-none-eabi/lib//libstdc++.a(eh_call.o)
std::bad_exception::~bad_exception()              /home/leon/riotboard/arm-2012.09/bin/../arm-none-eabi/lib//libstdc++.a(eh_exception.o)
std::exception::what() const                      /home/leon/riotboard/arm-2012.09/bin/../arm-none-eabi/lib//libstdc++.a(eh_exception.o)
std::exception::~exception()                      /home/leon/riotboard/arm-2012.09/bin/../arm-none-eabi/lib//libstdc++.a(eh_exception.o)
std::exception::~exception()                      /home/leon/riotboard/arm-2012.09/bin/../arm-none-eabi/lib//libstdc++.a(eh_exception.o)
std::exception::~exception()                      /home/leon/riotboard/arm-2012.09/bin/../arm-none-eabi/lib//libstdc++.a(eh_exception.o)
std::set_terminate(void (*)())                    /home/leon/riotboard/arm-2012.09/bin/../arm-none-eabi/lib//libstdc++.a(eh_terminate.o)
std::set_unexpected(void (*)())                   /home/leon/riotboard/arm-2012.09/bin/../arm-none-eabi/lib//libstdc++.a(eh_terminate.o)
std::terminate()                                  /home/leon/riotboard/arm-2012.09/bin/../arm-none-eabi/lib//libstdc++.a(eh_terminate.o)
                                                  /home/leon/riotboard/arm-2012.09/bin/../arm-none-eabi/lib//libstdc++.a(eh_catch.o)
                                                  /home/leon/riotboard/arm-2012.09/bin/../arm-none-eabi/lib//libstdc++.a(eh_personality.o)
                                                  /home/leon/riotboard/arm-2012.09/bin/../arm-none-eabi/lib//libstdc++.a(eh_alloc.o)
                                                  /home/leon/riotboard/arm-2012.09/bin/../arm-none-eabi/lib//libstdc++.a(eh_arm.o)
                                                  /home/leon/riotboard/arm-2012.09/bin/../arm-none-eabi/lib//libstdc++.a(eh_throw.o)
                                                  /home/leon/riotboard/arm-2012.09/bin/../arm-none-eabi/lib//libstdc++.a(eh_call.o)
                                                  /home/leon/riotboard/arm-2012.09/bin/../arm-none-eabi/lib//libstdc++.a(eh_unex_handler.o)
                                                  /home/leon/riotboard/arm-2012.09/bin/../arm-none-eabi/lib//libstdc++.a(pure.o)
std::type_info::__do_catch(std::type_info const*, void**, unsigned int) const /home/leon/riotboard/arm-2012.09/bin/../arm-none-eabi/lib//libstdc++.a(tinfo.o)
std::type_info::__do_upcast(__cxxabiv1::__class_type_info const*, void**) const /home/leon/riotboard/arm-2012.09/bin/../arm-none-eabi/lib//libstdc++.a(tinfo.o)
std::type_info::__is_function_p() const           /home/leon/riotboard/arm-2012.09/bin/../arm-none-eabi/lib//libstdc++.a(tinfo.o)
                                                  /home/leon/riotboard/arm-2012.09/bin/../arm-none-eabi/lib//libstdc++.a(class_type_info.o)
                                                  /home/leon/riotboard/arm-2012.09/bin/../arm-none-eabi/lib//libstdc++.a(si_class_type_info.o)
std::type_info::__is_pointer_p() const            /home/leon/riotboard/arm-2012.09/bin/../arm-none-eabi/lib//libstdc++.a(tinfo.o)
                                                  /home/leon/riotboard/arm-2012.09/bin/../arm-none-eabi/lib//libstdc++.a(class_type_info.o)
                                                  /home/leon/riotboard/arm-2012.09/bin/../arm-none-eabi/lib//libstdc++.a(si_class_type_info.o)
std::type_info::operator==(std::type_info const&) const /home/leon/riotboard/arm-2012.09/bin/../arm-none-eabi/lib//libstdc++.a(tinfo.o)
                                                  /home/leon/riotboard/arm-2012.09/bin/../arm-none-eabi/lib//libstdc++.a(class_type_info.o)
                                                  /home/leon/riotboard/arm-2012.09/bin/../arm-none-eabi/lib//libstdc++.a(si_class_type_info.o)
std::type_info::~type_info()                      /home/leon/riotboard/arm-2012.09/bin/../arm-none-eabi/lib//libstdc++.a(tinfo.o)
std::type_info::~type_info()                      /home/leon/riotboard/arm-2012.09/bin/../arm-none-eabi/lib//libstdc++.a(tinfo.o)
std::type_info::~type_info()                      /home/leon/riotboard/arm-2012.09/bin/../arm-none-eabi/lib//libstdc++.a(tinfo.o)
                                                  /home/leon/riotboard/arm-2012.09/bin/../arm-none-eabi/lib//libstdc++.a(class_type_info.o)
std::uncaught_exception()                         /home/leon/riotboard/arm-2012.09/bin/../arm-none-eabi/lib//libstdc++.a(eh_catch.o)
std::unexpected()                                 /home/leon/riotboard/arm-2012.09/bin/../arm-none-eabi/lib//libstdc++.a(eh_terminate.o)
                                                  /home/leon/riotboard/arm-2012.09/bin/../arm-none-eabi/lib//libstdc++.a(eh_personality.o)
                                                  /home/leon/riotboard/arm-2012.09/bin/../arm-none-eabi/lib//libstdc++.a(eh_call.o)
strcmp                                            /home/leon/riotboard/arm-2012.09/bin/../arm-none-eabi/lib//libc.a(lib_a-strcmp.o)
                                                  /home/leon/riotboard/arm-2012.09/bin/../arm-none-eabi/lib//libstdc++.a(tinfo.o)
                                                  /home/leon/riotboard/arm-2012.09/bin/../arm-none-eabi/lib//libstdc++.a(cp-demangle.o)
                                                  /home/leon/git/swp-report/iMX6_Platform_SDK/output/mx6sdl/lib/libboard_sabre_ai_rev_b.a(board_display.o)
                                                  /home/leon/git/swp-report/iMX6_Platform_SDK/output/mx6sdl/lib/libsdk.a(ipu_ic.o)
                                                  /home/leon/git/swp-report/iMX6_Platform_SDK/output/mx6sdl/lib/libsdk.a(ips_disp_panel.o)
                                                  /home/leon/riotboard/arm-2012.09/bin/../arm-none-eabi/lib//libc.a(lib_a-locale.o)
strlen                                            /home/leon/riotboard/arm-2012.09/bin/../arm-none-eabi/lib//libc.a(lib_a-strlen.o)
                                                  /home/leon/riotboard/arm-2012.09/bin/../arm-none-eabi/lib//libstdc++.a(cp-demangle.o)
                                                  /home/leon/git/swp-report/iMX6_Platform_SDK/output/mx6sdl/lib/libsdk.a(runtime_support.o)
                                                  /home/leon/riotboard/arm-2012.09/bin/../arm-none-eabi/lib//libc.a(lib_a-svfiprintf.o)
                                                  /home/leon/riotboard/arm-2012.09/bin/../arm-none-eabi/lib//libc.a(lib_a-vfprintf.o)
                                                  /home/leon/riotboard/arm-2012.09/bin/../arm-none-eabi/lib//libc.a(lib_a-vfiprintf.o)
                                                  /home/leon/riotboard/arm-2012.09/bin/../arm-none-eabi/lib//libc.a(lib_a-svfprintf.o)
                                                  /home/leon/riotboard/arm-2012.09/bin/../arm-none-eabi/lib//libc.a(lib_a-puts.o)
                                                  /home/leon/riotboard/arm-2012.09/bin/../arm-none-eabi/lib//libc.a(lib_a-fputs.o)
                                                  /home/leon/git/swp-report/iMX6_Platform_SDK/output/mx6sdl/sdk_unit_test/sabre_ai_rev_b/libsdk_unit_test.a(accelerometer_test.o)
                                                  /home/leon/git/swp-report/iMX6_Platform_SDK/output/mx6sdl/lib/libsdk.a(menu.o)
strncasecmp                                       /home/leon/riotboard/arm-2012.09/bin/../arm-none-eabi/lib//libc.a(lib_a-strncasecmp.o)
                                                  /home/leon/git/swp-report/iMX6_Platform_SDK/output/mx6sdl/lib/libsdk.a(menu.o)
strncmp                                           /home/leon/riotboard/arm-2012.09/bin/../arm-none-eabi/lib//libc.a(lib_a-strncmp.o)
                                                  /home/leon/riotboard/arm-2012.09/bin/../arm-none-eabi/lib//libstdc++.a(cp-demangle.o)
swap32                                            /home/leon/git/swp-report/iMX6_Platform_SDK/output/mx6sdl/lib/libsdk.a(usb_common.o)
system_time_init                                  /home/leon/git/swp-report/iMX6_Platform_SDK/output/mx6sdl/lib/libsdk.a(timer.o)
                                                  /home/leon/git/swp-report/iMX6_Platform_SDK/output/mx6sdl/sdk_unit_test/sabre_ai_rev_b/obj/apps/common/platform_init.o
tempmon_disable_alarm                             /home/leon/git/swp-report/iMX6_Platform_SDK/output/mx6sdl/lib/libsdk.a(tempmon.o)
                                                  /home/leon/git/swp-report/iMX6_Platform_SDK/output/mx6sdl/sdk_unit_test/sabre_ai_rev_b/libsdk_unit_test.a(tempmon_test.o)
tempmon_get_temp                                  /home/leon/git/swp-report/iMX6_Platform_SDK/output/mx6sdl/lib/libsdk.a(tempmon.o)
                                                  /home/leon/git/swp-report/iMX6_Platform_SDK/output/mx6sdl/sdk_unit_test/sabre_ai_rev_b/libsdk_unit_test.a(tempmon_test.o)
tempmon_init                                      /home/leon/git/swp-report/iMX6_Platform_SDK/output/mx6sdl/lib/libsdk.a(tempmon.o)
                                                  /home/leon/git/swp-report/iMX6_Platform_SDK/output/mx6sdl/sdk_unit_test/sabre_ai_rev_b/libsdk_unit_test.a(tempmon_test.o)
tempmon_set_alarm                                 /home/leon/git/swp-report/iMX6_Platform_SDK/output/mx6sdl/lib/libsdk.a(tempmon.o)
                                                  /home/leon/git/swp-report/iMX6_Platform_SDK/output/mx6sdl/sdk_unit_test/sabre_ai_rev_b/libsdk_unit_test.a(tempmon_test.o)
tempmon_test                                      /home/leon/git/swp-report/iMX6_Platform_SDK/output/mx6sdl/sdk_unit_test/sabre_ai_rev_b/libsdk_unit_test.a(tempmon_test.o)
                                                  /home/leon/git/swp-report/iMX6_Platform_SDK/output/mx6sdl/sdk_unit_test/sabre_ai_rev_b/obj/apps/sdk_unit_test/src/all_test.o
tftlcd_backlight_en                               /home/leon/git/swp-report/iMX6_Platform_SDK/output/mx6sdl/lib/libboard_sabre_ai_rev_b.a(board_display.o)
                                                  /home/leon/git/swp-report/iMX6_Platform_SDK/output/mx6sdl/lib/libsdk.a(ips_disp_panel.o)
tftlcd_reset                                      /home/leon/git/swp-report/iMX6_Platform_SDK/output/mx6sdl/lib/libboard_sabre_ai_rev_b.a(board_display.o)
                                                  /home/leon/git/swp-report/iMX6_Platform_SDK/output/mx6sdl/lib/libsdk.a(ips_disp_panel.o)
time_get_microseconds                             /home/leon/git/swp-report/iMX6_Platform_SDK/output/mx6sdl/lib/libsdk.a(timer.o)
                                                  /home/leon/git/swp-report/iMX6_Platform_SDK/output/mx6sdl/lib/libsdk.a(runtime_support.o)
                                                  /home/leon/git/swp-report/iMX6_Platform_SDK/output/mx6sdl/sdk_unit_test/sabre_ai_rev_b/libsdk_unit_test.a(timer_test.o)
top_of_stacks                                     /home/leon/git/swp-report/iMX6_Platform_SDK/output/mx6sdl/lib/libsdk.a(startup.o)
trans_done                                        /home/leon/git/swp-report/iMX6_Platform_SDK/output/mx6sdl/sdk_unit_test/sabre_ai_rev_b/libsdk_unit_test.a(uart_loopback.o)
typeinfo for __cxxabiv1::__class_type_info        /home/leon/riotboard/arm-2012.09/bin/../arm-none-eabi/lib//libstdc++.a(class_type_info.o)
                                                  /home/leon/riotboard/arm-2012.09/bin/../arm-none-eabi/lib//libstdc++.a(si_class_type_info.o)
typeinfo for __cxxabiv1::__forced_unwind          /home/leon/riotboard/arm-2012.09/bin/../arm-none-eabi/lib//libstdc++.a(eh_exception.o)
                                                  /home/leon/riotboard/arm-2012.09/bin/../arm-none-eabi/lib//libstdc++.a(eh_arm.o)
typeinfo for __cxxabiv1::__foreign_exception      /home/leon/riotboard/arm-2012.09/bin/../arm-none-eabi/lib//libstdc++.a(eh_exception.o)
                                                  /home/leon/riotboard/arm-2012.09/bin/../arm-none-eabi/lib//libstdc++.a(eh_arm.o)
typeinfo for __cxxabiv1::__si_class_type_info     /home/leon/riotboard/arm-2012.09/bin/../arm-none-eabi/lib//libstdc++.a(si_class_type_info.o)
typeinfo for std::bad_exception                   /home/leon/riotboard/arm-2012.09/bin/../arm-none-eabi/lib//libstdc++.a(eh_exception.o)
                                                  /home/leon/riotboard/arm-2012.09/bin/../arm-none-eabi/lib//libstdc++.a(eh_call.o)
typeinfo for std::exception                       /home/leon/riotboard/arm-2012.09/bin/../arm-none-eabi/lib//libstdc++.a(eh_exception.o)
                                                  /home/leon/riotboard/arm-2012.09/bin/../arm-none-eabi/lib//libstdc++.a(vterminate.o)
typeinfo for std::type_info                       /home/leon/riotboard/arm-2012.09/bin/../arm-none-eabi/lib//libstdc++.a(tinfo.o)
                                                  /home/leon/riotboard/arm-2012.09/bin/../arm-none-eabi/lib//libstdc++.a(class_type_info.o)
typeinfo name for __cxxabiv1::__class_type_info   /home/leon/riotboard/arm-2012.09/bin/../arm-none-eabi/lib//libstdc++.a(class_type_info.o)
typeinfo name for __cxxabiv1::__forced_unwind     /home/leon/riotboard/arm-2012.09/bin/../arm-none-eabi/lib//libstdc++.a(eh_exception.o)
typeinfo name for __cxxabiv1::__foreign_exception /home/leon/riotboard/arm-2012.09/bin/../arm-none-eabi/lib//libstdc++.a(eh_exception.o)
typeinfo name for __cxxabiv1::__si_class_type_info /home/leon/riotboard/arm-2012.09/bin/../arm-none-eabi/lib//libstdc++.a(si_class_type_info.o)
typeinfo name for std::bad_exception              /home/leon/riotboard/arm-2012.09/bin/../arm-none-eabi/lib//libstdc++.a(eh_exception.o)
typeinfo name for std::exception                  /home/leon/riotboard/arm-2012.09/bin/../arm-none-eabi/lib//libstdc++.a(eh_exception.o)
typeinfo name for std::type_info                  /home/leon/riotboard/arm-2012.09/bin/../arm-none-eabi/lib//libstdc++.a(tinfo.o)
uart1_iomux_config                                /home/leon/git/swp-report/iMX6_Platform_SDK/output/mx6sdl/lib/libboard_sabre_ai_rev_b.a(iomux_config.o)
                                                  /home/leon/git/swp-report/iMX6_Platform_SDK/output/mx6sdl/lib/libboard_sabre_ai_rev_b.a(uart_iomux_config.o)
uart2_iomux_config                                /home/leon/git/swp-report/iMX6_Platform_SDK/output/mx6sdl/lib/libboard_sabre_ai_rev_b.a(uart2_iomux_config.o)
                                                  /home/leon/git/swp-report/iMX6_Platform_SDK/output/mx6sdl/lib/libboard_sabre_ai_rev_b.a(iomux_config.o)
                                                  /home/leon/git/swp-report/iMX6_Platform_SDK/output/mx6sdl/lib/libboard_sabre_ai_rev_b.a(uart_iomux_config.o)
uart3_iomux_config                                /home/leon/git/swp-report/iMX6_Platform_SDK/output/mx6sdl/lib/libboard_sabre_ai_rev_b.a(uart3_iomux_config.o)
                                                  /home/leon/git/swp-report/iMX6_Platform_SDK/output/mx6sdl/lib/libboard_sabre_ai_rev_b.a(iomux_config.o)
                                                  /home/leon/git/swp-report/iMX6_Platform_SDK/output/mx6sdl/lib/libboard_sabre_ai_rev_b.a(uart_iomux_config.o)
uart4_iomux_config                                /home/leon/git/swp-report/iMX6_Platform_SDK/output/mx6sdl/lib/libboard_sabre_ai_rev_b.a(uart4_iomux_config.o)
                                                  /home/leon/git/swp-report/iMX6_Platform_SDK/output/mx6sdl/lib/libboard_sabre_ai_rev_b.a(iomux_config.o)
                                                  /home/leon/git/swp-report/iMX6_Platform_SDK/output/mx6sdl/lib/libboard_sabre_ai_rev_b.a(uart_iomux_config.o)
uart5_iomux_config                                /home/leon/git/swp-report/iMX6_Platform_SDK/output/mx6sdl/lib/libboard_sabre_ai_rev_b.a(iomux_config.o)
                                                  /home/leon/git/swp-report/iMX6_Platform_SDK/output/mx6sdl/lib/libboard_sabre_ai_rev_b.a(uart_iomux_config.o)
uart5_trans_isr                                   /home/leon/git/swp-report/iMX6_Platform_SDK/output/mx6sdl/sdk_unit_test/sabre_ai_rev_b/libsdk_unit_test.a(uart_loopback.o)
uart_app_interrupt_test                           /home/leon/git/swp-report/iMX6_Platform_SDK/output/mx6sdl/sdk_unit_test/sabre_ai_rev_b/libsdk_unit_test.a(uart_loopback.o)
                                                  /home/leon/git/swp-report/iMX6_Platform_SDK/output/mx6sdl/sdk_unit_test/sabre_ai_rev_b/libsdk_unit_test.a(sdma_test.o)
uart_app_test                                     /home/leon/git/swp-report/iMX6_Platform_SDK/output/mx6sdl/sdk_unit_test/sabre_ai_rev_b/libsdk_unit_test.a(uart_loopback.o)
                                                  /home/leon/git/swp-report/iMX6_Platform_SDK/output/mx6sdl/sdk_unit_test/sabre_ai_rev_b/libsdk_unit_test.a(sdma_test.o)
uart_get_reffreq                                  /home/leon/git/swp-report/iMX6_Platform_SDK/output/mx6sdl/lib/libsdk.a(imx_uart.o)
uart_getchar                                      /home/leon/git/swp-report/iMX6_Platform_SDK/output/mx6sdl/lib/libsdk.a(imx_uart.o)
                                                  /home/leon/git/swp-report/iMX6_Platform_SDK/output/mx6sdl/lib/libsdk.a(runtime_support.o)
                                                  /home/leon/git/swp-report/iMX6_Platform_SDK/output/mx6sdl/sdk_unit_test/sabre_ai_rev_b/libsdk_unit_test.a(csi_test_mode.o)
                                                  /home/leon/git/swp-report/iMX6_Platform_SDK/output/mx6sdl/sdk_unit_test/sabre_ai_rev_b/libsdk_unit_test.a(uart_test.o)
                                                  /home/leon/git/swp-report/iMX6_Platform_SDK/output/mx6sdl/lib/libsdk.a(system_util.o)
                                                  /home/leon/git/swp-report/iMX6_Platform_SDK/output/mx6sdl/sdk_unit_test/sabre_ai_rev_b/obj/apps/common/platform_init.o
uart_init                                         /home/leon/git/swp-report/iMX6_Platform_SDK/output/mx6sdl/lib/libsdk.a(imx_uart.o)
                                                  /home/leon/git/swp-report/iMX6_Platform_SDK/output/mx6sdl/sdk_unit_test/sabre_ai_rev_b/libsdk_unit_test.a(uart_test.o)
                                                  /home/leon/git/swp-report/iMX6_Platform_SDK/output/mx6sdl/sdk_unit_test/sabre_ai_rev_b/libsdk_unit_test.a(uart_loopback.o)
                                                  /home/leon/git/swp-report/iMX6_Platform_SDK/output/mx6sdl/sdk_unit_test/sabre_ai_rev_b/obj/apps/common/platform_init.o
uart_interrupt_handler                            /home/leon/git/swp-report/iMX6_Platform_SDK/output/mx6sdl/sdk_unit_test/sabre_ai_rev_b/libsdk_unit_test.a(uart_test.o)
uart_iomux_config                                 /home/leon/git/swp-report/iMX6_Platform_SDK/output/mx6sdl/lib/libboard_sabre_ai_rev_b.a(uart_iomux_config.o)
                                                  /home/leon/git/swp-report/iMX6_Platform_SDK/output/mx6sdl/lib/libsdk.a(imx_uart.o)
uart_putchar                                      /home/leon/git/swp-report/iMX6_Platform_SDK/output/mx6sdl/lib/libsdk.a(imx_uart.o)
                                                  /home/leon/git/swp-report/iMX6_Platform_SDK/output/mx6sdl/lib/libsdk.a(runtime_support.o)
                                                  /home/leon/git/swp-report/iMX6_Platform_SDK/output/mx6sdl/sdk_unit_test/sabre_ai_rev_b/libsdk_unit_test.a(uart_test.o)
uart_set_FIFO_mode                                /home/leon/git/swp-report/iMX6_Platform_SDK/output/mx6sdl/lib/libsdk.a(imx_uart.o)
                                                  /home/leon/git/swp-report/iMX6_Platform_SDK/output/mx6sdl/sdk_unit_test/sabre_ai_rev_b/libsdk_unit_test.a(uart_test.o)
                                                  /home/leon/git/swp-report/iMX6_Platform_SDK/output/mx6sdl/sdk_unit_test/sabre_ai_rev_b/libsdk_unit_test.a(uart_loopback.o)
uart_set_loopback_mode                            /home/leon/git/swp-report/iMX6_Platform_SDK/output/mx6sdl/lib/libsdk.a(imx_uart.o)
                                                  /home/leon/git/swp-report/iMX6_Platform_SDK/output/mx6sdl/sdk_unit_test/sabre_ai_rev_b/libsdk_unit_test.a(uart_test.o)
                                                  /home/leon/git/swp-report/iMX6_Platform_SDK/output/mx6sdl/sdk_unit_test/sabre_ai_rev_b/libsdk_unit_test.a(uart_loopback.o)
uart_setup_interrupt                              /home/leon/git/swp-report/iMX6_Platform_SDK/output/mx6sdl/lib/libsdk.a(imx_uart.o)
                                                  /home/leon/git/swp-report/iMX6_Platform_SDK/output/mx6sdl/sdk_unit_test/sabre_ai_rev_b/libsdk_unit_test.a(uart_test.o)
uart_shp_test                                     /home/leon/git/swp-report/iMX6_Platform_SDK/output/mx6sdl/sdk_unit_test/sabre_ai_rev_b/libsdk_unit_test.a(uart_loopback.o)
                                                  /home/leon/git/swp-report/iMX6_Platform_SDK/output/mx6sdl/sdk_unit_test/sabre_ai_rev_b/libsdk_unit_test.a(sdma_test.o)
uart_test                                         /home/leon/git/swp-report/iMX6_Platform_SDK/output/mx6sdl/sdk_unit_test/sabre_ai_rev_b/libsdk_unit_test.a(uart_test.o)
                                                  /home/leon/git/swp-report/iMX6_Platform_SDK/output/mx6sdl/sdk_unit_test/sabre_ai_rev_b/obj/apps/sdk_unit_test/src/all_test.o
update_csc_coeffs                                 /home/leon/git/swp-report/iMX6_Platform_SDK/output/mx6sdl/lib/libsdk.a(hdmi_tx.o)
usb0_device_mouse_test                            /home/leon/git/swp-report/iMX6_Platform_SDK/output/mx6sdl/sdk_unit_test/sabre_ai_rev_b/libsdk_unit_test.a(usb0_device_mouse_test.o)
                                                  /home/leon/git/swp-report/iMX6_Platform_SDK/output/mx6sdl/sdk_unit_test/sabre_ai_rev_b/libsdk_unit_test.a(usb_test.o)
usb0_host_test                                    /home/leon/git/swp-report/iMX6_Platform_SDK/output/mx6sdl/sdk_unit_test/sabre_ai_rev_b/libsdk_unit_test.a(usb0_host_test.o)
                                                  /home/leon/git/swp-report/iMX6_Platform_SDK/output/mx6sdl/sdk_unit_test/sabre_ai_rev_b/libsdk_unit_test.a(usb_test.o)
usb0_host_testmodes_test                          /home/leon/git/swp-report/iMX6_Platform_SDK/output/mx6sdl/sdk_unit_test/sabre_ai_rev_b/libsdk_unit_test.a(usb0_host_testmodes_test.o)
                                                  /home/leon/git/swp-report/iMX6_Platform_SDK/output/mx6sdl/sdk_unit_test/sabre_ai_rev_b/libsdk_unit_test.a(usb_test.o)
usbDisableVbus                                    /home/leon/git/swp-report/iMX6_Platform_SDK/output/mx6sdl/lib/libboard_sabre_ai_rev_b.a(board_usb.o)
                                                  /home/leon/git/swp-report/iMX6_Platform_SDK/output/mx6sdl/lib/libsdk.a(usbd_drv.o)
usbEnableClocks                                   /home/leon/git/swp-report/iMX6_Platform_SDK/output/mx6sdl/lib/libsdk.a(mx6x_usb.o)
                                                  /home/leon/git/swp-report/iMX6_Platform_SDK/output/mx6sdl/lib/libsdk.a(usbh_drv.o)
                                                  /home/leon/git/swp-report/iMX6_Platform_SDK/output/mx6sdl/lib/libsdk.a(usbd_drv.o)
usbEnableTransceiver                              /home/leon/git/swp-report/iMX6_Platform_SDK/output/mx6sdl/lib/libsdk.a(mx6x_usb.o)
                                                  /home/leon/git/swp-report/iMX6_Platform_SDK/output/mx6sdl/lib/libsdk.a(usbh_drv.o)
                                                  /home/leon/git/swp-report/iMX6_Platform_SDK/output/mx6sdl/lib/libsdk.a(usbd_drv.o)
usbEnableVbus                                     /home/leon/git/swp-report/iMX6_Platform_SDK/output/mx6sdl/lib/libboard_sabre_ai_rev_b.a(board_usb.o)
                                                  /home/leon/git/swp-report/iMX6_Platform_SDK/output/mx6sdl/lib/libsdk.a(usbh_drv.o)
usb_get_port_speed                                /home/leon/git/swp-report/iMX6_Platform_SDK/output/mx6sdl/lib/libsdk.a(usb_common.o)
                                                  /home/leon/git/swp-report/iMX6_Platform_SDK/output/mx6sdl/lib/libsdk.a(usbd_drv.o)
                                                  /home/leon/git/swp-report/iMX6_Platform_SDK/output/mx6sdl/sdk_unit_test/sabre_ai_rev_b/libsdk_unit_test.a(usb0_host_test.o)
                                                  /home/leon/git/swp-report/iMX6_Platform_SDK/output/mx6sdl/sdk_unit_test/sabre_ai_rev_b/libsdk_unit_test.a(usb0_device_mouse_test.o)
usb_iomux_config                                  /home/leon/git/swp-report/iMX6_Platform_SDK/output/mx6sdl/lib/libboard_sabre_ai_rev_b.a(iomux_config.o)
usb_test                                          /home/leon/git/swp-report/iMX6_Platform_SDK/output/mx6sdl/sdk_unit_test/sabre_ai_rev_b/libsdk_unit_test.a(usb_test.o)
                                                  /home/leon/git/swp-report/iMX6_Platform_SDK/output/mx6sdl/sdk_unit_test/sabre_ai_rev_b/obj/apps/sdk_unit_test/src/all_test.o
usbd_add_dtd                                      /home/leon/git/swp-report/iMX6_Platform_SDK/output/mx6sdl/lib/libsdk.a(usbd_drv.o)
                                                  /home/leon/git/swp-report/iMX6_Platform_SDK/output/mx6sdl/sdk_unit_test/sabre_ai_rev_b/libsdk_unit_test.a(usb0_device_mouse_test.o)
usbd_bus_reset                                    /home/leon/git/swp-report/iMX6_Platform_SDK/output/mx6sdl/lib/libsdk.a(usbd_drv.o)
                                                  /home/leon/git/swp-report/iMX6_Platform_SDK/output/mx6sdl/sdk_unit_test/sabre_ai_rev_b/libsdk_unit_test.a(usb0_device_mouse_test.o)
usbd_device_init                                  /home/leon/git/swp-report/iMX6_Platform_SDK/output/mx6sdl/lib/libsdk.a(usbd_drv.o)
                                                  /home/leon/git/swp-report/iMX6_Platform_SDK/output/mx6sdl/sdk_unit_test/sabre_ai_rev_b/libsdk_unit_test.a(usb0_device_mouse_test.o)
usbd_device_send_control_packet                   /home/leon/git/swp-report/iMX6_Platform_SDK/output/mx6sdl/lib/libsdk.a(usbd_drv.o)
                                                  /home/leon/git/swp-report/iMX6_Platform_SDK/output/mx6sdl/sdk_unit_test/sabre_ai_rev_b/libsdk_unit_test.a(usb0_device_mouse_test.o)
usbd_device_send_zero_len_packet                  /home/leon/git/swp-report/iMX6_Platform_SDK/output/mx6sdl/lib/libsdk.a(usbd_drv.o)
                                                  /home/leon/git/swp-report/iMX6_Platform_SDK/output/mx6sdl/sdk_unit_test/sabre_ai_rev_b/libsdk_unit_test.a(usb0_device_mouse_test.o)
usbd_dtd_init                                     /home/leon/git/swp-report/iMX6_Platform_SDK/output/mx6sdl/lib/libsdk.a(usbd_drv.o)
                                                  /home/leon/git/swp-report/iMX6_Platform_SDK/output/mx6sdl/sdk_unit_test/sabre_ai_rev_b/libsdk_unit_test.a(usb0_device_mouse_test.o)
usbd_endpoint_qh_init                             /home/leon/git/swp-report/iMX6_Platform_SDK/output/mx6sdl/lib/libsdk.a(usbd_drv.o)
                                                  /home/leon/git/swp-report/iMX6_Platform_SDK/output/mx6sdl/sdk_unit_test/sabre_ai_rev_b/libsdk_unit_test.a(usb0_device_mouse_test.o)
usbd_get_setup_packet                             /home/leon/git/swp-report/iMX6_Platform_SDK/output/mx6sdl/lib/libsdk.a(usbd_drv.o)
                                                  /home/leon/git/swp-report/iMX6_Platform_SDK/output/mx6sdl/sdk_unit_test/sabre_ai_rev_b/libsdk_unit_test.a(usb0_device_mouse_test.o)
usbd_reclaim_dtd                                  /home/leon/git/swp-report/iMX6_Platform_SDK/output/mx6sdl/lib/libsdk.a(usbd_drv.o)
                                                  /home/leon/git/swp-report/iMX6_Platform_SDK/output/mx6sdl/sdk_unit_test/sabre_ai_rev_b/libsdk_unit_test.a(usb0_device_mouse_test.o)
usbh_bus_reset                                    /home/leon/git/swp-report/iMX6_Platform_SDK/output/mx6sdl/lib/libsdk.a(usbh_drv.o)
                                                  /home/leon/git/swp-report/iMX6_Platform_SDK/output/mx6sdl/sdk_unit_test/sabre_ai_rev_b/libsdk_unit_test.a(usb0_host_test.o)
usbh_disable_Periodic_list                        /home/leon/git/swp-report/iMX6_Platform_SDK/output/mx6sdl/lib/libsdk.a(usbh_drv.o)
usbh_disable_asynchronous_schedule                /home/leon/git/swp-report/iMX6_Platform_SDK/output/mx6sdl/lib/libsdk.a(usbh_drv.o)
                                                  /home/leon/git/swp-report/iMX6_Platform_SDK/output/mx6sdl/sdk_unit_test/sabre_ai_rev_b/libsdk_unit_test.a(usb0_host_test.o)
usbh_enable_asynchronous_schedule                 /home/leon/git/swp-report/iMX6_Platform_SDK/output/mx6sdl/lib/libsdk.a(usbh_drv.o)
                                                  /home/leon/git/swp-report/iMX6_Platform_SDK/output/mx6sdl/sdk_unit_test/sabre_ai_rev_b/libsdk_unit_test.a(usb0_host_test.o)
usbh_get_config_desc                              /home/leon/git/swp-report/iMX6_Platform_SDK/output/mx6sdl/sdk_unit_test/sabre_ai_rev_b/libsdk_unit_test.a(usb0_host_test.o)
usbh_get_dev_desc                                 /home/leon/git/swp-report/iMX6_Platform_SDK/output/mx6sdl/sdk_unit_test/sabre_ai_rev_b/libsdk_unit_test.a(usb0_host_test.o)
usbh_get_interface_desc                           /home/leon/git/swp-report/iMX6_Platform_SDK/output/mx6sdl/sdk_unit_test/sabre_ai_rev_b/libsdk_unit_test.a(usb0_host_test.o)
usbh_get_report_desc                              /home/leon/git/swp-report/iMX6_Platform_SDK/output/mx6sdl/sdk_unit_test/sabre_ai_rev_b/libsdk_unit_test.a(usb0_host_test.o)
usbh_init                                         /home/leon/git/swp-report/iMX6_Platform_SDK/output/mx6sdl/lib/libsdk.a(usbh_drv.o)
                                                  /home/leon/git/swp-report/iMX6_Platform_SDK/output/mx6sdl/sdk_unit_test/sabre_ai_rev_b/libsdk_unit_test.a(usb0_host_testmodes_test.o)
                                                  /home/leon/git/swp-report/iMX6_Platform_SDK/output/mx6sdl/sdk_unit_test/sabre_ai_rev_b/libsdk_unit_test.a(usb0_host_test.o)
usbh_periodic_schedule_init                       /home/leon/git/swp-report/iMX6_Platform_SDK/output/mx6sdl/lib/libsdk.a(usbh_drv.o)
                                                  /home/leon/git/swp-report/iMX6_Platform_SDK/output/mx6sdl/sdk_unit_test/sabre_ai_rev_b/libsdk_unit_test.a(usb0_host_test.o)
usbh_qh_init                                      /home/leon/git/swp-report/iMX6_Platform_SDK/output/mx6sdl/lib/libsdk.a(usbh_drv.o)
                                                  /home/leon/git/swp-report/iMX6_Platform_SDK/output/mx6sdl/sdk_unit_test/sabre_ai_rev_b/libsdk_unit_test.a(usb0_host_test.o)
usbh_qtd_init                                     /home/leon/git/swp-report/iMX6_Platform_SDK/output/mx6sdl/lib/libsdk.a(usbh_drv.o)
                                                  /home/leon/git/swp-report/iMX6_Platform_SDK/output/mx6sdl/sdk_unit_test/sabre_ai_rev_b/libsdk_unit_test.a(usb0_host_test.o)
usbh_set_configuration                            /home/leon/git/swp-report/iMX6_Platform_SDK/output/mx6sdl/sdk_unit_test/sabre_ai_rev_b/libsdk_unit_test.a(usb0_host_test.o)
usbh_set_device_address                           /home/leon/git/swp-report/iMX6_Platform_SDK/output/mx6sdl/sdk_unit_test/sabre_ai_rev_b/libsdk_unit_test.a(usb0_host_test.o)
usdhc1_iomux_config                               /home/leon/git/swp-report/iMX6_Platform_SDK/output/mx6sdl/lib/libboard_sabre_ai_rev_b.a(usdhc1_iomux_config.o)
                                                  /home/leon/git/swp-report/iMX6_Platform_SDK/output/mx6sdl/lib/libboard_sabre_ai_rev_b.a(usdhc_iomux_config.o)
                                                  /home/leon/git/swp-report/iMX6_Platform_SDK/output/mx6sdl/lib/libboard_sabre_ai_rev_b.a(iomux_config.o)
usdhc1_isr                                        /home/leon/git/swp-report/iMX6_Platform_SDK/output/mx6sdl/lib/libsdk.a(usdhc_host.o)
                                                  /home/leon/git/swp-report/iMX6_Platform_SDK/output/mx6sdl/lib/libsdk.a(usdhc.o)
usdhc2_iomux_config                               /home/leon/git/swp-report/iMX6_Platform_SDK/output/mx6sdl/lib/libboard_sabre_ai_rev_b.a(iomux_config.o)
                                                  /home/leon/git/swp-report/iMX6_Platform_SDK/output/mx6sdl/lib/libboard_sabre_ai_rev_b.a(usdhc_iomux_config.o)
usdhc2_isr                                        /home/leon/git/swp-report/iMX6_Platform_SDK/output/mx6sdl/lib/libsdk.a(usdhc_host.o)
                                                  /home/leon/git/swp-report/iMX6_Platform_SDK/output/mx6sdl/lib/libsdk.a(usdhc.o)
usdhc3_iomux_config                               /home/leon/git/swp-report/iMX6_Platform_SDK/output/mx6sdl/lib/libboard_sabre_ai_rev_b.a(usdhc3_iomux_config.o)
                                                  /home/leon/git/swp-report/iMX6_Platform_SDK/output/mx6sdl/lib/libboard_sabre_ai_rev_b.a(usdhc_iomux_config.o)
                                                  /home/leon/git/swp-report/iMX6_Platform_SDK/output/mx6sdl/lib/libboard_sabre_ai_rev_b.a(iomux_config.o)
usdhc3_isr                                        /home/leon/git/swp-report/iMX6_Platform_SDK/output/mx6sdl/lib/libsdk.a(usdhc_host.o)
                                                  /home/leon/git/swp-report/iMX6_Platform_SDK/output/mx6sdl/lib/libsdk.a(usdhc.o)
usdhc4_iomux_config                               /home/leon/git/swp-report/iMX6_Platform_SDK/output/mx6sdl/lib/libboard_sabre_ai_rev_b.a(iomux_config.o)
                                                  /home/leon/git/swp-report/iMX6_Platform_SDK/output/mx6sdl/lib/libboard_sabre_ai_rev_b.a(usdhc_iomux_config.o)
usdhc4_isr                                        /home/leon/git/swp-report/iMX6_Platform_SDK/output/mx6sdl/lib/libsdk.a(usdhc_host.o)
                                                  /home/leon/git/swp-report/iMX6_Platform_SDK/output/mx6sdl/lib/libsdk.a(usdhc.o)
usdhc_card_detected                               /home/leon/git/swp-report/iMX6_Platform_SDK/output/mx6sdl/lib/libboard_sabre_ai_rev_b.a(board_usdhc.o)
                                                  /home/leon/git/swp-report/iMX6_Platform_SDK/output/mx6sdl/lib/libsdk.a(usdhc.o)
usdhc_device                                      /home/leon/git/swp-report/iMX6_Platform_SDK/output/mx6sdl/lib/libsdk.a(usdhc.o)
                                                  /home/leon/git/swp-report/iMX6_Platform_SDK/output/mx6sdl/lib/libsdk.a(usdhc_sd.o)
                                                  /home/leon/git/swp-report/iMX6_Platform_SDK/output/mx6sdl/lib/libsdk.a(usdhc_mmc.o)
                                                  /home/leon/git/swp-report/iMX6_Platform_SDK/output/mx6sdl/lib/libsdk.a(usdhc_host.o)
usdhc_gpio_config                                 /home/leon/git/swp-report/iMX6_Platform_SDK/output/mx6sdl/lib/libboard_sabre_ai_rev_b.a(board_usdhc.o)
                                                  /home/leon/git/swp-report/iMX6_Platform_SDK/output/mx6sdl/lib/libsdk.a(usdhc_host.o)
usdhc_iomux_config                                /home/leon/git/swp-report/iMX6_Platform_SDK/output/mx6sdl/lib/libboard_sabre_ai_rev_b.a(usdhc_iomux_config.o)
                                                  /home/leon/git/swp-report/iMX6_Platform_SDK/output/mx6sdl/lib/libsdk.a(usdhc_host.o)
usdhc_test                                        /home/leon/git/swp-report/iMX6_Platform_SDK/output/mx6sdl/sdk_unit_test/sabre_ai_rev_b/libsdk_unit_test.a(usdhc_test.o)
                                                  /home/leon/git/swp-report/iMX6_Platform_SDK/output/mx6sdl/sdk_unit_test/sabre_ai_rev_b/obj/apps/sdk_unit_test/src/all_test.o
usdhc_write_protected                             /home/leon/git/swp-report/iMX6_Platform_SDK/output/mx6sdl/lib/libboard_sabre_ai_rev_b.a(board_usdhc.o)
                                                  /home/leon/git/swp-report/iMX6_Platform_SDK/output/mx6sdl/lib/libsdk.a(usdhc.o)
vectors                                           /home/leon/git/swp-report/iMX6_Platform_SDK/output/mx6sdl/lib/libsdk.a(vectors.o)
                                                  /home/leon/git/swp-report/iMX6_Platform_SDK/output/mx6sdl/lib/libsdk.a(startup.o)
vfiprintf                                         /home/leon/riotboard/arm-2012.09/bin/../arm-none-eabi/lib//libc.a(lib_a-vfiprintf.o)
vfprintf                                          /home/leon/riotboard/arm-2012.09/bin/../arm-none-eabi/lib//libc.a(lib_a-vfprintf.o)
video_fmts                                        /home/leon/git/swp-report/iMX6_Platform_SDK/output/mx6sdl/lib/libsdk.a(adv7180.o)
                                                  /home/leon/git/swp-report/iMX6_Platform_SDK/output/mx6sdl/sdk_unit_test/sabre_ai_rev_b/libsdk_unit_test.a(adv7180_capture.o)
vprintf                                           /home/leon/riotboard/arm-2012.09/bin/../arm-none-eabi/lib//libc.a(lib_a-vprintf.o)
                                                  /home/leon/git/swp-report/iMX6_Platform_SDK/output/mx6sdl/lib/libsdk.a(imx_i2c.o)
                                                  /home/leon/git/swp-report/iMX6_Platform_SDK/output/mx6sdl/lib/libsdk.a(gpio.o)
                                                  /home/leon/git/swp-report/iMX6_Platform_SDK/output/mx6sdl/lib/libsdk.a(text_color.o)
vtable for __cxxabiv1::__class_type_info          /home/leon/riotboard/arm-2012.09/bin/../arm-none-eabi/lib//libstdc++.a(class_type_info.o)
                                                  /home/leon/riotboard/arm-2012.09/bin/../arm-none-eabi/lib//libstdc++.a(tinfo.o)
                                                  /home/leon/riotboard/arm-2012.09/bin/../arm-none-eabi/lib//libstdc++.a(eh_exception.o)
vtable for __cxxabiv1::__forced_unwind            /home/leon/riotboard/arm-2012.09/bin/../arm-none-eabi/lib//libstdc++.a(eh_exception.o)
vtable for __cxxabiv1::__foreign_exception        /home/leon/riotboard/arm-2012.09/bin/../arm-none-eabi/lib//libstdc++.a(eh_exception.o)
vtable for __cxxabiv1::__si_class_type_info       /home/leon/riotboard/arm-2012.09/bin/../arm-none-eabi/lib//libstdc++.a(si_class_type_info.o)
                                                  /home/leon/riotboard/arm-2012.09/bin/../arm-none-eabi/lib//libstdc++.a(class_type_info.o)
                                                  /home/leon/riotboard/arm-2012.09/bin/../arm-none-eabi/lib//libstdc++.a(eh_exception.o)
vtable for pmu::AnalogRegulator                   /home/leon/git/swp-report/iMX6_Platform_SDK/output/mx6sdl/lib/libsdk.a(pmu_driver.o)
vtable for pmu::DigitalRegulator                  /home/leon/git/swp-report/iMX6_Platform_SDK/output/mx6sdl/lib/libsdk.a(pmu_driver.o)
vtable for pmu::LDO1p1Regulator                   /home/leon/git/swp-report/iMX6_Platform_SDK/output/mx6sdl/lib/libsdk.a(pmu_driver.o)
vtable for pmu::LDO2p5Regulator                   /home/leon/git/swp-report/iMX6_Platform_SDK/output/mx6sdl/lib/libsdk.a(pmu_driver.o)
vtable for pmu::LDO3p0Regulator                   /home/leon/git/swp-report/iMX6_Platform_SDK/output/mx6sdl/lib/libsdk.a(pmu_driver.o)
vtable for pmu::LDOARMRegulator                   /home/leon/git/swp-report/iMX6_Platform_SDK/output/mx6sdl/lib/libsdk.a(pmu_driver.o)
vtable for pmu::LDOGraphicsRegulator              /home/leon/git/swp-report/iMX6_Platform_SDK/output/mx6sdl/lib/libsdk.a(pmu_driver.o)
vtable for pmu::LDOSoCRegulator                   /home/leon/git/swp-report/iMX6_Platform_SDK/output/mx6sdl/lib/libsdk.a(pmu_driver.o)
vtable for pmu::Regulator                         /home/leon/git/swp-report/iMX6_Platform_SDK/output/mx6sdl/lib/libsdk.a(pmu_driver.o)
vtable for std::bad_exception                     /home/leon/riotboard/arm-2012.09/bin/../arm-none-eabi/lib//libstdc++.a(eh_exception.o)
                                                  /home/leon/riotboard/arm-2012.09/bin/../arm-none-eabi/lib//libstdc++.a(eh_call.o)
vtable for std::exception                         /home/leon/riotboard/arm-2012.09/bin/../arm-none-eabi/lib//libstdc++.a(eh_exception.o)
vtable for std::type_info                         /home/leon/riotboard/arm-2012.09/bin/../arm-none-eabi/lib//libstdc++.a(tinfo.o)
wcrtomb                                           /home/leon/riotboard/arm-2012.09/bin/../arm-none-eabi/lib//libc.a(lib_a-wcrtomb.o)
wdog1_iomux_config                                /home/leon/git/swp-report/iMX6_Platform_SDK/output/mx6sdl/lib/libboard_sabre_ai_rev_b.a(wdog1_iomux_config.o)
                                                  /home/leon/git/swp-report/iMX6_Platform_SDK/output/mx6sdl/lib/libboard_sabre_ai_rev_b.a(iomux_config.o)
wdog2_iomux_config                                /home/leon/git/swp-report/iMX6_Platform_SDK/output/mx6sdl/lib/libboard_sabre_ai_rev_b.a(iomux_config.o)
wdog_test                                         /home/leon/git/swp-report/iMX6_Platform_SDK/output/mx6sdl/sdk_unit_test/sabre_ai_rev_b/libsdk_unit_test.a(watchdog_test.o)
                                                  /home/leon/git/swp-report/iMX6_Platform_SDK/output/mx6sdl/sdk_unit_test/sabre_ai_rev_b/obj/apps/sdk_unit_test/src/all_test.o
write                                             /home/leon/riotboard/arm-2012.09/bin/../arm-none-eabi/lib//libc.a(lib_a-syswrite.o)
                                                  /home/leon/riotboard/arm-2012.09/bin/../arm-none-eabi/lib//libstdc++.a(pure.o)
write_buff                                        /home/leon/git/swp-report/iMX6_Platform_SDK/output/mx6sdl/sdk_unit_test/sabre_ai_rev_b/libsdk_unit_test.a(cfi_flash_driver.o)
                                                  /home/leon/git/swp-report/iMX6_Platform_SDK/output/mx6sdl/sdk_unit_test/sabre_ai_rev_b/libsdk_unit_test.a(cfi_flash_api.o)
write_protect_test_en                             /home/leon/git/swp-report/iMX6_Platform_SDK/output/mx6sdl/lib/libsdk.a(usdhc.o)
xtalosc_iomux_config                              /home/leon/git/swp-report/iMX6_Platform_SDK/output/mx6sdl/lib/libboard_sabre_ai_rev_b.a(iomux_config.o)
