Archive member included because of file (symbol)

/home/leon/git/swp-report/iMX6_Platform_SDK/output/mx6sl/lib/libsdk.a(ccm_pll.o)
                              /home/leon/git/swp-report/iMX6_Platform_SDK/output/mx6sl/sdk_unit_test/evk_rev_a/obj/apps/common/platform_init.o (ccm_init)
/home/leon/git/swp-report/iMX6_Platform_SDK/output/mx6sl/lib/libsdk.a(cortexA9.o)
                              /home/leon/git/swp-report/iMX6_Platform_SDK/output/mx6sl/sdk_unit_test/evk_rev_a/obj/apps/common/platform_init.o (arm_set_interrupt_state)
/home/leon/git/swp-report/iMX6_Platform_SDK/output/mx6sl/lib/libsdk.a(gic.o)
                              /home/leon/git/swp-report/iMX6_Platform_SDK/output/mx6sl/sdk_unit_test/evk_rev_a/obj/apps/common/platform_init.o (gic_init)
/home/leon/git/swp-report/iMX6_Platform_SDK/output/mx6sl/lib/libsdk.a(mmu.o)
                              /home/leon/git/swp-report/iMX6_Platform_SDK/output/mx6sl/sdk_unit_test/evk_rev_a/obj/apps/common/platform_init.o (mmu_init)
/home/leon/git/swp-report/iMX6_Platform_SDK/output/mx6sl/lib/libsdk.a(startup.o)
                              (_start)
/home/leon/git/swp-report/iMX6_Platform_SDK/output/mx6sl/lib/libsdk.a(vectors.o)
                              /home/leon/git/swp-report/iMX6_Platform_SDK/output/mx6sl/lib/libsdk.a(startup.o) (vectors)
/home/leon/git/swp-report/iMX6_Platform_SDK/output/mx6sl/lib/libsdk.a(menu.o)
                              /home/leon/git/swp-report/iMX6_Platform_SDK/output/mx6sl/sdk_unit_test/evk_rev_a/obj/apps/sdk_unit_test/src/all_test.o (menuitem_cmd_exitmenu)
/home/leon/git/swp-report/iMX6_Platform_SDK/output/mx6sl/lib/libsdk.a(sdk_version.o)
                              /home/leon/git/swp-report/iMX6_Platform_SDK/output/mx6sl/sdk_unit_test/evk_rev_a/obj/apps/common/print_version.o (k_sdk_version)
/home/leon/git/swp-report/iMX6_Platform_SDK/output/mx6sl/lib/libsdk.a(system_util.o)
                              /home/leon/git/swp-report/iMX6_Platform_SDK/output/mx6sl/lib/libsdk.a(startup.o) (_sys_exit)
/home/leon/git/swp-report/iMX6_Platform_SDK/output/mx6sl/lib/libsdk.a(text_color.o)
                              /home/leon/git/swp-report/iMX6_Platform_SDK/output/mx6sl/lib/libsdk.a(menu.o) (g_TextAttributeDefault)
/home/leon/git/swp-report/iMX6_Platform_SDK/output/mx6sl/lib/libsdk.a(board_id.o)
                              /home/leon/git/swp-report/iMX6_Platform_SDK/output/mx6sl/sdk_unit_test/evk_rev_a/obj/apps/common/print_version.o (chip_name)
/home/leon/git/swp-report/iMX6_Platform_SDK/output/mx6sl/lib/libsdk.a(timer.o)
                              /home/leon/git/swp-report/iMX6_Platform_SDK/output/mx6sl/sdk_unit_test/evk_rev_a/obj/apps/common/platform_init.o (system_time_init)
/home/leon/git/swp-report/iMX6_Platform_SDK/output/mx6sl/lib/libsdk.a(imx_uart.o)
                              /home/leon/git/swp-report/iMX6_Platform_SDK/output/mx6sl/sdk_unit_test/evk_rev_a/obj/apps/common/platform_init.o (uart_getchar)
/home/leon/git/swp-report/iMX6_Platform_SDK/output/mx6sl/lib/libsdk.a(arm_abort.o)
                              /home/leon/git/swp-report/iMX6_Platform_SDK/output/mx6sl/lib/libsdk.a(vectors.o) (data_abort_handler)
/home/leon/git/swp-report/iMX6_Platform_SDK/output/mx6sl/lib/libsdk.a(interrupt.o)
                              /home/leon/git/swp-report/iMX6_Platform_SDK/output/mx6sl/lib/libsdk.a(vectors.o) (IRQ_HDLR)
/home/leon/git/swp-report/iMX6_Platform_SDK/output/mx6sl/lib/libsdk.a(epit.o)
                              /home/leon/git/swp-report/iMX6_Platform_SDK/output/mx6sl/lib/libsdk.a(timer.o) (epit_get_compare_event)
/home/leon/git/swp-report/iMX6_Platform_SDK/output/mx6sl/lib/libsdk.a(abort_handler.o)
                              /home/leon/git/swp-report/iMX6_Platform_SDK/output/mx6sl/lib/libsdk.a(arm_abort.o) (dump_regs)
/home/leon/git/swp-report/iMX6_Platform_SDK/output/mx6sl/lib/libboard_evk_rev_a.a(board_io_expanders.o)
                              /home/leon/git/swp-report/iMX6_Platform_SDK/output/mx6sl/sdk_unit_test/evk_rev_a/obj/apps/common/platform_init.o (board_ioexpander_init)
/home/leon/git/swp-report/iMX6_Platform_SDK/output/mx6sl/lib/libboard_evk_rev_a.a(dcd.o)
                              /home/leon/git/swp-report/iMX6_Platform_SDK/output/mx6sl/sdk_unit_test/evk_rev_a/obj/apps/common/ivt.o (input_dcd_hdr)
/home/leon/git/swp-report/iMX6_Platform_SDK/output/mx6sl/lib/libboard_evk_rev_a.a(hardware_modules.o)
                              /home/leon/git/swp-report/iMX6_Platform_SDK/output/mx6sl/sdk_unit_test/evk_rev_a/obj/apps/common/platform_init.o (g_debug_uart_port)
/home/leon/git/swp-report/iMX6_Platform_SDK/output/mx6sl/lib/libboard_evk_rev_a.a(uart_iomux_config.o)
                              /home/leon/git/swp-report/iMX6_Platform_SDK/output/mx6sl/lib/libsdk.a(imx_uart.o) (uart_iomux_config)
/home/leon/git/swp-report/iMX6_Platform_SDK/output/mx6sl/lib/libboard_evk_rev_a.a(iomux_config.o)
                              /home/leon/git/swp-report/iMX6_Platform_SDK/output/mx6sl/lib/libboard_evk_rev_a.a(uart_iomux_config.o) (uart2_iomux_config)
/home/leon/git/swp-report/iMX6_Platform_SDK/output/mx6sl/lib/libboard_evk_rev_a.a(kpp_iomux_config.o)
                              /home/leon/git/swp-report/iMX6_Platform_SDK/output/mx6sl/lib/libboard_evk_rev_a.a(iomux_config.o) (kpp_iomux_config)
/home/leon/git/swp-report/iMX6_Platform_SDK/output/mx6sl/lib/libboard_evk_rev_a.a(lcd_iomux_config.o)
                              /home/leon/git/swp-report/iMX6_Platform_SDK/output/mx6sl/lib/libboard_evk_rev_a.a(iomux_config.o) (lcd_iomux_config)
/home/leon/git/swp-report/iMX6_Platform_SDK/output/mx6sl/lib/libboard_evk_rev_a.a(mmdc_iomux_config.o)
                              /home/leon/git/swp-report/iMX6_Platform_SDK/output/mx6sl/lib/libboard_evk_rev_a.a(iomux_config.o) (mmdc_iomux_config)
/home/leon/git/swp-report/iMX6_Platform_SDK/output/mx6sl/lib/libboard_evk_rev_a.a(pwm1_iomux_config.o)
                              /home/leon/git/swp-report/iMX6_Platform_SDK/output/mx6sl/lib/libboard_evk_rev_a.a(iomux_config.o) (pwm1_iomux_config)
/home/leon/git/swp-report/iMX6_Platform_SDK/output/mx6sl/lib/libboard_evk_rev_a.a(sjc_iomux_config.o)
                              /home/leon/git/swp-report/iMX6_Platform_SDK/output/mx6sl/lib/libboard_evk_rev_a.a(iomux_config.o) (sjc_iomux_config)
/home/leon/git/swp-report/iMX6_Platform_SDK/output/mx6sl/lib/libboard_evk_rev_a.a(spdc_iomux_config.o)
                              /home/leon/git/swp-report/iMX6_Platform_SDK/output/mx6sl/lib/libboard_evk_rev_a.a(iomux_config.o) (spdc_iomux_config)
/home/leon/git/swp-report/iMX6_Platform_SDK/output/mx6sl/lib/libboard_evk_rev_a.a(uart1_iomux_config.o)
                              /home/leon/git/swp-report/iMX6_Platform_SDK/output/mx6sl/lib/libboard_evk_rev_a.a(uart_iomux_config.o) (uart1_iomux_config)
/home/leon/git/swp-report/iMX6_Platform_SDK/output/mx6sl/lib/libboard_evk_rev_a.a(usb_iomux_config.o)
                              /home/leon/git/swp-report/iMX6_Platform_SDK/output/mx6sl/lib/libboard_evk_rev_a.a(iomux_config.o) (usb_iomux_config)
/home/leon/git/swp-report/iMX6_Platform_SDK/output/mx6sl/lib/libboard_evk_rev_a.a(usdhc1_iomux_config.o)
                              /home/leon/git/swp-report/iMX6_Platform_SDK/output/mx6sl/lib/libboard_evk_rev_a.a(iomux_config.o) (usdhc1_iomux_config)
/home/leon/git/swp-report/iMX6_Platform_SDK/output/mx6sl/lib/libboard_evk_rev_a.a(usdhc2_iomux_config.o)
                              /home/leon/git/swp-report/iMX6_Platform_SDK/output/mx6sl/lib/libboard_evk_rev_a.a(iomux_config.o) (usdhc2_iomux_config)
/home/leon/git/swp-report/iMX6_Platform_SDK/output/mx6sl/lib/libboard_evk_rev_a.a(usdhc3_iomux_config.o)
                              /home/leon/git/swp-report/iMX6_Platform_SDK/output/mx6sl/lib/libboard_evk_rev_a.a(iomux_config.o) (usdhc3_iomux_config)
/home/leon/git/swp-report/iMX6_Platform_SDK/output/mx6sl/lib/libboard_evk_rev_a.a(wdog1_iomux_config.o)
                              /home/leon/git/swp-report/iMX6_Platform_SDK/output/mx6sl/lib/libboard_evk_rev_a.a(iomux_config.o) (wdog1_iomux_config)
/home/leon/git/swp-report/iMX6_Platform_SDK/output/mx6sl/lib/libboard_evk_rev_a.a(audmux_iomux_config.o)
                              /home/leon/git/swp-report/iMX6_Platform_SDK/output/mx6sl/lib/libboard_evk_rev_a.a(iomux_config.o) (audmux_iomux_config)
/home/leon/git/swp-report/iMX6_Platform_SDK/output/mx6sl/lib/libboard_evk_rev_a.a(csi_iomux_config.o)
                              /home/leon/git/swp-report/iMX6_Platform_SDK/output/mx6sl/lib/libboard_evk_rev_a.a(iomux_config.o) (csi_iomux_config)
/home/leon/git/swp-report/iMX6_Platform_SDK/output/mx6sl/lib/libboard_evk_rev_a.a(ecspi1_iomux_config.o)
                              /home/leon/git/swp-report/iMX6_Platform_SDK/output/mx6sl/lib/libboard_evk_rev_a.a(iomux_config.o) (ecspi1_iomux_config)
/home/leon/git/swp-report/iMX6_Platform_SDK/output/mx6sl/lib/libboard_evk_rev_a.a(ecspi2_iomux_config.o)
                              /home/leon/git/swp-report/iMX6_Platform_SDK/output/mx6sl/lib/libboard_evk_rev_a.a(iomux_config.o) (ecspi2_iomux_config)
/home/leon/git/swp-report/iMX6_Platform_SDK/output/mx6sl/lib/libboard_evk_rev_a.a(epdc_iomux_config.o)
                              /home/leon/git/swp-report/iMX6_Platform_SDK/output/mx6sl/lib/libboard_evk_rev_a.a(iomux_config.o) (epdc_iomux_config)
/home/leon/git/swp-report/iMX6_Platform_SDK/output/mx6sl/lib/libboard_evk_rev_a.a(fec_iomux_config.o)
                              /home/leon/git/swp-report/iMX6_Platform_SDK/output/mx6sl/lib/libboard_evk_rev_a.a(iomux_config.o) (fec_iomux_config)
/home/leon/git/swp-report/iMX6_Platform_SDK/output/mx6sl/lib/libboard_evk_rev_a.a(gpio1_iomux_config.o)
                              /home/leon/git/swp-report/iMX6_Platform_SDK/output/mx6sl/lib/libboard_evk_rev_a.a(iomux_config.o) (gpio1_iomux_config)
/home/leon/git/swp-report/iMX6_Platform_SDK/output/mx6sl/lib/libboard_evk_rev_a.a(gpio4_iomux_config.o)
                              /home/leon/git/swp-report/iMX6_Platform_SDK/output/mx6sl/lib/libboard_evk_rev_a.a(iomux_config.o) (gpio4_iomux_config)
/home/leon/git/swp-report/iMX6_Platform_SDK/output/mx6sl/lib/libboard_evk_rev_a.a(i2c1_iomux_config.o)
                              /home/leon/git/swp-report/iMX6_Platform_SDK/output/mx6sl/lib/libboard_evk_rev_a.a(iomux_config.o) (i2c1_iomux_config)
/home/leon/git/swp-report/iMX6_Platform_SDK/output/mx6sl/lib/libboard_evk_rev_a.a(i2c2_iomux_config.o)
                              /home/leon/git/swp-report/iMX6_Platform_SDK/output/mx6sl/lib/libboard_evk_rev_a.a(iomux_config.o) (i2c2_iomux_config)
/home/leon/git/swp-report/iMX6_Platform_SDK/output/mx6sl/lib/libboard_evk_rev_a.a(i2c3_iomux_config.o)
                              /home/leon/git/swp-report/iMX6_Platform_SDK/output/mx6sl/lib/libboard_evk_rev_a.a(iomux_config.o) (i2c3_iomux_config)
/home/leon/git/swp-report/iMX6_Platform_SDK/output/mx6sl/sdk_unit_test/evk_rev_a/libsdk_unit_test.a(cpu_wp_test.o)
                              /home/leon/git/swp-report/iMX6_Platform_SDK/output/mx6sl/sdk_unit_test/evk_rev_a/obj/apps/sdk_unit_test/src/all_test.o (cpu_wp_test)
/home/leon/git/swp-report/iMX6_Platform_SDK/output/mx6sl/sdk_unit_test/evk_rev_a/libsdk_unit_test.a(audio_test.o)
                              /home/leon/git/swp-report/iMX6_Platform_SDK/output/mx6sl/sdk_unit_test/evk_rev_a/obj/apps/sdk_unit_test/src/all_test.o (audio_test)
/home/leon/git/swp-report/iMX6_Platform_SDK/output/mx6sl/sdk_unit_test/evk_rev_a/libsdk_unit_test.a(ssi_playback.o)
                              /home/leon/git/swp-report/iMX6_Platform_SDK/output/mx6sl/sdk_unit_test/evk_rev_a/libsdk_unit_test.a(audio_test.o) (ssi_playback)
/home/leon/git/swp-report/iMX6_Platform_SDK/output/mx6sl/sdk_unit_test/evk_rev_a/libsdk_unit_test.a(wav_file.o)
                              /home/leon/git/swp-report/iMX6_Platform_SDK/output/mx6sl/sdk_unit_test/evk_rev_a/libsdk_unit_test.a(audio_test.o) (wavefile_start)
/home/leon/git/swp-report/iMX6_Platform_SDK/output/mx6sl/sdk_unit_test/evk_rev_a/libsdk_unit_test.a(gic_test.o)
                              /home/leon/git/swp-report/iMX6_Platform_SDK/output/mx6sl/sdk_unit_test/evk_rev_a/obj/apps/sdk_unit_test/src/all_test.o (gic_test)
/home/leon/git/swp-report/iMX6_Platform_SDK/output/mx6sl/sdk_unit_test/evk_rev_a/libsdk_unit_test.a(ocotp_test.o)
                              /home/leon/git/swp-report/iMX6_Platform_SDK/output/mx6sl/sdk_unit_test/evk_rev_a/obj/apps/sdk_unit_test/src/all_test.o (ocotp_test)
/home/leon/git/swp-report/iMX6_Platform_SDK/output/mx6sl/sdk_unit_test/evk_rev_a/libsdk_unit_test.a(i2c_test.o)
                              /home/leon/git/swp-report/iMX6_Platform_SDK/output/mx6sl/sdk_unit_test/evk_rev_a/obj/apps/sdk_unit_test/src/all_test.o (i2c_test)
/home/leon/git/swp-report/iMX6_Platform_SDK/output/mx6sl/sdk_unit_test/evk_rev_a/libsdk_unit_test.a(imx6_i2c_device.o)
                              /home/leon/git/swp-report/iMX6_Platform_SDK/output/mx6sl/sdk_unit_test/evk_rev_a/libsdk_unit_test.a(i2c_test.o) (i2c_imx6_slave_test)
/home/leon/git/swp-report/iMX6_Platform_SDK/output/mx6sl/sdk_unit_test/evk_rev_a/libsdk_unit_test.a(snvs_rtc_test.o)
                              /home/leon/git/swp-report/iMX6_Platform_SDK/output/mx6sl/sdk_unit_test/evk_rev_a/obj/apps/sdk_unit_test/src/all_test.o (snvs_rtc_test)
/home/leon/git/swp-report/iMX6_Platform_SDK/output/mx6sl/sdk_unit_test/evk_rev_a/libsdk_unit_test.a(snvs_srtc_test.o)
                              /home/leon/git/swp-report/iMX6_Platform_SDK/output/mx6sl/sdk_unit_test/evk_rev_a/obj/apps/sdk_unit_test/src/all_test.o (snvs_srtc_test)
/home/leon/git/swp-report/iMX6_Platform_SDK/output/mx6sl/sdk_unit_test/evk_rev_a/libsdk_unit_test.a(tempmon_test.o)
                              /home/leon/git/swp-report/iMX6_Platform_SDK/output/mx6sl/sdk_unit_test/evk_rev_a/obj/apps/sdk_unit_test/src/all_test.o (tempmon_test)
/home/leon/git/swp-report/iMX6_Platform_SDK/output/mx6sl/sdk_unit_test/evk_rev_a/libsdk_unit_test.a(sdma_test.o)
                              /home/leon/git/swp-report/iMX6_Platform_SDK/output/mx6sl/sdk_unit_test/evk_rev_a/obj/apps/sdk_unit_test/src/all_test.o (sdma_test)
/home/leon/git/swp-report/iMX6_Platform_SDK/output/mx6sl/sdk_unit_test/evk_rev_a/libsdk_unit_test.a(spi_lpb.o)
                              /home/leon/git/swp-report/iMX6_Platform_SDK/output/mx6sl/sdk_unit_test/evk_rev_a/libsdk_unit_test.a(sdma_test.o) (ecspi_shp_test)
/home/leon/git/swp-report/iMX6_Platform_SDK/output/mx6sl/sdk_unit_test/evk_rev_a/libsdk_unit_test.a(uart_loopback.o)
                              /home/leon/git/swp-report/iMX6_Platform_SDK/output/mx6sl/sdk_unit_test/evk_rev_a/libsdk_unit_test.a(sdma_test.o) (uart_app_test)
/home/leon/git/swp-report/iMX6_Platform_SDK/output/mx6sl/sdk_unit_test/evk_rev_a/libsdk_unit_test.a(epit_test.o)
                              /home/leon/git/swp-report/iMX6_Platform_SDK/output/mx6sl/sdk_unit_test/evk_rev_a/obj/apps/sdk_unit_test/src/all_test.o (epit_test)
/home/leon/git/swp-report/iMX6_Platform_SDK/output/mx6sl/sdk_unit_test/evk_rev_a/libsdk_unit_test.a(gpt_test.o)
                              /home/leon/git/swp-report/iMX6_Platform_SDK/output/mx6sl/sdk_unit_test/evk_rev_a/obj/apps/sdk_unit_test/src/all_test.o (gpt_test)
/home/leon/git/swp-report/iMX6_Platform_SDK/output/mx6sl/sdk_unit_test/evk_rev_a/libsdk_unit_test.a(timer_test.o)
                              /home/leon/git/swp-report/iMX6_Platform_SDK/output/mx6sl/sdk_unit_test/evk_rev_a/obj/apps/sdk_unit_test/src/all_test.o (microseconds_test)
/home/leon/git/swp-report/iMX6_Platform_SDK/output/mx6sl/sdk_unit_test/evk_rev_a/libsdk_unit_test.a(uart_test.o)
                              /home/leon/git/swp-report/iMX6_Platform_SDK/output/mx6sl/sdk_unit_test/evk_rev_a/obj/apps/sdk_unit_test/src/all_test.o (uart_test)
/home/leon/git/swp-report/iMX6_Platform_SDK/output/mx6sl/sdk_unit_test/evk_rev_a/libsdk_unit_test.a(usdhc_test.o)
                              /home/leon/git/swp-report/iMX6_Platform_SDK/output/mx6sl/sdk_unit_test/evk_rev_a/obj/apps/sdk_unit_test/src/all_test.o (usdhc_test)
/home/leon/git/swp-report/iMX6_Platform_SDK/output/mx6sl/sdk_unit_test/evk_rev_a/libsdk_unit_test.a(pwm_test.o)
                              /home/leon/git/swp-report/iMX6_Platform_SDK/output/mx6sl/sdk_unit_test/evk_rev_a/obj/apps/sdk_unit_test/src/all_test.o (pwm_test)
/home/leon/git/swp-report/iMX6_Platform_SDK/output/mx6sl/sdk_unit_test/evk_rev_a/libsdk_unit_test.a(watchdog_test.o)
                              /home/leon/git/swp-report/iMX6_Platform_SDK/output/mx6sl/sdk_unit_test/evk_rev_a/obj/apps/sdk_unit_test/src/all_test.o (wdog_test)
/home/leon/git/swp-report/iMX6_Platform_SDK/output/mx6sl/sdk_unit_test/evk_rev_a/libsdk_unit_test.a(spi_test.o)
                              /home/leon/git/swp-report/iMX6_Platform_SDK/output/mx6sl/sdk_unit_test/evk_rev_a/obj/apps/sdk_unit_test/src/all_test.o (spi_test)
/home/leon/git/swp-report/iMX6_Platform_SDK/output/mx6sl/sdk_unit_test/evk_rev_a/libsdk_unit_test.a(usb_test.o)
                              /home/leon/git/swp-report/iMX6_Platform_SDK/output/mx6sl/sdk_unit_test/evk_rev_a/obj/apps/sdk_unit_test/src/all_test.o (usb_test)
/home/leon/git/swp-report/iMX6_Platform_SDK/output/mx6sl/sdk_unit_test/evk_rev_a/libsdk_unit_test.a(epdc_test.o)
                              /home/leon/git/swp-report/iMX6_Platform_SDK/output/mx6sl/sdk_unit_test/evk_rev_a/obj/apps/sdk_unit_test/src/all_test.o (epdc_test)
/home/leon/git/swp-report/iMX6_Platform_SDK/output/mx6sl/sdk_unit_test/evk_rev_a/libsdk_unit_test.a(lcdif_test.o)
                              /home/leon/git/swp-report/iMX6_Platform_SDK/output/mx6sl/sdk_unit_test/evk_rev_a/obj/apps/sdk_unit_test/src/all_test.o (lcdif_test)
/home/leon/git/swp-report/iMX6_Platform_SDK/output/mx6sl/sdk_unit_test/evk_rev_a/libsdk_unit_test.a(camera_test.o)
                              /home/leon/git/swp-report/iMX6_Platform_SDK/output/mx6sl/sdk_unit_test/evk_rev_a/obj/apps/sdk_unit_test/src/all_test.o (camera_test)
/home/leon/git/swp-report/iMX6_Platform_SDK/output/mx6sl/sdk_unit_test/evk_rev_a/libsdk_unit_test.a(csi_sensor_capture.o)
                              /home/leon/git/swp-report/iMX6_Platform_SDK/output/mx6sl/sdk_unit_test/evk_rev_a/libsdk_unit_test.a(camera_test.o) (csi_sensor_capture)
/home/leon/git/swp-report/iMX6_Platform_SDK/output/mx6sl/sdk_unit_test/evk_rev_a/libsdk_unit_test.a(fec_test.o)
                              /home/leon/git/swp-report/iMX6_Platform_SDK/output/mx6sl/sdk_unit_test/evk_rev_a/obj/apps/sdk_unit_test/src/all_test.o (fec_test)
/home/leon/git/swp-report/iMX6_Platform_SDK/output/mx6sl/sdk_unit_test/evk_rev_a/libsdk_unit_test.a(spdc_test.o)
                              /home/leon/git/swp-report/iMX6_Platform_SDK/output/mx6sl/sdk_unit_test/evk_rev_a/obj/apps/sdk_unit_test/src/all_test.o (spdc_test)
/home/leon/git/swp-report/iMX6_Platform_SDK/output/mx6sl/sdk_unit_test/evk_rev_a/libsdk_unit_test.a(at24cxx.o)
                              /home/leon/git/swp-report/iMX6_Platform_SDK/output/mx6sl/sdk_unit_test/evk_rev_a/libsdk_unit_test.a(i2c_test.o) (i2c_eeprom_at24cxx_test)
/home/leon/git/swp-report/iMX6_Platform_SDK/output/mx6sl/sdk_unit_test/evk_rev_a/libsdk_unit_test.a(mem_2_mem.o)
                              /home/leon/git/swp-report/iMX6_Platform_SDK/output/mx6sl/sdk_unit_test/evk_rev_a/libsdk_unit_test.a(sdma_test.o) (mem_2_mem_test)
/home/leon/git/swp-report/iMX6_Platform_SDK/output/mx6sl/sdk_unit_test/evk_rev_a/libsdk_unit_test.a(pwm_output.o)
                              /home/leon/git/swp-report/iMX6_Platform_SDK/output/mx6sl/sdk_unit_test/evk_rev_a/libsdk_unit_test.a(pwm_test.o) (pwm_output_test)
/home/leon/git/swp-report/iMX6_Platform_SDK/output/mx6sl/sdk_unit_test/evk_rev_a/libsdk_unit_test.a(spi_nor_numonyx.o)
                              /home/leon/git/swp-report/iMX6_Platform_SDK/output/mx6sl/sdk_unit_test/evk_rev_a/libsdk_unit_test.a(spi_test.o) (spi_nor_query_numonyx)
/home/leon/git/swp-report/iMX6_Platform_SDK/output/mx6sl/sdk_unit_test/evk_rev_a/libsdk_unit_test.a(usb0_device_mouse_test.o)
                              /home/leon/git/swp-report/iMX6_Platform_SDK/output/mx6sl/sdk_unit_test/evk_rev_a/libsdk_unit_test.a(usb_test.o) (usb0_device_mouse_test)
/home/leon/git/swp-report/iMX6_Platform_SDK/output/mx6sl/sdk_unit_test/evk_rev_a/libsdk_unit_test.a(usb0_host_test.o)
                              /home/leon/git/swp-report/iMX6_Platform_SDK/output/mx6sl/sdk_unit_test/evk_rev_a/libsdk_unit_test.a(usb_test.o) (usb0_host_test)
/home/leon/git/swp-report/iMX6_Platform_SDK/output/mx6sl/sdk_unit_test/evk_rev_a/libsdk_unit_test.a(usb0_host_testmodes_test.o)
                              /home/leon/git/swp-report/iMX6_Platform_SDK/output/mx6sl/sdk_unit_test/evk_rev_a/libsdk_unit_test.a(usb_test.o) (usb0_host_testmodes_test)
/home/leon/git/swp-report/iMX6_Platform_SDK/output/mx6sl/sdk_unit_test/evk_rev_a/libsdk_unit_test.a(lcdif_display.o)
                              /home/leon/git/swp-report/iMX6_Platform_SDK/output/mx6sl/sdk_unit_test/evk_rev_a/libsdk_unit_test.a(lcdif_test.o) (lcdif_display_test)
/home/leon/git/swp-report/iMX6_Platform_SDK/output/mx6sl/sdk_unit_test/evk_rev_a/libsdk_unit_test.a(auo_lut.o)
                              /home/leon/git/swp-report/iMX6_Platform_SDK/output/mx6sl/sdk_unit_test/evk_rev_a/libsdk_unit_test.a(spdc_test.o) (auo_lut)
/home/leon/riotboard/arm-2012.09/bin/../arm-none-eabi/lib//libm.a(lib_a-sf_cos.o)
                              /home/leon/git/swp-report/iMX6_Platform_SDK/output/mx6sl/sdk_unit_test/evk_rev_a/libsdk_unit_test.a(usb0_device_mouse_test.o) (cosf)
/home/leon/riotboard/arm-2012.09/bin/../arm-none-eabi/lib//libm.a(lib_a-sf_sin.o)
                              /home/leon/git/swp-report/iMX6_Platform_SDK/output/mx6sl/sdk_unit_test/evk_rev_a/libsdk_unit_test.a(usb0_device_mouse_test.o) (sinf)
/home/leon/riotboard/arm-2012.09/bin/../arm-none-eabi/lib//libm.a(lib_a-ef_rem_pio2.o)
                              /home/leon/riotboard/arm-2012.09/bin/../arm-none-eabi/lib//libm.a(lib_a-sf_cos.o) (__ieee754_rem_pio2f)
/home/leon/riotboard/arm-2012.09/bin/../arm-none-eabi/lib//libm.a(lib_a-kf_cos.o)
                              /home/leon/riotboard/arm-2012.09/bin/../arm-none-eabi/lib//libm.a(lib_a-sf_cos.o) (__kernel_cosf)
/home/leon/riotboard/arm-2012.09/bin/../arm-none-eabi/lib//libm.a(lib_a-kf_rem_pio2.o)
                              /home/leon/riotboard/arm-2012.09/bin/../arm-none-eabi/lib//libm.a(lib_a-ef_rem_pio2.o) (__kernel_rem_pio2f)
/home/leon/riotboard/arm-2012.09/bin/../arm-none-eabi/lib//libm.a(lib_a-kf_sin.o)
                              /home/leon/riotboard/arm-2012.09/bin/../arm-none-eabi/lib//libm.a(lib_a-sf_cos.o) (__kernel_sinf)
/home/leon/riotboard/arm-2012.09/bin/../arm-none-eabi/lib//libm.a(lib_a-sf_fabs.o)
                              /home/leon/riotboard/arm-2012.09/bin/../arm-none-eabi/lib//libm.a(lib_a-ef_rem_pio2.o) (fabsf)
/home/leon/riotboard/arm-2012.09/bin/../arm-none-eabi/lib//libm.a(lib_a-sf_floor.o)
                              /home/leon/riotboard/arm-2012.09/bin/../arm-none-eabi/lib//libm.a(lib_a-kf_rem_pio2.o) (floorf)
/home/leon/riotboard/arm-2012.09/bin/../arm-none-eabi/lib//libm.a(lib_a-sf_scalbn.o)
                              /home/leon/riotboard/arm-2012.09/bin/../arm-none-eabi/lib//libm.a(lib_a-kf_rem_pio2.o) (scalbnf)
/home/leon/riotboard/arm-2012.09/bin/../arm-none-eabi/lib//libm.a(lib_a-sf_copysign.o)
                              /home/leon/riotboard/arm-2012.09/bin/../arm-none-eabi/lib//libm.a(lib_a-sf_scalbn.o) (copysignf)
/home/leon/riotboard/arm-2012.09/bin/../arm-none-eabi/lib//libc.a(lib_a-assert.o)
                              /home/leon/git/swp-report/iMX6_Platform_SDK/output/mx6sl/lib/libsdk.a(gic.o) (__assert_func)
/home/leon/riotboard/arm-2012.09/bin/../arm-none-eabi/lib//libc.a(lib_a-bzero.o)
                              /home/leon/git/swp-report/iMX6_Platform_SDK/output/mx6sl/lib/libsdk.a(mmu.o) (bzero)
/home/leon/riotboard/arm-2012.09/bin/../arm-none-eabi/lib//libc.a(lib_a-fiprintf.o)
                              /home/leon/riotboard/arm-2012.09/bin/../arm-none-eabi/lib//libc.a(lib_a-assert.o) (fiprintf)
/home/leon/riotboard/arm-2012.09/bin/../arm-none-eabi/lib//libc.a(lib_a-fputc.o)
                              /home/leon/git/swp-report/iMX6_Platform_SDK/output/mx6sl/lib/libsdk.a(menu.o) (fputc)
/home/leon/riotboard/arm-2012.09/bin/../arm-none-eabi/lib//libc.a(lib_a-impure.o)
                              /home/leon/git/swp-report/iMX6_Platform_SDK/output/mx6sl/lib/libsdk.a(menu.o) (_impure_ptr)
/home/leon/riotboard/arm-2012.09/bin/../arm-none-eabi/lib//libc.a(lib_a-init.o)
                              /home/leon/git/swp-report/iMX6_Platform_SDK/output/mx6sl/lib/libsdk.a(startup.o) (__libc_init_array)
/home/leon/riotboard/arm-2012.09/bin/../arm-none-eabi/lib//libc.a(lib_a-malloc.o)
                              /home/leon/git/swp-report/iMX6_Platform_SDK/output/mx6sl/lib/libsdk.a(system_util.o) (malloc)
/home/leon/riotboard/arm-2012.09/bin/../arm-none-eabi/lib//libc.a(lib_a-mallocr.o)
                              /home/leon/riotboard/arm-2012.09/bin/../arm-none-eabi/lib//libc.a(lib_a-malloc.o) (_malloc_r)
/home/leon/riotboard/arm-2012.09/bin/../arm-none-eabi/lib//libc.a(lib_a-memcpy.o)
                              /home/leon/git/swp-report/iMX6_Platform_SDK/output/mx6sl/lib/libsdk.a(menu.o) (memcpy)
/home/leon/riotboard/arm-2012.09/bin/../arm-none-eabi/lib//libc.a(lib_a-memset.o)
                              /home/leon/git/swp-report/iMX6_Platform_SDK/output/mx6sl/sdk_unit_test/evk_rev_a/obj/apps/common/print_version.o (memset)
/home/leon/riotboard/arm-2012.09/bin/../arm-none-eabi/lib//libc.a(lib_a-mlock.o)
                              /home/leon/riotboard/arm-2012.09/bin/../arm-none-eabi/lib//libc.a(lib_a-mallocr.o) (__malloc_lock)
/home/leon/riotboard/arm-2012.09/bin/../arm-none-eabi/lib//libc.a(lib_a-printf.o)
                              /home/leon/git/swp-report/iMX6_Platform_SDK/output/mx6sl/sdk_unit_test/evk_rev_a/obj/apps/common/print_clock_info.o (printf)
/home/leon/riotboard/arm-2012.09/bin/../arm-none-eabi/lib//libc.a(lib_a-putc.o)
                              /home/leon/riotboard/arm-2012.09/bin/../arm-none-eabi/lib//libc.a(lib_a-fputc.o) (_putc_r)
/home/leon/riotboard/arm-2012.09/bin/../arm-none-eabi/lib//libc.a(lib_a-realloc.o)
                              /home/leon/git/swp-report/iMX6_Platform_SDK/output/mx6sl/lib/libsdk.a(system_util.o) (realloc)
/home/leon/riotboard/arm-2012.09/bin/../arm-none-eabi/lib//libc.a(lib_a-reallocr.o)
                              /home/leon/riotboard/arm-2012.09/bin/../arm-none-eabi/lib//libc.a(lib_a-realloc.o) (_realloc_r)
/home/leon/riotboard/arm-2012.09/bin/../arm-none-eabi/lib//libc.a(lib_a-rget.o)
                              /home/leon/git/swp-report/iMX6_Platform_SDK/output/mx6sl/lib/libsdk.a(menu.o) (__srget_r)
/home/leon/riotboard/arm-2012.09/bin/../arm-none-eabi/lib//libc.a(lib_a-sbrkr.o)
                              /home/leon/riotboard/arm-2012.09/bin/../arm-none-eabi/lib//libc.a(lib_a-mallocr.o) (_sbrk_r)
/home/leon/riotboard/arm-2012.09/bin/../arm-none-eabi/lib//libc.a(lib_a-sprintf.o)
                              /home/leon/git/swp-report/iMX6_Platform_SDK/output/mx6sl/lib/libsdk.a(board_id.o) (sprintf)
/home/leon/riotboard/arm-2012.09/bin/../arm-none-eabi/lib//libc.a(lib_a-strlen.o)
                              /home/leon/git/swp-report/iMX6_Platform_SDK/output/mx6sl/lib/libsdk.a(menu.o) (strlen)
/home/leon/riotboard/arm-2012.09/bin/../arm-none-eabi/lib//libc.a(lib_a-strncasecmp.o)
                              /home/leon/git/swp-report/iMX6_Platform_SDK/output/mx6sl/lib/libsdk.a(menu.o) (strncasecmp)
/home/leon/riotboard/arm-2012.09/bin/../arm-none-eabi/lib//libc.a(lib_a-svfprintf.o)
                              /home/leon/riotboard/arm-2012.09/bin/../arm-none-eabi/lib//libc.a(lib_a-sprintf.o) (_svfprintf_r)
/home/leon/riotboard/arm-2012.09/bin/../arm-none-eabi/lib//libc.a(lib_a-vfiprintf.o)
                              /home/leon/riotboard/arm-2012.09/bin/../arm-none-eabi/lib//libc.a(lib_a-fiprintf.o) (_vfiprintf_r)
/home/leon/riotboard/arm-2012.09/bin/../arm-none-eabi/lib//libc.a(lib_a-vfprintf.o)
                              /home/leon/riotboard/arm-2012.09/bin/../arm-none-eabi/lib//libc.a(lib_a-printf.o) (_vfprintf_r)
/home/leon/riotboard/arm-2012.09/bin/../arm-none-eabi/lib//libc.a(lib_a-vprintf.o)
                              /home/leon/git/swp-report/iMX6_Platform_SDK/output/mx6sl/lib/libsdk.a(text_color.o) (vprintf)
/home/leon/riotboard/arm-2012.09/bin/../arm-none-eabi/lib//libc.a(lib_a-wbuf.o)
                              /home/leon/riotboard/arm-2012.09/bin/../arm-none-eabi/lib//libc.a(lib_a-putc.o) (__swbuf_r)
/home/leon/riotboard/arm-2012.09/bin/../arm-none-eabi/lib//libc.a(lib_a-wsetup.o)
                              /home/leon/riotboard/arm-2012.09/bin/../arm-none-eabi/lib//libc.a(lib_a-vfiprintf.o) (__swsetup_r)
/home/leon/riotboard/arm-2012.09/bin/../arm-none-eabi/lib//libc.a(lib_a-abort.o)
                              /home/leon/riotboard/arm-2012.09/bin/../arm-none-eabi/lib//libc.a(lib_a-assert.o) (abort)
/home/leon/riotboard/arm-2012.09/bin/../arm-none-eabi/lib//libc.a(lib_a-ctype_.o)
                              /home/leon/riotboard/arm-2012.09/bin/../arm-none-eabi/lib//libc.a(lib_a-strncasecmp.o) (__ctype_ptr__)
/home/leon/riotboard/arm-2012.09/bin/../arm-none-eabi/lib//libc.a(lib_a-dtoa.o)
                              /home/leon/riotboard/arm-2012.09/bin/../arm-none-eabi/lib//libc.a(lib_a-svfprintf.o) (_dtoa_r)
/home/leon/riotboard/arm-2012.09/bin/../arm-none-eabi/lib//libc.a(lib_a-fflush.o)
                              /home/leon/riotboard/arm-2012.09/bin/../arm-none-eabi/lib//libc.a(lib_a-vfiprintf.o) (_fflush_r)
/home/leon/riotboard/arm-2012.09/bin/../arm-none-eabi/lib//libc.a(lib_a-findfp.o)
                              /home/leon/riotboard/arm-2012.09/bin/../arm-none-eabi/lib//libc.a(lib_a-fputc.o) (__sinit)
/home/leon/riotboard/arm-2012.09/bin/../arm-none-eabi/lib//libc.a(lib_a-fputwc.o)
                              /home/leon/riotboard/arm-2012.09/bin/../arm-none-eabi/lib//libc.a(lib_a-vfiprintf.o) (_fputwc_r)
/home/leon/riotboard/arm-2012.09/bin/../arm-none-eabi/lib//libc.a(lib_a-freer.o)
                              /home/leon/riotboard/arm-2012.09/bin/../arm-none-eabi/lib//libc.a(lib_a-malloc.o) (_free_r)
/home/leon/riotboard/arm-2012.09/bin/../arm-none-eabi/lib//libc.a(lib_a-fvwrite.o)
                              /home/leon/riotboard/arm-2012.09/bin/../arm-none-eabi/lib//libc.a(lib_a-vfiprintf.o) (__sfvwrite_r)
/home/leon/riotboard/arm-2012.09/bin/../arm-none-eabi/lib//libc.a(lib_a-fwalk.o)
                              /home/leon/riotboard/arm-2012.09/bin/../arm-none-eabi/lib//libc.a(lib_a-findfp.o) (_fwalk)
/home/leon/riotboard/arm-2012.09/bin/../arm-none-eabi/lib//libc.a(lib_a-locale.o)
                              /home/leon/riotboard/arm-2012.09/bin/../arm-none-eabi/lib//libc.a(lib_a-fputwc.o) (__locale_mb_cur_max)
/home/leon/riotboard/arm-2012.09/bin/../arm-none-eabi/lib//libc.a(lib_a-makebuf.o)
                              /home/leon/riotboard/arm-2012.09/bin/../arm-none-eabi/lib//libc.a(lib_a-wsetup.o) (__smakebuf_r)
/home/leon/riotboard/arm-2012.09/bin/../arm-none-eabi/lib//libc.a(lib_a-memchr.o)
                              /home/leon/riotboard/arm-2012.09/bin/../arm-none-eabi/lib//libc.a(lib_a-svfprintf.o) (memchr)
/home/leon/riotboard/arm-2012.09/bin/../arm-none-eabi/lib//libc.a(lib_a-memmove.o)
                              /home/leon/riotboard/arm-2012.09/bin/../arm-none-eabi/lib//libc.a(lib_a-reallocr.o) (memmove)
/home/leon/riotboard/arm-2012.09/bin/../arm-none-eabi/lib//libc.a(lib_a-mprec.o)
                              /home/leon/riotboard/arm-2012.09/bin/../arm-none-eabi/lib//libc.a(lib_a-dtoa.o) (_Balloc)
/home/leon/riotboard/arm-2012.09/bin/../arm-none-eabi/lib//libc.a(lib_a-reent.o)
                              /home/leon/riotboard/arm-2012.09/bin/../arm-none-eabi/lib//libc.a(lib_a-sbrkr.o) (errno)
/home/leon/riotboard/arm-2012.09/bin/../arm-none-eabi/lib//libc.a(lib_a-refill.o)
                              /home/leon/riotboard/arm-2012.09/bin/../arm-none-eabi/lib//libc.a(lib_a-rget.o) (__srefill_r)
/home/leon/riotboard/arm-2012.09/bin/../arm-none-eabi/lib//libc.a(lib_a-s_fpclassify.o)
                              /home/leon/riotboard/arm-2012.09/bin/../arm-none-eabi/lib//libc.a(lib_a-svfprintf.o) (__fpclassifyd)
/home/leon/riotboard/arm-2012.09/bin/../arm-none-eabi/lib//libc.a(lib_a-signal.o)
                              /home/leon/riotboard/arm-2012.09/bin/../arm-none-eabi/lib//libc.a(lib_a-abort.o) (raise)
/home/leon/riotboard/arm-2012.09/bin/../arm-none-eabi/lib//libc.a(lib_a-signalr.o)
                              /home/leon/riotboard/arm-2012.09/bin/../arm-none-eabi/lib//libc.a(lib_a-signal.o) (_kill_r)
/home/leon/riotboard/arm-2012.09/bin/../arm-none-eabi/lib//libc.a(lib_a-stdio.o)
                              /home/leon/riotboard/arm-2012.09/bin/../arm-none-eabi/lib//libc.a(lib_a-findfp.o) (__sread)
/home/leon/riotboard/arm-2012.09/bin/../arm-none-eabi/lib//libc.a(lib_a-strcmp.o)
                              /home/leon/riotboard/arm-2012.09/bin/../arm-none-eabi/lib//libc.a(lib_a-locale.o) (strcmp)
/home/leon/riotboard/arm-2012.09/bin/../arm-none-eabi/lib//libc.a(lib_a-svfiprintf.o)
                              /home/leon/riotboard/arm-2012.09/bin/../arm-none-eabi/lib//libc.a(lib_a-svfprintf.o) (__ssprint_r)
/home/leon/riotboard/arm-2012.09/bin/../arm-none-eabi/lib//libc.a(lib_a-wcrtomb.o)
                              /home/leon/riotboard/arm-2012.09/bin/../arm-none-eabi/lib//libc.a(lib_a-fputwc.o) (_wcrtomb_r)
/home/leon/riotboard/arm-2012.09/bin/../arm-none-eabi/lib//libc.a(lib_a-wctomb_r.o)
                              /home/leon/riotboard/arm-2012.09/bin/../arm-none-eabi/lib//libc.a(lib_a-wcrtomb.o) (__wctomb)
/home/leon/riotboard/arm-2012.09/bin/../arm-none-eabi/lib//libc.a(lib_a-writer.o)
                              /home/leon/riotboard/arm-2012.09/bin/../arm-none-eabi/lib//libc.a(lib_a-stdio.o) (_write_r)
/home/leon/riotboard/arm-2012.09/bin/../arm-none-eabi/lib//libc.a(lib_a-callocr.o)
                              /home/leon/riotboard/arm-2012.09/bin/../arm-none-eabi/lib//libc.a(lib_a-mprec.o) (_calloc_r)
/home/leon/riotboard/arm-2012.09/bin/../arm-none-eabi/lib//libc.a(lib_a-closer.o)
                              /home/leon/riotboard/arm-2012.09/bin/../arm-none-eabi/lib//libc.a(lib_a-stdio.o) (_close_r)
/home/leon/riotboard/arm-2012.09/bin/../arm-none-eabi/lib//libc.a(lib_a-fclose.o)
                              /home/leon/riotboard/arm-2012.09/bin/../arm-none-eabi/lib//libc.a(lib_a-findfp.o) (fclose)
/home/leon/riotboard/arm-2012.09/bin/../arm-none-eabi/lib//libc.a(lib_a-fstatr.o)
                              /home/leon/riotboard/arm-2012.09/bin/../arm-none-eabi/lib//libc.a(lib_a-makebuf.o) (_fstat_r)
/home/leon/riotboard/arm-2012.09/bin/../arm-none-eabi/lib//libc.a(lib_a-isattyr.o)
                              /home/leon/riotboard/arm-2012.09/bin/../arm-none-eabi/lib//libc.a(lib_a-makebuf.o) (_isatty_r)
/home/leon/riotboard/arm-2012.09/bin/../arm-none-eabi/lib//libc.a(lib_a-lseekr.o)
                              /home/leon/riotboard/arm-2012.09/bin/../arm-none-eabi/lib//libc.a(lib_a-stdio.o) (_lseek_r)
/home/leon/riotboard/arm-2012.09/bin/../arm-none-eabi/lib//libc.a(lib_a-readr.o)
                              /home/leon/riotboard/arm-2012.09/bin/../arm-none-eabi/lib//libc.a(lib_a-stdio.o) (_read_r)
/home/leon/riotboard/arm-2012.09/bin/../lib/gcc/arm-none-eabi/4.7.2//libgcc.a(_udivsi3.o)
                              /home/leon/git/swp-report/iMX6_Platform_SDK/output/mx6sl/lib/libsdk.a(ccm_pll.o) (__aeabi_uidiv)
/home/leon/riotboard/arm-2012.09/bin/../lib/gcc/arm-none-eabi/4.7.2//libgcc.a(_dvmd_tls.o)
                              /home/leon/riotboard/arm-2012.09/bin/../lib/gcc/arm-none-eabi/4.7.2//libgcc.a(_udivsi3.o) (__aeabi_idiv0)
/home/leon/riotboard/arm-2012.09/bin/../lib/gcc/arm-none-eabi/4.7.2//libgcc.a(_arm_addsubdf3.o)
                              /home/leon/riotboard/arm-2012.09/bin/../arm-none-eabi/lib//libc.a(lib_a-dtoa.o) (__aeabi_dsub)
/home/leon/riotboard/arm-2012.09/bin/../lib/gcc/arm-none-eabi/4.7.2//libgcc.a(_arm_muldivdf3.o)
                              /home/leon/riotboard/arm-2012.09/bin/../arm-none-eabi/lib//libc.a(lib_a-dtoa.o) (__aeabi_dmul)
/home/leon/riotboard/arm-2012.09/bin/../lib/gcc/arm-none-eabi/4.7.2//libgcc.a(_arm_cmpdf2.o)
                              /home/leon/riotboard/arm-2012.09/bin/../arm-none-eabi/lib//libc.a(lib_a-svfprintf.o) (__aeabi_dcmpeq)
/home/leon/riotboard/arm-2012.09/bin/../lib/gcc/arm-none-eabi/4.7.2//libgcc.a(_arm_fixdfsi.o)
                              /home/leon/riotboard/arm-2012.09/bin/../arm-none-eabi/lib//libc.a(lib_a-dtoa.o) (__aeabi_d2iz)
/home/leon/riotboard/arm-2012.09/bin/../lib/gcc/arm-none-eabi/4.7.2//libgcc.a(_arm_addsubsf3.o)
                              /home/leon/riotboard/arm-2012.09/bin/../arm-none-eabi/lib//libm.a(lib_a-sf_cos.o) (__aeabi_fsub)
/home/leon/riotboard/arm-2012.09/bin/../lib/gcc/arm-none-eabi/4.7.2//libgcc.a(_arm_muldivsf3.o)
                              /home/leon/riotboard/arm-2012.09/bin/../arm-none-eabi/lib//libm.a(lib_a-ef_rem_pio2.o) (__aeabi_fmul)
/home/leon/riotboard/arm-2012.09/bin/../lib/gcc/arm-none-eabi/4.7.2//libgcc.a(_arm_cmpsf2.o)
                              /home/leon/riotboard/arm-2012.09/bin/../arm-none-eabi/lib//libm.a(lib_a-ef_rem_pio2.o) (__aeabi_fcmpeq)
/home/leon/riotboard/arm-2012.09/bin/../lib/gcc/arm-none-eabi/4.7.2//libgcc.a(_arm_fixsfsi.o)
                              /home/leon/riotboard/arm-2012.09/bin/../arm-none-eabi/lib//libm.a(lib_a-ef_rem_pio2.o) (__aeabi_f2iz)
/home/leon/riotboard/arm-2012.09/bin/../lib/gcc/arm-none-eabi/4.7.2//libgcc.a(_aeabi_uldivmod.o)
                              /home/leon/git/swp-report/iMX6_Platform_SDK/output/mx6sl/lib/libsdk.a(timer.o) (__aeabi_uldivmod)
/home/leon/riotboard/arm-2012.09/bin/../lib/gcc/arm-none-eabi/4.7.2//libgcc.a(bpabi.o)
                              /home/leon/riotboard/arm-2012.09/bin/../lib/gcc/arm-none-eabi/4.7.2//libgcc.a(_aeabi_uldivmod.o) (__gnu_uldivmod_helper)
/home/leon/riotboard/arm-2012.09/bin/../lib/gcc/arm-none-eabi/4.7.2//libgcc.a(_divdi3.o)
                              /home/leon/riotboard/arm-2012.09/bin/../lib/gcc/arm-none-eabi/4.7.2//libgcc.a(bpabi.o) (__divdi3)
/home/leon/riotboard/arm-2012.09/bin/../lib/gcc/arm-none-eabi/4.7.2//libgcc.a(_udivdi3.o)
                              /home/leon/riotboard/arm-2012.09/bin/../lib/gcc/arm-none-eabi/4.7.2//libgcc.a(bpabi.o) (__udivdi3)
/home/leon/riotboard/arm-2012.09/bin/../lib/gcc/arm-none-eabi/4.7.2//libgcc.a(_clzsi2.o)
                              /home/leon/riotboard/arm-2012.09/bin/../lib/gcc/arm-none-eabi/4.7.2//libgcc.a(_divdi3.o) (__clzsi2)
/home/leon/git/swp-report/iMX6_Platform_SDK/output/mx6sl/lib/libsdk.a(profile.o)
                              /home/leon/git/swp-report/iMX6_Platform_SDK/output/mx6sl/sdk_unit_test/evk_rev_a/libsdk_unit_test.a(mem_2_mem.o) (StartPerfCounter)
/home/leon/git/swp-report/iMX6_Platform_SDK/output/mx6sl/lib/libsdk.a(armv7_cache.o)
                              /home/leon/git/swp-report/iMX6_Platform_SDK/output/mx6sl/sdk_unit_test/evk_rev_a/libsdk_unit_test.a(cpu_wp_test.o) (arm_dcache_state_query)
/home/leon/git/swp-report/iMX6_Platform_SDK/output/mx6sl/lib/libsdk.a(runtime_support.o)
                              /home/leon/riotboard/arm-2012.09/bin/../arm-none-eabi/lib//libc.a(lib_a-isattyr.o) (_isatty)
/home/leon/git/swp-report/iMX6_Platform_SDK/output/mx6sl/lib/libsdk.a(imx_audmux.o)
                              /home/leon/git/swp-report/iMX6_Platform_SDK/output/mx6sl/sdk_unit_test/evk_rev_a/libsdk_unit_test.a(ssi_playback.o) (audmux_route)
/home/leon/git/swp-report/iMX6_Platform_SDK/output/mx6sl/lib/libsdk.a(snd_card.o)
                              /home/leon/git/swp-report/iMX6_Platform_SDK/output/mx6sl/sdk_unit_test/evk_rev_a/libsdk_unit_test.a(ssi_playback.o) (snd_card_ssi_wm8962)
/home/leon/git/swp-report/iMX6_Platform_SDK/output/mx6sl/lib/libsdk.a(wm8962.o)
                              /home/leon/git/swp-report/iMX6_Platform_SDK/output/mx6sl/lib/libsdk.a(snd_card.o) (wm8962)
/home/leon/git/swp-report/iMX6_Platform_SDK/output/mx6sl/lib/libsdk.a(csi_drv.o)
                              /home/leon/git/swp-report/iMX6_Platform_SDK/output/mx6sl/sdk_unit_test/evk_rev_a/libsdk_unit_test.a(csi_sensor_capture.o) (csi_setup)
/home/leon/git/swp-report/iMX6_Platform_SDK/output/mx6sl/lib/libsdk.a(smd_sensor.o)
                              /home/leon/git/swp-report/iMX6_Platform_SDK/output/mx6sl/sdk_unit_test/evk_rev_a/libsdk_unit_test.a(csi_sensor_capture.o) (sensor_config)
/home/leon/git/swp-report/iMX6_Platform_SDK/output/mx6sl/lib/libsdk.a(cpu_workpoint.o)
                              /home/leon/git/swp-report/iMX6_Platform_SDK/output/mx6sl/sdk_unit_test/evk_rev_a/libsdk_unit_test.a(cpu_wp_test.o) (cpu_workpoint_set)
/home/leon/git/swp-report/iMX6_Platform_SDK/output/mx6sl/lib/libsdk.a(mxc_epdc.o)
                              /home/leon/git/swp-report/iMX6_Platform_SDK/output/mx6sl/sdk_unit_test/evk_rev_a/libsdk_unit_test.a(epdc_test.o) (epdc_reset)
/home/leon/git/swp-report/iMX6_Platform_SDK/output/mx6sl/lib/libsdk.a(fec_drv.o)
                              /home/leon/git/swp-report/iMX6_Platform_SDK/output/mx6sl/sdk_unit_test/evk_rev_a/libsdk_unit_test.a(fec_test.o) (imx_fec_phy_init)
/home/leon/git/swp-report/iMX6_Platform_SDK/output/mx6sl/lib/libsdk.a(gpio.o)
                              /home/leon/git/swp-report/iMX6_Platform_SDK/output/mx6sl/sdk_unit_test/evk_rev_a/libsdk_unit_test.a(fec_test.o) (gpio_set_direction)
/home/leon/git/swp-report/iMX6_Platform_SDK/output/mx6sl/lib/libsdk.a(imx6sl_gpio_map.o)
                              /home/leon/git/swp-report/iMX6_Platform_SDK/output/mx6sl/lib/libsdk.a(gpio.o) (k_gpio_mux_registers)
/home/leon/git/swp-report/iMX6_Platform_SDK/output/mx6sl/lib/libsdk.a(imx_i2c.o)
                              /home/leon/git/swp-report/iMX6_Platform_SDK/output/mx6sl/lib/libsdk.a(wm8962.o) (i2c_xfer)
/home/leon/git/swp-report/iMX6_Platform_SDK/output/mx6sl/lib/libsdk.a(imx_i2c_slave.o)
                              /home/leon/git/swp-report/iMX6_Platform_SDK/output/mx6sl/sdk_unit_test/evk_rev_a/libsdk_unit_test.a(imx6_i2c_device.o) (i2c_slave_xfer)
/home/leon/git/swp-report/iMX6_Platform_SDK/output/mx6sl/lib/libsdk.a(lcdif_drv.o)
                              /home/leon/git/swp-report/iMX6_Platform_SDK/output/mx6sl/sdk_unit_test/evk_rev_a/libsdk_unit_test.a(csi_sensor_capture.o) (lcdif_display_setup)
/home/leon/git/swp-report/iMX6_Platform_SDK/output/mx6sl/lib/libsdk.a(pxp_drv.o)
                              /home/leon/git/swp-report/iMX6_Platform_SDK/output/mx6sl/sdk_unit_test/evk_rev_a/libsdk_unit_test.a(csi_sensor_capture.o) (pxp_disable)
/home/leon/git/swp-report/iMX6_Platform_SDK/output/mx6sl/lib/libsdk.a(ocotp.o)
                              /home/leon/git/swp-report/iMX6_Platform_SDK/output/mx6sl/sdk_unit_test/evk_rev_a/libsdk_unit_test.a(ocotp_test.o) (ocotp_sense_fuse)
/home/leon/git/swp-report/iMX6_Platform_SDK/output/mx6sl/lib/libsdk.a(pmu_driver.o)
                              /home/leon/git/swp-report/iMX6_Platform_SDK/output/mx6sl/lib/libsdk.a(cpu_workpoint.o) (pmu_init)
/home/leon/git/swp-report/iMX6_Platform_SDK/output/mx6sl/lib/libsdk.a(pwm.o)
                              /home/leon/git/swp-report/iMX6_Platform_SDK/output/mx6sl/sdk_unit_test/evk_rev_a/libsdk_unit_test.a(pwm_output.o) (pwm_init)
/home/leon/git/swp-report/iMX6_Platform_SDK/output/mx6sl/lib/libsdk.a(rtc.o)
                              /home/leon/git/swp-report/iMX6_Platform_SDK/output/mx6sl/sdk_unit_test/evk_rev_a/libsdk_unit_test.a(snvs_rtc_test.o) (rtc_init)
/home/leon/git/swp-report/iMX6_Platform_SDK/output/mx6sl/lib/libsdk.a(srtc.o)
                              /home/leon/git/swp-report/iMX6_Platform_SDK/output/mx6sl/sdk_unit_test/evk_rev_a/libsdk_unit_test.a(snvs_srtc_test.o) (srtc_init)
/home/leon/git/swp-report/iMX6_Platform_SDK/output/mx6sl/lib/libsdk.a(sdma.o)
                              /home/leon/git/swp-report/iMX6_Platform_SDK/output/mx6sl/sdk_unit_test/evk_rev_a/libsdk_unit_test.a(spi_lpb.o) (sdma_channel_start)
/home/leon/git/swp-report/iMX6_Platform_SDK/output/mx6sl/lib/libsdk.a(sdma_script_info.o)
                              /home/leon/git/swp-report/iMX6_Platform_SDK/output/mx6sl/lib/libsdk.a(sdma.o) (script_info)
/home/leon/git/swp-report/iMX6_Platform_SDK/output/mx6sl/lib/libsdk.a(snvs.o)
                              /home/leon/git/swp-report/iMX6_Platform_SDK/output/mx6sl/lib/libsdk.a(rtc.o) (snvs_rtc_counter)
/home/leon/git/swp-report/iMX6_Platform_SDK/output/mx6sl/lib/libsdk.a(mxc_spdc.o)
                              /home/leon/git/swp-report/iMX6_Platform_SDK/output/mx6sl/sdk_unit_test/evk_rev_a/libsdk_unit_test.a(spdc_test.o) (spdc_update_image)
/home/leon/git/swp-report/iMX6_Platform_SDK/output/mx6sl/lib/libsdk.a(ecspi.o)
                              /home/leon/git/swp-report/iMX6_Platform_SDK/output/mx6sl/sdk_unit_test/evk_rev_a/libsdk_unit_test.a(spi_test.o) (ecspi_configure)
/home/leon/git/swp-report/iMX6_Platform_SDK/output/mx6sl/lib/libsdk.a(tempmon.o)
                              /home/leon/git/swp-report/iMX6_Platform_SDK/output/mx6sl/sdk_unit_test/evk_rev_a/libsdk_unit_test.a(tempmon_test.o) (tempmon_get_temp)
/home/leon/git/swp-report/iMX6_Platform_SDK/output/mx6sl/lib/libsdk.a(gpt.o)
                              /home/leon/git/swp-report/iMX6_Platform_SDK/output/mx6sl/sdk_unit_test/evk_rev_a/libsdk_unit_test.a(gpt_test.o) (gpt_get_rollover_event)
/home/leon/git/swp-report/iMX6_Platform_SDK/output/mx6sl/lib/libsdk.a(usb_common.o)
                              /home/leon/git/swp-report/iMX6_Platform_SDK/output/mx6sl/sdk_unit_test/evk_rev_a/libsdk_unit_test.a(usb0_device_mouse_test.o) (usb_get_port_speed)
/home/leon/git/swp-report/iMX6_Platform_SDK/output/mx6sl/lib/libsdk.a(usbd_drv.o)
                              /home/leon/git/swp-report/iMX6_Platform_SDK/output/mx6sl/sdk_unit_test/evk_rev_a/libsdk_unit_test.a(usb0_device_mouse_test.o) (usbd_device_init)
/home/leon/git/swp-report/iMX6_Platform_SDK/output/mx6sl/lib/libsdk.a(usbh_drv.o)
                              /home/leon/git/swp-report/iMX6_Platform_SDK/output/mx6sl/sdk_unit_test/evk_rev_a/libsdk_unit_test.a(usb0_host_test.o) (usbh_init)
/home/leon/git/swp-report/iMX6_Platform_SDK/output/mx6sl/lib/libsdk.a(usdhc.o)
                              /home/leon/git/swp-report/iMX6_Platform_SDK/output/mx6sl/sdk_unit_test/evk_rev_a/libsdk_unit_test.a(usdhc_test.o) (set_card_access_mode)
/home/leon/git/swp-report/iMX6_Platform_SDK/output/mx6sl/lib/libsdk.a(usdhc_host.o)
                              /home/leon/git/swp-report/iMX6_Platform_SDK/output/mx6sl/lib/libsdk.a(usdhc.o) (usdhc1_isr)
/home/leon/git/swp-report/iMX6_Platform_SDK/output/mx6sl/lib/libsdk.a(usdhc_mmc.o)
                              /home/leon/git/swp-report/iMX6_Platform_SDK/output/mx6sl/lib/libsdk.a(usdhc.o) (mmc_init)
/home/leon/git/swp-report/iMX6_Platform_SDK/output/mx6sl/lib/libsdk.a(usdhc_sd.o)
                              /home/leon/git/swp-report/iMX6_Platform_SDK/output/mx6sl/lib/libsdk.a(usdhc.o) (sd_init)
/home/leon/git/swp-report/iMX6_Platform_SDK/output/mx6sl/lib/libsdk.a(imx-ssi.o)
                              /home/leon/git/swp-report/iMX6_Platform_SDK/output/mx6sl/lib/libsdk.a(snd_card.o) (imx_ssi_2)
/home/leon/git/swp-report/iMX6_Platform_SDK/output/mx6sl/lib/libsdk.a(imx_spdif.o)
                              /home/leon/git/swp-report/iMX6_Platform_SDK/output/mx6sl/lib/libsdk.a(snd_card.o) (imx_spdif)
/home/leon/git/swp-report/iMX6_Platform_SDK/output/mx6sl/lib/libsdk.a(camera_profile.o)
                              /home/leon/git/swp-report/iMX6_Platform_SDK/output/mx6sl/lib/libsdk.a(smd_sensor.o) (g_camera_profiles)
/home/leon/git/swp-report/iMX6_Platform_SDK/output/mx6sl/lib/libsdk.a(mx6x_usb.o)
                              /home/leon/git/swp-report/iMX6_Platform_SDK/output/mx6sl/lib/libsdk.a(usbd_drv.o) (usbEnableClocks)
/home/leon/git/swp-report/iMX6_Platform_SDK/output/mx6sl/lib/libboard_evk_rev_a.a(board_audio.o)
                              /home/leon/git/swp-report/iMX6_Platform_SDK/output/mx6sl/lib/libsdk.a(imx_spdif.o) (spdif_get_tx_clk_freq)
/home/leon/git/swp-report/iMX6_Platform_SDK/output/mx6sl/lib/libboard_evk_rev_a.a(board_camera.o)
                              /home/leon/git/swp-report/iMX6_Platform_SDK/output/mx6sl/lib/libsdk.a(smd_sensor.o) (g_camera_i2c_port)
/home/leon/git/swp-report/iMX6_Platform_SDK/output/mx6sl/lib/libboard_evk_rev_a.a(board_display.o)
                              /home/leon/git/swp-report/iMX6_Platform_SDK/output/mx6sl/lib/libsdk.a(lcdif_drv.o) (lcdif_power_on)
/home/leon/git/swp-report/iMX6_Platform_SDK/output/mx6sl/lib/libboard_evk_rev_a.a(board_i2c.o)
                              /home/leon/git/swp-report/iMX6_Platform_SDK/output/mx6sl/lib/libsdk.a(wm8962.o) (g_wm8962_i2c_device)
/home/leon/git/swp-report/iMX6_Platform_SDK/output/mx6sl/lib/libboard_evk_rev_a.a(board_usb.o)
                              /home/leon/git/swp-report/iMX6_Platform_SDK/output/mx6sl/lib/libsdk.a(usbh_drv.o) (usbEnableVbus)
/home/leon/git/swp-report/iMX6_Platform_SDK/output/mx6sl/lib/libboard_evk_rev_a.a(board_usdhc.o)
                              /home/leon/git/swp-report/iMX6_Platform_SDK/output/mx6sl/lib/libsdk.a(usdhc_host.o) (usdhc_gpio_config)
/home/leon/git/swp-report/iMX6_Platform_SDK/output/mx6sl/lib/libboard_evk_rev_a.a(ecspi_iomux_config.o)
                              /home/leon/git/swp-report/iMX6_Platform_SDK/output/mx6sl/lib/libsdk.a(ecspi.o) (ecspi_iomux_config)
/home/leon/git/swp-report/iMX6_Platform_SDK/output/mx6sl/lib/libboard_evk_rev_a.a(i2c_iomux_config.o)
                              /home/leon/git/swp-report/iMX6_Platform_SDK/output/mx6sl/lib/libsdk.a(imx_i2c.o) (i2c_iomux_config)
/home/leon/git/swp-report/iMX6_Platform_SDK/output/mx6sl/lib/libboard_evk_rev_a.a(pwm_iomux_config.o)
                              /home/leon/git/swp-report/iMX6_Platform_SDK/output/mx6sl/sdk_unit_test/evk_rev_a/libsdk_unit_test.a(pwm_output.o) (pwm_iomux_config)
/home/leon/git/swp-report/iMX6_Platform_SDK/output/mx6sl/lib/libboard_evk_rev_a.a(usdhc_iomux_config.o)
                              /home/leon/git/swp-report/iMX6_Platform_SDK/output/mx6sl/lib/libsdk.a(usdhc_host.o) (usdhc_iomux_config)
/home/leon/riotboard/arm-2012.09/bin/../arm-none-eabi/lib//libstdc++.a(pure.o)
                              /home/leon/git/swp-report/iMX6_Platform_SDK/output/mx6sl/lib/libsdk.a(pmu_driver.o) (__cxa_pure_virtual)
/home/leon/riotboard/arm-2012.09/bin/../arm-none-eabi/lib//libstdc++.a(eh_terminate.o)
                              /home/leon/riotboard/arm-2012.09/bin/../arm-none-eabi/lib//libstdc++.a(pure.o) (std::terminate())
/home/leon/riotboard/arm-2012.09/bin/../arm-none-eabi/lib//libstdc++.a(eh_unex_handler.o)
                              /home/leon/riotboard/arm-2012.09/bin/../arm-none-eabi/lib//libstdc++.a(eh_terminate.o) (__cxxabiv1::__unexpected_handler)
/home/leon/riotboard/arm-2012.09/bin/../arm-none-eabi/lib//libstdc++.a(eh_call.o)
                              /home/leon/riotboard/arm-2012.09/bin/../arm-none-eabi/lib//libstdc++.a(eh_terminate.o) (__cxa_call_unexpected)
/home/leon/riotboard/arm-2012.09/bin/../arm-none-eabi/lib//libstdc++.a(eh_throw.o)
                              /home/leon/riotboard/arm-2012.09/bin/../arm-none-eabi/lib//libstdc++.a(eh_call.o) (__cxa_throw)
/home/leon/riotboard/arm-2012.09/bin/../arm-none-eabi/lib//libstdc++.a(eh_arm.o)
                              /home/leon/riotboard/arm-2012.09/bin/../arm-none-eabi/lib//libstdc++.a(eh_terminate.o) (__cxa_end_cleanup)
/home/leon/riotboard/arm-2012.09/bin/../arm-none-eabi/lib//libstdc++.a(eh_exception.o)
                              /home/leon/riotboard/arm-2012.09/bin/../arm-none-eabi/lib//libstdc++.a(eh_call.o) (std::bad_exception::~bad_exception())
/home/leon/riotboard/arm-2012.09/bin/../arm-none-eabi/lib//libstdc++.a(eh_alloc.o)
                              /home/leon/riotboard/arm-2012.09/bin/../arm-none-eabi/lib//libstdc++.a(eh_call.o) (__cxa_allocate_exception)
/home/leon/riotboard/arm-2012.09/bin/../arm-none-eabi/lib//libstdc++.a(eh_globals.o)
                              /home/leon/riotboard/arm-2012.09/bin/../arm-none-eabi/lib//libstdc++.a(eh_call.o) (__cxa_get_globals_fast)
/home/leon/riotboard/arm-2012.09/bin/../arm-none-eabi/lib//libstdc++.a(si_class_type_info.o)
                              /home/leon/riotboard/arm-2012.09/bin/../arm-none-eabi/lib//libstdc++.a(eh_exception.o) (vtable for __cxxabiv1::__si_class_type_info)
/home/leon/riotboard/arm-2012.09/bin/../arm-none-eabi/lib//libstdc++.a(eh_personality.o)
                              /home/leon/riotboard/arm-2012.09/bin/../arm-none-eabi/lib//libstdc++.a(eh_terminate.o) (__gxx_personality_v0)
/home/leon/riotboard/arm-2012.09/bin/../arm-none-eabi/lib//libstdc++.a(eh_term_handler.o)
                              /home/leon/riotboard/arm-2012.09/bin/../arm-none-eabi/lib//libstdc++.a(eh_terminate.o) (__cxxabiv1::__terminate_handler)
/home/leon/riotboard/arm-2012.09/bin/../arm-none-eabi/lib//libstdc++.a(eh_catch.o)
                              /home/leon/riotboard/arm-2012.09/bin/../arm-none-eabi/lib//libstdc++.a(eh_terminate.o) (__cxa_begin_catch)
/home/leon/riotboard/arm-2012.09/bin/../arm-none-eabi/lib//libstdc++.a(class_type_info.o)
                              /home/leon/riotboard/arm-2012.09/bin/../arm-none-eabi/lib//libstdc++.a(si_class_type_info.o) (__cxxabiv1::__class_type_info::__do_upcast(__cxxabiv1::__class_type_info const*, void**) const)
/home/leon/riotboard/arm-2012.09/bin/../arm-none-eabi/lib//libstdc++.a(vterminate.o)
                              /home/leon/riotboard/arm-2012.09/bin/../arm-none-eabi/lib//libstdc++.a(eh_term_handler.o) (__gnu_cxx::__verbose_terminate_handler())
/home/leon/riotboard/arm-2012.09/bin/../arm-none-eabi/lib//libstdc++.a(cp-demangle.o)
                              /home/leon/riotboard/arm-2012.09/bin/../arm-none-eabi/lib//libstdc++.a(vterminate.o) (__cxa_demangle)
/home/leon/riotboard/arm-2012.09/bin/../arm-none-eabi/lib//libstdc++.a(eh_type.o)
                              /home/leon/riotboard/arm-2012.09/bin/../arm-none-eabi/lib//libstdc++.a(vterminate.o) (__cxa_current_exception_type)
/home/leon/riotboard/arm-2012.09/bin/../arm-none-eabi/lib//libstdc++.a(del_op.o)
                              /home/leon/riotboard/arm-2012.09/bin/../arm-none-eabi/lib//libstdc++.a(eh_exception.o) (operator delete(void*))
/home/leon/riotboard/arm-2012.09/bin/../arm-none-eabi/lib//libstdc++.a(tinfo.o)
                              /home/leon/riotboard/arm-2012.09/bin/../arm-none-eabi/lib//libstdc++.a(class_type_info.o) (std::type_info::~type_info())
/home/leon/riotboard/arm-2012.09/bin/../arm-none-eabi/lib//libc.a(lib_a-fputs.o)
                              /home/leon/riotboard/arm-2012.09/bin/../arm-none-eabi/lib//libstdc++.a(vterminate.o) (fputs)
/home/leon/riotboard/arm-2012.09/bin/../arm-none-eabi/lib//libc.a(lib_a-fwrite.o)
                              /home/leon/riotboard/arm-2012.09/bin/../arm-none-eabi/lib//libstdc++.a(vterminate.o) (fwrite)
/home/leon/riotboard/arm-2012.09/bin/../arm-none-eabi/lib//libc.a(lib_a-memcmp.o)
                              /home/leon/riotboard/arm-2012.09/bin/../arm-none-eabi/lib//libstdc++.a(cp-demangle.o) (memcmp)
/home/leon/riotboard/arm-2012.09/bin/../arm-none-eabi/lib//libc.a(lib_a-strncmp.o)
                              /home/leon/riotboard/arm-2012.09/bin/../arm-none-eabi/lib//libstdc++.a(cp-demangle.o) (strncmp)
/home/leon/riotboard/arm-2012.09/bin/../arm-none-eabi/lib//libc.a(lib_a-syswrite.o)
                              /home/leon/riotboard/arm-2012.09/bin/../arm-none-eabi/lib//libstdc++.a(pure.o) (write)
/home/leon/riotboard/arm-2012.09/bin/../lib/gcc/arm-none-eabi/4.7.2//libgcc.a(_divsi3.o)
                              /home/leon/git/swp-report/iMX6_Platform_SDK/output/mx6sl/lib/libsdk.a(usdhc_host.o) (__aeabi_idiv)
/home/leon/riotboard/arm-2012.09/bin/../lib/gcc/arm-none-eabi/4.7.2//libgcc.a(unwind-arm.o)
                              /home/leon/riotboard/arm-2012.09/bin/../arm-none-eabi/lib//libstdc++.a(eh_throw.o) (__aeabi_unwind_cpp_pr0)
/home/leon/riotboard/arm-2012.09/bin/../lib/gcc/arm-none-eabi/4.7.2//libgcc.a(libunwind.o)
                              /home/leon/riotboard/arm-2012.09/bin/../lib/gcc/arm-none-eabi/4.7.2//libgcc.a(unwind-arm.o) (restore_core_regs)
/home/leon/riotboard/arm-2012.09/bin/../lib/gcc/arm-none-eabi/4.7.2//libgcc.a(pr-support.o)
                              /home/leon/riotboard/arm-2012.09/bin/../lib/gcc/arm-none-eabi/4.7.2//libgcc.a(unwind-arm.o) (__gnu_unwind_execute)
/home/leon/git/swp-report/iMX6_Platform_SDK/output/mx6sl/lib/libsdk.a(pf0100.o)
                              /home/leon/git/swp-report/iMX6_Platform_SDK/output/mx6sl/lib/libboard_evk_rev_a.a(board_camera.o) (pf0100_enable_vgen2_1v5)

Allocating common symbols
Common symbol       size              file

errno               0x4               /home/leon/riotboard/arm-2012.09/bin/../arm-none-eabi/lib//libc.a(lib_a-reent.o)

Discarded input sections

 .group         0x00000000        0x8 /home/leon/git/swp-report/iMX6_Platform_SDK/output/mx6sl/lib/libsdk.a(pmu_driver.o)
 .group         0x00000000        0x8 /home/leon/git/swp-report/iMX6_Platform_SDK/output/mx6sl/lib/libsdk.a(pmu_driver.o)
 .group         0x00000000        0x8 /home/leon/git/swp-report/iMX6_Platform_SDK/output/mx6sl/lib/libsdk.a(pmu_driver.o)
 .group         0x00000000        0x8 /home/leon/git/swp-report/iMX6_Platform_SDK/output/mx6sl/lib/libsdk.a(pmu_driver.o)
 .group         0x00000000        0x8 /home/leon/git/swp-report/iMX6_Platform_SDK/output/mx6sl/lib/libsdk.a(pmu_driver.o)
 .group         0x00000000        0x8 /home/leon/git/swp-report/iMX6_Platform_SDK/output/mx6sl/lib/libsdk.a(pmu_driver.o)
 .group         0x00000000        0x8 /home/leon/git/swp-report/iMX6_Platform_SDK/output/mx6sl/lib/libsdk.a(pmu_driver.o)
 .group         0x00000000        0x8 /home/leon/git/swp-report/iMX6_Platform_SDK/output/mx6sl/lib/libsdk.a(pmu_driver.o)
 .group         0x00000000        0x8 /home/leon/git/swp-report/iMX6_Platform_SDK/output/mx6sl/lib/libsdk.a(pmu_driver.o)
 .group         0x00000000        0x8 /home/leon/git/swp-report/iMX6_Platform_SDK/output/mx6sl/lib/libsdk.a(pmu_driver.o)
 .group         0x00000000        0x8 /home/leon/git/swp-report/iMX6_Platform_SDK/output/mx6sl/lib/libsdk.a(pmu_driver.o)
 .group         0x00000000        0x8 /home/leon/git/swp-report/iMX6_Platform_SDK/output/mx6sl/lib/libsdk.a(pmu_driver.o)
 .group         0x00000000        0x8 /home/leon/git/swp-report/iMX6_Platform_SDK/output/mx6sl/lib/libsdk.a(pmu_driver.o)
 .group         0x00000000        0x8 /home/leon/git/swp-report/iMX6_Platform_SDK/output/mx6sl/lib/libsdk.a(pmu_driver.o)
 .group         0x00000000        0x8 /home/leon/git/swp-report/iMX6_Platform_SDK/output/mx6sl/lib/libsdk.a(pmu_driver.o)
 .group         0x00000000        0x8 /home/leon/git/swp-report/iMX6_Platform_SDK/output/mx6sl/lib/libsdk.a(pmu_driver.o)
 .group         0x00000000        0x8 /home/leon/git/swp-report/iMX6_Platform_SDK/output/mx6sl/lib/libsdk.a(pmu_driver.o)
 .group         0x00000000        0x8 /home/leon/git/swp-report/iMX6_Platform_SDK/output/mx6sl/lib/libsdk.a(pmu_driver.o)
 .group         0x00000000        0x8 /home/leon/git/swp-report/iMX6_Platform_SDK/output/mx6sl/lib/libsdk.a(pmu_driver.o)
 .group         0x00000000        0x8 /home/leon/git/swp-report/iMX6_Platform_SDK/output/mx6sl/lib/libsdk.a(pmu_driver.o)
 .group         0x00000000        0x8 /home/leon/git/swp-report/iMX6_Platform_SDK/output/mx6sl/lib/libsdk.a(pmu_driver.o)
 .group         0x00000000        0x8 /home/leon/git/swp-report/iMX6_Platform_SDK/output/mx6sl/lib/libsdk.a(pmu_driver.o)
 .group         0x00000000        0x8 /home/leon/git/swp-report/iMX6_Platform_SDK/output/mx6sl/lib/libsdk.a(pmu_driver.o)
 .group         0x00000000        0x8 /home/leon/git/swp-report/iMX6_Platform_SDK/output/mx6sl/lib/libsdk.a(pmu_driver.o)
 .group         0x00000000        0x8 /home/leon/git/swp-report/iMX6_Platform_SDK/output/mx6sl/lib/libsdk.a(pmu_driver.o)
 .group         0x00000000        0x8 /home/leon/git/swp-report/iMX6_Platform_SDK/output/mx6sl/lib/libsdk.a(pmu_driver.o)
 .group         0x00000000        0x8 /home/leon/git/swp-report/iMX6_Platform_SDK/output/mx6sl/lib/libsdk.a(pmu_driver.o)
 .group         0x00000000        0x8 /home/leon/git/swp-report/iMX6_Platform_SDK/output/mx6sl/lib/libsdk.a(pmu_driver.o)
 .group         0x00000000        0x8 /home/leon/git/swp-report/iMX6_Platform_SDK/output/mx6sl/lib/libsdk.a(pmu_driver.o)
 .group         0x00000000        0x8 /home/leon/git/swp-report/iMX6_Platform_SDK/output/mx6sl/lib/libsdk.a(pmu_driver.o)
 .group         0x00000000        0x8 /home/leon/git/swp-report/iMX6_Platform_SDK/output/mx6sl/lib/libsdk.a(pmu_driver.o)
 .group         0x00000000        0x8 /home/leon/git/swp-report/iMX6_Platform_SDK/output/mx6sl/lib/libsdk.a(pmu_driver.o)
 .group         0x00000000        0x8 /home/leon/git/swp-report/iMX6_Platform_SDK/output/mx6sl/lib/libsdk.a(pmu_driver.o)
 .group         0x00000000        0x8 /home/leon/git/swp-report/iMX6_Platform_SDK/output/mx6sl/lib/libsdk.a(pmu_driver.o)
 .group         0x00000000        0x8 /home/leon/git/swp-report/iMX6_Platform_SDK/output/mx6sl/lib/libsdk.a(pmu_driver.o)
 .group         0x00000000        0x8 /home/leon/git/swp-report/iMX6_Platform_SDK/output/mx6sl/lib/libsdk.a(pmu_driver.o)
 .group         0x00000000        0x8 /home/leon/git/swp-report/iMX6_Platform_SDK/output/mx6sl/lib/libsdk.a(pmu_driver.o)
 .group         0x00000000        0x8 /home/leon/git/swp-report/iMX6_Platform_SDK/output/mx6sl/lib/libsdk.a(pmu_driver.o)
 .group         0x00000000        0x8 /home/leon/git/swp-report/iMX6_Platform_SDK/output/mx6sl/lib/libsdk.a(pmu_driver.o)

Memory Configuration

Name             Origin             Length             Attributes
OCRAM            0x00900000         0x00020000         xrw
DDR              0x80000000         0x40000000         xrw
*default*        0x00000000         0xffffffff

Linker script and memory map

LOAD /home/leon/riotboard/arm-2012.09/bin/../lib/gcc/arm-none-eabi/4.7.2//crtbegin.o
LOAD /home/leon/riotboard/arm-2012.09/bin/../lib/gcc/arm-none-eabi/4.7.2//crti.o
LOAD /home/leon/riotboard/arm-2012.09/bin/../lib/gcc/arm-none-eabi/4.7.2//crtend.o
LOAD /home/leon/riotboard/arm-2012.09/bin/../lib/gcc/arm-none-eabi/4.7.2//crtn.o

.l1_page_table  0x00900000     0x4000
                0x00900000                __l1_page_table_start = .
                0x00904000                . = (. + 0x4000)
 *fill*         0x00900000     0x4000 

.heap.ocram     0x00904000    0x1bfb8
                0x00904000                __heap_ocram_start = .
                0x0091ffb8                . = (. + 0x1bfb8)
 *fill*         0x00904000    0x1bfb8 
                0x0091ffb8                __heap_ocram_end = .

.ram_vectors    0x0091ffb8       0x48
                0x0091ffb8                __ram_vectors_start = .
                0x00920000                . = (. + 0x48)
 *fill*         0x0091ffb8       0x48 
                0x00920000                __ram_vectors_end = .
                0x80000000                _start_image_add = ORIGIN (DDR)

.ivt            0x80000000      0x420
                0x80000400                . = (. + 0x400)
 *fill*         0x80000000      0x400 
 *(.ivt)
 .ivt           0x80000400       0x20 /home/leon/git/swp-report/iMX6_Platform_SDK/output/mx6sl/sdk_unit_test/evk_rev_a/obj/apps/common/ivt.o
                0x80000400                input_ivt

.boot_data      0x80000420        0xc
                0x80000420                __start_boot_data = .
 *(.boot_data)
 .boot_data     0x80000420        0xc /home/leon/git/swp-report/iMX6_Platform_SDK/output/mx6sl/sdk_unit_test/evk_rev_a/obj/apps/common/ivt.o
                0x80000420                bd

.dcd_hdr        0x80000430        0x4
                0x80000430                __start_dcd = .
 *(.dcd_hdr)
 .dcd_hdr       0x80000430        0x4 /home/leon/git/swp-report/iMX6_Platform_SDK/output/mx6sl/lib/libboard_evk_rev_a.a(dcd.o)
                0x80000430                input_dcd_hdr

.dcd_wrt_cmd    0x80000434        0x4
 *(.dcd_wrt_cmd)
 .dcd_wrt_cmd   0x80000434        0x4 /home/leon/git/swp-report/iMX6_Platform_SDK/output/mx6sl/lib/libboard_evk_rev_a.a(dcd.o)
                0x80000434                input_dcd_wrt_cmd

.dcd_data       0x80000438      0x240
 *(.dcd_data)
 .dcd_data      0x80000438      0x240 /home/leon/git/swp-report/iMX6_Platform_SDK/output/mx6sl/lib/libboard_evk_rev_a.a(dcd.o)
                0x80000438                input_dcd

.text           0x80000678    0x51d70
 CREATE_OBJECT_SYMBOLS
 *(.startup)
 .startup       0x80000678      0x138 /home/leon/git/swp-report/iMX6_Platform_SDK/output/mx6sl/lib/libsdk.a(startup.o)
                0x80000678                _start
 *(.text .text.* .gnu.linkonce.t.*)
 .text          0x800007b0      0x128 /home/leon/riotboard/arm-2012.09/bin/../lib/gcc/arm-none-eabi/4.7.2//crtbegin.o
 .text          0x800008d8        0x0 /home/leon/riotboard/arm-2012.09/bin/../lib/gcc/arm-none-eabi/4.7.2//crti.o
 .text          0x800008d8        0x0 /home/leon/riotboard/arm-2012.09/bin/../lib/gcc/arm-none-eabi/4.7.2//crtend.o
 .text          0x800008d8        0x0 /home/leon/riotboard/arm-2012.09/bin/../lib/gcc/arm-none-eabi/4.7.2//crtn.o
 .text          0x800008d8        0x0 /home/leon/git/swp-report/iMX6_Platform_SDK/output/mx6sl/sdk_unit_test/evk_rev_a/obj/apps/common/ivt.o
 .text          0x800008d8       0x98 /home/leon/git/swp-report/iMX6_Platform_SDK/output/mx6sl/sdk_unit_test/evk_rev_a/obj/apps/common/platform_init.o
                0x800008d8                platform_init
 .text          0x80000970       0xfc /home/leon/git/swp-report/iMX6_Platform_SDK/output/mx6sl/sdk_unit_test/evk_rev_a/obj/apps/common/print_clock_info.o
                0x80000970                show_freq
                0x80000a5c                show_ddr_config
 .text          0x80000a6c      0x15c /home/leon/git/swp-report/iMX6_Platform_SDK/output/mx6sl/sdk_unit_test/evk_rev_a/obj/apps/common/print_version.o
                0x80000a6c                print_version
 .text          0x80000bc8       0x50 /home/leon/git/swp-report/iMX6_Platform_SDK/output/mx6sl/sdk_unit_test/evk_rev_a/obj/apps/sdk_unit_test/src/all_test.o
                0x80000bc8                run_test
                0x80000bfc                ALL_test
 .text          0x80000c18       0x2c /home/leon/git/swp-report/iMX6_Platform_SDK/output/mx6sl/sdk_unit_test/evk_rev_a/obj/apps/sdk_unit_test/src/unit_test_main.o
                0x80000c18                main
 .text          0x80000c44      0x968 /home/leon/git/swp-report/iMX6_Platform_SDK/output/mx6sl/lib/libsdk.a(ccm_pll.o)
                0x80000c44                ccm_init
                0x80000d68                get_main_clock
                0x80000f34                get_peri_clock
                0x80001014                ccm_ccgr_config
                0x8000107c                clock_gating_config
                0x80001448                ccm_set_lpm_wakeup_source
                0x8000153c                ccm_enter_low_power
 .text          0x800015ac      0x164 /home/leon/git/swp-report/iMX6_Platform_SDK/output/mx6sl/lib/libsdk.a(cortexA9.o)
                0x800015ac                arm_set_interrupt_state
                0x800015d0                cpu_get_current
                0x800015dc                enable_neon_fpu
                0x800015f8                disable_strict_align_check
                0x8000160c                disable_L1_cache
                0x8000162c                get_arm_private_peripheral_base
                0x80001634                arm_unified_tlb_invalidate
                0x80001644                arm_unified_tlb_invalidate_is
                0x80001654                arm_branch_prediction_enable
                0x80001664                arm_branch_prediction_disable
                0x80001674                arm_branch_target_cache_invalidate
                0x80001680                arm_branch_target_cache_invalidate_is
                0x8000168c                scu_enable
                0x800016a0                scu_join_smp
                0x800016b0                scu_leave_smp
                0x800016c0                scu_get_cpus_in_smp
                0x800016d4                scu_enable_maintenance_broadcast
                0x800016e4                scu_disable_maintenance_broadcast
                0x800016f4                scu_secure_invalidate
 .text          0x80001710      0x5e0 /home/leon/git/swp-report/iMX6_Platform_SDK/output/mx6sl/lib/libsdk.a(gic.o)
                0x800017f4                gic_enable
                0x80001854                gic_set_irq_security
                0x800018fc                gic_enable_irq
                0x80001978                gic_set_irq_priority
                0x800019c0                gic_set_cpu_target
                0x80001acc                gic_send_sgi
                0x80001b20                gic_cpu_enable
                0x80001b80                gic_set_cpu_priority_mask
                0x80001bb4                gic_read_irq_ack
                0x80001be0                gic_write_end_of_irq
                0x80001c10                gic_init
                0x80001cb4                gic_init_cpu
 .text          0x80001cf0      0x460 /home/leon/git/swp-report/iMX6_Platform_SDK/output/mx6sl/lib/libsdk.a(mmu.o)
                0x80001cf0                mmu_enable
                0x80001d28                mmu_disable
                0x80001d5c                mmu_init
                0x80001e78                mmu_map_l1_range
                0x80002090                mmu_virtual_to_physical
 .text          0x80002150        0x0 /home/leon/git/swp-report/iMX6_Platform_SDK/output/mx6sl/lib/libsdk.a(startup.o)
 .text          0x80002150        0x4 /home/leon/git/swp-report/iMX6_Platform_SDK/output/mx6sl/lib/libsdk.a(vectors.o)
                0x80002150                exception_handler
 .text.vectors  0x80002154       0x48 /home/leon/git/swp-report/iMX6_Platform_SDK/output/mx6sl/lib/libsdk.a(vectors.o)
                0x80002154                vectors
 .text          0x8000219c      0xc78 /home/leon/git/swp-report/iMX6_Platform_SDK/output/mx6sl/lib/libsdk.a(menu.o)
                0x80002644                menu_get_indent
                0x80002660                menuitem_cmd_showmenu
                0x80002684                menuitem_cmd_exitmenu
                0x800026a8                menu_append_menuitems
                0x800027c8                menu_present
                0x80002d64                menu_print_menuitem
 .text          0x80002e14        0x0 /home/leon/git/swp-report/iMX6_Platform_SDK/output/mx6sl/lib/libsdk.a(sdk_version.o)
 .text          0x80002e14      0x914 /home/leon/git/swp-report/iMX6_Platform_SDK/output/mx6sl/lib/libsdk.a(system_util.o)
                0x80002e14                _sys_exit
                0x80002e30                mybkpt
                0x80002e38                is_input_char
                0x80002fb8                read_input_string
                0x800032a0                get_input_hex
                0x80003520                read_int
                0x80003684                jump_to_sdp
 .text          0x80003728       0xe0 /home/leon/git/swp-report/iMX6_Platform_SDK/output/mx6sl/lib/libsdk.a(text_color.o)
                0x80003728                printf_color
                0x800037c4                get_color_supported
 .text          0x80003808      0x7c4 /home/leon/git/swp-report/iMX6_Platform_SDK/output/mx6sl/lib/libsdk.a(board_id.o)
                0x80003808                chip_name
                0x80003920                chip_revision
                0x800039f8                board_name
                0x80003afc                board_revision
                0x80003bc4                board_description
                0x80003ce4                get_board_id
                0x80003dc0                show_board_id
 .text          0x80003fcc      0x290 /home/leon/git/swp-report/iMX6_Platform_SDK/output/mx6sl/lib/libsdk.a(timer.o)
                0x80003fcc                hal_delay_us
                0x8000403c                system_time_init
                0x8000419c                time_get_microseconds
 .text          0x8000425c     0x2820 /home/leon/git/swp-report/iMX6_Platform_SDK/output/mx6sl/lib/libsdk.a(imx_uart.o)
                0x8000425c                uart_get_reffreq
                0x80004358                uart_putchar
                0x800044a8                uart_getchar
                0x80004608                uart_set_FIFO_mode
                0x80005134                uart_set_loopback_mode
                0x80005388                uart_setup_interrupt
                0x80005454                uart_init
 .text          0x80006a7c       0x98 /home/leon/git/swp-report/iMX6_Platform_SDK/output/mx6sl/lib/libsdk.a(arm_abort.o)
                0x80006a7c                common_abort_handler
                0x80006adc                data_abort_handler
                0x80006af4                prefetch_abort_handler
 .text          0x80006b14      0x1bc /home/leon/git/swp-report/iMX6_Platform_SDK/output/mx6sl/lib/libsdk.a(interrupt.o)
                0x80006b14                IRQ_HDLR
                0x80006bdc                disable_interrupt
                0x80006c18                enable_interrupt
                0x80006c70                register_interrupt_routine
                0x80006ca4                default_interrupt_routine
 .text          0x80006cd0      0x8e0 /home/leon/git/swp-report/iMX6_Platform_SDK/output/mx6sl/lib/libsdk.a(epit.o)
                0x80006cd0                epit_reload_counter
                0x80006d30                epit_get_counter_value
                0x80006d8c                epit_set_compare_event
                0x80006dec                epit_get_compare_event
                0x80006ee4                epit_counter_disable
                0x800070a8                epit_counter_enable
                0x80007304                epit_setup_interrupt
                0x80007394                epit_init
 .text          0x800075b0      0x4bc /home/leon/git/swp-report/iMX6_Platform_SDK/output/mx6sl/lib/libsdk.a(abort_handler.o)
                0x800075b0                dump_regs
 .text          0x80007a6c       0x10 /home/leon/git/swp-report/iMX6_Platform_SDK/output/mx6sl/lib/libboard_evk_rev_a.a(board_io_expanders.o)
                0x80007a6c                board_ioexpander_init
 .text          0x80007a7c        0x0 /home/leon/git/swp-report/iMX6_Platform_SDK/output/mx6sl/lib/libboard_evk_rev_a.a(dcd.o)
 .text          0x80007a7c        0x0 /home/leon/git/swp-report/iMX6_Platform_SDK/output/mx6sl/lib/libboard_evk_rev_a.a(hardware_modules.o)
 .text          0x80007a7c       0x90 /home/leon/git/swp-report/iMX6_Platform_SDK/output/mx6sl/lib/libboard_evk_rev_a.a(uart_iomux_config.o)
                0x80007a7c                uart_iomux_config
 .text          0x80007b0c      0x20c /home/leon/git/swp-report/iMX6_Platform_SDK/output/mx6sl/lib/libboard_evk_rev_a.a(iomux_config.o)
                0x80007b0c                iomux_config
                0x80007b78                arm_iomux_config
                0x80007b88                ccm_iomux_config
                0x80007b98                ecspi3_iomux_config
                0x80007ba8                ecspi4_iomux_config
                0x80007bb8                eim_iomux_config
                0x80007bc8                epit1_iomux_config
                0x80007bd8                epit2_iomux_config
                0x80007be8                gpio2_iomux_config
                0x80007bf8                gpio3_iomux_config
                0x80007c08                gpio5_iomux_config
                0x80007c18                gpt_iomux_config
                0x80007c28                pmu_iomux_config
                0x80007c38                pwm2_iomux_config
                0x80007c48                pwm3_iomux_config
                0x80007c58                pwm4_iomux_config
                0x80007c68                sdma_iomux_config
                0x80007c78                snvs_iomux_config
                0x80007c88                spdif_iomux_config
                0x80007c98                src_iomux_config
                0x80007ca8                uart2_iomux_config
                0x80007cb8                uart3_iomux_config
                0x80007cc8                uart4_iomux_config
                0x80007cd8                uart5_iomux_config
                0x80007ce8                usdhc4_iomux_config
                0x80007cf8                wdog2_iomux_config
                0x80007d08                xtalosc_iomux_config
 .text          0x80007d18      0x1b0 /home/leon/git/swp-report/iMX6_Platform_SDK/output/mx6sl/lib/libboard_evk_rev_a.a(kpp_iomux_config.o)
                0x80007d18                kpp_iomux_config
 .text          0x80007ec8      0x5b4 /home/leon/git/swp-report/iMX6_Platform_SDK/output/mx6sl/lib/libboard_evk_rev_a.a(lcd_iomux_config.o)
                0x80007ec8                lcd_iomux_config
 .text          0x8000847c     0x1644 /home/leon/git/swp-report/iMX6_Platform_SDK/output/mx6sl/lib/libboard_evk_rev_a.a(mmdc_iomux_config.o)
                0x8000847c                mmdc_iomux_config
 .text          0x80009ac0       0x34 /home/leon/git/swp-report/iMX6_Platform_SDK/output/mx6sl/lib/libboard_evk_rev_a.a(pwm1_iomux_config.o)
                0x80009ac0                pwm1_iomux_config
 .text          0x80009af4       0x70 /home/leon/git/swp-report/iMX6_Platform_SDK/output/mx6sl/lib/libboard_evk_rev_a.a(sjc_iomux_config.o)
                0x80009af4                sjc_iomux_config
 .text          0x80009b64      0x250 /home/leon/git/swp-report/iMX6_Platform_SDK/output/mx6sl/lib/libboard_evk_rev_a.a(spdc_iomux_config.o)
                0x80009b64                spdc_iomux_config
 .text          0x80009db4       0x78 /home/leon/git/swp-report/iMX6_Platform_SDK/output/mx6sl/lib/libboard_evk_rev_a.a(uart1_iomux_config.o)
                0x80009db4                uart1_iomux_config
 .text          0x80009e2c       0xc0 /home/leon/git/swp-report/iMX6_Platform_SDK/output/mx6sl/lib/libboard_evk_rev_a.a(usb_iomux_config.o)
                0x80009e2c                usb_iomux_config
 .text          0x80009eec      0x1e0 /home/leon/git/swp-report/iMX6_Platform_SDK/output/mx6sl/lib/libboard_evk_rev_a.a(usdhc1_iomux_config.o)
                0x80009eec                usdhc1_iomux_config
 .text          0x8000a0cc      0x174 /home/leon/git/swp-report/iMX6_Platform_SDK/output/mx6sl/lib/libboard_evk_rev_a.a(usdhc2_iomux_config.o)
                0x8000a0cc                usdhc2_iomux_config
 .text          0x8000a240      0x11c /home/leon/git/swp-report/iMX6_Platform_SDK/output/mx6sl/lib/libboard_evk_rev_a.a(usdhc3_iomux_config.o)
                0x8000a240                usdhc3_iomux_config
 .text          0x8000a35c       0x34 /home/leon/git/swp-report/iMX6_Platform_SDK/output/mx6sl/lib/libboard_evk_rev_a.a(wdog1_iomux_config.o)
                0x8000a35c                wdog1_iomux_config
 .text          0x8000a390      0x10c /home/leon/git/swp-report/iMX6_Platform_SDK/output/mx6sl/lib/libboard_evk_rev_a.a(audmux_iomux_config.o)
                0x8000a390                audmux_iomux_config
 .text          0x8000a49c      0x320 /home/leon/git/swp-report/iMX6_Platform_SDK/output/mx6sl/lib/libboard_evk_rev_a.a(csi_iomux_config.o)
                0x8000a49c                csi_iomux_config
 .text          0x8000a7bc       0xe0 /home/leon/git/swp-report/iMX6_Platform_SDK/output/mx6sl/lib/libboard_evk_rev_a.a(ecspi1_iomux_config.o)
                0x8000a7bc                ecspi1_iomux_config
 .text          0x8000a89c       0xe0 /home/leon/git/swp-report/iMX6_Platform_SDK/output/mx6sl/lib/libboard_evk_rev_a.a(ecspi2_iomux_config.o)
                0x8000a89c                ecspi2_iomux_config
 .text          0x8000a97c      0x5d0 /home/leon/git/swp-report/iMX6_Platform_SDK/output/mx6sl/lib/libboard_evk_rev_a.a(epdc_iomux_config.o)
                0x8000a97c                epdc_iomux_config
 .text          0x8000af4c      0x1dc /home/leon/git/swp-report/iMX6_Platform_SDK/output/mx6sl/lib/libboard_evk_rev_a.a(fec_iomux_config.o)
                0x8000af4c                fec_iomux_config
 .text          0x8000b128       0x10 /home/leon/git/swp-report/iMX6_Platform_SDK/output/mx6sl/lib/libboard_evk_rev_a.a(gpio1_iomux_config.o)
                0x8000b128                gpio1_iomux_config
 .text          0x8000b138       0x10 /home/leon/git/swp-report/iMX6_Platform_SDK/output/mx6sl/lib/libboard_evk_rev_a.a(gpio4_iomux_config.o)
                0x8000b138                gpio4_iomux_config
 .text          0x8000b148       0x78 /home/leon/git/swp-report/iMX6_Platform_SDK/output/mx6sl/lib/libboard_evk_rev_a.a(i2c1_iomux_config.o)
                0x8000b148                i2c1_iomux_config
 .text          0x8000b1c0       0x78 /home/leon/git/swp-report/iMX6_Platform_SDK/output/mx6sl/lib/libboard_evk_rev_a.a(i2c2_iomux_config.o)
                0x8000b1c0                i2c2_iomux_config
 .text          0x8000b238       0x70 /home/leon/git/swp-report/iMX6_Platform_SDK/output/mx6sl/lib/libboard_evk_rev_a.a(i2c3_iomux_config.o)
                0x8000b238                i2c3_iomux_config
 .text          0x8000b2a8      0x1fc /home/leon/git/swp-report/iMX6_Platform_SDK/output/mx6sl/sdk_unit_test/evk_rev_a/libsdk_unit_test.a(cpu_wp_test.o)
                0x8000b2a8                my_memcpy
                0x8000b2e4                memcpy_perf_record
                0x8000b3cc                cpu_wp_test
 .text          0x8000b4a4      0x37c /home/leon/git/swp-report/iMX6_Platform_SDK/output/mx6sl/sdk_unit_test/evk_rev_a/libsdk_unit_test.a(audio_test.o)
                0x8000b4a4                audio_test
 .text          0x8000b820      0x2e8 /home/leon/git/swp-report/iMX6_Platform_SDK/output/mx6sl/sdk_unit_test/evk_rev_a/libsdk_unit_test.a(ssi_playback.o)
                0x8000b820                ssi_playback
 .text          0x8000bb08        0x0 /home/leon/git/swp-report/iMX6_Platform_SDK/output/mx6sl/sdk_unit_test/evk_rev_a/libsdk_unit_test.a(wav_file.o)
 .text          0x8000bb08       0xc4 /home/leon/git/swp-report/iMX6_Platform_SDK/output/mx6sl/sdk_unit_test/evk_rev_a/libsdk_unit_test.a(gic_test.o)
                0x8000bb08                gic_sgi_test_handler
                0x8000bb34                gic_test
 .text          0x8000bbcc      0x3ec /home/leon/git/swp-report/iMX6_Platform_SDK/output/mx6sl/sdk_unit_test/evk_rev_a/libsdk_unit_test.a(ocotp_test.o)
                0x8000bbcc                ocotp_test
 .text          0x8000bfb8      0x128 /home/leon/git/swp-report/iMX6_Platform_SDK/output/mx6sl/sdk_unit_test/evk_rev_a/libsdk_unit_test.a(i2c_test.o)
                0x8000bfb8                i2c_test
 .text          0x8000c0e0      0x884 /home/leon/git/swp-report/iMX6_Platform_SDK/output/mx6sl/sdk_unit_test/evk_rev_a/libsdk_unit_test.a(imx6_i2c_device.o)
                0x8000c0e0                imx6_slave_receive
                0x8000c218                imx6_slave_transmit
                0x8000c404                i2c_imx6_slave_test
 .text          0x8000c964      0x340 /home/leon/git/swp-report/iMX6_Platform_SDK/output/mx6sl/sdk_unit_test/evk_rev_a/libsdk_unit_test.a(snvs_rtc_test.o)
                0x8000c964                one_time_tick_callback
                0x8000c990                periodic_tick_callback
                0x8000c9e0                one_time_timer_test
                0x8000caa8                periodic_timer_test
                0x8000cb7c                snvs_rtc_test
 .text          0x8000cca4      0x1fc /home/leon/git/swp-report/iMX6_Platform_SDK/output/mx6sl/sdk_unit_test/evk_rev_a/libsdk_unit_test.a(snvs_srtc_test.o)
                0x8000cca4                srtc_one_time_tick_callback
                0x8000ccd0                srtc_one_time_timer_test
                0x8000cd94                snvs_srtc_test
 .text          0x8000cea0      0x290 /home/leon/git/swp-report/iMX6_Platform_SDK/output/mx6sl/sdk_unit_test/evk_rev_a/libsdk_unit_test.a(tempmon_test.o)
                0x8000cea0                over_temp_callback
                0x8000ced4                print_current_temp
                0x8000cf0c                tempmon_test
 .text          0x8000d130      0x1f4 /home/leon/git/swp-report/iMX6_Platform_SDK/output/mx6sl/sdk_unit_test/evk_rev_a/libsdk_unit_test.a(sdma_test.o)
                0x8000d130                sdma_test
 .text          0x8000d324      0xa1c /home/leon/git/swp-report/iMX6_Platform_SDK/output/mx6sl/sdk_unit_test/evk_rev_a/libsdk_unit_test.a(spi_lpb.o)
                0x8000d424                ecspi_app_test
                0x8000d8b4                ecspi_shp_test
 .text          0x8000dd40      0xfbc /home/leon/git/swp-report/iMX6_Platform_SDK/output/mx6sl/sdk_unit_test/evk_rev_a/libsdk_unit_test.a(uart_loopback.o)
                0x8000df4c                uart_app_test
                0x8000e3c8                uart_shp_test
                0x8000e854                uart5_trans_isr
                0x8000e890                uart_app_interrupt_test
 .text          0x8000ecfc      0x374 /home/leon/git/swp-report/iMX6_Platform_SDK/output/mx6sl/sdk_unit_test/evk_rev_a/libsdk_unit_test.a(epit_test.o)
                0x8000ecfc                epit_test
 .text          0x8000f070      0x4fc /home/leon/git/swp-report/iMX6_Platform_SDK/output/mx6sl/sdk_unit_test/evk_rev_a/libsdk_unit_test.a(gpt_test.o)
                0x8000f070                gpt_test
                0x8000f198                gpt_out_compare_test
                0x8000f2f0                gpt_interrupt_routine
                0x8000f384                gpt_in_capture_test
 .text          0x8000f56c       0xb4 /home/leon/git/swp-report/iMX6_Platform_SDK/output/mx6sl/sdk_unit_test/evk_rev_a/libsdk_unit_test.a(timer_test.o)
                0x8000f56c                microseconds_test
 .text          0x8000f620      0x24c /home/leon/git/swp-report/iMX6_Platform_SDK/output/mx6sl/sdk_unit_test/evk_rev_a/libsdk_unit_test.a(uart_test.o)
                0x8000f620                uart_interrupt_handler
                0x8000f678                uart_test
 .text          0x8000f86c      0xcf4 /home/leon/git/swp-report/iMX6_Platform_SDK/output/mx6sl/sdk_unit_test/evk_rev_a/libsdk_unit_test.a(usdhc_test.o)
                0x8000f86c                mmc_sd_test
                0x8000f8a0                usdhc_test
 .text          0x80010560      0x1ec /home/leon/git/swp-report/iMX6_Platform_SDK/output/mx6sl/sdk_unit_test/evk_rev_a/libsdk_unit_test.a(pwm_test.o)
                0x80010560                pwm_test
 .text          0x8001074c      0x244 /home/leon/git/swp-report/iMX6_Platform_SDK/output/mx6sl/sdk_unit_test/evk_rev_a/libsdk_unit_test.a(watchdog_test.o)
                0x80010964                wdog_test
 .text          0x80010990      0x508 /home/leon/git/swp-report/iMX6_Platform_SDK/output/mx6sl/sdk_unit_test/evk_rev_a/libsdk_unit_test.a(spi_test.o)
                0x80010ca4                spi_test
 .text          0x80010e98      0x1a4 /home/leon/git/swp-report/iMX6_Platform_SDK/output/mx6sl/sdk_unit_test/evk_rev_a/libsdk_unit_test.a(usb_test.o)
                0x80010e98                usb_test
 .text          0x8001103c      0x464 /home/leon/git/swp-report/iMX6_Platform_SDK/output/mx6sl/sdk_unit_test/evk_rev_a/libsdk_unit_test.a(epdc_test.o)
                0x8001103c                epdc_test
                0x80011190                epdc_pvi_svga_sdr_init
                0x800111b0                epdc_update_image
                0x800112dc                epdc_send_mode0_to_black_update
                0x80011378                epdc_send_image_update
                0x80011408                epdc_send_erase_to_color
 .text          0x800114a0      0x1ec /home/leon/git/swp-report/iMX6_Platform_SDK/output/mx6sl/sdk_unit_test/evk_rev_a/libsdk_unit_test.a(lcdif_test.o)
                0x800114a0                lcdif_test
 .text          0x8001168c      0x1f4 /home/leon/git/swp-report/iMX6_Platform_SDK/output/mx6sl/sdk_unit_test/evk_rev_a/libsdk_unit_test.a(camera_test.o)
                0x8001168c                camera_test
 .text          0x80011880      0x120 /home/leon/git/swp-report/iMX6_Platform_SDK/output/mx6sl/sdk_unit_test/evk_rev_a/libsdk_unit_test.a(csi_sensor_capture.o)
                0x80011880                csi_sensor_capture
 .text          0x800119a0      0x570 /home/leon/git/swp-report/iMX6_Platform_SDK/output/mx6sl/sdk_unit_test/evk_rev_a/libsdk_unit_test.a(fec_test.o)
                0x80011bd4                fec_test
 .text          0x80011f10      0x220 /home/leon/git/swp-report/iMX6_Platform_SDK/output/mx6sl/sdk_unit_test/evk_rev_a/libsdk_unit_test.a(spdc_test.o)
                0x80011f10                spdc_test
 .text          0x80012130      0x2ac /home/leon/git/swp-report/iMX6_Platform_SDK/output/mx6sl/sdk_unit_test/evk_rev_a/libsdk_unit_test.a(at24cxx.o)
                0x800121e4                i2c_eeprom_at24cxx_test
 .text          0x800123dc      0x404 /home/leon/git/swp-report/iMX6_Platform_SDK/output/mx6sl/sdk_unit_test/evk_rev_a/libsdk_unit_test.a(mem_2_mem.o)
                0x800123dc                mem_2_mem_test
 .text          0x800127e0      0x2f4 /home/leon/git/swp-report/iMX6_Platform_SDK/output/mx6sl/sdk_unit_test/evk_rev_a/libsdk_unit_test.a(pwm_output.o)
                0x8001286c                pwm_output_test
 .text          0x80012ad4      0xb00 /home/leon/git/swp-report/iMX6_Platform_SDK/output/mx6sl/sdk_unit_test/evk_rev_a/libsdk_unit_test.a(spi_nor_numonyx.o)
                0x80012dac                spi_nor_query_numonyx
                0x80012e78                spi_nor_erase_numonyx
                0x80012f04                spi_nor_read_numonyx
                0x8001314c                spi_nor_write_numonyx
 .text          0x800135d4     0x14c8 /home/leon/git/swp-report/iMX6_Platform_SDK/output/mx6sl/sdk_unit_test/evk_rev_a/libsdk_unit_test.a(usb0_device_mouse_test.o)
                0x800135d4                usb0_device_mouse_test
                0x800142fc                hid_device_enum
                0x80014860                fillBuffer
 .text          0x80014a9c     0x2938 /home/leon/git/swp-report/iMX6_Platform_SDK/output/mx6sl/sdk_unit_test/evk_rev_a/libsdk_unit_test.a(usb0_host_test.o)
                0x80014a9c                usb0_host_test
                0x80015328                emuerateDevice
                0x800154a8                usbh_set_device_address
                0x80015978                usbh_get_dev_desc
                0x80015e70                usbh_get_config_desc
                0x800163a8                usbh_get_interface_desc
                0x800169c0                usbh_set_configuration
                0x80016ea4                usbh_get_report_desc
 .text          0x800173d4      0x5b8 /home/leon/git/swp-report/iMX6_Platform_SDK/output/mx6sl/sdk_unit_test/evk_rev_a/libsdk_unit_test.a(usb0_host_testmodes_test.o)
                0x800173d4                usb0_host_testmodes_test
 .text          0x8001798c       0xf0 /home/leon/git/swp-report/iMX6_Platform_SDK/output/mx6sl/sdk_unit_test/evk_rev_a/libsdk_unit_test.a(lcdif_display.o)
                0x8001798c                lcdif_display_test
 .text          0x80017a7c        0x0 /home/leon/git/swp-report/iMX6_Platform_SDK/output/mx6sl/sdk_unit_test/evk_rev_a/libsdk_unit_test.a(auo_lut.o)
 .text          0x80017a7c       0xa4 /home/leon/riotboard/arm-2012.09/bin/../arm-none-eabi/lib//libm.a(lib_a-sf_cos.o)
                0x80017a7c                cosf
 .text          0x80017b20       0xbc /home/leon/riotboard/arm-2012.09/bin/../arm-none-eabi/lib//libm.a(lib_a-sf_sin.o)
                0x80017b20                sinf
 .text          0x80017bdc      0x460 /home/leon/riotboard/arm-2012.09/bin/../arm-none-eabi/lib//libm.a(lib_a-ef_rem_pio2.o)
                0x80017bdc                __ieee754_rem_pio2f
 .text          0x8001803c      0x214 /home/leon/riotboard/arm-2012.09/bin/../arm-none-eabi/lib//libm.a(lib_a-kf_cos.o)
                0x8001803c                __kernel_cosf
 .text          0x80018250      0x960 /home/leon/riotboard/arm-2012.09/bin/../arm-none-eabi/lib//libm.a(lib_a-kf_rem_pio2.o)
                0x80018250                __kernel_rem_pio2f
 .text          0x80018bb0      0x14c /home/leon/riotboard/arm-2012.09/bin/../arm-none-eabi/lib//libm.a(lib_a-kf_sin.o)
                0x80018bb0                __kernel_sinf
 .text          0x80018cfc        0x8 /home/leon/riotboard/arm-2012.09/bin/../arm-none-eabi/lib//libm.a(lib_a-sf_fabs.o)
                0x80018cfc                fabsf
 .text          0x80018d04       0xd0 /home/leon/riotboard/arm-2012.09/bin/../arm-none-eabi/lib//libm.a(lib_a-sf_floor.o)
                0x80018d04                floorf
 .text          0x80018dd4      0x120 /home/leon/riotboard/arm-2012.09/bin/../arm-none-eabi/lib//libm.a(lib_a-sf_scalbn.o)
                0x80018dd4                scalbnf
 .text          0x80018ef4       0x10 /home/leon/riotboard/arm-2012.09/bin/../arm-none-eabi/lib//libm.a(lib_a-sf_copysign.o)
                0x80018ef4                copysignf
 .text          0x80018f04       0x68 /home/leon/riotboard/arm-2012.09/bin/../arm-none-eabi/lib//libc.a(lib_a-assert.o)
                0x80018f04                __assert_func
                0x80018f5c                __assert
 .text          0x80018f6c       0x20 /home/leon/riotboard/arm-2012.09/bin/../arm-none-eabi/lib//libc.a(lib_a-bzero.o)
                0x80018f6c                bzero
 .text          0x80018f8c       0x70 /home/leon/riotboard/arm-2012.09/bin/../arm-none-eabi/lib//libc.a(lib_a-fiprintf.o)
                0x80018f8c                _fiprintf_r
                0x80018fbc                fiprintf
 .text          0x80018ffc       0x94 /home/leon/riotboard/arm-2012.09/bin/../arm-none-eabi/lib//libc.a(lib_a-fputc.o)
                0x80018ffc                _fputc_r
                0x80019040                fputc
 .text          0x80019090        0x0 /home/leon/riotboard/arm-2012.09/bin/../arm-none-eabi/lib//libc.a(lib_a-impure.o)
 .text          0x80019090       0x88 /home/leon/riotboard/arm-2012.09/bin/../arm-none-eabi/lib//libc.a(lib_a-init.o)
                0x80019090                __libc_init_array
 .text          0x80019118       0x40 /home/leon/riotboard/arm-2012.09/bin/../arm-none-eabi/lib//libc.a(lib_a-malloc.o)
                0x80019118                malloc
                0x80019138                free
 .text          0x80019158      0x71c /home/leon/riotboard/arm-2012.09/bin/../arm-none-eabi/lib//libc.a(lib_a-mallocr.o)
                0x80019158                _malloc_r
 .text          0x80019874      0x20c /home/leon/riotboard/arm-2012.09/bin/../arm-none-eabi/lib//libc.a(lib_a-memcpy.o)
                0x80019874                memcpy
 .text          0x80019a80      0x134 /home/leon/riotboard/arm-2012.09/bin/../arm-none-eabi/lib//libc.a(lib_a-memset.o)
                0x80019a80                memset
 .text          0x80019bb4        0x8 /home/leon/riotboard/arm-2012.09/bin/../arm-none-eabi/lib//libc.a(lib_a-mlock.o)
                0x80019bb4                __malloc_lock
                0x80019bb8                __malloc_unlock
 .text          0x80019bbc       0x74 /home/leon/riotboard/arm-2012.09/bin/../arm-none-eabi/lib//libc.a(lib_a-printf.o)
                0x80019bbc                _printf_r
                0x80019bf0                printf
 .text          0x80019c30      0x170 /home/leon/riotboard/arm-2012.09/bin/../arm-none-eabi/lib//libc.a(lib_a-putc.o)
                0x80019c30                _putc_r
                0x80019ce0                putc
 .text          0x80019da0       0x28 /home/leon/riotboard/arm-2012.09/bin/../arm-none-eabi/lib//libc.a(lib_a-realloc.o)
                0x80019da0                realloc
 .text          0x80019dc8      0x574 /home/leon/riotboard/arm-2012.09/bin/../arm-none-eabi/lib//libc.a(lib_a-reallocr.o)
                0x80019dc8                _realloc_r
 .text          0x8001a33c       0x6c /home/leon/riotboard/arm-2012.09/bin/../arm-none-eabi/lib//libc.a(lib_a-rget.o)
                0x8001a33c                __srget_r
                0x8001a394                __srget
 .text          0x8001a3a8       0x40 /home/leon/riotboard/arm-2012.09/bin/../arm-none-eabi/lib//libc.a(lib_a-sbrkr.o)
                0x8001a3a8                _sbrk_r
 .text          0x8001a3e8       0xdc /home/leon/riotboard/arm-2012.09/bin/../arm-none-eabi/lib//libc.a(lib_a-sprintf.o)
                0x8001a3e8                _sprintf_r
                0x8001a450                sprintf
 .text          0x8001a4c4       0x60 /home/leon/riotboard/arm-2012.09/bin/../arm-none-eabi/lib//libc.a(lib_a-strlen.o)
                0x8001a4c4                strlen
 .text          0x8001a524       0x78 /home/leon/riotboard/arm-2012.09/bin/../arm-none-eabi/lib//libc.a(lib_a-strncasecmp.o)
                0x8001a524                strncasecmp
 .text          0x8001a59c     0x1f7c /home/leon/riotboard/arm-2012.09/bin/../arm-none-eabi/lib//libc.a(lib_a-svfprintf.o)
                0x8001a59c                _svfprintf_r
 .text          0x8001c518     0x12c4 /home/leon/riotboard/arm-2012.09/bin/../arm-none-eabi/lib//libc.a(lib_a-vfiprintf.o)
                0x8001c518                __sprint_r
                0x8001c5d4                _vfiprintf_r
                0x8001d7b0                vfiprintf
 .text          0x8001d7dc     0x2180 /home/leon/riotboard/arm-2012.09/bin/../arm-none-eabi/lib//libc.a(lib_a-vfprintf.o)
                0x8001d7dc                _vfprintf_r
                0x8001f930                vfprintf
 .text          0x8001f95c       0x4c /home/leon/riotboard/arm-2012.09/bin/../arm-none-eabi/lib//libc.a(lib_a-vprintf.o)
                0x8001f95c                vprintf
                0x8001f988                _vprintf_r
 .text          0x8001f9a8      0x14c /home/leon/riotboard/arm-2012.09/bin/../arm-none-eabi/lib//libc.a(lib_a-wbuf.o)
                0x8001f9a8                __swbuf_r
                0x8001fad8                __swbuf
 .text          0x8001faf4      0x138 /home/leon/riotboard/arm-2012.09/bin/../arm-none-eabi/lib//libc.a(lib_a-wsetup.o)
                0x8001faf4                __swsetup_r
 .text          0x8001fc2c       0x14 /home/leon/riotboard/arm-2012.09/bin/../arm-none-eabi/lib//libc.a(lib_a-abort.o)
                0x8001fc2c                abort
 .text          0x8001fc40        0x0 /home/leon/riotboard/arm-2012.09/bin/../arm-none-eabi/lib//libc.a(lib_a-ctype_.o)
 .text          0x8001fc40     0x18a8 /home/leon/riotboard/arm-2012.09/bin/../arm-none-eabi/lib//libc.a(lib_a-dtoa.o)
                0x8001fe20                _dtoa_r
 .text          0x800214e8      0x26c /home/leon/riotboard/arm-2012.09/bin/../arm-none-eabi/lib//libc.a(lib_a-fflush.o)
                0x800214e8                _fflush_r
                0x80021714                fflush
 .text          0x80021754      0x2c4 /home/leon/riotboard/arm-2012.09/bin/../arm-none-eabi/lib//libc.a(lib_a-findfp.o)
                0x80021764                _cleanup_r
                0x800217f8                __sfmoreglue
                0x80021840                _cleanup
                0x80021850                __sinit
                0x800218c8                __sfp
                0x800219c0                __sfp_lock_acquire
                0x800219c4                __sfp_lock_release
                0x800219c8                __sinit_lock_acquire
                0x800219cc                __sinit_lock_release
                0x800219d0                __fp_lock_all
                0x800219f4                __fp_unlock_all
 .text          0x80021a18      0x19c /home/leon/riotboard/arm-2012.09/bin/../arm-none-eabi/lib//libc.a(lib_a-fputwc.o)
                0x80021a18                _fputwc_r
                0x80021b68                fputwc
 .text          0x80021bb4      0x368 /home/leon/riotboard/arm-2012.09/bin/../arm-none-eabi/lib//libc.a(lib_a-freer.o)
                0x80021bb4                _malloc_trim_r
                0x80021cb0                _free_r
 .text          0x80021f1c      0x4c4 /home/leon/riotboard/arm-2012.09/bin/../arm-none-eabi/lib//libc.a(lib_a-fvwrite.o)
                0x80021f1c                __sfvwrite_r
 .text          0x800223e0      0x114 /home/leon/riotboard/arm-2012.09/bin/../arm-none-eabi/lib//libc.a(lib_a-fwalk.o)
                0x800223e0                _fwalk
                0x80022468                _fwalk_reent
 .text          0x800224f4       0xd0 /home/leon/riotboard/arm-2012.09/bin/../arm-none-eabi/lib//libc.a(lib_a-locale.o)
                0x800224f4                _setlocale_r
                0x80022560                __locale_charset
                0x8002256c                __locale_mb_cur_max
                0x8002257c                __locale_msgcharset
                0x80022588                __locale_cjk_lang
                0x80022590                _localeconv_r
                0x8002259c                setlocale
                0x800225b8                localeconv
 .text          0x800225c4      0x15c /home/leon/riotboard/arm-2012.09/bin/../arm-none-eabi/lib//libc.a(lib_a-makebuf.o)
                0x800225c4                __smakebuf_r
 .text          0x80022720      0x11c /home/leon/riotboard/arm-2012.09/bin/../arm-none-eabi/lib//libc.a(lib_a-memchr.o)
                0x80022720                memchr
 .text          0x8002283c      0x134 /home/leon/riotboard/arm-2012.09/bin/../arm-none-eabi/lib//libc.a(lib_a-memmove.o)
                0x8002283c                memmove
 .text          0x80022970      0xd20 /home/leon/riotboard/arm-2012.09/bin/../arm-none-eabi/lib//libc.a(lib_a-mprec.o)
                0x80022970                _Balloc
                0x800229fc                _Bfree
                0x80022a18                __multadd
                0x80022af4                __s2b
                0x80022be4                __hi0bits
                0x80022c34                __lo0bits
                0x80022cc8                __i2b
                0x80022cec                __multiply
                0x80022ed0                __pow5mult
                0x80022fc4                __lshift
                0x800230c8                __mcmp
                0x8002312c                __mdiff
                0x80023278                __ulp
                0x800232dc                __b2d
                0x800233a8                __d2b
                0x800234b0                __ratio
                0x80023540                _mprec_log10
                0x80023594                __copybits
                0x80023608                __any_on
 .text          0x80023690      0x19c /home/leon/riotboard/arm-2012.09/bin/../arm-none-eabi/lib//libc.a(lib_a-reent.o)
                0x80023690                cleanup_glue
                0x800236bc                _reclaim_reent
                0x800237b8                _wrapup_reent
 .text          0x8002382c      0x1cc /home/leon/riotboard/arm-2012.09/bin/../arm-none-eabi/lib//libc.a(lib_a-refill.o)
                0x80023854                __srefill_r
 .text          0x800239f8       0x6c /home/leon/riotboard/arm-2012.09/bin/../arm-none-eabi/lib//libc.a(lib_a-s_fpclassify.o)
                0x800239f8                __fpclassifyd
 .text          0x80023a64      0x24c /home/leon/riotboard/arm-2012.09/bin/../arm-none-eabi/lib//libc.a(lib_a-signal.o)
                0x80023a64                _init_signal_r
                0x80023ac4                _signal_r
                0x80023b30                _raise_r
                0x80023bc8                __sigtramp_r
                0x80023c5c                raise
                0x80023c70                signal
                0x80023c8c                _init_signal
                0x80023c9c                __sigtramp
 .text          0x80023cb0       0x50 /home/leon/riotboard/arm-2012.09/bin/../arm-none-eabi/lib//libc.a(lib_a-signalr.o)
                0x80023cb0                _kill_r
                0x80023cf0                _getpid_r
 .text          0x80023d00       0xdc /home/leon/riotboard/arm-2012.09/bin/../arm-none-eabi/lib//libc.a(lib_a-stdio.o)
                0x80023d00                __sread
                0x80023d34                __seofread
                0x80023d3c                __swrite
                0x80023d94                __sseek
                0x80023dc8                __sclose
 .text          0x80023ddc      0x230 /home/leon/riotboard/arm-2012.09/bin/../arm-none-eabi/lib//libc.a(lib_a-strcmp.o)
                0x80023ddc                strcmp
 .text          0x8002400c     0x1224 /home/leon/riotboard/arm-2012.09/bin/../arm-none-eabi/lib//libc.a(lib_a-svfiprintf.o)
                0x8002400c                __ssprint_r
                0x800241b0                _svfiprintf_r
 .text          0x80025230      0x134 /home/leon/riotboard/arm-2012.09/bin/../arm-none-eabi/lib//libc.a(lib_a-wcrtomb.o)
                0x80025230                _wcrtomb_r
                0x800252c0                wcrtomb
 .text          0x80025364       0x7c /home/leon/riotboard/arm-2012.09/bin/../arm-none-eabi/lib//libc.a(lib_a-wctomb_r.o)
                0x80025364                __ascii_wctomb
                0x80025390                _wctomb_r
 .text          0x800253e0       0x44 /home/leon/riotboard/arm-2012.09/bin/../arm-none-eabi/lib//libc.a(lib_a-writer.o)
                0x800253e0                _write_r
 .text          0x80025424       0x94 /home/leon/riotboard/arm-2012.09/bin/../arm-none-eabi/lib//libc.a(lib_a-callocr.o)
                0x80025424                _calloc_r
 .text          0x800254b8       0x3c /home/leon/riotboard/arm-2012.09/bin/../arm-none-eabi/lib//libc.a(lib_a-closer.o)
                0x800254b8                _close_r
 .text          0x800254f4      0x10c /home/leon/riotboard/arm-2012.09/bin/../arm-none-eabi/lib//libc.a(lib_a-fclose.o)
                0x800254f4                _fclose_r
                0x800255ec                fclose
 .text          0x80025600       0x40 /home/leon/riotboard/arm-2012.09/bin/../arm-none-eabi/lib//libc.a(lib_a-fstatr.o)
                0x80025600                _fstat_r
 .text          0x80025640       0x3c /home/leon/riotboard/arm-2012.09/bin/../arm-none-eabi/lib//libc.a(lib_a-isattyr.o)
                0x80025640                _isatty_r
 .text          0x8002567c       0x44 /home/leon/riotboard/arm-2012.09/bin/../arm-none-eabi/lib//libc.a(lib_a-lseekr.o)
                0x8002567c                _lseek_r
 .text          0x800256c0       0x44 /home/leon/riotboard/arm-2012.09/bin/../arm-none-eabi/lib//libc.a(lib_a-readr.o)
                0x800256c0                _read_r
 .text          0x80025704      0x114 /home/leon/riotboard/arm-2012.09/bin/../lib/gcc/arm-none-eabi/4.7.2//libgcc.a(_udivsi3.o)
                0x80025704                __udivsi3
                0x80025704                __aeabi_uidiv
                0x800257f8                __aeabi_uidivmod
 .text          0x80025818        0x4 /home/leon/riotboard/arm-2012.09/bin/../lib/gcc/arm-none-eabi/4.7.2//libgcc.a(_dvmd_tls.o)
                0x80025818                __aeabi_ldiv0
                0x80025818                __aeabi_idiv0
 .text          0x8002581c      0x41c /home/leon/riotboard/arm-2012.09/bin/../lib/gcc/arm-none-eabi/4.7.2//libgcc.a(_arm_addsubdf3.o)
                0x8002581c                __aeabi_drsub
                0x80025824                __aeabi_dsub
                0x80025824                __subdf3
                0x80025828                __adddf3
                0x80025828                __aeabi_dadd
                0x80025b38                __aeabi_ui2d
                0x80025b38                __floatunsidf
                0x80025b5c                __floatsidf
                0x80025b5c                __aeabi_i2d
                0x80025b84                __extendsfdf2
                0x80025b84                __aeabi_f2d
                0x80025bc4                __aeabi_ul2d
                0x80025bc4                __floatundidf
                0x80025bd8                __floatdidf
                0x80025bd8                __aeabi_l2d
 .text          0x80025c38      0x49c /home/leon/riotboard/arm-2012.09/bin/../lib/gcc/arm-none-eabi/4.7.2//libgcc.a(_arm_muldivdf3.o)
                0x80025c38                __aeabi_dmul
                0x80025c38                __muldf3
                0x80025ec8                __aeabi_ddiv
                0x80025ec8                __divdf3
 .text          0x800260d4      0x144 /home/leon/riotboard/arm-2012.09/bin/../lib/gcc/arm-none-eabi/4.7.2//libgcc.a(_arm_cmpdf2.o)
                0x800260d4                __gtdf2
                0x800260d4                __gedf2
                0x800260dc                __ltdf2
                0x800260dc                __ledf2
                0x800260e4                __cmpdf2
                0x800260e4                __eqdf2
                0x800260e4                __nedf2
                0x8002616c                __aeabi_cdrcmple
                0x80026188                __aeabi_cdcmple
                0x80026188                __aeabi_cdcmpeq
                0x800261a0                __aeabi_dcmpeq
                0x800261b8                __aeabi_dcmplt
                0x800261d0                __aeabi_dcmple
                0x800261e8                __aeabi_dcmpge
                0x80026200                __aeabi_dcmpgt
 .text          0x80026218       0x5c /home/leon/riotboard/arm-2012.09/bin/../lib/gcc/arm-none-eabi/4.7.2//libgcc.a(_arm_fixdfsi.o)
                0x80026218                __fixdfsi
                0x80026218                __aeabi_d2iz
 .text          0x80026274      0x2ac /home/leon/riotboard/arm-2012.09/bin/../lib/gcc/arm-none-eabi/4.7.2//libgcc.a(_arm_addsubsf3.o)
                0x80026274                __aeabi_frsub
                0x8002627c                __subsf3
                0x8002627c                __aeabi_fsub
                0x80026280                __aeabi_fadd
                0x80026280                __addsf3
                0x8002643c                __aeabi_ui2f
                0x8002643c                __floatunsisf
                0x80026444                __aeabi_i2f
                0x80026444                __floatsisf
                0x80026464                __floatundisf
                0x80026464                __aeabi_ul2f
                0x80026474                __floatdisf
                0x80026474                __aeabi_l2f
 .text          0x80026520      0x2f8 /home/leon/riotboard/arm-2012.09/bin/../lib/gcc/arm-none-eabi/4.7.2//libgcc.a(_arm_muldivsf3.o)
                0x80026520                __mulsf3
                0x80026520                __aeabi_fmul
                0x800266b8                __divsf3
                0x800266b8                __aeabi_fdiv
 .text          0x80026818      0x114 /home/leon/riotboard/arm-2012.09/bin/../lib/gcc/arm-none-eabi/4.7.2//libgcc.a(_arm_cmpsf2.o)
                0x80026818                __gtsf2
                0x80026818                __gesf2
                0x80026820                __lesf2
                0x80026820                __ltsf2
                0x80026828                __nesf2
                0x80026828                __eqsf2
                0x80026828                __cmpsf2
                0x8002688c                __aeabi_cfrcmple
                0x8002689c                __aeabi_cfcmple
                0x8002689c                __aeabi_cfcmpeq
                0x800268b4                __aeabi_fcmpeq
                0x800268cc                __aeabi_fcmplt
                0x800268e4                __aeabi_fcmple
                0x800268fc                __aeabi_fcmpge
                0x80026914                __aeabi_fcmpgt
 .text          0x8002692c       0x5c /home/leon/riotboard/arm-2012.09/bin/../lib/gcc/arm-none-eabi/4.7.2//libgcc.a(_arm_fixsfsi.o)
                0x8002692c                __fixsfsi
                0x8002692c                __aeabi_f2iz
 .text          0x80026988       0x3c /home/leon/riotboard/arm-2012.09/bin/../lib/gcc/arm-none-eabi/4.7.2//libgcc.a(_aeabi_uldivmod.o)
                0x80026988                __aeabi_uldivmod
 .text          0x800269c4       0x84 /home/leon/riotboard/arm-2012.09/bin/../lib/gcc/arm-none-eabi/4.7.2//libgcc.a(bpabi.o)
                0x800269c4                __gnu_ldivmod_helper
                0x80026a08                __gnu_uldivmod_helper
 .text          0x80026a48      0x4f0 /home/leon/riotboard/arm-2012.09/bin/../lib/gcc/arm-none-eabi/4.7.2//libgcc.a(_divdi3.o)
                0x80026a48                __divdi3
 .text          0x80026f38      0x488 /home/leon/riotboard/arm-2012.09/bin/../lib/gcc/arm-none-eabi/4.7.2//libgcc.a(_udivdi3.o)
                0x80026f38                __udivdi3
 .text          0x800273c0       0x48 /home/leon/riotboard/arm-2012.09/bin/../lib/gcc/arm-none-eabi/4.7.2//libgcc.a(_clzsi2.o)
                0x800273c0                __clzsi2
 .text          0x80027408       0x64 /home/leon/git/swp-report/iMX6_Platform_SDK/output/mx6sl/lib/libsdk.a(profile.o)
                0x80027408                StartPerfCounter
                0x80027430                StopPerfCounter
 .text          0x8002746c      0x644 /home/leon/git/swp-report/iMX6_Platform_SDK/output/mx6sl/lib/libsdk.a(armv7_cache.o)
                0x8002746c                arm_dcache_state_query
                0x800274ac                arm_dcache_enable
                0x800274f4                arm_dcache_disable
                0x8002752c                arm_dcache_invalidate
                0x800275d0                arm_dcache_invalidate_line
                0x8002763c                arm_dcache_invalidate_mlines
                0x800276dc                arm_dcache_flush
                0x80027780                arm_dcache_flush_line
                0x800277ec                arm_dcache_flush_mlines
                0x8002788c                arm_icache_state_query
                0x800278cc                arm_icache_enable
                0x80027914                arm_icache_disable
                0x8002794c                arm_icache_invalidate
                0x80027978                arm_icache_invalidate_is
                0x800279a4                arm_icache_invalidate_line
                0x80027a10                arm_icache_invalidate_mlines
 .text          0x80027ab0      0x610 /home/leon/git/swp-report/iMX6_Platform_SDK/output/mx6sl/lib/libsdk.a(runtime_support.o)
                0x80027ab0                _execve
                0x80027aec                _fork
                0x80027b14                _isatty
                0x80027b38                _open
                0x80027b64                _close
                0x80027b88                _lseek
                0x80027bb4                _fstat
                0x80027be8                _read
                0x80027cb8                _write
                0x80027da4                _raw_puts
                0x80027e24                _sbrk
                0x80027ed4                _exit
                0x80027ef4                _kill
                0x80027f2c                _getpid
                0x80027f44                _link
                0x80027f7c                _unlink
                0x80027fb0                _stat
                0x80027fe4                _times
                0x80028008                _gettimeofday
                0x8002808c                _wait
 .text          0x800280c0      0xc40 /home/leon/git/swp-report/iMX6_Platform_SDK/output/mx6sl/lib/libsdk.a(imx_audmux.o)
                0x800282a0                audmux_port_set
                0x8002848c                audmux_route
 .text          0x80028d00      0x438 /home/leon/git/swp-report/iMX6_Platform_SDK/output/mx6sl/lib/libsdk.a(snd_card.o)
 .text          0x80029138      0xb7c /home/leon/git/swp-report/iMX6_Platform_SDK/output/mx6sl/lib/libsdk.a(wm8962.o)
                0x8002943c                WM8962_dump
                0x8002946c                WM8962_DAC_configure
                0x80029b94                WM8962_DAC_init
                0x80029c88                WM8962_DAC_deinit
 .text          0x80029cb4      0x358 /home/leon/git/swp-report/iMX6_Platform_SDK/output/mx6sl/lib/libsdk.a(csi_drv.o)
                0x80029d28                csi_setup
                0x80029e8c                csi_streamon
                0x80029f20                csi_streamoff
 .text          0x8002a00c      0xa88 /home/leon/git/swp-report/iMX6_Platform_SDK/output/mx6sl/lib/libsdk.a(smd_sensor.o)
                0x8002a3a4                sensor_config
                0x8002a3e0                sensor_search
                0x8002a570                sensor_init
                0x8002a6e4                sensor_af_trigger
                0x8002a7c4                sensor_autofocus_init
                0x8002a944                camera_strobeflash_on
                0x8002aa20                camera_strobeflash_off
 .text          0x8002aa94      0x1cc /home/leon/git/swp-report/iMX6_Platform_SDK/output/mx6sl/lib/libsdk.a(cpu_workpoint.o)
                0x8002aa94                cpu_workpoint_set
 .text          0x8002ac60      0xbc8 /home/leon/git/swp-report/iMX6_Platform_SDK/output/mx6sl/lib/libsdk.a(mxc_epdc.o)
                0x8002ad84                epdc_reset
                0x8002af3c                epdc_set_update_addr
                0x8002af68                epdc_set_update_coord
                0x8002afa4                epdc_set_update_dimensions
                0x8002afe0                epdc_submit_update
                0x8002b0a4                epdc_is_lut_complete
                0x8002b104                epdc_clear_lut_complete_irq
                0x8002b138                epdc_is_lut_active
                0x8002b1d4                epdc_any_luts_active
                0x8002b224                epdc_any_luts_available
                0x8002b268                epdc_get_next_lut
                0x8002b29c                epdc_is_working_buffer_busy
                0x8002b2f8                epdc_is_working_buffer_complete
                0x8002b344                epdc_is_collision
                0x8002b390                epdc_dump_registers
                0x8002b498                epdc_set_vertical_timing
                0x8002b4fc                epdc_init_settings
                0x8002b7a4                epdc_buffer_init
                0x8002b7fc                epdc_load_image
 .text          0x8002b828     0x10d4 /home/leon/git/swp-report/iMX6_Platform_SDK/output/mx6sl/lib/libsdk.a(fec_drv.o)
                0x8002b828                imx_fec_mii_read
                0x8002b938                imx_fec_mii_write
                0x8002be0c                imx_fec_phy_init
                0x8002bf80                imx_fec_get_phy_status
                0x8002c0b0                imx_fec_poll
                0x8002c1a8                imx_fec_send
                0x8002c2c0                imx_fec_recv
                0x8002c49c                imx_fec_init
                0x8002c5f0                imx_fec_start
                0x8002c680                imx_fec_stop
                0x8002c6c4                imx_fec_isolate_phy
                0x8002c768                imx_fec_unisolate_phy
                0x8002c830                imx_fec_mii_type
 .text          0x8002c8fc     0x1308 /home/leon/git/swp-report/iMX6_Platform_SDK/output/mx6sl/lib/libsdk.a(gpio.o)
                0x8002c92c                gpio_get_port_count
                0x8002c944                gpio_set_gpio
                0x8002ca08                gpio_set_direction
                0x8002cc64                gpio_get_direction
                0x8002cdac                gpio_set_level
                0x8002d0ec                gpio_get_level
                0x8002d24c                gpio_set_interrupt_config
                0x8002d650                gpio_set_interrupt_mask
                0x8002d894                gpio_get_interrupt_status
                0x8002d9f0                gpio_clear_interrupt
 .text          0x8002dc04        0x0 /home/leon/git/swp-report/iMX6_Platform_SDK/output/mx6sl/lib/libsdk.a(imx6sl_gpio_map.o)
 .text          0x8002dc04     0x1798 /home/leon/git/swp-report/iMX6_Platform_SDK/output/mx6sl/lib/libsdk.a(imx_i2c.o)
                0x8002dc34                i2c_get_request_instance
                0x8002e6ac                i2c_xfer
                0x8002edc8                i2c_read
                0x8002edf8                i2c_write
                0x8002ee28                i2c_setup_interrupt
                0x8002f094                i2c_init
 .text          0x8002f39c      0xd38 /home/leon/git/swp-report/iMX6_Platform_SDK/output/mx6sl/lib/libsdk.a(imx_i2c_slave.o)
                0x8002f39c                i2c_slave_interrupt_routine
                0x8002f4e8                i2c_slave_handler
                0x8002fb18                i2c_slave_xfer
 .text          0x800300d4      0xb60 /home/leon/git/swp-report/iMX6_Platform_SDK/output/mx6sl/lib/libsdk.a(lcdif_drv.o)
                0x800300d4                lcdif_csc_config
                0x80030804                lcdif_display_setup
                0x80030b38                image_center_copy
 .text          0x80030c34      0x318 /home/leon/git/swp-report/iMX6_Platform_SDK/output/mx6sl/lib/libsdk.a(pxp_drv.o)
                0x80030d3c                pxp_disable
                0x80030d7c                pxp_csc_process
 .text          0x80030f4c      0x3f4 /home/leon/git/swp-report/iMX6_Platform_SDK/output/mx6sl/lib/libsdk.a(ocotp.o)
                0x80030fb8                Delay4Reload
                0x800311fc                ocotp_sense_fuse
                0x8003126c                ocotp_fuse_blow_row
                0x800312c8                ocotp_reload_otp_shadow_registers
 .text          0x80031340     0x1bf0 /home/leon/git/swp-report/iMX6_Platform_SDK/output/mx6sl/lib/libsdk.a(pmu_driver.o)
                0x800315ac                pmu_init
                0x80031748                pmu_get_property
                0x800317a8                pmu_set_property
                0x8003180c                pmu::Regulator::getProperty(_pmu_regulator_properties, void*)
                0x80031a88                pmu::Regulator::setProperty(_pmu_regulator_properties, void const*)
                0x80031c00                pmu::Regulator::setVoltageRange(unsigned long, unsigned long, unsigned long)
                0x80031c4c                pmu::AnalogRegulator::getProperty(_pmu_regulator_properties, void*)
                0x80031d18                pmu::AnalogRegulator::setProperty(_pmu_regulator_properties, void const*)
                0x80031dd8                pmu::AnalogRegulator::getOutputMillivolts() const
                0x80031e30                pmu::AnalogRegulator::setOutputMillivolts(unsigned long)
                0x80031f18                pmu::AnalogRegulator::getBrownoutMillivolts() const
                0x80031f88                pmu::AnalogRegulator::setBrownoutMillivolts(unsigned long)
                0x80032020                pmu::AnalogRegulator::isBrownoutDetectEnabled() const
                0x80032064                pmu::AnalogRegulator::setBrownoutDetectIsEnabled(bool)
                0x800320b0                pmu::AnalogRegulator::isEnabled() const
                0x800320f4                pmu::AnalogRegulator::setIsEnabled(bool)
                0x80032140                pmu::DigitalRegulator::DigitalRegulator()
                0x80032140                pmu::DigitalRegulator::DigitalRegulator()
                0x80032180                pmu::DigitalRegulator::getProperty(_pmu_regulator_properties, void*)
                0x80032280                pmu::DigitalRegulator::setProperty(_pmu_regulator_properties, void const*)
                0x80032348                pmu::DigitalRegulator::isBypassed() const
                0x80032394                pmu::DigitalRegulator::setIsBypassed(bool)
                0x80032448                pmu::DigitalRegulator::getOutputMillivolts() const
                0x800324e4                pmu::DigitalRegulator::setOutputMillivolts(unsigned long)
                0x800325c8                pmu::DigitalRegulator::getBrownoutMillivolts() const
                0x8003263c                pmu::DigitalRegulator::setBrownoutMillivolts(unsigned long)
                0x800326d4                pmu::DigitalRegulator::isEnabled() const
                0x80032720                pmu::DigitalRegulator::setIsEnabled(bool)
                0x800327dc                pmu::LDO1p1Regulator::LDO1p1Regulator()
                0x800327dc                pmu::LDO1p1Regulator::LDO1p1Regulator()
                0x8003283c                pmu::LDO1p1Regulator::getProperty(_pmu_regulator_properties, void*)
                0x800328d4                pmu::LDO1p1Regulator::getOutputMillivolts() const
                0x80032930                pmu::LDO1p1Regulator::setOutputMillivolts(unsigned long)
                0x80032a24                pmu::LDO2p5Regulator::LDO2p5Regulator()
                0x80032a24                pmu::LDO2p5Regulator::LDO2p5Regulator()
                0x80032a84                pmu::LDO3p0Regulator::LDO3p0Regulator()
                0x80032a84                pmu::LDO3p0Regulator::LDO3p0Regulator()
                0x80032ae4                pmu::LDO3p0Regulator::getProperty(_pmu_regulator_properties, void*)
                0x80032b50                pmu::LDO3p0Regulator::setProperty(_pmu_regulator_properties, void const*)
                0x80032bc0                pmu::LDOARMRegulator::LDOARMRegulator()
                0x80032bc0                pmu::LDOARMRegulator::LDOARMRegulator()
                0x80032c18                pmu::LDOARMRegulator::setBrownoutDetectIsEnabled(bool)
                0x80032c64                pmu::LDOARMRegulator::setRampRate(unsigned long)
                0x80032cc4                pmu::LDOGraphicsRegulator::LDOGraphicsRegulator()
                0x80032cc4                pmu::LDOGraphicsRegulator::LDOGraphicsRegulator()
                0x80032d1c                pmu::LDOGraphicsRegulator::setBrownoutDetectIsEnabled(bool)
                0x80032d68                pmu::LDOGraphicsRegulator::setRampRate(unsigned long)
                0x80032dc8                pmu::LDOSoCRegulator::LDOSoCRegulator()
                0x80032dc8                pmu::LDOSoCRegulator::LDOSoCRegulator()
                0x80032e20                pmu::LDOSoCRegulator::setBrownoutDetectIsEnabled(bool)
                0x80032e6c                pmu::LDOSoCRegulator::setRampRate(unsigned long)
 .text._ZnwjPv  0x80032f30       0x28 /home/leon/git/swp-report/iMX6_Platform_SDK/output/mx6sl/lib/libsdk.a(pmu_driver.o)
                0x80032f30                operator new(unsigned int, void*)
 .text._ZN3pmu9RegulatorC2Ev
                0x80032f58       0x64 /home/leon/git/swp-report/iMX6_Platform_SDK/output/mx6sl/lib/libsdk.a(pmu_driver.o)
                0x80032f58                pmu::Regulator::Regulator()
                0x80032f58                pmu::Regulator::Regulator()
 .text._ZN3pmu9Regulator18setBrownoutHandlerEPFv9_pmu_regsE
                0x80032fbc       0x2c /home/leon/git/swp-report/iMX6_Platform_SDK/output/mx6sl/lib/libsdk.a(pmu_driver.o)
                0x80032fbc                pmu::Regulator::setBrownoutHandler(void (*)(_pmu_regs))
 .text._ZN3pmu9Regulator18getBrownoutHandlerEv
                0x80032fe8       0x28 /home/leon/git/swp-report/iMX6_Platform_SDK/output/mx6sl/lib/libsdk.a(pmu_driver.o)
                0x80032fe8                pmu::Regulator::getBrownoutHandler()
 .text._ZN3pmu15AnalogRegulatorC2ERV15_hw_pmu_reg_1p1
                0x80033010       0x50 /home/leon/git/swp-report/iMX6_Platform_SDK/output/mx6sl/lib/libsdk.a(pmu_driver.o)
                0x80033010                pmu::AnalogRegulator::AnalogRegulator(_hw_pmu_reg_1p1 volatile&)
                0x80033010                pmu::AnalogRegulator::AnalogRegulator(_hw_pmu_reg_1p1 volatile&)
 .text._ZNK3pmu15LDO1p1Regulator12isInBrownoutEv
                0x80033060       0x70 /home/leon/git/swp-report/iMX6_Platform_SDK/output/mx6sl/lib/libsdk.a(pmu_driver.o)
                0x80033060                pmu::LDO1p1Regulator::isInBrownout() const
 .text._ZNK3pmu15LDO1p1Regulator4isOKEv
                0x800330d0       0x78 /home/leon/git/swp-report/iMX6_Platform_SDK/output/mx6sl/lib/libsdk.a(pmu_driver.o)
                0x800330d0                pmu::LDO1p1Regulator::isOK() const
 .text._ZNK3pmu15LDO2p5Regulator12isInBrownoutEv
                0x80033148       0x70 /home/leon/git/swp-report/iMX6_Platform_SDK/output/mx6sl/lib/libsdk.a(pmu_driver.o)
                0x80033148                pmu::LDO2p5Regulator::isInBrownout() const
 .text._ZNK3pmu15LDO2p5Regulator4isOKEv
                0x800331b8       0x78 /home/leon/git/swp-report/iMX6_Platform_SDK/output/mx6sl/lib/libsdk.a(pmu_driver.o)
                0x800331b8                pmu::LDO2p5Regulator::isOK() const
 .text._ZNK3pmu15LDO3p0Regulator12isInBrownoutEv
                0x80033230       0x70 /home/leon/git/swp-report/iMX6_Platform_SDK/output/mx6sl/lib/libsdk.a(pmu_driver.o)
                0x80033230                pmu::LDO3p0Regulator::isInBrownout() const
 .text._ZNK3pmu15LDO3p0Regulator4isOKEv
                0x800332a0       0x78 /home/leon/git/swp-report/iMX6_Platform_SDK/output/mx6sl/lib/libsdk.a(pmu_driver.o)
                0x800332a0                pmu::LDO3p0Regulator::isOK() const
 .text._ZNK3pmu15LDOARMRegulator23isBrownoutDetectEnabledEv
                0x80033318       0x44 /home/leon/git/swp-report/iMX6_Platform_SDK/output/mx6sl/lib/libsdk.a(pmu_driver.o)
                0x80033318                pmu::LDOARMRegulator::isBrownoutDetectEnabled() const
 .text._ZNK3pmu15LDOARMRegulator12isInBrownoutEv
                0x8003335c       0x6c /home/leon/git/swp-report/iMX6_Platform_SDK/output/mx6sl/lib/libsdk.a(pmu_driver.o)
                0x8003335c                pmu::LDOARMRegulator::isInBrownout() const
 .text._ZNK3pmu15LDOARMRegulator4isOKEv
                0x800333c8       0x24 /home/leon/git/swp-report/iMX6_Platform_SDK/output/mx6sl/lib/libsdk.a(pmu_driver.o)
                0x800333c8                pmu::LDOARMRegulator::isOK() const
 .text._ZNK3pmu15LDOARMRegulator11getRampRateEv
                0x800333ec       0x34 /home/leon/git/swp-report/iMX6_Platform_SDK/output/mx6sl/lib/libsdk.a(pmu_driver.o)
                0x800333ec                pmu::LDOARMRegulator::getRampRate() const
 .text._ZNK3pmu15LDOARMRegulator10getTriggerEv
                0x80033420       0x34 /home/leon/git/swp-report/iMX6_Platform_SDK/output/mx6sl/lib/libsdk.a(pmu_driver.o)
                0x80033420                pmu::LDOARMRegulator::getTrigger() const
 .text._ZN3pmu15LDOARMRegulator10setTriggerEm
                0x80033454       0x44 /home/leon/git/swp-report/iMX6_Platform_SDK/output/mx6sl/lib/libsdk.a(pmu_driver.o)
                0x80033454                pmu::LDOARMRegulator::setTrigger(unsigned long)
 .text._ZNK3pmu15LDOARMRegulator11getBrownoutEv
                0x80033498       0x34 /home/leon/git/swp-report/iMX6_Platform_SDK/output/mx6sl/lib/libsdk.a(pmu_driver.o)
                0x80033498                pmu::LDOARMRegulator::getBrownout() const
 .text._ZN3pmu15LDOARMRegulator11setBrownoutEm
                0x800334cc       0x44 /home/leon/git/swp-report/iMX6_Platform_SDK/output/mx6sl/lib/libsdk.a(pmu_driver.o)
                0x800334cc                pmu::LDOARMRegulator::setBrownout(unsigned long)
 .text._ZNK3pmu20LDOGraphicsRegulator23isBrownoutDetectEnabledEv
                0x80033510       0x44 /home/leon/git/swp-report/iMX6_Platform_SDK/output/mx6sl/lib/libsdk.a(pmu_driver.o)
                0x80033510                pmu::LDOGraphicsRegulator::isBrownoutDetectEnabled() const
 .text._ZNK3pmu20LDOGraphicsRegulator12isInBrownoutEv
                0x80033554       0x6c /home/leon/git/swp-report/iMX6_Platform_SDK/output/mx6sl/lib/libsdk.a(pmu_driver.o)
                0x80033554                pmu::LDOGraphicsRegulator::isInBrownout() const
 .text._ZNK3pmu20LDOGraphicsRegulator4isOKEv
                0x800335c0       0x24 /home/leon/git/swp-report/iMX6_Platform_SDK/output/mx6sl/lib/libsdk.a(pmu_driver.o)
                0x800335c0                pmu::LDOGraphicsRegulator::isOK() const
 .text._ZNK3pmu20LDOGraphicsRegulator11getRampRateEv
                0x800335e4       0x34 /home/leon/git/swp-report/iMX6_Platform_SDK/output/mx6sl/lib/libsdk.a(pmu_driver.o)
                0x800335e4                pmu::LDOGraphicsRegulator::getRampRate() const
 .text._ZNK3pmu20LDOGraphicsRegulator10getTriggerEv
                0x80033618       0x34 /home/leon/git/swp-report/iMX6_Platform_SDK/output/mx6sl/lib/libsdk.a(pmu_driver.o)
                0x80033618                pmu::LDOGraphicsRegulator::getTrigger() const
 .text._ZN3pmu20LDOGraphicsRegulator10setTriggerEm
                0x8003364c       0x44 /home/leon/git/swp-report/iMX6_Platform_SDK/output/mx6sl/lib/libsdk.a(pmu_driver.o)
                0x8003364c                pmu::LDOGraphicsRegulator::setTrigger(unsigned long)
 .text._ZNK3pmu20LDOGraphicsRegulator11getBrownoutEv
                0x80033690       0x34 /home/leon/git/swp-report/iMX6_Platform_SDK/output/mx6sl/lib/libsdk.a(pmu_driver.o)
                0x80033690                pmu::LDOGraphicsRegulator::getBrownout() const
 .text._ZN3pmu20LDOGraphicsRegulator11setBrownoutEm
                0x800336c4       0x44 /home/leon/git/swp-report/iMX6_Platform_SDK/output/mx6sl/lib/libsdk.a(pmu_driver.o)
                0x800336c4                pmu::LDOGraphicsRegulator::setBrownout(unsigned long)
 .text._ZNK3pmu15LDOSoCRegulator23isBrownoutDetectEnabledEv
                0x80033708       0x44 /home/leon/git/swp-report/iMX6_Platform_SDK/output/mx6sl/lib/libsdk.a(pmu_driver.o)
                0x80033708                pmu::LDOSoCRegulator::isBrownoutDetectEnabled() const
 .text._ZNK3pmu15LDOSoCRegulator12isInBrownoutEv
                0x8003374c       0x6c /home/leon/git/swp-report/iMX6_Platform_SDK/output/mx6sl/lib/libsdk.a(pmu_driver.o)
                0x8003374c                pmu::LDOSoCRegulator::isInBrownout() const
 .text._ZNK3pmu15LDOSoCRegulator4isOKEv
                0x800337b8       0x74 /home/leon/git/swp-report/iMX6_Platform_SDK/output/mx6sl/lib/libsdk.a(pmu_driver.o)
                0x800337b8                pmu::LDOSoCRegulator::isOK() const
 .text._ZNK3pmu15LDOSoCRegulator11getRampRateEv
                0x8003382c       0x34 /home/leon/git/swp-report/iMX6_Platform_SDK/output/mx6sl/lib/libsdk.a(pmu_driver.o)
                0x8003382c                pmu::LDOSoCRegulator::getRampRate() const
 .text._ZNK3pmu15LDOSoCRegulator10getTriggerEv
                0x80033860       0x34 /home/leon/git/swp-report/iMX6_Platform_SDK/output/mx6sl/lib/libsdk.a(pmu_driver.o)
                0x80033860                pmu::LDOSoCRegulator::getTrigger() const
 .text._ZN3pmu15LDOSoCRegulator10setTriggerEm
                0x80033894       0x44 /home/leon/git/swp-report/iMX6_Platform_SDK/output/mx6sl/lib/libsdk.a(pmu_driver.o)
                0x80033894                pmu::LDOSoCRegulator::setTrigger(unsigned long)
 .text._ZNK3pmu15LDOSoCRegulator11getBrownoutEv
                0x800338d8       0x34 /home/leon/git/swp-report/iMX6_Platform_SDK/output/mx6sl/lib/libsdk.a(pmu_driver.o)
                0x800338d8                pmu::LDOSoCRegulator::getBrownout() const
 .text._ZN3pmu15LDOSoCRegulator11setBrownoutEm
                0x8003390c       0x44 /home/leon/git/swp-report/iMX6_Platform_SDK/output/mx6sl/lib/libsdk.a(pmu_driver.o)
                0x8003390c                pmu::LDOSoCRegulator::setBrownout(unsigned long)
 .text._ZN3pmu9_pmu_infoC2Ev
                0x80033950       0x84 /home/leon/git/swp-report/iMX6_Platform_SDK/output/mx6sl/lib/libsdk.a(pmu_driver.o)
                0x80033950                pmu::_pmu_info::_pmu_info()
                0x80033950                pmu::_pmu_info::_pmu_info()
 .text._ZN3pmu15AnalogRegulatorC2I15_hw_pmu_reg_2p5EERVT_
                0x800339d4       0x50 /home/leon/git/swp-report/iMX6_Platform_SDK/output/mx6sl/lib/libsdk.a(pmu_driver.o)
                0x800339d4                pmu::AnalogRegulator::AnalogRegulator<_hw_pmu_reg_2p5>(_hw_pmu_reg_2p5 volatile&)
                0x800339d4                pmu::AnalogRegulator::AnalogRegulator<_hw_pmu_reg_2p5>(_hw_pmu_reg_2p5 volatile&)
 .text._ZN3pmu15AnalogRegulatorC2I15_hw_pmu_reg_3p0EERVT_
                0x80033a24       0x50 /home/leon/git/swp-report/iMX6_Platform_SDK/output/mx6sl/lib/libsdk.a(pmu_driver.o)
                0x80033a24                pmu::AnalogRegulator::AnalogRegulator<_hw_pmu_reg_3p0>(_hw_pmu_reg_3p0 volatile&)
                0x80033a24                pmu::AnalogRegulator::AnalogRegulator<_hw_pmu_reg_3p0>(_hw_pmu_reg_3p0 volatile&)
 .text          0x80033a74      0xb4c /home/leon/git/swp-report/iMX6_Platform_SDK/output/mx6sl/lib/libsdk.a(pwm.o)
                0x80033a74                pwm_init
                0x80033f8c                pwm_clear_int_status
                0x80034078                pwm_setup_interrupt
                0x80034340                pwm_free_interrupt
                0x800343e8                pwm_isr_test_end
                0x8003442c                pwm_enable
                0x800344b4                pwm_disable
                0x80034544                pwm_get_clock_freq
 .text          0x800345c0      0x3b0 /home/leon/git/swp-report/iMX6_Platform_SDK/output/mx6sl/lib/libsdk.a(rtc.o)
                0x800345c0                snvs_rtc_interrupt_handler
                0x800346dc                snvs_rtc_setup_interrupt
                0x80034740                rtc_init
                0x800347c0                rtc_deinit
                0x8003481c                rtc_setup_onetime_timer
                0x80034890                rtc_setup_periodic_timer
                0x80034918                rtc_disable_periodic_timer
 .text          0x80034970      0x210 /home/leon/git/swp-report/iMX6_Platform_SDK/output/mx6sl/lib/libsdk.a(srtc.o)
                0x80034970                snvs_srtc_setup_interrupt
                0x800349d4                snvs_srtc_interrupt_handler
                0x80034a98                srtc_init
                0x80034adc                srtc_deinit
                0x80034b0c                srtc_setup_onetime_timer
 .text          0x80034b80     0x1224 /home/leon/git/swp-report/iMX6_Platform_SDK/output/mx6sl/lib/libsdk.a(sdma.o)
                0x800350cc                sdma_init
                0x80035294                sdma_deinit
                0x80035388                sdma_channel_start
                0x80035434                sdma_channel_stop
                0x80035494                sdma_channel_request
                0x8003588c                sdma_channel_release
                0x80035aac                sdma_channel_status
                0x80035be0                sdma_lookup_script
                0x80035ccc                sdma_setup_interrupt
                0x80035d40                sdma_channel_isr_attach
 .text          0x80035da4        0x0 /home/leon/git/swp-report/iMX6_Platform_SDK/output/mx6sl/lib/libsdk.a(sdma_script_info.o)
 .text          0x80035da4      0x4e8 /home/leon/git/swp-report/iMX6_Platform_SDK/output/mx6sl/lib/libsdk.a(snvs.o)
                0x80035da4                snvs_rtc_counter
                0x80035e4c                snvs_rtc_alarm
                0x80035ef4                snvs_rtc_periodic_interrupt
                0x80035fd8                snvs_rtc_set_counter
                0x80036030                snvs_rtc_set_alarm_timeout
                0x80036088                snvs_srtc_counter
                0x80036130                snvs_srtc_alarm
                0x800361d8                snvs_srtc_set_counter
                0x80036230                snvs_srtc_set_alarm_timeout
                0x8003626c                snvs_init
                0x8003627c                snvs_deinit
 .text          0x8003628c      0x740 /home/leon/git/swp-report/iMX6_Platform_SDK/output/mx6sl/lib/libsdk.a(mxc_spdc.o)
                0x80036498                spdc_update_image
                0x8003655c                spdc_set_buffers
                0x800365bc                spdc_load_wv_lut
                0x8003660c                spdc_clock_gate
                0x80036658                spdc_panel_init_set
                0x800366f8                spdc_temperature_set
                0x80036764                spdc_operation_start
                0x800367fc                spdc_enable_interrupts
                0x80036828                spdc_check_lut_download_finish
                0x80036880                spdc_check_tcon_init_finish
                0x800368d8                spdc_check_operation_finish
                0x80036930                spdc_trigger_display
 .text          0x800369cc     0x132c /home/leon/git/swp-report/iMX6_Platform_SDK/output/mx6sl/lib/libsdk.a(ecspi.o)
                0x80036fbc                ecspi_configure
                0x80037944                ecspi_open
                0x800379fc                ecspi_close
                0x80037b08                ecspi_xfer
 .text          0x80037cf8      0x4e8 /home/leon/git/swp-report/iMX6_Platform_SDK/output/mx6sl/lib/libsdk.a(tempmon.o)
                0x80037cf8                compute_temp
                0x80037da8                compute_alarm
                0x80037ea4                tempmon_init
                0x80037f6c                tempmon_get_temp
                0x8003804c                tempmon_set_alarm
                0x80038174                tempmon_disable_alarm
 .text          0x800381e0      0x528 /home/leon/git/swp-report/iMX6_Platform_SDK/output/mx6sl/lib/libsdk.a(gpt.o)
                0x80038200                gpt_get_rollover_event
                0x8003824c                gpt_get_capture_event
                0x800382fc                gpt_set_capture_event
                0x80038384                gpt_get_compare_event
                0x800383ec                gpt_set_compare_event
                0x800384f4                gpt_counter_disable
                0x8003852c                gpt_counter_enable
                0x80038574                gpt_setup_interrupt
                0x800385d8                gpt_init
 .text          0x80038708      0x368 /home/leon/git/swp-report/iMX6_Platform_SDK/output/mx6sl/lib/libsdk.a(usb_common.o)
                0x80038708                usb_get_port_speed
                0x80038864                swap32
                0x800388e0                get_menu_item
 .text          0x80038a70     0x2300 /home/leon/git/swp-report/iMX6_Platform_SDK/output/mx6sl/lib/libsdk.a(usbd_drv.o)
                0x80038a70                usbd_device_init
                0x800394fc                usbd_bus_reset
                0x80039868                usbd_get_setup_packet
                0x80039d70                usbd_device_send_control_packet
                0x8003a1ec                usbd_device_send_zero_len_packet
                0x8003a4f4                usbd_endpoint_qh_init
                0x8003a618                usbd_dtd_init
                0x8003a764                usbd_add_dtd
                0x8003ac90                usbd_reclaim_dtd
 .text          0x8003ad70     0x2374 /home/leon/git/swp-report/iMX6_Platform_SDK/output/mx6sl/lib/libsdk.a(usbh_drv.o)
                0x8003ad70                usbh_init
                0x8003b6d0                usbh_periodic_schedule_init
                0x8003c54c                usbh_bus_reset
                0x8003c734                usbh_enable_asynchronous_schedule
                0x8003c91c                usbh_disable_asynchronous_schedule
                0x8003cb04                usbh_disable_Periodic_list
                0x8003ccec                usbh_qtd_init
                0x8003cf14                usbh_qh_init
 .text          0x8003d0e4     0x11b8 /home/leon/git/swp-report/iMX6_Platform_SDK/output/mx6sl/lib/libsdk.a(usdhc.o)
                0x8003d2fc                set_card_access_mode
                0x8003d33c                read_usdhc_adma_mode
                0x8003d35c                read_usdhc_intr_mode
                0x8003d37c                card_init
                0x8003d52c                card_emmc_init
                0x8003d5c0                card_cmd_config
                0x8003d6d4                card_get_cid
                0x8003d774                card_enter_trans
                0x8003d850                card_trans_status
                0x8003d94c                card_get_port
                0x8003da34                card_set_blklen
                0x8003db18                card_data_read
                0x8003de04                card_data_write
                0x8003e104                card_xfer_result
                0x8003e1f8                card_wait_xfer_done
 .text          0x8003e29c     0x3484 /home/leon/git/swp-report/iMX6_Platform_SDK/output/mx6sl/lib/libsdk.a(usdhc_host.o)
                0x8003f67c                usdhc1_isr
                0x8003f694                usdhc2_isr
                0x8003f6ac                usdhc3_isr
                0x8003f6c4                usdhc4_isr
                0x8003f6dc                host_init
                0x8003f70c                host_init_active
                0x8003f7b4                host_send_cmd
                0x8003fbdc                host_cfg_clock
                0x80040378                host_set_bus_width
                0x800403b0                host_reset
                0x800404e0                host_read_response
                0x800406d0                host_cfg_block
                0x8004094c                host_clear_fifo
                0x80040af8                host_setup_adma
                0x80040d18                host_data_read
                0x80041220                host_data_write
 .text          0x80041720      0xe04 /home/leon/git/swp-report/iMX6_Platform_SDK/output/mx6sl/lib/libsdk.a(usdhc_mmc.o)
                0x80041cc0                mmc_init
                0x80041d64                emmc_init
                0x80041e90                emmc_print_cfg_info
                0x800420c8                mmc_set_boot_bus_width
                0x80042190                mmc_set_boot_partition
                0x80042290                mmc_set_boot_ack
                0x80042314                mmc_voltage_validation
 .text          0x80042524      0x800 /home/leon/git/swp-report/iMX6_Platform_SDK/output/mx6sl/lib/libsdk.a(usdhc_sd.o)
                0x800428b8                sd_init
                0x80042970                sd_voltage_validation
 .text          0x80042d24     0x2990 /home/leon/git/swp-report/iMX6_Platform_SDK/output/mx6sl/lib/libsdk.a(imx-ssi.o)
                0x80044c58                ssi_init
                0x80044c98                ssi_config
                0x800451ac                ssi_write_fifo
                0x800453a4                ssi_read_fifo
                0x80045564                ssi_deinit
 .text          0x800456b4      0x708 /home/leon/git/swp-report/iMX6_Platform_SDK/output/mx6sl/lib/libsdk.a(imx_spdif.o)
                0x80045a2c                spdif_init
                0x80045a68                spdif_config
                0x80045c9c                spdif_write_fifo
                0x80045d98                spdif_deinit
 .text          0x80045dbc        0x0 /home/leon/git/swp-report/iMX6_Platform_SDK/output/mx6sl/lib/libsdk.a(camera_profile.o)
 .text          0x80045dbc      0x2fc /home/leon/git/swp-report/iMX6_Platform_SDK/output/mx6sl/lib/libsdk.a(mx6x_usb.o)
                0x80045dbc                usbEnableClocks
                0x80045ee4                usbEnableTransceiver
 .text          0x800460b8       0x50 /home/leon/git/swp-report/iMX6_Platform_SDK/output/mx6sl/lib/libboard_evk_rev_a.a(board_audio.o)
                0x800460b8                spdif_get_tx_clk_freq
                0x800460d4                spdif_clk_cfg
                0x800460e4                audio_codec_power_on
                0x800460f8                audio_clock_config
 .text          0x80046108      0x1b0 /home/leon/git/swp-report/iMX6_Platform_SDK/output/mx6sl/lib/libboard_evk_rev_a.a(board_camera.o)
                0x80046108                camera_power_on
                0x80046148                sensor_reset
                0x800461cc                sensor_standby
                0x80046234                sensor_clock_setting
 .text          0x800462b8      0x3dc /home/leon/git/swp-report/iMX6_Platform_SDK/output/mx6sl/lib/libboard_evk_rev_a.a(board_display.o)
                0x800462b8                lcdif_power_on
                0x800462f4                lcdif_backlight_on
                0x80046330                lcdif_clock_enable
                0x800463ac                epdc_clock_setting
                0x8004643c                sipix_epd_clock_setting
                0x800464bc                epdc_power_supply
                0x80046564                spdc_power_up
 .text          0x80046694        0x0 /home/leon/git/swp-report/iMX6_Platform_SDK/output/mx6sl/lib/libboard_evk_rev_a.a(board_i2c.o)
 .text          0x80046694      0x168 /home/leon/git/swp-report/iMX6_Platform_SDK/output/mx6sl/lib/libboard_evk_rev_a.a(board_usb.o)
                0x80046694                usbEnableVbus
                0x80046740                usbDisableVbus
                0x800467ec                reset_usb_hub
 .text          0x800467fc      0x180 /home/leon/git/swp-report/iMX6_Platform_SDK/output/mx6sl/lib/libboard_evk_rev_a.a(board_usdhc.o)
                0x800467fc                usdhc_gpio_config
                0x8004681c                usdhc_card_detected
                0x800468cc                usdhc_write_protected
 .text          0x8004697c       0x84 /home/leon/git/swp-report/iMX6_Platform_SDK/output/mx6sl/lib/libboard_evk_rev_a.a(ecspi_iomux_config.o)
                0x8004697c                ecspi_iomux_config
 .text          0x80046a00       0x74 /home/leon/git/swp-report/iMX6_Platform_SDK/output/mx6sl/lib/libboard_evk_rev_a.a(i2c_iomux_config.o)
                0x80046a00                i2c_iomux_config
 .text          0x80046a74       0x84 /home/leon/git/swp-report/iMX6_Platform_SDK/output/mx6sl/lib/libboard_evk_rev_a.a(pwm_iomux_config.o)
                0x80046a74                pwm_iomux_config
 .text          0x80046af8       0x84 /home/leon/git/swp-report/iMX6_Platform_SDK/output/mx6sl/lib/libboard_evk_rev_a.a(usdhc_iomux_config.o)
                0x80046af8                usdhc_iomux_config
 .text          0x80046b7c        0x0 /home/leon/riotboard/arm-2012.09/bin/../arm-none-eabi/lib//libstdc++.a(pure.o)
 .text.__cxa_pure_virtual
                0x80046b7c       0x1c /home/leon/riotboard/arm-2012.09/bin/../arm-none-eabi/lib//libstdc++.a(pure.o)
                0x80046b7c                __cxa_pure_virtual
 .text.__cxa_deleted_virtual
                0x80046b98       0x1c /home/leon/riotboard/arm-2012.09/bin/../arm-none-eabi/lib//libstdc++.a(pure.o)
                0x80046b98                __cxa_deleted_virtual
 .text          0x80046bb4        0x0 /home/leon/riotboard/arm-2012.09/bin/../arm-none-eabi/lib//libstdc++.a(eh_terminate.o)
 .text._ZN10__cxxabiv111__terminateEPFvvE
                0x80046bb4       0x34 /home/leon/riotboard/arm-2012.09/bin/../arm-none-eabi/lib//libstdc++.a(eh_terminate.o)
                0x80046bb4                __cxxabiv1::__terminate(void (*)())
 .text._ZSt9terminatev
                0x80046be8       0x14 /home/leon/riotboard/arm-2012.09/bin/../arm-none-eabi/lib//libstdc++.a(eh_terminate.o)
                0x80046be8                std::terminate()
 .text._ZN10__cxxabiv112__unexpectedEPFvvE
                0x80046bfc       0x10 /home/leon/riotboard/arm-2012.09/bin/../arm-none-eabi/lib//libstdc++.a(eh_terminate.o)
                0x80046bfc                __cxxabiv1::__unexpected(void (*)())
 .text._ZSt10unexpectedv
                0x80046c0c       0x14 /home/leon/riotboard/arm-2012.09/bin/../arm-none-eabi/lib//libstdc++.a(eh_terminate.o)
                0x80046c0c                std::unexpected()
 .text._ZSt13set_terminatePFvvE
                0x80046c20       0x18 /home/leon/riotboard/arm-2012.09/bin/../arm-none-eabi/lib//libstdc++.a(eh_terminate.o)
                0x80046c20                std::set_terminate(void (*)())
 .text._ZSt14set_unexpectedPFvvE
                0x80046c38       0x18 /home/leon/riotboard/arm-2012.09/bin/../arm-none-eabi/lib//libstdc++.a(eh_terminate.o)
                0x80046c38                std::set_unexpected(void (*)())
 .text          0x80046c50        0x0 /home/leon/riotboard/arm-2012.09/bin/../arm-none-eabi/lib//libstdc++.a(eh_unex_handler.o)
 .text          0x80046c50        0x0 /home/leon/riotboard/arm-2012.09/bin/../arm-none-eabi/lib//libstdc++.a(eh_call.o)
 .text._ZN10__cxxabiv1L24__is_gxx_exception_classEPc
                0x80046c50       0x70 /home/leon/riotboard/arm-2012.09/bin/../arm-none-eabi/lib//libstdc++.a(eh_call.o)
 .text.__cxa_call_terminate
                0x80046cc0       0x2c /home/leon/riotboard/arm-2012.09/bin/../arm-none-eabi/lib//libstdc++.a(eh_call.o)
                0x80046cc0                __cxa_call_terminate
 .text.__cxa_call_unexpected
                0x80046cec      0x134 /home/leon/riotboard/arm-2012.09/bin/../arm-none-eabi/lib//libstdc++.a(eh_call.o)
                0x80046cec                __cxa_call_unexpected
 .text          0x80046e20        0x0 /home/leon/riotboard/arm-2012.09/bin/../arm-none-eabi/lib//libstdc++.a(eh_throw.o)
 .text._ZL23__gxx_exception_cleanup19_Unwind_Reason_CodeP21_Unwind_Control_Block
                0x80046e20       0x3c /home/leon/riotboard/arm-2012.09/bin/../arm-none-eabi/lib//libstdc++.a(eh_throw.o)
 .text.__cxa_throw
                0x80046e5c       0x94 /home/leon/riotboard/arm-2012.09/bin/../arm-none-eabi/lib//libstdc++.a(eh_throw.o)
                0x80046e5c                __cxa_throw
 .text.__cxa_rethrow
                0x80046ef0       0xb0 /home/leon/riotboard/arm-2012.09/bin/../arm-none-eabi/lib//libstdc++.a(eh_throw.o)
                0x80046ef0                __cxa_rethrow
 .text          0x80046fa0        0x0 /home/leon/riotboard/arm-2012.09/bin/../arm-none-eabi/lib//libstdc++.a(eh_arm.o)
 .text.__cxa_end_cleanup
                0x80046fa0       0x10 /home/leon/riotboard/arm-2012.09/bin/../arm-none-eabi/lib//libstdc++.a(eh_arm.o)
                0x80046fa0                __cxa_end_cleanup
 .text.__cxa_type_match
                0x80046fb0      0x14c /home/leon/riotboard/arm-2012.09/bin/../arm-none-eabi/lib//libstdc++.a(eh_arm.o)
                0x80046fb0                __cxa_type_match
 .text.__cxa_begin_cleanup
                0x800470fc       0xb0 /home/leon/riotboard/arm-2012.09/bin/../arm-none-eabi/lib//libstdc++.a(eh_arm.o)
                0x800470fc                __cxa_begin_cleanup
 .text.__gnu_end_cleanup
                0x800471ac       0xb0 /home/leon/riotboard/arm-2012.09/bin/../arm-none-eabi/lib//libstdc++.a(eh_arm.o)
                0x800471ac                __gnu_end_cleanup
 .text          0x8004725c        0x0 /home/leon/riotboard/arm-2012.09/bin/../arm-none-eabi/lib//libstdc++.a(eh_exception.o)
 .text._ZNSt9exceptionD2Ev
                0x8004725c       0x10 /home/leon/riotboard/arm-2012.09/bin/../arm-none-eabi/lib//libstdc++.a(eh_exception.o)
                0x8004725c                std::exception::~exception()
                0x8004725c                std::exception::~exception()
 .text._ZNSt13bad_exceptionD2Ev
                0x8004726c       0x10 /home/leon/riotboard/arm-2012.09/bin/../arm-none-eabi/lib//libstdc++.a(eh_exception.o)
                0x8004726c                std::bad_exception::~bad_exception()
                0x8004726c                std::bad_exception::~bad_exception()
 .text._ZN10__cxxabiv115__forced_unwindD2Ev
                0x8004727c       0x10 /home/leon/riotboard/arm-2012.09/bin/../arm-none-eabi/lib//libstdc++.a(eh_exception.o)
                0x8004727c                __cxxabiv1::__forced_unwind::~__forced_unwind()
                0x8004727c                __cxxabiv1::__forced_unwind::~__forced_unwind()
 .text._ZN10__cxxabiv119__foreign_exceptionD2Ev
                0x8004728c       0x10 /home/leon/riotboard/arm-2012.09/bin/../arm-none-eabi/lib//libstdc++.a(eh_exception.o)
                0x8004728c                __cxxabiv1::__foreign_exception::~__foreign_exception()
                0x8004728c                __cxxabiv1::__foreign_exception::~__foreign_exception()
 .text._ZNKSt9exception4whatEv
                0x8004729c        0xc /home/leon/riotboard/arm-2012.09/bin/../arm-none-eabi/lib//libstdc++.a(eh_exception.o)
                0x8004729c                std::exception::what() const
 .text._ZNKSt13bad_exception4whatEv
                0x800472a8        0xc /home/leon/riotboard/arm-2012.09/bin/../arm-none-eabi/lib//libstdc++.a(eh_exception.o)
                0x800472a8                std::bad_exception::what() const
 .text._ZN10__cxxabiv119__foreign_exceptionD0Ev
                0x800472b4       0x24 /home/leon/riotboard/arm-2012.09/bin/../arm-none-eabi/lib//libstdc++.a(eh_exception.o)
                0x800472b4                __cxxabiv1::__foreign_exception::~__foreign_exception()
 .text._ZN10__cxxabiv115__forced_unwindD0Ev
                0x800472d8       0x24 /home/leon/riotboard/arm-2012.09/bin/../arm-none-eabi/lib//libstdc++.a(eh_exception.o)
                0x800472d8                __cxxabiv1::__forced_unwind::~__forced_unwind()
 .text._ZNSt9exceptionD0Ev
                0x800472fc       0x24 /home/leon/riotboard/arm-2012.09/bin/../arm-none-eabi/lib//libstdc++.a(eh_exception.o)
                0x800472fc                std::exception::~exception()
 .text._ZNSt13bad_exceptionD0Ev
                0x80047320       0x24 /home/leon/riotboard/arm-2012.09/bin/../arm-none-eabi/lib//libstdc++.a(eh_exception.o)
                0x80047320                std::bad_exception::~bad_exception()
 .text          0x80047344        0x0 /home/leon/riotboard/arm-2012.09/bin/../arm-none-eabi/lib//libstdc++.a(eh_alloc.o)
 .text.__cxa_allocate_exception
                0x80047344       0x98 /home/leon/riotboard/arm-2012.09/bin/../arm-none-eabi/lib//libstdc++.a(eh_alloc.o)
                0x80047344                __cxa_allocate_exception
 .text.__cxa_free_exception
                0x800473dc       0x54 /home/leon/riotboard/arm-2012.09/bin/../arm-none-eabi/lib//libstdc++.a(eh_alloc.o)
                0x800473dc                __cxa_free_exception
 .text.__cxa_allocate_dependent_exception
                0x80047430       0x90 /home/leon/riotboard/arm-2012.09/bin/../arm-none-eabi/lib//libstdc++.a(eh_alloc.o)
                0x80047430                __cxa_allocate_dependent_exception
 .text.__cxa_free_dependent_exception
                0x800474c0       0x5c /home/leon/riotboard/arm-2012.09/bin/../arm-none-eabi/lib//libstdc++.a(eh_alloc.o)
                0x800474c0                __cxa_free_dependent_exception
 .text          0x8004751c        0x0 /home/leon/riotboard/arm-2012.09/bin/../arm-none-eabi/lib//libstdc++.a(eh_globals.o)
 .text.__cxa_get_globals_fast
                0x8004751c        0xc /home/leon/riotboard/arm-2012.09/bin/../arm-none-eabi/lib//libstdc++.a(eh_globals.o)
                0x8004751c                __cxa_get_globals_fast
 .text.__cxa_get_globals
                0x80047528        0xc /home/leon/riotboard/arm-2012.09/bin/../arm-none-eabi/lib//libstdc++.a(eh_globals.o)
                0x80047528                __cxa_get_globals
 .text          0x80047534        0x0 /home/leon/riotboard/arm-2012.09/bin/../arm-none-eabi/lib//libstdc++.a(si_class_type_info.o)
 .text._ZNK10__cxxabiv120__si_class_type_info12__do_dyncastEiNS_17__class_type_info10__sub_kindEPKS1_PKvS4_S6_RNS1_16__dyncast_resultE
                0x80047534       0xdc /home/leon/riotboard/arm-2012.09/bin/../arm-none-eabi/lib//libstdc++.a(si_class_type_info.o)
                0x80047534                __cxxabiv1::__si_class_type_info::__do_dyncast(int, __cxxabiv1::__class_type_info::__sub_kind, __cxxabiv1::__class_type_info const*, void const*, __cxxabiv1::__class_type_info const*, void const*, __cxxabiv1::__class_type_info::__dyncast_result&) const
 .text._ZN10__cxxabiv120__si_class_type_infoD2Ev
                0x80047610       0x24 /home/leon/riotboard/arm-2012.09/bin/../arm-none-eabi/lib//libstdc++.a(si_class_type_info.o)
                0x80047610                __cxxabiv1::__si_class_type_info::~__si_class_type_info()
                0x80047610                __cxxabiv1::__si_class_type_info::~__si_class_type_info()
 .text._ZN10__cxxabiv120__si_class_type_infoD0Ev
                0x80047634       0x20 /home/leon/riotboard/arm-2012.09/bin/../arm-none-eabi/lib//libstdc++.a(si_class_type_info.o)
                0x80047634                __cxxabiv1::__si_class_type_info::~__si_class_type_info()
 .text._ZNK10__cxxabiv120__si_class_type_info11__do_upcastEPKNS_17__class_type_infoEPKvRNS1_15__upcast_resultE
                0x80047654       0x4c /home/leon/riotboard/arm-2012.09/bin/../arm-none-eabi/lib//libstdc++.a(si_class_type_info.o)
                0x80047654                __cxxabiv1::__si_class_type_info::__do_upcast(__cxxabiv1::__class_type_info const*, void const*, __cxxabiv1::__class_type_info::__upcast_result&) const
 .text._ZNK10__cxxabiv120__si_class_type_info20__do_find_public_srcEiPKvPKNS_17__class_type_infoES2_
                0x800476a0       0x6c /home/leon/riotboard/arm-2012.09/bin/../arm-none-eabi/lib//libstdc++.a(si_class_type_info.o)
                0x800476a0                __cxxabiv1::__si_class_type_info::__do_find_public_src(int, void const*, __cxxabiv1::__class_type_info const*, void const*) const
 .text          0x8004770c        0x0 /home/leon/riotboard/arm-2012.09/bin/../arm-none-eabi/lib//libstdc++.a(eh_personality.o)
 .text._ZL12read_sleb128PKhPl
                0x8004770c       0x44 /home/leon/riotboard/arm-2012.09/bin/../arm-none-eabi/lib//libstdc++.a(eh_personality.o)
 .text._ZL28read_encoded_value_with_basehjPKhPj
                0x80047750      0x170 /home/leon/riotboard/arm-2012.09/bin/../arm-none-eabi/lib//libstdc++.a(eh_personality.o)
 .text._ZL21base_of_encoded_valuehP15_Unwind_Context
                0x800478c0       0x7c /home/leon/riotboard/arm-2012.09/bin/../arm-none-eabi/lib//libstdc++.a(eh_personality.o)
 .text._ZL17parse_lsda_headerP15_Unwind_ContextPKhP16lsda_header_info
                0x8004793c       0xd8 /home/leon/riotboard/arm-2012.09/bin/../arm-none-eabi/lib//libstdc++.a(eh_personality.o)
 .text.__gxx_personality_v0
                0x80047a14      0x620 /home/leon/riotboard/arm-2012.09/bin/../arm-none-eabi/lib//libstdc++.a(eh_personality.o)
                0x80047a14                __gxx_personality_v0
 .text          0x80048034        0x0 /home/leon/riotboard/arm-2012.09/bin/../arm-none-eabi/lib//libstdc++.a(eh_term_handler.o)
 .text          0x80048034        0x0 /home/leon/riotboard/arm-2012.09/bin/../arm-none-eabi/lib//libstdc++.a(eh_catch.o)
 .text.__cxa_get_exception_ptr
                0x80048034        0x8 /home/leon/riotboard/arm-2012.09/bin/../arm-none-eabi/lib//libstdc++.a(eh_catch.o)
                0x80048034                __cxa_get_exception_ptr
 .text.__cxa_begin_catch
                0x8004803c       0xdc /home/leon/riotboard/arm-2012.09/bin/../arm-none-eabi/lib//libstdc++.a(eh_catch.o)
                0x8004803c                __cxa_begin_catch
 .text.__cxa_end_catch
                0x80048118       0xdc /home/leon/riotboard/arm-2012.09/bin/../arm-none-eabi/lib//libstdc++.a(eh_catch.o)
                0x80048118                __cxa_end_catch
 .text._ZSt18uncaught_exceptionv
                0x800481f4       0x1c /home/leon/riotboard/arm-2012.09/bin/../arm-none-eabi/lib//libstdc++.a(eh_catch.o)
                0x800481f4                std::uncaught_exception()
 .text          0x80048210        0x0 /home/leon/riotboard/arm-2012.09/bin/../arm-none-eabi/lib//libstdc++.a(class_type_info.o)
 .text._ZNK10__cxxabiv117__class_type_info11__do_upcastEPKS0_PPv
                0x80048210       0x64 /home/leon/riotboard/arm-2012.09/bin/../arm-none-eabi/lib//libstdc++.a(class_type_info.o)
                0x80048210                __cxxabiv1::__class_type_info::__do_upcast(__cxxabiv1::__class_type_info const*, void**) const
 .text._ZNK10__cxxabiv117__class_type_info20__do_find_public_srcEiPKvPKS0_S2_
                0x80048274       0x14 /home/leon/riotboard/arm-2012.09/bin/../arm-none-eabi/lib//libstdc++.a(class_type_info.o)
                0x80048274                __cxxabiv1::__class_type_info::__do_find_public_src(int, void const*, __cxxabiv1::__class_type_info const*, void const*) const
 .text._ZNK10__cxxabiv117__class_type_info11__do_upcastEPKS0_PKvRNS0_15__upcast_resultE
                0x80048288       0x38 /home/leon/riotboard/arm-2012.09/bin/../arm-none-eabi/lib//libstdc++.a(class_type_info.o)
                0x80048288                __cxxabiv1::__class_type_info::__do_upcast(__cxxabiv1::__class_type_info const*, void const*, __cxxabiv1::__class_type_info::__upcast_result&) const
 .text._ZN10__cxxabiv117__class_type_infoD2Ev
                0x800482c0       0x24 /home/leon/riotboard/arm-2012.09/bin/../arm-none-eabi/lib//libstdc++.a(class_type_info.o)
                0x800482c0                __cxxabiv1::__class_type_info::~__class_type_info()
                0x800482c0                __cxxabiv1::__class_type_info::~__class_type_info()
 .text._ZN10__cxxabiv117__class_type_infoD0Ev
                0x800482e4       0x20 /home/leon/riotboard/arm-2012.09/bin/../arm-none-eabi/lib//libstdc++.a(class_type_info.o)
                0x800482e4                __cxxabiv1::__class_type_info::~__class_type_info()
 .text._ZNK10__cxxabiv117__class_type_info12__do_dyncastEiNS0_10__sub_kindEPKS0_PKvS3_S5_RNS0_16__dyncast_resultE
                0x80048304       0x7c /home/leon/riotboard/arm-2012.09/bin/../arm-none-eabi/lib//libstdc++.a(class_type_info.o)
                0x80048304                __cxxabiv1::__class_type_info::__do_dyncast(int, __cxxabiv1::__class_type_info::__sub_kind, __cxxabiv1::__class_type_info const*, void const*, __cxxabiv1::__class_type_info const*, void const*, __cxxabiv1::__class_type_info::__dyncast_result&) const
 .text._ZNK10__cxxabiv117__class_type_info10__do_catchEPKSt9type_infoPPvj
                0x80048380       0x54 /home/leon/riotboard/arm-2012.09/bin/../arm-none-eabi/lib//libstdc++.a(class_type_info.o)
                0x80048380                __cxxabiv1::__class_type_info::__do_catch(std::type_info const*, void**, unsigned int) const
 .text          0x800483d4        0x0 /home/leon/riotboard/arm-2012.09/bin/../arm-none-eabi/lib//libstdc++.a(vterminate.o)
 .text._ZN9__gnu_cxx27__verbose_terminate_handlerEv
                0x800483d4      0x19c /home/leon/riotboard/arm-2012.09/bin/../arm-none-eabi/lib//libstdc++.a(vterminate.o)
                0x800483d4                __gnu_cxx::__verbose_terminate_handler()
 .text          0x80048570     0x7c50 /home/leon/riotboard/arm-2012.09/bin/../arm-none-eabi/lib//libstdc++.a(cp-demangle.o)
                0x80050044                __cxa_demangle
                0x80050190                __gcclibcxx_demangle_callback
 .text          0x800501c0        0x0 /home/leon/riotboard/arm-2012.09/bin/../arm-none-eabi/lib//libstdc++.a(eh_type.o)
 .text.__cxa_current_exception_type
                0x800501c0       0x30 /home/leon/riotboard/arm-2012.09/bin/../arm-none-eabi/lib//libstdc++.a(eh_type.o)
                0x800501c0                __cxa_current_exception_type
 .text          0x800501f0        0x0 /home/leon/riotboard/arm-2012.09/bin/../arm-none-eabi/lib//libstdc++.a(del_op.o)
 .text._ZdlPv   0x800501f0       0x14 /home/leon/riotboard/arm-2012.09/bin/../arm-none-eabi/lib//libstdc++.a(del_op.o)
                0x800501f0                operator delete(void*)
 .text          0x80050204        0x0 /home/leon/riotboard/arm-2012.09/bin/../arm-none-eabi/lib//libstdc++.a(tinfo.o)
 .text._ZNSt9type_infoD2Ev
                0x80050204       0x10 /home/leon/riotboard/arm-2012.09/bin/../arm-none-eabi/lib//libstdc++.a(tinfo.o)
                0x80050204                std::type_info::~type_info()
                0x80050204                std::type_info::~type_info()
 .text._ZNKSt9type_info14__is_pointer_pEv
                0x80050214        0x8 /home/leon/riotboard/arm-2012.09/bin/../arm-none-eabi/lib//libstdc++.a(tinfo.o)
                0x80050214                std::type_info::__is_pointer_p() const
 .text._ZNKSt9type_info15__is_function_pEv
                0x8005021c        0x8 /home/leon/riotboard/arm-2012.09/bin/../arm-none-eabi/lib//libstdc++.a(tinfo.o)
                0x8005021c                std::type_info::__is_function_p() const
 .text._ZNKSt9type_info11__do_upcastEPKN10__cxxabiv117__class_type_infoEPPv
                0x80050224        0x8 /home/leon/riotboard/arm-2012.09/bin/../arm-none-eabi/lib//libstdc++.a(tinfo.o)
                0x80050224                std::type_info::__do_upcast(__cxxabiv1::__class_type_info const*, void**) const
 .text._ZNSt9type_infoD0Ev
                0x8005022c       0x24 /home/leon/riotboard/arm-2012.09/bin/../arm-none-eabi/lib//libstdc++.a(tinfo.o)
                0x8005022c                std::type_info::~type_info()
 .text._ZNKSt9type_infoeqERKS_
                0x80050250       0x4c /home/leon/riotboard/arm-2012.09/bin/../arm-none-eabi/lib//libstdc++.a(tinfo.o)
                0x80050250                std::type_info::operator==(std::type_info const&) const
 .text._ZNKSt9type_info10__do_catchEPKS_PPvj
                0x8005029c        0x4 /home/leon/riotboard/arm-2012.09/bin/../arm-none-eabi/lib//libstdc++.a(tinfo.o)
                0x8005029c                std::type_info::__do_catch(std::type_info const*, void**, unsigned int) const
 .text          0x800502a0       0xa8 /home/leon/riotboard/arm-2012.09/bin/../arm-none-eabi/lib//libc.a(lib_a-fputs.o)
                0x800502a0                _fputs_r
                0x8005032c                fputs
 .text          0x80050348       0xe8 /home/leon/riotboard/arm-2012.09/bin/../arm-none-eabi/lib//libc.a(lib_a-fwrite.o)
                0x80050348                _fwrite_r
                0x800503ec                fwrite
 .text          0x80050430       0xb4 /home/leon/riotboard/arm-2012.09/bin/../arm-none-eabi/lib//libc.a(lib_a-memcmp.o)
                0x80050430                memcmp
 .text          0x800504e4      0x140 /home/leon/riotboard/arm-2012.09/bin/../arm-none-eabi/lib//libc.a(lib_a-strncmp.o)
                0x800504e4                strncmp
 .text          0x80050624       0x30 /home/leon/riotboard/arm-2012.09/bin/../arm-none-eabi/lib//libc.a(lib_a-syswrite.o)
                0x80050624                write
 .text          0x80050654      0x148 /home/leon/riotboard/arm-2012.09/bin/../lib/gcc/arm-none-eabi/4.7.2//libgcc.a(_divsi3.o)
                0x80050654                __aeabi_idiv
                0x80050654                __divsi3
                0x8005077c                __aeabi_idivmod
 .text          0x8005079c      0xfa8 /home/leon/riotboard/arm-2012.09/bin/../lib/gcc/arm-none-eabi/4.7.2//libgcc.a(unwind-arm.o)
                0x80050c1c                _Unwind_GetCFA
                0x80050c24                __gnu_Unwind_RaiseException
                0x80050cd0                __gnu_Unwind_ForcedUnwind
                0x80050cf4                __gnu_Unwind_Resume
                0x80050d6c                __gnu_Unwind_Resume_or_Rethrow
                0x80050d8c                _Unwind_Complete
                0x80050d90                _Unwind_DeleteException
                0x80050db4                _Unwind_VRS_Get
                0x80050e28                _Unwind_VRS_Set
                0x800512cc                __aeabi_unwind_cpp_pr2
                0x800512d4                __aeabi_unwind_cpp_pr1
                0x800512dc                __aeabi_unwind_cpp_pr0
                0x800512e4                __gnu_Unwind_Backtrace
                0x800513b0                _Unwind_VRS_Pop
 .text          0x80051744      0x1b0 /home/leon/riotboard/arm-2012.09/bin/../lib/gcc/arm-none-eabi/4.7.2//libgcc.a(libunwind.o)
                0x80051744                __restore_core_regs
                0x80051744                restore_core_regs
                0x80051760                __gnu_Unwind_Restore_VFP
                0x80051768                __gnu_Unwind_Save_VFP
                0x80051770                __gnu_Unwind_Restore_VFP_D
                0x80051778                __gnu_Unwind_Save_VFP_D
                0x80051780                __gnu_Unwind_Restore_VFP_D_16_to_31
                0x80051788                __gnu_Unwind_Save_VFP_D_16_to_31
                0x80051790                __gnu_Unwind_Restore_WMMXD
                0x800517d4                __gnu_Unwind_Save_WMMXD
                0x80051818                __gnu_Unwind_Restore_WMMXC
                0x8005182c                __gnu_Unwind_Save_WMMXC
                0x80051840                ___Unwind_RaiseException
                0x80051840                _Unwind_RaiseException
                0x80051864                ___Unwind_Resume
                0x80051864                _Unwind_Resume
                0x80051888                _Unwind_Resume_or_Rethrow
                0x80051888                ___Unwind_Resume_or_Rethrow
                0x800518ac                ___Unwind_ForcedUnwind
                0x800518ac                _Unwind_ForcedUnwind
                0x800518d0                _Unwind_Backtrace
                0x800518d0                ___Unwind_Backtrace
 .text          0x800518f4      0x53c /home/leon/riotboard/arm-2012.09/bin/../lib/gcc/arm-none-eabi/4.7.2//libgcc.a(pr-support.o)
                0x80051988                __gnu_unwind_execute
                0x80051da4                __gnu_unwind_frame
                0x80051dec                _Unwind_GetRegionStart
                0x80051e00                _Unwind_GetLanguageSpecificData
                0x80051e20                _Unwind_GetDataRelBase
                0x80051e28                _Unwind_GetTextRelBase
 .text          0x80051e30      0x478 /home/leon/git/swp-report/iMX6_Platform_SDK/output/mx6sl/lib/libsdk.a(pf0100.o)
                0x80051e30                pf0100_reg_read
                0x80051f20                pf0100_reg_write
                0x80052010                pf0100_enable_vgen1_1v2
                0x80052060                pf0100_enable_vgen2_1v5
                0x800520b0                pf0100_enable_vgen3_1v8
                0x80052100                pf0100_enable_vgen4_1v8
                0x80052150                pf0100_enable_vgen4_2v5
                0x800521a0                pf0100_enable_vgen6_2v8
                0x800521f0                pf0100_i2c_device_id_check
 *(.glue_7t)
 .glue_7t       0x00000000        0x0 linker stubs
 *(.glue_7)
 .glue_7        0x00000000        0x0 linker stubs
 *(.vfp11_veneer)
 .vfp11_veneer  0x00000000        0x0 linker stubs
 *(.ARM.extab* .gnu.linkonce.armextab.*)
 .ARM.extab.startup
                0x800522a8        0x0 /home/leon/git/swp-report/iMX6_Platform_SDK/output/mx6sl/lib/libsdk.a(startup.o)
 .ARM.extab     0x800522a8        0x0 /home/leon/riotboard/arm-2012.09/bin/../lib/gcc/arm-none-eabi/4.7.2//libgcc.a(_divdi3.o)
 .ARM.extab     0x800522a8        0x0 /home/leon/riotboard/arm-2012.09/bin/../lib/gcc/arm-none-eabi/4.7.2//libgcc.a(_udivdi3.o)
 .ARM.extab.text.__cxa_pure_virtual
                0x800522a8        0xc /home/leon/riotboard/arm-2012.09/bin/../arm-none-eabi/lib//libstdc++.a(pure.o)
 .ARM.extab.text.__cxa_deleted_virtual
                0x800522b4        0xc /home/leon/riotboard/arm-2012.09/bin/../arm-none-eabi/lib//libstdc++.a(pure.o)
 .ARM.extab.text._ZN10__cxxabiv111__terminateEPFvvE
                0x800522c0       0x2c /home/leon/riotboard/arm-2012.09/bin/../arm-none-eabi/lib//libstdc++.a(eh_terminate.o)
 .ARM.extab.text._ZSt9terminatev
                0x800522ec        0x0 /home/leon/riotboard/arm-2012.09/bin/../arm-none-eabi/lib//libstdc++.a(eh_terminate.o)
 .ARM.extab.text._ZN10__cxxabiv112__unexpectedEPFvvE
                0x800522ec        0xc /home/leon/riotboard/arm-2012.09/bin/../arm-none-eabi/lib//libstdc++.a(eh_terminate.o)
 .ARM.extab.text._ZSt10unexpectedv
                0x800522f8        0xc /home/leon/riotboard/arm-2012.09/bin/../arm-none-eabi/lib//libstdc++.a(eh_terminate.o)
 .ARM.extab.text._ZSt13set_terminatePFvvE
                0x80052304        0x0 /home/leon/riotboard/arm-2012.09/bin/../arm-none-eabi/lib//libstdc++.a(eh_terminate.o)
 .ARM.extab.text._ZSt14set_unexpectedPFvvE
                0x80052304        0x0 /home/leon/riotboard/arm-2012.09/bin/../arm-none-eabi/lib//libstdc++.a(eh_terminate.o)
 .ARM.extab.text._ZN10__cxxabiv1L24__is_gxx_exception_classEPc
                0x80052304        0x0 /home/leon/riotboard/arm-2012.09/bin/../arm-none-eabi/lib//libstdc++.a(eh_call.o)
 .ARM.extab.text.__cxa_call_terminate
                0x80052304        0x0 /home/leon/riotboard/arm-2012.09/bin/../arm-none-eabi/lib//libstdc++.a(eh_call.o)
 .ARM.extab.text.__cxa_call_unexpected
                0x80052304       0x28 /home/leon/riotboard/arm-2012.09/bin/../arm-none-eabi/lib//libstdc++.a(eh_call.o)
 .ARM.extab.text._ZL23__gxx_exception_cleanup19_Unwind_Reason_CodeP21_Unwind_Control_Block
                0x8005232c        0x0 /home/leon/riotboard/arm-2012.09/bin/../arm-none-eabi/lib//libstdc++.a(eh_throw.o)
 .ARM.extab.text.__cxa_throw
                0x8005232c        0x0 /home/leon/riotboard/arm-2012.09/bin/../arm-none-eabi/lib//libstdc++.a(eh_throw.o)
 .ARM.extab.text.__cxa_rethrow
                0x8005232c        0x0 /home/leon/riotboard/arm-2012.09/bin/../arm-none-eabi/lib//libstdc++.a(eh_throw.o)
 .ARM.extab.text.__cxa_type_match
                0x8005232c        0x0 /home/leon/riotboard/arm-2012.09/bin/../arm-none-eabi/lib//libstdc++.a(eh_arm.o)
 .ARM.extab.text.__cxa_begin_cleanup
                0x8005232c        0x0 /home/leon/riotboard/arm-2012.09/bin/../arm-none-eabi/lib//libstdc++.a(eh_arm.o)
 .ARM.extab.text.__gnu_end_cleanup
                0x8005232c        0x0 /home/leon/riotboard/arm-2012.09/bin/../arm-none-eabi/lib//libstdc++.a(eh_arm.o)
 .ARM.extab.text._ZNSt9exceptionD2Ev
                0x8005232c        0x0 /home/leon/riotboard/arm-2012.09/bin/../arm-none-eabi/lib//libstdc++.a(eh_exception.o)
 .ARM.extab.text._ZNSt13bad_exceptionD2Ev
                0x8005232c        0x0 /home/leon/riotboard/arm-2012.09/bin/../arm-none-eabi/lib//libstdc++.a(eh_exception.o)
 .ARM.extab.text._ZN10__cxxabiv115__forced_unwindD2Ev
                0x8005232c        0x0 /home/leon/riotboard/arm-2012.09/bin/../arm-none-eabi/lib//libstdc++.a(eh_exception.o)
 .ARM.extab.text._ZN10__cxxabiv119__foreign_exceptionD2Ev
                0x8005232c        0x0 /home/leon/riotboard/arm-2012.09/bin/../arm-none-eabi/lib//libstdc++.a(eh_exception.o)
 .ARM.extab.text._ZNKSt9exception4whatEv
                0x8005232c        0x0 /home/leon/riotboard/arm-2012.09/bin/../arm-none-eabi/lib//libstdc++.a(eh_exception.o)
 .ARM.extab.text._ZNKSt13bad_exception4whatEv
                0x8005232c        0x0 /home/leon/riotboard/arm-2012.09/bin/../arm-none-eabi/lib//libstdc++.a(eh_exception.o)
 .ARM.extab.text._ZN10__cxxabiv119__foreign_exceptionD0Ev
                0x8005232c        0x0 /home/leon/riotboard/arm-2012.09/bin/../arm-none-eabi/lib//libstdc++.a(eh_exception.o)
 .ARM.extab.text._ZN10__cxxabiv115__forced_unwindD0Ev
                0x8005232c        0x0 /home/leon/riotboard/arm-2012.09/bin/../arm-none-eabi/lib//libstdc++.a(eh_exception.o)
 .ARM.extab.text._ZNSt9exceptionD0Ev
                0x8005232c        0x0 /home/leon/riotboard/arm-2012.09/bin/../arm-none-eabi/lib//libstdc++.a(eh_exception.o)
 .ARM.extab.text._ZNSt13bad_exceptionD0Ev
                0x8005232c        0x0 /home/leon/riotboard/arm-2012.09/bin/../arm-none-eabi/lib//libstdc++.a(eh_exception.o)
 .ARM.extab.text.__cxa_allocate_exception
                0x8005232c        0x0 /home/leon/riotboard/arm-2012.09/bin/../arm-none-eabi/lib//libstdc++.a(eh_alloc.o)
 .ARM.extab.text.__cxa_free_exception
                0x8005232c        0x0 /home/leon/riotboard/arm-2012.09/bin/../arm-none-eabi/lib//libstdc++.a(eh_alloc.o)
 .ARM.extab.text.__cxa_allocate_dependent_exception
                0x8005232c        0x0 /home/leon/riotboard/arm-2012.09/bin/../arm-none-eabi/lib//libstdc++.a(eh_alloc.o)
 .ARM.extab.text.__cxa_free_dependent_exception
                0x8005232c        0x0 /home/leon/riotboard/arm-2012.09/bin/../arm-none-eabi/lib//libstdc++.a(eh_alloc.o)
 .ARM.extab.text.__cxa_get_globals_fast
                0x8005232c        0x0 /home/leon/riotboard/arm-2012.09/bin/../arm-none-eabi/lib//libstdc++.a(eh_globals.o)
 .ARM.extab.text.__cxa_get_globals
                0x8005232c        0x0 /home/leon/riotboard/arm-2012.09/bin/../arm-none-eabi/lib//libstdc++.a(eh_globals.o)
 .ARM.extab.text._ZNK10__cxxabiv120__si_class_type_info12__do_dyncastEiNS_17__class_type_info10__sub_kindEPKS1_PKvS4_S6_RNS1_16__dyncast_resultE
                0x8005232c        0x0 /home/leon/riotboard/arm-2012.09/bin/../arm-none-eabi/lib//libstdc++.a(si_class_type_info.o)
 .ARM.extab.text._ZN10__cxxabiv120__si_class_type_infoD2Ev
                0x8005232c        0x0 /home/leon/riotboard/arm-2012.09/bin/../arm-none-eabi/lib//libstdc++.a(si_class_type_info.o)
 .ARM.extab.text._ZN10__cxxabiv120__si_class_type_infoD0Ev
                0x8005232c        0x0 /home/leon/riotboard/arm-2012.09/bin/../arm-none-eabi/lib//libstdc++.a(si_class_type_info.o)
 .ARM.extab.text._ZNK10__cxxabiv120__si_class_type_info11__do_upcastEPKNS_17__class_type_infoEPKvRNS1_15__upcast_resultE
                0x8005232c        0x0 /home/leon/riotboard/arm-2012.09/bin/../arm-none-eabi/lib//libstdc++.a(si_class_type_info.o)
 .ARM.extab.text._ZNK10__cxxabiv120__si_class_type_info20__do_find_public_srcEiPKvPKNS_17__class_type_infoES2_
                0x8005232c        0x0 /home/leon/riotboard/arm-2012.09/bin/../arm-none-eabi/lib//libstdc++.a(si_class_type_info.o)
 .ARM.extab.text._ZL12read_sleb128PKhPl
                0x8005232c        0x0 /home/leon/riotboard/arm-2012.09/bin/../arm-none-eabi/lib//libstdc++.a(eh_personality.o)
 .ARM.extab.text._ZL28read_encoded_value_with_basehjPKhPj
                0x8005232c        0x0 /home/leon/riotboard/arm-2012.09/bin/../arm-none-eabi/lib//libstdc++.a(eh_personality.o)
 .ARM.extab.text._ZL21base_of_encoded_valuehP15_Unwind_Context
                0x8005232c        0xc /home/leon/riotboard/arm-2012.09/bin/../arm-none-eabi/lib//libstdc++.a(eh_personality.o)
 .ARM.extab.text._ZL17parse_lsda_headerP15_Unwind_ContextPKhP16lsda_header_info
                0x80052338        0x0 /home/leon/riotboard/arm-2012.09/bin/../arm-none-eabi/lib//libstdc++.a(eh_personality.o)
 .ARM.extab.text.__gxx_personality_v0
                0x80052338       0x20 /home/leon/riotboard/arm-2012.09/bin/../arm-none-eabi/lib//libstdc++.a(eh_personality.o)
 .ARM.extab.text.__cxa_get_exception_ptr
                0x80052358        0x0 /home/leon/riotboard/arm-2012.09/bin/../arm-none-eabi/lib//libstdc++.a(eh_catch.o)
 .ARM.extab.text.__cxa_begin_catch
                0x80052358       0x20 /home/leon/riotboard/arm-2012.09/bin/../arm-none-eabi/lib//libstdc++.a(eh_catch.o)
 .ARM.extab.text.__cxa_end_catch
                0x80052378        0xc /home/leon/riotboard/arm-2012.09/bin/../arm-none-eabi/lib//libstdc++.a(eh_catch.o)
 .ARM.extab.text._ZSt18uncaught_exceptionv
                0x80052384        0x0 /home/leon/riotboard/arm-2012.09/bin/../arm-none-eabi/lib//libstdc++.a(eh_catch.o)
 .ARM.extab.text._ZNK10__cxxabiv117__class_type_info11__do_upcastEPKS0_PPv
                0x80052384        0x0 /home/leon/riotboard/arm-2012.09/bin/../arm-none-eabi/lib//libstdc++.a(class_type_info.o)
 .ARM.extab.text._ZNK10__cxxabiv117__class_type_info20__do_find_public_srcEiPKvPKS0_S2_
                0x80052384        0x0 /home/leon/riotboard/arm-2012.09/bin/../arm-none-eabi/lib//libstdc++.a(class_type_info.o)
 .ARM.extab.text._ZNK10__cxxabiv117__class_type_info11__do_upcastEPKS0_PKvRNS0_15__upcast_resultE
                0x80052384        0x0 /home/leon/riotboard/arm-2012.09/bin/../arm-none-eabi/lib//libstdc++.a(class_type_info.o)
 .ARM.extab.text._ZN10__cxxabiv117__class_type_infoD2Ev
                0x80052384        0x0 /home/leon/riotboard/arm-2012.09/bin/../arm-none-eabi/lib//libstdc++.a(class_type_info.o)
 .ARM.extab.text._ZN10__cxxabiv117__class_type_infoD0Ev
                0x80052384        0x0 /home/leon/riotboard/arm-2012.09/bin/../arm-none-eabi/lib//libstdc++.a(class_type_info.o)
 .ARM.extab.text._ZNK10__cxxabiv117__class_type_info12__do_dyncastEiNS0_10__sub_kindEPKS0_PKvS3_S5_RNS0_16__dyncast_resultE
                0x80052384        0x0 /home/leon/riotboard/arm-2012.09/bin/../arm-none-eabi/lib//libstdc++.a(class_type_info.o)
 .ARM.extab.text._ZNK10__cxxabiv117__class_type_info10__do_catchEPKSt9type_infoPPvj
                0x80052384        0x0 /home/leon/riotboard/arm-2012.09/bin/../arm-none-eabi/lib//libstdc++.a(class_type_info.o)
 .ARM.extab.text._ZN9__gnu_cxx27__verbose_terminate_handlerEv
                0x80052384       0x34 /home/leon/riotboard/arm-2012.09/bin/../arm-none-eabi/lib//libstdc++.a(vterminate.o)
 .ARM.extab.text.__cxa_current_exception_type
                0x800523b8        0x0 /home/leon/riotboard/arm-2012.09/bin/../arm-none-eabi/lib//libstdc++.a(eh_type.o)
 .ARM.extab.text._ZdlPv
                0x800523b8        0x0 /home/leon/riotboard/arm-2012.09/bin/../arm-none-eabi/lib//libstdc++.a(del_op.o)
 .ARM.extab.text._ZNSt9type_infoD2Ev
                0x800523b8        0x0 /home/leon/riotboard/arm-2012.09/bin/../arm-none-eabi/lib//libstdc++.a(tinfo.o)
 .ARM.extab.text._ZNKSt9type_info14__is_pointer_pEv
                0x800523b8        0x0 /home/leon/riotboard/arm-2012.09/bin/../arm-none-eabi/lib//libstdc++.a(tinfo.o)
 .ARM.extab.text._ZNKSt9type_info15__is_function_pEv
                0x800523b8        0x0 /home/leon/riotboard/arm-2012.09/bin/../arm-none-eabi/lib//libstdc++.a(tinfo.o)
 .ARM.extab.text._ZNKSt9type_info11__do_upcastEPKN10__cxxabiv117__class_type_infoEPPv
                0x800523b8        0x0 /home/leon/riotboard/arm-2012.09/bin/../arm-none-eabi/lib//libstdc++.a(tinfo.o)
 .ARM.extab.text._ZNSt9type_infoD0Ev
                0x800523b8        0x0 /home/leon/riotboard/arm-2012.09/bin/../arm-none-eabi/lib//libstdc++.a(tinfo.o)
 .ARM.extab.text._ZNKSt9type_infoeqERKS_
                0x800523b8        0x0 /home/leon/riotboard/arm-2012.09/bin/../arm-none-eabi/lib//libstdc++.a(tinfo.o)
 .ARM.extab.text._ZNKSt9type_info10__do_catchEPKS_PPvj
                0x800523b8        0x0 /home/leon/riotboard/arm-2012.09/bin/../arm-none-eabi/lib//libstdc++.a(tinfo.o)
 .ARM.extab     0x800523b8       0x18 /home/leon/riotboard/arm-2012.09/bin/../lib/gcc/arm-none-eabi/4.7.2//libgcc.a(unwind-arm.o)
 .ARM.extab     0x800523d0       0x18 /home/leon/riotboard/arm-2012.09/bin/../lib/gcc/arm-none-eabi/4.7.2//libgcc.a(pr-support.o)
 *(.gcc_except_table)

.v4_bx          0x800523e8        0x0
 .v4_bx         0x00000000        0x0 linker stubs

.iplt           0x800523e8        0x0
 .iplt          0x00000000        0x0 /home/leon/riotboard/arm-2012.09/bin/../lib/gcc/arm-none-eabi/4.7.2//crtbegin.o

.ctors
 *crtbegin.o(.ctors)
 *crtbegin?.o(.ctors)
 *(EXCLUDE_FILE(*crtend?.o *crtend.o) .ctors)
 *(SORT(.ctors.*))
 *(.ctors)

.dtors
 *crtbegin.o(.dtors)
 *crtbegin?.o(.dtors)
 *(EXCLUDE_FILE(*crtend?.o *crtend.o) .dtors)
 *(SORT(.dtors.*))
 *(.dtors)

.rodata         0x80053000    0xcbc7c
 *(.rodata .rodata.* .gnu.linkonce.r.*)
 .rodata        0x80053000       0x9c /home/leon/git/swp-report/iMX6_Platform_SDK/output/mx6sl/sdk_unit_test/evk_rev_a/obj/apps/common/print_clock_info.o
 .rodata        0x8005309c      0x100 /home/leon/git/swp-report/iMX6_Platform_SDK/output/mx6sl/sdk_unit_test/evk_rev_a/obj/apps/common/print_version.o
 .rodata        0x8005319c      0x440 /home/leon/git/swp-report/iMX6_Platform_SDK/output/mx6sl/sdk_unit_test/evk_rev_a/obj/apps/sdk_unit_test/src/all_test.o
                0x80053344                k_menuItems
                0x800535d0                k_mainMenu
 .rodata        0x800535dc       0x34 /home/leon/git/swp-report/iMX6_Platform_SDK/output/mx6sl/lib/libsdk.a(ccm_pll.o)
                0x800535dc                PLL1_OUTPUT
                0x800535e0                PLL2_OUTPUT
                0x800535f4                PLL3_OUTPUT
                0x80053608                PLL4_OUTPUT
                0x8005360c                PLL5_OUTPUT
 .rodata        0x80053610       0x64 /home/leon/git/swp-report/iMX6_Platform_SDK/output/mx6sl/lib/libsdk.a(gic.o)
 .rodata        0x80053674      0x154 /home/leon/git/swp-report/iMX6_Platform_SDK/output/mx6sl/lib/libsdk.a(menu.o)
 .rodata        0x800537c8       0x50 /home/leon/git/swp-report/iMX6_Platform_SDK/output/mx6sl/lib/libsdk.a(sdk_version.o)
                0x800537c8                k_sdk_version
                0x800537cc                k_sdk_copyright
 .rodata        0x80053818       0xcc /home/leon/git/swp-report/iMX6_Platform_SDK/output/mx6sl/lib/libsdk.a(system_util.o)
 .rodata        0x800538e4       0xf4 /home/leon/git/swp-report/iMX6_Platform_SDK/output/mx6sl/lib/libsdk.a(text_color.o)
                0x800538ec                g_TextAttributeDefault
                0x800538f8                g_TextAttributeBold
                0x80053904                g_TextAttributeDim
                0x80053910                g_TextAttributeUnderline
                0x8005391c                g_TextAttributeBlink
                0x80053928                g_TextAttributeReverse
                0x80053934                g_TextAttributeHidden
                0x80053940                g_TextColorBlack
                0x8005394c                g_TextColorRed
                0x80053958                g_TextColorGreen
                0x80053964                g_TextColorYellow
                0x80053970                g_TextColorBlue
                0x8005397c                g_TextColorMagenta
                0x80053988                g_TextColorCyan
                0x80053994                g_TextColorWhite
                0x800539a4                g_TextColorOrange
                0x800539b4                g_TextColorLightBlue
                0x800539c4                g_TextColorGray
                0x800539d4                g_TextColorPurple
 .rodata        0x800539d8      0x1f8 /home/leon/git/swp-report/iMX6_Platform_SDK/output/mx6sl/lib/libsdk.a(board_id.o)
 .rodata        0x80053bd0       0x20 /home/leon/git/swp-report/iMX6_Platform_SDK/output/mx6sl/lib/libsdk.a(interrupt.o)
 .rodata        0x80053bf0      0x230 /home/leon/git/swp-report/iMX6_Platform_SDK/output/mx6sl/lib/libsdk.a(abort_handler.o)
 .rodata        0x80053e20       0x74 /home/leon/git/swp-report/iMX6_Platform_SDK/output/mx6sl/lib/libboard_evk_rev_a.a(uart_iomux_config.o)
 .rodata        0x80053e94       0x3c /home/leon/git/swp-report/iMX6_Platform_SDK/output/mx6sl/sdk_unit_test/evk_rev_a/libsdk_unit_test.a(cpu_wp_test.o)
 .rodata        0x80053ed0       0xe4 /home/leon/git/swp-report/iMX6_Platform_SDK/output/mx6sl/sdk_unit_test/evk_rev_a/libsdk_unit_test.a(audio_test.o)
 .rodata        0x80053fb4       0xc4 /home/leon/git/swp-report/iMX6_Platform_SDK/output/mx6sl/sdk_unit_test/evk_rev_a/libsdk_unit_test.a(ssi_playback.o)
 .rodata        0x80054078       0x64 /home/leon/git/swp-report/iMX6_Platform_SDK/output/mx6sl/sdk_unit_test/evk_rev_a/libsdk_unit_test.a(gic_test.o)
 .rodata        0x800540dc      0x1a0 /home/leon/git/swp-report/iMX6_Platform_SDK/output/mx6sl/sdk_unit_test/evk_rev_a/libsdk_unit_test.a(ocotp_test.o)
 .rodata        0x8005427c       0xc4 /home/leon/git/swp-report/iMX6_Platform_SDK/output/mx6sl/sdk_unit_test/evk_rev_a/libsdk_unit_test.a(i2c_test.o)
 .rodata        0x80054340      0x308 /home/leon/git/swp-report/iMX6_Platform_SDK/output/mx6sl/sdk_unit_test/evk_rev_a/libsdk_unit_test.a(imx6_i2c_device.o)
 .rodata        0x80054648      0x128 /home/leon/git/swp-report/iMX6_Platform_SDK/output/mx6sl/sdk_unit_test/evk_rev_a/libsdk_unit_test.a(snvs_rtc_test.o)
 .rodata        0x80054770       0xa4 /home/leon/git/swp-report/iMX6_Platform_SDK/output/mx6sl/sdk_unit_test/evk_rev_a/libsdk_unit_test.a(snvs_srtc_test.o)
 .rodata        0x80054814      0x1a0 /home/leon/git/swp-report/iMX6_Platform_SDK/output/mx6sl/sdk_unit_test/evk_rev_a/libsdk_unit_test.a(tempmon_test.o)
 .rodata        0x800549b4      0x11c /home/leon/git/swp-report/iMX6_Platform_SDK/output/mx6sl/sdk_unit_test/evk_rev_a/libsdk_unit_test.a(sdma_test.o)
 .rodata        0x80054ad0      0x154 /home/leon/git/swp-report/iMX6_Platform_SDK/output/mx6sl/sdk_unit_test/evk_rev_a/libsdk_unit_test.a(spi_lpb.o)
 .rodata        0x80054c24      0x1f8 /home/leon/git/swp-report/iMX6_Platform_SDK/output/mx6sl/sdk_unit_test/evk_rev_a/libsdk_unit_test.a(uart_loopback.o)
 .rodata        0x80054e1c      0x164 /home/leon/git/swp-report/iMX6_Platform_SDK/output/mx6sl/sdk_unit_test/evk_rev_a/libsdk_unit_test.a(epit_test.o)
 .rodata        0x80054f80      0x248 /home/leon/git/swp-report/iMX6_Platform_SDK/output/mx6sl/sdk_unit_test/evk_rev_a/libsdk_unit_test.a(gpt_test.o)
 .rodata        0x800551c8       0xc0 /home/leon/git/swp-report/iMX6_Platform_SDK/output/mx6sl/sdk_unit_test/evk_rev_a/libsdk_unit_test.a(timer_test.o)
 .rodata        0x80055288       0xb0 /home/leon/git/swp-report/iMX6_Platform_SDK/output/mx6sl/sdk_unit_test/evk_rev_a/libsdk_unit_test.a(uart_test.o)
                0x80055288                g_uart_test_name
 .rodata        0x80055338      0x38c /home/leon/git/swp-report/iMX6_Platform_SDK/output/mx6sl/sdk_unit_test/evk_rev_a/libsdk_unit_test.a(usdhc_test.o)
 .rodata        0x800556c4       0x7c /home/leon/git/swp-report/iMX6_Platform_SDK/output/mx6sl/sdk_unit_test/evk_rev_a/libsdk_unit_test.a(pwm_test.o)
 .rodata        0x80055740       0xc8 /home/leon/git/swp-report/iMX6_Platform_SDK/output/mx6sl/sdk_unit_test/evk_rev_a/libsdk_unit_test.a(watchdog_test.o)
 .rodata        0x80055808      0x1d0 /home/leon/git/swp-report/iMX6_Platform_SDK/output/mx6sl/sdk_unit_test/evk_rev_a/libsdk_unit_test.a(spi_test.o)
 .rodata        0x800559d8      0x168 /home/leon/git/swp-report/iMX6_Platform_SDK/output/mx6sl/sdk_unit_test/evk_rev_a/libsdk_unit_test.a(usb_test.o)
 .rodata        0x80055b40       0x68 /home/leon/git/swp-report/iMX6_Platform_SDK/output/mx6sl/sdk_unit_test/evk_rev_a/libsdk_unit_test.a(epdc_test.o)
                0x80055b40                g_epdc_test_name
 .rodata        0x80055ba8       0x7c /home/leon/git/swp-report/iMX6_Platform_SDK/output/mx6sl/sdk_unit_test/evk_rev_a/libsdk_unit_test.a(lcdif_test.o)
 .rodata        0x80055c24       0x88 /home/leon/git/swp-report/iMX6_Platform_SDK/output/mx6sl/sdk_unit_test/evk_rev_a/libsdk_unit_test.a(camera_test.o)
                0x80055c24                g_camera_test_name
 .rodata        0x80055cac       0x2c /home/leon/git/swp-report/iMX6_Platform_SDK/output/mx6sl/sdk_unit_test/evk_rev_a/libsdk_unit_test.a(csi_sensor_capture.o)
 .rodata        0x80055cd8      0x204 /home/leon/git/swp-report/iMX6_Platform_SDK/output/mx6sl/sdk_unit_test/evk_rev_a/libsdk_unit_test.a(fec_test.o)
                0x80055cd8                g_fec_enet_test_name
 .rodata        0x80055edc       0x60 /home/leon/git/swp-report/iMX6_Platform_SDK/output/mx6sl/sdk_unit_test/evk_rev_a/libsdk_unit_test.a(spdc_test.o)
 .rodata        0x80055f3c      0x114 /home/leon/git/swp-report/iMX6_Platform_SDK/output/mx6sl/sdk_unit_test/evk_rev_a/libsdk_unit_test.a(at24cxx.o)
 .rodata        0x80056050      0x158 /home/leon/git/swp-report/iMX6_Platform_SDK/output/mx6sl/sdk_unit_test/evk_rev_a/libsdk_unit_test.a(mem_2_mem.o)
 .rodata        0x800561a8      0x368 /home/leon/git/swp-report/iMX6_Platform_SDK/output/mx6sl/sdk_unit_test/evk_rev_a/libsdk_unit_test.a(pwm_output.o)
 .rodata        0x80056510      0x118 /home/leon/git/swp-report/iMX6_Platform_SDK/output/mx6sl/sdk_unit_test/evk_rev_a/libsdk_unit_test.a(spi_nor_numonyx.o)
 .rodata        0x80056628      0x114 /home/leon/git/swp-report/iMX6_Platform_SDK/output/mx6sl/sdk_unit_test/evk_rev_a/libsdk_unit_test.a(usb0_device_mouse_test.o)
 .rodata        0x8005673c      0x218 /home/leon/git/swp-report/iMX6_Platform_SDK/output/mx6sl/sdk_unit_test/evk_rev_a/libsdk_unit_test.a(usb0_host_test.o)
 .rodata        0x80056954       0xa8 /home/leon/git/swp-report/iMX6_Platform_SDK/output/mx6sl/sdk_unit_test/evk_rev_a/libsdk_unit_test.a(usb0_host_testmodes_test.o)
 .rodata        0x800569fc       0x6c /home/leon/git/swp-report/iMX6_Platform_SDK/output/mx6sl/sdk_unit_test/evk_rev_a/libsdk_unit_test.a(lcdif_display.o)
                0x800569fc                g_lcd_display_test_name
 *fill*         0x80056a68      0x598 
 .rodata        0x80057000    0xc4000 /home/leon/git/swp-report/iMX6_Platform_SDK/output/mx6sl/sdk_unit_test/evk_rev_a/libsdk_unit_test.a(auo_lut.o)
                0x80057000                auo_lut
 .rodata        0x8011b000      0x398 /home/leon/riotboard/arm-2012.09/bin/../arm-none-eabi/lib//libm.a(lib_a-ef_rem_pio2.o)
 .rodata        0x8011b398       0x38 /home/leon/riotboard/arm-2012.09/bin/../arm-none-eabi/lib//libm.a(lib_a-kf_rem_pio2.o)
 .rodata.str1.4
                0x8011b3d0       0x3f /home/leon/riotboard/arm-2012.09/bin/../arm-none-eabi/lib//libc.a(lib_a-assert.o)
                                 0x44 (size before relaxing)
 *fill*         0x8011b40f        0x1 
 .rodata        0x8011b410        0x4 /home/leon/riotboard/arm-2012.09/bin/../arm-none-eabi/lib//libc.a(lib_a-impure.o)
                0x8011b410                _global_impure_ptr
 .rodata.str1.4
                0x8011b414        0x2 /home/leon/riotboard/arm-2012.09/bin/../arm-none-eabi/lib//libc.a(lib_a-impure.o)
                                  0x4 (size before relaxing)
 *fill*         0x8011b416        0x2 
 .rodata        0x8011b418       0x20 /home/leon/riotboard/arm-2012.09/bin/../arm-none-eabi/lib//libc.a(lib_a-svfprintf.o)
 .rodata.str1.4
                0x8011b438       0x42 /home/leon/riotboard/arm-2012.09/bin/../arm-none-eabi/lib//libc.a(lib_a-svfprintf.o)
                                 0x44 (size before relaxing)
 *fill*         0x8011b47a        0x2 
 .rodata        0x8011b47c       0x20 /home/leon/riotboard/arm-2012.09/bin/../arm-none-eabi/lib//libc.a(lib_a-vfiprintf.o)
 .rodata.str1.4
                0x00000000       0x30 /home/leon/riotboard/arm-2012.09/bin/../arm-none-eabi/lib//libc.a(lib_a-vfiprintf.o)
 .rodata        0x8011b49c       0x20 /home/leon/riotboard/arm-2012.09/bin/../arm-none-eabi/lib//libc.a(lib_a-vfprintf.o)
 .rodata.str1.4
                0x00000000       0x44 /home/leon/riotboard/arm-2012.09/bin/../arm-none-eabi/lib//libc.a(lib_a-vfprintf.o)
 .rodata        0x8011b4bc      0x104 /home/leon/riotboard/arm-2012.09/bin/../arm-none-eabi/lib//libc.a(lib_a-ctype_.o)
                0x8011b4bc                _ctype_
 .rodata.str1.4
                0x8011b5c0       0x10 /home/leon/riotboard/arm-2012.09/bin/../arm-none-eabi/lib//libc.a(lib_a-dtoa.o)
                                 0x14 (size before relaxing)
 .rodata.str1.4
                0x8011b5d0        0xa /home/leon/riotboard/arm-2012.09/bin/../arm-none-eabi/lib//libc.a(lib_a-locale.o)
                                 0x14 (size before relaxing)
 *fill*         0x8011b5da        0x6 
 .rodata        0x8011b5e0      0x128 /home/leon/riotboard/arm-2012.09/bin/../arm-none-eabi/lib//libc.a(lib_a-mprec.o)
                0x8011b5f0                __mprec_tens
                0x8011b6b8                __mprec_tinytens
                0x8011b6e0                __mprec_bigtens
 .rodata        0x8011b708       0x20 /home/leon/riotboard/arm-2012.09/bin/../arm-none-eabi/lib//libc.a(lib_a-svfiprintf.o)
 .rodata.str1.4
                0x00000000       0x30 /home/leon/riotboard/arm-2012.09/bin/../arm-none-eabi/lib//libc.a(lib_a-svfiprintf.o)
 .rodata        0x8011b728       0x20 /home/leon/git/swp-report/iMX6_Platform_SDK/output/mx6sl/lib/libsdk.a(runtime_support.o)
 .rodata        0x8011b748       0x58 /home/leon/git/swp-report/iMX6_Platform_SDK/output/mx6sl/lib/libsdk.a(imx_audmux.o)
 .rodata        0x8011b7a0       0x84 /home/leon/git/swp-report/iMX6_Platform_SDK/output/mx6sl/lib/libsdk.a(snd_card.o)
 .rodata        0x8011b824      0x1a4 /home/leon/git/swp-report/iMX6_Platform_SDK/output/mx6sl/lib/libsdk.a(wm8962.o)
 .rodata        0x8011b9c8       0xc4 /home/leon/git/swp-report/iMX6_Platform_SDK/output/mx6sl/lib/libsdk.a(smd_sensor.o)
 .rodata        0x8011ba8c       0x48 /home/leon/git/swp-report/iMX6_Platform_SDK/output/mx6sl/lib/libsdk.a(cpu_workpoint.o)
 .rodata        0x8011bad4       0x58 /home/leon/git/swp-report/iMX6_Platform_SDK/output/mx6sl/lib/libsdk.a(mxc_epdc.o)
 .rodata        0x8011bb2c      0x158 /home/leon/git/swp-report/iMX6_Platform_SDK/output/mx6sl/lib/libsdk.a(fec_drv.o)
 .rodata        0x8011bc84       0xe0 /home/leon/git/swp-report/iMX6_Platform_SDK/output/mx6sl/lib/libsdk.a(gpio.o)
 .rodata        0x8011bd64      0x380 /home/leon/git/swp-report/iMX6_Platform_SDK/output/mx6sl/lib/libsdk.a(imx6sl_gpio_map.o)
                0x8011bd64                k_gpio_mux_registers
 .rodata        0x8011c0e4      0x2c4 /home/leon/git/swp-report/iMX6_Platform_SDK/output/mx6sl/lib/libsdk.a(imx_i2c.o)
 .rodata        0x8011c3a8       0xa4 /home/leon/git/swp-report/iMX6_Platform_SDK/output/mx6sl/lib/libsdk.a(imx_i2c_slave.o)
 .rodata        0x8011c44c       0xa4 /home/leon/git/swp-report/iMX6_Platform_SDK/output/mx6sl/lib/libsdk.a(lcdif_drv.o)
 .rodata        0x8011c4f0      0x248 /home/leon/git/swp-report/iMX6_Platform_SDK/output/mx6sl/lib/libsdk.a(pmu_driver.o)
                0x8011c4f0                vtable for pmu::LDOSoCRegulator
                0x8011c548                vtable for pmu::LDOGraphicsRegulator
                0x8011c5a0                vtable for pmu::LDOARMRegulator
                0x8011c5f8                vtable for pmu::DigitalRegulator
                0x8011c650                vtable for pmu::LDO3p0Regulator
                0x8011c688                vtable for pmu::LDO1p1Regulator
                0x8011c6c0                vtable for pmu::AnalogRegulator
                0x8011c6f8                vtable for pmu::Regulator
 .rodata._ZTVN3pmu15LDO2p5RegulatorE
                0x8011c738       0x38 /home/leon/git/swp-report/iMX6_Platform_SDK/output/mx6sl/lib/libsdk.a(pmu_driver.o)
                0x8011c738                vtable for pmu::LDO2p5Regulator
 .rodata        0x8011c770       0x5c /home/leon/git/swp-report/iMX6_Platform_SDK/output/mx6sl/lib/libsdk.a(pwm.o)
 .rodata        0x8011c7cc       0x18 /home/leon/git/swp-report/iMX6_Platform_SDK/output/mx6sl/lib/libsdk.a(sdma.o)
 .rodata        0x8011c7e4      0x7ec /home/leon/git/swp-report/iMX6_Platform_SDK/output/mx6sl/lib/libsdk.a(sdma_script_info.o)
                0x8011cdc0                script_info
 .rodata        0x8011cfd0       0x3c /home/leon/git/swp-report/iMX6_Platform_SDK/output/mx6sl/lib/libsdk.a(mxc_spdc.o)
 .rodata        0x8011d00c       0x74 /home/leon/git/swp-report/iMX6_Platform_SDK/output/mx6sl/lib/libsdk.a(ecspi.o)
 .rodata        0x8011d080       0x94 /home/leon/git/swp-report/iMX6_Platform_SDK/output/mx6sl/lib/libsdk.a(usb_common.o)
 .rodata        0x8011d114       0x50 /home/leon/git/swp-report/iMX6_Platform_SDK/output/mx6sl/lib/libsdk.a(usbd_drv.o)
 .rodata        0x8011d164       0x28 /home/leon/git/swp-report/iMX6_Platform_SDK/output/mx6sl/lib/libsdk.a(usbh_drv.o)
 .rodata        0x8011d18c      0x1cc /home/leon/git/swp-report/iMX6_Platform_SDK/output/mx6sl/lib/libsdk.a(usdhc.o)
 .rodata        0x8011d358       0x1c /home/leon/git/swp-report/iMX6_Platform_SDK/output/mx6sl/lib/libsdk.a(usdhc_host.o)
 .rodata        0x8011d374      0x20c /home/leon/git/swp-report/iMX6_Platform_SDK/output/mx6sl/lib/libsdk.a(usdhc_mmc.o)
 .rodata        0x8011d580       0x58 /home/leon/git/swp-report/iMX6_Platform_SDK/output/mx6sl/lib/libsdk.a(usdhc_sd.o)
                0x8011d580                sd_ocr_value
                0x8011d58c                sd_if_cmd_arg
 .rodata        0x8011d5d8      0x1ac /home/leon/git/swp-report/iMX6_Platform_SDK/output/mx6sl/lib/libsdk.a(imx-ssi.o)
 .rodata        0x8011d784       0xdc /home/leon/git/swp-report/iMX6_Platform_SDK/output/mx6sl/lib/libsdk.a(imx_spdif.o)
 .rodata        0x8011d860       0x30 /home/leon/git/swp-report/iMX6_Platform_SDK/output/mx6sl/lib/libboard_evk_rev_a.a(board_i2c.o)
                0x8011d860                g_wm8962_i2c_device
                0x8011d868                g_pmic_ltc3589_i2c_device
                0x8011d870                g_pmic_da9053_i2c_device
                0x8011d878                g_pmic_max17135_i2c_device
                0x8011d880                g_pmic_pf0100_i2c_device
                0x8011d888                g_at24cx_i2c_device
 .rodata        0x8011d890       0x74 /home/leon/git/swp-report/iMX6_Platform_SDK/output/mx6sl/lib/libboard_evk_rev_a.a(ecspi_iomux_config.o)
 .rodata        0x8011d904       0x74 /home/leon/git/swp-report/iMX6_Platform_SDK/output/mx6sl/lib/libboard_evk_rev_a.a(i2c_iomux_config.o)
 .rodata        0x8011d978       0x74 /home/leon/git/swp-report/iMX6_Platform_SDK/output/mx6sl/lib/libboard_evk_rev_a.a(pwm_iomux_config.o)
 .rodata        0x8011d9ec       0x74 /home/leon/git/swp-report/iMX6_Platform_SDK/output/mx6sl/lib/libboard_evk_rev_a.a(usdhc_iomux_config.o)
 .rodata.str1.4
                0x8011da60       0x3b /home/leon/riotboard/arm-2012.09/bin/../arm-none-eabi/lib//libstdc++.a(pure.o)
                                 0x3c (size before relaxing)
 *fill*         0x8011da9b        0x5 
 .rodata._ZTVN10__cxxabiv115__forced_unwindE
                0x8011daa0       0x18 /home/leon/riotboard/arm-2012.09/bin/../arm-none-eabi/lib//libstdc++.a(eh_exception.o)
                0x8011daa0                vtable for __cxxabiv1::__forced_unwind
 .rodata._ZTVSt9exception
                0x8011dab8       0x18 /home/leon/riotboard/arm-2012.09/bin/../arm-none-eabi/lib//libstdc++.a(eh_exception.o)
                0x8011dab8                vtable for std::exception
 .rodata._ZTIN10__cxxabiv115__forced_unwindE
                0x8011dad0        0x8 /home/leon/riotboard/arm-2012.09/bin/../arm-none-eabi/lib//libstdc++.a(eh_exception.o)
                0x8011dad0                typeinfo for __cxxabiv1::__forced_unwind
 .rodata._ZTISt9exception
                0x8011dad8        0x8 /home/leon/riotboard/arm-2012.09/bin/../arm-none-eabi/lib//libstdc++.a(eh_exception.o)
                0x8011dad8                typeinfo for std::exception
 .rodata._ZTSSt13bad_exception
                0x8011dae0       0x14 /home/leon/riotboard/arm-2012.09/bin/../arm-none-eabi/lib//libstdc++.a(eh_exception.o)
                0x8011dae0                typeinfo name for std::bad_exception
 .rodata.str1.4
                0x8011daf4       0x23 /home/leon/riotboard/arm-2012.09/bin/../arm-none-eabi/lib//libstdc++.a(eh_exception.o)
                                 0x24 (size before relaxing)
 *fill*         0x8011db17        0x1 
 .rodata._ZTSN10__cxxabiv119__foreign_exceptionE
                0x8011db18       0x24 /home/leon/riotboard/arm-2012.09/bin/../arm-none-eabi/lib//libstdc++.a(eh_exception.o)
                0x8011db18                typeinfo name for __cxxabiv1::__foreign_exception
 .rodata._ZTIN10__cxxabiv119__foreign_exceptionE
                0x8011db3c        0x8 /home/leon/riotboard/arm-2012.09/bin/../arm-none-eabi/lib//libstdc++.a(eh_exception.o)
                0x8011db3c                typeinfo for __cxxabiv1::__foreign_exception
 *fill*         0x8011db44        0x4 
 .rodata._ZTVSt13bad_exception
                0x8011db48       0x18 /home/leon/riotboard/arm-2012.09/bin/../arm-none-eabi/lib//libstdc++.a(eh_exception.o)
                0x8011db48                vtable for std::bad_exception
 .rodata._ZTSSt9exception
                0x8011db60       0x10 /home/leon/riotboard/arm-2012.09/bin/../arm-none-eabi/lib//libstdc++.a(eh_exception.o)
                0x8011db60                typeinfo name for std::exception
 .rodata._ZTVN10__cxxabiv119__foreign_exceptionE
                0x8011db70       0x18 /home/leon/riotboard/arm-2012.09/bin/../arm-none-eabi/lib//libstdc++.a(eh_exception.o)
                0x8011db70                vtable for __cxxabiv1::__foreign_exception
 .rodata._ZTSN10__cxxabiv115__forced_unwindE
                0x8011db88       0x20 /home/leon/riotboard/arm-2012.09/bin/../arm-none-eabi/lib//libstdc++.a(eh_exception.o)
                0x8011db88                typeinfo name for __cxxabiv1::__forced_unwind
 .rodata._ZTISt13bad_exception
                0x8011dba8        0xc /home/leon/riotboard/arm-2012.09/bin/../arm-none-eabi/lib//libstdc++.a(eh_exception.o)
                0x8011dba8                typeinfo for std::bad_exception
 *fill*         0x8011dbb4        0x4 
 .rodata._ZTVN10__cxxabiv120__si_class_type_infoE
                0x8011dbb8       0x30 /home/leon/riotboard/arm-2012.09/bin/../arm-none-eabi/lib//libstdc++.a(si_class_type_info.o)
                0x8011dbb8                vtable for __cxxabiv1::__si_class_type_info
 .rodata._ZTIN10__cxxabiv120__si_class_type_infoE
                0x8011dbe8        0xc /home/leon/riotboard/arm-2012.09/bin/../arm-none-eabi/lib//libstdc++.a(si_class_type_info.o)
                0x8011dbe8                typeinfo for __cxxabiv1::__si_class_type_info
 .rodata._ZTSN10__cxxabiv120__si_class_type_infoE
                0x8011dbf4       0x28 /home/leon/riotboard/arm-2012.09/bin/../arm-none-eabi/lib//libstdc++.a(si_class_type_info.o)
                0x8011dbf4                typeinfo name for __cxxabiv1::__si_class_type_info
 *fill*         0x8011dc1c        0x4 
 .rodata._ZTVN10__cxxabiv117__class_type_infoE
                0x8011dc20       0x30 /home/leon/riotboard/arm-2012.09/bin/../arm-none-eabi/lib//libstdc++.a(class_type_info.o)
                0x8011dc20                vtable for __cxxabiv1::__class_type_info
 .rodata._ZTIN10__cxxabiv117__class_type_infoE
                0x8011dc50        0xc /home/leon/riotboard/arm-2012.09/bin/../arm-none-eabi/lib//libstdc++.a(class_type_info.o)
                0x8011dc50                typeinfo for __cxxabiv1::__class_type_info
 .rodata._ZTSN10__cxxabiv117__class_type_infoE
                0x8011dc5c       0x24 /home/leon/riotboard/arm-2012.09/bin/../arm-none-eabi/lib//libstdc++.a(class_type_info.o)
                0x8011dc5c                typeinfo name for __cxxabiv1::__class_type_info
 .rodata.str1.4
                0x8011dc80       0x94 /home/leon/riotboard/arm-2012.09/bin/../arm-none-eabi/lib//libstdc++.a(vterminate.o)
 .rodata        0x8011dd14      0x6f8 /home/leon/riotboard/arm-2012.09/bin/../arm-none-eabi/lib//libstdc++.a(cp-demangle.o)
 .rodata.str1.4
                0x8011e40c      0x764 /home/leon/riotboard/arm-2012.09/bin/../arm-none-eabi/lib//libstdc++.a(cp-demangle.o)
                                0x7b4 (size before relaxing)
 .rodata._ZTISt9type_info
                0x8011eb70        0x8 /home/leon/riotboard/arm-2012.09/bin/../arm-none-eabi/lib//libstdc++.a(tinfo.o)
                0x8011eb70                typeinfo for std::type_info
 .rodata._ZTSSt9type_info
                0x8011eb78       0x10 /home/leon/riotboard/arm-2012.09/bin/../arm-none-eabi/lib//libstdc++.a(tinfo.o)
                0x8011eb78                typeinfo name for std::type_info
 .rodata._ZTVSt9type_info
                0x8011eb88       0x20 /home/leon/riotboard/arm-2012.09/bin/../arm-none-eabi/lib//libstdc++.a(tinfo.o)
                0x8011eb88                vtable for std::type_info
 .rodata        0x8011eba8       0x98 /home/leon/git/swp-report/iMX6_Platform_SDK/output/mx6sl/lib/libsdk.a(pf0100.o)
                0x8011eba8                g_pmic_pf0100_i2c_device_id_test_name
                0x8011ec40                . = ALIGN (0x4)
 *(.init)
 .init          0x8011ec40        0xc /home/leon/riotboard/arm-2012.09/bin/../lib/gcc/arm-none-eabi/4.7.2//crti.o
                0x8011ec40                _init
 .init          0x8011ec4c        0xc /home/leon/riotboard/arm-2012.09/bin/../lib/gcc/arm-none-eabi/4.7.2//crtn.o
                0x8011ec58                . = ALIGN (0x4)
                0x8011ec58                __init_array_start = .
 *(SORT(.init_array.*))
 *(.init_array)
 .init_array    0x8011ec58        0x4 /home/leon/riotboard/arm-2012.09/bin/../lib/gcc/arm-none-eabi/4.7.2//crtbegin.o
 .init_array    0x8011ec5c        0x4 /home/leon/git/swp-report/iMX6_Platform_SDK/output/mx6sl/lib/libsdk.a(pmu_driver.o)
                0x8011ec60                __init_array_end = .
                0x8011ec60                . = ALIGN (0x4)
 *(.fini)
 .fini          0x8011ec60        0xc /home/leon/riotboard/arm-2012.09/bin/../lib/gcc/arm-none-eabi/4.7.2//crti.o
                0x8011ec60                _fini
 .fini          0x8011ec6c        0xc /home/leon/riotboard/arm-2012.09/bin/../lib/gcc/arm-none-eabi/4.7.2//crtn.o
                0x8011ec78                . = ALIGN (0x4)
                0x8011ec78                __fini_array_start = .
 *(.fini_array)
 .fini_array    0x8011ec78        0x4 /home/leon/riotboard/arm-2012.09/bin/../lib/gcc/arm-none-eabi/4.7.2//crtbegin.o
 *(SORT(.fini_array.*))
                0x8011ec7c                __fini_array_end = .
                0x8011ec7c                PROVIDE (__exidx_start, .)

.eh_frame       0x8011ec7c        0x4
 .eh_frame      0x8011ec7c        0x0 /home/leon/riotboard/arm-2012.09/bin/../lib/gcc/arm-none-eabi/4.7.2//crtbegin.o
 .eh_frame      0x8011ec7c        0x4 /home/leon/riotboard/arm-2012.09/bin/../lib/gcc/arm-none-eabi/4.7.2//crtend.o

.wavedata       0x8011ec80    0xc24e0
 .wavedata      0x8011ec80    0xc24e0 /home/leon/git/swp-report/iMX6_Platform_SDK/output/mx6sl/sdk_unit_test/evk_rev_a/libsdk_unit_test.a(wav_file.o)
                0x8011ec80                wavefile_start
                0x801e1160                wavefile_end

.ARM.exidx      0x801e1160      0x1e0
 *(.ARM.exidx* .gnu.linkonce.armexidx.*)
 .ARM.exidx.startup
                0x801e1160        0x8 /home/leon/git/swp-report/iMX6_Platform_SDK/output/mx6sl/lib/libsdk.a(startup.o)
 .ARM.exidx     0x801e1168        0x0 /home/leon/riotboard/arm-2012.09/bin/../lib/gcc/arm-none-eabi/4.7.2//libgcc.a(_divdi3.o)
                                  0x8 (size before relaxing)
 .ARM.exidx     0x801e1168        0x0 /home/leon/riotboard/arm-2012.09/bin/../lib/gcc/arm-none-eabi/4.7.2//libgcc.a(_udivdi3.o)
                                  0x8 (size before relaxing)
 .ARM.exidx.text.__cxa_pure_virtual
                0x801e1168        0x8 /home/leon/riotboard/arm-2012.09/bin/../arm-none-eabi/lib//libstdc++.a(pure.o)
 .ARM.exidx.text.__cxa_deleted_virtual
                0x801e1170        0x8 /home/leon/riotboard/arm-2012.09/bin/../arm-none-eabi/lib//libstdc++.a(pure.o)
 .ARM.exidx.text._ZN10__cxxabiv111__terminateEPFvvE
                0x801e1178        0x8 /home/leon/riotboard/arm-2012.09/bin/../arm-none-eabi/lib//libstdc++.a(eh_terminate.o)
 .ARM.exidx.text._ZSt9terminatev
                0x801e1180        0x8 /home/leon/riotboard/arm-2012.09/bin/../arm-none-eabi/lib//libstdc++.a(eh_terminate.o)
 .ARM.exidx.text._ZN10__cxxabiv112__unexpectedEPFvvE
                0x801e1188        0x8 /home/leon/riotboard/arm-2012.09/bin/../arm-none-eabi/lib//libstdc++.a(eh_terminate.o)
 .ARM.exidx.text._ZSt10unexpectedv
                0x801e1190        0x8 /home/leon/riotboard/arm-2012.09/bin/../arm-none-eabi/lib//libstdc++.a(eh_terminate.o)
 .ARM.exidx.text._ZSt13set_terminatePFvvE
                0x801e1198        0x8 /home/leon/riotboard/arm-2012.09/bin/../arm-none-eabi/lib//libstdc++.a(eh_terminate.o)
 .ARM.exidx.text._ZSt14set_unexpectedPFvvE
                0x801e11a0        0x0 /home/leon/riotboard/arm-2012.09/bin/../arm-none-eabi/lib//libstdc++.a(eh_terminate.o)
                                  0x8 (size before relaxing)
 .ARM.exidx.text._ZN10__cxxabiv1L24__is_gxx_exception_classEPc
                0x801e11a0        0x0 /home/leon/riotboard/arm-2012.09/bin/../arm-none-eabi/lib//libstdc++.a(eh_call.o)
                                  0x8 (size before relaxing)
 .ARM.exidx.text.__cxa_call_terminate
                0x801e11a0        0x0 /home/leon/riotboard/arm-2012.09/bin/../arm-none-eabi/lib//libstdc++.a(eh_call.o)
                                  0x8 (size before relaxing)
 .ARM.exidx.text.__cxa_call_unexpected
                0x801e11a0        0x8 /home/leon/riotboard/arm-2012.09/bin/../arm-none-eabi/lib//libstdc++.a(eh_call.o)
 .ARM.exidx.text._ZL23__gxx_exception_cleanup19_Unwind_Reason_CodeP21_Unwind_Control_Block
                0x801e11a8        0x8 /home/leon/riotboard/arm-2012.09/bin/../arm-none-eabi/lib//libstdc++.a(eh_throw.o)
 .ARM.exidx.text.__cxa_throw
                0x801e11b0        0x8 /home/leon/riotboard/arm-2012.09/bin/../arm-none-eabi/lib//libstdc++.a(eh_throw.o)
 .ARM.exidx.text.__cxa_rethrow
                0x801e11b8       0x10 /home/leon/riotboard/arm-2012.09/bin/../arm-none-eabi/lib//libstdc++.a(eh_throw.o)
                                  0x8 (size before relaxing)
 .ARM.exidx.text.__cxa_type_match
                0x801e11c8        0x8 /home/leon/riotboard/arm-2012.09/bin/../arm-none-eabi/lib//libstdc++.a(eh_arm.o)
 .ARM.exidx.text.__cxa_begin_cleanup
                0x801e11d0        0x8 /home/leon/riotboard/arm-2012.09/bin/../arm-none-eabi/lib//libstdc++.a(eh_arm.o)
 .ARM.exidx.text.__gnu_end_cleanup
                0x801e11d8        0x0 /home/leon/riotboard/arm-2012.09/bin/../arm-none-eabi/lib//libstdc++.a(eh_arm.o)
                                  0x8 (size before relaxing)
 .ARM.exidx.text._ZNSt9exceptionD2Ev
                0x801e11d8        0x0 /home/leon/riotboard/arm-2012.09/bin/../arm-none-eabi/lib//libstdc++.a(eh_exception.o)
                                  0x8 (size before relaxing)
 .ARM.exidx.text._ZNSt13bad_exceptionD2Ev
                0x801e11d8        0x0 /home/leon/riotboard/arm-2012.09/bin/../arm-none-eabi/lib//libstdc++.a(eh_exception.o)
                                  0x8 (size before relaxing)
 .ARM.exidx.text._ZN10__cxxabiv115__forced_unwindD2Ev
                0x801e11d8        0x0 /home/leon/riotboard/arm-2012.09/bin/../arm-none-eabi/lib//libstdc++.a(eh_exception.o)
                                  0x8 (size before relaxing)
 .ARM.exidx.text._ZN10__cxxabiv119__foreign_exceptionD2Ev
                0x801e11d8        0x0 /home/leon/riotboard/arm-2012.09/bin/../arm-none-eabi/lib//libstdc++.a(eh_exception.o)
                                  0x8 (size before relaxing)
 .ARM.exidx.text._ZNKSt9exception4whatEv
                0x801e11d8        0x0 /home/leon/riotboard/arm-2012.09/bin/../arm-none-eabi/lib//libstdc++.a(eh_exception.o)
                                  0x8 (size before relaxing)
 .ARM.exidx.text._ZNKSt13bad_exception4whatEv
                0x801e11d8        0x0 /home/leon/riotboard/arm-2012.09/bin/../arm-none-eabi/lib//libstdc++.a(eh_exception.o)
                                  0x8 (size before relaxing)
 .ARM.exidx.text._ZN10__cxxabiv119__foreign_exceptionD0Ev
                0x801e11d8        0x0 /home/leon/riotboard/arm-2012.09/bin/../arm-none-eabi/lib//libstdc++.a(eh_exception.o)
                                  0x8 (size before relaxing)
 .ARM.exidx.text._ZN10__cxxabiv115__forced_unwindD0Ev
                0x801e11d8        0x0 /home/leon/riotboard/arm-2012.09/bin/../arm-none-eabi/lib//libstdc++.a(eh_exception.o)
                                  0x8 (size before relaxing)
 .ARM.exidx.text._ZNSt9exceptionD0Ev
                0x801e11d8        0x0 /home/leon/riotboard/arm-2012.09/bin/../arm-none-eabi/lib//libstdc++.a(eh_exception.o)
                                  0x8 (size before relaxing)
 .ARM.exidx.text._ZNSt13bad_exceptionD0Ev
                0x801e11d8        0x0 /home/leon/riotboard/arm-2012.09/bin/../arm-none-eabi/lib//libstdc++.a(eh_exception.o)
                                  0x8 (size before relaxing)
 .ARM.exidx.text.__cxa_allocate_exception
                0x801e11d8        0x0 /home/leon/riotboard/arm-2012.09/bin/../arm-none-eabi/lib//libstdc++.a(eh_alloc.o)
                                  0x8 (size before relaxing)
 .ARM.exidx.text.__cxa_free_exception
                0x801e11d8        0x0 /home/leon/riotboard/arm-2012.09/bin/../arm-none-eabi/lib//libstdc++.a(eh_alloc.o)
                                  0x8 (size before relaxing)
 .ARM.exidx.text.__cxa_allocate_dependent_exception
                0x801e11d8        0x0 /home/leon/riotboard/arm-2012.09/bin/../arm-none-eabi/lib//libstdc++.a(eh_alloc.o)
                                  0x8 (size before relaxing)
 .ARM.exidx.text.__cxa_free_dependent_exception
                0x801e11d8        0x0 /home/leon/riotboard/arm-2012.09/bin/../arm-none-eabi/lib//libstdc++.a(eh_alloc.o)
                                  0x8 (size before relaxing)
 .ARM.exidx.text.__cxa_get_globals_fast
                0x801e11d8        0x0 /home/leon/riotboard/arm-2012.09/bin/../arm-none-eabi/lib//libstdc++.a(eh_globals.o)
                                  0x8 (size before relaxing)
 .ARM.exidx.text.__cxa_get_globals
                0x801e11d8        0x0 /home/leon/riotboard/arm-2012.09/bin/../arm-none-eabi/lib//libstdc++.a(eh_globals.o)
                                  0x8 (size before relaxing)
 .ARM.exidx.text._ZNK10__cxxabiv120__si_class_type_info12__do_dyncastEiNS_17__class_type_info10__sub_kindEPKS1_PKvS4_S6_RNS1_16__dyncast_resultE
                0x801e11d8        0x8 /home/leon/riotboard/arm-2012.09/bin/../arm-none-eabi/lib//libstdc++.a(si_class_type_info.o)
 .ARM.exidx.text._ZN10__cxxabiv120__si_class_type_infoD2Ev
                0x801e11e0        0x8 /home/leon/riotboard/arm-2012.09/bin/../arm-none-eabi/lib//libstdc++.a(si_class_type_info.o)
 .ARM.exidx.text._ZN10__cxxabiv120__si_class_type_infoD0Ev
                0x801e11e8        0x0 /home/leon/riotboard/arm-2012.09/bin/../arm-none-eabi/lib//libstdc++.a(si_class_type_info.o)
                                  0x8 (size before relaxing)
 .ARM.exidx.text._ZNK10__cxxabiv120__si_class_type_info11__do_upcastEPKNS_17__class_type_infoEPKvRNS1_15__upcast_resultE
                0x801e11e8        0x8 /home/leon/riotboard/arm-2012.09/bin/../arm-none-eabi/lib//libstdc++.a(si_class_type_info.o)
 .ARM.exidx.text._ZNK10__cxxabiv120__si_class_type_info20__do_find_public_srcEiPKvPKNS_17__class_type_infoES2_
                0x801e11f0        0x8 /home/leon/riotboard/arm-2012.09/bin/../arm-none-eabi/lib//libstdc++.a(si_class_type_info.o)
 .ARM.exidx.text._ZL12read_sleb128PKhPl
                0x801e11f8        0x8 /home/leon/riotboard/arm-2012.09/bin/../arm-none-eabi/lib//libstdc++.a(eh_personality.o)
 .ARM.exidx.text._ZL28read_encoded_value_with_basehjPKhPj
                0x801e1200        0x8 /home/leon/riotboard/arm-2012.09/bin/../arm-none-eabi/lib//libstdc++.a(eh_personality.o)
 .ARM.exidx.text._ZL21base_of_encoded_valuehP15_Unwind_Context
                0x801e1208        0x8 /home/leon/riotboard/arm-2012.09/bin/../arm-none-eabi/lib//libstdc++.a(eh_personality.o)
 .ARM.exidx.text._ZL17parse_lsda_headerP15_Unwind_ContextPKhP16lsda_header_info
                0x801e1210        0x8 /home/leon/riotboard/arm-2012.09/bin/../arm-none-eabi/lib//libstdc++.a(eh_personality.o)
 .ARM.exidx.text.__gxx_personality_v0
                0x801e1218        0x8 /home/leon/riotboard/arm-2012.09/bin/../arm-none-eabi/lib//libstdc++.a(eh_personality.o)
 .ARM.exidx.text.__cxa_get_exception_ptr
                0x801e1220        0x8 /home/leon/riotboard/arm-2012.09/bin/../arm-none-eabi/lib//libstdc++.a(eh_catch.o)
 .ARM.exidx.text.__cxa_begin_catch
                0x801e1228        0x8 /home/leon/riotboard/arm-2012.09/bin/../arm-none-eabi/lib//libstdc++.a(eh_catch.o)
 .ARM.exidx.text.__cxa_end_catch
                0x801e1230        0x8 /home/leon/riotboard/arm-2012.09/bin/../arm-none-eabi/lib//libstdc++.a(eh_catch.o)
 .ARM.exidx.text._ZSt18uncaught_exceptionv
                0x801e1238        0x8 /home/leon/riotboard/arm-2012.09/bin/../arm-none-eabi/lib//libstdc++.a(eh_catch.o)
 .ARM.exidx.text._ZNK10__cxxabiv117__class_type_info11__do_upcastEPKS0_PPv
                0x801e1240        0x8 /home/leon/riotboard/arm-2012.09/bin/../arm-none-eabi/lib//libstdc++.a(class_type_info.o)
 .ARM.exidx.text._ZNK10__cxxabiv117__class_type_info20__do_find_public_srcEiPKvPKS0_S2_
                0x801e1248        0x8 /home/leon/riotboard/arm-2012.09/bin/../arm-none-eabi/lib//libstdc++.a(class_type_info.o)
 .ARM.exidx.text._ZNK10__cxxabiv117__class_type_info11__do_upcastEPKS0_PKvRNS0_15__upcast_resultE
                0x801e1250        0x8 /home/leon/riotboard/arm-2012.09/bin/../arm-none-eabi/lib//libstdc++.a(class_type_info.o)
 .ARM.exidx.text._ZN10__cxxabiv117__class_type_infoD2Ev
                0x801e1258        0x8 /home/leon/riotboard/arm-2012.09/bin/../arm-none-eabi/lib//libstdc++.a(class_type_info.o)
 .ARM.exidx.text._ZN10__cxxabiv117__class_type_infoD0Ev
                0x801e1260        0x0 /home/leon/riotboard/arm-2012.09/bin/../arm-none-eabi/lib//libstdc++.a(class_type_info.o)
                                  0x8 (size before relaxing)
 .ARM.exidx.text._ZNK10__cxxabiv117__class_type_info12__do_dyncastEiNS0_10__sub_kindEPKS0_PKvS3_S5_RNS0_16__dyncast_resultE
                0x801e1260        0x8 /home/leon/riotboard/arm-2012.09/bin/../arm-none-eabi/lib//libstdc++.a(class_type_info.o)
 .ARM.exidx.text._ZNK10__cxxabiv117__class_type_info10__do_catchEPKSt9type_infoPPvj
                0x801e1268        0x8 /home/leon/riotboard/arm-2012.09/bin/../arm-none-eabi/lib//libstdc++.a(class_type_info.o)
 .ARM.exidx.text._ZN9__gnu_cxx27__verbose_terminate_handlerEv
                0x801e1270       0x10 /home/leon/riotboard/arm-2012.09/bin/../arm-none-eabi/lib//libstdc++.a(vterminate.o)
                                  0x8 (size before relaxing)
 .ARM.exidx.text.__cxa_current_exception_type
                0x801e1280        0x0 /home/leon/riotboard/arm-2012.09/bin/../arm-none-eabi/lib//libstdc++.a(eh_type.o)
                                  0x8 (size before relaxing)
 .ARM.exidx.text._ZdlPv
                0x801e1280        0x0 /home/leon/riotboard/arm-2012.09/bin/../arm-none-eabi/lib//libstdc++.a(del_op.o)
                                  0x8 (size before relaxing)
 .ARM.exidx.text._ZNSt9type_infoD2Ev
                0x801e1280        0x0 /home/leon/riotboard/arm-2012.09/bin/../arm-none-eabi/lib//libstdc++.a(tinfo.o)
                                  0x8 (size before relaxing)
 .ARM.exidx.text._ZNKSt9type_info14__is_pointer_pEv
                0x801e1280        0x0 /home/leon/riotboard/arm-2012.09/bin/../arm-none-eabi/lib//libstdc++.a(tinfo.o)
                                  0x8 (size before relaxing)
 .ARM.exidx.text._ZNKSt9type_info15__is_function_pEv
                0x801e1280        0x0 /home/leon/riotboard/arm-2012.09/bin/../arm-none-eabi/lib//libstdc++.a(tinfo.o)
                                  0x8 (size before relaxing)
 .ARM.exidx.text._ZNKSt9type_info11__do_upcastEPKN10__cxxabiv117__class_type_infoEPPv
                0x801e1280        0x0 /home/leon/riotboard/arm-2012.09/bin/../arm-none-eabi/lib//libstdc++.a(tinfo.o)
                                  0x8 (size before relaxing)
 .ARM.exidx.text._ZNSt9type_infoD0Ev
                0x801e1280        0x0 /home/leon/riotboard/arm-2012.09/bin/../arm-none-eabi/lib//libstdc++.a(tinfo.o)
                                  0x8 (size before relaxing)
 .ARM.exidx.text._ZNKSt9type_infoeqERKS_
                0x801e1280        0x0 /home/leon/riotboard/arm-2012.09/bin/../arm-none-eabi/lib//libstdc++.a(tinfo.o)
                                  0x8 (size before relaxing)
 .ARM.exidx.text._ZNKSt9type_info10__do_catchEPKS_PPvj
                0x801e1280        0x0 /home/leon/riotboard/arm-2012.09/bin/../arm-none-eabi/lib//libstdc++.a(tinfo.o)
                                  0x8 (size before relaxing)
 .ARM.exidx     0x801e1280       0x88 /home/leon/riotboard/arm-2012.09/bin/../lib/gcc/arm-none-eabi/4.7.2//libgcc.a(unwind-arm.o)
                                 0xd8 (size before relaxing)
 .ARM.exidx     0x801e1308       0x38 /home/leon/riotboard/arm-2012.09/bin/../lib/gcc/arm-none-eabi/4.7.2//libgcc.a(pr-support.o)
                                 0x48 (size before relaxing)
                0x801e1340                PROVIDE (__exidx_end, .)

.rel.dyn        0x801e1340        0x0
 .rel.iplt      0x00000000        0x0 /home/leon/riotboard/arm-2012.09/bin/../lib/gcc/arm-none-eabi/4.7.2//crtbegin.o

.data           0x801e1340   0x123ae4
 *(.data .data.* .gnu.linkonce.d.*)
 .data          0x801e1340        0x4 /home/leon/riotboard/arm-2012.09/bin/../lib/gcc/arm-none-eabi/4.7.2//crtbegin.o
                0x801e1340                __dso_handle
 .data          0x801e1344        0x0 /home/leon/riotboard/arm-2012.09/bin/../lib/gcc/arm-none-eabi/4.7.2//crti.o
 .data          0x801e1344        0x0 /home/leon/riotboard/arm-2012.09/bin/../lib/gcc/arm-none-eabi/4.7.2//crtend.o
 .data          0x801e1344        0x0 /home/leon/riotboard/arm-2012.09/bin/../lib/gcc/arm-none-eabi/4.7.2//crtn.o
 .data          0x801e1344        0x0 /home/leon/git/swp-report/iMX6_Platform_SDK/output/mx6sl/sdk_unit_test/evk_rev_a/obj/apps/common/ivt.o
 .data          0x801e1344        0x0 /home/leon/git/swp-report/iMX6_Platform_SDK/output/mx6sl/sdk_unit_test/evk_rev_a/obj/apps/common/platform_init.o
 .data          0x801e1344        0x0 /home/leon/git/swp-report/iMX6_Platform_SDK/output/mx6sl/sdk_unit_test/evk_rev_a/obj/apps/common/print_clock_info.o
 .data          0x801e1344        0x0 /home/leon/git/swp-report/iMX6_Platform_SDK/output/mx6sl/sdk_unit_test/evk_rev_a/obj/apps/common/print_version.o
 .data          0x801e1344        0x0 /home/leon/git/swp-report/iMX6_Platform_SDK/output/mx6sl/sdk_unit_test/evk_rev_a/obj/apps/sdk_unit_test/src/all_test.o
 .data          0x801e1344        0x0 /home/leon/git/swp-report/iMX6_Platform_SDK/output/mx6sl/sdk_unit_test/evk_rev_a/obj/apps/sdk_unit_test/src/unit_test_main.o
 .data          0x801e1344        0x0 /home/leon/git/swp-report/iMX6_Platform_SDK/output/mx6sl/lib/libsdk.a(ccm_pll.o)
 .data          0x801e1344        0x0 /home/leon/git/swp-report/iMX6_Platform_SDK/output/mx6sl/lib/libsdk.a(cortexA9.o)
 .data          0x801e1344        0x0 /home/leon/git/swp-report/iMX6_Platform_SDK/output/mx6sl/lib/libsdk.a(gic.o)
 .data          0x801e1344        0x0 /home/leon/git/swp-report/iMX6_Platform_SDK/output/mx6sl/lib/libsdk.a(mmu.o)
 .data          0x801e1344        0x0 /home/leon/git/swp-report/iMX6_Platform_SDK/output/mx6sl/lib/libsdk.a(startup.o)
 .data          0x801e1344        0x0 /home/leon/git/swp-report/iMX6_Platform_SDK/output/mx6sl/lib/libsdk.a(vectors.o)
 .data          0x801e1344        0x4 /home/leon/git/swp-report/iMX6_Platform_SDK/output/mx6sl/lib/libsdk.a(menu.o)
 .data          0x801e1348        0x0 /home/leon/git/swp-report/iMX6_Platform_SDK/output/mx6sl/lib/libsdk.a(sdk_version.o)
 .data          0x801e1348        0x0 /home/leon/git/swp-report/iMX6_Platform_SDK/output/mx6sl/lib/libsdk.a(system_util.o)
 .data          0x801e1348        0x4 /home/leon/git/swp-report/iMX6_Platform_SDK/output/mx6sl/lib/libsdk.a(text_color.o)
                0x801e1348                is_color_supported
 .data          0x801e134c        0x0 /home/leon/git/swp-report/iMX6_Platform_SDK/output/mx6sl/lib/libsdk.a(board_id.o)
 .data          0x801e134c        0x0 /home/leon/git/swp-report/iMX6_Platform_SDK/output/mx6sl/lib/libsdk.a(timer.o)
 .data          0x801e134c        0x0 /home/leon/git/swp-report/iMX6_Platform_SDK/output/mx6sl/lib/libsdk.a(imx_uart.o)
 .data          0x801e134c        0x4 /home/leon/git/swp-report/iMX6_Platform_SDK/output/mx6sl/lib/libsdk.a(arm_abort.o)
 .data          0x801e1350        0x0 /home/leon/git/swp-report/iMX6_Platform_SDK/output/mx6sl/lib/libsdk.a(interrupt.o)
 .data          0x801e1350        0x0 /home/leon/git/swp-report/iMX6_Platform_SDK/output/mx6sl/lib/libsdk.a(epit.o)
 .data          0x801e1350        0x0 /home/leon/git/swp-report/iMX6_Platform_SDK/output/mx6sl/lib/libsdk.a(abort_handler.o)
 .data          0x801e1350        0x0 /home/leon/git/swp-report/iMX6_Platform_SDK/output/mx6sl/lib/libboard_evk_rev_a.a(board_io_expanders.o)
 .data          0x801e1350        0x0 /home/leon/git/swp-report/iMX6_Platform_SDK/output/mx6sl/lib/libboard_evk_rev_a.a(dcd.o)
 .data          0x801e1350        0x8 /home/leon/git/swp-report/iMX6_Platform_SDK/output/mx6sl/lib/libboard_evk_rev_a.a(hardware_modules.o)
                0x801e1350                g_debug_uart_port
                0x801e1354                g_system_timer_port
 .data          0x801e1358        0x0 /home/leon/git/swp-report/iMX6_Platform_SDK/output/mx6sl/lib/libboard_evk_rev_a.a(uart_iomux_config.o)
 .data          0x801e1358        0x0 /home/leon/git/swp-report/iMX6_Platform_SDK/output/mx6sl/lib/libboard_evk_rev_a.a(iomux_config.o)
 .data          0x801e1358        0x0 /home/leon/git/swp-report/iMX6_Platform_SDK/output/mx6sl/lib/libboard_evk_rev_a.a(kpp_iomux_config.o)
 .data          0x801e1358        0x0 /home/leon/git/swp-report/iMX6_Platform_SDK/output/mx6sl/lib/libboard_evk_rev_a.a(lcd_iomux_config.o)
 .data          0x801e1358        0x0 /home/leon/git/swp-report/iMX6_Platform_SDK/output/mx6sl/lib/libboard_evk_rev_a.a(mmdc_iomux_config.o)
 .data          0x801e1358        0x0 /home/leon/git/swp-report/iMX6_Platform_SDK/output/mx6sl/lib/libboard_evk_rev_a.a(pwm1_iomux_config.o)
 .data          0x801e1358        0x0 /home/leon/git/swp-report/iMX6_Platform_SDK/output/mx6sl/lib/libboard_evk_rev_a.a(sjc_iomux_config.o)
 .data          0x801e1358        0x0 /home/leon/git/swp-report/iMX6_Platform_SDK/output/mx6sl/lib/libboard_evk_rev_a.a(spdc_iomux_config.o)
 .data          0x801e1358        0x0 /home/leon/git/swp-report/iMX6_Platform_SDK/output/mx6sl/lib/libboard_evk_rev_a.a(uart1_iomux_config.o)
 .data          0x801e1358        0x0 /home/leon/git/swp-report/iMX6_Platform_SDK/output/mx6sl/lib/libboard_evk_rev_a.a(usb_iomux_config.o)
 .data          0x801e1358        0x0 /home/leon/git/swp-report/iMX6_Platform_SDK/output/mx6sl/lib/libboard_evk_rev_a.a(usdhc1_iomux_config.o)
 .data          0x801e1358        0x0 /home/leon/git/swp-report/iMX6_Platform_SDK/output/mx6sl/lib/libboard_evk_rev_a.a(usdhc2_iomux_config.o)
 .data          0x801e1358        0x0 /home/leon/git/swp-report/iMX6_Platform_SDK/output/mx6sl/lib/libboard_evk_rev_a.a(usdhc3_iomux_config.o)
 .data          0x801e1358        0x0 /home/leon/git/swp-report/iMX6_Platform_SDK/output/mx6sl/lib/libboard_evk_rev_a.a(wdog1_iomux_config.o)
 .data          0x801e1358        0x0 /home/leon/git/swp-report/iMX6_Platform_SDK/output/mx6sl/lib/libboard_evk_rev_a.a(audmux_iomux_config.o)
 .data          0x801e1358        0x0 /home/leon/git/swp-report/iMX6_Platform_SDK/output/mx6sl/lib/libboard_evk_rev_a.a(csi_iomux_config.o)
 .data          0x801e1358        0x0 /home/leon/git/swp-report/iMX6_Platform_SDK/output/mx6sl/lib/libboard_evk_rev_a.a(ecspi1_iomux_config.o)
 .data          0x801e1358        0x0 /home/leon/git/swp-report/iMX6_Platform_SDK/output/mx6sl/lib/libboard_evk_rev_a.a(ecspi2_iomux_config.o)
 .data          0x801e1358        0x0 /home/leon/git/swp-report/iMX6_Platform_SDK/output/mx6sl/lib/libboard_evk_rev_a.a(epdc_iomux_config.o)
 .data          0x801e1358        0x0 /home/leon/git/swp-report/iMX6_Platform_SDK/output/mx6sl/lib/libboard_evk_rev_a.a(fec_iomux_config.o)
 .data          0x801e1358        0x0 /home/leon/git/swp-report/iMX6_Platform_SDK/output/mx6sl/lib/libboard_evk_rev_a.a(gpio1_iomux_config.o)
 .data          0x801e1358        0x0 /home/leon/git/swp-report/iMX6_Platform_SDK/output/mx6sl/lib/libboard_evk_rev_a.a(gpio4_iomux_config.o)
 .data          0x801e1358        0x0 /home/leon/git/swp-report/iMX6_Platform_SDK/output/mx6sl/lib/libboard_evk_rev_a.a(i2c1_iomux_config.o)
 .data          0x801e1358        0x0 /home/leon/git/swp-report/iMX6_Platform_SDK/output/mx6sl/lib/libboard_evk_rev_a.a(i2c2_iomux_config.o)
 .data          0x801e1358        0x0 /home/leon/git/swp-report/iMX6_Platform_SDK/output/mx6sl/lib/libboard_evk_rev_a.a(i2c3_iomux_config.o)
 .data          0x801e1358        0x0 /home/leon/git/swp-report/iMX6_Platform_SDK/output/mx6sl/sdk_unit_test/evk_rev_a/libsdk_unit_test.a(cpu_wp_test.o)
 .data          0x801e1358       0x24 /home/leon/git/swp-report/iMX6_Platform_SDK/output/mx6sl/sdk_unit_test/evk_rev_a/libsdk_unit_test.a(audio_test.o)
                0x801e1358                pcm_para
                0x801e1364                pcm_music
 .data          0x801e137c        0x0 /home/leon/git/swp-report/iMX6_Platform_SDK/output/mx6sl/sdk_unit_test/evk_rev_a/libsdk_unit_test.a(ssi_playback.o)
 .data          0x801e137c        0x0 /home/leon/git/swp-report/iMX6_Platform_SDK/output/mx6sl/sdk_unit_test/evk_rev_a/libsdk_unit_test.a(wav_file.o)
 .data          0x801e137c        0x0 /home/leon/git/swp-report/iMX6_Platform_SDK/output/mx6sl/sdk_unit_test/evk_rev_a/libsdk_unit_test.a(gic_test.o)
 .data          0x801e137c        0x0 /home/leon/git/swp-report/iMX6_Platform_SDK/output/mx6sl/sdk_unit_test/evk_rev_a/libsdk_unit_test.a(ocotp_test.o)
 .data          0x801e137c        0x0 /home/leon/git/swp-report/iMX6_Platform_SDK/output/mx6sl/sdk_unit_test/evk_rev_a/libsdk_unit_test.a(i2c_test.o)
 .data          0x801e137c       0x18 /home/leon/git/swp-report/iMX6_Platform_SDK/output/mx6sl/sdk_unit_test/evk_rev_a/libsdk_unit_test.a(imx6_i2c_device.o)
 .data          0x801e1394        0x0 /home/leon/git/swp-report/iMX6_Platform_SDK/output/mx6sl/sdk_unit_test/evk_rev_a/libsdk_unit_test.a(snvs_rtc_test.o)
 .data          0x801e1394        0x0 /home/leon/git/swp-report/iMX6_Platform_SDK/output/mx6sl/sdk_unit_test/evk_rev_a/libsdk_unit_test.a(snvs_srtc_test.o)
 .data          0x801e1394        0x0 /home/leon/git/swp-report/iMX6_Platform_SDK/output/mx6sl/sdk_unit_test/evk_rev_a/libsdk_unit_test.a(tempmon_test.o)
 .data          0x801e1394       0x20 /home/leon/git/swp-report/iMX6_Platform_SDK/output/mx6sl/sdk_unit_test/evk_rev_a/libsdk_unit_test.a(sdma_test.o)
 .data          0x801e13b4        0x0 /home/leon/git/swp-report/iMX6_Platform_SDK/output/mx6sl/sdk_unit_test/evk_rev_a/libsdk_unit_test.a(spi_lpb.o)
 .data          0x801e13b4        0x8 /home/leon/git/swp-report/iMX6_Platform_SDK/output/mx6sl/sdk_unit_test/evk_rev_a/libsdk_unit_test.a(uart_loopback.o)
 .data          0x801e13bc        0x4 /home/leon/git/swp-report/iMX6_Platform_SDK/output/mx6sl/sdk_unit_test/evk_rev_a/libsdk_unit_test.a(epit_test.o)
 .data          0x801e13c0        0x0 /home/leon/git/swp-report/iMX6_Platform_SDK/output/mx6sl/sdk_unit_test/evk_rev_a/libsdk_unit_test.a(gpt_test.o)
 .data          0x801e13c0        0x0 /home/leon/git/swp-report/iMX6_Platform_SDK/output/mx6sl/sdk_unit_test/evk_rev_a/libsdk_unit_test.a(timer_test.o)
 .data          0x801e13c0        0x4 /home/leon/git/swp-report/iMX6_Platform_SDK/output/mx6sl/sdk_unit_test/evk_rev_a/libsdk_unit_test.a(uart_test.o)
 .data          0x801e13c4       0x68 /home/leon/git/swp-report/iMX6_Platform_SDK/output/mx6sl/sdk_unit_test/evk_rev_a/libsdk_unit_test.a(usdhc_test.o)
 .data          0x801e142c        0x8 /home/leon/git/swp-report/iMX6_Platform_SDK/output/mx6sl/sdk_unit_test/evk_rev_a/libsdk_unit_test.a(pwm_test.o)
 .data          0x801e1434        0x0 /home/leon/git/swp-report/iMX6_Platform_SDK/output/mx6sl/sdk_unit_test/evk_rev_a/libsdk_unit_test.a(watchdog_test.o)
 .data          0x801e1434        0xc /home/leon/git/swp-report/iMX6_Platform_SDK/output/mx6sl/sdk_unit_test/evk_rev_a/libsdk_unit_test.a(spi_test.o)
 .data          0x801e1440       0x24 /home/leon/git/swp-report/iMX6_Platform_SDK/output/mx6sl/sdk_unit_test/evk_rev_a/libsdk_unit_test.a(usb_test.o)
 .data          0x801e1464        0x0 /home/leon/git/swp-report/iMX6_Platform_SDK/output/mx6sl/sdk_unit_test/evk_rev_a/libsdk_unit_test.a(epdc_test.o)
 .data          0x801e1464        0x8 /home/leon/git/swp-report/iMX6_Platform_SDK/output/mx6sl/sdk_unit_test/evk_rev_a/libsdk_unit_test.a(lcdif_test.o)
 .data          0x801e146c        0x8 /home/leon/git/swp-report/iMX6_Platform_SDK/output/mx6sl/sdk_unit_test/evk_rev_a/libsdk_unit_test.a(camera_test.o)
 .data          0x801e1474        0x0 /home/leon/git/swp-report/iMX6_Platform_SDK/output/mx6sl/sdk_unit_test/evk_rev_a/libsdk_unit_test.a(csi_sensor_capture.o)
 .data          0x801e1474        0x8 /home/leon/git/swp-report/iMX6_Platform_SDK/output/mx6sl/sdk_unit_test/evk_rev_a/libsdk_unit_test.a(fec_test.o)
 .data          0x801e147c        0x0 /home/leon/git/swp-report/iMX6_Platform_SDK/output/mx6sl/sdk_unit_test/evk_rev_a/libsdk_unit_test.a(spdc_test.o)
 .data          0x801e147c       0x10 /home/leon/git/swp-report/iMX6_Platform_SDK/output/mx6sl/sdk_unit_test/evk_rev_a/libsdk_unit_test.a(at24cxx.o)
 .data          0x801e148c        0x0 /home/leon/git/swp-report/iMX6_Platform_SDK/output/mx6sl/sdk_unit_test/evk_rev_a/libsdk_unit_test.a(mem_2_mem.o)
 .data          0x801e148c        0x0 /home/leon/git/swp-report/iMX6_Platform_SDK/output/mx6sl/sdk_unit_test/evk_rev_a/libsdk_unit_test.a(pwm_output.o)
 .data          0x801e148c        0x0 /home/leon/git/swp-report/iMX6_Platform_SDK/output/mx6sl/sdk_unit_test/evk_rev_a/libsdk_unit_test.a(spi_nor_numonyx.o)
 .data          0x801e148c       0x10 /home/leon/git/swp-report/iMX6_Platform_SDK/output/mx6sl/sdk_unit_test/evk_rev_a/libsdk_unit_test.a(usb0_device_mouse_test.o)
                0x801e148c                qf_Descriptor
 .data          0x801e149c        0x0 /home/leon/git/swp-report/iMX6_Platform_SDK/output/mx6sl/sdk_unit_test/evk_rev_a/libsdk_unit_test.a(usb0_host_test.o)
 .data          0x801e149c       0x28 /home/leon/git/swp-report/iMX6_Platform_SDK/output/mx6sl/sdk_unit_test/evk_rev_a/libsdk_unit_test.a(usb0_host_testmodes_test.o)
 .data          0x801e14c4        0x0 /home/leon/git/swp-report/iMX6_Platform_SDK/output/mx6sl/sdk_unit_test/evk_rev_a/libsdk_unit_test.a(lcdif_display.o)
 .data          0x801e14c4        0x4 /home/leon/git/swp-report/iMX6_Platform_SDK/output/mx6sl/sdk_unit_test/evk_rev_a/libsdk_unit_test.a(auo_lut.o)
                0x801e14c4                auo_lut_size
 .data          0x801e14c8        0x0 /home/leon/riotboard/arm-2012.09/bin/../arm-none-eabi/lib//libm.a(lib_a-sf_cos.o)
 .data          0x801e14c8        0x0 /home/leon/riotboard/arm-2012.09/bin/../arm-none-eabi/lib//libm.a(lib_a-sf_sin.o)
 .data          0x801e14c8        0x0 /home/leon/riotboard/arm-2012.09/bin/../arm-none-eabi/lib//libm.a(lib_a-ef_rem_pio2.o)
 .data          0x801e14c8        0x0 /home/leon/riotboard/arm-2012.09/bin/../arm-none-eabi/lib//libm.a(lib_a-kf_cos.o)
 .data          0x801e14c8        0x0 /home/leon/riotboard/arm-2012.09/bin/../arm-none-eabi/lib//libm.a(lib_a-kf_rem_pio2.o)
 .data          0x801e14c8        0x0 /home/leon/riotboard/arm-2012.09/bin/../arm-none-eabi/lib//libm.a(lib_a-kf_sin.o)
 .data          0x801e14c8        0x0 /home/leon/riotboard/arm-2012.09/bin/../arm-none-eabi/lib//libm.a(lib_a-sf_fabs.o)
 .data          0x801e14c8        0x0 /home/leon/riotboard/arm-2012.09/bin/../arm-none-eabi/lib//libm.a(lib_a-sf_floor.o)
 .data          0x801e14c8        0x0 /home/leon/riotboard/arm-2012.09/bin/../arm-none-eabi/lib//libm.a(lib_a-sf_scalbn.o)
 .data          0x801e14c8        0x0 /home/leon/riotboard/arm-2012.09/bin/../arm-none-eabi/lib//libm.a(lib_a-sf_copysign.o)
 .data          0x801e14c8        0x0 /home/leon/riotboard/arm-2012.09/bin/../arm-none-eabi/lib//libc.a(lib_a-assert.o)
 .data          0x801e14c8        0x0 /home/leon/riotboard/arm-2012.09/bin/../arm-none-eabi/lib//libc.a(lib_a-bzero.o)
 .data          0x801e14c8        0x0 /home/leon/riotboard/arm-2012.09/bin/../arm-none-eabi/lib//libc.a(lib_a-fiprintf.o)
 .data          0x801e14c8        0x0 /home/leon/riotboard/arm-2012.09/bin/../arm-none-eabi/lib//libc.a(lib_a-fputc.o)
 .data          0x801e14c8      0x430 /home/leon/riotboard/arm-2012.09/bin/../arm-none-eabi/lib//libc.a(lib_a-impure.o)
                0x801e14c8                _impure_ptr
 .data          0x801e18f8        0x0 /home/leon/riotboard/arm-2012.09/bin/../arm-none-eabi/lib//libc.a(lib_a-init.o)
 .data          0x801e18f8        0x0 /home/leon/riotboard/arm-2012.09/bin/../arm-none-eabi/lib//libc.a(lib_a-malloc.o)
 .data          0x801e18f8      0x410 /home/leon/riotboard/arm-2012.09/bin/../arm-none-eabi/lib//libc.a(lib_a-mallocr.o)
                0x801e18f8                __malloc_av_
                0x801e1d00                __malloc_sbrk_base
                0x801e1d04                __malloc_trim_threshold
 .data          0x801e1d08        0x0 /home/leon/riotboard/arm-2012.09/bin/../arm-none-eabi/lib//libc.a(lib_a-memcpy.o)
 .data          0x801e1d08        0x0 /home/leon/riotboard/arm-2012.09/bin/../arm-none-eabi/lib//libc.a(lib_a-memset.o)
 .data          0x801e1d08        0x0 /home/leon/riotboard/arm-2012.09/bin/../arm-none-eabi/lib//libc.a(lib_a-mlock.o)
 .data          0x801e1d08        0x0 /home/leon/riotboard/arm-2012.09/bin/../arm-none-eabi/lib//libc.a(lib_a-printf.o)
 .data          0x801e1d08        0x0 /home/leon/riotboard/arm-2012.09/bin/../arm-none-eabi/lib//libc.a(lib_a-putc.o)
 .data          0x801e1d08        0x0 /home/leon/riotboard/arm-2012.09/bin/../arm-none-eabi/lib//libc.a(lib_a-realloc.o)
 .data          0x801e1d08        0x0 /home/leon/riotboard/arm-2012.09/bin/../arm-none-eabi/lib//libc.a(lib_a-reallocr.o)
 .data          0x801e1d08        0x0 /home/leon/riotboard/arm-2012.09/bin/../arm-none-eabi/lib//libc.a(lib_a-rget.o)
 .data          0x801e1d08        0x0 /home/leon/riotboard/arm-2012.09/bin/../arm-none-eabi/lib//libc.a(lib_a-sbrkr.o)
 .data          0x801e1d08        0x0 /home/leon/riotboard/arm-2012.09/bin/../arm-none-eabi/lib//libc.a(lib_a-sprintf.o)
 .data          0x801e1d08        0x0 /home/leon/riotboard/arm-2012.09/bin/../arm-none-eabi/lib//libc.a(lib_a-strlen.o)
 .data          0x801e1d08        0x0 /home/leon/riotboard/arm-2012.09/bin/../arm-none-eabi/lib//libc.a(lib_a-strncasecmp.o)
 .data          0x801e1d08        0x0 /home/leon/riotboard/arm-2012.09/bin/../arm-none-eabi/lib//libc.a(lib_a-svfprintf.o)
 .data          0x801e1d08        0x0 /home/leon/riotboard/arm-2012.09/bin/../arm-none-eabi/lib//libc.a(lib_a-vfiprintf.o)
 .data          0x801e1d08        0x0 /home/leon/riotboard/arm-2012.09/bin/../arm-none-eabi/lib//libc.a(lib_a-vfprintf.o)
 .data          0x801e1d08        0x0 /home/leon/riotboard/arm-2012.09/bin/../arm-none-eabi/lib//libc.a(lib_a-vprintf.o)
 .data          0x801e1d08        0x0 /home/leon/riotboard/arm-2012.09/bin/../arm-none-eabi/lib//libc.a(lib_a-wbuf.o)
 .data          0x801e1d08        0x0 /home/leon/riotboard/arm-2012.09/bin/../arm-none-eabi/lib//libc.a(lib_a-wsetup.o)
 .data          0x801e1d08        0x0 /home/leon/riotboard/arm-2012.09/bin/../arm-none-eabi/lib//libc.a(lib_a-abort.o)
 .data          0x801e1d08        0x4 /home/leon/riotboard/arm-2012.09/bin/../arm-none-eabi/lib//libc.a(lib_a-ctype_.o)
                0x801e1d08                __ctype_ptr__
 .data          0x801e1d0c        0x0 /home/leon/riotboard/arm-2012.09/bin/../arm-none-eabi/lib//libc.a(lib_a-dtoa.o)
 .data          0x801e1d0c        0x0 /home/leon/riotboard/arm-2012.09/bin/../arm-none-eabi/lib//libc.a(lib_a-fflush.o)
 .data          0x801e1d0c        0x0 /home/leon/riotboard/arm-2012.09/bin/../arm-none-eabi/lib//libc.a(lib_a-findfp.o)
 .data          0x801e1d0c        0x0 /home/leon/riotboard/arm-2012.09/bin/../arm-none-eabi/lib//libc.a(lib_a-fputwc.o)
 .data          0x801e1d0c        0x0 /home/leon/riotboard/arm-2012.09/bin/../arm-none-eabi/lib//libc.a(lib_a-freer.o)
 .data          0x801e1d0c        0x0 /home/leon/riotboard/arm-2012.09/bin/../arm-none-eabi/lib//libc.a(lib_a-fvwrite.o)
 .data          0x801e1d0c        0x0 /home/leon/riotboard/arm-2012.09/bin/../arm-none-eabi/lib//libc.a(lib_a-fwalk.o)
 .data          0x801e1d0c       0x7c /home/leon/riotboard/arm-2012.09/bin/../arm-none-eabi/lib//libc.a(lib_a-locale.o)
                0x801e1d2c                __mb_cur_max
 .data          0x801e1d88        0x0 /home/leon/riotboard/arm-2012.09/bin/../arm-none-eabi/lib//libc.a(lib_a-makebuf.o)
 .data          0x801e1d88        0x0 /home/leon/riotboard/arm-2012.09/bin/../arm-none-eabi/lib//libc.a(lib_a-memchr.o)
 .data          0x801e1d88        0x0 /home/leon/riotboard/arm-2012.09/bin/../arm-none-eabi/lib//libc.a(lib_a-memmove.o)
 .data          0x801e1d88        0x0 /home/leon/riotboard/arm-2012.09/bin/../arm-none-eabi/lib//libc.a(lib_a-mprec.o)
 .data          0x801e1d88        0x0 /home/leon/riotboard/arm-2012.09/bin/../arm-none-eabi/lib//libc.a(lib_a-reent.o)
 .data          0x801e1d88        0x0 /home/leon/riotboard/arm-2012.09/bin/../arm-none-eabi/lib//libc.a(lib_a-refill.o)
 .data          0x801e1d88        0x0 /home/leon/riotboard/arm-2012.09/bin/../arm-none-eabi/lib//libc.a(lib_a-s_fpclassify.o)
 .data          0x801e1d88        0x0 /home/leon/riotboard/arm-2012.09/bin/../arm-none-eabi/lib//libc.a(lib_a-signal.o)
 .data          0x801e1d88        0x0 /home/leon/riotboard/arm-2012.09/bin/../arm-none-eabi/lib//libc.a(lib_a-signalr.o)
 .data          0x801e1d88        0x0 /home/leon/riotboard/arm-2012.09/bin/../arm-none-eabi/lib//libc.a(lib_a-stdio.o)
 .data          0x801e1d88        0x0 /home/leon/riotboard/arm-2012.09/bin/../arm-none-eabi/lib//libc.a(lib_a-strcmp.o)
 .data          0x801e1d88        0x0 /home/leon/riotboard/arm-2012.09/bin/../arm-none-eabi/lib//libc.a(lib_a-svfiprintf.o)
 .data          0x801e1d88        0x0 /home/leon/riotboard/arm-2012.09/bin/../arm-none-eabi/lib//libc.a(lib_a-wcrtomb.o)
 .data          0x801e1d88        0x4 /home/leon/riotboard/arm-2012.09/bin/../arm-none-eabi/lib//libc.a(lib_a-wctomb_r.o)
                0x801e1d88                __wctomb
 .data          0x801e1d8c        0x0 /home/leon/riotboard/arm-2012.09/bin/../arm-none-eabi/lib//libc.a(lib_a-writer.o)
 .data          0x801e1d8c        0x0 /home/leon/riotboard/arm-2012.09/bin/../arm-none-eabi/lib//libc.a(lib_a-callocr.o)
 .data          0x801e1d8c        0x0 /home/leon/riotboard/arm-2012.09/bin/../arm-none-eabi/lib//libc.a(lib_a-closer.o)
 .data          0x801e1d8c        0x0 /home/leon/riotboard/arm-2012.09/bin/../arm-none-eabi/lib//libc.a(lib_a-fclose.o)
 .data          0x801e1d8c        0x0 /home/leon/riotboard/arm-2012.09/bin/../arm-none-eabi/lib//libc.a(lib_a-fstatr.o)
 .data          0x801e1d8c        0x0 /home/leon/riotboard/arm-2012.09/bin/../arm-none-eabi/lib//libc.a(lib_a-isattyr.o)
 .data          0x801e1d8c        0x0 /home/leon/riotboard/arm-2012.09/bin/../arm-none-eabi/lib//libc.a(lib_a-lseekr.o)
 .data          0x801e1d8c        0x0 /home/leon/riotboard/arm-2012.09/bin/../arm-none-eabi/lib//libc.a(lib_a-readr.o)
 .data          0x801e1d8c        0x0 /home/leon/riotboard/arm-2012.09/bin/../lib/gcc/arm-none-eabi/4.7.2//libgcc.a(_udivsi3.o)
 .data          0x801e1d8c        0x0 /home/leon/riotboard/arm-2012.09/bin/../lib/gcc/arm-none-eabi/4.7.2//libgcc.a(_dvmd_tls.o)
 .data          0x801e1d8c        0x0 /home/leon/riotboard/arm-2012.09/bin/../lib/gcc/arm-none-eabi/4.7.2//libgcc.a(_arm_addsubdf3.o)
 .data          0x801e1d8c        0x0 /home/leon/riotboard/arm-2012.09/bin/../lib/gcc/arm-none-eabi/4.7.2//libgcc.a(_arm_muldivdf3.o)
 .data          0x801e1d8c        0x0 /home/leon/riotboard/arm-2012.09/bin/../lib/gcc/arm-none-eabi/4.7.2//libgcc.a(_arm_cmpdf2.o)
 .data          0x801e1d8c        0x0 /home/leon/riotboard/arm-2012.09/bin/../lib/gcc/arm-none-eabi/4.7.2//libgcc.a(_arm_fixdfsi.o)
 .data          0x801e1d8c        0x0 /home/leon/riotboard/arm-2012.09/bin/../lib/gcc/arm-none-eabi/4.7.2//libgcc.a(_arm_addsubsf3.o)
 .data          0x801e1d8c        0x0 /home/leon/riotboard/arm-2012.09/bin/../lib/gcc/arm-none-eabi/4.7.2//libgcc.a(_arm_muldivsf3.o)
 .data          0x801e1d8c        0x0 /home/leon/riotboard/arm-2012.09/bin/../lib/gcc/arm-none-eabi/4.7.2//libgcc.a(_arm_cmpsf2.o)
 .data          0x801e1d8c        0x0 /home/leon/riotboard/arm-2012.09/bin/../lib/gcc/arm-none-eabi/4.7.2//libgcc.a(_arm_fixsfsi.o)
 .data          0x801e1d8c        0x0 /home/leon/riotboard/arm-2012.09/bin/../lib/gcc/arm-none-eabi/4.7.2//libgcc.a(_aeabi_uldivmod.o)
 .data          0x801e1d8c        0x0 /home/leon/riotboard/arm-2012.09/bin/../lib/gcc/arm-none-eabi/4.7.2//libgcc.a(bpabi.o)
 .data          0x801e1d8c        0x0 /home/leon/riotboard/arm-2012.09/bin/../lib/gcc/arm-none-eabi/4.7.2//libgcc.a(_divdi3.o)
 .data          0x801e1d8c        0x0 /home/leon/riotboard/arm-2012.09/bin/../lib/gcc/arm-none-eabi/4.7.2//libgcc.a(_udivdi3.o)
 .data          0x801e1d8c        0x0 /home/leon/riotboard/arm-2012.09/bin/../lib/gcc/arm-none-eabi/4.7.2//libgcc.a(_clzsi2.o)
 .data          0x801e1d8c        0x0 /home/leon/git/swp-report/iMX6_Platform_SDK/output/mx6sl/lib/libsdk.a(profile.o)
 .data          0x801e1d8c        0x0 /home/leon/git/swp-report/iMX6_Platform_SDK/output/mx6sl/lib/libsdk.a(armv7_cache.o)
 .data          0x801e1d8c        0x4 /home/leon/git/swp-report/iMX6_Platform_SDK/output/mx6sl/lib/libsdk.a(runtime_support.o)
                0x801e1d8c                environ
 .data          0x801e1d90        0x0 /home/leon/git/swp-report/iMX6_Platform_SDK/output/mx6sl/lib/libsdk.a(imx_audmux.o)
 .data          0x801e1d90       0x38 /home/leon/git/swp-report/iMX6_Platform_SDK/output/mx6sl/lib/libsdk.a(snd_card.o)
                0x801e1da8                snd_card_spdif
                0x801e1db8                snd_card_ssi_wm8962
 .data          0x801e1dc8       0x28 /home/leon/git/swp-report/iMX6_Platform_SDK/output/mx6sl/lib/libsdk.a(wm8962.o)
                0x801e1dc8                wm8962_ops
                0x801e1de0                wm8962
 .data          0x801e1df0        0x0 /home/leon/git/swp-report/iMX6_Platform_SDK/output/mx6sl/lib/libsdk.a(csi_drv.o)
 .data          0x801e1df0       0x30 /home/leon/git/swp-report/iMX6_Platform_SDK/output/mx6sl/lib/libsdk.a(smd_sensor.o)
                0x801e1df0                ov5642_strobe_on
 .data          0x801e1e20       0x40 /home/leon/git/swp-report/iMX6_Platform_SDK/output/mx6sl/lib/libsdk.a(cpu_workpoint.o)
 .data          0x801e1e60    0xf2cf0 /home/leon/git/swp-report/iMX6_Platform_SDK/output/mx6sl/lib/libsdk.a(mxc_epdc.o)
                0x801e1e60                wv_data
                0x802b3040                fsl_gray_600x230
 .data          0x802d4b50        0x0 /home/leon/git/swp-report/iMX6_Platform_SDK/output/mx6sl/lib/libsdk.a(fec_drv.o)
 .data          0x802d4b50        0x0 /home/leon/git/swp-report/iMX6_Platform_SDK/output/mx6sl/lib/libsdk.a(gpio.o)
 .data          0x802d4b50        0x0 /home/leon/git/swp-report/iMX6_Platform_SDK/output/mx6sl/lib/libsdk.a(imx6sl_gpio_map.o)
 .data          0x802d4b50        0x0 /home/leon/git/swp-report/iMX6_Platform_SDK/output/mx6sl/lib/libsdk.a(imx_i2c.o)
 .data          0x802d4b50        0x0 /home/leon/git/swp-report/iMX6_Platform_SDK/output/mx6sl/lib/libsdk.a(imx_i2c_slave.o)
 .data          0x802d4b50    0x11e1c /home/leon/git/swp-report/iMX6_Platform_SDK/output/mx6sl/lib/libsdk.a(lcdif_drv.o)
                0x802d4b50                gImage_fsl
 .data          0x802e696c        0x0 /home/leon/git/swp-report/iMX6_Platform_SDK/output/mx6sl/lib/libsdk.a(pxp_drv.o)
 .data          0x802e696c        0x0 /home/leon/git/swp-report/iMX6_Platform_SDK/output/mx6sl/lib/libsdk.a(ocotp.o)
 .data          0x802e696c        0x0 /home/leon/git/swp-report/iMX6_Platform_SDK/output/mx6sl/lib/libsdk.a(pmu_driver.o)
 .data          0x802e696c        0x0 /home/leon/git/swp-report/iMX6_Platform_SDK/output/mx6sl/lib/libsdk.a(pwm.o)
 .data          0x802e696c        0x0 /home/leon/git/swp-report/iMX6_Platform_SDK/output/mx6sl/lib/libsdk.a(rtc.o)
 .data          0x802e696c        0x0 /home/leon/git/swp-report/iMX6_Platform_SDK/output/mx6sl/lib/libsdk.a(srtc.o)
 .data          0x802e696c        0x0 /home/leon/git/swp-report/iMX6_Platform_SDK/output/mx6sl/lib/libsdk.a(sdma.o)
 .data          0x802e696c        0x0 /home/leon/git/swp-report/iMX6_Platform_SDK/output/mx6sl/lib/libsdk.a(sdma_script_info.o)
 .data          0x802e696c        0x0 /home/leon/git/swp-report/iMX6_Platform_SDK/output/mx6sl/lib/libsdk.a(snvs.o)
 .data          0x802e696c        0x0 /home/leon/git/swp-report/iMX6_Platform_SDK/output/mx6sl/lib/libsdk.a(mxc_spdc.o)
 .data          0x802e696c        0x0 /home/leon/git/swp-report/iMX6_Platform_SDK/output/mx6sl/lib/libsdk.a(ecspi.o)
 .data          0x802e696c        0x0 /home/leon/git/swp-report/iMX6_Platform_SDK/output/mx6sl/lib/libsdk.a(tempmon.o)
 .data          0x802e696c        0x0 /home/leon/git/swp-report/iMX6_Platform_SDK/output/mx6sl/lib/libsdk.a(gpt.o)
 .data          0x802e696c        0x0 /home/leon/git/swp-report/iMX6_Platform_SDK/output/mx6sl/lib/libsdk.a(usb_common.o)
 .data          0x802e696c        0x0 /home/leon/git/swp-report/iMX6_Platform_SDK/output/mx6sl/lib/libsdk.a(usbd_drv.o)
 .data          0x802e696c        0x0 /home/leon/git/swp-report/iMX6_Platform_SDK/output/mx6sl/lib/libsdk.a(usbh_drv.o)
 .data          0x802e696c       0x58 /home/leon/git/swp-report/iMX6_Platform_SDK/output/mx6sl/lib/libsdk.a(usdhc.o)
                0x802e696c                usdhc_device
                0x802e69bc                card_detect_test_en
                0x802e69c0                write_protect_test_en
 .data          0x802e69c4        0x0 /home/leon/git/swp-report/iMX6_Platform_SDK/output/mx6sl/lib/libsdk.a(usdhc_host.o)
 .data          0x802e69c4        0x4 /home/leon/git/swp-report/iMX6_Platform_SDK/output/mx6sl/lib/libsdk.a(usdhc_mmc.o)
 .data          0x802e69c8        0x0 /home/leon/git/swp-report/iMX6_Platform_SDK/output/mx6sl/lib/libsdk.a(usdhc_sd.o)
 .data          0x802e69c8       0x60 /home/leon/git/swp-report/iMX6_Platform_SDK/output/mx6sl/lib/libsdk.a(imx-ssi.o)
                0x802e69e0                imx_ssi_1
                0x802e69f8                imx_ssi_2
                0x802e6a10                imx_ssi_3
 .data          0x802e6a28       0x30 /home/leon/git/swp-report/iMX6_Platform_SDK/output/mx6sl/lib/libsdk.a(imx_spdif.o)
                0x802e6a40                imx_spdif
 .data          0x802e6a58    0x1e3c0 /home/leon/git/swp-report/iMX6_Platform_SDK/output/mx6sl/lib/libsdk.a(camera_profile.o)
                0x802e6a58                g_ov3640_sensor_detection
                0x802e6a78                g_ov5640_sensor_detection
                0x802e6a98                g_ov5642_sensor_detection
                0x802e6ab8                g_mt9p111_sensor_detection
                0x802e6ac8                g_ov3640_mode_vga_640_480_30fps
                0x802e7228                g_ov5640_mode_vga_640_480_30fps
                0x802e81a8                g_ov5642_mode_vga_640_480_30fps
                0x802ea0c8                g_ov5642_af_firmware
                0x80300d98                g_ov5642_af_trigger
                0x80300db8                g_ov5642_af_ready
                0x80300dc8                g_mt9p111_mode_vga_640_480_30fps
                0x80304508                g_mt9p111_af_firmware
                0x80304c48                g_mt9p111_af_trigger
                0x80304c78                g_mt9p111_af_ready
                0x80304c88                g_camera_modes
                0x80304ca8                g_camera_profiles
 .data          0x80304e18        0x0 /home/leon/git/swp-report/iMX6_Platform_SDK/output/mx6sl/lib/libsdk.a(mx6x_usb.o)
 .data          0x80304e18        0x0 /home/leon/git/swp-report/iMX6_Platform_SDK/output/mx6sl/lib/libboard_evk_rev_a.a(board_audio.o)
 .data          0x80304e18        0x1 /home/leon/git/swp-report/iMX6_Platform_SDK/output/mx6sl/lib/libboard_evk_rev_a.a(board_camera.o)
                0x80304e18                g_camera_i2c_port
 .data          0x80304e19        0x0 /home/leon/git/swp-report/iMX6_Platform_SDK/output/mx6sl/lib/libboard_evk_rev_a.a(board_display.o)
 .data          0x80304e19        0x0 /home/leon/git/swp-report/iMX6_Platform_SDK/output/mx6sl/lib/libboard_evk_rev_a.a(board_i2c.o)
 .data          0x80304e19        0x0 /home/leon/git/swp-report/iMX6_Platform_SDK/output/mx6sl/lib/libboard_evk_rev_a.a(board_usb.o)
 .data          0x80304e19        0x0 /home/leon/git/swp-report/iMX6_Platform_SDK/output/mx6sl/lib/libboard_evk_rev_a.a(board_usdhc.o)
 .data          0x80304e19        0x0 /home/leon/git/swp-report/iMX6_Platform_SDK/output/mx6sl/lib/libboard_evk_rev_a.a(ecspi_iomux_config.o)
 .data          0x80304e19        0x0 /home/leon/git/swp-report/iMX6_Platform_SDK/output/mx6sl/lib/libboard_evk_rev_a.a(i2c_iomux_config.o)
 .data          0x80304e19        0x0 /home/leon/git/swp-report/iMX6_Platform_SDK/output/mx6sl/lib/libboard_evk_rev_a.a(pwm_iomux_config.o)
 .data          0x80304e19        0x0 /home/leon/git/swp-report/iMX6_Platform_SDK/output/mx6sl/lib/libboard_evk_rev_a.a(usdhc_iomux_config.o)
 .data          0x80304e19        0x0 /home/leon/riotboard/arm-2012.09/bin/../arm-none-eabi/lib//libstdc++.a(pure.o)
 .data          0x80304e19        0x0 /home/leon/riotboard/arm-2012.09/bin/../arm-none-eabi/lib//libstdc++.a(eh_terminate.o)
 .data          0x80304e19        0x0 /home/leon/riotboard/arm-2012.09/bin/../arm-none-eabi/lib//libstdc++.a(eh_unex_handler.o)
 *fill*         0x80304e19        0x3 
 .data._ZN10__cxxabiv120__unexpected_handlerE
                0x80304e1c        0x4 /home/leon/riotboard/arm-2012.09/bin/../arm-none-eabi/lib//libstdc++.a(eh_unex_handler.o)
                0x80304e1c                __cxxabiv1::__unexpected_handler
 .data          0x80304e20        0x0 /home/leon/riotboard/arm-2012.09/bin/../arm-none-eabi/lib//libstdc++.a(eh_call.o)
 .data          0x80304e20        0x0 /home/leon/riotboard/arm-2012.09/bin/../arm-none-eabi/lib//libstdc++.a(eh_throw.o)
 .data          0x80304e20        0x0 /home/leon/riotboard/arm-2012.09/bin/../arm-none-eabi/lib//libstdc++.a(eh_arm.o)
 .data          0x80304e20        0x0 /home/leon/riotboard/arm-2012.09/bin/../arm-none-eabi/lib//libstdc++.a(eh_exception.o)
 .data          0x80304e20        0x0 /home/leon/riotboard/arm-2012.09/bin/../arm-none-eabi/lib//libstdc++.a(eh_alloc.o)
 .data          0x80304e20        0x0 /home/leon/riotboard/arm-2012.09/bin/../arm-none-eabi/lib//libstdc++.a(eh_globals.o)
 .data          0x80304e20        0x0 /home/leon/riotboard/arm-2012.09/bin/../arm-none-eabi/lib//libstdc++.a(si_class_type_info.o)
 .data          0x80304e20        0x0 /home/leon/riotboard/arm-2012.09/bin/../arm-none-eabi/lib//libstdc++.a(eh_personality.o)
 .data          0x80304e20        0x0 /home/leon/riotboard/arm-2012.09/bin/../arm-none-eabi/lib//libstdc++.a(eh_term_handler.o)
 .data._ZN10__cxxabiv119__terminate_handlerE
                0x80304e20        0x4 /home/leon/riotboard/arm-2012.09/bin/../arm-none-eabi/lib//libstdc++.a(eh_term_handler.o)
                0x80304e20                __cxxabiv1::__terminate_handler
 .data          0x80304e24        0x0 /home/leon/riotboard/arm-2012.09/bin/../arm-none-eabi/lib//libstdc++.a(eh_catch.o)
 .data          0x80304e24        0x0 /home/leon/riotboard/arm-2012.09/bin/../arm-none-eabi/lib//libstdc++.a(class_type_info.o)
 .data          0x80304e24        0x0 /home/leon/riotboard/arm-2012.09/bin/../arm-none-eabi/lib//libstdc++.a(vterminate.o)
 .data          0x80304e24        0x0 /home/leon/riotboard/arm-2012.09/bin/../arm-none-eabi/lib//libstdc++.a(cp-demangle.o)
 .data          0x80304e24        0x0 /home/leon/riotboard/arm-2012.09/bin/../arm-none-eabi/lib//libstdc++.a(eh_type.o)
 .data          0x80304e24        0x0 /home/leon/riotboard/arm-2012.09/bin/../arm-none-eabi/lib//libstdc++.a(del_op.o)
 .data          0x80304e24        0x0 /home/leon/riotboard/arm-2012.09/bin/../arm-none-eabi/lib//libstdc++.a(tinfo.o)
 .data          0x80304e24        0x0 /home/leon/riotboard/arm-2012.09/bin/../arm-none-eabi/lib//libc.a(lib_a-fputs.o)
 .data          0x80304e24        0x0 /home/leon/riotboard/arm-2012.09/bin/../arm-none-eabi/lib//libc.a(lib_a-fwrite.o)
 .data          0x80304e24        0x0 /home/leon/riotboard/arm-2012.09/bin/../arm-none-eabi/lib//libc.a(lib_a-memcmp.o)
 .data          0x80304e24        0x0 /home/leon/riotboard/arm-2012.09/bin/../arm-none-eabi/lib//libc.a(lib_a-strncmp.o)
 .data          0x80304e24        0x0 /home/leon/riotboard/arm-2012.09/bin/../arm-none-eabi/lib//libc.a(lib_a-syswrite.o)
 .data          0x80304e24        0x0 /home/leon/riotboard/arm-2012.09/bin/../lib/gcc/arm-none-eabi/4.7.2//libgcc.a(_divsi3.o)
 .data          0x80304e24        0x0 /home/leon/riotboard/arm-2012.09/bin/../lib/gcc/arm-none-eabi/4.7.2//libgcc.a(unwind-arm.o)
 .data          0x80304e24        0x0 /home/leon/riotboard/arm-2012.09/bin/../lib/gcc/arm-none-eabi/4.7.2//libgcc.a(libunwind.o)
 .data          0x80304e24        0x0 /home/leon/riotboard/arm-2012.09/bin/../lib/gcc/arm-none-eabi/4.7.2//libgcc.a(pr-support.o)
 .data          0x80304e24        0x0 /home/leon/git/swp-report/iMX6_Platform_SDK/output/mx6sl/lib/libsdk.a(pf0100.o)

.jcr            0x80304e24        0x4
 .jcr           0x80304e24        0x0 /home/leon/riotboard/arm-2012.09/bin/../lib/gcc/arm-none-eabi/4.7.2//crtbegin.o
 .jcr           0x80304e24        0x4 /home/leon/riotboard/arm-2012.09/bin/../lib/gcc/arm-none-eabi/4.7.2//crtend.o

.tm_clone_table
                0x80304e28        0x0
 .tm_clone_table
                0x80304e28        0x0 /home/leon/riotboard/arm-2012.09/bin/../lib/gcc/arm-none-eabi/4.7.2//crtbegin.o
 .tm_clone_table
                0x80304e28        0x0 /home/leon/riotboard/arm-2012.09/bin/../lib/gcc/arm-none-eabi/4.7.2//crtend.o

.igot.plt       0x80304e28        0x0
 .igot.plt      0x00000000        0x0 /home/leon/riotboard/arm-2012.09/bin/../lib/gcc/arm-none-eabi/4.7.2//crtbegin.o

.hab.data       0x80400000     0x2000
                0x80400000                __hab_data = .
                0x80402000                . = (. + 0x2000)
 *fill*         0x80400000     0x2000 
                0x80402000                . = ALIGN (0x20)
                0x80402000                __hab_data_end = .
                0x00402000                _image_size = (. - _start_image_add)

.bss            0x80402000    0x47e64
                0x80402000                __bss_start__ = .
 *(.shbss)
 *(.bss .bss.* .gnu.linkonce.b.*)
 .bss           0x80402000       0x1c /home/leon/riotboard/arm-2012.09/bin/../lib/gcc/arm-none-eabi/4.7.2//crtbegin.o
 .bss           0x8040201c        0x0 /home/leon/riotboard/arm-2012.09/bin/../lib/gcc/arm-none-eabi/4.7.2//crti.o
 .bss           0x8040201c        0x0 /home/leon/riotboard/arm-2012.09/bin/../lib/gcc/arm-none-eabi/4.7.2//crtend.o
 .bss           0x8040201c        0x0 /home/leon/riotboard/arm-2012.09/bin/../lib/gcc/arm-none-eabi/4.7.2//crtn.o
 .bss           0x8040201c        0x0 /home/leon/git/swp-report/iMX6_Platform_SDK/output/mx6sl/sdk_unit_test/evk_rev_a/obj/apps/common/ivt.o
 .bss           0x8040201c        0x0 /home/leon/git/swp-report/iMX6_Platform_SDK/output/mx6sl/sdk_unit_test/evk_rev_a/obj/apps/common/platform_init.o
 .bss           0x8040201c        0x0 /home/leon/git/swp-report/iMX6_Platform_SDK/output/mx6sl/sdk_unit_test/evk_rev_a/obj/apps/common/print_clock_info.o
 .bss           0x8040201c        0x0 /home/leon/git/swp-report/iMX6_Platform_SDK/output/mx6sl/sdk_unit_test/evk_rev_a/obj/apps/common/print_version.o
 .bss           0x8040201c        0x0 /home/leon/git/swp-report/iMX6_Platform_SDK/output/mx6sl/sdk_unit_test/evk_rev_a/obj/apps/sdk_unit_test/src/all_test.o
 .bss           0x8040201c        0x0 /home/leon/git/swp-report/iMX6_Platform_SDK/output/mx6sl/sdk_unit_test/evk_rev_a/obj/apps/sdk_unit_test/src/unit_test_main.o
 .bss           0x8040201c        0x0 /home/leon/git/swp-report/iMX6_Platform_SDK/output/mx6sl/lib/libsdk.a(ccm_pll.o)
 .bss           0x8040201c        0x0 /home/leon/git/swp-report/iMX6_Platform_SDK/output/mx6sl/lib/libsdk.a(cortexA9.o)
 .bss           0x8040201c        0x0 /home/leon/git/swp-report/iMX6_Platform_SDK/output/mx6sl/lib/libsdk.a(gic.o)
 .bss           0x8040201c        0x0 /home/leon/git/swp-report/iMX6_Platform_SDK/output/mx6sl/lib/libsdk.a(mmu.o)
 .bss           0x8040201c        0x0 /home/leon/git/swp-report/iMX6_Platform_SDK/output/mx6sl/lib/libsdk.a(startup.o)
 .bss           0x8040201c        0x0 /home/leon/git/swp-report/iMX6_Platform_SDK/output/mx6sl/lib/libsdk.a(vectors.o)
 .bss           0x8040201c       0x7c /home/leon/git/swp-report/iMX6_Platform_SDK/output/mx6sl/lib/libsdk.a(menu.o)
 .bss           0x80402098        0x0 /home/leon/git/swp-report/iMX6_Platform_SDK/output/mx6sl/lib/libsdk.a(sdk_version.o)
 .bss           0x80402098        0x0 /home/leon/git/swp-report/iMX6_Platform_SDK/output/mx6sl/lib/libsdk.a(system_util.o)
 .bss           0x80402098        0x0 /home/leon/git/swp-report/iMX6_Platform_SDK/output/mx6sl/lib/libsdk.a(text_color.o)
 .bss           0x80402098        0x0 /home/leon/git/swp-report/iMX6_Platform_SDK/output/mx6sl/lib/libsdk.a(board_id.o)
 .bss           0x80402098        0x4 /home/leon/git/swp-report/iMX6_Platform_SDK/output/mx6sl/lib/libsdk.a(timer.o)
                0x80402098                g_microsecondTimerMultiple
 .bss           0x8040209c        0x0 /home/leon/git/swp-report/iMX6_Platform_SDK/output/mx6sl/lib/libsdk.a(imx_uart.o)
 .bss           0x8040209c        0x0 /home/leon/git/swp-report/iMX6_Platform_SDK/output/mx6sl/lib/libsdk.a(arm_abort.o)
 .bss           0x8040209c      0x290 /home/leon/git/swp-report/iMX6_Platform_SDK/output/mx6sl/lib/libsdk.a(interrupt.o)
                0x8040209c                g_interrupt_handlers
                0x8040231c                g_vectNum
 .bss           0x8040232c        0x0 /home/leon/git/swp-report/iMX6_Platform_SDK/output/mx6sl/lib/libsdk.a(epit.o)
 .bss           0x8040232c        0x0 /home/leon/git/swp-report/iMX6_Platform_SDK/output/mx6sl/lib/libsdk.a(abort_handler.o)
 .bss           0x8040232c        0x0 /home/leon/git/swp-report/iMX6_Platform_SDK/output/mx6sl/lib/libboard_evk_rev_a.a(board_io_expanders.o)
 .bss           0x8040232c        0x0 /home/leon/git/swp-report/iMX6_Platform_SDK/output/mx6sl/lib/libboard_evk_rev_a.a(dcd.o)
 .bss           0x8040232c        0x0 /home/leon/git/swp-report/iMX6_Platform_SDK/output/mx6sl/lib/libboard_evk_rev_a.a(hardware_modules.o)
 .bss           0x8040232c        0x0 /home/leon/git/swp-report/iMX6_Platform_SDK/output/mx6sl/lib/libboard_evk_rev_a.a(uart_iomux_config.o)
 .bss           0x8040232c        0x0 /home/leon/git/swp-report/iMX6_Platform_SDK/output/mx6sl/lib/libboard_evk_rev_a.a(iomux_config.o)
 .bss           0x8040232c        0x0 /home/leon/git/swp-report/iMX6_Platform_SDK/output/mx6sl/lib/libboard_evk_rev_a.a(kpp_iomux_config.o)
 .bss           0x8040232c        0x0 /home/leon/git/swp-report/iMX6_Platform_SDK/output/mx6sl/lib/libboard_evk_rev_a.a(lcd_iomux_config.o)
 .bss           0x8040232c        0x0 /home/leon/git/swp-report/iMX6_Platform_SDK/output/mx6sl/lib/libboard_evk_rev_a.a(mmdc_iomux_config.o)
 .bss           0x8040232c        0x0 /home/leon/git/swp-report/iMX6_Platform_SDK/output/mx6sl/lib/libboard_evk_rev_a.a(pwm1_iomux_config.o)
 .bss           0x8040232c        0x0 /home/leon/git/swp-report/iMX6_Platform_SDK/output/mx6sl/lib/libboard_evk_rev_a.a(sjc_iomux_config.o)
 .bss           0x8040232c        0x0 /home/leon/git/swp-report/iMX6_Platform_SDK/output/mx6sl/lib/libboard_evk_rev_a.a(spdc_iomux_config.o)
 .bss           0x8040232c        0x0 /home/leon/git/swp-report/iMX6_Platform_SDK/output/mx6sl/lib/libboard_evk_rev_a.a(uart1_iomux_config.o)
 .bss           0x8040232c        0x0 /home/leon/git/swp-report/iMX6_Platform_SDK/output/mx6sl/lib/libboard_evk_rev_a.a(usb_iomux_config.o)
 .bss           0x8040232c        0x0 /home/leon/git/swp-report/iMX6_Platform_SDK/output/mx6sl/lib/libboard_evk_rev_a.a(usdhc1_iomux_config.o)
 .bss           0x8040232c        0x0 /home/leon/git/swp-report/iMX6_Platform_SDK/output/mx6sl/lib/libboard_evk_rev_a.a(usdhc2_iomux_config.o)
 .bss           0x8040232c        0x0 /home/leon/git/swp-report/iMX6_Platform_SDK/output/mx6sl/lib/libboard_evk_rev_a.a(usdhc3_iomux_config.o)
 .bss           0x8040232c        0x0 /home/leon/git/swp-report/iMX6_Platform_SDK/output/mx6sl/lib/libboard_evk_rev_a.a(wdog1_iomux_config.o)
 .bss           0x8040232c        0x0 /home/leon/git/swp-report/iMX6_Platform_SDK/output/mx6sl/lib/libboard_evk_rev_a.a(audmux_iomux_config.o)
 .bss           0x8040232c        0x0 /home/leon/git/swp-report/iMX6_Platform_SDK/output/mx6sl/lib/libboard_evk_rev_a.a(csi_iomux_config.o)
 .bss           0x8040232c        0x0 /home/leon/git/swp-report/iMX6_Platform_SDK/output/mx6sl/lib/libboard_evk_rev_a.a(ecspi1_iomux_config.o)
 .bss           0x8040232c        0x0 /home/leon/git/swp-report/iMX6_Platform_SDK/output/mx6sl/lib/libboard_evk_rev_a.a(ecspi2_iomux_config.o)
 .bss           0x8040232c        0x0 /home/leon/git/swp-report/iMX6_Platform_SDK/output/mx6sl/lib/libboard_evk_rev_a.a(epdc_iomux_config.o)
 .bss           0x8040232c        0x0 /home/leon/git/swp-report/iMX6_Platform_SDK/output/mx6sl/lib/libboard_evk_rev_a.a(fec_iomux_config.o)
 .bss           0x8040232c        0x0 /home/leon/git/swp-report/iMX6_Platform_SDK/output/mx6sl/lib/libboard_evk_rev_a.a(gpio1_iomux_config.o)
 .bss           0x8040232c        0x0 /home/leon/git/swp-report/iMX6_Platform_SDK/output/mx6sl/lib/libboard_evk_rev_a.a(gpio4_iomux_config.o)
 .bss           0x8040232c        0x0 /home/leon/git/swp-report/iMX6_Platform_SDK/output/mx6sl/lib/libboard_evk_rev_a.a(i2c1_iomux_config.o)
 .bss           0x8040232c        0x0 /home/leon/git/swp-report/iMX6_Platform_SDK/output/mx6sl/lib/libboard_evk_rev_a.a(i2c2_iomux_config.o)
 .bss           0x8040232c        0x0 /home/leon/git/swp-report/iMX6_Platform_SDK/output/mx6sl/lib/libboard_evk_rev_a.a(i2c3_iomux_config.o)
 .bss           0x8040232c        0x0 /home/leon/git/swp-report/iMX6_Platform_SDK/output/mx6sl/sdk_unit_test/evk_rev_a/libsdk_unit_test.a(cpu_wp_test.o)
 .bss           0x8040232c        0x0 /home/leon/git/swp-report/iMX6_Platform_SDK/output/mx6sl/sdk_unit_test/evk_rev_a/libsdk_unit_test.a(audio_test.o)
 .bss           0x8040232c        0x0 /home/leon/git/swp-report/iMX6_Platform_SDK/output/mx6sl/sdk_unit_test/evk_rev_a/libsdk_unit_test.a(ssi_playback.o)
 .bss           0x8040232c        0x0 /home/leon/git/swp-report/iMX6_Platform_SDK/output/mx6sl/sdk_unit_test/evk_rev_a/libsdk_unit_test.a(wav_file.o)
 .bss           0x8040232c        0x4 /home/leon/git/swp-report/iMX6_Platform_SDK/output/mx6sl/sdk_unit_test/evk_rev_a/libsdk_unit_test.a(gic_test.o)
                0x8040232c                gicTestDone
 .bss           0x80402330        0x0 /home/leon/git/swp-report/iMX6_Platform_SDK/output/mx6sl/sdk_unit_test/evk_rev_a/libsdk_unit_test.a(ocotp_test.o)
 .bss           0x80402330        0x0 /home/leon/git/swp-report/iMX6_Platform_SDK/output/mx6sl/sdk_unit_test/evk_rev_a/libsdk_unit_test.a(i2c_test.o)
 .bss           0x80402330       0x28 /home/leon/git/swp-report/iMX6_Platform_SDK/output/mx6sl/sdk_unit_test/evk_rev_a/libsdk_unit_test.a(imx6_i2c_device.o)
 .bss           0x80402358        0x8 /home/leon/git/swp-report/iMX6_Platform_SDK/output/mx6sl/sdk_unit_test/evk_rev_a/libsdk_unit_test.a(snvs_rtc_test.o)
 .bss           0x80402360        0x4 /home/leon/git/swp-report/iMX6_Platform_SDK/output/mx6sl/sdk_unit_test/evk_rev_a/libsdk_unit_test.a(snvs_srtc_test.o)
 .bss           0x80402364        0x0 /home/leon/git/swp-report/iMX6_Platform_SDK/output/mx6sl/sdk_unit_test/evk_rev_a/libsdk_unit_test.a(tempmon_test.o)
 .bss           0x80402364        0x0 /home/leon/git/swp-report/iMX6_Platform_SDK/output/mx6sl/sdk_unit_test/evk_rev_a/libsdk_unit_test.a(sdma_test.o)
 .bss           0x80402364     0x2818 /home/leon/git/swp-report/iMX6_Platform_SDK/output/mx6sl/sdk_unit_test/evk_rev_a/libsdk_unit_test.a(spi_lpb.o)
 .bss           0x80404b7c     0x281c /home/leon/git/swp-report/iMX6_Platform_SDK/output/mx6sl/sdk_unit_test/evk_rev_a/libsdk_unit_test.a(uart_loopback.o)
                0x80407394                trans_done
 .bss           0x80407398        0x1 /home/leon/git/swp-report/iMX6_Platform_SDK/output/mx6sl/sdk_unit_test/evk_rev_a/libsdk_unit_test.a(epit_test.o)
 *fill*         0x80407399        0x3 
 .bss           0x8040739c        0xc /home/leon/git/swp-report/iMX6_Platform_SDK/output/mx6sl/sdk_unit_test/evk_rev_a/libsdk_unit_test.a(gpt_test.o)
 .bss           0x804073a8        0x0 /home/leon/git/swp-report/iMX6_Platform_SDK/output/mx6sl/sdk_unit_test/evk_rev_a/libsdk_unit_test.a(timer_test.o)
 .bss           0x804073a8        0x1 /home/leon/git/swp-report/iMX6_Platform_SDK/output/mx6sl/sdk_unit_test/evk_rev_a/libsdk_unit_test.a(uart_test.o)
 *fill*         0x804073a9        0x3 
 .bss           0x804073ac    0x17d00 /home/leon/git/swp-report/iMX6_Platform_SDK/output/mx6sl/sdk_unit_test/evk_rev_a/libsdk_unit_test.a(usdhc_test.o)
 .bss           0x8041f0ac        0x0 /home/leon/git/swp-report/iMX6_Platform_SDK/output/mx6sl/sdk_unit_test/evk_rev_a/libsdk_unit_test.a(pwm_test.o)
 .bss           0x8041f0ac        0x0 /home/leon/git/swp-report/iMX6_Platform_SDK/output/mx6sl/sdk_unit_test/evk_rev_a/libsdk_unit_test.a(watchdog_test.o)
 .bss           0x8041f0ac      0x404 /home/leon/git/swp-report/iMX6_Platform_SDK/output/mx6sl/sdk_unit_test/evk_rev_a/libsdk_unit_test.a(spi_test.o)
                0x8041f0ac                dev_spi_nor
 .bss           0x8041f4b0        0x0 /home/leon/git/swp-report/iMX6_Platform_SDK/output/mx6sl/sdk_unit_test/evk_rev_a/libsdk_unit_test.a(usb_test.o)
 .bss           0x8041f4b0        0x4 /home/leon/git/swp-report/iMX6_Platform_SDK/output/mx6sl/sdk_unit_test/evk_rev_a/libsdk_unit_test.a(epdc_test.o)
 .bss           0x8041f4b4        0x0 /home/leon/git/swp-report/iMX6_Platform_SDK/output/mx6sl/sdk_unit_test/evk_rev_a/libsdk_unit_test.a(lcdif_test.o)
 .bss           0x8041f4b4        0x0 /home/leon/git/swp-report/iMX6_Platform_SDK/output/mx6sl/sdk_unit_test/evk_rev_a/libsdk_unit_test.a(camera_test.o)
 .bss           0x8041f4b4        0x0 /home/leon/git/swp-report/iMX6_Platform_SDK/output/mx6sl/sdk_unit_test/evk_rev_a/libsdk_unit_test.a(csi_sensor_capture.o)
 .bss           0x8041f4b4     0x1028 /home/leon/git/swp-report/iMX6_Platform_SDK/output/mx6sl/sdk_unit_test/evk_rev_a/libsdk_unit_test.a(fec_test.o)
 .bss           0x804204dc        0x4 /home/leon/git/swp-report/iMX6_Platform_SDK/output/mx6sl/sdk_unit_test/evk_rev_a/libsdk_unit_test.a(spdc_test.o)
 .bss           0x804204e0       0x24 /home/leon/git/swp-report/iMX6_Platform_SDK/output/mx6sl/sdk_unit_test/evk_rev_a/libsdk_unit_test.a(at24cxx.o)
 .bss           0x80420504    0x20818 /home/leon/git/swp-report/iMX6_Platform_SDK/output/mx6sl/sdk_unit_test/evk_rev_a/libsdk_unit_test.a(mem_2_mem.o)
 .bss           0x80440d1c        0x4 /home/leon/git/swp-report/iMX6_Platform_SDK/output/mx6sl/sdk_unit_test/evk_rev_a/libsdk_unit_test.a(pwm_output.o)
                0x80440d1c                g_pwm_test_end
 .bss           0x80440d20      0x400 /home/leon/git/swp-report/iMX6_Platform_SDK/output/mx6sl/sdk_unit_test/evk_rev_a/libsdk_unit_test.a(spi_nor_numonyx.o)
 *fill*         0x80441120      0xee0 
 .bss           0x80442000     0x1000 /home/leon/git/swp-report/iMX6_Platform_SDK/output/mx6sl/sdk_unit_test/evk_rev_a/libsdk_unit_test.a(usb0_device_mouse_test.o)
                0x80442000                endpointList
 .bss           0x80443000     0x1000 /home/leon/git/swp-report/iMX6_Platform_SDK/output/mx6sl/sdk_unit_test/evk_rev_a/libsdk_unit_test.a(usb0_host_test.o)
                0x80443000                frame_list
 .bss           0x80444000        0x0 /home/leon/git/swp-report/iMX6_Platform_SDK/output/mx6sl/sdk_unit_test/evk_rev_a/libsdk_unit_test.a(usb0_host_testmodes_test.o)
 .bss           0x80444000        0x0 /home/leon/git/swp-report/iMX6_Platform_SDK/output/mx6sl/sdk_unit_test/evk_rev_a/libsdk_unit_test.a(lcdif_display.o)
 .bss           0x80444000        0x0 /home/leon/git/swp-report/iMX6_Platform_SDK/output/mx6sl/sdk_unit_test/evk_rev_a/libsdk_unit_test.a(auo_lut.o)
 .bss           0x80444000        0x0 /home/leon/riotboard/arm-2012.09/bin/../arm-none-eabi/lib//libm.a(lib_a-sf_cos.o)
 .bss           0x80444000        0x0 /home/leon/riotboard/arm-2012.09/bin/../arm-none-eabi/lib//libm.a(lib_a-sf_sin.o)
 .bss           0x80444000        0x0 /home/leon/riotboard/arm-2012.09/bin/../arm-none-eabi/lib//libm.a(lib_a-ef_rem_pio2.o)
 .bss           0x80444000        0x0 /home/leon/riotboard/arm-2012.09/bin/../arm-none-eabi/lib//libm.a(lib_a-kf_cos.o)
 .bss           0x80444000        0x0 /home/leon/riotboard/arm-2012.09/bin/../arm-none-eabi/lib//libm.a(lib_a-kf_rem_pio2.o)
 .bss           0x80444000        0x0 /home/leon/riotboard/arm-2012.09/bin/../arm-none-eabi/lib//libm.a(lib_a-kf_sin.o)
 .bss           0x80444000        0x0 /home/leon/riotboard/arm-2012.09/bin/../arm-none-eabi/lib//libm.a(lib_a-sf_fabs.o)
 .bss           0x80444000        0x0 /home/leon/riotboard/arm-2012.09/bin/../arm-none-eabi/lib//libm.a(lib_a-sf_floor.o)
 .bss           0x80444000        0x0 /home/leon/riotboard/arm-2012.09/bin/../arm-none-eabi/lib//libm.a(lib_a-sf_scalbn.o)
 .bss           0x80444000        0x0 /home/leon/riotboard/arm-2012.09/bin/../arm-none-eabi/lib//libm.a(lib_a-sf_copysign.o)
 .bss           0x80444000        0x0 /home/leon/riotboard/arm-2012.09/bin/../arm-none-eabi/lib//libc.a(lib_a-assert.o)
 .bss           0x80444000        0x0 /home/leon/riotboard/arm-2012.09/bin/../arm-none-eabi/lib//libc.a(lib_a-bzero.o)
 .bss           0x80444000        0x0 /home/leon/riotboard/arm-2012.09/bin/../arm-none-eabi/lib//libc.a(lib_a-fiprintf.o)
 .bss           0x80444000        0x0 /home/leon/riotboard/arm-2012.09/bin/../arm-none-eabi/lib//libc.a(lib_a-fputc.o)
 .bss           0x80444000        0x0 /home/leon/riotboard/arm-2012.09/bin/../arm-none-eabi/lib//libc.a(lib_a-impure.o)
 .bss           0x80444000        0x0 /home/leon/riotboard/arm-2012.09/bin/../arm-none-eabi/lib//libc.a(lib_a-init.o)
 .bss           0x80444000        0x0 /home/leon/riotboard/arm-2012.09/bin/../arm-none-eabi/lib//libc.a(lib_a-malloc.o)
 .bss           0x80444000       0x34 /home/leon/riotboard/arm-2012.09/bin/../arm-none-eabi/lib//libc.a(lib_a-mallocr.o)
                0x80444000                __malloc_top_pad
                0x80444004                __malloc_current_mallinfo
                0x8044402c                __malloc_max_sbrked_mem
                0x80444030                __malloc_max_total_mem
 .bss           0x80444034        0x0 /home/leon/riotboard/arm-2012.09/bin/../arm-none-eabi/lib//libc.a(lib_a-memcpy.o)
 .bss           0x80444034        0x0 /home/leon/riotboard/arm-2012.09/bin/../arm-none-eabi/lib//libc.a(lib_a-memset.o)
 .bss           0x80444034        0x0 /home/leon/riotboard/arm-2012.09/bin/../arm-none-eabi/lib//libc.a(lib_a-mlock.o)
 .bss           0x80444034        0x0 /home/leon/riotboard/arm-2012.09/bin/../arm-none-eabi/lib//libc.a(lib_a-printf.o)
 .bss           0x80444034        0x0 /home/leon/riotboard/arm-2012.09/bin/../arm-none-eabi/lib//libc.a(lib_a-putc.o)
 .bss           0x80444034        0x0 /home/leon/riotboard/arm-2012.09/bin/../arm-none-eabi/lib//libc.a(lib_a-realloc.o)
 .bss           0x80444034        0x0 /home/leon/riotboard/arm-2012.09/bin/../arm-none-eabi/lib//libc.a(lib_a-reallocr.o)
 .bss           0x80444034        0x0 /home/leon/riotboard/arm-2012.09/bin/../arm-none-eabi/lib//libc.a(lib_a-rget.o)
 .bss           0x80444034        0x0 /home/leon/riotboard/arm-2012.09/bin/../arm-none-eabi/lib//libc.a(lib_a-sbrkr.o)
 .bss           0x80444034        0x0 /home/leon/riotboard/arm-2012.09/bin/../arm-none-eabi/lib//libc.a(lib_a-sprintf.o)
 .bss           0x80444034        0x0 /home/leon/riotboard/arm-2012.09/bin/../arm-none-eabi/lib//libc.a(lib_a-strlen.o)
 .bss           0x80444034        0x0 /home/leon/riotboard/arm-2012.09/bin/../arm-none-eabi/lib//libc.a(lib_a-strncasecmp.o)
 .bss           0x80444034        0x0 /home/leon/riotboard/arm-2012.09/bin/../arm-none-eabi/lib//libc.a(lib_a-svfprintf.o)
 .bss           0x80444034        0x0 /home/leon/riotboard/arm-2012.09/bin/../arm-none-eabi/lib//libc.a(lib_a-vfiprintf.o)
 .bss           0x80444034        0x0 /home/leon/riotboard/arm-2012.09/bin/../arm-none-eabi/lib//libc.a(lib_a-vfprintf.o)
 .bss           0x80444034        0x0 /home/leon/riotboard/arm-2012.09/bin/../arm-none-eabi/lib//libc.a(lib_a-vprintf.o)
 .bss           0x80444034        0x0 /home/leon/riotboard/arm-2012.09/bin/../arm-none-eabi/lib//libc.a(lib_a-wbuf.o)
 .bss           0x80444034        0x0 /home/leon/riotboard/arm-2012.09/bin/../arm-none-eabi/lib//libc.a(lib_a-wsetup.o)
 .bss           0x80444034        0x0 /home/leon/riotboard/arm-2012.09/bin/../arm-none-eabi/lib//libc.a(lib_a-abort.o)
 .bss           0x80444034        0x0 /home/leon/riotboard/arm-2012.09/bin/../arm-none-eabi/lib//libc.a(lib_a-ctype_.o)
 .bss           0x80444034        0x0 /home/leon/riotboard/arm-2012.09/bin/../arm-none-eabi/lib//libc.a(lib_a-dtoa.o)
 .bss           0x80444034        0x0 /home/leon/riotboard/arm-2012.09/bin/../arm-none-eabi/lib//libc.a(lib_a-fflush.o)
 .bss           0x80444034        0x0 /home/leon/riotboard/arm-2012.09/bin/../arm-none-eabi/lib//libc.a(lib_a-findfp.o)
 .bss           0x80444034        0x0 /home/leon/riotboard/arm-2012.09/bin/../arm-none-eabi/lib//libc.a(lib_a-fputwc.o)
 .bss           0x80444034        0x0 /home/leon/riotboard/arm-2012.09/bin/../arm-none-eabi/lib//libc.a(lib_a-freer.o)
 .bss           0x80444034        0x0 /home/leon/riotboard/arm-2012.09/bin/../arm-none-eabi/lib//libc.a(lib_a-fvwrite.o)
 .bss           0x80444034        0x0 /home/leon/riotboard/arm-2012.09/bin/../arm-none-eabi/lib//libc.a(lib_a-fwalk.o)
 .bss           0x80444034        0xc /home/leon/riotboard/arm-2012.09/bin/../arm-none-eabi/lib//libc.a(lib_a-locale.o)
                0x80444034                _PathLocale
                0x80444038                __mlocale_changed
                0x8044403c                __nlocale_changed
 .bss           0x80444040        0x0 /home/leon/riotboard/arm-2012.09/bin/../arm-none-eabi/lib//libc.a(lib_a-makebuf.o)
 .bss           0x80444040        0x0 /home/leon/riotboard/arm-2012.09/bin/../arm-none-eabi/lib//libc.a(lib_a-memchr.o)
 .bss           0x80444040        0x0 /home/leon/riotboard/arm-2012.09/bin/../arm-none-eabi/lib//libc.a(lib_a-memmove.o)
 .bss           0x80444040        0x0 /home/leon/riotboard/arm-2012.09/bin/../arm-none-eabi/lib//libc.a(lib_a-mprec.o)
 .bss           0x80444040        0x0 /home/leon/riotboard/arm-2012.09/bin/../arm-none-eabi/lib//libc.a(lib_a-reent.o)
 .bss           0x80444040        0x0 /home/leon/riotboard/arm-2012.09/bin/../arm-none-eabi/lib//libc.a(lib_a-refill.o)
 .bss           0x80444040        0x0 /home/leon/riotboard/arm-2012.09/bin/../arm-none-eabi/lib//libc.a(lib_a-s_fpclassify.o)
 .bss           0x80444040        0x0 /home/leon/riotboard/arm-2012.09/bin/../arm-none-eabi/lib//libc.a(lib_a-signal.o)
 .bss           0x80444040        0x0 /home/leon/riotboard/arm-2012.09/bin/../arm-none-eabi/lib//libc.a(lib_a-signalr.o)
 .bss           0x80444040        0x0 /home/leon/riotboard/arm-2012.09/bin/../arm-none-eabi/lib//libc.a(lib_a-stdio.o)
 .bss           0x80444040        0x0 /home/leon/riotboard/arm-2012.09/bin/../arm-none-eabi/lib//libc.a(lib_a-strcmp.o)
 .bss           0x80444040        0x0 /home/leon/riotboard/arm-2012.09/bin/../arm-none-eabi/lib//libc.a(lib_a-svfiprintf.o)
 .bss           0x80444040        0x0 /home/leon/riotboard/arm-2012.09/bin/../arm-none-eabi/lib//libc.a(lib_a-wcrtomb.o)
 .bss           0x80444040        0x0 /home/leon/riotboard/arm-2012.09/bin/../arm-none-eabi/lib//libc.a(lib_a-wctomb_r.o)
 .bss           0x80444040        0x0 /home/leon/riotboard/arm-2012.09/bin/../arm-none-eabi/lib//libc.a(lib_a-writer.o)
 .bss           0x80444040        0x0 /home/leon/riotboard/arm-2012.09/bin/../arm-none-eabi/lib//libc.a(lib_a-callocr.o)
 .bss           0x80444040        0x0 /home/leon/riotboard/arm-2012.09/bin/../arm-none-eabi/lib//libc.a(lib_a-closer.o)
 .bss           0x80444040        0x0 /home/leon/riotboard/arm-2012.09/bin/../arm-none-eabi/lib//libc.a(lib_a-fclose.o)
 .bss           0x80444040        0x0 /home/leon/riotboard/arm-2012.09/bin/../arm-none-eabi/lib//libc.a(lib_a-fstatr.o)
 .bss           0x80444040        0x0 /home/leon/riotboard/arm-2012.09/bin/../arm-none-eabi/lib//libc.a(lib_a-isattyr.o)
 .bss           0x80444040        0x0 /home/leon/riotboard/arm-2012.09/bin/../arm-none-eabi/lib//libc.a(lib_a-lseekr.o)
 .bss           0x80444040        0x0 /home/leon/riotboard/arm-2012.09/bin/../arm-none-eabi/lib//libc.a(lib_a-readr.o)
 .bss           0x80444040        0x0 /home/leon/riotboard/arm-2012.09/bin/../lib/gcc/arm-none-eabi/4.7.2//libgcc.a(_udivsi3.o)
 .bss           0x80444040        0x0 /home/leon/riotboard/arm-2012.09/bin/../lib/gcc/arm-none-eabi/4.7.2//libgcc.a(_dvmd_tls.o)
 .bss           0x80444040        0x0 /home/leon/riotboard/arm-2012.09/bin/../lib/gcc/arm-none-eabi/4.7.2//libgcc.a(_arm_addsubdf3.o)
 .bss           0x80444040        0x0 /home/leon/riotboard/arm-2012.09/bin/../lib/gcc/arm-none-eabi/4.7.2//libgcc.a(_arm_muldivdf3.o)
 .bss           0x80444040        0x0 /home/leon/riotboard/arm-2012.09/bin/../lib/gcc/arm-none-eabi/4.7.2//libgcc.a(_arm_cmpdf2.o)
 .bss           0x80444040        0x0 /home/leon/riotboard/arm-2012.09/bin/../lib/gcc/arm-none-eabi/4.7.2//libgcc.a(_arm_fixdfsi.o)
 .bss           0x80444040        0x0 /home/leon/riotboard/arm-2012.09/bin/../lib/gcc/arm-none-eabi/4.7.2//libgcc.a(_arm_addsubsf3.o)
 .bss           0x80444040        0x0 /home/leon/riotboard/arm-2012.09/bin/../lib/gcc/arm-none-eabi/4.7.2//libgcc.a(_arm_muldivsf3.o)
 .bss           0x80444040        0x0 /home/leon/riotboard/arm-2012.09/bin/../lib/gcc/arm-none-eabi/4.7.2//libgcc.a(_arm_cmpsf2.o)
 .bss           0x80444040        0x0 /home/leon/riotboard/arm-2012.09/bin/../lib/gcc/arm-none-eabi/4.7.2//libgcc.a(_arm_fixsfsi.o)
 .bss           0x80444040        0x0 /home/leon/riotboard/arm-2012.09/bin/../lib/gcc/arm-none-eabi/4.7.2//libgcc.a(_aeabi_uldivmod.o)
 .bss           0x80444040        0x0 /home/leon/riotboard/arm-2012.09/bin/../lib/gcc/arm-none-eabi/4.7.2//libgcc.a(bpabi.o)
 .bss           0x80444040        0x0 /home/leon/riotboard/arm-2012.09/bin/../lib/gcc/arm-none-eabi/4.7.2//libgcc.a(_divdi3.o)
 .bss           0x80444040        0x0 /home/leon/riotboard/arm-2012.09/bin/../lib/gcc/arm-none-eabi/4.7.2//libgcc.a(_udivdi3.o)
 .bss           0x80444040        0x0 /home/leon/riotboard/arm-2012.09/bin/../lib/gcc/arm-none-eabi/4.7.2//libgcc.a(_clzsi2.o)
 .bss           0x80444040        0x0 /home/leon/git/swp-report/iMX6_Platform_SDK/output/mx6sl/lib/libsdk.a(profile.o)
 .bss           0x80444040        0x0 /home/leon/git/swp-report/iMX6_Platform_SDK/output/mx6sl/lib/libsdk.a(armv7_cache.o)
 .bss           0x80444040        0xc /home/leon/git/swp-report/iMX6_Platform_SDK/output/mx6sl/lib/libsdk.a(runtime_support.o)
                0x80444040                __env
 .bss           0x8044404c        0x0 /home/leon/git/swp-report/iMX6_Platform_SDK/output/mx6sl/lib/libsdk.a(imx_audmux.o)
 .bss           0x8044404c        0x0 /home/leon/git/swp-report/iMX6_Platform_SDK/output/mx6sl/lib/libsdk.a(snd_card.o)
 .bss           0x8044404c       0x24 /home/leon/git/swp-report/iMX6_Platform_SDK/output/mx6sl/lib/libsdk.a(wm8962.o)
                0x8044404c                wm8962_i2c_req
 .bss           0x80444070        0x0 /home/leon/git/swp-report/iMX6_Platform_SDK/output/mx6sl/lib/libsdk.a(csi_drv.o)
 .bss           0x80444070        0x0 /home/leon/git/swp-report/iMX6_Platform_SDK/output/mx6sl/lib/libsdk.a(smd_sensor.o)
 .bss           0x80444070        0x0 /home/leon/git/swp-report/iMX6_Platform_SDK/output/mx6sl/lib/libsdk.a(cpu_workpoint.o)
 .bss           0x80444070        0x0 /home/leon/git/swp-report/iMX6_Platform_SDK/output/mx6sl/lib/libsdk.a(mxc_epdc.o)
 *fill*         0x80444070       0x10 
 .bss           0x80444080     0x5060 /home/leon/git/swp-report/iMX6_Platform_SDK/output/mx6sl/lib/libsdk.a(fec_drv.o)
 .bss           0x804490e0        0x0 /home/leon/git/swp-report/iMX6_Platform_SDK/output/mx6sl/lib/libsdk.a(gpio.o)
 .bss           0x804490e0        0x0 /home/leon/git/swp-report/iMX6_Platform_SDK/output/mx6sl/lib/libsdk.a(imx6sl_gpio_map.o)
 .bss           0x804490e0        0x0 /home/leon/git/swp-report/iMX6_Platform_SDK/output/mx6sl/lib/libsdk.a(imx_i2c.o)
 .bss           0x804490e0        0xc /home/leon/git/swp-report/iMX6_Platform_SDK/output/mx6sl/lib/libsdk.a(imx_i2c_slave.o)
 .bss           0x804490ec        0x0 /home/leon/git/swp-report/iMX6_Platform_SDK/output/mx6sl/lib/libsdk.a(lcdif_drv.o)
 .bss           0x804490ec        0x0 /home/leon/git/swp-report/iMX6_Platform_SDK/output/mx6sl/lib/libsdk.a(pxp_drv.o)
 .bss           0x804490ec        0x0 /home/leon/git/swp-report/iMX6_Platform_SDK/output/mx6sl/lib/libsdk.a(ocotp.o)
 .bss           0x804490ec       0xa0 /home/leon/git/swp-report/iMX6_Platform_SDK/output/mx6sl/lib/libsdk.a(pmu_driver.o)
 .bss           0x8044918c        0x8 /home/leon/git/swp-report/iMX6_Platform_SDK/output/mx6sl/lib/libsdk.a(pwm.o)
                0x8044918c                pwm_int_test_end
 .bss           0x80449194       0x10 /home/leon/git/swp-report/iMX6_Platform_SDK/output/mx6sl/lib/libsdk.a(rtc.o)
 .bss           0x804491a4        0x8 /home/leon/git/swp-report/iMX6_Platform_SDK/output/mx6sl/lib/libsdk.a(srtc.o)
 .bss           0x804491ac       0x88 /home/leon/git/swp-report/iMX6_Platform_SDK/output/mx6sl/lib/libsdk.a(sdma.o)
 .bss           0x80449234        0x0 /home/leon/git/swp-report/iMX6_Platform_SDK/output/mx6sl/lib/libsdk.a(sdma_script_info.o)
 .bss           0x80449234        0x0 /home/leon/git/swp-report/iMX6_Platform_SDK/output/mx6sl/lib/libsdk.a(snvs.o)
 .bss           0x80449234        0x0 /home/leon/git/swp-report/iMX6_Platform_SDK/output/mx6sl/lib/libsdk.a(mxc_spdc.o)
 .bss           0x80449234        0x0 /home/leon/git/swp-report/iMX6_Platform_SDK/output/mx6sl/lib/libsdk.a(ecspi.o)
 .bss           0x80449234       0x14 /home/leon/git/swp-report/iMX6_Platform_SDK/output/mx6sl/lib/libsdk.a(tempmon.o)
 .bss           0x80449248        0x0 /home/leon/git/swp-report/iMX6_Platform_SDK/output/mx6sl/lib/libsdk.a(gpt.o)
 .bss           0x80449248        0x0 /home/leon/git/swp-report/iMX6_Platform_SDK/output/mx6sl/lib/libsdk.a(usb_common.o)
 .bss           0x80449248        0x0 /home/leon/git/swp-report/iMX6_Platform_SDK/output/mx6sl/lib/libsdk.a(usbd_drv.o)
 .bss           0x80449248        0x0 /home/leon/git/swp-report/iMX6_Platform_SDK/output/mx6sl/lib/libsdk.a(usbh_drv.o)
 .bss           0x80449248        0x8 /home/leon/git/swp-report/iMX6_Platform_SDK/output/mx6sl/lib/libsdk.a(usdhc.o)
 .bss           0x80449250        0x0 /home/leon/git/swp-report/iMX6_Platform_SDK/output/mx6sl/lib/libsdk.a(usdhc_host.o)
 .bss           0x80449250      0x214 /home/leon/git/swp-report/iMX6_Platform_SDK/output/mx6sl/lib/libsdk.a(usdhc_mmc.o)
 .bss           0x80449464        0x0 /home/leon/git/swp-report/iMX6_Platform_SDK/output/mx6sl/lib/libsdk.a(usdhc_sd.o)
 .bss           0x80449464        0x0 /home/leon/git/swp-report/iMX6_Platform_SDK/output/mx6sl/lib/libsdk.a(imx-ssi.o)
 .bss           0x80449464        0x0 /home/leon/git/swp-report/iMX6_Platform_SDK/output/mx6sl/lib/libsdk.a(imx_spdif.o)
 .bss           0x80449464        0x0 /home/leon/git/swp-report/iMX6_Platform_SDK/output/mx6sl/lib/libsdk.a(camera_profile.o)
 .bss           0x80449464        0x0 /home/leon/git/swp-report/iMX6_Platform_SDK/output/mx6sl/lib/libsdk.a(mx6x_usb.o)
 .bss           0x80449464        0x0 /home/leon/git/swp-report/iMX6_Platform_SDK/output/mx6sl/lib/libboard_evk_rev_a.a(board_audio.o)
 .bss           0x80449464        0x0 /home/leon/git/swp-report/iMX6_Platform_SDK/output/mx6sl/lib/libboard_evk_rev_a.a(board_camera.o)
 .bss           0x80449464        0x0 /home/leon/git/swp-report/iMX6_Platform_SDK/output/mx6sl/lib/libboard_evk_rev_a.a(board_display.o)
 .bss           0x80449464        0x0 /home/leon/git/swp-report/iMX6_Platform_SDK/output/mx6sl/lib/libboard_evk_rev_a.a(board_i2c.o)
 .bss           0x80449464        0x0 /home/leon/git/swp-report/iMX6_Platform_SDK/output/mx6sl/lib/libboard_evk_rev_a.a(board_usb.o)
 .bss           0x80449464        0x0 /home/leon/git/swp-report/iMX6_Platform_SDK/output/mx6sl/lib/libboard_evk_rev_a.a(board_usdhc.o)
 .bss           0x80449464        0x0 /home/leon/git/swp-report/iMX6_Platform_SDK/output/mx6sl/lib/libboard_evk_rev_a.a(ecspi_iomux_config.o)
 .bss           0x80449464        0x0 /home/leon/git/swp-report/iMX6_Platform_SDK/output/mx6sl/lib/libboard_evk_rev_a.a(i2c_iomux_config.o)
 .bss           0x80449464        0x0 /home/leon/git/swp-report/iMX6_Platform_SDK/output/mx6sl/lib/libboard_evk_rev_a.a(pwm_iomux_config.o)
 .bss           0x80449464        0x0 /home/leon/git/swp-report/iMX6_Platform_SDK/output/mx6sl/lib/libboard_evk_rev_a.a(usdhc_iomux_config.o)
 .bss           0x80449464        0x0 /home/leon/riotboard/arm-2012.09/bin/../arm-none-eabi/lib//libstdc++.a(pure.o)
 .bss           0x80449464        0x0 /home/leon/riotboard/arm-2012.09/bin/../arm-none-eabi/lib//libstdc++.a(eh_terminate.o)
 .bss           0x80449464        0x0 /home/leon/riotboard/arm-2012.09/bin/../arm-none-eabi/lib//libstdc++.a(eh_unex_handler.o)
 .bss           0x80449464        0x0 /home/leon/riotboard/arm-2012.09/bin/../arm-none-eabi/lib//libstdc++.a(eh_call.o)
 .bss           0x80449464        0x0 /home/leon/riotboard/arm-2012.09/bin/../arm-none-eabi/lib//libstdc++.a(eh_throw.o)
 .bss           0x80449464        0x0 /home/leon/riotboard/arm-2012.09/bin/../arm-none-eabi/lib//libstdc++.a(eh_arm.o)
 .bss           0x80449464        0x0 /home/leon/riotboard/arm-2012.09/bin/../arm-none-eabi/lib//libstdc++.a(eh_exception.o)
 .bss           0x80449464        0x0 /home/leon/riotboard/arm-2012.09/bin/../arm-none-eabi/lib//libstdc++.a(eh_alloc.o)
 .bss._ZL15dependents_used
                0x80449464        0x4 /home/leon/riotboard/arm-2012.09/bin/../arm-none-eabi/lib//libstdc++.a(eh_alloc.o)
 .bss._ZL17dependents_buffer
                0x80449468      0x1e0 /home/leon/riotboard/arm-2012.09/bin/../arm-none-eabi/lib//libstdc++.a(eh_alloc.o)
 .bss._ZL14emergency_used
                0x80449648        0x4 /home/leon/riotboard/arm-2012.09/bin/../arm-none-eabi/lib//libstdc++.a(eh_alloc.o)
 *fill*         0x8044964c        0x4 
 .bss._ZL16emergency_buffer
                0x80449650      0x800 /home/leon/riotboard/arm-2012.09/bin/../arm-none-eabi/lib//libstdc++.a(eh_alloc.o)
 .bss           0x80449e50        0x0 /home/leon/riotboard/arm-2012.09/bin/../arm-none-eabi/lib//libstdc++.a(eh_globals.o)
 .bss._ZL10eh_globals
                0x80449e50        0xc /home/leon/riotboard/arm-2012.09/bin/../arm-none-eabi/lib//libstdc++.a(eh_globals.o)
 .bss           0x80449e5c        0x0 /home/leon/riotboard/arm-2012.09/bin/../arm-none-eabi/lib//libstdc++.a(si_class_type_info.o)
 .bss           0x80449e5c        0x0 /home/leon/riotboard/arm-2012.09/bin/../arm-none-eabi/lib//libstdc++.a(eh_personality.o)
 .bss           0x80449e5c        0x0 /home/leon/riotboard/arm-2012.09/bin/../arm-none-eabi/lib//libstdc++.a(eh_term_handler.o)
 .bss           0x80449e5c        0x0 /home/leon/riotboard/arm-2012.09/bin/../arm-none-eabi/lib//libstdc++.a(eh_catch.o)
 .bss           0x80449e5c        0x0 /home/leon/riotboard/arm-2012.09/bin/../arm-none-eabi/lib//libstdc++.a(class_type_info.o)
 .bss           0x80449e5c        0x0 /home/leon/riotboard/arm-2012.09/bin/../arm-none-eabi/lib//libstdc++.a(vterminate.o)
 .bss._ZZN9__gnu_cxx27__verbose_terminate_handlerEvE11terminating
                0x80449e5c        0x1 /home/leon/riotboard/arm-2012.09/bin/../arm-none-eabi/lib//libstdc++.a(vterminate.o)
 .bss           0x80449e5d        0x0 /home/leon/riotboard/arm-2012.09/bin/../arm-none-eabi/lib//libstdc++.a(cp-demangle.o)
 .bss           0x80449e5d        0x0 /home/leon/riotboard/arm-2012.09/bin/../arm-none-eabi/lib//libstdc++.a(eh_type.o)
 .bss           0x80449e5d        0x0 /home/leon/riotboard/arm-2012.09/bin/../arm-none-eabi/lib//libstdc++.a(del_op.o)
 .bss           0x80449e5d        0x0 /home/leon/riotboard/arm-2012.09/bin/../arm-none-eabi/lib//libstdc++.a(tinfo.o)
 .bss           0x80449e5d        0x0 /home/leon/riotboard/arm-2012.09/bin/../arm-none-eabi/lib//libc.a(lib_a-fputs.o)
 .bss           0x80449e5d        0x0 /home/leon/riotboard/arm-2012.09/bin/../arm-none-eabi/lib//libc.a(lib_a-fwrite.o)
 .bss           0x80449e5d        0x0 /home/leon/riotboard/arm-2012.09/bin/../arm-none-eabi/lib//libc.a(lib_a-memcmp.o)
 .bss           0x80449e5d        0x0 /home/leon/riotboard/arm-2012.09/bin/../arm-none-eabi/lib//libc.a(lib_a-strncmp.o)
 .bss           0x80449e5d        0x0 /home/leon/riotboard/arm-2012.09/bin/../arm-none-eabi/lib//libc.a(lib_a-syswrite.o)
 .bss           0x80449e5d        0x0 /home/leon/riotboard/arm-2012.09/bin/../lib/gcc/arm-none-eabi/4.7.2//libgcc.a(_divsi3.o)
 .bss           0x80449e5d        0x0 /home/leon/riotboard/arm-2012.09/bin/../lib/gcc/arm-none-eabi/4.7.2//libgcc.a(unwind-arm.o)
 .bss           0x80449e5d        0x0 /home/leon/riotboard/arm-2012.09/bin/../lib/gcc/arm-none-eabi/4.7.2//libgcc.a(libunwind.o)
 .bss           0x80449e5d        0x0 /home/leon/riotboard/arm-2012.09/bin/../lib/gcc/arm-none-eabi/4.7.2//libgcc.a(pr-support.o)
 .bss           0x80449e5d        0x0 /home/leon/git/swp-report/iMX6_Platform_SDK/output/mx6sl/lib/libsdk.a(pf0100.o)
 *(COMMON)
 *fill*         0x80449e5d        0x3 
 COMMON         0x80449e60        0x4 /home/leon/riotboard/arm-2012.09/bin/../arm-none-eabi/lib//libc.a(lib_a-reent.o)
                0x80449e60                errno
 *(.bss)
                0x80449e64                __bss_end__ = .

.stacks         0x80449e64     0xc000
                0x80449e64                __stacks_start = .
                0x80455e64                . = (. + 0xc000)
 *fill*         0x80449e64     0xc000 
                0x80455e64                __stacks_end = .
                0x80455e64                top_of_stacks = .
                0x80455e80                free_memory_start = ALIGN (0x20)
                0x88455e64                . = (. + 0x8000000)
                0x88455e64                free_memory_end = .
                0x88455e64                _end = .
START GROUP
LOAD /home/leon/git/swp-report/iMX6_Platform_SDK/output/mx6sl/sdk_unit_test/evk_rev_a/obj/apps/common/ivt.o
LOAD /home/leon/git/swp-report/iMX6_Platform_SDK/output/mx6sl/sdk_unit_test/evk_rev_a/obj/apps/common/platform_init.o
LOAD /home/leon/git/swp-report/iMX6_Platform_SDK/output/mx6sl/sdk_unit_test/evk_rev_a/obj/apps/common/print_clock_info.o
LOAD /home/leon/git/swp-report/iMX6_Platform_SDK/output/mx6sl/sdk_unit_test/evk_rev_a/obj/apps/common/print_version.o
LOAD /home/leon/git/swp-report/iMX6_Platform_SDK/output/mx6sl/sdk_unit_test/evk_rev_a/obj/apps/sdk_unit_test/src/all_test.o
LOAD /home/leon/git/swp-report/iMX6_Platform_SDK/output/mx6sl/sdk_unit_test/evk_rev_a/obj/apps/sdk_unit_test/src/unit_test_main.o
LOAD /home/leon/git/swp-report/iMX6_Platform_SDK/output/mx6sl/lib/libsdk.a
LOAD /home/leon/git/swp-report/iMX6_Platform_SDK/output/mx6sl/lib/libboard_evk_rev_a.a
LOAD /home/leon/git/swp-report/iMX6_Platform_SDK/output/mx6sl/sdk_unit_test/evk_rev_a/libsdk_unit_test.a
LOAD /home/leon/riotboard/arm-2012.09/bin/../arm-none-eabi/lib//libm.a
LOAD /home/leon/riotboard/arm-2012.09/bin/../arm-none-eabi/lib//libstdc++.a
LOAD /home/leon/riotboard/arm-2012.09/bin/../arm-none-eabi/lib//libc.a
LOAD /home/leon/riotboard/arm-2012.09/bin/../lib/gcc/arm-none-eabi/4.7.2//libgcc.a
END GROUP
OUTPUT(/home/leon/git/swp-report/iMX6_Platform_SDK/output/mx6sl/sdk_unit_test/evk_rev_a/sdk_unit_test_ALL.elf elf32-littlearm)

.ARM.attributes
                0x00000000       0x3b
 .ARM.attributes
                0x00000000       0x30 /home/leon/riotboard/arm-2012.09/bin/../lib/gcc/arm-none-eabi/4.7.2//crtbegin.o
 .ARM.attributes
                0x00000030       0x16 /home/leon/riotboard/arm-2012.09/bin/../lib/gcc/arm-none-eabi/4.7.2//crti.o
 .ARM.attributes
                0x00000046       0x30 /home/leon/riotboard/arm-2012.09/bin/../lib/gcc/arm-none-eabi/4.7.2//crtend.o
 .ARM.attributes
                0x00000076       0x18 /home/leon/riotboard/arm-2012.09/bin/../lib/gcc/arm-none-eabi/4.7.2//crtn.o
 .ARM.attributes
                0x0000008e       0x39 /home/leon/git/swp-report/iMX6_Platform_SDK/output/mx6sl/sdk_unit_test/evk_rev_a/obj/apps/common/ivt.o
 .ARM.attributes
                0x000000c7       0x39 /home/leon/git/swp-report/iMX6_Platform_SDK/output/mx6sl/sdk_unit_test/evk_rev_a/obj/apps/common/platform_init.o
 .ARM.attributes
                0x00000100       0x39 /home/leon/git/swp-report/iMX6_Platform_SDK/output/mx6sl/sdk_unit_test/evk_rev_a/obj/apps/common/print_clock_info.o
 .ARM.attributes
                0x00000139       0x39 /home/leon/git/swp-report/iMX6_Platform_SDK/output/mx6sl/sdk_unit_test/evk_rev_a/obj/apps/common/print_version.o
 .ARM.attributes
                0x00000172       0x39 /home/leon/git/swp-report/iMX6_Platform_SDK/output/mx6sl/sdk_unit_test/evk_rev_a/obj/apps/sdk_unit_test/src/all_test.o
 .ARM.attributes
                0x000001ab       0x39 /home/leon/git/swp-report/iMX6_Platform_SDK/output/mx6sl/sdk_unit_test/evk_rev_a/obj/apps/sdk_unit_test/src/unit_test_main.o
 .ARM.attributes
                0x000001e4       0x39 /home/leon/git/swp-report/iMX6_Platform_SDK/output/mx6sl/lib/libsdk.a(ccm_pll.o)
 .ARM.attributes
                0x0000021d       0x16 /home/leon/git/swp-report/iMX6_Platform_SDK/output/mx6sl/lib/libsdk.a(cortexA9.o)
 .ARM.attributes
                0x00000233       0x39 /home/leon/git/swp-report/iMX6_Platform_SDK/output/mx6sl/lib/libsdk.a(gic.o)
 .ARM.attributes
                0x0000026c       0x39 /home/leon/git/swp-report/iMX6_Platform_SDK/output/mx6sl/lib/libsdk.a(mmu.o)
 .ARM.attributes
                0x000002a5       0x16 /home/leon/git/swp-report/iMX6_Platform_SDK/output/mx6sl/lib/libsdk.a(startup.o)
 .ARM.attributes
                0x000002bb       0x14 /home/leon/git/swp-report/iMX6_Platform_SDK/output/mx6sl/lib/libsdk.a(vectors.o)
 .ARM.attributes
                0x000002cf       0x39 /home/leon/git/swp-report/iMX6_Platform_SDK/output/mx6sl/lib/libsdk.a(menu.o)
 .ARM.attributes
                0x00000308       0x39 /home/leon/git/swp-report/iMX6_Platform_SDK/output/mx6sl/lib/libsdk.a(sdk_version.o)
 .ARM.attributes
                0x00000341       0x39 /home/leon/git/swp-report/iMX6_Platform_SDK/output/mx6sl/lib/libsdk.a(system_util.o)
 .ARM.attributes
                0x0000037a       0x39 /home/leon/git/swp-report/iMX6_Platform_SDK/output/mx6sl/lib/libsdk.a(text_color.o)
 .ARM.attributes
                0x000003b3       0x39 /home/leon/git/swp-report/iMX6_Platform_SDK/output/mx6sl/lib/libsdk.a(board_id.o)
 .ARM.attributes
                0x000003ec       0x39 /home/leon/git/swp-report/iMX6_Platform_SDK/output/mx6sl/lib/libsdk.a(timer.o)
 .ARM.attributes
                0x00000425       0x39 /home/leon/git/swp-report/iMX6_Platform_SDK/output/mx6sl/lib/libsdk.a(imx_uart.o)
 .ARM.attributes
                0x0000045e       0x14 /home/leon/git/swp-report/iMX6_Platform_SDK/output/mx6sl/lib/libsdk.a(arm_abort.o)
 .ARM.attributes
                0x00000472       0x39 /home/leon/git/swp-report/iMX6_Platform_SDK/output/mx6sl/lib/libsdk.a(interrupt.o)
 .ARM.attributes
                0x000004ab       0x39 /home/leon/git/swp-report/iMX6_Platform_SDK/output/mx6sl/lib/libsdk.a(epit.o)
 .ARM.attributes
                0x000004e4       0x39 /home/leon/git/swp-report/iMX6_Platform_SDK/output/mx6sl/lib/libsdk.a(abort_handler.o)
 .ARM.attributes
                0x0000051d       0x39 /home/leon/git/swp-report/iMX6_Platform_SDK/output/mx6sl/lib/libboard_evk_rev_a.a(board_io_expanders.o)
 .ARM.attributes
                0x00000556       0x39 /home/leon/git/swp-report/iMX6_Platform_SDK/output/mx6sl/lib/libboard_evk_rev_a.a(dcd.o)
 .ARM.attributes
                0x0000058f       0x39 /home/leon/git/swp-report/iMX6_Platform_SDK/output/mx6sl/lib/libboard_evk_rev_a.a(hardware_modules.o)
 .ARM.attributes
                0x000005c8       0x39 /home/leon/git/swp-report/iMX6_Platform_SDK/output/mx6sl/lib/libboard_evk_rev_a.a(uart_iomux_config.o)
 .ARM.attributes
                0x00000601       0x39 /home/leon/git/swp-report/iMX6_Platform_SDK/output/mx6sl/lib/libboard_evk_rev_a.a(iomux_config.o)
 .ARM.attributes
                0x0000063a       0x39 /home/leon/git/swp-report/iMX6_Platform_SDK/output/mx6sl/lib/libboard_evk_rev_a.a(kpp_iomux_config.o)
 .ARM.attributes
                0x00000673       0x39 /home/leon/git/swp-report/iMX6_Platform_SDK/output/mx6sl/lib/libboard_evk_rev_a.a(lcd_iomux_config.o)
 .ARM.attributes
                0x000006ac       0x39 /home/leon/git/swp-report/iMX6_Platform_SDK/output/mx6sl/lib/libboard_evk_rev_a.a(mmdc_iomux_config.o)
 .ARM.attributes
                0x000006e5       0x39 /home/leon/git/swp-report/iMX6_Platform_SDK/output/mx6sl/lib/libboard_evk_rev_a.a(pwm1_iomux_config.o)
 .ARM.attributes
                0x0000071e       0x39 /home/leon/git/swp-report/iMX6_Platform_SDK/output/mx6sl/lib/libboard_evk_rev_a.a(sjc_iomux_config.o)
 .ARM.attributes
                0x00000757       0x39 /home/leon/git/swp-report/iMX6_Platform_SDK/output/mx6sl/lib/libboard_evk_rev_a.a(spdc_iomux_config.o)
 .ARM.attributes
                0x00000790       0x39 /home/leon/git/swp-report/iMX6_Platform_SDK/output/mx6sl/lib/libboard_evk_rev_a.a(uart1_iomux_config.o)
 .ARM.attributes
                0x000007c9       0x39 /home/leon/git/swp-report/iMX6_Platform_SDK/output/mx6sl/lib/libboard_evk_rev_a.a(usb_iomux_config.o)
 .ARM.attributes
                0x00000802       0x39 /home/leon/git/swp-report/iMX6_Platform_SDK/output/mx6sl/lib/libboard_evk_rev_a.a(usdhc1_iomux_config.o)
 .ARM.attributes
                0x0000083b       0x39 /home/leon/git/swp-report/iMX6_Platform_SDK/output/mx6sl/lib/libboard_evk_rev_a.a(usdhc2_iomux_config.o)
 .ARM.attributes
                0x00000874       0x39 /home/leon/git/swp-report/iMX6_Platform_SDK/output/mx6sl/lib/libboard_evk_rev_a.a(usdhc3_iomux_config.o)
 .ARM.attributes
                0x000008ad       0x39 /home/leon/git/swp-report/iMX6_Platform_SDK/output/mx6sl/lib/libboard_evk_rev_a.a(wdog1_iomux_config.o)
 .ARM.attributes
                0x000008e6       0x39 /home/leon/git/swp-report/iMX6_Platform_SDK/output/mx6sl/lib/libboard_evk_rev_a.a(audmux_iomux_config.o)
 .ARM.attributes
                0x0000091f       0x39 /home/leon/git/swp-report/iMX6_Platform_SDK/output/mx6sl/lib/libboard_evk_rev_a.a(csi_iomux_config.o)
 .ARM.attributes
                0x00000958       0x39 /home/leon/git/swp-report/iMX6_Platform_SDK/output/mx6sl/lib/libboard_evk_rev_a.a(ecspi1_iomux_config.o)
 .ARM.attributes
                0x00000991       0x39 /home/leon/git/swp-report/iMX6_Platform_SDK/output/mx6sl/lib/libboard_evk_rev_a.a(ecspi2_iomux_config.o)
 .ARM.attributes
                0x000009ca       0x39 /home/leon/git/swp-report/iMX6_Platform_SDK/output/mx6sl/lib/libboard_evk_rev_a.a(epdc_iomux_config.o)
 .ARM.attributes
                0x00000a03       0x39 /home/leon/git/swp-report/iMX6_Platform_SDK/output/mx6sl/lib/libboard_evk_rev_a.a(fec_iomux_config.o)
 .ARM.attributes
                0x00000a3c       0x39 /home/leon/git/swp-report/iMX6_Platform_SDK/output/mx6sl/lib/libboard_evk_rev_a.a(gpio1_iomux_config.o)
 .ARM.attributes
                0x00000a75       0x39 /home/leon/git/swp-report/iMX6_Platform_SDK/output/mx6sl/lib/libboard_evk_rev_a.a(gpio4_iomux_config.o)
 .ARM.attributes
                0x00000aae       0x39 /home/leon/git/swp-report/iMX6_Platform_SDK/output/mx6sl/lib/libboard_evk_rev_a.a(i2c1_iomux_config.o)
 .ARM.attributes
                0x00000ae7       0x39 /home/leon/git/swp-report/iMX6_Platform_SDK/output/mx6sl/lib/libboard_evk_rev_a.a(i2c2_iomux_config.o)
 .ARM.attributes
                0x00000b20       0x39 /home/leon/git/swp-report/iMX6_Platform_SDK/output/mx6sl/lib/libboard_evk_rev_a.a(i2c3_iomux_config.o)
 .ARM.attributes
                0x00000b59       0x39 /home/leon/git/swp-report/iMX6_Platform_SDK/output/mx6sl/sdk_unit_test/evk_rev_a/libsdk_unit_test.a(cpu_wp_test.o)
 .ARM.attributes
                0x00000b92       0x39 /home/leon/git/swp-report/iMX6_Platform_SDK/output/mx6sl/sdk_unit_test/evk_rev_a/libsdk_unit_test.a(audio_test.o)
 .ARM.attributes
                0x00000bcb       0x39 /home/leon/git/swp-report/iMX6_Platform_SDK/output/mx6sl/sdk_unit_test/evk_rev_a/libsdk_unit_test.a(ssi_playback.o)
 .ARM.attributes
                0x00000c04       0x14 /home/leon/git/swp-report/iMX6_Platform_SDK/output/mx6sl/sdk_unit_test/evk_rev_a/libsdk_unit_test.a(wav_file.o)
 .ARM.attributes
                0x00000c18       0x39 /home/leon/git/swp-report/iMX6_Platform_SDK/output/mx6sl/sdk_unit_test/evk_rev_a/libsdk_unit_test.a(gic_test.o)
 .ARM.attributes
                0x00000c51       0x39 /home/leon/git/swp-report/iMX6_Platform_SDK/output/mx6sl/sdk_unit_test/evk_rev_a/libsdk_unit_test.a(ocotp_test.o)
 .ARM.attributes
                0x00000c8a       0x39 /home/leon/git/swp-report/iMX6_Platform_SDK/output/mx6sl/sdk_unit_test/evk_rev_a/libsdk_unit_test.a(i2c_test.o)
 .ARM.attributes
                0x00000cc3       0x39 /home/leon/git/swp-report/iMX6_Platform_SDK/output/mx6sl/sdk_unit_test/evk_rev_a/libsdk_unit_test.a(imx6_i2c_device.o)
 .ARM.attributes
                0x00000cfc       0x39 /home/leon/git/swp-report/iMX6_Platform_SDK/output/mx6sl/sdk_unit_test/evk_rev_a/libsdk_unit_test.a(snvs_rtc_test.o)
 .ARM.attributes
                0x00000d35       0x39 /home/leon/git/swp-report/iMX6_Platform_SDK/output/mx6sl/sdk_unit_test/evk_rev_a/libsdk_unit_test.a(snvs_srtc_test.o)
 .ARM.attributes
                0x00000d6e       0x39 /home/leon/git/swp-report/iMX6_Platform_SDK/output/mx6sl/sdk_unit_test/evk_rev_a/libsdk_unit_test.a(tempmon_test.o)
 .ARM.attributes
                0x00000da7       0x39 /home/leon/git/swp-report/iMX6_Platform_SDK/output/mx6sl/sdk_unit_test/evk_rev_a/libsdk_unit_test.a(sdma_test.o)
 .ARM.attributes
                0x00000de0       0x39 /home/leon/git/swp-report/iMX6_Platform_SDK/output/mx6sl/sdk_unit_test/evk_rev_a/libsdk_unit_test.a(spi_lpb.o)
 .ARM.attributes
                0x00000e19       0x39 /home/leon/git/swp-report/iMX6_Platform_SDK/output/mx6sl/sdk_unit_test/evk_rev_a/libsdk_unit_test.a(uart_loopback.o)
 .ARM.attributes
                0x00000e52       0x39 /home/leon/git/swp-report/iMX6_Platform_SDK/output/mx6sl/sdk_unit_test/evk_rev_a/libsdk_unit_test.a(epit_test.o)
 .ARM.attributes
                0x00000e8b       0x39 /home/leon/git/swp-report/iMX6_Platform_SDK/output/mx6sl/sdk_unit_test/evk_rev_a/libsdk_unit_test.a(gpt_test.o)
 .ARM.attributes
                0x00000ec4       0x39 /home/leon/git/swp-report/iMX6_Platform_SDK/output/mx6sl/sdk_unit_test/evk_rev_a/libsdk_unit_test.a(timer_test.o)
 .ARM.attributes
                0x00000efd       0x39 /home/leon/git/swp-report/iMX6_Platform_SDK/output/mx6sl/sdk_unit_test/evk_rev_a/libsdk_unit_test.a(uart_test.o)
 .ARM.attributes
                0x00000f36       0x39 /home/leon/git/swp-report/iMX6_Platform_SDK/output/mx6sl/sdk_unit_test/evk_rev_a/libsdk_unit_test.a(usdhc_test.o)
 .ARM.attributes
                0x00000f6f       0x39 /home/leon/git/swp-report/iMX6_Platform_SDK/output/mx6sl/sdk_unit_test/evk_rev_a/libsdk_unit_test.a(pwm_test.o)
 .ARM.attributes
                0x00000fa8       0x39 /home/leon/git/swp-report/iMX6_Platform_SDK/output/mx6sl/sdk_unit_test/evk_rev_a/libsdk_unit_test.a(watchdog_test.o)
 .ARM.attributes
                0x00000fe1       0x39 /home/leon/git/swp-report/iMX6_Platform_SDK/output/mx6sl/sdk_unit_test/evk_rev_a/libsdk_unit_test.a(spi_test.o)
 .ARM.attributes
                0x0000101a       0x39 /home/leon/git/swp-report/iMX6_Platform_SDK/output/mx6sl/sdk_unit_test/evk_rev_a/libsdk_unit_test.a(usb_test.o)
 .ARM.attributes
                0x00001053       0x39 /home/leon/git/swp-report/iMX6_Platform_SDK/output/mx6sl/sdk_unit_test/evk_rev_a/libsdk_unit_test.a(epdc_test.o)
 .ARM.attributes
                0x0000108c       0x39 /home/leon/git/swp-report/iMX6_Platform_SDK/output/mx6sl/sdk_unit_test/evk_rev_a/libsdk_unit_test.a(lcdif_test.o)
 .ARM.attributes
                0x000010c5       0x39 /home/leon/git/swp-report/iMX6_Platform_SDK/output/mx6sl/sdk_unit_test/evk_rev_a/libsdk_unit_test.a(camera_test.o)
 .ARM.attributes
                0x000010fe       0x39 /home/leon/git/swp-report/iMX6_Platform_SDK/output/mx6sl/sdk_unit_test/evk_rev_a/libsdk_unit_test.a(csi_sensor_capture.o)
 .ARM.attributes
                0x00001137       0x39 /home/leon/git/swp-report/iMX6_Platform_SDK/output/mx6sl/sdk_unit_test/evk_rev_a/libsdk_unit_test.a(fec_test.o)
 .ARM.attributes
                0x00001170       0x39 /home/leon/git/swp-report/iMX6_Platform_SDK/output/mx6sl/sdk_unit_test/evk_rev_a/libsdk_unit_test.a(spdc_test.o)
 .ARM.attributes
                0x000011a9       0x39 /home/leon/git/swp-report/iMX6_Platform_SDK/output/mx6sl/sdk_unit_test/evk_rev_a/libsdk_unit_test.a(at24cxx.o)
 .ARM.attributes
                0x000011e2       0x39 /home/leon/git/swp-report/iMX6_Platform_SDK/output/mx6sl/sdk_unit_test/evk_rev_a/libsdk_unit_test.a(mem_2_mem.o)
 .ARM.attributes
                0x0000121b       0x39 /home/leon/git/swp-report/iMX6_Platform_SDK/output/mx6sl/sdk_unit_test/evk_rev_a/libsdk_unit_test.a(pwm_output.o)
 .ARM.attributes
                0x00001254       0x39 /home/leon/git/swp-report/iMX6_Platform_SDK/output/mx6sl/sdk_unit_test/evk_rev_a/libsdk_unit_test.a(spi_nor_numonyx.o)
 .ARM.attributes
                0x0000128d       0x39 /home/leon/git/swp-report/iMX6_Platform_SDK/output/mx6sl/sdk_unit_test/evk_rev_a/libsdk_unit_test.a(usb0_device_mouse_test.o)
 .ARM.attributes
                0x000012c6       0x39 /home/leon/git/swp-report/iMX6_Platform_SDK/output/mx6sl/sdk_unit_test/evk_rev_a/libsdk_unit_test.a(usb0_host_test.o)
 .ARM.attributes
                0x000012ff       0x39 /home/leon/git/swp-report/iMX6_Platform_SDK/output/mx6sl/sdk_unit_test/evk_rev_a/libsdk_unit_test.a(usb0_host_testmodes_test.o)
 .ARM.attributes
                0x00001338       0x39 /home/leon/git/swp-report/iMX6_Platform_SDK/output/mx6sl/sdk_unit_test/evk_rev_a/libsdk_unit_test.a(lcdif_display.o)
 .ARM.attributes
                0x00001371       0x39 /home/leon/git/swp-report/iMX6_Platform_SDK/output/mx6sl/sdk_unit_test/evk_rev_a/libsdk_unit_test.a(auo_lut.o)
 .ARM.attributes
                0x000013aa       0x30 /home/leon/riotboard/arm-2012.09/bin/../arm-none-eabi/lib//libm.a(lib_a-sf_cos.o)
 .ARM.attributes
                0x000013da       0x30 /home/leon/riotboard/arm-2012.09/bin/../arm-none-eabi/lib//libm.a(lib_a-sf_sin.o)
 .ARM.attributes
                0x0000140a       0x30 /home/leon/riotboard/arm-2012.09/bin/../arm-none-eabi/lib//libm.a(lib_a-ef_rem_pio2.o)
 .ARM.attributes
                0x0000143a       0x30 /home/leon/riotboard/arm-2012.09/bin/../arm-none-eabi/lib//libm.a(lib_a-kf_cos.o)
 .ARM.attributes
                0x0000146a       0x30 /home/leon/riotboard/arm-2012.09/bin/../arm-none-eabi/lib//libm.a(lib_a-kf_rem_pio2.o)
 .ARM.attributes
                0x0000149a       0x30 /home/leon/riotboard/arm-2012.09/bin/../arm-none-eabi/lib//libm.a(lib_a-kf_sin.o)
 .ARM.attributes
                0x000014ca       0x30 /home/leon/riotboard/arm-2012.09/bin/../arm-none-eabi/lib//libm.a(lib_a-sf_fabs.o)
 .ARM.attributes
                0x000014fa       0x30 /home/leon/riotboard/arm-2012.09/bin/../arm-none-eabi/lib//libm.a(lib_a-sf_floor.o)
 .ARM.attributes
                0x0000152a       0x30 /home/leon/riotboard/arm-2012.09/bin/../arm-none-eabi/lib//libm.a(lib_a-sf_scalbn.o)
 .ARM.attributes
                0x0000155a       0x30 /home/leon/riotboard/arm-2012.09/bin/../arm-none-eabi/lib//libm.a(lib_a-sf_copysign.o)
 .ARM.attributes
                0x0000158a       0x30 /home/leon/riotboard/arm-2012.09/bin/../arm-none-eabi/lib//libc.a(lib_a-assert.o)
 .ARM.attributes
                0x000015ba       0x30 /home/leon/riotboard/arm-2012.09/bin/../arm-none-eabi/lib//libc.a(lib_a-bzero.o)
 .ARM.attributes
                0x000015ea       0x30 /home/leon/riotboard/arm-2012.09/bin/../arm-none-eabi/lib//libc.a(lib_a-fiprintf.o)
 .ARM.attributes
                0x0000161a       0x30 /home/leon/riotboard/arm-2012.09/bin/../arm-none-eabi/lib//libc.a(lib_a-fputc.o)
 .ARM.attributes
                0x0000164a       0x30 /home/leon/riotboard/arm-2012.09/bin/../arm-none-eabi/lib//libc.a(lib_a-impure.o)
 .ARM.attributes
                0x0000167a       0x30 /home/leon/riotboard/arm-2012.09/bin/../arm-none-eabi/lib//libc.a(lib_a-init.o)
 .ARM.attributes
                0x000016aa       0x30 /home/leon/riotboard/arm-2012.09/bin/../arm-none-eabi/lib//libc.a(lib_a-malloc.o)
 .ARM.attributes
                0x000016da       0x30 /home/leon/riotboard/arm-2012.09/bin/../arm-none-eabi/lib//libc.a(lib_a-mallocr.o)
 .ARM.attributes
                0x0000170a       0x30 /home/leon/riotboard/arm-2012.09/bin/../arm-none-eabi/lib//libc.a(lib_a-memcpy.o)
 .ARM.attributes
                0x0000173a       0x30 /home/leon/riotboard/arm-2012.09/bin/../arm-none-eabi/lib//libc.a(lib_a-memset.o)
 .ARM.attributes
                0x0000176a       0x30 /home/leon/riotboard/arm-2012.09/bin/../arm-none-eabi/lib//libc.a(lib_a-mlock.o)
 .ARM.attributes
                0x0000179a       0x30 /home/leon/riotboard/arm-2012.09/bin/../arm-none-eabi/lib//libc.a(lib_a-printf.o)
 .ARM.attributes
                0x000017ca       0x30 /home/leon/riotboard/arm-2012.09/bin/../arm-none-eabi/lib//libc.a(lib_a-putc.o)
 .ARM.attributes
                0x000017fa       0x30 /home/leon/riotboard/arm-2012.09/bin/../arm-none-eabi/lib//libc.a(lib_a-realloc.o)
 .ARM.attributes
                0x0000182a       0x30 /home/leon/riotboard/arm-2012.09/bin/../arm-none-eabi/lib//libc.a(lib_a-reallocr.o)
 .ARM.attributes
                0x0000185a       0x30 /home/leon/riotboard/arm-2012.09/bin/../arm-none-eabi/lib//libc.a(lib_a-rget.o)
 .ARM.attributes
                0x0000188a       0x30 /home/leon/riotboard/arm-2012.09/bin/../arm-none-eabi/lib//libc.a(lib_a-sbrkr.o)
 .ARM.attributes
                0x000018ba       0x30 /home/leon/riotboard/arm-2012.09/bin/../arm-none-eabi/lib//libc.a(lib_a-sprintf.o)
 .ARM.attributes
                0x000018ea       0x30 /home/leon/riotboard/arm-2012.09/bin/../arm-none-eabi/lib//libc.a(lib_a-strlen.o)
 .ARM.attributes
                0x0000191a       0x30 /home/leon/riotboard/arm-2012.09/bin/../arm-none-eabi/lib//libc.a(lib_a-strncasecmp.o)
 .ARM.attributes
                0x0000194a       0x30 /home/leon/riotboard/arm-2012.09/bin/../arm-none-eabi/lib//libc.a(lib_a-svfprintf.o)
 .ARM.attributes
                0x0000197a       0x30 /home/leon/riotboard/arm-2012.09/bin/../arm-none-eabi/lib//libc.a(lib_a-vfiprintf.o)
 .ARM.attributes
                0x000019aa       0x30 /home/leon/riotboard/arm-2012.09/bin/../arm-none-eabi/lib//libc.a(lib_a-vfprintf.o)
 .ARM.attributes
                0x000019da       0x30 /home/leon/riotboard/arm-2012.09/bin/../arm-none-eabi/lib//libc.a(lib_a-vprintf.o)
 .ARM.attributes
                0x00001a0a       0x30 /home/leon/riotboard/arm-2012.09/bin/../arm-none-eabi/lib//libc.a(lib_a-wbuf.o)
 .ARM.attributes
                0x00001a3a       0x30 /home/leon/riotboard/arm-2012.09/bin/../arm-none-eabi/lib//libc.a(lib_a-wsetup.o)
 .ARM.attributes
                0x00001a6a       0x30 /home/leon/riotboard/arm-2012.09/bin/../arm-none-eabi/lib//libc.a(lib_a-abort.o)
 .ARM.attributes
                0x00001a9a       0x30 /home/leon/riotboard/arm-2012.09/bin/../arm-none-eabi/lib//libc.a(lib_a-ctype_.o)
 .ARM.attributes
                0x00001aca       0x30 /home/leon/riotboard/arm-2012.09/bin/../arm-none-eabi/lib//libc.a(lib_a-dtoa.o)
 .ARM.attributes
                0x00001afa       0x30 /home/leon/riotboard/arm-2012.09/bin/../arm-none-eabi/lib//libc.a(lib_a-fflush.o)
 .ARM.attributes
                0x00001b2a       0x30 /home/leon/riotboard/arm-2012.09/bin/../arm-none-eabi/lib//libc.a(lib_a-findfp.o)
 .ARM.attributes
                0x00001b5a       0x30 /home/leon/riotboard/arm-2012.09/bin/../arm-none-eabi/lib//libc.a(lib_a-fputwc.o)
 .ARM.attributes
                0x00001b8a       0x30 /home/leon/riotboard/arm-2012.09/bin/../arm-none-eabi/lib//libc.a(lib_a-freer.o)
 .ARM.attributes
                0x00001bba       0x30 /home/leon/riotboard/arm-2012.09/bin/../arm-none-eabi/lib//libc.a(lib_a-fvwrite.o)
 .ARM.attributes
                0x00001bea       0x30 /home/leon/riotboard/arm-2012.09/bin/../arm-none-eabi/lib//libc.a(lib_a-fwalk.o)
 .ARM.attributes
                0x00001c1a       0x30 /home/leon/riotboard/arm-2012.09/bin/../arm-none-eabi/lib//libc.a(lib_a-locale.o)
 .ARM.attributes
                0x00001c4a       0x30 /home/leon/riotboard/arm-2012.09/bin/../arm-none-eabi/lib//libc.a(lib_a-makebuf.o)
 .ARM.attributes
                0x00001c7a       0x30 /home/leon/riotboard/arm-2012.09/bin/../arm-none-eabi/lib//libc.a(lib_a-memchr.o)
 .ARM.attributes
                0x00001caa       0x30 /home/leon/riotboard/arm-2012.09/bin/../arm-none-eabi/lib//libc.a(lib_a-memmove.o)
 .ARM.attributes
                0x00001cda       0x30 /home/leon/riotboard/arm-2012.09/bin/../arm-none-eabi/lib//libc.a(lib_a-mprec.o)
 .ARM.attributes
                0x00001d0a       0x30 /home/leon/riotboard/arm-2012.09/bin/../arm-none-eabi/lib//libc.a(lib_a-reent.o)
 .ARM.attributes
                0x00001d3a       0x30 /home/leon/riotboard/arm-2012.09/bin/../arm-none-eabi/lib//libc.a(lib_a-refill.o)
 .ARM.attributes
                0x00001d6a       0x30 /home/leon/riotboard/arm-2012.09/bin/../arm-none-eabi/lib//libc.a(lib_a-s_fpclassify.o)
 .ARM.attributes
                0x00001d9a       0x30 /home/leon/riotboard/arm-2012.09/bin/../arm-none-eabi/lib//libc.a(lib_a-signal.o)
 .ARM.attributes
                0x00001dca       0x30 /home/leon/riotboard/arm-2012.09/bin/../arm-none-eabi/lib//libc.a(lib_a-signalr.o)
 .ARM.attributes
                0x00001dfa       0x30 /home/leon/riotboard/arm-2012.09/bin/../arm-none-eabi/lib//libc.a(lib_a-stdio.o)
 .ARM.attributes
                0x00001e2a       0x30 /home/leon/riotboard/arm-2012.09/bin/../arm-none-eabi/lib//libc.a(lib_a-strcmp.o)
 .ARM.attributes
                0x00001e5a       0x30 /home/leon/riotboard/arm-2012.09/bin/../arm-none-eabi/lib//libc.a(lib_a-svfiprintf.o)
 .ARM.attributes
                0x00001e8a       0x30 /home/leon/riotboard/arm-2012.09/bin/../arm-none-eabi/lib//libc.a(lib_a-wcrtomb.o)
 .ARM.attributes
                0x00001eba       0x30 /home/leon/riotboard/arm-2012.09/bin/../arm-none-eabi/lib//libc.a(lib_a-wctomb_r.o)
 .ARM.attributes
                0x00001eea       0x30 /home/leon/riotboard/arm-2012.09/bin/../arm-none-eabi/lib//libc.a(lib_a-writer.o)
 .ARM.attributes
                0x00001f1a       0x30 /home/leon/riotboard/arm-2012.09/bin/../arm-none-eabi/lib//libc.a(lib_a-callocr.o)
 .ARM.attributes
                0x00001f4a       0x30 /home/leon/riotboard/arm-2012.09/bin/../arm-none-eabi/lib//libc.a(lib_a-closer.o)
 .ARM.attributes
                0x00001f7a       0x30 /home/leon/riotboard/arm-2012.09/bin/../arm-none-eabi/lib//libc.a(lib_a-fclose.o)
 .ARM.attributes
                0x00001faa       0x30 /home/leon/riotboard/arm-2012.09/bin/../arm-none-eabi/lib//libc.a(lib_a-fstatr.o)
 .ARM.attributes
                0x00001fda       0x30 /home/leon/riotboard/arm-2012.09/bin/../arm-none-eabi/lib//libc.a(lib_a-isattyr.o)
 .ARM.attributes
                0x0000200a       0x30 /home/leon/riotboard/arm-2012.09/bin/../arm-none-eabi/lib//libc.a(lib_a-lseekr.o)
 .ARM.attributes
                0x0000203a       0x30 /home/leon/riotboard/arm-2012.09/bin/../arm-none-eabi/lib//libc.a(lib_a-readr.o)
 .ARM.attributes
                0x0000206a       0x18 /home/leon/riotboard/arm-2012.09/bin/../lib/gcc/arm-none-eabi/4.7.2//libgcc.a(_udivsi3.o)
 .ARM.attributes
                0x00002082       0x18 /home/leon/riotboard/arm-2012.09/bin/../lib/gcc/arm-none-eabi/4.7.2//libgcc.a(_dvmd_tls.o)
 .ARM.attributes
                0x0000209a       0x18 /home/leon/riotboard/arm-2012.09/bin/../lib/gcc/arm-none-eabi/4.7.2//libgcc.a(_arm_addsubdf3.o)
 .ARM.attributes
                0x000020b2       0x18 /home/leon/riotboard/arm-2012.09/bin/../lib/gcc/arm-none-eabi/4.7.2//libgcc.a(_arm_muldivdf3.o)
 .ARM.attributes
                0x000020ca       0x18 /home/leon/riotboard/arm-2012.09/bin/../lib/gcc/arm-none-eabi/4.7.2//libgcc.a(_arm_cmpdf2.o)
 .ARM.attributes
                0x000020e2       0x18 /home/leon/riotboard/arm-2012.09/bin/../lib/gcc/arm-none-eabi/4.7.2//libgcc.a(_arm_fixdfsi.o)
 .ARM.attributes
                0x000020fa       0x18 /home/leon/riotboard/arm-2012.09/bin/../lib/gcc/arm-none-eabi/4.7.2//libgcc.a(_arm_addsubsf3.o)
 .ARM.attributes
                0x00002112       0x18 /home/leon/riotboard/arm-2012.09/bin/../lib/gcc/arm-none-eabi/4.7.2//libgcc.a(_arm_muldivsf3.o)
 .ARM.attributes
                0x0000212a       0x18 /home/leon/riotboard/arm-2012.09/bin/../lib/gcc/arm-none-eabi/4.7.2//libgcc.a(_arm_cmpsf2.o)
 .ARM.attributes
                0x00002142       0x18 /home/leon/riotboard/arm-2012.09/bin/../lib/gcc/arm-none-eabi/4.7.2//libgcc.a(_arm_fixsfsi.o)
 .ARM.attributes
                0x0000215a       0x18 /home/leon/riotboard/arm-2012.09/bin/../lib/gcc/arm-none-eabi/4.7.2//libgcc.a(_aeabi_uldivmod.o)
 .ARM.attributes
                0x00002172       0x30 /home/leon/riotboard/arm-2012.09/bin/../lib/gcc/arm-none-eabi/4.7.2//libgcc.a(bpabi.o)
 .ARM.attributes
                0x000021a2       0x30 /home/leon/riotboard/arm-2012.09/bin/../lib/gcc/arm-none-eabi/4.7.2//libgcc.a(_divdi3.o)
 .ARM.attributes
                0x000021d2       0x30 /home/leon/riotboard/arm-2012.09/bin/../lib/gcc/arm-none-eabi/4.7.2//libgcc.a(_udivdi3.o)
 .ARM.attributes
                0x00002202       0x18 /home/leon/riotboard/arm-2012.09/bin/../lib/gcc/arm-none-eabi/4.7.2//libgcc.a(_clzsi2.o)
 .ARM.attributes
                0x0000221a       0x39 /home/leon/git/swp-report/iMX6_Platform_SDK/output/mx6sl/lib/libsdk.a(profile.o)
 .ARM.attributes
                0x00002253       0x39 /home/leon/git/swp-report/iMX6_Platform_SDK/output/mx6sl/lib/libsdk.a(armv7_cache.o)
 .ARM.attributes
                0x0000228c       0x39 /home/leon/git/swp-report/iMX6_Platform_SDK/output/mx6sl/lib/libsdk.a(runtime_support.o)
 .ARM.attributes
                0x000022c5       0x39 /home/leon/git/swp-report/iMX6_Platform_SDK/output/mx6sl/lib/libsdk.a(imx_audmux.o)
 .ARM.attributes
                0x000022fe       0x39 /home/leon/git/swp-report/iMX6_Platform_SDK/output/mx6sl/lib/libsdk.a(snd_card.o)
 .ARM.attributes
                0x00002337       0x39 /home/leon/git/swp-report/iMX6_Platform_SDK/output/mx6sl/lib/libsdk.a(wm8962.o)
 .ARM.attributes
                0x00002370       0x39 /home/leon/git/swp-report/iMX6_Platform_SDK/output/mx6sl/lib/libsdk.a(csi_drv.o)
 .ARM.attributes
                0x000023a9       0x39 /home/leon/git/swp-report/iMX6_Platform_SDK/output/mx6sl/lib/libsdk.a(smd_sensor.o)
 .ARM.attributes
                0x000023e2       0x39 /home/leon/git/swp-report/iMX6_Platform_SDK/output/mx6sl/lib/libsdk.a(cpu_workpoint.o)
 .ARM.attributes
                0x0000241b       0x39 /home/leon/git/swp-report/iMX6_Platform_SDK/output/mx6sl/lib/libsdk.a(mxc_epdc.o)
 .ARM.attributes
                0x00002454       0x39 /home/leon/git/swp-report/iMX6_Platform_SDK/output/mx6sl/lib/libsdk.a(fec_drv.o)
 .ARM.attributes
                0x0000248d       0x39 /home/leon/git/swp-report/iMX6_Platform_SDK/output/mx6sl/lib/libsdk.a(gpio.o)
 .ARM.attributes
                0x000024c6       0x39 /home/leon/git/swp-report/iMX6_Platform_SDK/output/mx6sl/lib/libsdk.a(imx6sl_gpio_map.o)
 .ARM.attributes
                0x000024ff       0x39 /home/leon/git/swp-report/iMX6_Platform_SDK/output/mx6sl/lib/libsdk.a(imx_i2c.o)
 .ARM.attributes
                0x00002538       0x39 /home/leon/git/swp-report/iMX6_Platform_SDK/output/mx6sl/lib/libsdk.a(imx_i2c_slave.o)
 .ARM.attributes
                0x00002571       0x39 /home/leon/git/swp-report/iMX6_Platform_SDK/output/mx6sl/lib/libsdk.a(lcdif_drv.o)
 .ARM.attributes
                0x000025aa       0x39 /home/leon/git/swp-report/iMX6_Platform_SDK/output/mx6sl/lib/libsdk.a(pxp_drv.o)
 .ARM.attributes
                0x000025e3       0x39 /home/leon/git/swp-report/iMX6_Platform_SDK/output/mx6sl/lib/libsdk.a(ocotp.o)
 .ARM.attributes
                0x0000261c       0x39 /home/leon/git/swp-report/iMX6_Platform_SDK/output/mx6sl/lib/libsdk.a(pmu_driver.o)
 .ARM.attributes
                0x00002655       0x39 /home/leon/git/swp-report/iMX6_Platform_SDK/output/mx6sl/lib/libsdk.a(pwm.o)
 .ARM.attributes
                0x0000268e       0x39 /home/leon/git/swp-report/iMX6_Platform_SDK/output/mx6sl/lib/libsdk.a(rtc.o)
 .ARM.attributes
                0x000026c7       0x39 /home/leon/git/swp-report/iMX6_Platform_SDK/output/mx6sl/lib/libsdk.a(srtc.o)
 .ARM.attributes
                0x00002700       0x39 /home/leon/git/swp-report/iMX6_Platform_SDK/output/mx6sl/lib/libsdk.a(sdma.o)
 .ARM.attributes
                0x00002739       0x39 /home/leon/git/swp-report/iMX6_Platform_SDK/output/mx6sl/lib/libsdk.a(sdma_script_info.o)
 .ARM.attributes
                0x00002772       0x39 /home/leon/git/swp-report/iMX6_Platform_SDK/output/mx6sl/lib/libsdk.a(snvs.o)
 .ARM.attributes
                0x000027ab       0x39 /home/leon/git/swp-report/iMX6_Platform_SDK/output/mx6sl/lib/libsdk.a(mxc_spdc.o)
 .ARM.attributes
                0x000027e4       0x39 /home/leon/git/swp-report/iMX6_Platform_SDK/output/mx6sl/lib/libsdk.a(ecspi.o)
 .ARM.attributes
                0x0000281d       0x39 /home/leon/git/swp-report/iMX6_Platform_SDK/output/mx6sl/lib/libsdk.a(tempmon.o)
 .ARM.attributes
                0x00002856       0x39 /home/leon/git/swp-report/iMX6_Platform_SDK/output/mx6sl/lib/libsdk.a(gpt.o)
 .ARM.attributes
                0x0000288f       0x39 /home/leon/git/swp-report/iMX6_Platform_SDK/output/mx6sl/lib/libsdk.a(usb_common.o)
 .ARM.attributes
                0x000028c8       0x39 /home/leon/git/swp-report/iMX6_Platform_SDK/output/mx6sl/lib/libsdk.a(usbd_drv.o)
 .ARM.attributes
                0x00002901       0x39 /home/leon/git/swp-report/iMX6_Platform_SDK/output/mx6sl/lib/libsdk.a(usbh_drv.o)
 .ARM.attributes
                0x0000293a       0x39 /home/leon/git/swp-report/iMX6_Platform_SDK/output/mx6sl/lib/libsdk.a(usdhc.o)
 .ARM.attributes
                0x00002973       0x39 /home/leon/git/swp-report/iMX6_Platform_SDK/output/mx6sl/lib/libsdk.a(usdhc_host.o)
 .ARM.attributes
                0x000029ac       0x39 /home/leon/git/swp-report/iMX6_Platform_SDK/output/mx6sl/lib/libsdk.a(usdhc_mmc.o)
 .ARM.attributes
                0x000029e5       0x39 /home/leon/git/swp-report/iMX6_Platform_SDK/output/mx6sl/lib/libsdk.a(usdhc_sd.o)
 .ARM.attributes
                0x00002a1e       0x39 /home/leon/git/swp-report/iMX6_Platform_SDK/output/mx6sl/lib/libsdk.a(imx-ssi.o)
 .ARM.attributes
                0x00002a57       0x39 /home/leon/git/swp-report/iMX6_Platform_SDK/output/mx6sl/lib/libsdk.a(imx_spdif.o)
 .ARM.attributes
                0x00002a90       0x39 /home/leon/git/swp-report/iMX6_Platform_SDK/output/mx6sl/lib/libsdk.a(camera_profile.o)
 .ARM.attributes
                0x00002ac9       0x39 /home/leon/git/swp-report/iMX6_Platform_SDK/output/mx6sl/lib/libsdk.a(mx6x_usb.o)
 .ARM.attributes
                0x00002b02       0x39 /home/leon/git/swp-report/iMX6_Platform_SDK/output/mx6sl/lib/libboard_evk_rev_a.a(board_audio.o)
 .ARM.attributes
                0x00002b3b       0x39 /home/leon/git/swp-report/iMX6_Platform_SDK/output/mx6sl/lib/libboard_evk_rev_a.a(board_camera.o)
 .ARM.attributes
                0x00002b74       0x39 /home/leon/git/swp-report/iMX6_Platform_SDK/output/mx6sl/lib/libboard_evk_rev_a.a(board_display.o)
 .ARM.attributes
                0x00002bad       0x39 /home/leon/git/swp-report/iMX6_Platform_SDK/output/mx6sl/lib/libboard_evk_rev_a.a(board_i2c.o)
 .ARM.attributes
                0x00002be6       0x39 /home/leon/git/swp-report/iMX6_Platform_SDK/output/mx6sl/lib/libboard_evk_rev_a.a(board_usb.o)
 .ARM.attributes
                0x00002c1f       0x39 /home/leon/git/swp-report/iMX6_Platform_SDK/output/mx6sl/lib/libboard_evk_rev_a.a(board_usdhc.o)
 .ARM.attributes
                0x00002c58       0x39 /home/leon/git/swp-report/iMX6_Platform_SDK/output/mx6sl/lib/libboard_evk_rev_a.a(ecspi_iomux_config.o)
 .ARM.attributes
                0x00002c91       0x39 /home/leon/git/swp-report/iMX6_Platform_SDK/output/mx6sl/lib/libboard_evk_rev_a.a(i2c_iomux_config.o)
 .ARM.attributes
                0x00002cca       0x39 /home/leon/git/swp-report/iMX6_Platform_SDK/output/mx6sl/lib/libboard_evk_rev_a.a(pwm_iomux_config.o)
 .ARM.attributes
                0x00002d03       0x39 /home/leon/git/swp-report/iMX6_Platform_SDK/output/mx6sl/lib/libboard_evk_rev_a.a(usdhc_iomux_config.o)
 .ARM.attributes
                0x00002d3c       0x30 /home/leon/riotboard/arm-2012.09/bin/../arm-none-eabi/lib//libstdc++.a(pure.o)
 .ARM.attributes
                0x00002d6c       0x30 /home/leon/riotboard/arm-2012.09/bin/../arm-none-eabi/lib//libstdc++.a(eh_terminate.o)
 .ARM.attributes
                0x00002d9c       0x30 /home/leon/riotboard/arm-2012.09/bin/../arm-none-eabi/lib//libstdc++.a(eh_unex_handler.o)
 .ARM.attributes
                0x00002dcc       0x30 /home/leon/riotboard/arm-2012.09/bin/../arm-none-eabi/lib//libstdc++.a(eh_call.o)
 .ARM.attributes
                0x00002dfc       0x30 /home/leon/riotboard/arm-2012.09/bin/../arm-none-eabi/lib//libstdc++.a(eh_throw.o)
 .ARM.attributes
                0x00002e2c       0x30 /home/leon/riotboard/arm-2012.09/bin/../arm-none-eabi/lib//libstdc++.a(eh_arm.o)
 .ARM.attributes
                0x00002e5c       0x30 /home/leon/riotboard/arm-2012.09/bin/../arm-none-eabi/lib//libstdc++.a(eh_exception.o)
 .ARM.attributes
                0x00002e8c       0x30 /home/leon/riotboard/arm-2012.09/bin/../arm-none-eabi/lib//libstdc++.a(eh_alloc.o)
 .ARM.attributes
                0x00002ebc       0x30 /home/leon/riotboard/arm-2012.09/bin/../arm-none-eabi/lib//libstdc++.a(eh_globals.o)
 .ARM.attributes
                0x00002eec       0x30 /home/leon/riotboard/arm-2012.09/bin/../arm-none-eabi/lib//libstdc++.a(si_class_type_info.o)
 .ARM.attributes
                0x00002f1c       0x30 /home/leon/riotboard/arm-2012.09/bin/../arm-none-eabi/lib//libstdc++.a(eh_personality.o)
 .ARM.attributes
                0x00002f4c       0x30 /home/leon/riotboard/arm-2012.09/bin/../arm-none-eabi/lib//libstdc++.a(eh_term_handler.o)
 .ARM.attributes
                0x00002f7c       0x30 /home/leon/riotboard/arm-2012.09/bin/../arm-none-eabi/lib//libstdc++.a(eh_catch.o)
 .ARM.attributes
                0x00002fac       0x30 /home/leon/riotboard/arm-2012.09/bin/../arm-none-eabi/lib//libstdc++.a(class_type_info.o)
 .ARM.attributes
                0x00002fdc       0x30 /home/leon/riotboard/arm-2012.09/bin/../arm-none-eabi/lib//libstdc++.a(vterminate.o)
 .ARM.attributes
                0x0000300c       0x30 /home/leon/riotboard/arm-2012.09/bin/../arm-none-eabi/lib//libstdc++.a(cp-demangle.o)
 .ARM.attributes
                0x0000303c       0x30 /home/leon/riotboard/arm-2012.09/bin/../arm-none-eabi/lib//libstdc++.a(eh_type.o)
 .ARM.attributes
                0x0000306c       0x30 /home/leon/riotboard/arm-2012.09/bin/../arm-none-eabi/lib//libstdc++.a(del_op.o)
 .ARM.attributes
                0x0000309c       0x30 /home/leon/riotboard/arm-2012.09/bin/../arm-none-eabi/lib//libstdc++.a(tinfo.o)
 .ARM.attributes
                0x000030cc       0x30 /home/leon/riotboard/arm-2012.09/bin/../arm-none-eabi/lib//libc.a(lib_a-fputs.o)
 .ARM.attributes
                0x000030fc       0x30 /home/leon/riotboard/arm-2012.09/bin/../arm-none-eabi/lib//libc.a(lib_a-fwrite.o)
 .ARM.attributes
                0x0000312c       0x30 /home/leon/riotboard/arm-2012.09/bin/../arm-none-eabi/lib//libc.a(lib_a-memcmp.o)
 .ARM.attributes
                0x0000315c       0x30 /home/leon/riotboard/arm-2012.09/bin/../arm-none-eabi/lib//libc.a(lib_a-strncmp.o)
 .ARM.attributes
                0x0000318c       0x30 /home/leon/riotboard/arm-2012.09/bin/../arm-none-eabi/lib//libc.a(lib_a-syswrite.o)
 .ARM.attributes
                0x000031bc       0x18 /home/leon/riotboard/arm-2012.09/bin/../lib/gcc/arm-none-eabi/4.7.2//libgcc.a(_divsi3.o)
 .ARM.attributes
                0x000031d4       0x30 /home/leon/riotboard/arm-2012.09/bin/../lib/gcc/arm-none-eabi/4.7.2//libgcc.a(unwind-arm.o)
 .ARM.attributes
                0x00003204       0x1c /home/leon/riotboard/arm-2012.09/bin/../lib/gcc/arm-none-eabi/4.7.2//libgcc.a(libunwind.o)
 .ARM.attributes
                0x00003220       0x30 /home/leon/riotboard/arm-2012.09/bin/../lib/gcc/arm-none-eabi/4.7.2//libgcc.a(pr-support.o)
 .ARM.attributes
                0x00003250       0x39 /home/leon/git/swp-report/iMX6_Platform_SDK/output/mx6sl/lib/libsdk.a(pf0100.o)

.comment        0x00000000       0x30
 .comment       0x00000000       0x30 /home/leon/git/swp-report/iMX6_Platform_SDK/output/mx6sl/sdk_unit_test/evk_rev_a/obj/apps/common/ivt.o
                                 0x31 (size before relaxing)
 .comment       0x00000000       0x31 /home/leon/git/swp-report/iMX6_Platform_SDK/output/mx6sl/sdk_unit_test/evk_rev_a/obj/apps/common/platform_init.o
 .comment       0x00000000       0x31 /home/leon/git/swp-report/iMX6_Platform_SDK/output/mx6sl/sdk_unit_test/evk_rev_a/obj/apps/common/print_clock_info.o
 .comment       0x00000000       0x31 /home/leon/git/swp-report/iMX6_Platform_SDK/output/mx6sl/sdk_unit_test/evk_rev_a/obj/apps/common/print_version.o
 .comment       0x00000000       0x31 /home/leon/git/swp-report/iMX6_Platform_SDK/output/mx6sl/sdk_unit_test/evk_rev_a/obj/apps/sdk_unit_test/src/all_test.o
 .comment       0x00000000       0x31 /home/leon/git/swp-report/iMX6_Platform_SDK/output/mx6sl/sdk_unit_test/evk_rev_a/obj/apps/sdk_unit_test/src/unit_test_main.o
 .comment       0x00000000       0x31 /home/leon/git/swp-report/iMX6_Platform_SDK/output/mx6sl/lib/libsdk.a(ccm_pll.o)
 .comment       0x00000000       0x31 /home/leon/git/swp-report/iMX6_Platform_SDK/output/mx6sl/lib/libsdk.a(gic.o)
 .comment       0x00000000       0x31 /home/leon/git/swp-report/iMX6_Platform_SDK/output/mx6sl/lib/libsdk.a(mmu.o)
 .comment       0x00000000       0x31 /home/leon/git/swp-report/iMX6_Platform_SDK/output/mx6sl/lib/libsdk.a(menu.o)
 .comment       0x00000000       0x31 /home/leon/git/swp-report/iMX6_Platform_SDK/output/mx6sl/lib/libsdk.a(sdk_version.o)
 .comment       0x00000000       0x31 /home/leon/git/swp-report/iMX6_Platform_SDK/output/mx6sl/lib/libsdk.a(system_util.o)
 .comment       0x00000000       0x31 /home/leon/git/swp-report/iMX6_Platform_SDK/output/mx6sl/lib/libsdk.a(text_color.o)
 .comment       0x00000000       0x31 /home/leon/git/swp-report/iMX6_Platform_SDK/output/mx6sl/lib/libsdk.a(board_id.o)
 .comment       0x00000000       0x31 /home/leon/git/swp-report/iMX6_Platform_SDK/output/mx6sl/lib/libsdk.a(timer.o)
 .comment       0x00000000       0x31 /home/leon/git/swp-report/iMX6_Platform_SDK/output/mx6sl/lib/libsdk.a(imx_uart.o)
 .comment       0x00000000       0x31 /home/leon/git/swp-report/iMX6_Platform_SDK/output/mx6sl/lib/libsdk.a(interrupt.o)
 .comment       0x00000000       0x31 /home/leon/git/swp-report/iMX6_Platform_SDK/output/mx6sl/lib/libsdk.a(epit.o)
 .comment       0x00000000       0x31 /home/leon/git/swp-report/iMX6_Platform_SDK/output/mx6sl/lib/libsdk.a(abort_handler.o)
 .comment       0x00000000       0x31 /home/leon/git/swp-report/iMX6_Platform_SDK/output/mx6sl/lib/libboard_evk_rev_a.a(board_io_expanders.o)
 .comment       0x00000000       0x31 /home/leon/git/swp-report/iMX6_Platform_SDK/output/mx6sl/lib/libboard_evk_rev_a.a(dcd.o)
 .comment       0x00000000       0x31 /home/leon/git/swp-report/iMX6_Platform_SDK/output/mx6sl/lib/libboard_evk_rev_a.a(hardware_modules.o)
 .comment       0x00000000       0x31 /home/leon/git/swp-report/iMX6_Platform_SDK/output/mx6sl/lib/libboard_evk_rev_a.a(uart_iomux_config.o)
 .comment       0x00000000       0x31 /home/leon/git/swp-report/iMX6_Platform_SDK/output/mx6sl/lib/libboard_evk_rev_a.a(iomux_config.o)
 .comment       0x00000000       0x31 /home/leon/git/swp-report/iMX6_Platform_SDK/output/mx6sl/lib/libboard_evk_rev_a.a(kpp_iomux_config.o)
 .comment       0x00000000       0x31 /home/leon/git/swp-report/iMX6_Platform_SDK/output/mx6sl/lib/libboard_evk_rev_a.a(lcd_iomux_config.o)
 .comment       0x00000000       0x31 /home/leon/git/swp-report/iMX6_Platform_SDK/output/mx6sl/lib/libboard_evk_rev_a.a(mmdc_iomux_config.o)
 .comment       0x00000000       0x31 /home/leon/git/swp-report/iMX6_Platform_SDK/output/mx6sl/lib/libboard_evk_rev_a.a(pwm1_iomux_config.o)
 .comment       0x00000000       0x31 /home/leon/git/swp-report/iMX6_Platform_SDK/output/mx6sl/lib/libboard_evk_rev_a.a(sjc_iomux_config.o)
 .comment       0x00000000       0x31 /home/leon/git/swp-report/iMX6_Platform_SDK/output/mx6sl/lib/libboard_evk_rev_a.a(spdc_iomux_config.o)
 .comment       0x00000000       0x31 /home/leon/git/swp-report/iMX6_Platform_SDK/output/mx6sl/lib/libboard_evk_rev_a.a(uart1_iomux_config.o)
 .comment       0x00000000       0x31 /home/leon/git/swp-report/iMX6_Platform_SDK/output/mx6sl/lib/libboard_evk_rev_a.a(usb_iomux_config.o)
 .comment       0x00000000       0x31 /home/leon/git/swp-report/iMX6_Platform_SDK/output/mx6sl/lib/libboard_evk_rev_a.a(usdhc1_iomux_config.o)
 .comment       0x00000000       0x31 /home/leon/git/swp-report/iMX6_Platform_SDK/output/mx6sl/lib/libboard_evk_rev_a.a(usdhc2_iomux_config.o)
 .comment       0x00000000       0x31 /home/leon/git/swp-report/iMX6_Platform_SDK/output/mx6sl/lib/libboard_evk_rev_a.a(usdhc3_iomux_config.o)
 .comment       0x00000000       0x31 /home/leon/git/swp-report/iMX6_Platform_SDK/output/mx6sl/lib/libboard_evk_rev_a.a(wdog1_iomux_config.o)
 .comment       0x00000000       0x31 /home/leon/git/swp-report/iMX6_Platform_SDK/output/mx6sl/lib/libboard_evk_rev_a.a(audmux_iomux_config.o)
 .comment       0x00000000       0x31 /home/leon/git/swp-report/iMX6_Platform_SDK/output/mx6sl/lib/libboard_evk_rev_a.a(csi_iomux_config.o)
 .comment       0x00000000       0x31 /home/leon/git/swp-report/iMX6_Platform_SDK/output/mx6sl/lib/libboard_evk_rev_a.a(ecspi1_iomux_config.o)
 .comment       0x00000000       0x31 /home/leon/git/swp-report/iMX6_Platform_SDK/output/mx6sl/lib/libboard_evk_rev_a.a(ecspi2_iomux_config.o)
 .comment       0x00000000       0x31 /home/leon/git/swp-report/iMX6_Platform_SDK/output/mx6sl/lib/libboard_evk_rev_a.a(epdc_iomux_config.o)
 .comment       0x00000000       0x31 /home/leon/git/swp-report/iMX6_Platform_SDK/output/mx6sl/lib/libboard_evk_rev_a.a(fec_iomux_config.o)
 .comment       0x00000000       0x31 /home/leon/git/swp-report/iMX6_Platform_SDK/output/mx6sl/lib/libboard_evk_rev_a.a(gpio1_iomux_config.o)
 .comment       0x00000000       0x31 /home/leon/git/swp-report/iMX6_Platform_SDK/output/mx6sl/lib/libboard_evk_rev_a.a(gpio4_iomux_config.o)
 .comment       0x00000000       0x31 /home/leon/git/swp-report/iMX6_Platform_SDK/output/mx6sl/lib/libboard_evk_rev_a.a(i2c1_iomux_config.o)
 .comment       0x00000000       0x31 /home/leon/git/swp-report/iMX6_Platform_SDK/output/mx6sl/lib/libboard_evk_rev_a.a(i2c2_iomux_config.o)
 .comment       0x00000000       0x31 /home/leon/git/swp-report/iMX6_Platform_SDK/output/mx6sl/lib/libboard_evk_rev_a.a(i2c3_iomux_config.o)
 .comment       0x00000000       0x31 /home/leon/git/swp-report/iMX6_Platform_SDK/output/mx6sl/sdk_unit_test/evk_rev_a/libsdk_unit_test.a(cpu_wp_test.o)
 .comment       0x00000000       0x31 /home/leon/git/swp-report/iMX6_Platform_SDK/output/mx6sl/sdk_unit_test/evk_rev_a/libsdk_unit_test.a(audio_test.o)
 .comment       0x00000000       0x31 /home/leon/git/swp-report/iMX6_Platform_SDK/output/mx6sl/sdk_unit_test/evk_rev_a/libsdk_unit_test.a(ssi_playback.o)
 .comment       0x00000000       0x31 /home/leon/git/swp-report/iMX6_Platform_SDK/output/mx6sl/sdk_unit_test/evk_rev_a/libsdk_unit_test.a(gic_test.o)
 .comment       0x00000000       0x31 /home/leon/git/swp-report/iMX6_Platform_SDK/output/mx6sl/sdk_unit_test/evk_rev_a/libsdk_unit_test.a(ocotp_test.o)
 .comment       0x00000000       0x31 /home/leon/git/swp-report/iMX6_Platform_SDK/output/mx6sl/sdk_unit_test/evk_rev_a/libsdk_unit_test.a(i2c_test.o)
 .comment       0x00000000       0x31 /home/leon/git/swp-report/iMX6_Platform_SDK/output/mx6sl/sdk_unit_test/evk_rev_a/libsdk_unit_test.a(imx6_i2c_device.o)
 .comment       0x00000000       0x31 /home/leon/git/swp-report/iMX6_Platform_SDK/output/mx6sl/sdk_unit_test/evk_rev_a/libsdk_unit_test.a(snvs_rtc_test.o)
 .comment       0x00000000       0x31 /home/leon/git/swp-report/iMX6_Platform_SDK/output/mx6sl/sdk_unit_test/evk_rev_a/libsdk_unit_test.a(snvs_srtc_test.o)
 .comment       0x00000000       0x31 /home/leon/git/swp-report/iMX6_Platform_SDK/output/mx6sl/sdk_unit_test/evk_rev_a/libsdk_unit_test.a(tempmon_test.o)
 .comment       0x00000000       0x31 /home/leon/git/swp-report/iMX6_Platform_SDK/output/mx6sl/sdk_unit_test/evk_rev_a/libsdk_unit_test.a(sdma_test.o)
 .comment       0x00000000       0x31 /home/leon/git/swp-report/iMX6_Platform_SDK/output/mx6sl/sdk_unit_test/evk_rev_a/libsdk_unit_test.a(spi_lpb.o)
 .comment       0x00000000       0x31 /home/leon/git/swp-report/iMX6_Platform_SDK/output/mx6sl/sdk_unit_test/evk_rev_a/libsdk_unit_test.a(uart_loopback.o)
 .comment       0x00000000       0x31 /home/leon/git/swp-report/iMX6_Platform_SDK/output/mx6sl/sdk_unit_test/evk_rev_a/libsdk_unit_test.a(epit_test.o)
 .comment       0x00000000       0x31 /home/leon/git/swp-report/iMX6_Platform_SDK/output/mx6sl/sdk_unit_test/evk_rev_a/libsdk_unit_test.a(gpt_test.o)
 .comment       0x00000000       0x31 /home/leon/git/swp-report/iMX6_Platform_SDK/output/mx6sl/sdk_unit_test/evk_rev_a/libsdk_unit_test.a(timer_test.o)
 .comment       0x00000000       0x31 /home/leon/git/swp-report/iMX6_Platform_SDK/output/mx6sl/sdk_unit_test/evk_rev_a/libsdk_unit_test.a(uart_test.o)
 .comment       0x00000000       0x31 /home/leon/git/swp-report/iMX6_Platform_SDK/output/mx6sl/sdk_unit_test/evk_rev_a/libsdk_unit_test.a(usdhc_test.o)
 .comment       0x00000000       0x31 /home/leon/git/swp-report/iMX6_Platform_SDK/output/mx6sl/sdk_unit_test/evk_rev_a/libsdk_unit_test.a(pwm_test.o)
 .comment       0x00000000       0x31 /home/leon/git/swp-report/iMX6_Platform_SDK/output/mx6sl/sdk_unit_test/evk_rev_a/libsdk_unit_test.a(watchdog_test.o)
 .comment       0x00000000       0x31 /home/leon/git/swp-report/iMX6_Platform_SDK/output/mx6sl/sdk_unit_test/evk_rev_a/libsdk_unit_test.a(spi_test.o)
 .comment       0x00000000       0x31 /home/leon/git/swp-report/iMX6_Platform_SDK/output/mx6sl/sdk_unit_test/evk_rev_a/libsdk_unit_test.a(usb_test.o)
 .comment       0x00000000       0x31 /home/leon/git/swp-report/iMX6_Platform_SDK/output/mx6sl/sdk_unit_test/evk_rev_a/libsdk_unit_test.a(epdc_test.o)
 .comment       0x00000000       0x31 /home/leon/git/swp-report/iMX6_Platform_SDK/output/mx6sl/sdk_unit_test/evk_rev_a/libsdk_unit_test.a(lcdif_test.o)
 .comment       0x00000000       0x31 /home/leon/git/swp-report/iMX6_Platform_SDK/output/mx6sl/sdk_unit_test/evk_rev_a/libsdk_unit_test.a(camera_test.o)
 .comment       0x00000000       0x31 /home/leon/git/swp-report/iMX6_Platform_SDK/output/mx6sl/sdk_unit_test/evk_rev_a/libsdk_unit_test.a(csi_sensor_capture.o)
 .comment       0x00000000       0x31 /home/leon/git/swp-report/iMX6_Platform_SDK/output/mx6sl/sdk_unit_test/evk_rev_a/libsdk_unit_test.a(fec_test.o)
 .comment       0x00000000       0x31 /home/leon/git/swp-report/iMX6_Platform_SDK/output/mx6sl/sdk_unit_test/evk_rev_a/libsdk_unit_test.a(spdc_test.o)
 .comment       0x00000000       0x31 /home/leon/git/swp-report/iMX6_Platform_SDK/output/mx6sl/sdk_unit_test/evk_rev_a/libsdk_unit_test.a(at24cxx.o)
 .comment       0x00000000       0x31 /home/leon/git/swp-report/iMX6_Platform_SDK/output/mx6sl/sdk_unit_test/evk_rev_a/libsdk_unit_test.a(mem_2_mem.o)
 .comment       0x00000000       0x31 /home/leon/git/swp-report/iMX6_Platform_SDK/output/mx6sl/sdk_unit_test/evk_rev_a/libsdk_unit_test.a(pwm_output.o)
 .comment       0x00000000       0x31 /home/leon/git/swp-report/iMX6_Platform_SDK/output/mx6sl/sdk_unit_test/evk_rev_a/libsdk_unit_test.a(spi_nor_numonyx.o)
 .comment       0x00000000       0x31 /home/leon/git/swp-report/iMX6_Platform_SDK/output/mx6sl/sdk_unit_test/evk_rev_a/libsdk_unit_test.a(usb0_device_mouse_test.o)
 .comment       0x00000000       0x31 /home/leon/git/swp-report/iMX6_Platform_SDK/output/mx6sl/sdk_unit_test/evk_rev_a/libsdk_unit_test.a(usb0_host_test.o)
 .comment       0x00000000       0x31 /home/leon/git/swp-report/iMX6_Platform_SDK/output/mx6sl/sdk_unit_test/evk_rev_a/libsdk_unit_test.a(usb0_host_testmodes_test.o)
 .comment       0x00000000       0x31 /home/leon/git/swp-report/iMX6_Platform_SDK/output/mx6sl/sdk_unit_test/evk_rev_a/libsdk_unit_test.a(lcdif_display.o)
 .comment       0x00000000       0x31 /home/leon/git/swp-report/iMX6_Platform_SDK/output/mx6sl/sdk_unit_test/evk_rev_a/libsdk_unit_test.a(auo_lut.o)
 .comment       0x00000000       0x31 /home/leon/git/swp-report/iMX6_Platform_SDK/output/mx6sl/lib/libsdk.a(profile.o)
 .comment       0x00000000       0x31 /home/leon/git/swp-report/iMX6_Platform_SDK/output/mx6sl/lib/libsdk.a(armv7_cache.o)
 .comment       0x00000000       0x31 /home/leon/git/swp-report/iMX6_Platform_SDK/output/mx6sl/lib/libsdk.a(runtime_support.o)
 .comment       0x00000000       0x31 /home/leon/git/swp-report/iMX6_Platform_SDK/output/mx6sl/lib/libsdk.a(imx_audmux.o)
 .comment       0x00000000       0x31 /home/leon/git/swp-report/iMX6_Platform_SDK/output/mx6sl/lib/libsdk.a(snd_card.o)
 .comment       0x00000000       0x31 /home/leon/git/swp-report/iMX6_Platform_SDK/output/mx6sl/lib/libsdk.a(wm8962.o)
 .comment       0x00000000       0x31 /home/leon/git/swp-report/iMX6_Platform_SDK/output/mx6sl/lib/libsdk.a(csi_drv.o)
 .comment       0x00000000       0x31 /home/leon/git/swp-report/iMX6_Platform_SDK/output/mx6sl/lib/libsdk.a(smd_sensor.o)
 .comment       0x00000000       0x31 /home/leon/git/swp-report/iMX6_Platform_SDK/output/mx6sl/lib/libsdk.a(cpu_workpoint.o)
 .comment       0x00000000       0x31 /home/leon/git/swp-report/iMX6_Platform_SDK/output/mx6sl/lib/libsdk.a(mxc_epdc.o)
 .comment       0x00000000       0x31 /home/leon/git/swp-report/iMX6_Platform_SDK/output/mx6sl/lib/libsdk.a(fec_drv.o)
 .comment       0x00000000       0x31 /home/leon/git/swp-report/iMX6_Platform_SDK/output/mx6sl/lib/libsdk.a(gpio.o)
 .comment       0x00000000       0x31 /home/leon/git/swp-report/iMX6_Platform_SDK/output/mx6sl/lib/libsdk.a(imx6sl_gpio_map.o)
 .comment       0x00000000       0x31 /home/leon/git/swp-report/iMX6_Platform_SDK/output/mx6sl/lib/libsdk.a(imx_i2c.o)
 .comment       0x00000000       0x31 /home/leon/git/swp-report/iMX6_Platform_SDK/output/mx6sl/lib/libsdk.a(imx_i2c_slave.o)
 .comment       0x00000000       0x31 /home/leon/git/swp-report/iMX6_Platform_SDK/output/mx6sl/lib/libsdk.a(lcdif_drv.o)
 .comment       0x00000000       0x31 /home/leon/git/swp-report/iMX6_Platform_SDK/output/mx6sl/lib/libsdk.a(pxp_drv.o)
 .comment       0x00000000       0x31 /home/leon/git/swp-report/iMX6_Platform_SDK/output/mx6sl/lib/libsdk.a(ocotp.o)
 .comment       0x00000000       0x31 /home/leon/git/swp-report/iMX6_Platform_SDK/output/mx6sl/lib/libsdk.a(pmu_driver.o)
 .comment       0x00000000       0x31 /home/leon/git/swp-report/iMX6_Platform_SDK/output/mx6sl/lib/libsdk.a(pwm.o)
 .comment       0x00000000       0x31 /home/leon/git/swp-report/iMX6_Platform_SDK/output/mx6sl/lib/libsdk.a(rtc.o)
 .comment       0x00000000       0x31 /home/leon/git/swp-report/iMX6_Platform_SDK/output/mx6sl/lib/libsdk.a(srtc.o)
 .comment       0x00000000       0x31 /home/leon/git/swp-report/iMX6_Platform_SDK/output/mx6sl/lib/libsdk.a(sdma.o)
 .comment       0x00000000       0x31 /home/leon/git/swp-report/iMX6_Platform_SDK/output/mx6sl/lib/libsdk.a(sdma_script_info.o)
 .comment       0x00000000       0x31 /home/leon/git/swp-report/iMX6_Platform_SDK/output/mx6sl/lib/libsdk.a(snvs.o)
 .comment       0x00000000       0x31 /home/leon/git/swp-report/iMX6_Platform_SDK/output/mx6sl/lib/libsdk.a(mxc_spdc.o)
 .comment       0x00000000       0x31 /home/leon/git/swp-report/iMX6_Platform_SDK/output/mx6sl/lib/libsdk.a(ecspi.o)
 .comment       0x00000000       0x31 /home/leon/git/swp-report/iMX6_Platform_SDK/output/mx6sl/lib/libsdk.a(tempmon.o)
 .comment       0x00000000       0x31 /home/leon/git/swp-report/iMX6_Platform_SDK/output/mx6sl/lib/libsdk.a(gpt.o)
 .comment       0x00000000       0x31 /home/leon/git/swp-report/iMX6_Platform_SDK/output/mx6sl/lib/libsdk.a(usb_common.o)
 .comment       0x00000000       0x31 /home/leon/git/swp-report/iMX6_Platform_SDK/output/mx6sl/lib/libsdk.a(usbd_drv.o)
 .comment       0x00000000       0x31 /home/leon/git/swp-report/iMX6_Platform_SDK/output/mx6sl/lib/libsdk.a(usbh_drv.o)
 .comment       0x00000000       0x31 /home/leon/git/swp-report/iMX6_Platform_SDK/output/mx6sl/lib/libsdk.a(usdhc.o)
 .comment       0x00000000       0x31 /home/leon/git/swp-report/iMX6_Platform_SDK/output/mx6sl/lib/libsdk.a(usdhc_host.o)
 .comment       0x00000000       0x31 /home/leon/git/swp-report/iMX6_Platform_SDK/output/mx6sl/lib/libsdk.a(usdhc_mmc.o)
 .comment       0x00000000       0x31 /home/leon/git/swp-report/iMX6_Platform_SDK/output/mx6sl/lib/libsdk.a(usdhc_sd.o)
 .comment       0x00000000       0x31 /home/leon/git/swp-report/iMX6_Platform_SDK/output/mx6sl/lib/libsdk.a(imx-ssi.o)
 .comment       0x00000000       0x31 /home/leon/git/swp-report/iMX6_Platform_SDK/output/mx6sl/lib/libsdk.a(imx_spdif.o)
 .comment       0x00000000       0x31 /home/leon/git/swp-report/iMX6_Platform_SDK/output/mx6sl/lib/libsdk.a(camera_profile.o)
 .comment       0x00000000       0x31 /home/leon/git/swp-report/iMX6_Platform_SDK/output/mx6sl/lib/libsdk.a(mx6x_usb.o)
 .comment       0x00000000       0x31 /home/leon/git/swp-report/iMX6_Platform_SDK/output/mx6sl/lib/libboard_evk_rev_a.a(board_audio.o)
 .comment       0x00000000       0x31 /home/leon/git/swp-report/iMX6_Platform_SDK/output/mx6sl/lib/libboard_evk_rev_a.a(board_camera.o)
 .comment       0x00000000       0x31 /home/leon/git/swp-report/iMX6_Platform_SDK/output/mx6sl/lib/libboard_evk_rev_a.a(board_display.o)
 .comment       0x00000000       0x31 /home/leon/git/swp-report/iMX6_Platform_SDK/output/mx6sl/lib/libboard_evk_rev_a.a(board_i2c.o)
 .comment       0x00000000       0x31 /home/leon/git/swp-report/iMX6_Platform_SDK/output/mx6sl/lib/libboard_evk_rev_a.a(board_usb.o)
 .comment       0x00000000       0x31 /home/leon/git/swp-report/iMX6_Platform_SDK/output/mx6sl/lib/libboard_evk_rev_a.a(board_usdhc.o)
 .comment       0x00000000       0x31 /home/leon/git/swp-report/iMX6_Platform_SDK/output/mx6sl/lib/libboard_evk_rev_a.a(ecspi_iomux_config.o)
 .comment       0x00000000       0x31 /home/leon/git/swp-report/iMX6_Platform_SDK/output/mx6sl/lib/libboard_evk_rev_a.a(i2c_iomux_config.o)
 .comment       0x00000000       0x31 /home/leon/git/swp-report/iMX6_Platform_SDK/output/mx6sl/lib/libboard_evk_rev_a.a(pwm_iomux_config.o)
 .comment       0x00000000       0x31 /home/leon/git/swp-report/iMX6_Platform_SDK/output/mx6sl/lib/libboard_evk_rev_a.a(usdhc_iomux_config.o)
 .comment       0x00000000       0x31 /home/leon/git/swp-report/iMX6_Platform_SDK/output/mx6sl/lib/libsdk.a(pf0100.o)

.debug_info     0x00000000    0x5956b
 .debug_info    0x00000000      0x228 /home/leon/git/swp-report/iMX6_Platform_SDK/output/mx6sl/sdk_unit_test/evk_rev_a/obj/apps/common/ivt.o
 .debug_info    0x00000228      0x135 /home/leon/git/swp-report/iMX6_Platform_SDK/output/mx6sl/sdk_unit_test/evk_rev_a/obj/apps/common/platform_init.o
 .debug_info    0x0000035d      0x17b /home/leon/git/swp-report/iMX6_Platform_SDK/output/mx6sl/sdk_unit_test/evk_rev_a/obj/apps/common/print_clock_info.o
 .debug_info    0x000004d8      0x1bd /home/leon/git/swp-report/iMX6_Platform_SDK/output/mx6sl/sdk_unit_test/evk_rev_a/obj/apps/common/print_version.o
 .debug_info    0x00000695      0x276 /home/leon/git/swp-report/iMX6_Platform_SDK/output/mx6sl/sdk_unit_test/evk_rev_a/obj/apps/sdk_unit_test/src/all_test.o
 .debug_info    0x0000090b       0x9b /home/leon/git/swp-report/iMX6_Platform_SDK/output/mx6sl/sdk_unit_test/evk_rev_a/obj/apps/sdk_unit_test/src/unit_test_main.o
 .debug_info    0x000009a6     0x16b2 /home/leon/git/swp-report/iMX6_Platform_SDK/output/mx6sl/lib/libsdk.a(ccm_pll.o)
 .debug_info    0x00002058      0x7f4 /home/leon/git/swp-report/iMX6_Platform_SDK/output/mx6sl/lib/libsdk.a(gic.o)
 .debug_info    0x0000284c      0x3e7 /home/leon/git/swp-report/iMX6_Platform_SDK/output/mx6sl/lib/libsdk.a(mmu.o)
 .debug_info    0x00002c33      0xe7d /home/leon/git/swp-report/iMX6_Platform_SDK/output/mx6sl/lib/libsdk.a(menu.o)
 .debug_info    0x00003ab0       0x76 /home/leon/git/swp-report/iMX6_Platform_SDK/output/mx6sl/lib/libsdk.a(sdk_version.o)
 .debug_info    0x00003b26     0x1536 /home/leon/git/swp-report/iMX6_Platform_SDK/output/mx6sl/lib/libsdk.a(system_util.o)
 .debug_info    0x0000505c      0x298 /home/leon/git/swp-report/iMX6_Platform_SDK/output/mx6sl/lib/libsdk.a(text_color.o)
 .debug_info    0x000052f4      0x4fe /home/leon/git/swp-report/iMX6_Platform_SDK/output/mx6sl/lib/libsdk.a(board_id.o)
 .debug_info    0x000057f2      0x319 /home/leon/git/swp-report/iMX6_Platform_SDK/output/mx6sl/lib/libsdk.a(timer.o)
 .debug_info    0x00005b0b     0x11b6 /home/leon/git/swp-report/iMX6_Platform_SDK/output/mx6sl/lib/libsdk.a(imx_uart.o)
 .debug_info    0x00006cc1      0x63b /home/leon/git/swp-report/iMX6_Platform_SDK/output/mx6sl/lib/libsdk.a(interrupt.o)
 .debug_info    0x000072fc      0x9b7 /home/leon/git/swp-report/iMX6_Platform_SDK/output/mx6sl/lib/libsdk.a(epit.o)
 .debug_info    0x00007cb3      0x234 /home/leon/git/swp-report/iMX6_Platform_SDK/output/mx6sl/lib/libsdk.a(abort_handler.o)
 .debug_info    0x00007ee7       0x97 /home/leon/git/swp-report/iMX6_Platform_SDK/output/mx6sl/lib/libboard_evk_rev_a.a(board_io_expanders.o)
 .debug_info    0x00007f7e       0xeb /home/leon/git/swp-report/iMX6_Platform_SDK/output/mx6sl/lib/libboard_evk_rev_a.a(dcd.o)
 .debug_info    0x00008069       0xa1 /home/leon/git/swp-report/iMX6_Platform_SDK/output/mx6sl/lib/libboard_evk_rev_a.a(hardware_modules.o)
 .debug_info    0x0000810a       0xcf /home/leon/git/swp-report/iMX6_Platform_SDK/output/mx6sl/lib/libboard_evk_rev_a.a(uart_iomux_config.o)
 .debug_info    0x000081d9      0x274 /home/leon/git/swp-report/iMX6_Platform_SDK/output/mx6sl/lib/libboard_evk_rev_a.a(iomux_config.o)
 .debug_info    0x0000844d     0x111f /home/leon/git/swp-report/iMX6_Platform_SDK/output/mx6sl/lib/libboard_evk_rev_a.a(kpp_iomux_config.o)
 .debug_info    0x0000956c     0x3dc3 /home/leon/git/swp-report/iMX6_Platform_SDK/output/mx6sl/lib/libboard_evk_rev_a.a(lcd_iomux_config.o)
 .debug_info    0x0000d32f     0x2f6f /home/leon/git/swp-report/iMX6_Platform_SDK/output/mx6sl/lib/libboard_evk_rev_a.a(mmdc_iomux_config.o)
 .debug_info    0x0001029e      0x22d /home/leon/git/swp-report/iMX6_Platform_SDK/output/mx6sl/lib/libboard_evk_rev_a.a(pwm1_iomux_config.o)
 .debug_info    0x000104cb      0x743 /home/leon/git/swp-report/iMX6_Platform_SDK/output/mx6sl/lib/libboard_evk_rev_a.a(sjc_iomux_config.o)
 .debug_info    0x00010c0e     0x1aff /home/leon/git/swp-report/iMX6_Platform_SDK/output/mx6sl/lib/libboard_evk_rev_a.a(spdc_iomux_config.o)
 .debug_info    0x0001270d      0x469 /home/leon/git/swp-report/iMX6_Platform_SDK/output/mx6sl/lib/libboard_evk_rev_a.a(uart1_iomux_config.o)
 .debug_info    0x00012b76      0x807 /home/leon/git/swp-report/iMX6_Platform_SDK/output/mx6sl/lib/libboard_evk_rev_a.a(usb_iomux_config.o)
 .debug_info    0x0001337d     0x169b /home/leon/git/swp-report/iMX6_Platform_SDK/output/mx6sl/lib/libboard_evk_rev_a.a(usdhc1_iomux_config.o)
 .debug_info    0x00014a18     0x1179 /home/leon/git/swp-report/iMX6_Platform_SDK/output/mx6sl/lib/libboard_evk_rev_a.a(usdhc2_iomux_config.o)
 .debug_info    0x00015b91      0xd6f /home/leon/git/swp-report/iMX6_Platform_SDK/output/mx6sl/lib/libboard_evk_rev_a.a(usdhc3_iomux_config.o)
 .debug_info    0x00016900      0x22d /home/leon/git/swp-report/iMX6_Platform_SDK/output/mx6sl/lib/libboard_evk_rev_a.a(wdog1_iomux_config.o)
 .debug_info    0x00016b2d      0xc05 /home/leon/git/swp-report/iMX6_Platform_SDK/output/mx6sl/lib/libboard_evk_rev_a.a(audmux_iomux_config.o)
 .debug_info    0x00017732     0x2095 /home/leon/git/swp-report/iMX6_Platform_SDK/output/mx6sl/lib/libboard_evk_rev_a.a(csi_iomux_config.o)
 .debug_info    0x000197c7      0x8bf /home/leon/git/swp-report/iMX6_Platform_SDK/output/mx6sl/lib/libboard_evk_rev_a.a(ecspi1_iomux_config.o)
 .debug_info    0x0001a086      0x8bf /home/leon/git/swp-report/iMX6_Platform_SDK/output/mx6sl/lib/libboard_evk_rev_a.a(ecspi2_iomux_config.o)
 .debug_info    0x0001a945     0x43cb /home/leon/git/swp-report/iMX6_Platform_SDK/output/mx6sl/lib/libboard_evk_rev_a.a(epdc_iomux_config.o)
 .debug_info    0x0001ed10     0x1465 /home/leon/git/swp-report/iMX6_Platform_SDK/output/mx6sl/lib/libboard_evk_rev_a.a(fec_iomux_config.o)
 .debug_info    0x00020175       0x54 /home/leon/git/swp-report/iMX6_Platform_SDK/output/mx6sl/lib/libboard_evk_rev_a.a(gpio1_iomux_config.o)
 .debug_info    0x000201c9       0x54 /home/leon/git/swp-report/iMX6_Platform_SDK/output/mx6sl/lib/libboard_evk_rev_a.a(gpio4_iomux_config.o)
 .debug_info    0x0002021d      0x48f /home/leon/git/swp-report/iMX6_Platform_SDK/output/mx6sl/lib/libboard_evk_rev_a.a(i2c1_iomux_config.o)
 .debug_info    0x000206ac      0x48f /home/leon/git/swp-report/iMX6_Platform_SDK/output/mx6sl/lib/libboard_evk_rev_a.a(i2c2_iomux_config.o)
 .debug_info    0x00020b3b      0x48f /home/leon/git/swp-report/iMX6_Platform_SDK/output/mx6sl/lib/libboard_evk_rev_a.a(i2c3_iomux_config.o)
 .debug_info    0x00020fca      0x23d /home/leon/git/swp-report/iMX6_Platform_SDK/output/mx6sl/sdk_unit_test/evk_rev_a/libsdk_unit_test.a(cpu_wp_test.o)
 .debug_info    0x00021207      0xbe0 /home/leon/git/swp-report/iMX6_Platform_SDK/output/mx6sl/sdk_unit_test/evk_rev_a/libsdk_unit_test.a(audio_test.o)
 .debug_info    0x00021de7      0xefc /home/leon/git/swp-report/iMX6_Platform_SDK/output/mx6sl/sdk_unit_test/evk_rev_a/libsdk_unit_test.a(ssi_playback.o)
 .debug_info    0x00022ce3      0x533 /home/leon/git/swp-report/iMX6_Platform_SDK/output/mx6sl/sdk_unit_test/evk_rev_a/libsdk_unit_test.a(gic_test.o)
 .debug_info    0x00023216      0x9be /home/leon/git/swp-report/iMX6_Platform_SDK/output/mx6sl/sdk_unit_test/evk_rev_a/libsdk_unit_test.a(ocotp_test.o)
 .debug_info    0x00023bd4      0x989 /home/leon/git/swp-report/iMX6_Platform_SDK/output/mx6sl/sdk_unit_test/evk_rev_a/libsdk_unit_test.a(i2c_test.o)
 .debug_info    0x0002455d      0xc3a /home/leon/git/swp-report/iMX6_Platform_SDK/output/mx6sl/sdk_unit_test/evk_rev_a/libsdk_unit_test.a(imx6_i2c_device.o)
 .debug_info    0x00025197      0xa4f /home/leon/git/swp-report/iMX6_Platform_SDK/output/mx6sl/sdk_unit_test/evk_rev_a/libsdk_unit_test.a(snvs_rtc_test.o)
 .debug_info    0x00025be6      0x9ec /home/leon/git/swp-report/iMX6_Platform_SDK/output/mx6sl/sdk_unit_test/evk_rev_a/libsdk_unit_test.a(snvs_srtc_test.o)
 .debug_info    0x000265d2      0xa04 /home/leon/git/swp-report/iMX6_Platform_SDK/output/mx6sl/sdk_unit_test/evk_rev_a/libsdk_unit_test.a(tempmon_test.o)
 .debug_info    0x00026fd6      0x9f7 /home/leon/git/swp-report/iMX6_Platform_SDK/output/mx6sl/sdk_unit_test/evk_rev_a/libsdk_unit_test.a(sdma_test.o)
 .debug_info    0x000279cd      0x4b3 /home/leon/git/swp-report/iMX6_Platform_SDK/output/mx6sl/sdk_unit_test/evk_rev_a/libsdk_unit_test.a(spi_lpb.o)
 .debug_info    0x00027e80      0x577 /home/leon/git/swp-report/iMX6_Platform_SDK/output/mx6sl/sdk_unit_test/evk_rev_a/libsdk_unit_test.a(uart_loopback.o)
 .debug_info    0x000283f7      0xac5 /home/leon/git/swp-report/iMX6_Platform_SDK/output/mx6sl/sdk_unit_test/evk_rev_a/libsdk_unit_test.a(epit_test.o)
 .debug_info    0x00028ebc      0xd88 /home/leon/git/swp-report/iMX6_Platform_SDK/output/mx6sl/sdk_unit_test/evk_rev_a/libsdk_unit_test.a(gpt_test.o)
 .debug_info    0x00029c44       0xca /home/leon/git/swp-report/iMX6_Platform_SDK/output/mx6sl/sdk_unit_test/evk_rev_a/libsdk_unit_test.a(timer_test.o)
 .debug_info    0x00029d0e      0xad8 /home/leon/git/swp-report/iMX6_Platform_SDK/output/mx6sl/sdk_unit_test/evk_rev_a/libsdk_unit_test.a(uart_test.o)
 .debug_info    0x0002a7e6      0xd3f /home/leon/git/swp-report/iMX6_Platform_SDK/output/mx6sl/sdk_unit_test/evk_rev_a/libsdk_unit_test.a(usdhc_test.o)
 .debug_info    0x0002b525      0xa45 /home/leon/git/swp-report/iMX6_Platform_SDK/output/mx6sl/sdk_unit_test/evk_rev_a/libsdk_unit_test.a(pwm_test.o)
 .debug_info    0x0002bf6a      0xa3d /home/leon/git/swp-report/iMX6_Platform_SDK/output/mx6sl/sdk_unit_test/evk_rev_a/libsdk_unit_test.a(watchdog_test.o)
 .debug_info    0x0002c9a7      0xbcf /home/leon/git/swp-report/iMX6_Platform_SDK/output/mx6sl/sdk_unit_test/evk_rev_a/libsdk_unit_test.a(spi_test.o)
 .debug_info    0x0002d576      0x1bc /home/leon/git/swp-report/iMX6_Platform_SDK/output/mx6sl/sdk_unit_test/evk_rev_a/libsdk_unit_test.a(usb_test.o)
 .debug_info    0x0002d732      0xba2 /home/leon/git/swp-report/iMX6_Platform_SDK/output/mx6sl/sdk_unit_test/evk_rev_a/libsdk_unit_test.a(epdc_test.o)
 .debug_info    0x0002e2d4      0xa45 /home/leon/git/swp-report/iMX6_Platform_SDK/output/mx6sl/sdk_unit_test/evk_rev_a/libsdk_unit_test.a(lcdif_test.o)
 .debug_info    0x0002ed19      0xa77 /home/leon/git/swp-report/iMX6_Platform_SDK/output/mx6sl/sdk_unit_test/evk_rev_a/libsdk_unit_test.a(camera_test.o)
 .debug_info    0x0002f790      0xba8 /home/leon/git/swp-report/iMX6_Platform_SDK/output/mx6sl/sdk_unit_test/evk_rev_a/libsdk_unit_test.a(csi_sensor_capture.o)
 .debug_info    0x00030338     0x153c /home/leon/git/swp-report/iMX6_Platform_SDK/output/mx6sl/sdk_unit_test/evk_rev_a/libsdk_unit_test.a(fec_test.o)
 .debug_info    0x00031874      0x9cf /home/leon/git/swp-report/iMX6_Platform_SDK/output/mx6sl/sdk_unit_test/evk_rev_a/libsdk_unit_test.a(spdc_test.o)
 .debug_info    0x00032243      0x2ee /home/leon/git/swp-report/iMX6_Platform_SDK/output/mx6sl/sdk_unit_test/evk_rev_a/libsdk_unit_test.a(at24cxx.o)
 .debug_info    0x00032531      0x3ee /home/leon/git/swp-report/iMX6_Platform_SDK/output/mx6sl/sdk_unit_test/evk_rev_a/libsdk_unit_test.a(mem_2_mem.o)
 .debug_info    0x0003291f      0x243 /home/leon/git/swp-report/iMX6_Platform_SDK/output/mx6sl/sdk_unit_test/evk_rev_a/libsdk_unit_test.a(pwm_output.o)
 .debug_info    0x00032b62      0x359 /home/leon/git/swp-report/iMX6_Platform_SDK/output/mx6sl/sdk_unit_test/evk_rev_a/libsdk_unit_test.a(spi_nor_numonyx.o)
 .debug_info    0x00032ebb     0x28e1 /home/leon/git/swp-report/iMX6_Platform_SDK/output/mx6sl/sdk_unit_test/evk_rev_a/libsdk_unit_test.a(usb0_device_mouse_test.o)
 .debug_info    0x0003579c     0x15a9 /home/leon/git/swp-report/iMX6_Platform_SDK/output/mx6sl/sdk_unit_test/evk_rev_a/libsdk_unit_test.a(usb0_host_test.o)
 .debug_info    0x00036d45      0x78e /home/leon/git/swp-report/iMX6_Platform_SDK/output/mx6sl/sdk_unit_test/evk_rev_a/libsdk_unit_test.a(usb0_host_testmodes_test.o)
 .debug_info    0x000374d3      0x9f5 /home/leon/git/swp-report/iMX6_Platform_SDK/output/mx6sl/sdk_unit_test/evk_rev_a/libsdk_unit_test.a(lcdif_display.o)
 .debug_info    0x00037ec8       0x6e /home/leon/git/swp-report/iMX6_Platform_SDK/output/mx6sl/sdk_unit_test/evk_rev_a/libsdk_unit_test.a(auo_lut.o)
 .debug_info    0x00037f36       0x6c /home/leon/git/swp-report/iMX6_Platform_SDK/output/mx6sl/lib/libsdk.a(profile.o)
 .debug_info    0x00037fa2      0x4cd /home/leon/git/swp-report/iMX6_Platform_SDK/output/mx6sl/lib/libsdk.a(armv7_cache.o)
 .debug_info    0x0003846f      0x804 /home/leon/git/swp-report/iMX6_Platform_SDK/output/mx6sl/lib/libsdk.a(runtime_support.o)
 .debug_info    0x00038c73      0xcb2 /home/leon/git/swp-report/iMX6_Platform_SDK/output/mx6sl/lib/libsdk.a(imx_audmux.o)
 .debug_info    0x00039925      0x75d /home/leon/git/swp-report/iMX6_Platform_SDK/output/mx6sl/lib/libsdk.a(snd_card.o)
 .debug_info    0x0003a082      0x778 /home/leon/git/swp-report/iMX6_Platform_SDK/output/mx6sl/lib/libsdk.a(wm8962.o)
 .debug_info    0x0003a7fa      0x850 /home/leon/git/swp-report/iMX6_Platform_SDK/output/mx6sl/lib/libsdk.a(csi_drv.o)
 .debug_info    0x0003b04a      0x857 /home/leon/git/swp-report/iMX6_Platform_SDK/output/mx6sl/lib/libsdk.a(smd_sensor.o)
 .debug_info    0x0003b8a1      0x43e /home/leon/git/swp-report/iMX6_Platform_SDK/output/mx6sl/lib/libsdk.a(cpu_workpoint.o)
 .debug_info    0x0003bcdf     0x185b /home/leon/git/swp-report/iMX6_Platform_SDK/output/mx6sl/lib/libsdk.a(mxc_epdc.o)
 .debug_info    0x0003d53a     0x174d /home/leon/git/swp-report/iMX6_Platform_SDK/output/mx6sl/lib/libsdk.a(fec_drv.o)
 .debug_info    0x0003ec87      0x871 /home/leon/git/swp-report/iMX6_Platform_SDK/output/mx6sl/lib/libsdk.a(gpio.o)
 .debug_info    0x0003f4f8       0x9f /home/leon/git/swp-report/iMX6_Platform_SDK/output/mx6sl/lib/libsdk.a(imx6sl_gpio_map.o)
 .debug_info    0x0003f597      0xe21 /home/leon/git/swp-report/iMX6_Platform_SDK/output/mx6sl/lib/libsdk.a(imx_i2c.o)
 .debug_info    0x000403b8      0x5ab /home/leon/git/swp-report/iMX6_Platform_SDK/output/mx6sl/lib/libsdk.a(imx_i2c_slave.o)
 .debug_info    0x00040963     0x151c /home/leon/git/swp-report/iMX6_Platform_SDK/output/mx6sl/lib/libsdk.a(lcdif_drv.o)
 .debug_info    0x00041e7f      0xb5b /home/leon/git/swp-report/iMX6_Platform_SDK/output/mx6sl/lib/libsdk.a(pxp_drv.o)
 .debug_info    0x000429da      0x4eb /home/leon/git/swp-report/iMX6_Platform_SDK/output/mx6sl/lib/libsdk.a(ocotp.o)
 .debug_info    0x00042ec5     0x3676 /home/leon/git/swp-report/iMX6_Platform_SDK/output/mx6sl/lib/libsdk.a(pmu_driver.o)
 .debug_info    0x0004653b      0xb20 /home/leon/git/swp-report/iMX6_Platform_SDK/output/mx6sl/lib/libsdk.a(pwm.o)
 .debug_info    0x0004705b      0x7d6 /home/leon/git/swp-report/iMX6_Platform_SDK/output/mx6sl/lib/libsdk.a(rtc.o)
 .debug_info    0x00047831      0x778 /home/leon/git/swp-report/iMX6_Platform_SDK/output/mx6sl/lib/libsdk.a(srtc.o)
 .debug_info    0x00047fa9     0x126a /home/leon/git/swp-report/iMX6_Platform_SDK/output/mx6sl/lib/libsdk.a(sdma.o)
 .debug_info    0x00049213      0x1de /home/leon/git/swp-report/iMX6_Platform_SDK/output/mx6sl/lib/libsdk.a(sdma_script_info.o)
 .debug_info    0x000493f1      0x6c6 /home/leon/git/swp-report/iMX6_Platform_SDK/output/mx6sl/lib/libsdk.a(snvs.o)
 .debug_info    0x00049ab7      0xab1 /home/leon/git/swp-report/iMX6_Platform_SDK/output/mx6sl/lib/libsdk.a(mxc_spdc.o)
 .debug_info    0x0004a568      0x70d /home/leon/git/swp-report/iMX6_Platform_SDK/output/mx6sl/lib/libsdk.a(ecspi.o)
 .debug_info    0x0004ac75      0x86a /home/leon/git/swp-report/iMX6_Platform_SDK/output/mx6sl/lib/libsdk.a(tempmon.o)
 .debug_info    0x0004b4df      0xca8 /home/leon/git/swp-report/iMX6_Platform_SDK/output/mx6sl/lib/libsdk.a(gpt.o)
 .debug_info    0x0004c187     0x1113 /home/leon/git/swp-report/iMX6_Platform_SDK/output/mx6sl/lib/libsdk.a(usb_common.o)
 .debug_info    0x0004d29a     0x212a /home/leon/git/swp-report/iMX6_Platform_SDK/output/mx6sl/lib/libsdk.a(usbd_drv.o)
 .debug_info    0x0004f3c4     0x1741 /home/leon/git/swp-report/iMX6_Platform_SDK/output/mx6sl/lib/libsdk.a(usbh_drv.o)
 .debug_info    0x00050b05      0xf19 /home/leon/git/swp-report/iMX6_Platform_SDK/output/mx6sl/lib/libsdk.a(usdhc.o)
 .debug_info    0x00051a1e     0x1b75 /home/leon/git/swp-report/iMX6_Platform_SDK/output/mx6sl/lib/libsdk.a(usdhc_host.o)
 .debug_info    0x00053593      0x9c7 /home/leon/git/swp-report/iMX6_Platform_SDK/output/mx6sl/lib/libsdk.a(usdhc_mmc.o)
 .debug_info    0x00053f5a      0x680 /home/leon/git/swp-report/iMX6_Platform_SDK/output/mx6sl/lib/libsdk.a(usdhc_sd.o)
 .debug_info    0x000545da     0x166b /home/leon/git/swp-report/iMX6_Platform_SDK/output/mx6sl/lib/libsdk.a(imx-ssi.o)
 .debug_info    0x00055c45     0x12c5 /home/leon/git/swp-report/iMX6_Platform_SDK/output/mx6sl/lib/libsdk.a(imx_spdif.o)
 .debug_info    0x00056f0a      0x476 /home/leon/git/swp-report/iMX6_Platform_SDK/output/mx6sl/lib/libsdk.a(camera_profile.o)
 .debug_info    0x00057380      0x5e4 /home/leon/git/swp-report/iMX6_Platform_SDK/output/mx6sl/lib/libsdk.a(mx6x_usb.o)
 .debug_info    0x00057964       0xdd /home/leon/git/swp-report/iMX6_Platform_SDK/output/mx6sl/lib/libboard_evk_rev_a.a(board_audio.o)
 .debug_info    0x00057a41      0x306 /home/leon/git/swp-report/iMX6_Platform_SDK/output/mx6sl/lib/libboard_evk_rev_a.a(board_camera.o)
 .debug_info    0x00057d47      0x7f7 /home/leon/git/swp-report/iMX6_Platform_SDK/output/mx6sl/lib/libboard_evk_rev_a.a(board_display.o)
 .debug_info    0x0005853e      0x142 /home/leon/git/swp-report/iMX6_Platform_SDK/output/mx6sl/lib/libboard_evk_rev_a.a(board_i2c.o)
 .debug_info    0x00058680      0x4bd /home/leon/git/swp-report/iMX6_Platform_SDK/output/mx6sl/lib/libboard_evk_rev_a.a(board_usb.o)
 .debug_info    0x00058b3d      0x2fa /home/leon/git/swp-report/iMX6_Platform_SDK/output/mx6sl/lib/libboard_evk_rev_a.a(board_usdhc.o)
 .debug_info    0x00058e37       0xcf /home/leon/git/swp-report/iMX6_Platform_SDK/output/mx6sl/lib/libboard_evk_rev_a.a(ecspi_iomux_config.o)
 .debug_info    0x00058f06       0xcf /home/leon/git/swp-report/iMX6_Platform_SDK/output/mx6sl/lib/libboard_evk_rev_a.a(i2c_iomux_config.o)
 .debug_info    0x00058fd5       0xcf /home/leon/git/swp-report/iMX6_Platform_SDK/output/mx6sl/lib/libboard_evk_rev_a.a(pwm_iomux_config.o)
 .debug_info    0x000590a4       0xcf /home/leon/git/swp-report/iMX6_Platform_SDK/output/mx6sl/lib/libboard_evk_rev_a.a(usdhc_iomux_config.o)
 .debug_info    0x00059173      0x3f8 /home/leon/git/swp-report/iMX6_Platform_SDK/output/mx6sl/lib/libsdk.a(pf0100.o)

.debug_abbrev   0x00000000     0xb663
 .debug_abbrev  0x00000000       0xe6 /home/leon/git/swp-report/iMX6_Platform_SDK/output/mx6sl/sdk_unit_test/evk_rev_a/obj/apps/common/ivt.o
 .debug_abbrev  0x000000e6       0x89 /home/leon/git/swp-report/iMX6_Platform_SDK/output/mx6sl/sdk_unit_test/evk_rev_a/obj/apps/common/platform_init.o
 .debug_abbrev  0x0000016f       0xa1 /home/leon/git/swp-report/iMX6_Platform_SDK/output/mx6sl/sdk_unit_test/evk_rev_a/obj/apps/common/print_clock_info.o
 .debug_abbrev  0x00000210       0xcf /home/leon/git/swp-report/iMX6_Platform_SDK/output/mx6sl/sdk_unit_test/evk_rev_a/obj/apps/common/print_version.o
 .debug_abbrev  0x000002df      0x121 /home/leon/git/swp-report/iMX6_Platform_SDK/output/mx6sl/sdk_unit_test/evk_rev_a/obj/apps/sdk_unit_test/src/all_test.o
 .debug_abbrev  0x00000400       0x44 /home/leon/git/swp-report/iMX6_Platform_SDK/output/mx6sl/sdk_unit_test/evk_rev_a/obj/apps/sdk_unit_test/src/unit_test_main.o
 .debug_abbrev  0x00000444      0x199 /home/leon/git/swp-report/iMX6_Platform_SDK/output/mx6sl/lib/libsdk.a(ccm_pll.o)
 .debug_abbrev  0x000005dd      0x179 /home/leon/git/swp-report/iMX6_Platform_SDK/output/mx6sl/lib/libsdk.a(gic.o)
 .debug_abbrev  0x00000756      0x172 /home/leon/git/swp-report/iMX6_Platform_SDK/output/mx6sl/lib/libsdk.a(mmu.o)
 .debug_abbrev  0x000008c8      0x2b3 /home/leon/git/swp-report/iMX6_Platform_SDK/output/mx6sl/lib/libsdk.a(menu.o)
 .debug_abbrev  0x00000b7b       0x43 /home/leon/git/swp-report/iMX6_Platform_SDK/output/mx6sl/lib/libsdk.a(sdk_version.o)
 .debug_abbrev  0x00000bbe      0x276 /home/leon/git/swp-report/iMX6_Platform_SDK/output/mx6sl/lib/libsdk.a(system_util.o)
 .debug_abbrev  0x00000e34       0xd0 /home/leon/git/swp-report/iMX6_Platform_SDK/output/mx6sl/lib/libsdk.a(text_color.o)
 .debug_abbrev  0x00000f04      0x13a /home/leon/git/swp-report/iMX6_Platform_SDK/output/mx6sl/lib/libsdk.a(board_id.o)
 .debug_abbrev  0x0000103e      0x122 /home/leon/git/swp-report/iMX6_Platform_SDK/output/mx6sl/lib/libsdk.a(timer.o)
 .debug_abbrev  0x00001160      0x1e3 /home/leon/git/swp-report/iMX6_Platform_SDK/output/mx6sl/lib/libsdk.a(imx_uart.o)
 .debug_abbrev  0x00001343      0x11a /home/leon/git/swp-report/iMX6_Platform_SDK/output/mx6sl/lib/libsdk.a(interrupt.o)
 .debug_abbrev  0x0000145d      0x194 /home/leon/git/swp-report/iMX6_Platform_SDK/output/mx6sl/lib/libsdk.a(epit.o)
 .debug_abbrev  0x000015f1       0xc8 /home/leon/git/swp-report/iMX6_Platform_SDK/output/mx6sl/lib/libsdk.a(abort_handler.o)
 .debug_abbrev  0x000016b9       0x42 /home/leon/git/swp-report/iMX6_Platform_SDK/output/mx6sl/lib/libboard_evk_rev_a.a(board_io_expanders.o)
 .debug_abbrev  0x000016fb       0x86 /home/leon/git/swp-report/iMX6_Platform_SDK/output/mx6sl/lib/libboard_evk_rev_a.a(dcd.o)
 .debug_abbrev  0x00001781       0x44 /home/leon/git/swp-report/iMX6_Platform_SDK/output/mx6sl/lib/libboard_evk_rev_a.a(hardware_modules.o)
 .debug_abbrev  0x000017c5       0x79 /home/leon/git/swp-report/iMX6_Platform_SDK/output/mx6sl/lib/libboard_evk_rev_a.a(uart_iomux_config.o)
 .debug_abbrev  0x0000183e       0x42 /home/leon/git/swp-report/iMX6_Platform_SDK/output/mx6sl/lib/libboard_evk_rev_a.a(iomux_config.o)
 .debug_abbrev  0x00001880       0xf1 /home/leon/git/swp-report/iMX6_Platform_SDK/output/mx6sl/lib/libboard_evk_rev_a.a(kpp_iomux_config.o)
 .debug_abbrev  0x00001971      0x106 /home/leon/git/swp-report/iMX6_Platform_SDK/output/mx6sl/lib/libboard_evk_rev_a.a(lcd_iomux_config.o)
 .debug_abbrev  0x00001a77      0x106 /home/leon/git/swp-report/iMX6_Platform_SDK/output/mx6sl/lib/libboard_evk_rev_a.a(mmdc_iomux_config.o)
 .debug_abbrev  0x00001b7d       0xf1 /home/leon/git/swp-report/iMX6_Platform_SDK/output/mx6sl/lib/libboard_evk_rev_a.a(pwm1_iomux_config.o)
 .debug_abbrev  0x00001c6e       0xa4 /home/leon/git/swp-report/iMX6_Platform_SDK/output/mx6sl/lib/libboard_evk_rev_a.a(sjc_iomux_config.o)
 .debug_abbrev  0x00001d12       0xa4 /home/leon/git/swp-report/iMX6_Platform_SDK/output/mx6sl/lib/libboard_evk_rev_a.a(spdc_iomux_config.o)
 .debug_abbrev  0x00001db6       0xf1 /home/leon/git/swp-report/iMX6_Platform_SDK/output/mx6sl/lib/libboard_evk_rev_a.a(uart1_iomux_config.o)
 .debug_abbrev  0x00001ea7      0x106 /home/leon/git/swp-report/iMX6_Platform_SDK/output/mx6sl/lib/libboard_evk_rev_a.a(usb_iomux_config.o)
 .debug_abbrev  0x00001fad      0x106 /home/leon/git/swp-report/iMX6_Platform_SDK/output/mx6sl/lib/libboard_evk_rev_a.a(usdhc1_iomux_config.o)
 .debug_abbrev  0x000020b3       0xf1 /home/leon/git/swp-report/iMX6_Platform_SDK/output/mx6sl/lib/libboard_evk_rev_a.a(usdhc2_iomux_config.o)
 .debug_abbrev  0x000021a4       0xf1 /home/leon/git/swp-report/iMX6_Platform_SDK/output/mx6sl/lib/libboard_evk_rev_a.a(usdhc3_iomux_config.o)
 .debug_abbrev  0x00002295       0xf1 /home/leon/git/swp-report/iMX6_Platform_SDK/output/mx6sl/lib/libboard_evk_rev_a.a(wdog1_iomux_config.o)
 .debug_abbrev  0x00002386       0xa4 /home/leon/git/swp-report/iMX6_Platform_SDK/output/mx6sl/lib/libboard_evk_rev_a.a(audmux_iomux_config.o)
 .debug_abbrev  0x0000242a       0xf1 /home/leon/git/swp-report/iMX6_Platform_SDK/output/mx6sl/lib/libboard_evk_rev_a.a(csi_iomux_config.o)
 .debug_abbrev  0x0000251b       0xf1 /home/leon/git/swp-report/iMX6_Platform_SDK/output/mx6sl/lib/libboard_evk_rev_a.a(ecspi1_iomux_config.o)
 .debug_abbrev  0x0000260c       0xf1 /home/leon/git/swp-report/iMX6_Platform_SDK/output/mx6sl/lib/libboard_evk_rev_a.a(ecspi2_iomux_config.o)
 .debug_abbrev  0x000026fd       0xf1 /home/leon/git/swp-report/iMX6_Platform_SDK/output/mx6sl/lib/libboard_evk_rev_a.a(epdc_iomux_config.o)
 .debug_abbrev  0x000027ee       0xf1 /home/leon/git/swp-report/iMX6_Platform_SDK/output/mx6sl/lib/libboard_evk_rev_a.a(fec_iomux_config.o)
 .debug_abbrev  0x000028df       0x35 /home/leon/git/swp-report/iMX6_Platform_SDK/output/mx6sl/lib/libboard_evk_rev_a.a(gpio1_iomux_config.o)
 .debug_abbrev  0x00002914       0x35 /home/leon/git/swp-report/iMX6_Platform_SDK/output/mx6sl/lib/libboard_evk_rev_a.a(gpio4_iomux_config.o)
 .debug_abbrev  0x00002949       0xf1 /home/leon/git/swp-report/iMX6_Platform_SDK/output/mx6sl/lib/libboard_evk_rev_a.a(i2c1_iomux_config.o)
 .debug_abbrev  0x00002a3a       0xf1 /home/leon/git/swp-report/iMX6_Platform_SDK/output/mx6sl/lib/libboard_evk_rev_a.a(i2c2_iomux_config.o)
 .debug_abbrev  0x00002b2b       0xf1 /home/leon/git/swp-report/iMX6_Platform_SDK/output/mx6sl/lib/libboard_evk_rev_a.a(i2c3_iomux_config.o)
 .debug_abbrev  0x00002c1c       0xf1 /home/leon/git/swp-report/iMX6_Platform_SDK/output/mx6sl/sdk_unit_test/evk_rev_a/libsdk_unit_test.a(cpu_wp_test.o)
 .debug_abbrev  0x00002d0d      0x1d7 /home/leon/git/swp-report/iMX6_Platform_SDK/output/mx6sl/sdk_unit_test/evk_rev_a/libsdk_unit_test.a(audio_test.o)
 .debug_abbrev  0x00002ee4      0x1c7 /home/leon/git/swp-report/iMX6_Platform_SDK/output/mx6sl/sdk_unit_test/evk_rev_a/libsdk_unit_test.a(ssi_playback.o)
 .debug_abbrev  0x000030ab       0x78 /home/leon/git/swp-report/iMX6_Platform_SDK/output/mx6sl/sdk_unit_test/evk_rev_a/libsdk_unit_test.a(gic_test.o)
 .debug_abbrev  0x00003123      0x191 /home/leon/git/swp-report/iMX6_Platform_SDK/output/mx6sl/sdk_unit_test/evk_rev_a/libsdk_unit_test.a(ocotp_test.o)
 .debug_abbrev  0x000032b4      0x182 /home/leon/git/swp-report/iMX6_Platform_SDK/output/mx6sl/sdk_unit_test/evk_rev_a/libsdk_unit_test.a(i2c_test.o)
 .debug_abbrev  0x00003436      0x1d4 /home/leon/git/swp-report/iMX6_Platform_SDK/output/mx6sl/sdk_unit_test/evk_rev_a/libsdk_unit_test.a(imx6_i2c_device.o)
 .debug_abbrev  0x0000360a      0x1d4 /home/leon/git/swp-report/iMX6_Platform_SDK/output/mx6sl/sdk_unit_test/evk_rev_a/libsdk_unit_test.a(snvs_rtc_test.o)
 .debug_abbrev  0x000037de      0x1d4 /home/leon/git/swp-report/iMX6_Platform_SDK/output/mx6sl/sdk_unit_test/evk_rev_a/libsdk_unit_test.a(snvs_srtc_test.o)
 .debug_abbrev  0x000039b2      0x1a7 /home/leon/git/swp-report/iMX6_Platform_SDK/output/mx6sl/sdk_unit_test/evk_rev_a/libsdk_unit_test.a(tempmon_test.o)
 .debug_abbrev  0x00003b59      0x19a /home/leon/git/swp-report/iMX6_Platform_SDK/output/mx6sl/sdk_unit_test/evk_rev_a/libsdk_unit_test.a(sdma_test.o)
 .debug_abbrev  0x00003cf3      0x102 /home/leon/git/swp-report/iMX6_Platform_SDK/output/mx6sl/sdk_unit_test/evk_rev_a/libsdk_unit_test.a(spi_lpb.o)
 .debug_abbrev  0x00003df5      0x196 /home/leon/git/swp-report/iMX6_Platform_SDK/output/mx6sl/sdk_unit_test/evk_rev_a/libsdk_unit_test.a(uart_loopback.o)
 .debug_abbrev  0x00003f8b      0x1de /home/leon/git/swp-report/iMX6_Platform_SDK/output/mx6sl/sdk_unit_test/evk_rev_a/libsdk_unit_test.a(epit_test.o)
 .debug_abbrev  0x00004169      0x275 /home/leon/git/swp-report/iMX6_Platform_SDK/output/mx6sl/sdk_unit_test/evk_rev_a/libsdk_unit_test.a(gpt_test.o)
 .debug_abbrev  0x000043de       0x5e /home/leon/git/swp-report/iMX6_Platform_SDK/output/mx6sl/sdk_unit_test/evk_rev_a/libsdk_unit_test.a(timer_test.o)
 .debug_abbrev  0x0000443c      0x1db /home/leon/git/swp-report/iMX6_Platform_SDK/output/mx6sl/sdk_unit_test/evk_rev_a/libsdk_unit_test.a(uart_test.o)
 .debug_abbrev  0x00004617      0x243 /home/leon/git/swp-report/iMX6_Platform_SDK/output/mx6sl/sdk_unit_test/evk_rev_a/libsdk_unit_test.a(usdhc_test.o)
 .debug_abbrev  0x0000485a      0x1b2 /home/leon/git/swp-report/iMX6_Platform_SDK/output/mx6sl/sdk_unit_test/evk_rev_a/libsdk_unit_test.a(pwm_test.o)
 .debug_abbrev  0x00004a0c      0x1b0 /home/leon/git/swp-report/iMX6_Platform_SDK/output/mx6sl/sdk_unit_test/evk_rev_a/libsdk_unit_test.a(watchdog_test.o)
 .debug_abbrev  0x00004bbc      0x1f0 /home/leon/git/swp-report/iMX6_Platform_SDK/output/mx6sl/sdk_unit_test/evk_rev_a/libsdk_unit_test.a(spi_test.o)
 .debug_abbrev  0x00004dac       0xc1 /home/leon/git/swp-report/iMX6_Platform_SDK/output/mx6sl/sdk_unit_test/evk_rev_a/libsdk_unit_test.a(usb_test.o)
 .debug_abbrev  0x00004e6d      0x20a /home/leon/git/swp-report/iMX6_Platform_SDK/output/mx6sl/sdk_unit_test/evk_rev_a/libsdk_unit_test.a(epdc_test.o)
 .debug_abbrev  0x00005077      0x1b2 /home/leon/git/swp-report/iMX6_Platform_SDK/output/mx6sl/sdk_unit_test/evk_rev_a/libsdk_unit_test.a(lcdif_test.o)
 .debug_abbrev  0x00005229      0x1c3 /home/leon/git/swp-report/iMX6_Platform_SDK/output/mx6sl/sdk_unit_test/evk_rev_a/libsdk_unit_test.a(camera_test.o)
 .debug_abbrev  0x000053ec      0x1b6 /home/leon/git/swp-report/iMX6_Platform_SDK/output/mx6sl/sdk_unit_test/evk_rev_a/libsdk_unit_test.a(csi_sensor_capture.o)
 .debug_abbrev  0x000055a2      0x248 /home/leon/git/swp-report/iMX6_Platform_SDK/output/mx6sl/sdk_unit_test/evk_rev_a/libsdk_unit_test.a(fec_test.o)
 .debug_abbrev  0x000057ea      0x1bf /home/leon/git/swp-report/iMX6_Platform_SDK/output/mx6sl/sdk_unit_test/evk_rev_a/libsdk_unit_test.a(spdc_test.o)
 .debug_abbrev  0x000059a9      0x124 /home/leon/git/swp-report/iMX6_Platform_SDK/output/mx6sl/sdk_unit_test/evk_rev_a/libsdk_unit_test.a(at24cxx.o)
 .debug_abbrev  0x00005acd       0xe5 /home/leon/git/swp-report/iMX6_Platform_SDK/output/mx6sl/sdk_unit_test/evk_rev_a/libsdk_unit_test.a(mem_2_mem.o)
 .debug_abbrev  0x00005bb2      0x10b /home/leon/git/swp-report/iMX6_Platform_SDK/output/mx6sl/sdk_unit_test/evk_rev_a/libsdk_unit_test.a(pwm_output.o)
 .debug_abbrev  0x00005cbd      0x15b /home/leon/git/swp-report/iMX6_Platform_SDK/output/mx6sl/sdk_unit_test/evk_rev_a/libsdk_unit_test.a(spi_nor_numonyx.o)
 .debug_abbrev  0x00005e18      0x26c /home/leon/git/swp-report/iMX6_Platform_SDK/output/mx6sl/sdk_unit_test/evk_rev_a/libsdk_unit_test.a(usb0_device_mouse_test.o)
 .debug_abbrev  0x00006084      0x1b7 /home/leon/git/swp-report/iMX6_Platform_SDK/output/mx6sl/sdk_unit_test/evk_rev_a/libsdk_unit_test.a(usb0_host_test.o)
 .debug_abbrev  0x0000623b      0x129 /home/leon/git/swp-report/iMX6_Platform_SDK/output/mx6sl/sdk_unit_test/evk_rev_a/libsdk_unit_test.a(usb0_host_testmodes_test.o)
 .debug_abbrev  0x00006364      0x1ab /home/leon/git/swp-report/iMX6_Platform_SDK/output/mx6sl/sdk_unit_test/evk_rev_a/libsdk_unit_test.a(lcdif_display.o)
 .debug_abbrev  0x0000650f       0x5f /home/leon/git/swp-report/iMX6_Platform_SDK/output/mx6sl/sdk_unit_test/evk_rev_a/libsdk_unit_test.a(auo_lut.o)
 .debug_abbrev  0x0000656e       0x60 /home/leon/git/swp-report/iMX6_Platform_SDK/output/mx6sl/lib/libsdk.a(profile.o)
 .debug_abbrev  0x000065ce      0x133 /home/leon/git/swp-report/iMX6_Platform_SDK/output/mx6sl/lib/libsdk.a(armv7_cache.o)
 .debug_abbrev  0x00006701      0x1e2 /home/leon/git/swp-report/iMX6_Platform_SDK/output/mx6sl/lib/libsdk.a(runtime_support.o)
 .debug_abbrev  0x000068e3      0x172 /home/leon/git/swp-report/iMX6_Platform_SDK/output/mx6sl/lib/libsdk.a(imx_audmux.o)
 .debug_abbrev  0x00006a55      0x133 /home/leon/git/swp-report/iMX6_Platform_SDK/output/mx6sl/lib/libsdk.a(snd_card.o)
 .debug_abbrev  0x00006b88      0x1c4 /home/leon/git/swp-report/iMX6_Platform_SDK/output/mx6sl/lib/libsdk.a(wm8962.o)
 .debug_abbrev  0x00006d4c      0x15b /home/leon/git/swp-report/iMX6_Platform_SDK/output/mx6sl/lib/libsdk.a(csi_drv.o)
 .debug_abbrev  0x00006ea7      0x19d /home/leon/git/swp-report/iMX6_Platform_SDK/output/mx6sl/lib/libsdk.a(smd_sensor.o)
 .debug_abbrev  0x00007044      0x15c /home/leon/git/swp-report/iMX6_Platform_SDK/output/mx6sl/lib/libsdk.a(cpu_workpoint.o)
 .debug_abbrev  0x000071a0      0x277 /home/leon/git/swp-report/iMX6_Platform_SDK/output/mx6sl/lib/libsdk.a(mxc_epdc.o)
 .debug_abbrev  0x00007417      0x2d8 /home/leon/git/swp-report/iMX6_Platform_SDK/output/mx6sl/lib/libsdk.a(fec_drv.o)
 .debug_abbrev  0x000076ef      0x228 /home/leon/git/swp-report/iMX6_Platform_SDK/output/mx6sl/lib/libsdk.a(gpio.o)
 .debug_abbrev  0x00007917       0x5b /home/leon/git/swp-report/iMX6_Platform_SDK/output/mx6sl/lib/libsdk.a(imx6sl_gpio_map.o)
 .debug_abbrev  0x00007972      0x2c9 /home/leon/git/swp-report/iMX6_Platform_SDK/output/mx6sl/lib/libsdk.a(imx_i2c.o)
 .debug_abbrev  0x00007c3b      0x199 /home/leon/git/swp-report/iMX6_Platform_SDK/output/mx6sl/lib/libsdk.a(imx_i2c_slave.o)
 .debug_abbrev  0x00007dd4      0x2a1 /home/leon/git/swp-report/iMX6_Platform_SDK/output/mx6sl/lib/libsdk.a(lcdif_drv.o)
 .debug_abbrev  0x00008075      0x15e /home/leon/git/swp-report/iMX6_Platform_SDK/output/mx6sl/lib/libsdk.a(pxp_drv.o)
 .debug_abbrev  0x000081d3      0x1ae /home/leon/git/swp-report/iMX6_Platform_SDK/output/mx6sl/lib/libsdk.a(ocotp.o)
 .debug_abbrev  0x00008381      0x52d /home/leon/git/swp-report/iMX6_Platform_SDK/output/mx6sl/lib/libsdk.a(pmu_driver.o)
 .debug_abbrev  0x000088ae      0x1f8 /home/leon/git/swp-report/iMX6_Platform_SDK/output/mx6sl/lib/libsdk.a(pwm.o)
 .debug_abbrev  0x00008aa6      0x162 /home/leon/git/swp-report/iMX6_Platform_SDK/output/mx6sl/lib/libsdk.a(rtc.o)
 .debug_abbrev  0x00008c08      0x162 /home/leon/git/swp-report/iMX6_Platform_SDK/output/mx6sl/lib/libsdk.a(srtc.o)
 .debug_abbrev  0x00008d6a      0x2f2 /home/leon/git/swp-report/iMX6_Platform_SDK/output/mx6sl/lib/libsdk.a(sdma.o)
 .debug_abbrev  0x0000905c       0xbd /home/leon/git/swp-report/iMX6_Platform_SDK/output/mx6sl/lib/libsdk.a(sdma_script_info.o)
 .debug_abbrev  0x00009119       0xf4 /home/leon/git/swp-report/iMX6_Platform_SDK/output/mx6sl/lib/libsdk.a(snvs.o)
 .debug_abbrev  0x0000920d      0x1de /home/leon/git/swp-report/iMX6_Platform_SDK/output/mx6sl/lib/libsdk.a(mxc_spdc.o)
 .debug_abbrev  0x000093eb      0x1f9 /home/leon/git/swp-report/iMX6_Platform_SDK/output/mx6sl/lib/libsdk.a(ecspi.o)
 .debug_abbrev  0x000095e4      0x1c9 /home/leon/git/swp-report/iMX6_Platform_SDK/output/mx6sl/lib/libsdk.a(tempmon.o)
 .debug_abbrev  0x000097ad      0x1f1 /home/leon/git/swp-report/iMX6_Platform_SDK/output/mx6sl/lib/libsdk.a(gpt.o)
 .debug_abbrev  0x0000999e      0x223 /home/leon/git/swp-report/iMX6_Platform_SDK/output/mx6sl/lib/libsdk.a(usb_common.o)
 .debug_abbrev  0x00009bc1      0x21a /home/leon/git/swp-report/iMX6_Platform_SDK/output/mx6sl/lib/libsdk.a(usbd_drv.o)
 .debug_abbrev  0x00009ddb      0x1c8 /home/leon/git/swp-report/iMX6_Platform_SDK/output/mx6sl/lib/libsdk.a(usbh_drv.o)
 .debug_abbrev  0x00009fa3      0x20c /home/leon/git/swp-report/iMX6_Platform_SDK/output/mx6sl/lib/libsdk.a(usdhc.o)
 .debug_abbrev  0x0000a1af      0x296 /home/leon/git/swp-report/iMX6_Platform_SDK/output/mx6sl/lib/libsdk.a(usdhc_host.o)
 .debug_abbrev  0x0000a445      0x1ac /home/leon/git/swp-report/iMX6_Platform_SDK/output/mx6sl/lib/libsdk.a(usdhc_mmc.o)
 .debug_abbrev  0x0000a5f1      0x143 /home/leon/git/swp-report/iMX6_Platform_SDK/output/mx6sl/lib/libsdk.a(usdhc_sd.o)
 .debug_abbrev  0x0000a734      0x267 /home/leon/git/swp-report/iMX6_Platform_SDK/output/mx6sl/lib/libsdk.a(imx-ssi.o)
 .debug_abbrev  0x0000a99b      0x22e /home/leon/git/swp-report/iMX6_Platform_SDK/output/mx6sl/lib/libsdk.a(imx_spdif.o)
 .debug_abbrev  0x0000abc9       0xab /home/leon/git/swp-report/iMX6_Platform_SDK/output/mx6sl/lib/libsdk.a(camera_profile.o)
 .debug_abbrev  0x0000ac74      0x155 /home/leon/git/swp-report/iMX6_Platform_SDK/output/mx6sl/lib/libsdk.a(mx6x_usb.o)
 .debug_abbrev  0x0000adc9       0x74 /home/leon/git/swp-report/iMX6_Platform_SDK/output/mx6sl/lib/libboard_evk_rev_a.a(board_audio.o)
 .debug_abbrev  0x0000ae3d       0xfb /home/leon/git/swp-report/iMX6_Platform_SDK/output/mx6sl/lib/libboard_evk_rev_a.a(board_camera.o)
 .debug_abbrev  0x0000af38      0x149 /home/leon/git/swp-report/iMX6_Platform_SDK/output/mx6sl/lib/libboard_evk_rev_a.a(board_display.o)
 .debug_abbrev  0x0000b081       0x69 /home/leon/git/swp-report/iMX6_Platform_SDK/output/mx6sl/lib/libboard_evk_rev_a.a(board_i2c.o)
 .debug_abbrev  0x0000b0ea      0x168 /home/leon/git/swp-report/iMX6_Platform_SDK/output/mx6sl/lib/libboard_evk_rev_a.a(board_usb.o)
 .debug_abbrev  0x0000b252      0x107 /home/leon/git/swp-report/iMX6_Platform_SDK/output/mx6sl/lib/libboard_evk_rev_a.a(board_usdhc.o)
 .debug_abbrev  0x0000b359       0x79 /home/leon/git/swp-report/iMX6_Platform_SDK/output/mx6sl/lib/libboard_evk_rev_a.a(ecspi_iomux_config.o)
 .debug_abbrev  0x0000b3d2       0x79 /home/leon/git/swp-report/iMX6_Platform_SDK/output/mx6sl/lib/libboard_evk_rev_a.a(i2c_iomux_config.o)
 .debug_abbrev  0x0000b44b       0x79 /home/leon/git/swp-report/iMX6_Platform_SDK/output/mx6sl/lib/libboard_evk_rev_a.a(pwm_iomux_config.o)
 .debug_abbrev  0x0000b4c4       0x79 /home/leon/git/swp-report/iMX6_Platform_SDK/output/mx6sl/lib/libboard_evk_rev_a.a(usdhc_iomux_config.o)
 .debug_abbrev  0x0000b53d      0x126 /home/leon/git/swp-report/iMX6_Platform_SDK/output/mx6sl/lib/libsdk.a(pf0100.o)

.debug_aranges  0x00000000     0x11c8
 .debug_aranges
                0x00000000       0x18 /home/leon/git/swp-report/iMX6_Platform_SDK/output/mx6sl/sdk_unit_test/evk_rev_a/obj/apps/common/ivt.o
 .debug_aranges
                0x00000018       0x20 /home/leon/git/swp-report/iMX6_Platform_SDK/output/mx6sl/sdk_unit_test/evk_rev_a/obj/apps/common/platform_init.o
 .debug_aranges
                0x00000038       0x20 /home/leon/git/swp-report/iMX6_Platform_SDK/output/mx6sl/sdk_unit_test/evk_rev_a/obj/apps/common/print_clock_info.o
 .debug_aranges
                0x00000058       0x20 /home/leon/git/swp-report/iMX6_Platform_SDK/output/mx6sl/sdk_unit_test/evk_rev_a/obj/apps/common/print_version.o
 .debug_aranges
                0x00000078       0x20 /home/leon/git/swp-report/iMX6_Platform_SDK/output/mx6sl/sdk_unit_test/evk_rev_a/obj/apps/sdk_unit_test/src/all_test.o
 .debug_aranges
                0x00000098       0x20 /home/leon/git/swp-report/iMX6_Platform_SDK/output/mx6sl/sdk_unit_test/evk_rev_a/obj/apps/sdk_unit_test/src/unit_test_main.o
 .debug_aranges
                0x000000b8       0x20 /home/leon/git/swp-report/iMX6_Platform_SDK/output/mx6sl/lib/libsdk.a(ccm_pll.o)
 .debug_aranges
                0x000000d8       0x20 /home/leon/git/swp-report/iMX6_Platform_SDK/output/mx6sl/lib/libsdk.a(gic.o)
 .debug_aranges
                0x000000f8       0x20 /home/leon/git/swp-report/iMX6_Platform_SDK/output/mx6sl/lib/libsdk.a(mmu.o)
 .debug_aranges
                0x00000118       0x20 /home/leon/git/swp-report/iMX6_Platform_SDK/output/mx6sl/lib/libsdk.a(menu.o)
 .debug_aranges
                0x00000138       0x18 /home/leon/git/swp-report/iMX6_Platform_SDK/output/mx6sl/lib/libsdk.a(sdk_version.o)
 .debug_aranges
                0x00000150       0x20 /home/leon/git/swp-report/iMX6_Platform_SDK/output/mx6sl/lib/libsdk.a(system_util.o)
 .debug_aranges
                0x00000170       0x20 /home/leon/git/swp-report/iMX6_Platform_SDK/output/mx6sl/lib/libsdk.a(text_color.o)
 .debug_aranges
                0x00000190       0x20 /home/leon/git/swp-report/iMX6_Platform_SDK/output/mx6sl/lib/libsdk.a(board_id.o)
 .debug_aranges
                0x000001b0       0x20 /home/leon/git/swp-report/iMX6_Platform_SDK/output/mx6sl/lib/libsdk.a(timer.o)
 .debug_aranges
                0x000001d0       0x20 /home/leon/git/swp-report/iMX6_Platform_SDK/output/mx6sl/lib/libsdk.a(imx_uart.o)
 .debug_aranges
                0x000001f0       0x20 /home/leon/git/swp-report/iMX6_Platform_SDK/output/mx6sl/lib/libsdk.a(interrupt.o)
 .debug_aranges
                0x00000210       0x20 /home/leon/git/swp-report/iMX6_Platform_SDK/output/mx6sl/lib/libsdk.a(epit.o)
 .debug_aranges
                0x00000230       0x20 /home/leon/git/swp-report/iMX6_Platform_SDK/output/mx6sl/lib/libsdk.a(abort_handler.o)
 .debug_aranges
                0x00000250       0x20 /home/leon/git/swp-report/iMX6_Platform_SDK/output/mx6sl/lib/libboard_evk_rev_a.a(board_io_expanders.o)
 .debug_aranges
                0x00000270       0x18 /home/leon/git/swp-report/iMX6_Platform_SDK/output/mx6sl/lib/libboard_evk_rev_a.a(dcd.o)
 .debug_aranges
                0x00000288       0x18 /home/leon/git/swp-report/iMX6_Platform_SDK/output/mx6sl/lib/libboard_evk_rev_a.a(hardware_modules.o)
 .debug_aranges
                0x000002a0       0x20 /home/leon/git/swp-report/iMX6_Platform_SDK/output/mx6sl/lib/libboard_evk_rev_a.a(uart_iomux_config.o)
 .debug_aranges
                0x000002c0       0x20 /home/leon/git/swp-report/iMX6_Platform_SDK/output/mx6sl/lib/libboard_evk_rev_a.a(iomux_config.o)
 .debug_aranges
                0x000002e0       0x20 /home/leon/git/swp-report/iMX6_Platform_SDK/output/mx6sl/lib/libboard_evk_rev_a.a(kpp_iomux_config.o)
 .debug_aranges
                0x00000300       0x20 /home/leon/git/swp-report/iMX6_Platform_SDK/output/mx6sl/lib/libboard_evk_rev_a.a(lcd_iomux_config.o)
 .debug_aranges
                0x00000320       0x20 /home/leon/git/swp-report/iMX6_Platform_SDK/output/mx6sl/lib/libboard_evk_rev_a.a(mmdc_iomux_config.o)
 .debug_aranges
                0x00000340       0x20 /home/leon/git/swp-report/iMX6_Platform_SDK/output/mx6sl/lib/libboard_evk_rev_a.a(pwm1_iomux_config.o)
 .debug_aranges
                0x00000360       0x20 /home/leon/git/swp-report/iMX6_Platform_SDK/output/mx6sl/lib/libboard_evk_rev_a.a(sjc_iomux_config.o)
 .debug_aranges
                0x00000380       0x20 /home/leon/git/swp-report/iMX6_Platform_SDK/output/mx6sl/lib/libboard_evk_rev_a.a(spdc_iomux_config.o)
 .debug_aranges
                0x000003a0       0x20 /home/leon/git/swp-report/iMX6_Platform_SDK/output/mx6sl/lib/libboard_evk_rev_a.a(uart1_iomux_config.o)
 .debug_aranges
                0x000003c0       0x20 /home/leon/git/swp-report/iMX6_Platform_SDK/output/mx6sl/lib/libboard_evk_rev_a.a(usb_iomux_config.o)
 .debug_aranges
                0x000003e0       0x20 /home/leon/git/swp-report/iMX6_Platform_SDK/output/mx6sl/lib/libboard_evk_rev_a.a(usdhc1_iomux_config.o)
 .debug_aranges
                0x00000400       0x20 /home/leon/git/swp-report/iMX6_Platform_SDK/output/mx6sl/lib/libboard_evk_rev_a.a(usdhc2_iomux_config.o)
 .debug_aranges
                0x00000420       0x20 /home/leon/git/swp-report/iMX6_Platform_SDK/output/mx6sl/lib/libboard_evk_rev_a.a(usdhc3_iomux_config.o)
 .debug_aranges
                0x00000440       0x20 /home/leon/git/swp-report/iMX6_Platform_SDK/output/mx6sl/lib/libboard_evk_rev_a.a(wdog1_iomux_config.o)
 .debug_aranges
                0x00000460       0x20 /home/leon/git/swp-report/iMX6_Platform_SDK/output/mx6sl/lib/libboard_evk_rev_a.a(audmux_iomux_config.o)
 .debug_aranges
                0x00000480       0x20 /home/leon/git/swp-report/iMX6_Platform_SDK/output/mx6sl/lib/libboard_evk_rev_a.a(csi_iomux_config.o)
 .debug_aranges
                0x000004a0       0x20 /home/leon/git/swp-report/iMX6_Platform_SDK/output/mx6sl/lib/libboard_evk_rev_a.a(ecspi1_iomux_config.o)
 .debug_aranges
                0x000004c0       0x20 /home/leon/git/swp-report/iMX6_Platform_SDK/output/mx6sl/lib/libboard_evk_rev_a.a(ecspi2_iomux_config.o)
 .debug_aranges
                0x000004e0       0x20 /home/leon/git/swp-report/iMX6_Platform_SDK/output/mx6sl/lib/libboard_evk_rev_a.a(epdc_iomux_config.o)
 .debug_aranges
                0x00000500       0x20 /home/leon/git/swp-report/iMX6_Platform_SDK/output/mx6sl/lib/libboard_evk_rev_a.a(fec_iomux_config.o)
 .debug_aranges
                0x00000520       0x20 /home/leon/git/swp-report/iMX6_Platform_SDK/output/mx6sl/lib/libboard_evk_rev_a.a(gpio1_iomux_config.o)
 .debug_aranges
                0x00000540       0x20 /home/leon/git/swp-report/iMX6_Platform_SDK/output/mx6sl/lib/libboard_evk_rev_a.a(gpio4_iomux_config.o)
 .debug_aranges
                0x00000560       0x20 /home/leon/git/swp-report/iMX6_Platform_SDK/output/mx6sl/lib/libboard_evk_rev_a.a(i2c1_iomux_config.o)
 .debug_aranges
                0x00000580       0x20 /home/leon/git/swp-report/iMX6_Platform_SDK/output/mx6sl/lib/libboard_evk_rev_a.a(i2c2_iomux_config.o)
 .debug_aranges
                0x000005a0       0x20 /home/leon/git/swp-report/iMX6_Platform_SDK/output/mx6sl/lib/libboard_evk_rev_a.a(i2c3_iomux_config.o)
 .debug_aranges
                0x000005c0       0x20 /home/leon/git/swp-report/iMX6_Platform_SDK/output/mx6sl/sdk_unit_test/evk_rev_a/libsdk_unit_test.a(cpu_wp_test.o)
 .debug_aranges
                0x000005e0       0x20 /home/leon/git/swp-report/iMX6_Platform_SDK/output/mx6sl/sdk_unit_test/evk_rev_a/libsdk_unit_test.a(audio_test.o)
 .debug_aranges
                0x00000600       0x20 /home/leon/git/swp-report/iMX6_Platform_SDK/output/mx6sl/sdk_unit_test/evk_rev_a/libsdk_unit_test.a(ssi_playback.o)
 .debug_aranges
                0x00000620       0x20 /home/leon/git/swp-report/iMX6_Platform_SDK/output/mx6sl/sdk_unit_test/evk_rev_a/libsdk_unit_test.a(gic_test.o)
 .debug_aranges
                0x00000640       0x20 /home/leon/git/swp-report/iMX6_Platform_SDK/output/mx6sl/sdk_unit_test/evk_rev_a/libsdk_unit_test.a(ocotp_test.o)
 .debug_aranges
                0x00000660       0x20 /home/leon/git/swp-report/iMX6_Platform_SDK/output/mx6sl/sdk_unit_test/evk_rev_a/libsdk_unit_test.a(i2c_test.o)
 .debug_aranges
                0x00000680       0x20 /home/leon/git/swp-report/iMX6_Platform_SDK/output/mx6sl/sdk_unit_test/evk_rev_a/libsdk_unit_test.a(imx6_i2c_device.o)
 .debug_aranges
                0x000006a0       0x20 /home/leon/git/swp-report/iMX6_Platform_SDK/output/mx6sl/sdk_unit_test/evk_rev_a/libsdk_unit_test.a(snvs_rtc_test.o)
 .debug_aranges
                0x000006c0       0x20 /home/leon/git/swp-report/iMX6_Platform_SDK/output/mx6sl/sdk_unit_test/evk_rev_a/libsdk_unit_test.a(snvs_srtc_test.o)
 .debug_aranges
                0x000006e0       0x20 /home/leon/git/swp-report/iMX6_Platform_SDK/output/mx6sl/sdk_unit_test/evk_rev_a/libsdk_unit_test.a(tempmon_test.o)
 .debug_aranges
                0x00000700       0x20 /home/leon/git/swp-report/iMX6_Platform_SDK/output/mx6sl/sdk_unit_test/evk_rev_a/libsdk_unit_test.a(sdma_test.o)
 .debug_aranges
                0x00000720       0x20 /home/leon/git/swp-report/iMX6_Platform_SDK/output/mx6sl/sdk_unit_test/evk_rev_a/libsdk_unit_test.a(spi_lpb.o)
 .debug_aranges
                0x00000740       0x20 /home/leon/git/swp-report/iMX6_Platform_SDK/output/mx6sl/sdk_unit_test/evk_rev_a/libsdk_unit_test.a(uart_loopback.o)
 .debug_aranges
                0x00000760       0x20 /home/leon/git/swp-report/iMX6_Platform_SDK/output/mx6sl/sdk_unit_test/evk_rev_a/libsdk_unit_test.a(epit_test.o)
 .debug_aranges
                0x00000780       0x20 /home/leon/git/swp-report/iMX6_Platform_SDK/output/mx6sl/sdk_unit_test/evk_rev_a/libsdk_unit_test.a(gpt_test.o)
 .debug_aranges
                0x000007a0       0x20 /home/leon/git/swp-report/iMX6_Platform_SDK/output/mx6sl/sdk_unit_test/evk_rev_a/libsdk_unit_test.a(timer_test.o)
 .debug_aranges
                0x000007c0       0x20 /home/leon/git/swp-report/iMX6_Platform_SDK/output/mx6sl/sdk_unit_test/evk_rev_a/libsdk_unit_test.a(uart_test.o)
 .debug_aranges
                0x000007e0       0x20 /home/leon/git/swp-report/iMX6_Platform_SDK/output/mx6sl/sdk_unit_test/evk_rev_a/libsdk_unit_test.a(usdhc_test.o)
 .debug_aranges
                0x00000800       0x20 /home/leon/git/swp-report/iMX6_Platform_SDK/output/mx6sl/sdk_unit_test/evk_rev_a/libsdk_unit_test.a(pwm_test.o)
 .debug_aranges
                0x00000820       0x20 /home/leon/git/swp-report/iMX6_Platform_SDK/output/mx6sl/sdk_unit_test/evk_rev_a/libsdk_unit_test.a(watchdog_test.o)
 .debug_aranges
                0x00000840       0x20 /home/leon/git/swp-report/iMX6_Platform_SDK/output/mx6sl/sdk_unit_test/evk_rev_a/libsdk_unit_test.a(spi_test.o)
 .debug_aranges
                0x00000860       0x20 /home/leon/git/swp-report/iMX6_Platform_SDK/output/mx6sl/sdk_unit_test/evk_rev_a/libsdk_unit_test.a(usb_test.o)
 .debug_aranges
                0x00000880       0x20 /home/leon/git/swp-report/iMX6_Platform_SDK/output/mx6sl/sdk_unit_test/evk_rev_a/libsdk_unit_test.a(epdc_test.o)
 .debug_aranges
                0x000008a0       0x20 /home/leon/git/swp-report/iMX6_Platform_SDK/output/mx6sl/sdk_unit_test/evk_rev_a/libsdk_unit_test.a(lcdif_test.o)
 .debug_aranges
                0x000008c0       0x20 /home/leon/git/swp-report/iMX6_Platform_SDK/output/mx6sl/sdk_unit_test/evk_rev_a/libsdk_unit_test.a(camera_test.o)
 .debug_aranges
                0x000008e0       0x20 /home/leon/git/swp-report/iMX6_Platform_SDK/output/mx6sl/sdk_unit_test/evk_rev_a/libsdk_unit_test.a(csi_sensor_capture.o)
 .debug_aranges
                0x00000900       0x20 /home/leon/git/swp-report/iMX6_Platform_SDK/output/mx6sl/sdk_unit_test/evk_rev_a/libsdk_unit_test.a(fec_test.o)
 .debug_aranges
                0x00000920       0x20 /home/leon/git/swp-report/iMX6_Platform_SDK/output/mx6sl/sdk_unit_test/evk_rev_a/libsdk_unit_test.a(spdc_test.o)
 .debug_aranges
                0x00000940       0x20 /home/leon/git/swp-report/iMX6_Platform_SDK/output/mx6sl/sdk_unit_test/evk_rev_a/libsdk_unit_test.a(at24cxx.o)
 .debug_aranges
                0x00000960       0x20 /home/leon/git/swp-report/iMX6_Platform_SDK/output/mx6sl/sdk_unit_test/evk_rev_a/libsdk_unit_test.a(mem_2_mem.o)
 .debug_aranges
                0x00000980       0x20 /home/leon/git/swp-report/iMX6_Platform_SDK/output/mx6sl/sdk_unit_test/evk_rev_a/libsdk_unit_test.a(pwm_output.o)
 .debug_aranges
                0x000009a0       0x20 /home/leon/git/swp-report/iMX6_Platform_SDK/output/mx6sl/sdk_unit_test/evk_rev_a/libsdk_unit_test.a(spi_nor_numonyx.o)
 .debug_aranges
                0x000009c0       0x20 /home/leon/git/swp-report/iMX6_Platform_SDK/output/mx6sl/sdk_unit_test/evk_rev_a/libsdk_unit_test.a(usb0_device_mouse_test.o)
 .debug_aranges
                0x000009e0       0x20 /home/leon/git/swp-report/iMX6_Platform_SDK/output/mx6sl/sdk_unit_test/evk_rev_a/libsdk_unit_test.a(usb0_host_test.o)
 .debug_aranges
                0x00000a00       0x20 /home/leon/git/swp-report/iMX6_Platform_SDK/output/mx6sl/sdk_unit_test/evk_rev_a/libsdk_unit_test.a(usb0_host_testmodes_test.o)
 .debug_aranges
                0x00000a20       0x20 /home/leon/git/swp-report/iMX6_Platform_SDK/output/mx6sl/sdk_unit_test/evk_rev_a/libsdk_unit_test.a(lcdif_display.o)
 .debug_aranges
                0x00000a40       0x18 /home/leon/git/swp-report/iMX6_Platform_SDK/output/mx6sl/sdk_unit_test/evk_rev_a/libsdk_unit_test.a(auo_lut.o)
 .debug_aranges
                0x00000a58       0x20 /home/leon/git/swp-report/iMX6_Platform_SDK/output/mx6sl/lib/libsdk.a(profile.o)
 .debug_aranges
                0x00000a78       0x20 /home/leon/git/swp-report/iMX6_Platform_SDK/output/mx6sl/lib/libsdk.a(armv7_cache.o)
 .debug_aranges
                0x00000a98       0x20 /home/leon/git/swp-report/iMX6_Platform_SDK/output/mx6sl/lib/libsdk.a(runtime_support.o)
 .debug_aranges
                0x00000ab8       0x20 /home/leon/git/swp-report/iMX6_Platform_SDK/output/mx6sl/lib/libsdk.a(imx_audmux.o)
 .debug_aranges
                0x00000ad8       0x20 /home/leon/git/swp-report/iMX6_Platform_SDK/output/mx6sl/lib/libsdk.a(snd_card.o)
 .debug_aranges
                0x00000af8       0x20 /home/leon/git/swp-report/iMX6_Platform_SDK/output/mx6sl/lib/libsdk.a(wm8962.o)
 .debug_aranges
                0x00000b18       0x20 /home/leon/git/swp-report/iMX6_Platform_SDK/output/mx6sl/lib/libsdk.a(csi_drv.o)
 .debug_aranges
                0x00000b38       0x20 /home/leon/git/swp-report/iMX6_Platform_SDK/output/mx6sl/lib/libsdk.a(smd_sensor.o)
 .debug_aranges
                0x00000b58       0x20 /home/leon/git/swp-report/iMX6_Platform_SDK/output/mx6sl/lib/libsdk.a(cpu_workpoint.o)
 .debug_aranges
                0x00000b78       0x20 /home/leon/git/swp-report/iMX6_Platform_SDK/output/mx6sl/lib/libsdk.a(mxc_epdc.o)
 .debug_aranges
                0x00000b98       0x20 /home/leon/git/swp-report/iMX6_Platform_SDK/output/mx6sl/lib/libsdk.a(fec_drv.o)
 .debug_aranges
                0x00000bb8       0x20 /home/leon/git/swp-report/iMX6_Platform_SDK/output/mx6sl/lib/libsdk.a(gpio.o)
 .debug_aranges
                0x00000bd8       0x18 /home/leon/git/swp-report/iMX6_Platform_SDK/output/mx6sl/lib/libsdk.a(imx6sl_gpio_map.o)
 .debug_aranges
                0x00000bf0       0x20 /home/leon/git/swp-report/iMX6_Platform_SDK/output/mx6sl/lib/libsdk.a(imx_i2c.o)
 .debug_aranges
                0x00000c10       0x20 /home/leon/git/swp-report/iMX6_Platform_SDK/output/mx6sl/lib/libsdk.a(imx_i2c_slave.o)
 .debug_aranges
                0x00000c30       0x20 /home/leon/git/swp-report/iMX6_Platform_SDK/output/mx6sl/lib/libsdk.a(lcdif_drv.o)
 .debug_aranges
                0x00000c50       0x20 /home/leon/git/swp-report/iMX6_Platform_SDK/output/mx6sl/lib/libsdk.a(pxp_drv.o)
 .debug_aranges
                0x00000c70       0x20 /home/leon/git/swp-report/iMX6_Platform_SDK/output/mx6sl/lib/libsdk.a(ocotp.o)
 .debug_aranges
                0x00000c90      0x150 /home/leon/git/swp-report/iMX6_Platform_SDK/output/mx6sl/lib/libsdk.a(pmu_driver.o)
 .debug_aranges
                0x00000de0       0x20 /home/leon/git/swp-report/iMX6_Platform_SDK/output/mx6sl/lib/libsdk.a(pwm.o)
 .debug_aranges
                0x00000e00       0x20 /home/leon/git/swp-report/iMX6_Platform_SDK/output/mx6sl/lib/libsdk.a(rtc.o)
 .debug_aranges
                0x00000e20       0x20 /home/leon/git/swp-report/iMX6_Platform_SDK/output/mx6sl/lib/libsdk.a(srtc.o)
 .debug_aranges
                0x00000e40       0x20 /home/leon/git/swp-report/iMX6_Platform_SDK/output/mx6sl/lib/libsdk.a(sdma.o)
 .debug_aranges
                0x00000e60       0x18 /home/leon/git/swp-report/iMX6_Platform_SDK/output/mx6sl/lib/libsdk.a(sdma_script_info.o)
 .debug_aranges
                0x00000e78       0x20 /home/leon/git/swp-report/iMX6_Platform_SDK/output/mx6sl/lib/libsdk.a(snvs.o)
 .debug_aranges
                0x00000e98       0x20 /home/leon/git/swp-report/iMX6_Platform_SDK/output/mx6sl/lib/libsdk.a(mxc_spdc.o)
 .debug_aranges
                0x00000eb8       0x20 /home/leon/git/swp-report/iMX6_Platform_SDK/output/mx6sl/lib/libsdk.a(ecspi.o)
 .debug_aranges
                0x00000ed8       0x20 /home/leon/git/swp-report/iMX6_Platform_SDK/output/mx6sl/lib/libsdk.a(tempmon.o)
 .debug_aranges
                0x00000ef8       0x20 /home/leon/git/swp-report/iMX6_Platform_SDK/output/mx6sl/lib/libsdk.a(gpt.o)
 .debug_aranges
                0x00000f18       0x20 /home/leon/git/swp-report/iMX6_Platform_SDK/output/mx6sl/lib/libsdk.a(usb_common.o)
 .debug_aranges
                0x00000f38       0x20 /home/leon/git/swp-report/iMX6_Platform_SDK/output/mx6sl/lib/libsdk.a(usbd_drv.o)
 .debug_aranges
                0x00000f58       0x20 /home/leon/git/swp-report/iMX6_Platform_SDK/output/mx6sl/lib/libsdk.a(usbh_drv.o)
 .debug_aranges
                0x00000f78       0x20 /home/leon/git/swp-report/iMX6_Platform_SDK/output/mx6sl/lib/libsdk.a(usdhc.o)
 .debug_aranges
                0x00000f98       0x20 /home/leon/git/swp-report/iMX6_Platform_SDK/output/mx6sl/lib/libsdk.a(usdhc_host.o)
 .debug_aranges
                0x00000fb8       0x20 /home/leon/git/swp-report/iMX6_Platform_SDK/output/mx6sl/lib/libsdk.a(usdhc_mmc.o)
 .debug_aranges
                0x00000fd8       0x20 /home/leon/git/swp-report/iMX6_Platform_SDK/output/mx6sl/lib/libsdk.a(usdhc_sd.o)
 .debug_aranges
                0x00000ff8       0x20 /home/leon/git/swp-report/iMX6_Platform_SDK/output/mx6sl/lib/libsdk.a(imx-ssi.o)
 .debug_aranges
                0x00001018       0x20 /home/leon/git/swp-report/iMX6_Platform_SDK/output/mx6sl/lib/libsdk.a(imx_spdif.o)
 .debug_aranges
                0x00001038       0x18 /home/leon/git/swp-report/iMX6_Platform_SDK/output/mx6sl/lib/libsdk.a(camera_profile.o)
 .debug_aranges
                0x00001050       0x20 /home/leon/git/swp-report/iMX6_Platform_SDK/output/mx6sl/lib/libsdk.a(mx6x_usb.o)
 .debug_aranges
                0x00001070       0x20 /home/leon/git/swp-report/iMX6_Platform_SDK/output/mx6sl/lib/libboard_evk_rev_a.a(board_audio.o)
 .debug_aranges
                0x00001090       0x20 /home/leon/git/swp-report/iMX6_Platform_SDK/output/mx6sl/lib/libboard_evk_rev_a.a(board_camera.o)
 .debug_aranges
                0x000010b0       0x20 /home/leon/git/swp-report/iMX6_Platform_SDK/output/mx6sl/lib/libboard_evk_rev_a.a(board_display.o)
 .debug_aranges
                0x000010d0       0x18 /home/leon/git/swp-report/iMX6_Platform_SDK/output/mx6sl/lib/libboard_evk_rev_a.a(board_i2c.o)
 .debug_aranges
                0x000010e8       0x20 /home/leon/git/swp-report/iMX6_Platform_SDK/output/mx6sl/lib/libboard_evk_rev_a.a(board_usb.o)
 .debug_aranges
                0x00001108       0x20 /home/leon/git/swp-report/iMX6_Platform_SDK/output/mx6sl/lib/libboard_evk_rev_a.a(board_usdhc.o)
 .debug_aranges
                0x00001128       0x20 /home/leon/git/swp-report/iMX6_Platform_SDK/output/mx6sl/lib/libboard_evk_rev_a.a(ecspi_iomux_config.o)
 .debug_aranges
                0x00001148       0x20 /home/leon/git/swp-report/iMX6_Platform_SDK/output/mx6sl/lib/libboard_evk_rev_a.a(i2c_iomux_config.o)
 .debug_aranges
                0x00001168       0x20 /home/leon/git/swp-report/iMX6_Platform_SDK/output/mx6sl/lib/libboard_evk_rev_a.a(pwm_iomux_config.o)
 .debug_aranges
                0x00001188       0x20 /home/leon/git/swp-report/iMX6_Platform_SDK/output/mx6sl/lib/libboard_evk_rev_a.a(usdhc_iomux_config.o)
 .debug_aranges
                0x000011a8       0x20 /home/leon/git/swp-report/iMX6_Platform_SDK/output/mx6sl/lib/libsdk.a(pf0100.o)

.debug_line     0x00000000    0x165be
 .debug_line    0x00000000      0x103 /home/leon/git/swp-report/iMX6_Platform_SDK/output/mx6sl/sdk_unit_test/evk_rev_a/obj/apps/common/ivt.o
 .debug_line    0x00000103      0x17e /home/leon/git/swp-report/iMX6_Platform_SDK/output/mx6sl/sdk_unit_test/evk_rev_a/obj/apps/common/platform_init.o
 .debug_line    0x00000281      0x171 /home/leon/git/swp-report/iMX6_Platform_SDK/output/mx6sl/sdk_unit_test/evk_rev_a/obj/apps/common/print_clock_info.o
 .debug_line    0x000003f2      0x17f /home/leon/git/swp-report/iMX6_Platform_SDK/output/mx6sl/sdk_unit_test/evk_rev_a/obj/apps/common/print_version.o
 .debug_line    0x00000571       0xc7 /home/leon/git/swp-report/iMX6_Platform_SDK/output/mx6sl/sdk_unit_test/evk_rev_a/obj/apps/sdk_unit_test/src/all_test.o
 .debug_line    0x00000638       0x8a /home/leon/git/swp-report/iMX6_Platform_SDK/output/mx6sl/sdk_unit_test/evk_rev_a/obj/apps/sdk_unit_test/src/unit_test_main.o
 .debug_line    0x000006c2      0x22c /home/leon/git/swp-report/iMX6_Platform_SDK/output/mx6sl/lib/libsdk.a(ccm_pll.o)
 .debug_line    0x000008ee      0x165 /home/leon/git/swp-report/iMX6_Platform_SDK/output/mx6sl/lib/libsdk.a(gic.o)
 .debug_line    0x00000a53      0x188 /home/leon/git/swp-report/iMX6_Platform_SDK/output/mx6sl/lib/libsdk.a(mmu.o)
 .debug_line    0x00000bdb      0x2e0 /home/leon/git/swp-report/iMX6_Platform_SDK/output/mx6sl/lib/libsdk.a(menu.o)
 .debug_line    0x00000ebb       0x6a /home/leon/git/swp-report/iMX6_Platform_SDK/output/mx6sl/lib/libsdk.a(sdk_version.o)
 .debug_line    0x00000f25      0x365 /home/leon/git/swp-report/iMX6_Platform_SDK/output/mx6sl/lib/libsdk.a(system_util.o)
 .debug_line    0x0000128a       0xf0 /home/leon/git/swp-report/iMX6_Platform_SDK/output/mx6sl/lib/libsdk.a(text_color.o)
 .debug_line    0x0000137a      0x278 /home/leon/git/swp-report/iMX6_Platform_SDK/output/mx6sl/lib/libsdk.a(board_id.o)
 .debug_line    0x000015f2      0x200 /home/leon/git/swp-report/iMX6_Platform_SDK/output/mx6sl/lib/libsdk.a(timer.o)
 .debug_line    0x000017f2     0x12ca /home/leon/git/swp-report/iMX6_Platform_SDK/output/mx6sl/lib/libsdk.a(imx_uart.o)
 .debug_line    0x00002abc      0x180 /home/leon/git/swp-report/iMX6_Platform_SDK/output/mx6sl/lib/libsdk.a(interrupt.o)
 .debug_line    0x00002c3c      0x57f /home/leon/git/swp-report/iMX6_Platform_SDK/output/mx6sl/lib/libsdk.a(epit.o)
 .debug_line    0x000031bb      0x24a /home/leon/git/swp-report/iMX6_Platform_SDK/output/mx6sl/lib/libsdk.a(abort_handler.o)
 .debug_line    0x00003405       0x81 /home/leon/git/swp-report/iMX6_Platform_SDK/output/mx6sl/lib/libboard_evk_rev_a.a(board_io_expanders.o)
 .debug_line    0x00003486      0x107 /home/leon/git/swp-report/iMX6_Platform_SDK/output/mx6sl/lib/libboard_evk_rev_a.a(dcd.o)
 .debug_line    0x0000358d       0xcb /home/leon/git/swp-report/iMX6_Platform_SDK/output/mx6sl/lib/libboard_evk_rev_a.a(hardware_modules.o)
 .debug_line    0x00003658       0x8e /home/leon/git/swp-report/iMX6_Platform_SDK/output/mx6sl/lib/libboard_evk_rev_a.a(uart_iomux_config.o)
 .debug_line    0x000036e6       0xcc /home/leon/git/swp-report/iMX6_Platform_SDK/output/mx6sl/lib/libboard_evk_rev_a.a(iomux_config.o)
 .debug_line    0x000037b2      0x12f /home/leon/git/swp-report/iMX6_Platform_SDK/output/mx6sl/lib/libboard_evk_rev_a.a(kpp_iomux_config.o)
 .debug_line    0x000038e1      0x1e2 /home/leon/git/swp-report/iMX6_Platform_SDK/output/mx6sl/lib/libboard_evk_rev_a.a(lcd_iomux_config.o)
 .debug_line    0x00003ac3      0x401 /home/leon/git/swp-report/iMX6_Platform_SDK/output/mx6sl/lib/libboard_evk_rev_a.a(mmdc_iomux_config.o)
 .debug_line    0x00003ec4       0xf0 /home/leon/git/swp-report/iMX6_Platform_SDK/output/mx6sl/lib/libboard_evk_rev_a.a(pwm1_iomux_config.o)
 .debug_line    0x00003fb4       0xfa /home/leon/git/swp-report/iMX6_Platform_SDK/output/mx6sl/lib/libboard_evk_rev_a.a(sjc_iomux_config.o)
 .debug_line    0x000040ae      0x14a /home/leon/git/swp-report/iMX6_Platform_SDK/output/mx6sl/lib/libboard_evk_rev_a.a(spdc_iomux_config.o)
 .debug_line    0x000041f8       0xfb /home/leon/git/swp-report/iMX6_Platform_SDK/output/mx6sl/lib/libboard_evk_rev_a.a(uart1_iomux_config.o)
 .debug_line    0x000042f3      0x107 /home/leon/git/swp-report/iMX6_Platform_SDK/output/mx6sl/lib/libboard_evk_rev_a.a(usb_iomux_config.o)
 .debug_line    0x000043fa      0x138 /home/leon/git/swp-report/iMX6_Platform_SDK/output/mx6sl/lib/libboard_evk_rev_a.a(usdhc1_iomux_config.o)
 .debug_line    0x00004532      0x126 /home/leon/git/swp-report/iMX6_Platform_SDK/output/mx6sl/lib/libboard_evk_rev_a.a(usdhc2_iomux_config.o)
 .debug_line    0x00004658      0x119 /home/leon/git/swp-report/iMX6_Platform_SDK/output/mx6sl/lib/libboard_evk_rev_a.a(usdhc3_iomux_config.o)
 .debug_line    0x00004771       0xf1 /home/leon/git/swp-report/iMX6_Platform_SDK/output/mx6sl/lib/libboard_evk_rev_a.a(wdog1_iomux_config.o)
 .debug_line    0x00004862      0x116 /home/leon/git/swp-report/iMX6_Platform_SDK/output/mx6sl/lib/libboard_evk_rev_a.a(audmux_iomux_config.o)
 .debug_line    0x00004978      0x170 /home/leon/git/swp-report/iMX6_Platform_SDK/output/mx6sl/lib/libboard_evk_rev_a.a(csi_iomux_config.o)
 .debug_line    0x00004ae8      0x10e /home/leon/git/swp-report/iMX6_Platform_SDK/output/mx6sl/lib/libboard_evk_rev_a.a(ecspi1_iomux_config.o)
 .debug_line    0x00004bf6      0x10e /home/leon/git/swp-report/iMX6_Platform_SDK/output/mx6sl/lib/libboard_evk_rev_a.a(ecspi2_iomux_config.o)
 .debug_line    0x00004d04      0x1e0 /home/leon/git/swp-report/iMX6_Platform_SDK/output/mx6sl/lib/libboard_evk_rev_a.a(epdc_iomux_config.o)
 .debug_line    0x00004ee4      0x137 /home/leon/git/swp-report/iMX6_Platform_SDK/output/mx6sl/lib/libboard_evk_rev_a.a(fec_iomux_config.o)
 .debug_line    0x0000501b       0x87 /home/leon/git/swp-report/iMX6_Platform_SDK/output/mx6sl/lib/libboard_evk_rev_a.a(gpio1_iomux_config.o)
 .debug_line    0x000050a2       0x87 /home/leon/git/swp-report/iMX6_Platform_SDK/output/mx6sl/lib/libboard_evk_rev_a.a(gpio4_iomux_config.o)
 .debug_line    0x00005129       0xfa /home/leon/git/swp-report/iMX6_Platform_SDK/output/mx6sl/lib/libboard_evk_rev_a.a(i2c1_iomux_config.o)
 .debug_line    0x00005223       0xfa /home/leon/git/swp-report/iMX6_Platform_SDK/output/mx6sl/lib/libboard_evk_rev_a.a(i2c2_iomux_config.o)
 .debug_line    0x0000531d       0xfa /home/leon/git/swp-report/iMX6_Platform_SDK/output/mx6sl/lib/libboard_evk_rev_a.a(i2c3_iomux_config.o)
 .debug_line    0x00005417      0x1f5 /home/leon/git/swp-report/iMX6_Platform_SDK/output/mx6sl/sdk_unit_test/evk_rev_a/libsdk_unit_test.a(cpu_wp_test.o)
 .debug_line    0x0000560c      0x20d /home/leon/git/swp-report/iMX6_Platform_SDK/output/mx6sl/sdk_unit_test/evk_rev_a/libsdk_unit_test.a(audio_test.o)
 .debug_line    0x00005819      0x299 /home/leon/git/swp-report/iMX6_Platform_SDK/output/mx6sl/sdk_unit_test/evk_rev_a/libsdk_unit_test.a(ssi_playback.o)
 .debug_line    0x00005ab2      0x125 /home/leon/git/swp-report/iMX6_Platform_SDK/output/mx6sl/sdk_unit_test/evk_rev_a/libsdk_unit_test.a(gic_test.o)
 .debug_line    0x00005bd7      0x1dc /home/leon/git/swp-report/iMX6_Platform_SDK/output/mx6sl/sdk_unit_test/evk_rev_a/libsdk_unit_test.a(ocotp_test.o)
 .debug_line    0x00005db3      0x176 /home/leon/git/swp-report/iMX6_Platform_SDK/output/mx6sl/sdk_unit_test/evk_rev_a/libsdk_unit_test.a(i2c_test.o)
 .debug_line    0x00005f29      0x2dd /home/leon/git/swp-report/iMX6_Platform_SDK/output/mx6sl/sdk_unit_test/evk_rev_a/libsdk_unit_test.a(imx6_i2c_device.o)
 .debug_line    0x00006206      0x1a9 /home/leon/git/swp-report/iMX6_Platform_SDK/output/mx6sl/sdk_unit_test/evk_rev_a/libsdk_unit_test.a(snvs_rtc_test.o)
 .debug_line    0x000063af      0x18b /home/leon/git/swp-report/iMX6_Platform_SDK/output/mx6sl/sdk_unit_test/evk_rev_a/libsdk_unit_test.a(snvs_srtc_test.o)
 .debug_line    0x0000653a      0x181 /home/leon/git/swp-report/iMX6_Platform_SDK/output/mx6sl/sdk_unit_test/evk_rev_a/libsdk_unit_test.a(tempmon_test.o)
 .debug_line    0x000066bb      0x1a6 /home/leon/git/swp-report/iMX6_Platform_SDK/output/mx6sl/sdk_unit_test/evk_rev_a/libsdk_unit_test.a(sdma_test.o)
 .debug_line    0x00006861      0x217 /home/leon/git/swp-report/iMX6_Platform_SDK/output/mx6sl/sdk_unit_test/evk_rev_a/libsdk_unit_test.a(spi_lpb.o)
 .debug_line    0x00006a78      0x313 /home/leon/git/swp-report/iMX6_Platform_SDK/output/mx6sl/sdk_unit_test/evk_rev_a/libsdk_unit_test.a(uart_loopback.o)
 .debug_line    0x00006d8b      0x23f /home/leon/git/swp-report/iMX6_Platform_SDK/output/mx6sl/sdk_unit_test/evk_rev_a/libsdk_unit_test.a(epit_test.o)
 .debug_line    0x00006fca      0x2d3 /home/leon/git/swp-report/iMX6_Platform_SDK/output/mx6sl/sdk_unit_test/evk_rev_a/libsdk_unit_test.a(gpt_test.o)
 .debug_line    0x0000729d       0xe6 /home/leon/git/swp-report/iMX6_Platform_SDK/output/mx6sl/sdk_unit_test/evk_rev_a/libsdk_unit_test.a(timer_test.o)
 .debug_line    0x00007383      0x217 /home/leon/git/swp-report/iMX6_Platform_SDK/output/mx6sl/sdk_unit_test/evk_rev_a/libsdk_unit_test.a(uart_test.o)
 .debug_line    0x0000759a      0x395 /home/leon/git/swp-report/iMX6_Platform_SDK/output/mx6sl/sdk_unit_test/evk_rev_a/libsdk_unit_test.a(usdhc_test.o)
 .debug_line    0x0000792f      0x1db /home/leon/git/swp-report/iMX6_Platform_SDK/output/mx6sl/sdk_unit_test/evk_rev_a/libsdk_unit_test.a(pwm_test.o)
 .debug_line    0x00007b0a      0x1eb /home/leon/git/swp-report/iMX6_Platform_SDK/output/mx6sl/sdk_unit_test/evk_rev_a/libsdk_unit_test.a(watchdog_test.o)
 .debug_line    0x00007cf5      0x243 /home/leon/git/swp-report/iMX6_Platform_SDK/output/mx6sl/sdk_unit_test/evk_rev_a/libsdk_unit_test.a(spi_test.o)
 .debug_line    0x00007f38       0xf6 /home/leon/git/swp-report/iMX6_Platform_SDK/output/mx6sl/sdk_unit_test/evk_rev_a/libsdk_unit_test.a(usb_test.o)
 .debug_line    0x0000802e      0x257 /home/leon/git/swp-report/iMX6_Platform_SDK/output/mx6sl/sdk_unit_test/evk_rev_a/libsdk_unit_test.a(epdc_test.o)
 .debug_line    0x00008285      0x1df /home/leon/git/swp-report/iMX6_Platform_SDK/output/mx6sl/sdk_unit_test/evk_rev_a/libsdk_unit_test.a(lcdif_test.o)
 .debug_line    0x00008464      0x1e2 /home/leon/git/swp-report/iMX6_Platform_SDK/output/mx6sl/sdk_unit_test/evk_rev_a/libsdk_unit_test.a(camera_test.o)
 .debug_line    0x00008646      0x21a /home/leon/git/swp-report/iMX6_Platform_SDK/output/mx6sl/sdk_unit_test/evk_rev_a/libsdk_unit_test.a(csi_sensor_capture.o)
 .debug_line    0x00008860      0x2de /home/leon/git/swp-report/iMX6_Platform_SDK/output/mx6sl/sdk_unit_test/evk_rev_a/libsdk_unit_test.a(fec_test.o)
 .debug_line    0x00008b3e      0x1d9 /home/leon/git/swp-report/iMX6_Platform_SDK/output/mx6sl/sdk_unit_test/evk_rev_a/libsdk_unit_test.a(spdc_test.o)
 .debug_line    0x00008d17      0x1f5 /home/leon/git/swp-report/iMX6_Platform_SDK/output/mx6sl/sdk_unit_test/evk_rev_a/libsdk_unit_test.a(at24cxx.o)
 .debug_line    0x00008f0c      0x1c4 /home/leon/git/swp-report/iMX6_Platform_SDK/output/mx6sl/sdk_unit_test/evk_rev_a/libsdk_unit_test.a(mem_2_mem.o)
 .debug_line    0x000090d0      0x19d /home/leon/git/swp-report/iMX6_Platform_SDK/output/mx6sl/sdk_unit_test/evk_rev_a/libsdk_unit_test.a(pwm_output.o)
 .debug_line    0x0000926d      0x22d /home/leon/git/swp-report/iMX6_Platform_SDK/output/mx6sl/sdk_unit_test/evk_rev_a/libsdk_unit_test.a(spi_nor_numonyx.o)
 .debug_line    0x0000949a      0x58d /home/leon/git/swp-report/iMX6_Platform_SDK/output/mx6sl/sdk_unit_test/evk_rev_a/libsdk_unit_test.a(usb0_device_mouse_test.o)
 .debug_line    0x00009a27      0xba2 /home/leon/git/swp-report/iMX6_Platform_SDK/output/mx6sl/sdk_unit_test/evk_rev_a/libsdk_unit_test.a(usb0_host_test.o)
 .debug_line    0x0000a5c9      0x37c /home/leon/git/swp-report/iMX6_Platform_SDK/output/mx6sl/sdk_unit_test/evk_rev_a/libsdk_unit_test.a(usb0_host_testmodes_test.o)
 .debug_line    0x0000a945      0x1bc /home/leon/git/swp-report/iMX6_Platform_SDK/output/mx6sl/sdk_unit_test/evk_rev_a/libsdk_unit_test.a(lcdif_display.o)
 .debug_line    0x0000ab01       0x6c /home/leon/git/swp-report/iMX6_Platform_SDK/output/mx6sl/sdk_unit_test/evk_rev_a/libsdk_unit_test.a(auo_lut.o)
 .debug_line    0x0000ab6d       0x86 /home/leon/git/swp-report/iMX6_Platform_SDK/output/mx6sl/lib/libsdk.a(profile.o)
 .debug_line    0x0000abf3      0x1aa /home/leon/git/swp-report/iMX6_Platform_SDK/output/mx6sl/lib/libsdk.a(armv7_cache.o)
 .debug_line    0x0000ad9d      0x234 /home/leon/git/swp-report/iMX6_Platform_SDK/output/mx6sl/lib/libsdk.a(runtime_support.o)
 .debug_line    0x0000afd1      0x457 /home/leon/git/swp-report/iMX6_Platform_SDK/output/mx6sl/lib/libsdk.a(imx_audmux.o)
 .debug_line    0x0000b428      0x1b1 /home/leon/git/swp-report/iMX6_Platform_SDK/output/mx6sl/lib/libsdk.a(snd_card.o)
 .debug_line    0x0000b5d9      0x2ee /home/leon/git/swp-report/iMX6_Platform_SDK/output/mx6sl/lib/libsdk.a(wm8962.o)
 .debug_line    0x0000b8c7      0x118 /home/leon/git/swp-report/iMX6_Platform_SDK/output/mx6sl/lib/libsdk.a(csi_drv.o)
 .debug_line    0x0000b9df      0x262 /home/leon/git/swp-report/iMX6_Platform_SDK/output/mx6sl/lib/libsdk.a(smd_sensor.o)
 .debug_line    0x0000bc41      0x219 /home/leon/git/swp-report/iMX6_Platform_SDK/output/mx6sl/lib/libsdk.a(cpu_workpoint.o)
 .debug_line    0x0000be5a      0x29b /home/leon/git/swp-report/iMX6_Platform_SDK/output/mx6sl/lib/libsdk.a(mxc_epdc.o)
 .debug_line    0x0000c0f5      0x310 /home/leon/git/swp-report/iMX6_Platform_SDK/output/mx6sl/lib/libsdk.a(fec_drv.o)
 .debug_line    0x0000c405      0x7ba /home/leon/git/swp-report/iMX6_Platform_SDK/output/mx6sl/lib/libsdk.a(gpio.o)
 .debug_line    0x0000cbbf       0xcf /home/leon/git/swp-report/iMX6_Platform_SDK/output/mx6sl/lib/libsdk.a(imx6sl_gpio_map.o)
 .debug_line    0x0000cc8e      0x9be /home/leon/git/swp-report/iMX6_Platform_SDK/output/mx6sl/lib/libsdk.a(imx_i2c.o)
 .debug_line    0x0000d64c      0x576 /home/leon/git/swp-report/iMX6_Platform_SDK/output/mx6sl/lib/libsdk.a(imx_i2c_slave.o)
 .debug_line    0x0000dbc2      0x2f1 /home/leon/git/swp-report/iMX6_Platform_SDK/output/mx6sl/lib/libsdk.a(lcdif_drv.o)
 .debug_line    0x0000deb3      0x118 /home/leon/git/swp-report/iMX6_Platform_SDK/output/mx6sl/lib/libsdk.a(pxp_drv.o)
 .debug_line    0x0000dfcb      0x1ad /home/leon/git/swp-report/iMX6_Platform_SDK/output/mx6sl/lib/libsdk.a(ocotp.o)
 .debug_line    0x0000e178      0x910 /home/leon/git/swp-report/iMX6_Platform_SDK/output/mx6sl/lib/libsdk.a(pmu_driver.o)
 .debug_line    0x0000ea88      0x5ec /home/leon/git/swp-report/iMX6_Platform_SDK/output/mx6sl/lib/libsdk.a(pwm.o)
 .debug_line    0x0000f074      0x253 /home/leon/git/swp-report/iMX6_Platform_SDK/output/mx6sl/lib/libsdk.a(rtc.o)
 .debug_line    0x0000f2c7      0x238 /home/leon/git/swp-report/iMX6_Platform_SDK/output/mx6sl/lib/libsdk.a(srtc.o)
 .debug_line    0x0000f4ff      0x400 /home/leon/git/swp-report/iMX6_Platform_SDK/output/mx6sl/lib/libsdk.a(sdma.o)
 .debug_line    0x0000f8ff      0x14a /home/leon/git/swp-report/iMX6_Platform_SDK/output/mx6sl/lib/libsdk.a(sdma_script_info.o)
 .debug_line    0x0000fa49      0x1be /home/leon/git/swp-report/iMX6_Platform_SDK/output/mx6sl/lib/libsdk.a(snvs.o)
 .debug_line    0x0000fc07      0x229 /home/leon/git/swp-report/iMX6_Platform_SDK/output/mx6sl/lib/libsdk.a(mxc_spdc.o)
 .debug_line    0x0000fe30      0x85a /home/leon/git/swp-report/iMX6_Platform_SDK/output/mx6sl/lib/libsdk.a(ecspi.o)
 .debug_line    0x0001068a      0x279 /home/leon/git/swp-report/iMX6_Platform_SDK/output/mx6sl/lib/libsdk.a(tempmon.o)
 .debug_line    0x00010903      0x27f /home/leon/git/swp-report/iMX6_Platform_SDK/output/mx6sl/lib/libsdk.a(gpt.o)
 .debug_line    0x00010b82      0x294 /home/leon/git/swp-report/iMX6_Platform_SDK/output/mx6sl/lib/libsdk.a(usb_common.o)
 .debug_line    0x00010e16      0xad5 /home/leon/git/swp-report/iMX6_Platform_SDK/output/mx6sl/lib/libsdk.a(usbd_drv.o)
 .debug_line    0x000118eb      0xbb4 /home/leon/git/swp-report/iMX6_Platform_SDK/output/mx6sl/lib/libsdk.a(usbh_drv.o)
 .debug_line    0x0001249f      0x37f /home/leon/git/swp-report/iMX6_Platform_SDK/output/mx6sl/lib/libsdk.a(usdhc.o)
 .debug_line    0x0001281e     0x14a4 /home/leon/git/swp-report/iMX6_Platform_SDK/output/mx6sl/lib/libsdk.a(usdhc_host.o)
 .debug_line    0x00013cc2      0x348 /home/leon/git/swp-report/iMX6_Platform_SDK/output/mx6sl/lib/libsdk.a(usdhc_mmc.o)
 .debug_line    0x0001400a      0x202 /home/leon/git/swp-report/iMX6_Platform_SDK/output/mx6sl/lib/libsdk.a(usdhc_sd.o)
 .debug_line    0x0001420c     0x11d2 /home/leon/git/swp-report/iMX6_Platform_SDK/output/mx6sl/lib/libsdk.a(imx-ssi.o)
 .debug_line    0x000153de      0x227 /home/leon/git/swp-report/iMX6_Platform_SDK/output/mx6sl/lib/libsdk.a(imx_spdif.o)
 .debug_line    0x00015605      0x11f /home/leon/git/swp-report/iMX6_Platform_SDK/output/mx6sl/lib/libsdk.a(camera_profile.o)
 .debug_line    0x00015724      0x270 /home/leon/git/swp-report/iMX6_Platform_SDK/output/mx6sl/lib/libsdk.a(mx6x_usb.o)
 .debug_line    0x00015994       0x84 /home/leon/git/swp-report/iMX6_Platform_SDK/output/mx6sl/lib/libboard_evk_rev_a.a(board_audio.o)
 .debug_line    0x00015a18      0x1fd /home/leon/git/swp-report/iMX6_Platform_SDK/output/mx6sl/lib/libboard_evk_rev_a.a(board_camera.o)
 .debug_line    0x00015c15      0x185 /home/leon/git/swp-report/iMX6_Platform_SDK/output/mx6sl/lib/libboard_evk_rev_a.a(board_display.o)
 .debug_line    0x00015d9a      0x10d /home/leon/git/swp-report/iMX6_Platform_SDK/output/mx6sl/lib/libboard_evk_rev_a.a(board_i2c.o)
 .debug_line    0x00015ea7      0x14f /home/leon/git/swp-report/iMX6_Platform_SDK/output/mx6sl/lib/libboard_evk_rev_a.a(board_usb.o)
 .debug_line    0x00015ff6      0x1a2 /home/leon/git/swp-report/iMX6_Platform_SDK/output/mx6sl/lib/libboard_evk_rev_a.a(board_usdhc.o)
 .debug_line    0x00016198       0x8e /home/leon/git/swp-report/iMX6_Platform_SDK/output/mx6sl/lib/libboard_evk_rev_a.a(ecspi_iomux_config.o)
 .debug_line    0x00016226       0x8a /home/leon/git/swp-report/iMX6_Platform_SDK/output/mx6sl/lib/libboard_evk_rev_a.a(i2c_iomux_config.o)
 .debug_line    0x000162b0       0x8c /home/leon/git/swp-report/iMX6_Platform_SDK/output/mx6sl/lib/libboard_evk_rev_a.a(pwm_iomux_config.o)
 .debug_line    0x0001633c       0x8e /home/leon/git/swp-report/iMX6_Platform_SDK/output/mx6sl/lib/libboard_evk_rev_a.a(usdhc_iomux_config.o)
 .debug_line    0x000163ca      0x1f4 /home/leon/git/swp-report/iMX6_Platform_SDK/output/mx6sl/lib/libsdk.a(pf0100.o)

.debug_str      0x00000000    0x20dce
 .debug_str     0x00000000      0x150 /home/leon/git/swp-report/iMX6_Platform_SDK/output/mx6sl/sdk_unit_test/evk_rev_a/obj/apps/common/ivt.o
                                0x1ad (size before relaxing)
 .debug_str     0x00000150      0x146 /home/leon/git/swp-report/iMX6_Platform_SDK/output/mx6sl/sdk_unit_test/evk_rev_a/obj/apps/common/platform_init.o
                                0x1f5 (size before relaxing)
 .debug_str     0x00000296      0x170 /home/leon/git/swp-report/iMX6_Platform_SDK/output/mx6sl/sdk_unit_test/evk_rev_a/obj/apps/common/print_clock_info.o
                                0x277 (size before relaxing)
 .debug_str     0x00000406      0x11a /home/leon/git/swp-report/iMX6_Platform_SDK/output/mx6sl/sdk_unit_test/evk_rev_a/obj/apps/common/print_version.o
                                0x20c (size before relaxing)
 .debug_str     0x00000520      0x1f5 /home/leon/git/swp-report/iMX6_Platform_SDK/output/mx6sl/sdk_unit_test/evk_rev_a/obj/apps/sdk_unit_test/src/all_test.o
                                0x2d1 (size before relaxing)
 .debug_str     0x00000715       0x54 /home/leon/git/swp-report/iMX6_Platform_SDK/output/mx6sl/sdk_unit_test/evk_rev_a/obj/apps/sdk_unit_test/src/unit_test_main.o
                                0x140 (size before relaxing)
 .debug_str     0x00000769      0x9f6 /home/leon/git/swp-report/iMX6_Platform_SDK/output/mx6sl/lib/libsdk.a(ccm_pll.o)
                                0xc0d (size before relaxing)
 .debug_str     0x0000115f      0x4e1 /home/leon/git/swp-report/iMX6_Platform_SDK/output/mx6sl/lib/libsdk.a(gic.o)
                                0x5f2 (size before relaxing)
 .debug_str     0x00001640      0x256 /home/leon/git/swp-report/iMX6_Platform_SDK/output/mx6sl/lib/libsdk.a(mmu.o)
                                0x35e (size before relaxing)
 .debug_str     0x00001896      0x5e9 /home/leon/git/swp-report/iMX6_Platform_SDK/output/mx6sl/lib/libsdk.a(menu.o)
                                0x85d (size before relaxing)
 .debug_str     0x00001e7f       0x4a /home/leon/git/swp-report/iMX6_Platform_SDK/output/mx6sl/lib/libsdk.a(sdk_version.o)
                                 0x82 (size before relaxing)
 .debug_str     0x00001ec9      0x10f /home/leon/git/swp-report/iMX6_Platform_SDK/output/mx6sl/lib/libsdk.a(system_util.o)
                                0x7ac (size before relaxing)
 .debug_str     0x00001fd8      0x19c /home/leon/git/swp-report/iMX6_Platform_SDK/output/mx6sl/lib/libsdk.a(text_color.o)
                                0x305 (size before relaxing)
 .debug_str     0x00002174      0x21c /home/leon/git/swp-report/iMX6_Platform_SDK/output/mx6sl/lib/libsdk.a(board_id.o)
                                0x3d2 (size before relaxing)
 .debug_str     0x00002390      0x2b5 /home/leon/git/swp-report/iMX6_Platform_SDK/output/mx6sl/lib/libsdk.a(timer.o)
                                0x3f8 (size before relaxing)
 .debug_str     0x00002645     0x10f7 /home/leon/git/swp-report/iMX6_Platform_SDK/output/mx6sl/lib/libsdk.a(imx_uart.o)
                               0x139e (size before relaxing)
 .debug_str     0x0000373c       0xd7 /home/leon/git/swp-report/iMX6_Platform_SDK/output/mx6sl/lib/libsdk.a(interrupt.o)
                                0xd35 (size before relaxing)
 .debug_str     0x00003813      0x283 /home/leon/git/swp-report/iMX6_Platform_SDK/output/mx6sl/lib/libsdk.a(epit.o)
                                0xfb6 (size before relaxing)
 .debug_str     0x00003a96       0xbc /home/leon/git/swp-report/iMX6_Platform_SDK/output/mx6sl/lib/libsdk.a(abort_handler.o)
                                0x1a1 (size before relaxing)
 .debug_str     0x00003b52       0xa3 /home/leon/git/swp-report/iMX6_Platform_SDK/output/mx6sl/lib/libboard_evk_rev_a.a(board_io_expanders.o)
                                0x147 (size before relaxing)
 .debug_str     0x00003bf5       0xa9 /home/leon/git/swp-report/iMX6_Platform_SDK/output/mx6sl/lib/libboard_evk_rev_a.a(dcd.o)
                                0x158 (size before relaxing)
 .debug_str     0x00003c9e       0x4f /home/leon/git/swp-report/iMX6_Platform_SDK/output/mx6sl/lib/libboard_evk_rev_a.a(hardware_modules.o)
                                0x158 (size before relaxing)
 .debug_str     0x00003ced       0xaa /home/leon/git/swp-report/iMX6_Platform_SDK/output/mx6sl/lib/libboard_evk_rev_a.a(uart_iomux_config.o)
                                0x160 (size before relaxing)
 .debug_str     0x00003d97      0x233 /home/leon/git/swp-report/iMX6_Platform_SDK/output/mx6sl/lib/libboard_evk_rev_a.a(iomux_config.o)
                                0x24c (size before relaxing)
 .debug_str     0x00003fca      0xb2a /home/leon/git/swp-report/iMX6_Platform_SDK/output/mx6sl/lib/libboard_evk_rev_a.a(kpp_iomux_config.o)
                                0xba3 (size before relaxing)
 .debug_str     0x00004af4     0x2734 /home/leon/git/swp-report/iMX6_Platform_SDK/output/mx6sl/lib/libboard_evk_rev_a.a(lcd_iomux_config.o)
                               0x27c1 (size before relaxing)
 .debug_str     0x00007228     0x17df /home/leon/git/swp-report/iMX6_Platform_SDK/output/mx6sl/lib/libboard_evk_rev_a.a(mmdc_iomux_config.o)
                               0x1852 (size before relaxing)
 .debug_str     0x00008a07      0x138 /home/leon/git/swp-report/iMX6_Platform_SDK/output/mx6sl/lib/libboard_evk_rev_a.a(pwm1_iomux_config.o)
                                0x1bf (size before relaxing)
 .debug_str     0x00008b3f      0x324 /home/leon/git/swp-report/iMX6_Platform_SDK/output/mx6sl/lib/libboard_evk_rev_a.a(sjc_iomux_config.o)
                                0x39d (size before relaxing)
 .debug_str     0x00008e63      0xfba /home/leon/git/swp-report/iMX6_Platform_SDK/output/mx6sl/lib/libboard_evk_rev_a.a(spdc_iomux_config.o)
                               0x1041 (size before relaxing)
 .debug_str     0x00009e1d      0x2d2 /home/leon/git/swp-report/iMX6_Platform_SDK/output/mx6sl/lib/libboard_evk_rev_a.a(uart1_iomux_config.o)
                                0x35f (size before relaxing)
 .debug_str     0x0000a0ef      0x53f /home/leon/git/swp-report/iMX6_Platform_SDK/output/mx6sl/lib/libboard_evk_rev_a.a(usb_iomux_config.o)
                                0x5cc (size before relaxing)
 .debug_str     0x0000a62e      0xc6d /home/leon/git/swp-report/iMX6_Platform_SDK/output/mx6sl/lib/libboard_evk_rev_a.a(usdhc1_iomux_config.o)
                                0xcfa (size before relaxing)
 .debug_str     0x0000b29b      0x9af /home/leon/git/swp-report/iMX6_Platform_SDK/output/mx6sl/lib/libboard_evk_rev_a.a(usdhc2_iomux_config.o)
                                0xa3c (size before relaxing)
 .debug_str     0x0000bc4a      0x765 /home/leon/git/swp-report/iMX6_Platform_SDK/output/mx6sl/lib/libboard_evk_rev_a.a(usdhc3_iomux_config.o)
                                0x7f2 (size before relaxing)
 .debug_str     0x0000c3af      0x146 /home/leon/git/swp-report/iMX6_Platform_SDK/output/mx6sl/lib/libboard_evk_rev_a.a(wdog1_iomux_config.o)
                                0x1cd (size before relaxing)
 .debug_str     0x0000c4f5      0x6ac /home/leon/git/swp-report/iMX6_Platform_SDK/output/mx6sl/lib/libboard_evk_rev_a.a(audmux_iomux_config.o)
                                0x733 (size before relaxing)
 .debug_str     0x0000cba1      0x7d4 /home/leon/git/swp-report/iMX6_Platform_SDK/output/mx6sl/lib/libboard_evk_rev_a.a(csi_iomux_config.o)
                               0x16bf (size before relaxing)
 .debug_str     0x0000d375      0x63c /home/leon/git/swp-report/iMX6_Platform_SDK/output/mx6sl/lib/libboard_evk_rev_a.a(ecspi1_iomux_config.o)
                                0x6c9 (size before relaxing)
 .debug_str     0x0000d9b1      0x63c /home/leon/git/swp-report/iMX6_Platform_SDK/output/mx6sl/lib/libboard_evk_rev_a.a(ecspi2_iomux_config.o)
                                0x6c9 (size before relaxing)
 .debug_str     0x0000dfed     0x1729 /home/leon/git/swp-report/iMX6_Platform_SDK/output/mx6sl/lib/libboard_evk_rev_a.a(epdc_iomux_config.o)
                               0x28fc (size before relaxing)
 .debug_str     0x0000f716      0xcee /home/leon/git/swp-report/iMX6_Platform_SDK/output/mx6sl/lib/libboard_evk_rev_a.a(fec_iomux_config.o)
                                0xd7b (size before relaxing)
 .debug_str     0x00010404       0x6a /home/leon/git/swp-report/iMX6_Platform_SDK/output/mx6sl/lib/libboard_evk_rev_a.a(gpio1_iomux_config.o)
                                 0xad (size before relaxing)
 .debug_str     0x0001046e       0x6a /home/leon/git/swp-report/iMX6_Platform_SDK/output/mx6sl/lib/libboard_evk_rev_a.a(gpio4_iomux_config.o)
                                 0xad (size before relaxing)
 .debug_str     0x000104d8      0x326 /home/leon/git/swp-report/iMX6_Platform_SDK/output/mx6sl/lib/libboard_evk_rev_a.a(i2c1_iomux_config.o)
                                0x3b3 (size before relaxing)
 .debug_str     0x000107fe      0x326 /home/leon/git/swp-report/iMX6_Platform_SDK/output/mx6sl/lib/libboard_evk_rev_a.a(i2c2_iomux_config.o)
                                0x3b3 (size before relaxing)
 .debug_str     0x00010b24      0x156 /home/leon/git/swp-report/iMX6_Platform_SDK/output/mx6sl/lib/libboard_evk_rev_a.a(i2c3_iomux_config.o)
                                0x3cb (size before relaxing)
 .debug_str     0x00010c7a      0x16f /home/leon/git/swp-report/iMX6_Platform_SDK/output/mx6sl/sdk_unit_test/evk_rev_a/libsdk_unit_test.a(cpu_wp_test.o)
                                0x304 (size before relaxing)
 .debug_str     0x00010de9      0x20e /home/leon/git/swp-report/iMX6_Platform_SDK/output/mx6sl/sdk_unit_test/evk_rev_a/libsdk_unit_test.a(audio_test.o)
                                0x69a (size before relaxing)
 .debug_str     0x00010ff7      0x3de /home/leon/git/swp-report/iMX6_Platform_SDK/output/mx6sl/sdk_unit_test/evk_rev_a/libsdk_unit_test.a(ssi_playback.o)
                                0x9df (size before relaxing)
 .debug_str     0x000113d5      0x10b /home/leon/git/swp-report/iMX6_Platform_SDK/output/mx6sl/sdk_unit_test/evk_rev_a/libsdk_unit_test.a(gic_test.o)
                                0xd2d (size before relaxing)
 .debug_str     0x000114e0       0xa3 /home/leon/git/swp-report/iMX6_Platform_SDK/output/mx6sl/sdk_unit_test/evk_rev_a/libsdk_unit_test.a(ocotp_test.o)
                                0x521 (size before relaxing)
 .debug_str     0x00011583       0x96 /home/leon/git/swp-report/iMX6_Platform_SDK/output/mx6sl/sdk_unit_test/evk_rev_a/libsdk_unit_test.a(i2c_test.o)
                                0x505 (size before relaxing)
 .debug_str     0x00011619      0x161 /home/leon/git/swp-report/iMX6_Platform_SDK/output/mx6sl/sdk_unit_test/evk_rev_a/libsdk_unit_test.a(imx6_i2c_device.o)
                                0x702 (size before relaxing)
 .debug_str     0x0001177a       0xeb /home/leon/git/swp-report/iMX6_Platform_SDK/output/mx6sl/sdk_unit_test/evk_rev_a/libsdk_unit_test.a(snvs_rtc_test.o)
                                0x585 (size before relaxing)
 .debug_str     0x00011865       0x96 /home/leon/git/swp-report/iMX6_Platform_SDK/output/mx6sl/sdk_unit_test/evk_rev_a/libsdk_unit_test.a(snvs_srtc_test.o)
                                0x558 (size before relaxing)
 .debug_str     0x000118fb       0xe4 /home/leon/git/swp-report/iMX6_Platform_SDK/output/mx6sl/sdk_unit_test/evk_rev_a/libsdk_unit_test.a(tempmon_test.o)
                                0x556 (size before relaxing)
 .debug_str     0x000119df       0xb1 /home/leon/git/swp-report/iMX6_Platform_SDK/output/mx6sl/sdk_unit_test/evk_rev_a/libsdk_unit_test.a(sdma_test.o)
                                0x527 (size before relaxing)
 .debug_str     0x00011a90      0x3b2 /home/leon/git/swp-report/iMX6_Platform_SDK/output/mx6sl/sdk_unit_test/evk_rev_a/libsdk_unit_test.a(spi_lpb.o)
                                0x4ee (size before relaxing)
 .debug_str     0x00011e42      0x11c /home/leon/git/swp-report/iMX6_Platform_SDK/output/mx6sl/sdk_unit_test/evk_rev_a/libsdk_unit_test.a(uart_loopback.o)
                                0x5de (size before relaxing)
 .debug_str     0x00011f5e       0xf4 /home/leon/git/swp-report/iMX6_Platform_SDK/output/mx6sl/sdk_unit_test/evk_rev_a/libsdk_unit_test.a(epit_test.o)
                                0x66a (size before relaxing)
 .debug_str     0x00012052      0x272 /home/leon/git/swp-report/iMX6_Platform_SDK/output/mx6sl/sdk_unit_test/evk_rev_a/libsdk_unit_test.a(gpt_test.o)
                                0x95e (size before relaxing)
 .debug_str     0x000122c4       0x74 /home/leon/git/swp-report/iMX6_Platform_SDK/output/mx6sl/sdk_unit_test/evk_rev_a/libsdk_unit_test.a(timer_test.o)
                                0x16d (size before relaxing)
 .debug_str     0x00012338       0xf1 /home/leon/git/swp-report/iMX6_Platform_SDK/output/mx6sl/sdk_unit_test/evk_rev_a/libsdk_unit_test.a(uart_test.o)
                                0x6aa (size before relaxing)
 .debug_str     0x00012429      0x1aa /home/leon/git/swp-report/iMX6_Platform_SDK/output/mx6sl/sdk_unit_test/evk_rev_a/libsdk_unit_test.a(usdhc_test.o)
                                0x6cf (size before relaxing)
 .debug_str     0x000125d3       0xbc /home/leon/git/swp-report/iMX6_Platform_SDK/output/mx6sl/sdk_unit_test/evk_rev_a/libsdk_unit_test.a(pwm_test.o)
                                0x5b2 (size before relaxing)
 .debug_str     0x0001268f       0xd3 /home/leon/git/swp-report/iMX6_Platform_SDK/output/mx6sl/sdk_unit_test/evk_rev_a/libsdk_unit_test.a(watchdog_test.o)
                                0x552 (size before relaxing)
 .debug_str     0x00012762      0x165 /home/leon/git/swp-report/iMX6_Platform_SDK/output/mx6sl/sdk_unit_test/evk_rev_a/libsdk_unit_test.a(spi_test.o)
                                0x613 (size before relaxing)
 .debug_str     0x000128c7      0x15b /home/leon/git/swp-report/iMX6_Platform_SDK/output/mx6sl/sdk_unit_test/evk_rev_a/libsdk_unit_test.a(usb_test.o)
                                0x20e (size before relaxing)
 .debug_str     0x00012a22      0x172 /home/leon/git/swp-report/iMX6_Platform_SDK/output/mx6sl/sdk_unit_test/evk_rev_a/libsdk_unit_test.a(epdc_test.o)
                                0x675 (size before relaxing)
 .debug_str     0x00012b94       0xb7 /home/leon/git/swp-report/iMX6_Platform_SDK/output/mx6sl/sdk_unit_test/evk_rev_a/libsdk_unit_test.a(lcdif_test.o)
                                0x5be (size before relaxing)
 .debug_str     0x00012c4b       0xd0 /home/leon/git/swp-report/iMX6_Platform_SDK/output/mx6sl/sdk_unit_test/evk_rev_a/libsdk_unit_test.a(camera_test.o)
                                0x5e5 (size before relaxing)
 .debug_str     0x00012d1b      0x149 /home/leon/git/swp-report/iMX6_Platform_SDK/output/mx6sl/sdk_unit_test/evk_rev_a/libsdk_unit_test.a(csi_sensor_capture.o)
                                0x6e4 (size before relaxing)
 .debug_str     0x00012e64      0xa74 /home/leon/git/swp-report/iMX6_Platform_SDK/output/mx6sl/sdk_unit_test/evk_rev_a/libsdk_unit_test.a(fec_test.o)
                                0xc62 (size before relaxing)
 .debug_str     0x000138d8       0xf4 /home/leon/git/swp-report/iMX6_Platform_SDK/output/mx6sl/sdk_unit_test/evk_rev_a/libsdk_unit_test.a(spdc_test.o)
                                0x55a (size before relaxing)
 .debug_str     0x000139cc       0xac /home/leon/git/swp-report/iMX6_Platform_SDK/output/mx6sl/sdk_unit_test/evk_rev_a/libsdk_unit_test.a(at24cxx.o)
                                0x2df (size before relaxing)
 .debug_str     0x00013a78       0x83 /home/leon/git/swp-report/iMX6_Platform_SDK/output/mx6sl/sdk_unit_test/evk_rev_a/libsdk_unit_test.a(mem_2_mem.o)
                                0x4f5 (size before relaxing)
 .debug_str     0x00013afb      0x15d /home/leon/git/swp-report/iMX6_Platform_SDK/output/mx6sl/sdk_unit_test/evk_rev_a/libsdk_unit_test.a(pwm_output.o)
                                0x289 (size before relaxing)
 .debug_str     0x00013c58      0x133 /home/leon/git/swp-report/iMX6_Platform_SDK/output/mx6sl/sdk_unit_test/evk_rev_a/libsdk_unit_test.a(spi_nor_numonyx.o)
                                0x2af (size before relaxing)
 .debug_str     0x00013d8b      0xce4 /home/leon/git/swp-report/iMX6_Platform_SDK/output/mx6sl/sdk_unit_test/evk_rev_a/libsdk_unit_test.a(usb0_device_mouse_test.o)
                               0x12bd (size before relaxing)
 .debug_str     0x00014a6f      0x410 /home/leon/git/swp-report/iMX6_Platform_SDK/output/mx6sl/sdk_unit_test/evk_rev_a/libsdk_unit_test.a(usb0_host_test.o)
                                0x930 (size before relaxing)
 .debug_str     0x00014e7f       0x84 /home/leon/git/swp-report/iMX6_Platform_SDK/output/mx6sl/sdk_unit_test/evk_rev_a/libsdk_unit_test.a(usb0_host_testmodes_test.o)
                                0x32c (size before relaxing)
 .debug_str     0x00014f03       0x7e /home/leon/git/swp-report/iMX6_Platform_SDK/output/mx6sl/sdk_unit_test/evk_rev_a/libsdk_unit_test.a(lcdif_display.o)
                                0x5bd (size before relaxing)
 .debug_str     0x00014f81       0x59 /home/leon/git/swp-report/iMX6_Platform_SDK/output/mx6sl/sdk_unit_test/evk_rev_a/libsdk_unit_test.a(auo_lut.o)
                                 0x83 (size before relaxing)
 .debug_str     0x00014fda       0x6a /home/leon/git/swp-report/iMX6_Platform_SDK/output/mx6sl/lib/libsdk.a(profile.o)
                                 0x8b (size before relaxing)
 .debug_str     0x00015044      0x1ea /home/leon/git/swp-report/iMX6_Platform_SDK/output/mx6sl/lib/libsdk.a(armv7_cache.o)
                                0x2aa (size before relaxing)
 .debug_str     0x0001522e      0x210 /home/leon/git/swp-report/iMX6_Platform_SDK/output/mx6sl/lib/libsdk.a(runtime_support.o)
                                0x3ac (size before relaxing)
 .debug_str     0x0001543e      0x490 /home/leon/git/swp-report/iMX6_Platform_SDK/output/mx6sl/lib/libsdk.a(imx_audmux.o)
                                0x5e8 (size before relaxing)
 .debug_str     0x000158ce      0x129 /home/leon/git/swp-report/iMX6_Platform_SDK/output/mx6sl/lib/libsdk.a(snd_card.o)
                                0x5a0 (size before relaxing)
 .debug_str     0x000159f7      0x12d /home/leon/git/swp-report/iMX6_Platform_SDK/output/mx6sl/lib/libsdk.a(wm8962.o)
                                0x5d6 (size before relaxing)
 .debug_str     0x00015b24      0x57f /home/leon/git/swp-report/iMX6_Platform_SDK/output/mx6sl/lib/libsdk.a(csi_drv.o)
                                0x664 (size before relaxing)
 .debug_str     0x000160a3      0x243 /home/leon/git/swp-report/iMX6_Platform_SDK/output/mx6sl/lib/libsdk.a(smd_sensor.o)
                                0x524 (size before relaxing)
 .debug_str     0x000162e6      0x4cd /home/leon/git/swp-report/iMX6_Platform_SDK/output/mx6sl/lib/libsdk.a(cpu_workpoint.o)
                                0x641 (size before relaxing)
 .debug_str     0x000167b3     0x1071 /home/leon/git/swp-report/iMX6_Platform_SDK/output/mx6sl/lib/libsdk.a(mxc_epdc.o)
                               0x1194 (size before relaxing)
 .debug_str     0x00017824      0x245 /home/leon/git/swp-report/iMX6_Platform_SDK/output/mx6sl/lib/libsdk.a(fec_drv.o)
                                0xc2b (size before relaxing)
 .debug_str     0x00017a69      0x37a /home/leon/git/swp-report/iMX6_Platform_SDK/output/mx6sl/lib/libsdk.a(gpio.o)
                                0x48b (size before relaxing)
 .debug_str     0x00017de3       0x53 /home/leon/git/swp-report/iMX6_Platform_SDK/output/mx6sl/lib/libsdk.a(imx6sl_gpio_map.o)
                                0x10a (size before relaxing)
 .debug_str     0x00017e36      0x2d0 /home/leon/git/swp-report/iMX6_Platform_SDK/output/mx6sl/lib/libsdk.a(imx_i2c.o)
                               0x1149 (size before relaxing)
 .debug_str     0x00018106      0x10b /home/leon/git/swp-report/iMX6_Platform_SDK/output/mx6sl/lib/libsdk.a(imx_i2c_slave.o)
                                0x3e9 (size before relaxing)
 .debug_str     0x00018211      0x92b /home/leon/git/swp-report/iMX6_Platform_SDK/output/mx6sl/lib/libsdk.a(lcdif_drv.o)
                                0xe12 (size before relaxing)
 .debug_str     0x00018b3c      0x5a7 /home/leon/git/swp-report/iMX6_Platform_SDK/output/mx6sl/lib/libsdk.a(pxp_drv.o)
                                0x752 (size before relaxing)
 .debug_str     0x000190e3      0x2f1 /home/leon/git/swp-report/iMX6_Platform_SDK/output/mx6sl/lib/libsdk.a(ocotp.o)
                                0x3e8 (size before relaxing)
 .debug_str     0x000193d4     0x1c63 /home/leon/git/swp-report/iMX6_Platform_SDK/output/mx6sl/lib/libsdk.a(pmu_driver.o)
                               0x2c13 (size before relaxing)
 .debug_str     0x0001b037      0x26a /home/leon/git/swp-report/iMX6_Platform_SDK/output/mx6sl/lib/libsdk.a(pwm.o)
                               0x1064 (size before relaxing)
 .debug_str     0x0001b2a1      0x211 /home/leon/git/swp-report/iMX6_Platform_SDK/output/mx6sl/lib/libsdk.a(rtc.o)
                                0xee5 (size before relaxing)
 .debug_str     0x0001b4b2      0x14f /home/leon/git/swp-report/iMX6_Platform_SDK/output/mx6sl/lib/libsdk.a(srtc.o)
                                0xe36 (size before relaxing)
 .debug_str     0x0001b601      0x70c /home/leon/git/swp-report/iMX6_Platform_SDK/output/mx6sl/lib/libsdk.a(sdma.o)
                               0x1696 (size before relaxing)
 .debug_str     0x0001bd0d       0x5e /home/leon/git/swp-report/iMX6_Platform_SDK/output/mx6sl/lib/libsdk.a(sdma_script_info.o)
                                0x2dc (size before relaxing)
 .debug_str     0x0001bd6b      0x3fa /home/leon/git/swp-report/iMX6_Platform_SDK/output/mx6sl/lib/libsdk.a(snvs.o)
                                0x50b (size before relaxing)
 .debug_str     0x0001c165      0x7cc /home/leon/git/swp-report/iMX6_Platform_SDK/output/mx6sl/lib/libsdk.a(mxc_spdc.o)
                                0x93d (size before relaxing)
 .debug_str     0x0001c931      0x2e1 /home/leon/git/swp-report/iMX6_Platform_SDK/output/mx6sl/lib/libsdk.a(ecspi.o)
                                0x4a7 (size before relaxing)
 .debug_str     0x0001cc12      0x2e3 /home/leon/git/swp-report/iMX6_Platform_SDK/output/mx6sl/lib/libsdk.a(tempmon.o)
                                0xf3c (size before relaxing)
 .debug_str     0x0001cef5      0x34d /home/leon/git/swp-report/iMX6_Platform_SDK/output/mx6sl/lib/libsdk.a(gpt.o)
                               0x11cf (size before relaxing)
 .debug_str     0x0001d242       0xca /home/leon/git/swp-report/iMX6_Platform_SDK/output/mx6sl/lib/libsdk.a(usb_common.o)
                                0x759 (size before relaxing)
 .debug_str     0x0001d30c      0x5e5 /home/leon/git/swp-report/iMX6_Platform_SDK/output/mx6sl/lib/libsdk.a(usbd_drv.o)
                                0xfba (size before relaxing)
 .debug_str     0x0001d8f1      0x290 /home/leon/git/swp-report/iMX6_Platform_SDK/output/mx6sl/lib/libsdk.a(usbh_drv.o)
                                0x942 (size before relaxing)
 .debug_str     0x0001db81      0x584 /home/leon/git/swp-report/iMX6_Platform_SDK/output/mx6sl/lib/libsdk.a(usdhc.o)
                               0x12b1 (size before relaxing)
 .debug_str     0x0001e105      0xb34 /home/leon/git/swp-report/iMX6_Platform_SDK/output/mx6sl/lib/libsdk.a(usdhc_host.o)
                                0xfb7 (size before relaxing)
 .debug_str     0x0001ec39      0x224 /home/leon/git/swp-report/iMX6_Platform_SDK/output/mx6sl/lib/libsdk.a(usdhc_mmc.o)
                                0x72e (size before relaxing)
 .debug_str     0x0001ee5d       0xae /home/leon/git/swp-report/iMX6_Platform_SDK/output/mx6sl/lib/libsdk.a(usdhc_sd.o)
                                0x58d (size before relaxing)
 .debug_str     0x0001ef0b      0x9b7 /home/leon/git/swp-report/iMX6_Platform_SDK/output/mx6sl/lib/libsdk.a(imx-ssi.o)
                                0xe07 (size before relaxing)
 .debug_str     0x0001f8c2      0x81f /home/leon/git/swp-report/iMX6_Platform_SDK/output/mx6sl/lib/libsdk.a(imx_spdif.o)
                                0xcb0 (size before relaxing)
 .debug_str     0x000200e1      0x1c6 /home/leon/git/swp-report/iMX6_Platform_SDK/output/mx6sl/lib/libsdk.a(camera_profile.o)
                                0x4be (size before relaxing)
 .debug_str     0x000202a7      0x1b0 /home/leon/git/swp-report/iMX6_Platform_SDK/output/mx6sl/lib/libsdk.a(mx6x_usb.o)
                                0x3df (size before relaxing)
 .debug_str     0x00020457       0x96 /home/leon/git/swp-report/iMX6_Platform_SDK/output/mx6sl/lib/libboard_evk_rev_a.a(board_audio.o)
                                0x176 (size before relaxing)
 .debug_str     0x000204ed      0x129 /home/leon/git/swp-report/iMX6_Platform_SDK/output/mx6sl/lib/libboard_evk_rev_a.a(board_camera.o)
                                0x3db (size before relaxing)
 .debug_str     0x00020616      0x1fe /home/leon/git/swp-report/iMX6_Platform_SDK/output/mx6sl/lib/libboard_evk_rev_a.a(board_display.o)
                                0x62e (size before relaxing)
 .debug_str     0x00020814       0xaf /home/leon/git/swp-report/iMX6_Platform_SDK/output/mx6sl/lib/libboard_evk_rev_a.a(board_i2c.o)
                                0x1fc (size before relaxing)
 .debug_str     0x000208c3      0x166 /home/leon/git/swp-report/iMX6_Platform_SDK/output/mx6sl/lib/libboard_evk_rev_a.a(board_usb.o)
                                0x3ef (size before relaxing)
 .debug_str     0x00020a29       0x86 /home/leon/git/swp-report/iMX6_Platform_SDK/output/mx6sl/lib/libboard_evk_rev_a.a(board_usdhc.o)
                                0x246 (size before relaxing)
 .debug_str     0x00020aaf       0x6a /home/leon/git/swp-report/iMX6_Platform_SDK/output/mx6sl/lib/libboard_evk_rev_a.a(ecspi_iomux_config.o)
                                0x162 (size before relaxing)
 .debug_str     0x00020b19       0x66 /home/leon/git/swp-report/iMX6_Platform_SDK/output/mx6sl/lib/libboard_evk_rev_a.a(i2c_iomux_config.o)
                                0x15e (size before relaxing)
 .debug_str     0x00020b7f       0x66 /home/leon/git/swp-report/iMX6_Platform_SDK/output/mx6sl/lib/libboard_evk_rev_a.a(pwm_iomux_config.o)
                                0x15e (size before relaxing)
 .debug_str     0x00020be5       0x6a /home/leon/git/swp-report/iMX6_Platform_SDK/output/mx6sl/lib/libboard_evk_rev_a.a(usdhc_iomux_config.o)
                                0x162 (size before relaxing)
 .debug_str     0x00020c4f      0x17f /home/leon/git/swp-report/iMX6_Platform_SDK/output/mx6sl/lib/libsdk.a(pf0100.o)
                                0x3ab (size before relaxing)

.debug_loc      0x00000000     0x7a8c
 .debug_loc     0x00000000       0x2c /home/leon/git/swp-report/iMX6_Platform_SDK/output/mx6sl/sdk_unit_test/evk_rev_a/obj/apps/common/platform_init.o
 .debug_loc     0x0000002c       0x58 /home/leon/git/swp-report/iMX6_Platform_SDK/output/mx6sl/sdk_unit_test/evk_rev_a/obj/apps/common/print_clock_info.o
 .debug_loc     0x00000084       0x2c /home/leon/git/swp-report/iMX6_Platform_SDK/output/mx6sl/sdk_unit_test/evk_rev_a/obj/apps/common/print_version.o
 .debug_loc     0x000000b0       0x58 /home/leon/git/swp-report/iMX6_Platform_SDK/output/mx6sl/sdk_unit_test/evk_rev_a/obj/apps/sdk_unit_test/src/all_test.o
 .debug_loc     0x00000108       0x2c /home/leon/git/swp-report/iMX6_Platform_SDK/output/mx6sl/sdk_unit_test/evk_rev_a/obj/apps/sdk_unit_test/src/unit_test_main.o
 .debug_loc     0x00000134      0x134 /home/leon/git/swp-report/iMX6_Platform_SDK/output/mx6sl/lib/libsdk.a(ccm_pll.o)
 .debug_loc     0x00000268      0x2ec /home/leon/git/swp-report/iMX6_Platform_SDK/output/mx6sl/lib/libsdk.a(gic.o)
 .debug_loc     0x00000554       0xdc /home/leon/git/swp-report/iMX6_Platform_SDK/output/mx6sl/lib/libsdk.a(mmu.o)
 .debug_loc     0x00000630      0x1e4 /home/leon/git/swp-report/iMX6_Platform_SDK/output/mx6sl/lib/libsdk.a(menu.o)
 .debug_loc     0x00000814      0x108 /home/leon/git/swp-report/iMX6_Platform_SDK/output/mx6sl/lib/libsdk.a(system_util.o)
 .debug_loc     0x0000091c       0x58 /home/leon/git/swp-report/iMX6_Platform_SDK/output/mx6sl/lib/libsdk.a(text_color.o)
 .debug_loc     0x00000974      0x134 /home/leon/git/swp-report/iMX6_Platform_SDK/output/mx6sl/lib/libsdk.a(board_id.o)
 .debug_loc     0x00000aa8       0xb0 /home/leon/git/swp-report/iMX6_Platform_SDK/output/mx6sl/lib/libsdk.a(timer.o)
 .debug_loc     0x00000b58      0x134 /home/leon/git/swp-report/iMX6_Platform_SDK/output/mx6sl/lib/libsdk.a(imx_uart.o)
 .debug_loc     0x00000c8c       0xdc /home/leon/git/swp-report/iMX6_Platform_SDK/output/mx6sl/lib/libsdk.a(interrupt.o)
 .debug_loc     0x00000d68      0x160 /home/leon/git/swp-report/iMX6_Platform_SDK/output/mx6sl/lib/libsdk.a(epit.o)
 .debug_loc     0x00000ec8       0x2c /home/leon/git/swp-report/iMX6_Platform_SDK/output/mx6sl/lib/libsdk.a(abort_handler.o)
 .debug_loc     0x00000ef4       0x2c /home/leon/git/swp-report/iMX6_Platform_SDK/output/mx6sl/lib/libboard_evk_rev_a.a(board_io_expanders.o)
 .debug_loc     0x00000f20       0x2c /home/leon/git/swp-report/iMX6_Platform_SDK/output/mx6sl/lib/libboard_evk_rev_a.a(uart_iomux_config.o)
 .debug_loc     0x00000f4c      0x4a4 /home/leon/git/swp-report/iMX6_Platform_SDK/output/mx6sl/lib/libboard_evk_rev_a.a(iomux_config.o)
 .debug_loc     0x000013f0       0x2c /home/leon/git/swp-report/iMX6_Platform_SDK/output/mx6sl/lib/libboard_evk_rev_a.a(kpp_iomux_config.o)
 .debug_loc     0x0000141c       0x2c /home/leon/git/swp-report/iMX6_Platform_SDK/output/mx6sl/lib/libboard_evk_rev_a.a(lcd_iomux_config.o)
 .debug_loc     0x00001448       0x2c /home/leon/git/swp-report/iMX6_Platform_SDK/output/mx6sl/lib/libboard_evk_rev_a.a(mmdc_iomux_config.o)
 .debug_loc     0x00001474       0x2c /home/leon/git/swp-report/iMX6_Platform_SDK/output/mx6sl/lib/libboard_evk_rev_a.a(pwm1_iomux_config.o)
 .debug_loc     0x000014a0       0x2c /home/leon/git/swp-report/iMX6_Platform_SDK/output/mx6sl/lib/libboard_evk_rev_a.a(sjc_iomux_config.o)
 .debug_loc     0x000014cc       0x2c /home/leon/git/swp-report/iMX6_Platform_SDK/output/mx6sl/lib/libboard_evk_rev_a.a(spdc_iomux_config.o)
 .debug_loc     0x000014f8       0x2c /home/leon/git/swp-report/iMX6_Platform_SDK/output/mx6sl/lib/libboard_evk_rev_a.a(uart1_iomux_config.o)
 .debug_loc     0x00001524       0x2c /home/leon/git/swp-report/iMX6_Platform_SDK/output/mx6sl/lib/libboard_evk_rev_a.a(usb_iomux_config.o)
 .debug_loc     0x00001550       0x2c /home/leon/git/swp-report/iMX6_Platform_SDK/output/mx6sl/lib/libboard_evk_rev_a.a(usdhc1_iomux_config.o)
 .debug_loc     0x0000157c       0x2c /home/leon/git/swp-report/iMX6_Platform_SDK/output/mx6sl/lib/libboard_evk_rev_a.a(usdhc2_iomux_config.o)
 .debug_loc     0x000015a8       0x2c /home/leon/git/swp-report/iMX6_Platform_SDK/output/mx6sl/lib/libboard_evk_rev_a.a(usdhc3_iomux_config.o)
 .debug_loc     0x000015d4       0x2c /home/leon/git/swp-report/iMX6_Platform_SDK/output/mx6sl/lib/libboard_evk_rev_a.a(wdog1_iomux_config.o)
 .debug_loc     0x00001600       0x2c /home/leon/git/swp-report/iMX6_Platform_SDK/output/mx6sl/lib/libboard_evk_rev_a.a(audmux_iomux_config.o)
 .debug_loc     0x0000162c       0x2c /home/leon/git/swp-report/iMX6_Platform_SDK/output/mx6sl/lib/libboard_evk_rev_a.a(csi_iomux_config.o)
 .debug_loc     0x00001658       0x2c /home/leon/git/swp-report/iMX6_Platform_SDK/output/mx6sl/lib/libboard_evk_rev_a.a(ecspi1_iomux_config.o)
 .debug_loc     0x00001684       0x2c /home/leon/git/swp-report/iMX6_Platform_SDK/output/mx6sl/lib/libboard_evk_rev_a.a(ecspi2_iomux_config.o)
 .debug_loc     0x000016b0       0x2c /home/leon/git/swp-report/iMX6_Platform_SDK/output/mx6sl/lib/libboard_evk_rev_a.a(epdc_iomux_config.o)
 .debug_loc     0x000016dc       0x2c /home/leon/git/swp-report/iMX6_Platform_SDK/output/mx6sl/lib/libboard_evk_rev_a.a(fec_iomux_config.o)
 .debug_loc     0x00001708       0x2c /home/leon/git/swp-report/iMX6_Platform_SDK/output/mx6sl/lib/libboard_evk_rev_a.a(gpio1_iomux_config.o)
 .debug_loc     0x00001734       0x2c /home/leon/git/swp-report/iMX6_Platform_SDK/output/mx6sl/lib/libboard_evk_rev_a.a(gpio4_iomux_config.o)
 .debug_loc     0x00001760       0x2c /home/leon/git/swp-report/iMX6_Platform_SDK/output/mx6sl/lib/libboard_evk_rev_a.a(i2c1_iomux_config.o)
 .debug_loc     0x0000178c       0x2c /home/leon/git/swp-report/iMX6_Platform_SDK/output/mx6sl/lib/libboard_evk_rev_a.a(i2c2_iomux_config.o)
 .debug_loc     0x000017b8       0x2c /home/leon/git/swp-report/iMX6_Platform_SDK/output/mx6sl/lib/libboard_evk_rev_a.a(i2c3_iomux_config.o)
 .debug_loc     0x000017e4       0x84 /home/leon/git/swp-report/iMX6_Platform_SDK/output/mx6sl/sdk_unit_test/evk_rev_a/libsdk_unit_test.a(cpu_wp_test.o)
 .debug_loc     0x00001868       0x2c /home/leon/git/swp-report/iMX6_Platform_SDK/output/mx6sl/sdk_unit_test/evk_rev_a/libsdk_unit_test.a(audio_test.o)
 .debug_loc     0x00001894       0x2c /home/leon/git/swp-report/iMX6_Platform_SDK/output/mx6sl/sdk_unit_test/evk_rev_a/libsdk_unit_test.a(ssi_playback.o)
 .debug_loc     0x000018c0       0x58 /home/leon/git/swp-report/iMX6_Platform_SDK/output/mx6sl/sdk_unit_test/evk_rev_a/libsdk_unit_test.a(gic_test.o)
 .debug_loc     0x00001918       0x2c /home/leon/git/swp-report/iMX6_Platform_SDK/output/mx6sl/sdk_unit_test/evk_rev_a/libsdk_unit_test.a(ocotp_test.o)
 .debug_loc     0x00001944       0x2c /home/leon/git/swp-report/iMX6_Platform_SDK/output/mx6sl/sdk_unit_test/evk_rev_a/libsdk_unit_test.a(i2c_test.o)
 .debug_loc     0x00001970       0x84 /home/leon/git/swp-report/iMX6_Platform_SDK/output/mx6sl/sdk_unit_test/evk_rev_a/libsdk_unit_test.a(imx6_i2c_device.o)
 .debug_loc     0x000019f4       0xdc /home/leon/git/swp-report/iMX6_Platform_SDK/output/mx6sl/sdk_unit_test/evk_rev_a/libsdk_unit_test.a(snvs_rtc_test.o)
 .debug_loc     0x00001ad0       0x84 /home/leon/git/swp-report/iMX6_Platform_SDK/output/mx6sl/sdk_unit_test/evk_rev_a/libsdk_unit_test.a(snvs_srtc_test.o)
 .debug_loc     0x00001b54       0x84 /home/leon/git/swp-report/iMX6_Platform_SDK/output/mx6sl/sdk_unit_test/evk_rev_a/libsdk_unit_test.a(tempmon_test.o)
 .debug_loc     0x00001bd8       0x2c /home/leon/git/swp-report/iMX6_Platform_SDK/output/mx6sl/sdk_unit_test/evk_rev_a/libsdk_unit_test.a(sdma_test.o)
 .debug_loc     0x00001c04       0x84 /home/leon/git/swp-report/iMX6_Platform_SDK/output/mx6sl/sdk_unit_test/evk_rev_a/libsdk_unit_test.a(spi_lpb.o)
 .debug_loc     0x00001c88      0x134 /home/leon/git/swp-report/iMX6_Platform_SDK/output/mx6sl/sdk_unit_test/evk_rev_a/libsdk_unit_test.a(uart_loopback.o)
 .debug_loc     0x00001dbc       0xb0 /home/leon/git/swp-report/iMX6_Platform_SDK/output/mx6sl/sdk_unit_test/evk_rev_a/libsdk_unit_test.a(epit_test.o)
 .debug_loc     0x00001e6c       0xb0 /home/leon/git/swp-report/iMX6_Platform_SDK/output/mx6sl/sdk_unit_test/evk_rev_a/libsdk_unit_test.a(gpt_test.o)
 .debug_loc     0x00001f1c       0x2c /home/leon/git/swp-report/iMX6_Platform_SDK/output/mx6sl/sdk_unit_test/evk_rev_a/libsdk_unit_test.a(timer_test.o)
 .debug_loc     0x00001f48       0x58 /home/leon/git/swp-report/iMX6_Platform_SDK/output/mx6sl/sdk_unit_test/evk_rev_a/libsdk_unit_test.a(uart_test.o)
 .debug_loc     0x00001fa0      0x1e4 /home/leon/git/swp-report/iMX6_Platform_SDK/output/mx6sl/sdk_unit_test/evk_rev_a/libsdk_unit_test.a(usdhc_test.o)
 .debug_loc     0x00002184       0x2c /home/leon/git/swp-report/iMX6_Platform_SDK/output/mx6sl/sdk_unit_test/evk_rev_a/libsdk_unit_test.a(pwm_test.o)
 .debug_loc     0x000021b0       0x58 /home/leon/git/swp-report/iMX6_Platform_SDK/output/mx6sl/sdk_unit_test/evk_rev_a/libsdk_unit_test.a(watchdog_test.o)
 .debug_loc     0x00002208       0x58 /home/leon/git/swp-report/iMX6_Platform_SDK/output/mx6sl/sdk_unit_test/evk_rev_a/libsdk_unit_test.a(spi_test.o)
 .debug_loc     0x00002260       0x2c /home/leon/git/swp-report/iMX6_Platform_SDK/output/mx6sl/sdk_unit_test/evk_rev_a/libsdk_unit_test.a(usb_test.o)
 .debug_loc     0x0000228c      0x108 /home/leon/git/swp-report/iMX6_Platform_SDK/output/mx6sl/sdk_unit_test/evk_rev_a/libsdk_unit_test.a(epdc_test.o)
 .debug_loc     0x00002394       0x2c /home/leon/git/swp-report/iMX6_Platform_SDK/output/mx6sl/sdk_unit_test/evk_rev_a/libsdk_unit_test.a(lcdif_test.o)
 .debug_loc     0x000023c0       0x2c /home/leon/git/swp-report/iMX6_Platform_SDK/output/mx6sl/sdk_unit_test/evk_rev_a/libsdk_unit_test.a(camera_test.o)
 .debug_loc     0x000023ec       0x2c /home/leon/git/swp-report/iMX6_Platform_SDK/output/mx6sl/sdk_unit_test/evk_rev_a/libsdk_unit_test.a(csi_sensor_capture.o)
 .debug_loc     0x00002418       0xb0 /home/leon/git/swp-report/iMX6_Platform_SDK/output/mx6sl/sdk_unit_test/evk_rev_a/libsdk_unit_test.a(fec_test.o)
 .debug_loc     0x000024c8       0x2c /home/leon/git/swp-report/iMX6_Platform_SDK/output/mx6sl/sdk_unit_test/evk_rev_a/libsdk_unit_test.a(spdc_test.o)
 .debug_loc     0x000024f4       0x84 /home/leon/git/swp-report/iMX6_Platform_SDK/output/mx6sl/sdk_unit_test/evk_rev_a/libsdk_unit_test.a(at24cxx.o)
 .debug_loc     0x00002578       0x2c /home/leon/git/swp-report/iMX6_Platform_SDK/output/mx6sl/sdk_unit_test/evk_rev_a/libsdk_unit_test.a(mem_2_mem.o)
 .debug_loc     0x000025a4       0x58 /home/leon/git/swp-report/iMX6_Platform_SDK/output/mx6sl/sdk_unit_test/evk_rev_a/libsdk_unit_test.a(pwm_output.o)
 .debug_loc     0x000025fc      0x160 /home/leon/git/swp-report/iMX6_Platform_SDK/output/mx6sl/sdk_unit_test/evk_rev_a/libsdk_unit_test.a(spi_nor_numonyx.o)
 .debug_loc     0x0000275c       0x84 /home/leon/git/swp-report/iMX6_Platform_SDK/output/mx6sl/sdk_unit_test/evk_rev_a/libsdk_unit_test.a(usb0_device_mouse_test.o)
 .debug_loc     0x000027e0      0x160 /home/leon/git/swp-report/iMX6_Platform_SDK/output/mx6sl/sdk_unit_test/evk_rev_a/libsdk_unit_test.a(usb0_host_test.o)
 .debug_loc     0x00002940       0x2c /home/leon/git/swp-report/iMX6_Platform_SDK/output/mx6sl/sdk_unit_test/evk_rev_a/libsdk_unit_test.a(usb0_host_testmodes_test.o)
 .debug_loc     0x0000296c       0x2c /home/leon/git/swp-report/iMX6_Platform_SDK/output/mx6sl/sdk_unit_test/evk_rev_a/libsdk_unit_test.a(lcdif_display.o)
 .debug_loc     0x00002998       0x58 /home/leon/git/swp-report/iMX6_Platform_SDK/output/mx6sl/lib/libsdk.a(profile.o)
 .debug_loc     0x000029f0      0x2c0 /home/leon/git/swp-report/iMX6_Platform_SDK/output/mx6sl/lib/libsdk.a(armv7_cache.o)
 .debug_loc     0x00002cb0      0x370 /home/leon/git/swp-report/iMX6_Platform_SDK/output/mx6sl/lib/libsdk.a(runtime_support.o)
 .debug_loc     0x00003020       0x84 /home/leon/git/swp-report/iMX6_Platform_SDK/output/mx6sl/lib/libsdk.a(imx_audmux.o)
 .debug_loc     0x000030a4      0x108 /home/leon/git/swp-report/iMX6_Platform_SDK/output/mx6sl/lib/libsdk.a(snd_card.o)
 .debug_loc     0x000031ac      0x1b8 /home/leon/git/swp-report/iMX6_Platform_SDK/output/mx6sl/lib/libsdk.a(wm8962.o)
 .debug_loc     0x00003364       0xb0 /home/leon/git/swp-report/iMX6_Platform_SDK/output/mx6sl/lib/libsdk.a(csi_drv.o)
 .debug_loc     0x00003414      0x1b8 /home/leon/git/swp-report/iMX6_Platform_SDK/output/mx6sl/lib/libsdk.a(smd_sensor.o)
 .debug_loc     0x000035cc       0x2c /home/leon/git/swp-report/iMX6_Platform_SDK/output/mx6sl/lib/libsdk.a(cpu_workpoint.o)
 .debug_loc     0x000035f8      0x4d0 /home/leon/git/swp-report/iMX6_Platform_SDK/output/mx6sl/lib/libsdk.a(mxc_epdc.o)
 .debug_loc     0x00003ac8      0x2c0 /home/leon/git/swp-report/iMX6_Platform_SDK/output/mx6sl/lib/libsdk.a(fec_drv.o)
 .debug_loc     0x00003d88      0x1e4 /home/leon/git/swp-report/iMX6_Platform_SDK/output/mx6sl/lib/libsdk.a(gpio.o)
 .debug_loc     0x00003f6c      0x268 /home/leon/git/swp-report/iMX6_Platform_SDK/output/mx6sl/lib/libsdk.a(imx_i2c.o)
 .debug_loc     0x000041d4       0x84 /home/leon/git/swp-report/iMX6_Platform_SDK/output/mx6sl/lib/libsdk.a(imx_i2c_slave.o)
 .debug_loc     0x00004258      0x160 /home/leon/git/swp-report/iMX6_Platform_SDK/output/mx6sl/lib/libsdk.a(lcdif_drv.o)
 .debug_loc     0x000043b8       0xdc /home/leon/git/swp-report/iMX6_Platform_SDK/output/mx6sl/lib/libsdk.a(pxp_drv.o)
 .debug_loc     0x00004494      0x134 /home/leon/git/swp-report/iMX6_Platform_SDK/output/mx6sl/lib/libsdk.a(ocotp.o)
 .debug_loc     0x000045c8      0xf20 /home/leon/git/swp-report/iMX6_Platform_SDK/output/mx6sl/lib/libsdk.a(pmu_driver.o)
 .debug_loc     0x000054e8      0x160 /home/leon/git/swp-report/iMX6_Platform_SDK/output/mx6sl/lib/libsdk.a(pwm.o)
 .debug_loc     0x00005648      0x134 /home/leon/git/swp-report/iMX6_Platform_SDK/output/mx6sl/lib/libsdk.a(rtc.o)
 .debug_loc     0x0000577c       0xdc /home/leon/git/swp-report/iMX6_Platform_SDK/output/mx6sl/lib/libsdk.a(srtc.o)
 .debug_loc     0x00005858      0x2c0 /home/leon/git/swp-report/iMX6_Platform_SDK/output/mx6sl/lib/libsdk.a(sdma.o)
 .debug_loc     0x00005b18      0x1e4 /home/leon/git/swp-report/iMX6_Platform_SDK/output/mx6sl/lib/libsdk.a(snvs.o)
 .debug_loc     0x00005cfc      0x23c /home/leon/git/swp-report/iMX6_Platform_SDK/output/mx6sl/lib/libsdk.a(mxc_spdc.o)
 .debug_loc     0x00005f38      0x134 /home/leon/git/swp-report/iMX6_Platform_SDK/output/mx6sl/lib/libsdk.a(ecspi.o)
 .debug_loc     0x0000606c      0x134 /home/leon/git/swp-report/iMX6_Platform_SDK/output/mx6sl/lib/libsdk.a(tempmon.o)
 .debug_loc     0x000061a0      0x1b8 /home/leon/git/swp-report/iMX6_Platform_SDK/output/mx6sl/lib/libsdk.a(gpt.o)
 .debug_loc     0x00006358       0x84 /home/leon/git/swp-report/iMX6_Platform_SDK/output/mx6sl/lib/libsdk.a(usb_common.o)
 .debug_loc     0x000063dc      0x18c /home/leon/git/swp-report/iMX6_Platform_SDK/output/mx6sl/lib/libsdk.a(usbd_drv.o)
 .debug_loc     0x00006568      0x160 /home/leon/git/swp-report/iMX6_Platform_SDK/output/mx6sl/lib/libsdk.a(usbh_drv.o)
 .debug_loc     0x000066c8      0x318 /home/leon/git/swp-report/iMX6_Platform_SDK/output/mx6sl/lib/libsdk.a(usdhc.o)
 .debug_loc     0x000069e0      0x44c /home/leon/git/swp-report/iMX6_Platform_SDK/output/mx6sl/lib/libsdk.a(usdhc_host.o)
 .debug_loc     0x00006e2c      0x23c /home/leon/git/swp-report/iMX6_Platform_SDK/output/mx6sl/lib/libsdk.a(usdhc_mmc.o)
 .debug_loc     0x00007068       0xb0 /home/leon/git/swp-report/iMX6_Platform_SDK/output/mx6sl/lib/libsdk.a(usdhc_sd.o)
 .debug_loc     0x00007118      0x1e4 /home/leon/git/swp-report/iMX6_Platform_SDK/output/mx6sl/lib/libsdk.a(imx-ssi.o)
 .debug_loc     0x000072fc      0x160 /home/leon/git/swp-report/iMX6_Platform_SDK/output/mx6sl/lib/libsdk.a(imx_spdif.o)
 .debug_loc     0x0000745c       0x58 /home/leon/git/swp-report/iMX6_Platform_SDK/output/mx6sl/lib/libsdk.a(mx6x_usb.o)
 .debug_loc     0x000074b4       0xb0 /home/leon/git/swp-report/iMX6_Platform_SDK/output/mx6sl/lib/libboard_evk_rev_a.a(board_audio.o)
 .debug_loc     0x00007564       0xb0 /home/leon/git/swp-report/iMX6_Platform_SDK/output/mx6sl/lib/libboard_evk_rev_a.a(board_camera.o)
 .debug_loc     0x00007614      0x134 /home/leon/git/swp-report/iMX6_Platform_SDK/output/mx6sl/lib/libboard_evk_rev_a.a(board_display.o)
 .debug_loc     0x00007748       0x84 /home/leon/git/swp-report/iMX6_Platform_SDK/output/mx6sl/lib/libboard_evk_rev_a.a(board_usb.o)
 .debug_loc     0x000077cc       0x84 /home/leon/git/swp-report/iMX6_Platform_SDK/output/mx6sl/lib/libboard_evk_rev_a.a(board_usdhc.o)
 .debug_loc     0x00007850       0x2c /home/leon/git/swp-report/iMX6_Platform_SDK/output/mx6sl/lib/libboard_evk_rev_a.a(ecspi_iomux_config.o)
 .debug_loc     0x0000787c       0x2c /home/leon/git/swp-report/iMX6_Platform_SDK/output/mx6sl/lib/libboard_evk_rev_a.a(i2c_iomux_config.o)
 .debug_loc     0x000078a8       0x2c /home/leon/git/swp-report/iMX6_Platform_SDK/output/mx6sl/lib/libboard_evk_rev_a.a(pwm_iomux_config.o)
 .debug_loc     0x000078d4       0x2c /home/leon/git/swp-report/iMX6_Platform_SDK/output/mx6sl/lib/libboard_evk_rev_a.a(usdhc_iomux_config.o)
 .debug_loc     0x00007900      0x18c /home/leon/git/swp-report/iMX6_Platform_SDK/output/mx6sl/lib/libsdk.a(pf0100.o)

.debug_frame    0x00000000     0x8588
 .debug_frame   0x00000000       0x30 /home/leon/git/swp-report/iMX6_Platform_SDK/output/mx6sl/sdk_unit_test/evk_rev_a/obj/apps/common/platform_init.o
 .debug_frame   0x00000030       0x50 /home/leon/git/swp-report/iMX6_Platform_SDK/output/mx6sl/sdk_unit_test/evk_rev_a/obj/apps/common/print_clock_info.o
 .debug_frame   0x00000080       0x30 /home/leon/git/swp-report/iMX6_Platform_SDK/output/mx6sl/sdk_unit_test/evk_rev_a/obj/apps/common/print_version.o
 .debug_frame   0x000000b0       0x50 /home/leon/git/swp-report/iMX6_Platform_SDK/output/mx6sl/sdk_unit_test/evk_rev_a/obj/apps/sdk_unit_test/src/all_test.o
 .debug_frame   0x00000100       0x30 /home/leon/git/swp-report/iMX6_Platform_SDK/output/mx6sl/sdk_unit_test/evk_rev_a/obj/apps/sdk_unit_test/src/unit_test_main.o
 .debug_frame   0x00000130       0xf0 /home/leon/git/swp-report/iMX6_Platform_SDK/output/mx6sl/lib/libsdk.a(ccm_pll.o)
 .debug_frame   0x00000220      0x230 /home/leon/git/swp-report/iMX6_Platform_SDK/output/mx6sl/lib/libsdk.a(gic.o)
 .debug_frame   0x00000450       0xb0 /home/leon/git/swp-report/iMX6_Platform_SDK/output/mx6sl/lib/libsdk.a(mmu.o)
 .debug_frame   0x00000500      0x170 /home/leon/git/swp-report/iMX6_Platform_SDK/output/mx6sl/lib/libsdk.a(menu.o)
 .debug_frame   0x00000670       0xe0 /home/leon/git/swp-report/iMX6_Platform_SDK/output/mx6sl/lib/libsdk.a(system_util.o)
 .debug_frame   0x00000750       0x54 /home/leon/git/swp-report/iMX6_Platform_SDK/output/mx6sl/lib/libsdk.a(text_color.o)
 .debug_frame   0x000007a4       0xf0 /home/leon/git/swp-report/iMX6_Platform_SDK/output/mx6sl/lib/libsdk.a(board_id.o)
 .debug_frame   0x00000894       0x94 /home/leon/git/swp-report/iMX6_Platform_SDK/output/mx6sl/lib/libsdk.a(timer.o)
 .debug_frame   0x00000928       0xf0 /home/leon/git/swp-report/iMX6_Platform_SDK/output/mx6sl/lib/libsdk.a(imx_uart.o)
 .debug_frame   0x00000a18       0xb8 /home/leon/git/swp-report/iMX6_Platform_SDK/output/mx6sl/lib/libsdk.a(interrupt.o)
 .debug_frame   0x00000ad0      0x110 /home/leon/git/swp-report/iMX6_Platform_SDK/output/mx6sl/lib/libsdk.a(epit.o)
 .debug_frame   0x00000be0       0x38 /home/leon/git/swp-report/iMX6_Platform_SDK/output/mx6sl/lib/libsdk.a(abort_handler.o)
 .debug_frame   0x00000c18       0x30 /home/leon/git/swp-report/iMX6_Platform_SDK/output/mx6sl/lib/libboard_evk_rev_a.a(board_io_expanders.o)
 .debug_frame   0x00000c48       0x30 /home/leon/git/swp-report/iMX6_Platform_SDK/output/mx6sl/lib/libboard_evk_rev_a.a(uart_iomux_config.o)
 .debug_frame   0x00000c78      0x370 /home/leon/git/swp-report/iMX6_Platform_SDK/output/mx6sl/lib/libboard_evk_rev_a.a(iomux_config.o)
 .debug_frame   0x00000fe8       0x30 /home/leon/git/swp-report/iMX6_Platform_SDK/output/mx6sl/lib/libboard_evk_rev_a.a(kpp_iomux_config.o)
 .debug_frame   0x00001018       0x30 /home/leon/git/swp-report/iMX6_Platform_SDK/output/mx6sl/lib/libboard_evk_rev_a.a(lcd_iomux_config.o)
 .debug_frame   0x00001048       0x30 /home/leon/git/swp-report/iMX6_Platform_SDK/output/mx6sl/lib/libboard_evk_rev_a.a(mmdc_iomux_config.o)
 .debug_frame   0x00001078       0x30 /home/leon/git/swp-report/iMX6_Platform_SDK/output/mx6sl/lib/libboard_evk_rev_a.a(pwm1_iomux_config.o)
 .debug_frame   0x000010a8       0x30 /home/leon/git/swp-report/iMX6_Platform_SDK/output/mx6sl/lib/libboard_evk_rev_a.a(sjc_iomux_config.o)
 .debug_frame   0x000010d8       0x30 /home/leon/git/swp-report/iMX6_Platform_SDK/output/mx6sl/lib/libboard_evk_rev_a.a(spdc_iomux_config.o)
 .debug_frame   0x00001108       0x30 /home/leon/git/swp-report/iMX6_Platform_SDK/output/mx6sl/lib/libboard_evk_rev_a.a(uart1_iomux_config.o)
 .debug_frame   0x00001138       0x30 /home/leon/git/swp-report/iMX6_Platform_SDK/output/mx6sl/lib/libboard_evk_rev_a.a(usb_iomux_config.o)
 .debug_frame   0x00001168       0x30 /home/leon/git/swp-report/iMX6_Platform_SDK/output/mx6sl/lib/libboard_evk_rev_a.a(usdhc1_iomux_config.o)
 .debug_frame   0x00001198       0x30 /home/leon/git/swp-report/iMX6_Platform_SDK/output/mx6sl/lib/libboard_evk_rev_a.a(usdhc2_iomux_config.o)
 .debug_frame   0x000011c8       0x30 /home/leon/git/swp-report/iMX6_Platform_SDK/output/mx6sl/lib/libboard_evk_rev_a.a(usdhc3_iomux_config.o)
 .debug_frame   0x000011f8       0x30 /home/leon/git/swp-report/iMX6_Platform_SDK/output/mx6sl/lib/libboard_evk_rev_a.a(wdog1_iomux_config.o)
 .debug_frame   0x00001228       0x30 /home/leon/git/swp-report/iMX6_Platform_SDK/output/mx6sl/lib/libboard_evk_rev_a.a(audmux_iomux_config.o)
 .debug_frame   0x00001258       0x30 /home/leon/git/swp-report/iMX6_Platform_SDK/output/mx6sl/lib/libboard_evk_rev_a.a(csi_iomux_config.o)
 .debug_frame   0x00001288       0x30 /home/leon/git/swp-report/iMX6_Platform_SDK/output/mx6sl/lib/libboard_evk_rev_a.a(ecspi1_iomux_config.o)
 .debug_frame   0x000012b8       0x30 /home/leon/git/swp-report/iMX6_Platform_SDK/output/mx6sl/lib/libboard_evk_rev_a.a(ecspi2_iomux_config.o)
 .debug_frame   0x000012e8       0x30 /home/leon/git/swp-report/iMX6_Platform_SDK/output/mx6sl/lib/libboard_evk_rev_a.a(epdc_iomux_config.o)
 .debug_frame   0x00001318       0x30 /home/leon/git/swp-report/iMX6_Platform_SDK/output/mx6sl/lib/libboard_evk_rev_a.a(fec_iomux_config.o)
 .debug_frame   0x00001348       0x30 /home/leon/git/swp-report/iMX6_Platform_SDK/output/mx6sl/lib/libboard_evk_rev_a.a(gpio1_iomux_config.o)
 .debug_frame   0x00001378       0x30 /home/leon/git/swp-report/iMX6_Platform_SDK/output/mx6sl/lib/libboard_evk_rev_a.a(gpio4_iomux_config.o)
 .debug_frame   0x000013a8       0x30 /home/leon/git/swp-report/iMX6_Platform_SDK/output/mx6sl/lib/libboard_evk_rev_a.a(i2c1_iomux_config.o)
 .debug_frame   0x000013d8       0x30 /home/leon/git/swp-report/iMX6_Platform_SDK/output/mx6sl/lib/libboard_evk_rev_a.a(i2c2_iomux_config.o)
 .debug_frame   0x00001408       0x30 /home/leon/git/swp-report/iMX6_Platform_SDK/output/mx6sl/lib/libboard_evk_rev_a.a(i2c3_iomux_config.o)
 .debug_frame   0x00001438       0x70 /home/leon/git/swp-report/iMX6_Platform_SDK/output/mx6sl/sdk_unit_test/evk_rev_a/libsdk_unit_test.a(cpu_wp_test.o)
 .debug_frame   0x000014a8       0x30 /home/leon/git/swp-report/iMX6_Platform_SDK/output/mx6sl/sdk_unit_test/evk_rev_a/libsdk_unit_test.a(audio_test.o)
 .debug_frame   0x000014d8       0x30 /home/leon/git/swp-report/iMX6_Platform_SDK/output/mx6sl/sdk_unit_test/evk_rev_a/libsdk_unit_test.a(ssi_playback.o)
 .debug_frame   0x00001508       0x50 /home/leon/git/swp-report/iMX6_Platform_SDK/output/mx6sl/sdk_unit_test/evk_rev_a/libsdk_unit_test.a(gic_test.o)
 .debug_frame   0x00001558       0x30 /home/leon/git/swp-report/iMX6_Platform_SDK/output/mx6sl/sdk_unit_test/evk_rev_a/libsdk_unit_test.a(ocotp_test.o)
 .debug_frame   0x00001588       0x30 /home/leon/git/swp-report/iMX6_Platform_SDK/output/mx6sl/sdk_unit_test/evk_rev_a/libsdk_unit_test.a(i2c_test.o)
 .debug_frame   0x000015b8       0x70 /home/leon/git/swp-report/iMX6_Platform_SDK/output/mx6sl/sdk_unit_test/evk_rev_a/libsdk_unit_test.a(imx6_i2c_device.o)
 .debug_frame   0x00001628       0xb0 /home/leon/git/swp-report/iMX6_Platform_SDK/output/mx6sl/sdk_unit_test/evk_rev_a/libsdk_unit_test.a(snvs_rtc_test.o)
 .debug_frame   0x000016d8       0x70 /home/leon/git/swp-report/iMX6_Platform_SDK/output/mx6sl/sdk_unit_test/evk_rev_a/libsdk_unit_test.a(snvs_srtc_test.o)
 .debug_frame   0x00001748       0x70 /home/leon/git/swp-report/iMX6_Platform_SDK/output/mx6sl/sdk_unit_test/evk_rev_a/libsdk_unit_test.a(tempmon_test.o)
 .debug_frame   0x000017b8       0x30 /home/leon/git/swp-report/iMX6_Platform_SDK/output/mx6sl/sdk_unit_test/evk_rev_a/libsdk_unit_test.a(sdma_test.o)
 .debug_frame   0x000017e8       0x70 /home/leon/git/swp-report/iMX6_Platform_SDK/output/mx6sl/sdk_unit_test/evk_rev_a/libsdk_unit_test.a(spi_lpb.o)
 .debug_frame   0x00001858       0xf0 /home/leon/git/swp-report/iMX6_Platform_SDK/output/mx6sl/sdk_unit_test/evk_rev_a/libsdk_unit_test.a(uart_loopback.o)
 .debug_frame   0x00001948       0x90 /home/leon/git/swp-report/iMX6_Platform_SDK/output/mx6sl/sdk_unit_test/evk_rev_a/libsdk_unit_test.a(epit_test.o)
 .debug_frame   0x000019d8       0x90 /home/leon/git/swp-report/iMX6_Platform_SDK/output/mx6sl/sdk_unit_test/evk_rev_a/libsdk_unit_test.a(gpt_test.o)
 .debug_frame   0x00001a68       0x38 /home/leon/git/swp-report/iMX6_Platform_SDK/output/mx6sl/sdk_unit_test/evk_rev_a/libsdk_unit_test.a(timer_test.o)
 .debug_frame   0x00001aa0       0x50 /home/leon/git/swp-report/iMX6_Platform_SDK/output/mx6sl/sdk_unit_test/evk_rev_a/libsdk_unit_test.a(uart_test.o)
 .debug_frame   0x00001af0      0x170 /home/leon/git/swp-report/iMX6_Platform_SDK/output/mx6sl/sdk_unit_test/evk_rev_a/libsdk_unit_test.a(usdhc_test.o)
 .debug_frame   0x00001c60       0x30 /home/leon/git/swp-report/iMX6_Platform_SDK/output/mx6sl/sdk_unit_test/evk_rev_a/libsdk_unit_test.a(pwm_test.o)
 .debug_frame   0x00001c90       0x50 /home/leon/git/swp-report/iMX6_Platform_SDK/output/mx6sl/sdk_unit_test/evk_rev_a/libsdk_unit_test.a(watchdog_test.o)
 .debug_frame   0x00001ce0       0x50 /home/leon/git/swp-report/iMX6_Platform_SDK/output/mx6sl/sdk_unit_test/evk_rev_a/libsdk_unit_test.a(spi_test.o)
 .debug_frame   0x00001d30       0x30 /home/leon/git/swp-report/iMX6_Platform_SDK/output/mx6sl/sdk_unit_test/evk_rev_a/libsdk_unit_test.a(usb_test.o)
 .debug_frame   0x00001d60       0xd0 /home/leon/git/swp-report/iMX6_Platform_SDK/output/mx6sl/sdk_unit_test/evk_rev_a/libsdk_unit_test.a(epdc_test.o)
 .debug_frame   0x00001e30       0x30 /home/leon/git/swp-report/iMX6_Platform_SDK/output/mx6sl/sdk_unit_test/evk_rev_a/libsdk_unit_test.a(lcdif_test.o)
 .debug_frame   0x00001e60       0x30 /home/leon/git/swp-report/iMX6_Platform_SDK/output/mx6sl/sdk_unit_test/evk_rev_a/libsdk_unit_test.a(camera_test.o)
 .debug_frame   0x00001e90       0x30 /home/leon/git/swp-report/iMX6_Platform_SDK/output/mx6sl/sdk_unit_test/evk_rev_a/libsdk_unit_test.a(csi_sensor_capture.o)
 .debug_frame   0x00001ec0       0x90 /home/leon/git/swp-report/iMX6_Platform_SDK/output/mx6sl/sdk_unit_test/evk_rev_a/libsdk_unit_test.a(fec_test.o)
 .debug_frame   0x00001f50       0x30 /home/leon/git/swp-report/iMX6_Platform_SDK/output/mx6sl/sdk_unit_test/evk_rev_a/libsdk_unit_test.a(spdc_test.o)
 .debug_frame   0x00001f80       0x70 /home/leon/git/swp-report/iMX6_Platform_SDK/output/mx6sl/sdk_unit_test/evk_rev_a/libsdk_unit_test.a(at24cxx.o)
 .debug_frame   0x00001ff0       0x34 /home/leon/git/swp-report/iMX6_Platform_SDK/output/mx6sl/sdk_unit_test/evk_rev_a/libsdk_unit_test.a(mem_2_mem.o)
 .debug_frame   0x00002024       0x54 /home/leon/git/swp-report/iMX6_Platform_SDK/output/mx6sl/sdk_unit_test/evk_rev_a/libsdk_unit_test.a(pwm_output.o)
 .debug_frame   0x00002078      0x110 /home/leon/git/swp-report/iMX6_Platform_SDK/output/mx6sl/sdk_unit_test/evk_rev_a/libsdk_unit_test.a(spi_nor_numonyx.o)
 .debug_frame   0x00002188       0x70 /home/leon/git/swp-report/iMX6_Platform_SDK/output/mx6sl/sdk_unit_test/evk_rev_a/libsdk_unit_test.a(usb0_device_mouse_test.o)
 .debug_frame   0x000021f8      0x110 /home/leon/git/swp-report/iMX6_Platform_SDK/output/mx6sl/sdk_unit_test/evk_rev_a/libsdk_unit_test.a(usb0_host_test.o)
 .debug_frame   0x00002308       0x30 /home/leon/git/swp-report/iMX6_Platform_SDK/output/mx6sl/sdk_unit_test/evk_rev_a/libsdk_unit_test.a(usb0_host_testmodes_test.o)
 .debug_frame   0x00002338       0x30 /home/leon/git/swp-report/iMX6_Platform_SDK/output/mx6sl/sdk_unit_test/evk_rev_a/libsdk_unit_test.a(lcdif_display.o)
 .debug_frame   0x00002368       0x28 /home/leon/riotboard/arm-2012.09/bin/../arm-none-eabi/lib//libm.a(lib_a-sf_cos.o)
 .debug_frame   0x00002390       0x28 /home/leon/riotboard/arm-2012.09/bin/../arm-none-eabi/lib//libm.a(lib_a-sf_sin.o)
 .debug_frame   0x000023b8       0x38 /home/leon/riotboard/arm-2012.09/bin/../arm-none-eabi/lib//libm.a(lib_a-ef_rem_pio2.o)
 .debug_frame   0x000023f0       0x34 /home/leon/riotboard/arm-2012.09/bin/../arm-none-eabi/lib//libm.a(lib_a-kf_cos.o)
 .debug_frame   0x00002424       0x3c /home/leon/riotboard/arm-2012.09/bin/../arm-none-eabi/lib//libm.a(lib_a-kf_rem_pio2.o)
 .debug_frame   0x00002460       0x34 /home/leon/riotboard/arm-2012.09/bin/../arm-none-eabi/lib//libm.a(lib_a-kf_sin.o)
 .debug_frame   0x00002494       0x20 /home/leon/riotboard/arm-2012.09/bin/../arm-none-eabi/lib//libm.a(lib_a-sf_fabs.o)
 .debug_frame   0x000024b4       0x30 /home/leon/riotboard/arm-2012.09/bin/../arm-none-eabi/lib//libm.a(lib_a-sf_floor.o)
 .debug_frame   0x000024e4       0x28 /home/leon/riotboard/arm-2012.09/bin/../arm-none-eabi/lib//libm.a(lib_a-sf_scalbn.o)
 .debug_frame   0x0000250c       0x20 /home/leon/riotboard/arm-2012.09/bin/../arm-none-eabi/lib//libm.a(lib_a-sf_copysign.o)
 .debug_frame   0x0000252c       0x40 /home/leon/riotboard/arm-2012.09/bin/../arm-none-eabi/lib//libc.a(lib_a-assert.o)
 .debug_frame   0x0000256c       0x20 /home/leon/riotboard/arm-2012.09/bin/../arm-none-eabi/lib//libc.a(lib_a-bzero.o)
 .debug_frame   0x0000258c       0x54 /home/leon/riotboard/arm-2012.09/bin/../arm-none-eabi/lib//libc.a(lib_a-fiprintf.o)
 .debug_frame   0x000025e0       0x48 /home/leon/riotboard/arm-2012.09/bin/../arm-none-eabi/lib//libc.a(lib_a-fputc.o)
 .debug_frame   0x00002628       0x2c /home/leon/riotboard/arm-2012.09/bin/../arm-none-eabi/lib//libc.a(lib_a-init.o)
 .debug_frame   0x00002654       0x40 /home/leon/riotboard/arm-2012.09/bin/../arm-none-eabi/lib//libc.a(lib_a-malloc.o)
 .debug_frame   0x00002694       0x38 /home/leon/riotboard/arm-2012.09/bin/../arm-none-eabi/lib//libc.a(lib_a-mallocr.o)
 .debug_frame   0x000026cc       0x30 /home/leon/riotboard/arm-2012.09/bin/../arm-none-eabi/lib//libc.a(lib_a-memcpy.o)
 .debug_frame   0x000026fc       0x28 /home/leon/riotboard/arm-2012.09/bin/../arm-none-eabi/lib//libc.a(lib_a-memset.o)
 .debug_frame   0x00002724       0x30 /home/leon/riotboard/arm-2012.09/bin/../arm-none-eabi/lib//libc.a(lib_a-mlock.o)
 .debug_frame   0x00002754       0x58 /home/leon/riotboard/arm-2012.09/bin/../arm-none-eabi/lib//libc.a(lib_a-printf.o)
 .debug_frame   0x000027ac       0x48 /home/leon/riotboard/arm-2012.09/bin/../arm-none-eabi/lib//libc.a(lib_a-putc.o)
 .debug_frame   0x000027f4       0x28 /home/leon/riotboard/arm-2012.09/bin/../arm-none-eabi/lib//libc.a(lib_a-realloc.o)
 .debug_frame   0x0000281c       0x38 /home/leon/riotboard/arm-2012.09/bin/../arm-none-eabi/lib//libc.a(lib_a-reallocr.o)
 .debug_frame   0x00002854       0x3c /home/leon/riotboard/arm-2012.09/bin/../arm-none-eabi/lib//libc.a(lib_a-rget.o)
 .debug_frame   0x00002890       0x2c /home/leon/riotboard/arm-2012.09/bin/../arm-none-eabi/lib//libc.a(lib_a-sbrkr.o)
 .debug_frame   0x000028bc       0x5c /home/leon/riotboard/arm-2012.09/bin/../arm-none-eabi/lib//libc.a(lib_a-sprintf.o)
 .debug_frame   0x00002918       0x20 /home/leon/riotboard/arm-2012.09/bin/../arm-none-eabi/lib//libc.a(lib_a-strlen.o)
 .debug_frame   0x00002938       0x28 /home/leon/riotboard/arm-2012.09/bin/../arm-none-eabi/lib//libc.a(lib_a-strncasecmp.o)
 .debug_frame   0x00002960       0x3c /home/leon/riotboard/arm-2012.09/bin/../arm-none-eabi/lib//libc.a(lib_a-svfprintf.o)
 .debug_frame   0x0000299c       0x7c /home/leon/riotboard/arm-2012.09/bin/../arm-none-eabi/lib//libc.a(lib_a-vfiprintf.o)
 .debug_frame   0x00002a18       0x58 /home/leon/riotboard/arm-2012.09/bin/../arm-none-eabi/lib//libc.a(lib_a-vfprintf.o)
 .debug_frame   0x00002a70       0x40 /home/leon/riotboard/arm-2012.09/bin/../arm-none-eabi/lib//libc.a(lib_a-vprintf.o)
 .debug_frame   0x00002ab0       0x3c /home/leon/riotboard/arm-2012.09/bin/../arm-none-eabi/lib//libc.a(lib_a-wbuf.o)
 .debug_frame   0x00002aec       0x2c /home/leon/riotboard/arm-2012.09/bin/../arm-none-eabi/lib//libc.a(lib_a-wsetup.o)
 .debug_frame   0x00002b18       0x28 /home/leon/riotboard/arm-2012.09/bin/../arm-none-eabi/lib//libc.a(lib_a-abort.o)
 .debug_frame   0x00002b40       0x64 /home/leon/riotboard/arm-2012.09/bin/../arm-none-eabi/lib//libc.a(lib_a-dtoa.o)
 .debug_frame   0x00002ba4       0x48 /home/leon/riotboard/arm-2012.09/bin/../arm-none-eabi/lib//libc.a(lib_a-fflush.o)
 .debug_frame   0x00002bec      0x134 /home/leon/riotboard/arm-2012.09/bin/../arm-none-eabi/lib//libc.a(lib_a-findfp.o)
 .debug_frame   0x00002d20       0x50 /home/leon/riotboard/arm-2012.09/bin/../arm-none-eabi/lib//libc.a(lib_a-fputwc.o)
 .debug_frame   0x00002d70       0x50 /home/leon/riotboard/arm-2012.09/bin/../arm-none-eabi/lib//libc.a(lib_a-freer.o)
 .debug_frame   0x00002dc0       0x38 /home/leon/riotboard/arm-2012.09/bin/../arm-none-eabi/lib//libc.a(lib_a-fvwrite.o)
 .debug_frame   0x00002df8       0x54 /home/leon/riotboard/arm-2012.09/bin/../arm-none-eabi/lib//libc.a(lib_a-fwalk.o)
 .debug_frame   0x00002e4c       0x98 /home/leon/riotboard/arm-2012.09/bin/../arm-none-eabi/lib//libc.a(lib_a-locale.o)
 .debug_frame   0x00002ee4       0x30 /home/leon/riotboard/arm-2012.09/bin/../arm-none-eabi/lib//libc.a(lib_a-makebuf.o)
 .debug_frame   0x00002f14       0x2c /home/leon/riotboard/arm-2012.09/bin/../arm-none-eabi/lib//libc.a(lib_a-memchr.o)
 .debug_frame   0x00002f40       0x2c /home/leon/riotboard/arm-2012.09/bin/../arm-none-eabi/lib//libc.a(lib_a-memmove.o)
 .debug_frame   0x00002f6c      0x220 /home/leon/riotboard/arm-2012.09/bin/../arm-none-eabi/lib//libc.a(lib_a-mprec.o)
 .debug_frame   0x0000318c       0x68 /home/leon/riotboard/arm-2012.09/bin/../arm-none-eabi/lib//libc.a(lib_a-reent.o)
 .debug_frame   0x000031f4       0x44 /home/leon/riotboard/arm-2012.09/bin/../arm-none-eabi/lib//libc.a(lib_a-refill.o)
 .debug_frame   0x00003238       0x20 /home/leon/riotboard/arm-2012.09/bin/../arm-none-eabi/lib//libc.a(lib_a-s_fpclassify.o)
 .debug_frame   0x00003258       0xc0 /home/leon/riotboard/arm-2012.09/bin/../arm-none-eabi/lib//libc.a(lib_a-signal.o)
 .debug_frame   0x00003318       0x44 /home/leon/riotboard/arm-2012.09/bin/../arm-none-eabi/lib//libc.a(lib_a-signalr.o)
 .debug_frame   0x0000335c       0x88 /home/leon/riotboard/arm-2012.09/bin/../arm-none-eabi/lib//libc.a(lib_a-stdio.o)
 .debug_frame   0x000033e4       0x30 /home/leon/riotboard/arm-2012.09/bin/../arm-none-eabi/lib//libc.a(lib_a-strcmp.o)
 .debug_frame   0x00003414       0x64 /home/leon/riotboard/arm-2012.09/bin/../arm-none-eabi/lib//libc.a(lib_a-svfiprintf.o)
 .debug_frame   0x00003478       0x58 /home/leon/riotboard/arm-2012.09/bin/../arm-none-eabi/lib//libc.a(lib_a-wcrtomb.o)
 .debug_frame   0x000034d0       0x44 /home/leon/riotboard/arm-2012.09/bin/../arm-none-eabi/lib//libc.a(lib_a-wctomb_r.o)
 .debug_frame   0x00003514       0x2c /home/leon/riotboard/arm-2012.09/bin/../arm-none-eabi/lib//libc.a(lib_a-writer.o)
 .debug_frame   0x00003540       0x28 /home/leon/riotboard/arm-2012.09/bin/../arm-none-eabi/lib//libc.a(lib_a-callocr.o)
 .debug_frame   0x00003568       0x2c /home/leon/riotboard/arm-2012.09/bin/../arm-none-eabi/lib//libc.a(lib_a-closer.o)
 .debug_frame   0x00003594       0x3c /home/leon/riotboard/arm-2012.09/bin/../arm-none-eabi/lib//libc.a(lib_a-fclose.o)
 .debug_frame   0x000035d0       0x2c /home/leon/riotboard/arm-2012.09/bin/../arm-none-eabi/lib//libc.a(lib_a-fstatr.o)
 .debug_frame   0x000035fc       0x2c /home/leon/riotboard/arm-2012.09/bin/../arm-none-eabi/lib//libc.a(lib_a-isattyr.o)
 .debug_frame   0x00003628       0x2c /home/leon/riotboard/arm-2012.09/bin/../arm-none-eabi/lib//libc.a(lib_a-lseekr.o)
 .debug_frame   0x00003654       0x2c /home/leon/riotboard/arm-2012.09/bin/../arm-none-eabi/lib//libc.a(lib_a-readr.o)
 .debug_frame   0x00003680       0x20 /home/leon/riotboard/arm-2012.09/bin/../lib/gcc/arm-none-eabi/4.7.2//libgcc.a(_udivsi3.o)
 .debug_frame   0x000036a0       0x54 /home/leon/riotboard/arm-2012.09/bin/../lib/gcc/arm-none-eabi/4.7.2//libgcc.a(bpabi.o)
 .debug_frame   0x000036f4       0x38 /home/leon/riotboard/arm-2012.09/bin/../lib/gcc/arm-none-eabi/4.7.2//libgcc.a(_divdi3.o)
 .debug_frame   0x0000372c       0x38 /home/leon/riotboard/arm-2012.09/bin/../lib/gcc/arm-none-eabi/4.7.2//libgcc.a(_udivdi3.o)
 .debug_frame   0x00003764       0x50 /home/leon/git/swp-report/iMX6_Platform_SDK/output/mx6sl/lib/libsdk.a(profile.o)
 .debug_frame   0x000037b4      0x210 /home/leon/git/swp-report/iMX6_Platform_SDK/output/mx6sl/lib/libsdk.a(armv7_cache.o)
 .debug_frame   0x000039c4      0x290 /home/leon/git/swp-report/iMX6_Platform_SDK/output/mx6sl/lib/libsdk.a(runtime_support.o)
 .debug_frame   0x00003c54       0x70 /home/leon/git/swp-report/iMX6_Platform_SDK/output/mx6sl/lib/libsdk.a(imx_audmux.o)
 .debug_frame   0x00003cc4       0xd0 /home/leon/git/swp-report/iMX6_Platform_SDK/output/mx6sl/lib/libsdk.a(snd_card.o)
 .debug_frame   0x00003d94      0x150 /home/leon/git/swp-report/iMX6_Platform_SDK/output/mx6sl/lib/libsdk.a(wm8962.o)
 .debug_frame   0x00003ee4       0x90 /home/leon/git/swp-report/iMX6_Platform_SDK/output/mx6sl/lib/libsdk.a(csi_drv.o)
 .debug_frame   0x00003f74      0x150 /home/leon/git/swp-report/iMX6_Platform_SDK/output/mx6sl/lib/libsdk.a(smd_sensor.o)
 .debug_frame   0x000040c4       0x30 /home/leon/git/swp-report/iMX6_Platform_SDK/output/mx6sl/lib/libsdk.a(cpu_workpoint.o)
 .debug_frame   0x000040f4      0x390 /home/leon/git/swp-report/iMX6_Platform_SDK/output/mx6sl/lib/libsdk.a(mxc_epdc.o)
 .debug_frame   0x00004484      0x210 /home/leon/git/swp-report/iMX6_Platform_SDK/output/mx6sl/lib/libsdk.a(fec_drv.o)
 .debug_frame   0x00004694      0x178 /home/leon/git/swp-report/iMX6_Platform_SDK/output/mx6sl/lib/libsdk.a(gpio.o)
 .debug_frame   0x0000480c      0x1d8 /home/leon/git/swp-report/iMX6_Platform_SDK/output/mx6sl/lib/libsdk.a(imx_i2c.o)
 .debug_frame   0x000049e4       0x70 /home/leon/git/swp-report/iMX6_Platform_SDK/output/mx6sl/lib/libsdk.a(imx_i2c_slave.o)
 .debug_frame   0x00004a54      0x110 /home/leon/git/swp-report/iMX6_Platform_SDK/output/mx6sl/lib/libsdk.a(lcdif_drv.o)
 .debug_frame   0x00004b64       0xb0 /home/leon/git/swp-report/iMX6_Platform_SDK/output/mx6sl/lib/libsdk.a(pxp_drv.o)
 .debug_frame   0x00004c14       0xf0 /home/leon/git/swp-report/iMX6_Platform_SDK/output/mx6sl/lib/libsdk.a(ocotp.o)
 .debug_frame   0x00004d04      0xb10 /home/leon/git/swp-report/iMX6_Platform_SDK/output/mx6sl/lib/libsdk.a(pmu_driver.o)
 .debug_frame   0x00005814      0x110 /home/leon/git/swp-report/iMX6_Platform_SDK/output/mx6sl/lib/libsdk.a(pwm.o)
 .debug_frame   0x00005924       0xf0 /home/leon/git/swp-report/iMX6_Platform_SDK/output/mx6sl/lib/libsdk.a(rtc.o)
 .debug_frame   0x00005a14       0xb0 /home/leon/git/swp-report/iMX6_Platform_SDK/output/mx6sl/lib/libsdk.a(srtc.o)
 .debug_frame   0x00005ac4      0x210 /home/leon/git/swp-report/iMX6_Platform_SDK/output/mx6sl/lib/libsdk.a(sdma.o)
 .debug_frame   0x00005cd4      0x17c /home/leon/git/swp-report/iMX6_Platform_SDK/output/mx6sl/lib/libsdk.a(snvs.o)
 .debug_frame   0x00005e50      0x1b0 /home/leon/git/swp-report/iMX6_Platform_SDK/output/mx6sl/lib/libsdk.a(mxc_spdc.o)
 .debug_frame   0x00006000       0xf0 /home/leon/git/swp-report/iMX6_Platform_SDK/output/mx6sl/lib/libsdk.a(ecspi.o)
 .debug_frame   0x000060f0       0xf0 /home/leon/git/swp-report/iMX6_Platform_SDK/output/mx6sl/lib/libsdk.a(tempmon.o)
 .debug_frame   0x000061e0      0x150 /home/leon/git/swp-report/iMX6_Platform_SDK/output/mx6sl/lib/libsdk.a(gpt.o)
 .debug_frame   0x00006330       0x70 /home/leon/git/swp-report/iMX6_Platform_SDK/output/mx6sl/lib/libsdk.a(usb_common.o)
 .debug_frame   0x000063a0      0x130 /home/leon/git/swp-report/iMX6_Platform_SDK/output/mx6sl/lib/libsdk.a(usbd_drv.o)
 .debug_frame   0x000064d0      0x110 /home/leon/git/swp-report/iMX6_Platform_SDK/output/mx6sl/lib/libsdk.a(usbh_drv.o)
 .debug_frame   0x000065e0      0x250 /home/leon/git/swp-report/iMX6_Platform_SDK/output/mx6sl/lib/libsdk.a(usdhc.o)
 .debug_frame   0x00006830      0x330 /home/leon/git/swp-report/iMX6_Platform_SDK/output/mx6sl/lib/libsdk.a(usdhc_host.o)
 .debug_frame   0x00006b60      0x1b0 /home/leon/git/swp-report/iMX6_Platform_SDK/output/mx6sl/lib/libsdk.a(usdhc_mmc.o)
 .debug_frame   0x00006d10       0x90 /home/leon/git/swp-report/iMX6_Platform_SDK/output/mx6sl/lib/libsdk.a(usdhc_sd.o)
 .debug_frame   0x00006da0      0x170 /home/leon/git/swp-report/iMX6_Platform_SDK/output/mx6sl/lib/libsdk.a(imx-ssi.o)
 .debug_frame   0x00006f10      0x110 /home/leon/git/swp-report/iMX6_Platform_SDK/output/mx6sl/lib/libsdk.a(imx_spdif.o)
 .debug_frame   0x00007020       0x50 /home/leon/git/swp-report/iMX6_Platform_SDK/output/mx6sl/lib/libsdk.a(mx6x_usb.o)
 .debug_frame   0x00007070       0x90 /home/leon/git/swp-report/iMX6_Platform_SDK/output/mx6sl/lib/libboard_evk_rev_a.a(board_audio.o)
 .debug_frame   0x00007100       0x90 /home/leon/git/swp-report/iMX6_Platform_SDK/output/mx6sl/lib/libboard_evk_rev_a.a(board_camera.o)
 .debug_frame   0x00007190       0xf0 /home/leon/git/swp-report/iMX6_Platform_SDK/output/mx6sl/lib/libboard_evk_rev_a.a(board_display.o)
 .debug_frame   0x00007280       0x70 /home/leon/git/swp-report/iMX6_Platform_SDK/output/mx6sl/lib/libboard_evk_rev_a.a(board_usb.o)
 .debug_frame   0x000072f0       0x70 /home/leon/git/swp-report/iMX6_Platform_SDK/output/mx6sl/lib/libboard_evk_rev_a.a(board_usdhc.o)
 .debug_frame   0x00007360       0x30 /home/leon/git/swp-report/iMX6_Platform_SDK/output/mx6sl/lib/libboard_evk_rev_a.a(ecspi_iomux_config.o)
 .debug_frame   0x00007390       0x30 /home/leon/git/swp-report/iMX6_Platform_SDK/output/mx6sl/lib/libboard_evk_rev_a.a(i2c_iomux_config.o)
 .debug_frame   0x000073c0       0x30 /home/leon/git/swp-report/iMX6_Platform_SDK/output/mx6sl/lib/libboard_evk_rev_a.a(pwm_iomux_config.o)
 .debug_frame   0x000073f0       0x30 /home/leon/git/swp-report/iMX6_Platform_SDK/output/mx6sl/lib/libboard_evk_rev_a.a(usdhc_iomux_config.o)
 .debug_frame   0x00007420       0x40 /home/leon/riotboard/arm-2012.09/bin/../arm-none-eabi/lib//libstdc++.a(pure.o)
 .debug_frame   0x00007460       0x90 /home/leon/riotboard/arm-2012.09/bin/../arm-none-eabi/lib//libstdc++.a(eh_terminate.o)
 .debug_frame   0x000074f0       0x60 /home/leon/riotboard/arm-2012.09/bin/../arm-none-eabi/lib//libstdc++.a(eh_call.o)
 .debug_frame   0x00007550       0x5c /home/leon/riotboard/arm-2012.09/bin/../arm-none-eabi/lib//libstdc++.a(eh_throw.o)
 .debug_frame   0x000075ac       0x60 /home/leon/riotboard/arm-2012.09/bin/../arm-none-eabi/lib//libstdc++.a(eh_arm.o)
 .debug_frame   0x0000760c       0xd0 /home/leon/riotboard/arm-2012.09/bin/../arm-none-eabi/lib//libstdc++.a(eh_exception.o)
 .debug_frame   0x000076dc       0x74 /home/leon/riotboard/arm-2012.09/bin/../arm-none-eabi/lib//libstdc++.a(eh_alloc.o)
 .debug_frame   0x00007750       0x30 /home/leon/riotboard/arm-2012.09/bin/../arm-none-eabi/lib//libstdc++.a(eh_globals.o)
 .debug_frame   0x00007780       0xa8 /home/leon/riotboard/arm-2012.09/bin/../arm-none-eabi/lib//libstdc++.a(si_class_type_info.o)
 .debug_frame   0x00007828       0xa8 /home/leon/riotboard/arm-2012.09/bin/../arm-none-eabi/lib//libstdc++.a(eh_personality.o)
 .debug_frame   0x000078d0       0x68 /home/leon/riotboard/arm-2012.09/bin/../arm-none-eabi/lib//libstdc++.a(eh_catch.o)
 .debug_frame   0x00007938       0xc8 /home/leon/riotboard/arm-2012.09/bin/../arm-none-eabi/lib//libstdc++.a(class_type_info.o)
 .debug_frame   0x00007a00       0x30 /home/leon/riotboard/arm-2012.09/bin/../arm-none-eabi/lib//libstdc++.a(vterminate.o)
 .debug_frame   0x00007a30      0x4b0 /home/leon/riotboard/arm-2012.09/bin/../arm-none-eabi/lib//libstdc++.a(cp-demangle.o)
 .debug_frame   0x00007ee0       0x28 /home/leon/riotboard/arm-2012.09/bin/../arm-none-eabi/lib//libstdc++.a(eh_type.o)
 .debug_frame   0x00007f08       0x28 /home/leon/riotboard/arm-2012.09/bin/../arm-none-eabi/lib//libstdc++.a(del_op.o)
 .debug_frame   0x00007f30       0x90 /home/leon/riotboard/arm-2012.09/bin/../arm-none-eabi/lib//libstdc++.a(tinfo.o)
 .debug_frame   0x00007fc0       0x3c /home/leon/riotboard/arm-2012.09/bin/../arm-none-eabi/lib//libc.a(lib_a-fputs.o)
 .debug_frame   0x00007ffc       0x50 /home/leon/riotboard/arm-2012.09/bin/../arm-none-eabi/lib//libc.a(lib_a-fwrite.o)
 .debug_frame   0x0000804c       0x28 /home/leon/riotboard/arm-2012.09/bin/../arm-none-eabi/lib//libc.a(lib_a-memcmp.o)
 .debug_frame   0x00008074       0x28 /home/leon/riotboard/arm-2012.09/bin/../arm-none-eabi/lib//libc.a(lib_a-strncmp.o)
 .debug_frame   0x0000809c       0x28 /home/leon/riotboard/arm-2012.09/bin/../arm-none-eabi/lib//libc.a(lib_a-syswrite.o)
 .debug_frame   0x000080c4       0x20 /home/leon/riotboard/arm-2012.09/bin/../lib/gcc/arm-none-eabi/4.7.2//libgcc.a(_divsi3.o)
 .debug_frame   0x000080e4      0x290 /home/leon/riotboard/arm-2012.09/bin/../lib/gcc/arm-none-eabi/4.7.2//libgcc.a(unwind-arm.o)
 .debug_frame   0x00008374       0xe4 /home/leon/riotboard/arm-2012.09/bin/../lib/gcc/arm-none-eabi/4.7.2//libgcc.a(pr-support.o)
 .debug_frame   0x00008458      0x130 /home/leon/git/swp-report/iMX6_Platform_SDK/output/mx6sl/lib/libsdk.a(pf0100.o)

.debug_ranges   0x00000000      0x188
 .debug_ranges  0x00000000       0x30 /home/leon/git/swp-report/iMX6_Platform_SDK/output/mx6sl/lib/libsdk.a(menu.o)
 .debug_ranges  0x00000030       0x18 /home/leon/git/swp-report/iMX6_Platform_SDK/output/mx6sl/lib/libsdk.a(system_util.o)
 .debug_ranges  0x00000048      0x140 /home/leon/git/swp-report/iMX6_Platform_SDK/output/mx6sl/lib/libsdk.a(pmu_driver.o)

Cross Reference Table

Symbol                                            File
ALL_test                                          /home/leon/git/swp-report/iMX6_Platform_SDK/output/mx6sl/sdk_unit_test/evk_rev_a/obj/apps/sdk_unit_test/src/all_test.o
                                                  /home/leon/git/swp-report/iMX6_Platform_SDK/output/mx6sl/sdk_unit_test/evk_rev_a/obj/apps/sdk_unit_test/src/unit_test_main.o
Delay4Reload                                      /home/leon/git/swp-report/iMX6_Platform_SDK/output/mx6sl/lib/libsdk.a(ocotp.o)
IRQ_HDLR                                          /home/leon/git/swp-report/iMX6_Platform_SDK/output/mx6sl/lib/libsdk.a(interrupt.o)
                                                  /home/leon/git/swp-report/iMX6_Platform_SDK/output/mx6sl/lib/libsdk.a(vectors.o)
PLL1_OUTPUT                                       /home/leon/git/swp-report/iMX6_Platform_SDK/output/mx6sl/lib/libsdk.a(ccm_pll.o)
PLL2_OUTPUT                                       /home/leon/git/swp-report/iMX6_Platform_SDK/output/mx6sl/lib/libsdk.a(ccm_pll.o)
PLL3_OUTPUT                                       /home/leon/git/swp-report/iMX6_Platform_SDK/output/mx6sl/lib/libsdk.a(ccm_pll.o)
PLL4_OUTPUT                                       /home/leon/git/swp-report/iMX6_Platform_SDK/output/mx6sl/lib/libsdk.a(ccm_pll.o)
PLL5_OUTPUT                                       /home/leon/git/swp-report/iMX6_Platform_SDK/output/mx6sl/lib/libsdk.a(ccm_pll.o)
StartPerfCounter                                  /home/leon/git/swp-report/iMX6_Platform_SDK/output/mx6sl/lib/libsdk.a(profile.o)
                                                  /home/leon/git/swp-report/iMX6_Platform_SDK/output/mx6sl/sdk_unit_test/evk_rev_a/libsdk_unit_test.a(mem_2_mem.o)
StopPerfCounter                                   /home/leon/git/swp-report/iMX6_Platform_SDK/output/mx6sl/lib/libsdk.a(profile.o)
                                                  /home/leon/git/swp-report/iMX6_Platform_SDK/output/mx6sl/sdk_unit_test/evk_rev_a/libsdk_unit_test.a(mem_2_mem.o)
WM8962_DAC_configure                              /home/leon/git/swp-report/iMX6_Platform_SDK/output/mx6sl/lib/libsdk.a(wm8962.o)
WM8962_DAC_deinit                                 /home/leon/git/swp-report/iMX6_Platform_SDK/output/mx6sl/lib/libsdk.a(wm8962.o)
WM8962_DAC_init                                   /home/leon/git/swp-report/iMX6_Platform_SDK/output/mx6sl/lib/libsdk.a(wm8962.o)
WM8962_dump                                       /home/leon/git/swp-report/iMX6_Platform_SDK/output/mx6sl/lib/libsdk.a(wm8962.o)
_Balloc                                           /home/leon/riotboard/arm-2012.09/bin/../arm-none-eabi/lib//libc.a(lib_a-mprec.o)
                                                  /home/leon/riotboard/arm-2012.09/bin/../arm-none-eabi/lib//libc.a(lib_a-dtoa.o)
_Bfree                                            /home/leon/riotboard/arm-2012.09/bin/../arm-none-eabi/lib//libc.a(lib_a-mprec.o)
                                                  /home/leon/riotboard/arm-2012.09/bin/../arm-none-eabi/lib//libc.a(lib_a-dtoa.o)
_ITM_deregisterTMCloneTable                       /home/leon/riotboard/arm-2012.09/bin/../lib/gcc/arm-none-eabi/4.7.2//crtbegin.o
_ITM_registerTMCloneTable                         /home/leon/riotboard/arm-2012.09/bin/../lib/gcc/arm-none-eabi/4.7.2//crtbegin.o
_Jv_RegisterClasses                               /home/leon/riotboard/arm-2012.09/bin/../lib/gcc/arm-none-eabi/4.7.2//crtbegin.o
_PathLocale                                       /home/leon/riotboard/arm-2012.09/bin/../arm-none-eabi/lib//libc.a(lib_a-locale.o)
_Unwind_Backtrace                                 /home/leon/riotboard/arm-2012.09/bin/../lib/gcc/arm-none-eabi/4.7.2//libgcc.a(libunwind.o)
_Unwind_Complete                                  /home/leon/riotboard/arm-2012.09/bin/../lib/gcc/arm-none-eabi/4.7.2//libgcc.a(unwind-arm.o)
                                                  /home/leon/riotboard/arm-2012.09/bin/../arm-none-eabi/lib//libstdc++.a(eh_catch.o)
_Unwind_DeleteException                           /home/leon/riotboard/arm-2012.09/bin/../lib/gcc/arm-none-eabi/4.7.2//libgcc.a(unwind-arm.o)
                                                  /home/leon/riotboard/arm-2012.09/bin/../arm-none-eabi/lib//libstdc++.a(eh_catch.o)
_Unwind_ForcedUnwind                              /home/leon/riotboard/arm-2012.09/bin/../lib/gcc/arm-none-eabi/4.7.2//libgcc.a(libunwind.o)
_Unwind_GetCFA                                    /home/leon/riotboard/arm-2012.09/bin/../lib/gcc/arm-none-eabi/4.7.2//libgcc.a(unwind-arm.o)
_Unwind_GetDataRelBase                            /home/leon/riotboard/arm-2012.09/bin/../lib/gcc/arm-none-eabi/4.7.2//libgcc.a(pr-support.o)
                                                  /home/leon/riotboard/arm-2012.09/bin/../arm-none-eabi/lib//libstdc++.a(eh_personality.o)
_Unwind_GetLanguageSpecificData                   /home/leon/riotboard/arm-2012.09/bin/../lib/gcc/arm-none-eabi/4.7.2//libgcc.a(pr-support.o)
                                                  /home/leon/riotboard/arm-2012.09/bin/../arm-none-eabi/lib//libstdc++.a(eh_personality.o)
_Unwind_GetRegionStart                            /home/leon/riotboard/arm-2012.09/bin/../lib/gcc/arm-none-eabi/4.7.2//libgcc.a(pr-support.o)
                                                  /home/leon/riotboard/arm-2012.09/bin/../arm-none-eabi/lib//libstdc++.a(eh_personality.o)
_Unwind_GetTextRelBase                            /home/leon/riotboard/arm-2012.09/bin/../lib/gcc/arm-none-eabi/4.7.2//libgcc.a(pr-support.o)
                                                  /home/leon/riotboard/arm-2012.09/bin/../arm-none-eabi/lib//libstdc++.a(eh_personality.o)
_Unwind_RaiseException                            /home/leon/riotboard/arm-2012.09/bin/../lib/gcc/arm-none-eabi/4.7.2//libgcc.a(libunwind.o)
                                                  /home/leon/riotboard/arm-2012.09/bin/../arm-none-eabi/lib//libstdc++.a(eh_throw.o)
_Unwind_Resume                                    /home/leon/riotboard/arm-2012.09/bin/../lib/gcc/arm-none-eabi/4.7.2//libgcc.a(libunwind.o)
                                                  /home/leon/riotboard/arm-2012.09/bin/../arm-none-eabi/lib//libstdc++.a(eh_arm.o)
_Unwind_Resume_or_Rethrow                         /home/leon/riotboard/arm-2012.09/bin/../lib/gcc/arm-none-eabi/4.7.2//libgcc.a(libunwind.o)
                                                  /home/leon/riotboard/arm-2012.09/bin/../arm-none-eabi/lib//libstdc++.a(eh_throw.o)
_Unwind_VRS_Get                                   /home/leon/riotboard/arm-2012.09/bin/../lib/gcc/arm-none-eabi/4.7.2//libgcc.a(unwind-arm.o)
                                                  /home/leon/riotboard/arm-2012.09/bin/../lib/gcc/arm-none-eabi/4.7.2//libgcc.a(pr-support.o)
                                                  /home/leon/riotboard/arm-2012.09/bin/../arm-none-eabi/lib//libstdc++.a(eh_personality.o)
_Unwind_VRS_Pop                                   /home/leon/riotboard/arm-2012.09/bin/../lib/gcc/arm-none-eabi/4.7.2//libgcc.a(unwind-arm.o)
                                                  /home/leon/riotboard/arm-2012.09/bin/../lib/gcc/arm-none-eabi/4.7.2//libgcc.a(pr-support.o)
_Unwind_VRS_Set                                   /home/leon/riotboard/arm-2012.09/bin/../lib/gcc/arm-none-eabi/4.7.2//libgcc.a(unwind-arm.o)
                                                  /home/leon/riotboard/arm-2012.09/bin/../lib/gcc/arm-none-eabi/4.7.2//libgcc.a(pr-support.o)
                                                  /home/leon/riotboard/arm-2012.09/bin/../arm-none-eabi/lib//libstdc++.a(eh_personality.o)
__TMC_END__                                       /home/leon/riotboard/arm-2012.09/bin/../lib/gcc/arm-none-eabi/4.7.2//crtend.o
                                                  /home/leon/riotboard/arm-2012.09/bin/../lib/gcc/arm-none-eabi/4.7.2//crtbegin.o
___Unwind_Backtrace                               /home/leon/riotboard/arm-2012.09/bin/../lib/gcc/arm-none-eabi/4.7.2//libgcc.a(libunwind.o)
___Unwind_ForcedUnwind                            /home/leon/riotboard/arm-2012.09/bin/../lib/gcc/arm-none-eabi/4.7.2//libgcc.a(libunwind.o)
___Unwind_RaiseException                          /home/leon/riotboard/arm-2012.09/bin/../lib/gcc/arm-none-eabi/4.7.2//libgcc.a(libunwind.o)
___Unwind_Resume                                  /home/leon/riotboard/arm-2012.09/bin/../lib/gcc/arm-none-eabi/4.7.2//libgcc.a(libunwind.o)
___Unwind_Resume_or_Rethrow                       /home/leon/riotboard/arm-2012.09/bin/../lib/gcc/arm-none-eabi/4.7.2//libgcc.a(libunwind.o)
__adddf3                                          /home/leon/riotboard/arm-2012.09/bin/../lib/gcc/arm-none-eabi/4.7.2//libgcc.a(_arm_addsubdf3.o)
__addsf3                                          /home/leon/riotboard/arm-2012.09/bin/../lib/gcc/arm-none-eabi/4.7.2//libgcc.a(_arm_addsubsf3.o)
__aeabi_cdcmpeq                                   /home/leon/riotboard/arm-2012.09/bin/../lib/gcc/arm-none-eabi/4.7.2//libgcc.a(_arm_cmpdf2.o)
__aeabi_cdcmple                                   /home/leon/riotboard/arm-2012.09/bin/../lib/gcc/arm-none-eabi/4.7.2//libgcc.a(_arm_cmpdf2.o)
__aeabi_cdrcmple                                  /home/leon/riotboard/arm-2012.09/bin/../lib/gcc/arm-none-eabi/4.7.2//libgcc.a(_arm_cmpdf2.o)
__aeabi_cfcmpeq                                   /home/leon/riotboard/arm-2012.09/bin/../lib/gcc/arm-none-eabi/4.7.2//libgcc.a(_arm_cmpsf2.o)
__aeabi_cfcmple                                   /home/leon/riotboard/arm-2012.09/bin/../lib/gcc/arm-none-eabi/4.7.2//libgcc.a(_arm_cmpsf2.o)
__aeabi_cfrcmple                                  /home/leon/riotboard/arm-2012.09/bin/../lib/gcc/arm-none-eabi/4.7.2//libgcc.a(_arm_cmpsf2.o)
__aeabi_d2iz                                      /home/leon/riotboard/arm-2012.09/bin/../lib/gcc/arm-none-eabi/4.7.2//libgcc.a(_arm_fixdfsi.o)
                                                  /home/leon/riotboard/arm-2012.09/bin/../arm-none-eabi/lib//libc.a(lib_a-dtoa.o)
__aeabi_dadd                                      /home/leon/riotboard/arm-2012.09/bin/../lib/gcc/arm-none-eabi/4.7.2//libgcc.a(_arm_addsubdf3.o)
                                                  /home/leon/riotboard/arm-2012.09/bin/../arm-none-eabi/lib//libc.a(lib_a-dtoa.o)
__aeabi_dcmpeq                                    /home/leon/riotboard/arm-2012.09/bin/../lib/gcc/arm-none-eabi/4.7.2//libgcc.a(_arm_cmpdf2.o)
                                                  /home/leon/riotboard/arm-2012.09/bin/../arm-none-eabi/lib//libc.a(lib_a-dtoa.o)
                                                  /home/leon/riotboard/arm-2012.09/bin/../arm-none-eabi/lib//libc.a(lib_a-vfprintf.o)
                                                  /home/leon/riotboard/arm-2012.09/bin/../arm-none-eabi/lib//libc.a(lib_a-svfprintf.o)
__aeabi_dcmpge                                    /home/leon/riotboard/arm-2012.09/bin/../lib/gcc/arm-none-eabi/4.7.2//libgcc.a(_arm_cmpdf2.o)
                                                  /home/leon/riotboard/arm-2012.09/bin/../arm-none-eabi/lib//libc.a(lib_a-dtoa.o)
__aeabi_dcmpgt                                    /home/leon/riotboard/arm-2012.09/bin/../lib/gcc/arm-none-eabi/4.7.2//libgcc.a(_arm_cmpdf2.o)
                                                  /home/leon/riotboard/arm-2012.09/bin/../arm-none-eabi/lib//libc.a(lib_a-dtoa.o)
__aeabi_dcmple                                    /home/leon/riotboard/arm-2012.09/bin/../lib/gcc/arm-none-eabi/4.7.2//libgcc.a(_arm_cmpdf2.o)
__aeabi_dcmplt                                    /home/leon/riotboard/arm-2012.09/bin/../lib/gcc/arm-none-eabi/4.7.2//libgcc.a(_arm_cmpdf2.o)
                                                  /home/leon/riotboard/arm-2012.09/bin/../arm-none-eabi/lib//libc.a(lib_a-dtoa.o)
                                                  /home/leon/riotboard/arm-2012.09/bin/../arm-none-eabi/lib//libc.a(lib_a-vfprintf.o)
                                                  /home/leon/riotboard/arm-2012.09/bin/../arm-none-eabi/lib//libc.a(lib_a-svfprintf.o)
__aeabi_ddiv                                      /home/leon/riotboard/arm-2012.09/bin/../lib/gcc/arm-none-eabi/4.7.2//libgcc.a(_arm_muldivdf3.o)
                                                  /home/leon/riotboard/arm-2012.09/bin/../arm-none-eabi/lib//libc.a(lib_a-mprec.o)
                                                  /home/leon/riotboard/arm-2012.09/bin/../arm-none-eabi/lib//libc.a(lib_a-dtoa.o)
__aeabi_dmul                                      /home/leon/riotboard/arm-2012.09/bin/../lib/gcc/arm-none-eabi/4.7.2//libgcc.a(_arm_muldivdf3.o)
                                                  /home/leon/riotboard/arm-2012.09/bin/../arm-none-eabi/lib//libc.a(lib_a-mprec.o)
                                                  /home/leon/riotboard/arm-2012.09/bin/../arm-none-eabi/lib//libc.a(lib_a-dtoa.o)
__aeabi_drsub                                     /home/leon/riotboard/arm-2012.09/bin/../lib/gcc/arm-none-eabi/4.7.2//libgcc.a(_arm_addsubdf3.o)
__aeabi_dsub                                      /home/leon/riotboard/arm-2012.09/bin/../lib/gcc/arm-none-eabi/4.7.2//libgcc.a(_arm_addsubdf3.o)
                                                  /home/leon/riotboard/arm-2012.09/bin/../arm-none-eabi/lib//libc.a(lib_a-dtoa.o)
__aeabi_f2d                                       /home/leon/riotboard/arm-2012.09/bin/../lib/gcc/arm-none-eabi/4.7.2//libgcc.a(_arm_addsubdf3.o)
__aeabi_f2iz                                      /home/leon/riotboard/arm-2012.09/bin/../lib/gcc/arm-none-eabi/4.7.2//libgcc.a(_arm_fixsfsi.o)
                                                  /home/leon/riotboard/arm-2012.09/bin/../arm-none-eabi/lib//libm.a(lib_a-kf_sin.o)
                                                  /home/leon/riotboard/arm-2012.09/bin/../arm-none-eabi/lib//libm.a(lib_a-kf_rem_pio2.o)
                                                  /home/leon/riotboard/arm-2012.09/bin/../arm-none-eabi/lib//libm.a(lib_a-kf_cos.o)
                                                  /home/leon/riotboard/arm-2012.09/bin/../arm-none-eabi/lib//libm.a(lib_a-ef_rem_pio2.o)
__aeabi_fadd                                      /home/leon/riotboard/arm-2012.09/bin/../lib/gcc/arm-none-eabi/4.7.2//libgcc.a(_arm_addsubsf3.o)
                                                  /home/leon/riotboard/arm-2012.09/bin/../arm-none-eabi/lib//libm.a(lib_a-sf_scalbn.o)
                                                  /home/leon/riotboard/arm-2012.09/bin/../arm-none-eabi/lib//libm.a(lib_a-sf_floor.o)
                                                  /home/leon/riotboard/arm-2012.09/bin/../arm-none-eabi/lib//libm.a(lib_a-kf_sin.o)
                                                  /home/leon/riotboard/arm-2012.09/bin/../arm-none-eabi/lib//libm.a(lib_a-kf_rem_pio2.o)
                                                  /home/leon/riotboard/arm-2012.09/bin/../arm-none-eabi/lib//libm.a(lib_a-kf_cos.o)
                                                  /home/leon/riotboard/arm-2012.09/bin/../arm-none-eabi/lib//libm.a(lib_a-ef_rem_pio2.o)
__aeabi_fcmpeq                                    /home/leon/riotboard/arm-2012.09/bin/../lib/gcc/arm-none-eabi/4.7.2//libgcc.a(_arm_cmpsf2.o)
                                                  /home/leon/riotboard/arm-2012.09/bin/../arm-none-eabi/lib//libm.a(lib_a-kf_rem_pio2.o)
                                                  /home/leon/riotboard/arm-2012.09/bin/../arm-none-eabi/lib//libm.a(lib_a-ef_rem_pio2.o)
__aeabi_fcmpge                                    /home/leon/riotboard/arm-2012.09/bin/../lib/gcc/arm-none-eabi/4.7.2//libgcc.a(_arm_cmpsf2.o)
                                                  /home/leon/riotboard/arm-2012.09/bin/../arm-none-eabi/lib//libm.a(lib_a-kf_rem_pio2.o)
__aeabi_fcmpgt                                    /home/leon/riotboard/arm-2012.09/bin/../lib/gcc/arm-none-eabi/4.7.2//libgcc.a(_arm_cmpsf2.o)
                                                  /home/leon/riotboard/arm-2012.09/bin/../arm-none-eabi/lib//libm.a(lib_a-sf_floor.o)
__aeabi_fcmple                                    /home/leon/riotboard/arm-2012.09/bin/../lib/gcc/arm-none-eabi/4.7.2//libgcc.a(_arm_cmpsf2.o)
__aeabi_fcmplt                                    /home/leon/riotboard/arm-2012.09/bin/../lib/gcc/arm-none-eabi/4.7.2//libgcc.a(_arm_cmpsf2.o)
__aeabi_fdiv                                      /home/leon/riotboard/arm-2012.09/bin/../lib/gcc/arm-none-eabi/4.7.2//libgcc.a(_arm_muldivsf3.o)
__aeabi_fmul                                      /home/leon/riotboard/arm-2012.09/bin/../lib/gcc/arm-none-eabi/4.7.2//libgcc.a(_arm_muldivsf3.o)
                                                  /home/leon/riotboard/arm-2012.09/bin/../arm-none-eabi/lib//libm.a(lib_a-sf_scalbn.o)
                                                  /home/leon/riotboard/arm-2012.09/bin/../arm-none-eabi/lib//libm.a(lib_a-kf_sin.o)
                                                  /home/leon/riotboard/arm-2012.09/bin/../arm-none-eabi/lib//libm.a(lib_a-kf_rem_pio2.o)
                                                  /home/leon/riotboard/arm-2012.09/bin/../arm-none-eabi/lib//libm.a(lib_a-kf_cos.o)
                                                  /home/leon/riotboard/arm-2012.09/bin/../arm-none-eabi/lib//libm.a(lib_a-ef_rem_pio2.o)
__aeabi_frsub                                     /home/leon/riotboard/arm-2012.09/bin/../lib/gcc/arm-none-eabi/4.7.2//libgcc.a(_arm_addsubsf3.o)
__aeabi_fsub                                      /home/leon/riotboard/arm-2012.09/bin/../lib/gcc/arm-none-eabi/4.7.2//libgcc.a(_arm_addsubsf3.o)
                                                  /home/leon/riotboard/arm-2012.09/bin/../arm-none-eabi/lib//libm.a(lib_a-kf_sin.o)
                                                  /home/leon/riotboard/arm-2012.09/bin/../arm-none-eabi/lib//libm.a(lib_a-kf_rem_pio2.o)
                                                  /home/leon/riotboard/arm-2012.09/bin/../arm-none-eabi/lib//libm.a(lib_a-kf_cos.o)
                                                  /home/leon/riotboard/arm-2012.09/bin/../arm-none-eabi/lib//libm.a(lib_a-ef_rem_pio2.o)
                                                  /home/leon/riotboard/arm-2012.09/bin/../arm-none-eabi/lib//libm.a(lib_a-sf_sin.o)
                                                  /home/leon/riotboard/arm-2012.09/bin/../arm-none-eabi/lib//libm.a(lib_a-sf_cos.o)
__aeabi_i2d                                       /home/leon/riotboard/arm-2012.09/bin/../lib/gcc/arm-none-eabi/4.7.2//libgcc.a(_arm_addsubdf3.o)
                                                  /home/leon/riotboard/arm-2012.09/bin/../arm-none-eabi/lib//libc.a(lib_a-dtoa.o)
__aeabi_i2f                                       /home/leon/riotboard/arm-2012.09/bin/../lib/gcc/arm-none-eabi/4.7.2//libgcc.a(_arm_addsubsf3.o)
                                                  /home/leon/riotboard/arm-2012.09/bin/../arm-none-eabi/lib//libm.a(lib_a-kf_rem_pio2.o)
                                                  /home/leon/riotboard/arm-2012.09/bin/../arm-none-eabi/lib//libm.a(lib_a-ef_rem_pio2.o)
__aeabi_idiv                                      /home/leon/riotboard/arm-2012.09/bin/../lib/gcc/arm-none-eabi/4.7.2//libgcc.a(_divsi3.o)
                                                  /home/leon/git/swp-report/iMX6_Platform_SDK/output/mx6sl/lib/libsdk.a(usdhc_host.o)
__aeabi_idiv0                                     /home/leon/riotboard/arm-2012.09/bin/../lib/gcc/arm-none-eabi/4.7.2//libgcc.a(_dvmd_tls.o)
                                                  /home/leon/riotboard/arm-2012.09/bin/../lib/gcc/arm-none-eabi/4.7.2//libgcc.a(_divsi3.o)
                                                  /home/leon/riotboard/arm-2012.09/bin/../lib/gcc/arm-none-eabi/4.7.2//libgcc.a(_udivsi3.o)
__aeabi_idivmod                                   /home/leon/riotboard/arm-2012.09/bin/../lib/gcc/arm-none-eabi/4.7.2//libgcc.a(_divsi3.o)
                                                  /home/leon/git/swp-report/iMX6_Platform_SDK/output/mx6sl/lib/libsdk.a(usdhc_host.o)
__aeabi_l2d                                       /home/leon/riotboard/arm-2012.09/bin/../lib/gcc/arm-none-eabi/4.7.2//libgcc.a(_arm_addsubdf3.o)
__aeabi_l2f                                       /home/leon/riotboard/arm-2012.09/bin/../lib/gcc/arm-none-eabi/4.7.2//libgcc.a(_arm_addsubsf3.o)
__aeabi_ldiv0                                     /home/leon/riotboard/arm-2012.09/bin/../lib/gcc/arm-none-eabi/4.7.2//libgcc.a(_dvmd_tls.o)
                                                  /home/leon/riotboard/arm-2012.09/bin/../lib/gcc/arm-none-eabi/4.7.2//libgcc.a(_aeabi_uldivmod.o)
__aeabi_ui2d                                      /home/leon/riotboard/arm-2012.09/bin/../lib/gcc/arm-none-eabi/4.7.2//libgcc.a(_arm_addsubdf3.o)
                                                  /home/leon/riotboard/arm-2012.09/bin/../arm-none-eabi/lib//libc.a(lib_a-dtoa.o)
__aeabi_ui2f                                      /home/leon/riotboard/arm-2012.09/bin/../lib/gcc/arm-none-eabi/4.7.2//libgcc.a(_arm_addsubsf3.o)
__aeabi_uidiv                                     /home/leon/riotboard/arm-2012.09/bin/../lib/gcc/arm-none-eabi/4.7.2//libgcc.a(_udivsi3.o)
                                                  /home/leon/riotboard/arm-2012.09/bin/../arm-none-eabi/lib//libc.a(lib_a-fwrite.o)
                                                  /home/leon/git/swp-report/iMX6_Platform_SDK/output/mx6sl/lib/libsdk.a(imx-ssi.o)
                                                  /home/leon/git/swp-report/iMX6_Platform_SDK/output/mx6sl/lib/libsdk.a(imx_i2c.o)
                                                  /home/leon/riotboard/arm-2012.09/bin/../lib/gcc/arm-none-eabi/4.7.2//libgcc.a(_udivdi3.o)
                                                  /home/leon/riotboard/arm-2012.09/bin/../lib/gcc/arm-none-eabi/4.7.2//libgcc.a(_divdi3.o)
                                                  /home/leon/riotboard/arm-2012.09/bin/../arm-none-eabi/lib//libc.a(lib_a-dtoa.o)
                                                  /home/leon/git/swp-report/iMX6_Platform_SDK/output/mx6sl/sdk_unit_test/evk_rev_a/libsdk_unit_test.a(gpt_test.o)
                                                  /home/leon/git/swp-report/iMX6_Platform_SDK/output/mx6sl/lib/libsdk.a(ccm_pll.o)
__aeabi_uidivmod                                  /home/leon/riotboard/arm-2012.09/bin/../lib/gcc/arm-none-eabi/4.7.2//libgcc.a(_udivsi3.o)
                                                  /home/leon/riotboard/arm-2012.09/bin/../lib/gcc/arm-none-eabi/4.7.2//libgcc.a(_udivdi3.o)
                                                  /home/leon/riotboard/arm-2012.09/bin/../lib/gcc/arm-none-eabi/4.7.2//libgcc.a(_divdi3.o)
__aeabi_ul2d                                      /home/leon/riotboard/arm-2012.09/bin/../lib/gcc/arm-none-eabi/4.7.2//libgcc.a(_arm_addsubdf3.o)
__aeabi_ul2f                                      /home/leon/riotboard/arm-2012.09/bin/../lib/gcc/arm-none-eabi/4.7.2//libgcc.a(_arm_addsubsf3.o)
__aeabi_uldivmod                                  /home/leon/riotboard/arm-2012.09/bin/../lib/gcc/arm-none-eabi/4.7.2//libgcc.a(_aeabi_uldivmod.o)
                                                  /home/leon/git/swp-report/iMX6_Platform_SDK/output/mx6sl/lib/libsdk.a(runtime_support.o)
                                                  /home/leon/riotboard/arm-2012.09/bin/../arm-none-eabi/lib//libc.a(lib_a-svfiprintf.o)
                                                  /home/leon/riotboard/arm-2012.09/bin/../arm-none-eabi/lib//libc.a(lib_a-vfprintf.o)
                                                  /home/leon/riotboard/arm-2012.09/bin/../arm-none-eabi/lib//libc.a(lib_a-vfiprintf.o)
                                                  /home/leon/riotboard/arm-2012.09/bin/../arm-none-eabi/lib//libc.a(lib_a-svfprintf.o)
                                                  /home/leon/git/swp-report/iMX6_Platform_SDK/output/mx6sl/lib/libsdk.a(timer.o)
__aeabi_unwind_cpp_pr0                            /home/leon/riotboard/arm-2012.09/bin/../lib/gcc/arm-none-eabi/4.7.2//libgcc.a(unwind-arm.o)
                                                  /home/leon/riotboard/arm-2012.09/bin/../lib/gcc/arm-none-eabi/4.7.2//libgcc.a(pr-support.o)
                                                  /home/leon/riotboard/arm-2012.09/bin/../arm-none-eabi/lib//libstdc++.a(class_type_info.o)
                                                  /home/leon/riotboard/arm-2012.09/bin/../arm-none-eabi/lib//libstdc++.a(eh_personality.o)
                                                  /home/leon/riotboard/arm-2012.09/bin/../arm-none-eabi/lib//libstdc++.a(si_class_type_info.o)
                                                  /home/leon/riotboard/arm-2012.09/bin/../arm-none-eabi/lib//libstdc++.a(eh_arm.o)
                                                  /home/leon/riotboard/arm-2012.09/bin/../arm-none-eabi/lib//libstdc++.a(eh_throw.o)
__aeabi_unwind_cpp_pr1                            /home/leon/riotboard/arm-2012.09/bin/../lib/gcc/arm-none-eabi/4.7.2//libgcc.a(unwind-arm.o)
                                                  /home/leon/riotboard/arm-2012.09/bin/../lib/gcc/arm-none-eabi/4.7.2//libgcc.a(pr-support.o)
                                                  /home/leon/riotboard/arm-2012.09/bin/../arm-none-eabi/lib//libstdc++.a(eh_catch.o)
                                                  /home/leon/riotboard/arm-2012.09/bin/../arm-none-eabi/lib//libstdc++.a(eh_personality.o)
                                                  /home/leon/riotboard/arm-2012.09/bin/../arm-none-eabi/lib//libstdc++.a(eh_terminate.o)
                                                  /home/leon/riotboard/arm-2012.09/bin/../arm-none-eabi/lib//libstdc++.a(pure.o)
__aeabi_unwind_cpp_pr2                            /home/leon/riotboard/arm-2012.09/bin/../lib/gcc/arm-none-eabi/4.7.2//libgcc.a(unwind-arm.o)
__any_on                                          /home/leon/riotboard/arm-2012.09/bin/../arm-none-eabi/lib//libc.a(lib_a-mprec.o)
__ascii_wctomb                                    /home/leon/riotboard/arm-2012.09/bin/../arm-none-eabi/lib//libc.a(lib_a-wctomb_r.o)
__assert                                          /home/leon/riotboard/arm-2012.09/bin/../arm-none-eabi/lib//libc.a(lib_a-assert.o)
__assert_func                                     /home/leon/riotboard/arm-2012.09/bin/../arm-none-eabi/lib//libc.a(lib_a-assert.o)
                                                  /home/leon/git/swp-report/iMX6_Platform_SDK/output/mx6sl/lib/libboard_evk_rev_a.a(usdhc_iomux_config.o)
                                                  /home/leon/git/swp-report/iMX6_Platform_SDK/output/mx6sl/lib/libboard_evk_rev_a.a(pwm_iomux_config.o)
                                                  /home/leon/git/swp-report/iMX6_Platform_SDK/output/mx6sl/lib/libboard_evk_rev_a.a(i2c_iomux_config.o)
                                                  /home/leon/git/swp-report/iMX6_Platform_SDK/output/mx6sl/lib/libboard_evk_rev_a.a(ecspi_iomux_config.o)
                                                  /home/leon/git/swp-report/iMX6_Platform_SDK/output/mx6sl/lib/libboard_evk_rev_a.a(uart_iomux_config.o)
                                                  /home/leon/git/swp-report/iMX6_Platform_SDK/output/mx6sl/lib/libsdk.a(gic.o)
__b2d                                             /home/leon/riotboard/arm-2012.09/bin/../arm-none-eabi/lib//libc.a(lib_a-mprec.o)
__bss_end__                                       /home/leon/git/swp-report/iMX6_Platform_SDK/output/mx6sl/lib/libsdk.a(startup.o)
__bss_start__                                     /home/leon/git/swp-report/iMX6_Platform_SDK/output/mx6sl/lib/libsdk.a(startup.o)
__clzsi2                                          /home/leon/riotboard/arm-2012.09/bin/../lib/gcc/arm-none-eabi/4.7.2//libgcc.a(_clzsi2.o)
                                                  /home/leon/riotboard/arm-2012.09/bin/../lib/gcc/arm-none-eabi/4.7.2//libgcc.a(_udivdi3.o)
                                                  /home/leon/riotboard/arm-2012.09/bin/../lib/gcc/arm-none-eabi/4.7.2//libgcc.a(_divdi3.o)
__cmpdf2                                          /home/leon/riotboard/arm-2012.09/bin/../lib/gcc/arm-none-eabi/4.7.2//libgcc.a(_arm_cmpdf2.o)
__cmpsf2                                          /home/leon/riotboard/arm-2012.09/bin/../lib/gcc/arm-none-eabi/4.7.2//libgcc.a(_arm_cmpsf2.o)
__copybits                                        /home/leon/riotboard/arm-2012.09/bin/../arm-none-eabi/lib//libc.a(lib_a-mprec.o)
__ctype_ptr__                                     /home/leon/riotboard/arm-2012.09/bin/../arm-none-eabi/lib//libc.a(lib_a-ctype_.o)
                                                  /home/leon/riotboard/arm-2012.09/bin/../arm-none-eabi/lib//libc.a(lib_a-strncasecmp.o)
__cxa_allocate_dependent_exception                /home/leon/riotboard/arm-2012.09/bin/../arm-none-eabi/lib//libstdc++.a(eh_alloc.o)
__cxa_allocate_exception                          /home/leon/riotboard/arm-2012.09/bin/../arm-none-eabi/lib//libstdc++.a(eh_alloc.o)
                                                  /home/leon/riotboard/arm-2012.09/bin/../arm-none-eabi/lib//libstdc++.a(eh_call.o)
__cxa_begin_catch                                 /home/leon/riotboard/arm-2012.09/bin/../arm-none-eabi/lib//libstdc++.a(eh_catch.o)
                                                  /home/leon/riotboard/arm-2012.09/bin/../arm-none-eabi/lib//libstdc++.a(vterminate.o)
                                                  /home/leon/riotboard/arm-2012.09/bin/../arm-none-eabi/lib//libstdc++.a(eh_personality.o)
                                                  /home/leon/riotboard/arm-2012.09/bin/../arm-none-eabi/lib//libstdc++.a(eh_throw.o)
                                                  /home/leon/riotboard/arm-2012.09/bin/../arm-none-eabi/lib//libstdc++.a(eh_call.o)
                                                  /home/leon/riotboard/arm-2012.09/bin/../arm-none-eabi/lib//libstdc++.a(eh_terminate.o)
__cxa_begin_cleanup                               /home/leon/riotboard/arm-2012.09/bin/../arm-none-eabi/lib//libstdc++.a(eh_arm.o)
                                                  /home/leon/riotboard/arm-2012.09/bin/../lib/gcc/arm-none-eabi/4.7.2//libgcc.a(unwind-arm.o)
                                                  /home/leon/riotboard/arm-2012.09/bin/../arm-none-eabi/lib//libstdc++.a(eh_personality.o)
__cxa_call_terminate                              /home/leon/riotboard/arm-2012.09/bin/../arm-none-eabi/lib//libstdc++.a(eh_call.o)
                                                  /home/leon/riotboard/arm-2012.09/bin/../arm-none-eabi/lib//libstdc++.a(eh_personality.o)
__cxa_call_unexpected                             /home/leon/riotboard/arm-2012.09/bin/../arm-none-eabi/lib//libstdc++.a(eh_call.o)
                                                  /home/leon/riotboard/arm-2012.09/bin/../lib/gcc/arm-none-eabi/4.7.2//libgcc.a(unwind-arm.o)
                                                  /home/leon/riotboard/arm-2012.09/bin/../arm-none-eabi/lib//libstdc++.a(eh_catch.o)
                                                  /home/leon/riotboard/arm-2012.09/bin/../arm-none-eabi/lib//libstdc++.a(eh_terminate.o)
__cxa_current_exception_type                      /home/leon/riotboard/arm-2012.09/bin/../arm-none-eabi/lib//libstdc++.a(eh_type.o)
                                                  /home/leon/riotboard/arm-2012.09/bin/../arm-none-eabi/lib//libstdc++.a(vterminate.o)
__cxa_deleted_virtual                             /home/leon/riotboard/arm-2012.09/bin/../arm-none-eabi/lib//libstdc++.a(pure.o)
__cxa_demangle                                    /home/leon/riotboard/arm-2012.09/bin/../arm-none-eabi/lib//libstdc++.a(cp-demangle.o)
                                                  /home/leon/riotboard/arm-2012.09/bin/../arm-none-eabi/lib//libstdc++.a(vterminate.o)
__cxa_end_catch                                   /home/leon/riotboard/arm-2012.09/bin/../arm-none-eabi/lib//libstdc++.a(eh_catch.o)
                                                  /home/leon/riotboard/arm-2012.09/bin/../arm-none-eabi/lib//libstdc++.a(vterminate.o)
                                                  /home/leon/riotboard/arm-2012.09/bin/../arm-none-eabi/lib//libstdc++.a(eh_call.o)
                                                  /home/leon/riotboard/arm-2012.09/bin/../arm-none-eabi/lib//libstdc++.a(eh_terminate.o)
__cxa_end_cleanup                                 /home/leon/riotboard/arm-2012.09/bin/../arm-none-eabi/lib//libstdc++.a(eh_arm.o)
                                                  /home/leon/riotboard/arm-2012.09/bin/../arm-none-eabi/lib//libstdc++.a(vterminate.o)
                                                  /home/leon/riotboard/arm-2012.09/bin/../arm-none-eabi/lib//libstdc++.a(eh_catch.o)
                                                  /home/leon/riotboard/arm-2012.09/bin/../arm-none-eabi/lib//libstdc++.a(eh_call.o)
                                                  /home/leon/riotboard/arm-2012.09/bin/../arm-none-eabi/lib//libstdc++.a(eh_terminate.o)
__cxa_free_dependent_exception                    /home/leon/riotboard/arm-2012.09/bin/../arm-none-eabi/lib//libstdc++.a(eh_alloc.o)
__cxa_free_exception                              /home/leon/riotboard/arm-2012.09/bin/../arm-none-eabi/lib//libstdc++.a(eh_alloc.o)
                                                  /home/leon/riotboard/arm-2012.09/bin/../arm-none-eabi/lib//libstdc++.a(eh_throw.o)
__cxa_get_exception_ptr                           /home/leon/riotboard/arm-2012.09/bin/../arm-none-eabi/lib//libstdc++.a(eh_catch.o)
__cxa_get_globals                                 /home/leon/riotboard/arm-2012.09/bin/../arm-none-eabi/lib//libstdc++.a(eh_globals.o)
                                                  /home/leon/riotboard/arm-2012.09/bin/../arm-none-eabi/lib//libstdc++.a(eh_type.o)
                                                  /home/leon/riotboard/arm-2012.09/bin/../arm-none-eabi/lib//libstdc++.a(eh_catch.o)
                                                  /home/leon/riotboard/arm-2012.09/bin/../arm-none-eabi/lib//libstdc++.a(eh_alloc.o)
                                                  /home/leon/riotboard/arm-2012.09/bin/../arm-none-eabi/lib//libstdc++.a(eh_arm.o)
                                                  /home/leon/riotboard/arm-2012.09/bin/../arm-none-eabi/lib//libstdc++.a(eh_throw.o)
__cxa_get_globals_fast                            /home/leon/riotboard/arm-2012.09/bin/../arm-none-eabi/lib//libstdc++.a(eh_globals.o)
                                                  /home/leon/riotboard/arm-2012.09/bin/../arm-none-eabi/lib//libstdc++.a(eh_catch.o)
                                                  /home/leon/riotboard/arm-2012.09/bin/../arm-none-eabi/lib//libstdc++.a(eh_call.o)
__cxa_pure_virtual                                /home/leon/riotboard/arm-2012.09/bin/../arm-none-eabi/lib//libstdc++.a(pure.o)
                                                  /home/leon/riotboard/arm-2012.09/bin/../arm-none-eabi/lib//libstdc++.a(eh_exception.o)
                                                  /home/leon/git/swp-report/iMX6_Platform_SDK/output/mx6sl/lib/libsdk.a(pmu_driver.o)
__cxa_rethrow                                     /home/leon/riotboard/arm-2012.09/bin/../arm-none-eabi/lib//libstdc++.a(eh_throw.o)
                                                  /home/leon/riotboard/arm-2012.09/bin/../arm-none-eabi/lib//libstdc++.a(vterminate.o)
                                                  /home/leon/riotboard/arm-2012.09/bin/../arm-none-eabi/lib//libstdc++.a(eh_call.o)
__cxa_throw                                       /home/leon/riotboard/arm-2012.09/bin/../arm-none-eabi/lib//libstdc++.a(eh_throw.o)
                                                  /home/leon/riotboard/arm-2012.09/bin/../arm-none-eabi/lib//libstdc++.a(eh_call.o)
__cxa_type_match                                  /home/leon/riotboard/arm-2012.09/bin/../arm-none-eabi/lib//libstdc++.a(eh_arm.o)
                                                  /home/leon/riotboard/arm-2012.09/bin/../lib/gcc/arm-none-eabi/4.7.2//libgcc.a(unwind-arm.o)
                                                  /home/leon/riotboard/arm-2012.09/bin/../arm-none-eabi/lib//libstdc++.a(eh_personality.o)
                                                  /home/leon/riotboard/arm-2012.09/bin/../arm-none-eabi/lib//libstdc++.a(eh_call.o)
__cxxabiv1::__class_type_info::__do_catch(std::type_info const*, void**, unsigned int) const /home/leon/riotboard/arm-2012.09/bin/../arm-none-eabi/lib//libstdc++.a(class_type_info.o)
                                                  /home/leon/riotboard/arm-2012.09/bin/../arm-none-eabi/lib//libstdc++.a(si_class_type_info.o)
__cxxabiv1::__class_type_info::__do_dyncast(int, __cxxabiv1::__class_type_info::__sub_kind, __cxxabiv1::__class_type_info const*, void const*, __cxxabiv1::__class_type_info const*, void const*, __cxxabiv1::__class_type_info::__dyncast_result&) const /home/leon/riotboard/arm-2012.09/bin/../arm-none-eabi/lib//libstdc++.a(class_type_info.o)
__cxxabiv1::__class_type_info::__do_find_public_src(int, void const*, __cxxabiv1::__class_type_info const*, void const*) const /home/leon/riotboard/arm-2012.09/bin/../arm-none-eabi/lib//libstdc++.a(class_type_info.o)
__cxxabiv1::__class_type_info::__do_upcast(__cxxabiv1::__class_type_info const*, void const*, __cxxabiv1::__class_type_info::__upcast_result&) const /home/leon/riotboard/arm-2012.09/bin/../arm-none-eabi/lib//libstdc++.a(class_type_info.o)
                                                  /home/leon/riotboard/arm-2012.09/bin/../arm-none-eabi/lib//libstdc++.a(si_class_type_info.o)
__cxxabiv1::__class_type_info::__do_upcast(__cxxabiv1::__class_type_info const*, void**) const /home/leon/riotboard/arm-2012.09/bin/../arm-none-eabi/lib//libstdc++.a(class_type_info.o)
                                                  /home/leon/riotboard/arm-2012.09/bin/../arm-none-eabi/lib//libstdc++.a(si_class_type_info.o)
__cxxabiv1::__class_type_info::~__class_type_info() /home/leon/riotboard/arm-2012.09/bin/../arm-none-eabi/lib//libstdc++.a(class_type_info.o)
__cxxabiv1::__class_type_info::~__class_type_info() /home/leon/riotboard/arm-2012.09/bin/../arm-none-eabi/lib//libstdc++.a(class_type_info.o)
                                                  /home/leon/riotboard/arm-2012.09/bin/../arm-none-eabi/lib//libstdc++.a(si_class_type_info.o)
__cxxabiv1::__class_type_info::~__class_type_info() /home/leon/riotboard/arm-2012.09/bin/../arm-none-eabi/lib//libstdc++.a(class_type_info.o)
__cxxabiv1::__forced_unwind::~__forced_unwind()   /home/leon/riotboard/arm-2012.09/bin/../arm-none-eabi/lib//libstdc++.a(eh_exception.o)
__cxxabiv1::__forced_unwind::~__forced_unwind()   /home/leon/riotboard/arm-2012.09/bin/../arm-none-eabi/lib//libstdc++.a(eh_exception.o)
__cxxabiv1::__forced_unwind::~__forced_unwind()   /home/leon/riotboard/arm-2012.09/bin/../arm-none-eabi/lib//libstdc++.a(eh_exception.o)
__cxxabiv1::__foreign_exception::~__foreign_exception() /home/leon/riotboard/arm-2012.09/bin/../arm-none-eabi/lib//libstdc++.a(eh_exception.o)
__cxxabiv1::__foreign_exception::~__foreign_exception() /home/leon/riotboard/arm-2012.09/bin/../arm-none-eabi/lib//libstdc++.a(eh_exception.o)
__cxxabiv1::__foreign_exception::~__foreign_exception() /home/leon/riotboard/arm-2012.09/bin/../arm-none-eabi/lib//libstdc++.a(eh_exception.o)
__cxxabiv1::__si_class_type_info::__do_dyncast(int, __cxxabiv1::__class_type_info::__sub_kind, __cxxabiv1::__class_type_info const*, void const*, __cxxabiv1::__class_type_info const*, void const*, __cxxabiv1::__class_type_info::__dyncast_result&) const /home/leon/riotboard/arm-2012.09/bin/../arm-none-eabi/lib//libstdc++.a(si_class_type_info.o)
__cxxabiv1::__si_class_type_info::__do_find_public_src(int, void const*, __cxxabiv1::__class_type_info const*, void const*) const /home/leon/riotboard/arm-2012.09/bin/../arm-none-eabi/lib//libstdc++.a(si_class_type_info.o)
__cxxabiv1::__si_class_type_info::__do_upcast(__cxxabiv1::__class_type_info const*, void const*, __cxxabiv1::__class_type_info::__upcast_result&) const /home/leon/riotboard/arm-2012.09/bin/../arm-none-eabi/lib//libstdc++.a(si_class_type_info.o)
__cxxabiv1::__si_class_type_info::~__si_class_type_info() /home/leon/riotboard/arm-2012.09/bin/../arm-none-eabi/lib//libstdc++.a(si_class_type_info.o)
__cxxabiv1::__si_class_type_info::~__si_class_type_info() /home/leon/riotboard/arm-2012.09/bin/../arm-none-eabi/lib//libstdc++.a(si_class_type_info.o)
__cxxabiv1::__si_class_type_info::~__si_class_type_info() /home/leon/riotboard/arm-2012.09/bin/../arm-none-eabi/lib//libstdc++.a(si_class_type_info.o)
__cxxabiv1::__terminate(void (*)())               /home/leon/riotboard/arm-2012.09/bin/../arm-none-eabi/lib//libstdc++.a(eh_terminate.o)
                                                  /home/leon/riotboard/arm-2012.09/bin/../arm-none-eabi/lib//libstdc++.a(eh_throw.o)
                                                  /home/leon/riotboard/arm-2012.09/bin/../arm-none-eabi/lib//libstdc++.a(eh_call.o)
__cxxabiv1::__terminate_handler                   /home/leon/riotboard/arm-2012.09/bin/../arm-none-eabi/lib//libstdc++.a(eh_term_handler.o)
                                                  /home/leon/riotboard/arm-2012.09/bin/../arm-none-eabi/lib//libstdc++.a(eh_throw.o)
                                                  /home/leon/riotboard/arm-2012.09/bin/../arm-none-eabi/lib//libstdc++.a(eh_terminate.o)
__cxxabiv1::__unexpected(void (*)())              /home/leon/riotboard/arm-2012.09/bin/../arm-none-eabi/lib//libstdc++.a(eh_terminate.o)
                                                  /home/leon/riotboard/arm-2012.09/bin/../arm-none-eabi/lib//libstdc++.a(eh_call.o)
__cxxabiv1::__unexpected_handler                  /home/leon/riotboard/arm-2012.09/bin/../arm-none-eabi/lib//libstdc++.a(eh_unex_handler.o)
                                                  /home/leon/riotboard/arm-2012.09/bin/../arm-none-eabi/lib//libstdc++.a(eh_throw.o)
                                                  /home/leon/riotboard/arm-2012.09/bin/../arm-none-eabi/lib//libstdc++.a(eh_terminate.o)
__d2b                                             /home/leon/riotboard/arm-2012.09/bin/../arm-none-eabi/lib//libc.a(lib_a-mprec.o)
                                                  /home/leon/riotboard/arm-2012.09/bin/../arm-none-eabi/lib//libc.a(lib_a-dtoa.o)
__deregister_frame_info                           /home/leon/riotboard/arm-2012.09/bin/../lib/gcc/arm-none-eabi/4.7.2//crtbegin.o
__divdf3                                          /home/leon/riotboard/arm-2012.09/bin/../lib/gcc/arm-none-eabi/4.7.2//libgcc.a(_arm_muldivdf3.o)
__divdi3                                          /home/leon/riotboard/arm-2012.09/bin/../lib/gcc/arm-none-eabi/4.7.2//libgcc.a(_divdi3.o)
                                                  /home/leon/riotboard/arm-2012.09/bin/../lib/gcc/arm-none-eabi/4.7.2//libgcc.a(bpabi.o)
__divsf3                                          /home/leon/riotboard/arm-2012.09/bin/../lib/gcc/arm-none-eabi/4.7.2//libgcc.a(_arm_muldivsf3.o)
__divsi3                                          /home/leon/riotboard/arm-2012.09/bin/../lib/gcc/arm-none-eabi/4.7.2//libgcc.a(_divsi3.o)
__dso_handle                                      /home/leon/riotboard/arm-2012.09/bin/../lib/gcc/arm-none-eabi/4.7.2//crtbegin.o
__env                                             /home/leon/git/swp-report/iMX6_Platform_SDK/output/mx6sl/lib/libsdk.a(runtime_support.o)
__eqdf2                                           /home/leon/riotboard/arm-2012.09/bin/../lib/gcc/arm-none-eabi/4.7.2//libgcc.a(_arm_cmpdf2.o)
__eqsf2                                           /home/leon/riotboard/arm-2012.09/bin/../lib/gcc/arm-none-eabi/4.7.2//libgcc.a(_arm_cmpsf2.o)
__exidx_end                                       /home/leon/riotboard/arm-2012.09/bin/../lib/gcc/arm-none-eabi/4.7.2//libgcc.a(unwind-arm.o)
__exidx_start                                     /home/leon/riotboard/arm-2012.09/bin/../lib/gcc/arm-none-eabi/4.7.2//libgcc.a(unwind-arm.o)
__extendsfdf2                                     /home/leon/riotboard/arm-2012.09/bin/../lib/gcc/arm-none-eabi/4.7.2//libgcc.a(_arm_addsubdf3.o)
__fixdfsi                                         /home/leon/riotboard/arm-2012.09/bin/../lib/gcc/arm-none-eabi/4.7.2//libgcc.a(_arm_fixdfsi.o)
__fixsfsi                                         /home/leon/riotboard/arm-2012.09/bin/../lib/gcc/arm-none-eabi/4.7.2//libgcc.a(_arm_fixsfsi.o)
__floatdidf                                       /home/leon/riotboard/arm-2012.09/bin/../lib/gcc/arm-none-eabi/4.7.2//libgcc.a(_arm_addsubdf3.o)
__floatdisf                                       /home/leon/riotboard/arm-2012.09/bin/../lib/gcc/arm-none-eabi/4.7.2//libgcc.a(_arm_addsubsf3.o)
__floatsidf                                       /home/leon/riotboard/arm-2012.09/bin/../lib/gcc/arm-none-eabi/4.7.2//libgcc.a(_arm_addsubdf3.o)
__floatsisf                                       /home/leon/riotboard/arm-2012.09/bin/../lib/gcc/arm-none-eabi/4.7.2//libgcc.a(_arm_addsubsf3.o)
__floatundidf                                     /home/leon/riotboard/arm-2012.09/bin/../lib/gcc/arm-none-eabi/4.7.2//libgcc.a(_arm_addsubdf3.o)
__floatundisf                                     /home/leon/riotboard/arm-2012.09/bin/../lib/gcc/arm-none-eabi/4.7.2//libgcc.a(_arm_addsubsf3.o)
__floatunsidf                                     /home/leon/riotboard/arm-2012.09/bin/../lib/gcc/arm-none-eabi/4.7.2//libgcc.a(_arm_addsubdf3.o)
__floatunsisf                                     /home/leon/riotboard/arm-2012.09/bin/../lib/gcc/arm-none-eabi/4.7.2//libgcc.a(_arm_addsubsf3.o)
__fp_lock_all                                     /home/leon/riotboard/arm-2012.09/bin/../arm-none-eabi/lib//libc.a(lib_a-findfp.o)
__fp_unlock_all                                   /home/leon/riotboard/arm-2012.09/bin/../arm-none-eabi/lib//libc.a(lib_a-findfp.o)
__fpclassifyd                                     /home/leon/riotboard/arm-2012.09/bin/../arm-none-eabi/lib//libc.a(lib_a-s_fpclassify.o)
                                                  /home/leon/riotboard/arm-2012.09/bin/../arm-none-eabi/lib//libc.a(lib_a-vfprintf.o)
                                                  /home/leon/riotboard/arm-2012.09/bin/../arm-none-eabi/lib//libc.a(lib_a-svfprintf.o)
__gcclibcxx_demangle_callback                     /home/leon/riotboard/arm-2012.09/bin/../arm-none-eabi/lib//libstdc++.a(cp-demangle.o)
__gedf2                                           /home/leon/riotboard/arm-2012.09/bin/../lib/gcc/arm-none-eabi/4.7.2//libgcc.a(_arm_cmpdf2.o)
__gesf2                                           /home/leon/riotboard/arm-2012.09/bin/../lib/gcc/arm-none-eabi/4.7.2//libgcc.a(_arm_cmpsf2.o)
__gnu_Unwind_Backtrace                            /home/leon/riotboard/arm-2012.09/bin/../lib/gcc/arm-none-eabi/4.7.2//libgcc.a(unwind-arm.o)
                                                  /home/leon/riotboard/arm-2012.09/bin/../lib/gcc/arm-none-eabi/4.7.2//libgcc.a(libunwind.o)
__gnu_Unwind_Find_exidx                           /home/leon/riotboard/arm-2012.09/bin/../lib/gcc/arm-none-eabi/4.7.2//libgcc.a(unwind-arm.o)
__gnu_Unwind_ForcedUnwind                         /home/leon/riotboard/arm-2012.09/bin/../lib/gcc/arm-none-eabi/4.7.2//libgcc.a(unwind-arm.o)
                                                  /home/leon/riotboard/arm-2012.09/bin/../lib/gcc/arm-none-eabi/4.7.2//libgcc.a(libunwind.o)
__gnu_Unwind_RaiseException                       /home/leon/riotboard/arm-2012.09/bin/../lib/gcc/arm-none-eabi/4.7.2//libgcc.a(unwind-arm.o)
                                                  /home/leon/riotboard/arm-2012.09/bin/../lib/gcc/arm-none-eabi/4.7.2//libgcc.a(libunwind.o)
__gnu_Unwind_Restore_VFP                          /home/leon/riotboard/arm-2012.09/bin/../lib/gcc/arm-none-eabi/4.7.2//libgcc.a(libunwind.o)
                                                  /home/leon/riotboard/arm-2012.09/bin/../lib/gcc/arm-none-eabi/4.7.2//libgcc.a(unwind-arm.o)
__gnu_Unwind_Restore_VFP_D                        /home/leon/riotboard/arm-2012.09/bin/../lib/gcc/arm-none-eabi/4.7.2//libgcc.a(libunwind.o)
                                                  /home/leon/riotboard/arm-2012.09/bin/../lib/gcc/arm-none-eabi/4.7.2//libgcc.a(unwind-arm.o)
__gnu_Unwind_Restore_VFP_D_16_to_31               /home/leon/riotboard/arm-2012.09/bin/../lib/gcc/arm-none-eabi/4.7.2//libgcc.a(libunwind.o)
                                                  /home/leon/riotboard/arm-2012.09/bin/../lib/gcc/arm-none-eabi/4.7.2//libgcc.a(unwind-arm.o)
__gnu_Unwind_Restore_WMMXC                        /home/leon/riotboard/arm-2012.09/bin/../lib/gcc/arm-none-eabi/4.7.2//libgcc.a(libunwind.o)
                                                  /home/leon/riotboard/arm-2012.09/bin/../lib/gcc/arm-none-eabi/4.7.2//libgcc.a(unwind-arm.o)
__gnu_Unwind_Restore_WMMXD                        /home/leon/riotboard/arm-2012.09/bin/../lib/gcc/arm-none-eabi/4.7.2//libgcc.a(libunwind.o)
                                                  /home/leon/riotboard/arm-2012.09/bin/../lib/gcc/arm-none-eabi/4.7.2//libgcc.a(unwind-arm.o)
__gnu_Unwind_Resume                               /home/leon/riotboard/arm-2012.09/bin/../lib/gcc/arm-none-eabi/4.7.2//libgcc.a(unwind-arm.o)
                                                  /home/leon/riotboard/arm-2012.09/bin/../lib/gcc/arm-none-eabi/4.7.2//libgcc.a(libunwind.o)
__gnu_Unwind_Resume_or_Rethrow                    /home/leon/riotboard/arm-2012.09/bin/../lib/gcc/arm-none-eabi/4.7.2//libgcc.a(unwind-arm.o)
                                                  /home/leon/riotboard/arm-2012.09/bin/../lib/gcc/arm-none-eabi/4.7.2//libgcc.a(libunwind.o)
__gnu_Unwind_Save_VFP                             /home/leon/riotboard/arm-2012.09/bin/../lib/gcc/arm-none-eabi/4.7.2//libgcc.a(libunwind.o)
                                                  /home/leon/riotboard/arm-2012.09/bin/../lib/gcc/arm-none-eabi/4.7.2//libgcc.a(unwind-arm.o)
__gnu_Unwind_Save_VFP_D                           /home/leon/riotboard/arm-2012.09/bin/../lib/gcc/arm-none-eabi/4.7.2//libgcc.a(libunwind.o)
                                                  /home/leon/riotboard/arm-2012.09/bin/../lib/gcc/arm-none-eabi/4.7.2//libgcc.a(unwind-arm.o)
__gnu_Unwind_Save_VFP_D_16_to_31                  /home/leon/riotboard/arm-2012.09/bin/../lib/gcc/arm-none-eabi/4.7.2//libgcc.a(libunwind.o)
                                                  /home/leon/riotboard/arm-2012.09/bin/../lib/gcc/arm-none-eabi/4.7.2//libgcc.a(unwind-arm.o)
__gnu_Unwind_Save_WMMXC                           /home/leon/riotboard/arm-2012.09/bin/../lib/gcc/arm-none-eabi/4.7.2//libgcc.a(libunwind.o)
                                                  /home/leon/riotboard/arm-2012.09/bin/../lib/gcc/arm-none-eabi/4.7.2//libgcc.a(unwind-arm.o)
__gnu_Unwind_Save_WMMXD                           /home/leon/riotboard/arm-2012.09/bin/../lib/gcc/arm-none-eabi/4.7.2//libgcc.a(libunwind.o)
                                                  /home/leon/riotboard/arm-2012.09/bin/../lib/gcc/arm-none-eabi/4.7.2//libgcc.a(unwind-arm.o)
__gnu_cxx::__verbose_terminate_handler()          /home/leon/riotboard/arm-2012.09/bin/../arm-none-eabi/lib//libstdc++.a(vterminate.o)
                                                  /home/leon/riotboard/arm-2012.09/bin/../arm-none-eabi/lib//libstdc++.a(eh_term_handler.o)
__gnu_end_cleanup                                 /home/leon/riotboard/arm-2012.09/bin/../arm-none-eabi/lib//libstdc++.a(eh_arm.o)
__gnu_ldivmod_helper                              /home/leon/riotboard/arm-2012.09/bin/../lib/gcc/arm-none-eabi/4.7.2//libgcc.a(bpabi.o)
__gnu_uldivmod_helper                             /home/leon/riotboard/arm-2012.09/bin/../lib/gcc/arm-none-eabi/4.7.2//libgcc.a(bpabi.o)
                                                  /home/leon/riotboard/arm-2012.09/bin/../lib/gcc/arm-none-eabi/4.7.2//libgcc.a(_aeabi_uldivmod.o)
__gnu_unwind_execute                              /home/leon/riotboard/arm-2012.09/bin/../lib/gcc/arm-none-eabi/4.7.2//libgcc.a(pr-support.o)
                                                  /home/leon/riotboard/arm-2012.09/bin/../lib/gcc/arm-none-eabi/4.7.2//libgcc.a(unwind-arm.o)
__gnu_unwind_frame                                /home/leon/riotboard/arm-2012.09/bin/../lib/gcc/arm-none-eabi/4.7.2//libgcc.a(pr-support.o)
                                                  /home/leon/riotboard/arm-2012.09/bin/../arm-none-eabi/lib//libstdc++.a(eh_personality.o)
__gtdf2                                           /home/leon/riotboard/arm-2012.09/bin/../lib/gcc/arm-none-eabi/4.7.2//libgcc.a(_arm_cmpdf2.o)
__gtsf2                                           /home/leon/riotboard/arm-2012.09/bin/../lib/gcc/arm-none-eabi/4.7.2//libgcc.a(_arm_cmpsf2.o)
__gxx_personality_v0                              /home/leon/riotboard/arm-2012.09/bin/../arm-none-eabi/lib//libstdc++.a(eh_personality.o)
                                                  /home/leon/riotboard/arm-2012.09/bin/../arm-none-eabi/lib//libstdc++.a(vterminate.o)
                                                  /home/leon/riotboard/arm-2012.09/bin/../arm-none-eabi/lib//libstdc++.a(eh_catch.o)
                                                  /home/leon/riotboard/arm-2012.09/bin/../arm-none-eabi/lib//libstdc++.a(eh_call.o)
                                                  /home/leon/riotboard/arm-2012.09/bin/../arm-none-eabi/lib//libstdc++.a(eh_terminate.o)
__hab_data                                        /home/leon/git/swp-report/iMX6_Platform_SDK/output/mx6sl/sdk_unit_test/evk_rev_a/obj/apps/common/ivt.o
__hi0bits                                         /home/leon/riotboard/arm-2012.09/bin/../arm-none-eabi/lib//libc.a(lib_a-mprec.o)
                                                  /home/leon/riotboard/arm-2012.09/bin/../arm-none-eabi/lib//libc.a(lib_a-dtoa.o)
__i2b                                             /home/leon/riotboard/arm-2012.09/bin/../arm-none-eabi/lib//libc.a(lib_a-mprec.o)
                                                  /home/leon/riotboard/arm-2012.09/bin/../arm-none-eabi/lib//libc.a(lib_a-dtoa.o)
__ieee754_rem_pio2f                               /home/leon/riotboard/arm-2012.09/bin/../arm-none-eabi/lib//libm.a(lib_a-ef_rem_pio2.o)
                                                  /home/leon/riotboard/arm-2012.09/bin/../arm-none-eabi/lib//libm.a(lib_a-sf_sin.o)
                                                  /home/leon/riotboard/arm-2012.09/bin/../arm-none-eabi/lib//libm.a(lib_a-sf_cos.o)
__init_array_end                                  /home/leon/riotboard/arm-2012.09/bin/../arm-none-eabi/lib//libc.a(lib_a-init.o)
__init_array_start                                /home/leon/riotboard/arm-2012.09/bin/../arm-none-eabi/lib//libc.a(lib_a-init.o)
__kernel_cosf                                     /home/leon/riotboard/arm-2012.09/bin/../arm-none-eabi/lib//libm.a(lib_a-kf_cos.o)
                                                  /home/leon/riotboard/arm-2012.09/bin/../arm-none-eabi/lib//libm.a(lib_a-sf_sin.o)
                                                  /home/leon/riotboard/arm-2012.09/bin/../arm-none-eabi/lib//libm.a(lib_a-sf_cos.o)
__kernel_rem_pio2f                                /home/leon/riotboard/arm-2012.09/bin/../arm-none-eabi/lib//libm.a(lib_a-kf_rem_pio2.o)
                                                  /home/leon/riotboard/arm-2012.09/bin/../arm-none-eabi/lib//libm.a(lib_a-ef_rem_pio2.o)
__kernel_sinf                                     /home/leon/riotboard/arm-2012.09/bin/../arm-none-eabi/lib//libm.a(lib_a-kf_sin.o)
                                                  /home/leon/riotboard/arm-2012.09/bin/../arm-none-eabi/lib//libm.a(lib_a-sf_sin.o)
                                                  /home/leon/riotboard/arm-2012.09/bin/../arm-none-eabi/lib//libm.a(lib_a-sf_cos.o)
__l1_page_table_start                             /home/leon/git/swp-report/iMX6_Platform_SDK/output/mx6sl/lib/libsdk.a(mmu.o)
__ledf2                                           /home/leon/riotboard/arm-2012.09/bin/../lib/gcc/arm-none-eabi/4.7.2//libgcc.a(_arm_cmpdf2.o)
__lesf2                                           /home/leon/riotboard/arm-2012.09/bin/../lib/gcc/arm-none-eabi/4.7.2//libgcc.a(_arm_cmpsf2.o)
__libc_init_array                                 /home/leon/riotboard/arm-2012.09/bin/../arm-none-eabi/lib//libc.a(lib_a-init.o)
                                                  /home/leon/git/swp-report/iMX6_Platform_SDK/output/mx6sl/lib/libsdk.a(startup.o)
__lo0bits                                         /home/leon/riotboard/arm-2012.09/bin/../arm-none-eabi/lib//libc.a(lib_a-mprec.o)
__locale_charset                                  /home/leon/riotboard/arm-2012.09/bin/../arm-none-eabi/lib//libc.a(lib_a-locale.o)
                                                  /home/leon/riotboard/arm-2012.09/bin/../arm-none-eabi/lib//libc.a(lib_a-wctomb_r.o)
                                                  /home/leon/riotboard/arm-2012.09/bin/../arm-none-eabi/lib//libc.a(lib_a-wcrtomb.o)
__locale_cjk_lang                                 /home/leon/riotboard/arm-2012.09/bin/../arm-none-eabi/lib//libc.a(lib_a-locale.o)
__locale_mb_cur_max                               /home/leon/riotboard/arm-2012.09/bin/../arm-none-eabi/lib//libc.a(lib_a-locale.o)
                                                  /home/leon/riotboard/arm-2012.09/bin/../arm-none-eabi/lib//libc.a(lib_a-fputwc.o)
__locale_msgcharset                               /home/leon/riotboard/arm-2012.09/bin/../arm-none-eabi/lib//libc.a(lib_a-locale.o)
__lshift                                          /home/leon/riotboard/arm-2012.09/bin/../arm-none-eabi/lib//libc.a(lib_a-mprec.o)
                                                  /home/leon/riotboard/arm-2012.09/bin/../arm-none-eabi/lib//libc.a(lib_a-dtoa.o)
__ltdf2                                           /home/leon/riotboard/arm-2012.09/bin/../lib/gcc/arm-none-eabi/4.7.2//libgcc.a(_arm_cmpdf2.o)
__ltsf2                                           /home/leon/riotboard/arm-2012.09/bin/../lib/gcc/arm-none-eabi/4.7.2//libgcc.a(_arm_cmpsf2.o)
__malloc_av_                                      /home/leon/riotboard/arm-2012.09/bin/../arm-none-eabi/lib//libc.a(lib_a-mallocr.o)
                                                  /home/leon/riotboard/arm-2012.09/bin/../arm-none-eabi/lib//libc.a(lib_a-freer.o)
                                                  /home/leon/riotboard/arm-2012.09/bin/../arm-none-eabi/lib//libc.a(lib_a-reallocr.o)
__malloc_current_mallinfo                         /home/leon/riotboard/arm-2012.09/bin/../arm-none-eabi/lib//libc.a(lib_a-mallocr.o)
                                                  /home/leon/riotboard/arm-2012.09/bin/../arm-none-eabi/lib//libc.a(lib_a-freer.o)
__malloc_lock                                     /home/leon/riotboard/arm-2012.09/bin/../arm-none-eabi/lib//libc.a(lib_a-mlock.o)
                                                  /home/leon/riotboard/arm-2012.09/bin/../arm-none-eabi/lib//libc.a(lib_a-freer.o)
                                                  /home/leon/riotboard/arm-2012.09/bin/../arm-none-eabi/lib//libc.a(lib_a-reallocr.o)
                                                  /home/leon/riotboard/arm-2012.09/bin/../arm-none-eabi/lib//libc.a(lib_a-mallocr.o)
__malloc_max_sbrked_mem                           /home/leon/riotboard/arm-2012.09/bin/../arm-none-eabi/lib//libc.a(lib_a-mallocr.o)
__malloc_max_total_mem                            /home/leon/riotboard/arm-2012.09/bin/../arm-none-eabi/lib//libc.a(lib_a-mallocr.o)
__malloc_sbrk_base                                /home/leon/riotboard/arm-2012.09/bin/../arm-none-eabi/lib//libc.a(lib_a-mallocr.o)
                                                  /home/leon/riotboard/arm-2012.09/bin/../arm-none-eabi/lib//libc.a(lib_a-freer.o)
__malloc_top_pad                                  /home/leon/riotboard/arm-2012.09/bin/../arm-none-eabi/lib//libc.a(lib_a-mallocr.o)
                                                  /home/leon/riotboard/arm-2012.09/bin/../arm-none-eabi/lib//libc.a(lib_a-freer.o)
__malloc_trim_threshold                           /home/leon/riotboard/arm-2012.09/bin/../arm-none-eabi/lib//libc.a(lib_a-mallocr.o)
                                                  /home/leon/riotboard/arm-2012.09/bin/../arm-none-eabi/lib//libc.a(lib_a-freer.o)
__malloc_unlock                                   /home/leon/riotboard/arm-2012.09/bin/../arm-none-eabi/lib//libc.a(lib_a-mlock.o)
                                                  /home/leon/riotboard/arm-2012.09/bin/../arm-none-eabi/lib//libc.a(lib_a-freer.o)
                                                  /home/leon/riotboard/arm-2012.09/bin/../arm-none-eabi/lib//libc.a(lib_a-reallocr.o)
                                                  /home/leon/riotboard/arm-2012.09/bin/../arm-none-eabi/lib//libc.a(lib_a-mallocr.o)
__mb_cur_max                                      /home/leon/riotboard/arm-2012.09/bin/../arm-none-eabi/lib//libc.a(lib_a-locale.o)
__mcmp                                            /home/leon/riotboard/arm-2012.09/bin/../arm-none-eabi/lib//libc.a(lib_a-mprec.o)
                                                  /home/leon/riotboard/arm-2012.09/bin/../arm-none-eabi/lib//libc.a(lib_a-dtoa.o)
__mdiff                                           /home/leon/riotboard/arm-2012.09/bin/../arm-none-eabi/lib//libc.a(lib_a-mprec.o)
                                                  /home/leon/riotboard/arm-2012.09/bin/../arm-none-eabi/lib//libc.a(lib_a-dtoa.o)
__mlocale_changed                                 /home/leon/riotboard/arm-2012.09/bin/../arm-none-eabi/lib//libc.a(lib_a-locale.o)
__mprec_bigtens                                   /home/leon/riotboard/arm-2012.09/bin/../arm-none-eabi/lib//libc.a(lib_a-mprec.o)
                                                  /home/leon/riotboard/arm-2012.09/bin/../arm-none-eabi/lib//libc.a(lib_a-dtoa.o)
__mprec_tens                                      /home/leon/riotboard/arm-2012.09/bin/../arm-none-eabi/lib//libc.a(lib_a-mprec.o)
                                                  /home/leon/riotboard/arm-2012.09/bin/../arm-none-eabi/lib//libc.a(lib_a-dtoa.o)
__mprec_tinytens                                  /home/leon/riotboard/arm-2012.09/bin/../arm-none-eabi/lib//libc.a(lib_a-mprec.o)
__muldf3                                          /home/leon/riotboard/arm-2012.09/bin/../lib/gcc/arm-none-eabi/4.7.2//libgcc.a(_arm_muldivdf3.o)
__mulsf3                                          /home/leon/riotboard/arm-2012.09/bin/../lib/gcc/arm-none-eabi/4.7.2//libgcc.a(_arm_muldivsf3.o)
__multadd                                         /home/leon/riotboard/arm-2012.09/bin/../arm-none-eabi/lib//libc.a(lib_a-mprec.o)
                                                  /home/leon/riotboard/arm-2012.09/bin/../arm-none-eabi/lib//libc.a(lib_a-dtoa.o)
__multiply                                        /home/leon/riotboard/arm-2012.09/bin/../arm-none-eabi/lib//libc.a(lib_a-mprec.o)
                                                  /home/leon/riotboard/arm-2012.09/bin/../arm-none-eabi/lib//libc.a(lib_a-dtoa.o)
__nedf2                                           /home/leon/riotboard/arm-2012.09/bin/../lib/gcc/arm-none-eabi/4.7.2//libgcc.a(_arm_cmpdf2.o)
__nesf2                                           /home/leon/riotboard/arm-2012.09/bin/../lib/gcc/arm-none-eabi/4.7.2//libgcc.a(_arm_cmpsf2.o)
__nlocale_changed                                 /home/leon/riotboard/arm-2012.09/bin/../arm-none-eabi/lib//libc.a(lib_a-locale.o)
__pow5mult                                        /home/leon/riotboard/arm-2012.09/bin/../arm-none-eabi/lib//libc.a(lib_a-mprec.o)
                                                  /home/leon/riotboard/arm-2012.09/bin/../arm-none-eabi/lib//libc.a(lib_a-dtoa.o)
__preinit_array_end                               /home/leon/riotboard/arm-2012.09/bin/../arm-none-eabi/lib//libc.a(lib_a-init.o)
__preinit_array_start                             /home/leon/riotboard/arm-2012.09/bin/../arm-none-eabi/lib//libc.a(lib_a-init.o)
__ram_vectors_end                                 /home/leon/git/swp-report/iMX6_Platform_SDK/output/mx6sl/lib/libsdk.a(startup.o)
__ram_vectors_start                               /home/leon/git/swp-report/iMX6_Platform_SDK/output/mx6sl/lib/libsdk.a(startup.o)
__ratio                                           /home/leon/riotboard/arm-2012.09/bin/../arm-none-eabi/lib//libc.a(lib_a-mprec.o)
__register_frame_info                             /home/leon/riotboard/arm-2012.09/bin/../lib/gcc/arm-none-eabi/4.7.2//crtbegin.o
__restore_core_regs                               /home/leon/riotboard/arm-2012.09/bin/../lib/gcc/arm-none-eabi/4.7.2//libgcc.a(libunwind.o)
__s2b                                             /home/leon/riotboard/arm-2012.09/bin/../arm-none-eabi/lib//libc.a(lib_a-mprec.o)
__sclose                                          /home/leon/riotboard/arm-2012.09/bin/../arm-none-eabi/lib//libc.a(lib_a-stdio.o)
                                                  /home/leon/riotboard/arm-2012.09/bin/../arm-none-eabi/lib//libc.a(lib_a-findfp.o)
__seofread                                        /home/leon/riotboard/arm-2012.09/bin/../arm-none-eabi/lib//libc.a(lib_a-stdio.o)
__sfmoreglue                                      /home/leon/riotboard/arm-2012.09/bin/../arm-none-eabi/lib//libc.a(lib_a-findfp.o)
__sfp                                             /home/leon/riotboard/arm-2012.09/bin/../arm-none-eabi/lib//libc.a(lib_a-findfp.o)
__sfp_lock_acquire                                /home/leon/riotboard/arm-2012.09/bin/../arm-none-eabi/lib//libc.a(lib_a-findfp.o)
                                                  /home/leon/riotboard/arm-2012.09/bin/../arm-none-eabi/lib//libc.a(lib_a-fclose.o)
                                                  /home/leon/riotboard/arm-2012.09/bin/../arm-none-eabi/lib//libc.a(lib_a-fwalk.o)
__sfp_lock_release                                /home/leon/riotboard/arm-2012.09/bin/../arm-none-eabi/lib//libc.a(lib_a-findfp.o)
                                                  /home/leon/riotboard/arm-2012.09/bin/../arm-none-eabi/lib//libc.a(lib_a-fclose.o)
                                                  /home/leon/riotboard/arm-2012.09/bin/../arm-none-eabi/lib//libc.a(lib_a-fwalk.o)
__sfvwrite_r                                      /home/leon/riotboard/arm-2012.09/bin/../arm-none-eabi/lib//libc.a(lib_a-fvwrite.o)
                                                  /home/leon/riotboard/arm-2012.09/bin/../arm-none-eabi/lib//libc.a(lib_a-fwrite.o)
                                                  /home/leon/riotboard/arm-2012.09/bin/../arm-none-eabi/lib//libc.a(lib_a-fputs.o)
                                                  /home/leon/riotboard/arm-2012.09/bin/../arm-none-eabi/lib//libc.a(lib_a-vfiprintf.o)
__sigtramp                                        /home/leon/riotboard/arm-2012.09/bin/../arm-none-eabi/lib//libc.a(lib_a-signal.o)
__sigtramp_r                                      /home/leon/riotboard/arm-2012.09/bin/../arm-none-eabi/lib//libc.a(lib_a-signal.o)
__sinit                                           /home/leon/riotboard/arm-2012.09/bin/../arm-none-eabi/lib//libc.a(lib_a-findfp.o)
                                                  /home/leon/riotboard/arm-2012.09/bin/../arm-none-eabi/lib//libc.a(lib_a-fwrite.o)
                                                  /home/leon/riotboard/arm-2012.09/bin/../arm-none-eabi/lib//libc.a(lib_a-fputs.o)
                                                  /home/leon/riotboard/arm-2012.09/bin/../arm-none-eabi/lib//libc.a(lib_a-fclose.o)
                                                  /home/leon/riotboard/arm-2012.09/bin/../arm-none-eabi/lib//libc.a(lib_a-refill.o)
                                                  /home/leon/riotboard/arm-2012.09/bin/../arm-none-eabi/lib//libc.a(lib_a-fputwc.o)
                                                  /home/leon/riotboard/arm-2012.09/bin/../arm-none-eabi/lib//libc.a(lib_a-fflush.o)
                                                  /home/leon/riotboard/arm-2012.09/bin/../arm-none-eabi/lib//libc.a(lib_a-wsetup.o)
                                                  /home/leon/riotboard/arm-2012.09/bin/../arm-none-eabi/lib//libc.a(lib_a-wbuf.o)
                                                  /home/leon/riotboard/arm-2012.09/bin/../arm-none-eabi/lib//libc.a(lib_a-vfprintf.o)
                                                  /home/leon/riotboard/arm-2012.09/bin/../arm-none-eabi/lib//libc.a(lib_a-vfiprintf.o)
                                                  /home/leon/riotboard/arm-2012.09/bin/../arm-none-eabi/lib//libc.a(lib_a-rget.o)
                                                  /home/leon/riotboard/arm-2012.09/bin/../arm-none-eabi/lib//libc.a(lib_a-putc.o)
                                                  /home/leon/riotboard/arm-2012.09/bin/../arm-none-eabi/lib//libc.a(lib_a-fputc.o)
__sinit_lock_acquire                              /home/leon/riotboard/arm-2012.09/bin/../arm-none-eabi/lib//libc.a(lib_a-findfp.o)
__sinit_lock_release                              /home/leon/riotboard/arm-2012.09/bin/../arm-none-eabi/lib//libc.a(lib_a-findfp.o)
__smakebuf_r                                      /home/leon/riotboard/arm-2012.09/bin/../arm-none-eabi/lib//libc.a(lib_a-makebuf.o)
                                                  /home/leon/riotboard/arm-2012.09/bin/../arm-none-eabi/lib//libc.a(lib_a-refill.o)
                                                  /home/leon/riotboard/arm-2012.09/bin/../arm-none-eabi/lib//libc.a(lib_a-wsetup.o)
__sprint_r                                        /home/leon/riotboard/arm-2012.09/bin/../arm-none-eabi/lib//libc.a(lib_a-vfiprintf.o)
                                                  /home/leon/riotboard/arm-2012.09/bin/../arm-none-eabi/lib//libc.a(lib_a-vfprintf.o)
__sread                                           /home/leon/riotboard/arm-2012.09/bin/../arm-none-eabi/lib//libc.a(lib_a-stdio.o)
                                                  /home/leon/riotboard/arm-2012.09/bin/../arm-none-eabi/lib//libc.a(lib_a-findfp.o)
__srefill_r                                       /home/leon/riotboard/arm-2012.09/bin/../arm-none-eabi/lib//libc.a(lib_a-refill.o)
                                                  /home/leon/riotboard/arm-2012.09/bin/../arm-none-eabi/lib//libc.a(lib_a-rget.o)
__srget                                           /home/leon/riotboard/arm-2012.09/bin/../arm-none-eabi/lib//libc.a(lib_a-rget.o)
__srget_r                                         /home/leon/riotboard/arm-2012.09/bin/../arm-none-eabi/lib//libc.a(lib_a-rget.o)
                                                  /home/leon/git/swp-report/iMX6_Platform_SDK/output/mx6sl/lib/libsdk.a(usb_common.o)
                                                  /home/leon/git/swp-report/iMX6_Platform_SDK/output/mx6sl/lib/libsdk.a(lcdif_drv.o)
                                                  /home/leon/git/swp-report/iMX6_Platform_SDK/output/mx6sl/sdk_unit_test/evk_rev_a/libsdk_unit_test.a(lcdif_display.o)
                                                  /home/leon/git/swp-report/iMX6_Platform_SDK/output/mx6sl/sdk_unit_test/evk_rev_a/libsdk_unit_test.a(usb0_device_mouse_test.o)
                                                  /home/leon/git/swp-report/iMX6_Platform_SDK/output/mx6sl/sdk_unit_test/evk_rev_a/libsdk_unit_test.a(spdc_test.o)
                                                  /home/leon/git/swp-report/iMX6_Platform_SDK/output/mx6sl/sdk_unit_test/evk_rev_a/libsdk_unit_test.a(csi_sensor_capture.o)
                                                  /home/leon/git/swp-report/iMX6_Platform_SDK/output/mx6sl/sdk_unit_test/evk_rev_a/libsdk_unit_test.a(camera_test.o)
                                                  /home/leon/git/swp-report/iMX6_Platform_SDK/output/mx6sl/sdk_unit_test/evk_rev_a/libsdk_unit_test.a(lcdif_test.o)
                                                  /home/leon/git/swp-report/iMX6_Platform_SDK/output/mx6sl/sdk_unit_test/evk_rev_a/libsdk_unit_test.a(epdc_test.o)
                                                  /home/leon/git/swp-report/iMX6_Platform_SDK/output/mx6sl/sdk_unit_test/evk_rev_a/libsdk_unit_test.a(spi_test.o)
                                                  /home/leon/git/swp-report/iMX6_Platform_SDK/output/mx6sl/sdk_unit_test/evk_rev_a/libsdk_unit_test.a(watchdog_test.o)
                                                  /home/leon/git/swp-report/iMX6_Platform_SDK/output/mx6sl/sdk_unit_test/evk_rev_a/libsdk_unit_test.a(pwm_test.o)
                                                  /home/leon/git/swp-report/iMX6_Platform_SDK/output/mx6sl/sdk_unit_test/evk_rev_a/libsdk_unit_test.a(usdhc_test.o)
                                                  /home/leon/git/swp-report/iMX6_Platform_SDK/output/mx6sl/sdk_unit_test/evk_rev_a/libsdk_unit_test.a(uart_test.o)
                                                  /home/leon/git/swp-report/iMX6_Platform_SDK/output/mx6sl/sdk_unit_test/evk_rev_a/libsdk_unit_test.a(gpt_test.o)
                                                  /home/leon/git/swp-report/iMX6_Platform_SDK/output/mx6sl/sdk_unit_test/evk_rev_a/libsdk_unit_test.a(epit_test.o)
                                                  /home/leon/git/swp-report/iMX6_Platform_SDK/output/mx6sl/sdk_unit_test/evk_rev_a/libsdk_unit_test.a(sdma_test.o)
                                                  /home/leon/git/swp-report/iMX6_Platform_SDK/output/mx6sl/sdk_unit_test/evk_rev_a/libsdk_unit_test.a(tempmon_test.o)
                                                  /home/leon/git/swp-report/iMX6_Platform_SDK/output/mx6sl/sdk_unit_test/evk_rev_a/libsdk_unit_test.a(snvs_srtc_test.o)
                                                  /home/leon/git/swp-report/iMX6_Platform_SDK/output/mx6sl/sdk_unit_test/evk_rev_a/libsdk_unit_test.a(snvs_rtc_test.o)
                                                  /home/leon/git/swp-report/iMX6_Platform_SDK/output/mx6sl/sdk_unit_test/evk_rev_a/libsdk_unit_test.a(imx6_i2c_device.o)
                                                  /home/leon/git/swp-report/iMX6_Platform_SDK/output/mx6sl/sdk_unit_test/evk_rev_a/libsdk_unit_test.a(i2c_test.o)
                                                  /home/leon/git/swp-report/iMX6_Platform_SDK/output/mx6sl/sdk_unit_test/evk_rev_a/libsdk_unit_test.a(ocotp_test.o)
                                                  /home/leon/git/swp-report/iMX6_Platform_SDK/output/mx6sl/sdk_unit_test/evk_rev_a/libsdk_unit_test.a(ssi_playback.o)
                                                  /home/leon/git/swp-report/iMX6_Platform_SDK/output/mx6sl/sdk_unit_test/evk_rev_a/libsdk_unit_test.a(audio_test.o)
                                                  /home/leon/git/swp-report/iMX6_Platform_SDK/output/mx6sl/lib/libsdk.a(system_util.o)
                                                  /home/leon/git/swp-report/iMX6_Platform_SDK/output/mx6sl/lib/libsdk.a(menu.o)
__sseek                                           /home/leon/riotboard/arm-2012.09/bin/../arm-none-eabi/lib//libc.a(lib_a-stdio.o)
                                                  /home/leon/riotboard/arm-2012.09/bin/../arm-none-eabi/lib//libc.a(lib_a-makebuf.o)
                                                  /home/leon/riotboard/arm-2012.09/bin/../arm-none-eabi/lib//libc.a(lib_a-findfp.o)
__ssprint_r                                       /home/leon/riotboard/arm-2012.09/bin/../arm-none-eabi/lib//libc.a(lib_a-svfiprintf.o)
                                                  /home/leon/riotboard/arm-2012.09/bin/../arm-none-eabi/lib//libc.a(lib_a-svfprintf.o)
__stacks_start                                    /home/leon/git/swp-report/iMX6_Platform_SDK/output/mx6sl/lib/libsdk.a(startup.o)
__start_boot_data                                 /home/leon/git/swp-report/iMX6_Platform_SDK/output/mx6sl/sdk_unit_test/evk_rev_a/obj/apps/common/ivt.o
__subdf3                                          /home/leon/riotboard/arm-2012.09/bin/../lib/gcc/arm-none-eabi/4.7.2//libgcc.a(_arm_addsubdf3.o)
__subsf3                                          /home/leon/riotboard/arm-2012.09/bin/../lib/gcc/arm-none-eabi/4.7.2//libgcc.a(_arm_addsubsf3.o)
__swbuf                                           /home/leon/riotboard/arm-2012.09/bin/../arm-none-eabi/lib//libc.a(lib_a-wbuf.o)
__swbuf_r                                         /home/leon/riotboard/arm-2012.09/bin/../arm-none-eabi/lib//libc.a(lib_a-wbuf.o)
                                                  /home/leon/riotboard/arm-2012.09/bin/../arm-none-eabi/lib//libc.a(lib_a-fputwc.o)
                                                  /home/leon/riotboard/arm-2012.09/bin/../arm-none-eabi/lib//libc.a(lib_a-putc.o)
__swrite                                          /home/leon/riotboard/arm-2012.09/bin/../arm-none-eabi/lib//libc.a(lib_a-stdio.o)
                                                  /home/leon/riotboard/arm-2012.09/bin/../arm-none-eabi/lib//libc.a(lib_a-findfp.o)
__swsetup_r                                       /home/leon/riotboard/arm-2012.09/bin/../arm-none-eabi/lib//libc.a(lib_a-wsetup.o)
                                                  /home/leon/riotboard/arm-2012.09/bin/../arm-none-eabi/lib//libc.a(lib_a-fvwrite.o)
                                                  /home/leon/riotboard/arm-2012.09/bin/../arm-none-eabi/lib//libc.a(lib_a-wbuf.o)
                                                  /home/leon/riotboard/arm-2012.09/bin/../arm-none-eabi/lib//libc.a(lib_a-vfprintf.o)
                                                  /home/leon/riotboard/arm-2012.09/bin/../arm-none-eabi/lib//libc.a(lib_a-vfiprintf.o)
__udivdi3                                         /home/leon/riotboard/arm-2012.09/bin/../lib/gcc/arm-none-eabi/4.7.2//libgcc.a(_udivdi3.o)
                                                  /home/leon/riotboard/arm-2012.09/bin/../lib/gcc/arm-none-eabi/4.7.2//libgcc.a(bpabi.o)
__udivsi3                                         /home/leon/riotboard/arm-2012.09/bin/../lib/gcc/arm-none-eabi/4.7.2//libgcc.a(_udivsi3.o)
__ulp                                             /home/leon/riotboard/arm-2012.09/bin/../arm-none-eabi/lib//libc.a(lib_a-mprec.o)
__wctomb                                          /home/leon/riotboard/arm-2012.09/bin/../arm-none-eabi/lib//libc.a(lib_a-wctomb_r.o)
                                                  /home/leon/riotboard/arm-2012.09/bin/../arm-none-eabi/lib//libc.a(lib_a-wcrtomb.o)
_calloc_r                                         /home/leon/riotboard/arm-2012.09/bin/../arm-none-eabi/lib//libc.a(lib_a-callocr.o)
                                                  /home/leon/riotboard/arm-2012.09/bin/../arm-none-eabi/lib//libc.a(lib_a-mprec.o)
_cleanup                                          /home/leon/riotboard/arm-2012.09/bin/../arm-none-eabi/lib//libc.a(lib_a-findfp.o)
_cleanup_r                                        /home/leon/riotboard/arm-2012.09/bin/../arm-none-eabi/lib//libc.a(lib_a-findfp.o)
                                                  /home/leon/riotboard/arm-2012.09/bin/../arm-none-eabi/lib//libc.a(lib_a-makebuf.o)
_close                                            /home/leon/git/swp-report/iMX6_Platform_SDK/output/mx6sl/lib/libsdk.a(runtime_support.o)
                                                  /home/leon/riotboard/arm-2012.09/bin/../arm-none-eabi/lib//libc.a(lib_a-closer.o)
_close_r                                          /home/leon/riotboard/arm-2012.09/bin/../arm-none-eabi/lib//libc.a(lib_a-closer.o)
                                                  /home/leon/riotboard/arm-2012.09/bin/../arm-none-eabi/lib//libc.a(lib_a-stdio.o)
_ctype_                                           /home/leon/riotboard/arm-2012.09/bin/../arm-none-eabi/lib//libc.a(lib_a-ctype_.o)
_dtoa_r                                           /home/leon/riotboard/arm-2012.09/bin/../arm-none-eabi/lib//libc.a(lib_a-dtoa.o)
                                                  /home/leon/riotboard/arm-2012.09/bin/../arm-none-eabi/lib//libc.a(lib_a-vfprintf.o)
                                                  /home/leon/riotboard/arm-2012.09/bin/../arm-none-eabi/lib//libc.a(lib_a-svfprintf.o)
_execve                                           /home/leon/git/swp-report/iMX6_Platform_SDK/output/mx6sl/lib/libsdk.a(runtime_support.o)
_exit                                             /home/leon/git/swp-report/iMX6_Platform_SDK/output/mx6sl/lib/libsdk.a(runtime_support.o)
                                                  /home/leon/riotboard/arm-2012.09/bin/../arm-none-eabi/lib//libc.a(lib_a-abort.o)
_fclose_r                                         /home/leon/riotboard/arm-2012.09/bin/../arm-none-eabi/lib//libc.a(lib_a-fclose.o)
_fflush_r                                         /home/leon/riotboard/arm-2012.09/bin/../arm-none-eabi/lib//libc.a(lib_a-fflush.o)
                                                  /home/leon/riotboard/arm-2012.09/bin/../arm-none-eabi/lib//libc.a(lib_a-fclose.o)
                                                  /home/leon/riotboard/arm-2012.09/bin/../arm-none-eabi/lib//libc.a(lib_a-refill.o)
                                                  /home/leon/riotboard/arm-2012.09/bin/../arm-none-eabi/lib//libc.a(lib_a-fvwrite.o)
                                                  /home/leon/riotboard/arm-2012.09/bin/../arm-none-eabi/lib//libc.a(lib_a-wbuf.o)
                                                  /home/leon/riotboard/arm-2012.09/bin/../arm-none-eabi/lib//libc.a(lib_a-vfprintf.o)
                                                  /home/leon/riotboard/arm-2012.09/bin/../arm-none-eabi/lib//libc.a(lib_a-vfiprintf.o)
_fini                                             /home/leon/riotboard/arm-2012.09/bin/../lib/gcc/arm-none-eabi/4.7.2//crti.o
_fiprintf_r                                       /home/leon/riotboard/arm-2012.09/bin/../arm-none-eabi/lib//libc.a(lib_a-fiprintf.o)
_fork                                             /home/leon/git/swp-report/iMX6_Platform_SDK/output/mx6sl/lib/libsdk.a(runtime_support.o)
_fputc_r                                          /home/leon/riotboard/arm-2012.09/bin/../arm-none-eabi/lib//libc.a(lib_a-fputc.o)
_fputs_r                                          /home/leon/riotboard/arm-2012.09/bin/../arm-none-eabi/lib//libc.a(lib_a-fputs.o)
_fputwc_r                                         /home/leon/riotboard/arm-2012.09/bin/../arm-none-eabi/lib//libc.a(lib_a-fputwc.o)
                                                  /home/leon/riotboard/arm-2012.09/bin/../arm-none-eabi/lib//libc.a(lib_a-vfiprintf.o)
_free_r                                           /home/leon/riotboard/arm-2012.09/bin/../arm-none-eabi/lib//libc.a(lib_a-freer.o)
                                                  /home/leon/riotboard/arm-2012.09/bin/../arm-none-eabi/lib//libc.a(lib_a-fclose.o)
                                                  /home/leon/riotboard/arm-2012.09/bin/../arm-none-eabi/lib//libc.a(lib_a-svfiprintf.o)
                                                  /home/leon/riotboard/arm-2012.09/bin/../arm-none-eabi/lib//libc.a(lib_a-refill.o)
                                                  /home/leon/riotboard/arm-2012.09/bin/../arm-none-eabi/lib//libc.a(lib_a-reent.o)
                                                  /home/leon/riotboard/arm-2012.09/bin/../arm-none-eabi/lib//libc.a(lib_a-fvwrite.o)
                                                  /home/leon/riotboard/arm-2012.09/bin/../arm-none-eabi/lib//libc.a(lib_a-fflush.o)
                                                  /home/leon/riotboard/arm-2012.09/bin/../arm-none-eabi/lib//libc.a(lib_a-wsetup.o)
                                                  /home/leon/riotboard/arm-2012.09/bin/../arm-none-eabi/lib//libc.a(lib_a-reallocr.o)
                                                  /home/leon/riotboard/arm-2012.09/bin/../arm-none-eabi/lib//libc.a(lib_a-mallocr.o)
                                                  /home/leon/riotboard/arm-2012.09/bin/../arm-none-eabi/lib//libc.a(lib_a-malloc.o)
_fstat                                            /home/leon/git/swp-report/iMX6_Platform_SDK/output/mx6sl/lib/libsdk.a(runtime_support.o)
                                                  /home/leon/riotboard/arm-2012.09/bin/../arm-none-eabi/lib//libc.a(lib_a-fstatr.o)
_fstat_r                                          /home/leon/riotboard/arm-2012.09/bin/../arm-none-eabi/lib//libc.a(lib_a-fstatr.o)
                                                  /home/leon/riotboard/arm-2012.09/bin/../arm-none-eabi/lib//libc.a(lib_a-makebuf.o)
_fwalk                                            /home/leon/riotboard/arm-2012.09/bin/../arm-none-eabi/lib//libc.a(lib_a-fwalk.o)
                                                  /home/leon/riotboard/arm-2012.09/bin/../arm-none-eabi/lib//libc.a(lib_a-refill.o)
                                                  /home/leon/riotboard/arm-2012.09/bin/../arm-none-eabi/lib//libc.a(lib_a-findfp.o)
_fwalk_reent                                      /home/leon/riotboard/arm-2012.09/bin/../arm-none-eabi/lib//libc.a(lib_a-fwalk.o)
                                                  /home/leon/riotboard/arm-2012.09/bin/../arm-none-eabi/lib//libc.a(lib_a-fflush.o)
_fwrite_r                                         /home/leon/riotboard/arm-2012.09/bin/../arm-none-eabi/lib//libc.a(lib_a-fwrite.o)
_getpid                                           /home/leon/git/swp-report/iMX6_Platform_SDK/output/mx6sl/lib/libsdk.a(runtime_support.o)
                                                  /home/leon/riotboard/arm-2012.09/bin/../arm-none-eabi/lib//libc.a(lib_a-signalr.o)
_getpid_r                                         /home/leon/riotboard/arm-2012.09/bin/../arm-none-eabi/lib//libc.a(lib_a-signalr.o)
                                                  /home/leon/riotboard/arm-2012.09/bin/../arm-none-eabi/lib//libc.a(lib_a-signal.o)
_gettimeofday                                     /home/leon/git/swp-report/iMX6_Platform_SDK/output/mx6sl/lib/libsdk.a(runtime_support.o)
_global_impure_ptr                                /home/leon/riotboard/arm-2012.09/bin/../arm-none-eabi/lib//libc.a(lib_a-impure.o)
                                                  /home/leon/riotboard/arm-2012.09/bin/../arm-none-eabi/lib//libc.a(lib_a-refill.o)
                                                  /home/leon/riotboard/arm-2012.09/bin/../arm-none-eabi/lib//libc.a(lib_a-findfp.o)
                                                  /home/leon/riotboard/arm-2012.09/bin/../arm-none-eabi/lib//libc.a(lib_a-fflush.o)
_image_size                                       /home/leon/git/swp-report/iMX6_Platform_SDK/output/mx6sl/sdk_unit_test/evk_rev_a/obj/apps/common/ivt.o
_impure_ptr                                       /home/leon/riotboard/arm-2012.09/bin/../arm-none-eabi/lib//libc.a(lib_a-impure.o)
                                                  /home/leon/riotboard/arm-2012.09/bin/../arm-none-eabi/lib//libc.a(lib_a-syswrite.o)
                                                  /home/leon/riotboard/arm-2012.09/bin/../arm-none-eabi/lib//libc.a(lib_a-fwrite.o)
                                                  /home/leon/riotboard/arm-2012.09/bin/../arm-none-eabi/lib//libc.a(lib_a-fputs.o)
                                                  /home/leon/riotboard/arm-2012.09/bin/../arm-none-eabi/lib//libstdc++.a(vterminate.o)
                                                  /home/leon/git/swp-report/iMX6_Platform_SDK/output/mx6sl/lib/libsdk.a(usb_common.o)
                                                  /home/leon/git/swp-report/iMX6_Platform_SDK/output/mx6sl/lib/libsdk.a(lcdif_drv.o)
                                                  /home/leon/riotboard/arm-2012.09/bin/../arm-none-eabi/lib//libc.a(lib_a-fclose.o)
                                                  /home/leon/riotboard/arm-2012.09/bin/../arm-none-eabi/lib//libc.a(lib_a-wcrtomb.o)
                                                  /home/leon/riotboard/arm-2012.09/bin/../arm-none-eabi/lib//libc.a(lib_a-signal.o)
                                                  /home/leon/riotboard/arm-2012.09/bin/../arm-none-eabi/lib//libc.a(lib_a-reent.o)
                                                  /home/leon/riotboard/arm-2012.09/bin/../arm-none-eabi/lib//libc.a(lib_a-locale.o)
                                                  /home/leon/riotboard/arm-2012.09/bin/../arm-none-eabi/lib//libc.a(lib_a-fputwc.o)
                                                  /home/leon/riotboard/arm-2012.09/bin/../arm-none-eabi/lib//libc.a(lib_a-findfp.o)
                                                  /home/leon/riotboard/arm-2012.09/bin/../arm-none-eabi/lib//libc.a(lib_a-fflush.o)
                                                  /home/leon/riotboard/arm-2012.09/bin/../arm-none-eabi/lib//libc.a(lib_a-wsetup.o)
                                                  /home/leon/riotboard/arm-2012.09/bin/../arm-none-eabi/lib//libc.a(lib_a-wbuf.o)
                                                  /home/leon/riotboard/arm-2012.09/bin/../arm-none-eabi/lib//libc.a(lib_a-vprintf.o)
                                                  /home/leon/riotboard/arm-2012.09/bin/../arm-none-eabi/lib//libc.a(lib_a-vfprintf.o)
                                                  /home/leon/riotboard/arm-2012.09/bin/../arm-none-eabi/lib//libc.a(lib_a-vfiprintf.o)
                                                  /home/leon/riotboard/arm-2012.09/bin/../arm-none-eabi/lib//libc.a(lib_a-sprintf.o)
                                                  /home/leon/riotboard/arm-2012.09/bin/../arm-none-eabi/lib//libc.a(lib_a-rget.o)
                                                  /home/leon/riotboard/arm-2012.09/bin/../arm-none-eabi/lib//libc.a(lib_a-realloc.o)
                                                  /home/leon/riotboard/arm-2012.09/bin/../arm-none-eabi/lib//libc.a(lib_a-putc.o)
                                                  /home/leon/riotboard/arm-2012.09/bin/../arm-none-eabi/lib//libc.a(lib_a-printf.o)
                                                  /home/leon/riotboard/arm-2012.09/bin/../arm-none-eabi/lib//libc.a(lib_a-malloc.o)
                                                  /home/leon/riotboard/arm-2012.09/bin/../arm-none-eabi/lib//libc.a(lib_a-fputc.o)
                                                  /home/leon/riotboard/arm-2012.09/bin/../arm-none-eabi/lib//libc.a(lib_a-fiprintf.o)
                                                  /home/leon/riotboard/arm-2012.09/bin/../arm-none-eabi/lib//libc.a(lib_a-assert.o)
                                                  /home/leon/git/swp-report/iMX6_Platform_SDK/output/mx6sl/sdk_unit_test/evk_rev_a/libsdk_unit_test.a(lcdif_display.o)
                                                  /home/leon/git/swp-report/iMX6_Platform_SDK/output/mx6sl/sdk_unit_test/evk_rev_a/libsdk_unit_test.a(usb0_device_mouse_test.o)
                                                  /home/leon/git/swp-report/iMX6_Platform_SDK/output/mx6sl/sdk_unit_test/evk_rev_a/libsdk_unit_test.a(spdc_test.o)
                                                  /home/leon/git/swp-report/iMX6_Platform_SDK/output/mx6sl/sdk_unit_test/evk_rev_a/libsdk_unit_test.a(csi_sensor_capture.o)
                                                  /home/leon/git/swp-report/iMX6_Platform_SDK/output/mx6sl/sdk_unit_test/evk_rev_a/libsdk_unit_test.a(camera_test.o)
                                                  /home/leon/git/swp-report/iMX6_Platform_SDK/output/mx6sl/sdk_unit_test/evk_rev_a/libsdk_unit_test.a(lcdif_test.o)
                                                  /home/leon/git/swp-report/iMX6_Platform_SDK/output/mx6sl/sdk_unit_test/evk_rev_a/libsdk_unit_test.a(epdc_test.o)
                                                  /home/leon/git/swp-report/iMX6_Platform_SDK/output/mx6sl/sdk_unit_test/evk_rev_a/libsdk_unit_test.a(spi_test.o)
                                                  /home/leon/git/swp-report/iMX6_Platform_SDK/output/mx6sl/sdk_unit_test/evk_rev_a/libsdk_unit_test.a(watchdog_test.o)
                                                  /home/leon/git/swp-report/iMX6_Platform_SDK/output/mx6sl/sdk_unit_test/evk_rev_a/libsdk_unit_test.a(pwm_test.o)
                                                  /home/leon/git/swp-report/iMX6_Platform_SDK/output/mx6sl/sdk_unit_test/evk_rev_a/libsdk_unit_test.a(usdhc_test.o)
                                                  /home/leon/git/swp-report/iMX6_Platform_SDK/output/mx6sl/sdk_unit_test/evk_rev_a/libsdk_unit_test.a(uart_test.o)
                                                  /home/leon/git/swp-report/iMX6_Platform_SDK/output/mx6sl/sdk_unit_test/evk_rev_a/libsdk_unit_test.a(gpt_test.o)
                                                  /home/leon/git/swp-report/iMX6_Platform_SDK/output/mx6sl/sdk_unit_test/evk_rev_a/libsdk_unit_test.a(epit_test.o)
                                                  /home/leon/git/swp-report/iMX6_Platform_SDK/output/mx6sl/sdk_unit_test/evk_rev_a/libsdk_unit_test.a(sdma_test.o)
                                                  /home/leon/git/swp-report/iMX6_Platform_SDK/output/mx6sl/sdk_unit_test/evk_rev_a/libsdk_unit_test.a(tempmon_test.o)
                                                  /home/leon/git/swp-report/iMX6_Platform_SDK/output/mx6sl/sdk_unit_test/evk_rev_a/libsdk_unit_test.a(snvs_srtc_test.o)
                                                  /home/leon/git/swp-report/iMX6_Platform_SDK/output/mx6sl/sdk_unit_test/evk_rev_a/libsdk_unit_test.a(snvs_rtc_test.o)
                                                  /home/leon/git/swp-report/iMX6_Platform_SDK/output/mx6sl/sdk_unit_test/evk_rev_a/libsdk_unit_test.a(imx6_i2c_device.o)
                                                  /home/leon/git/swp-report/iMX6_Platform_SDK/output/mx6sl/sdk_unit_test/evk_rev_a/libsdk_unit_test.a(i2c_test.o)
                                                  /home/leon/git/swp-report/iMX6_Platform_SDK/output/mx6sl/sdk_unit_test/evk_rev_a/libsdk_unit_test.a(ocotp_test.o)
                                                  /home/leon/git/swp-report/iMX6_Platform_SDK/output/mx6sl/sdk_unit_test/evk_rev_a/libsdk_unit_test.a(ssi_playback.o)
                                                  /home/leon/git/swp-report/iMX6_Platform_SDK/output/mx6sl/sdk_unit_test/evk_rev_a/libsdk_unit_test.a(audio_test.o)
                                                  /home/leon/git/swp-report/iMX6_Platform_SDK/output/mx6sl/lib/libsdk.a(system_util.o)
                                                  /home/leon/git/swp-report/iMX6_Platform_SDK/output/mx6sl/lib/libsdk.a(menu.o)
_init                                             /home/leon/riotboard/arm-2012.09/bin/../lib/gcc/arm-none-eabi/4.7.2//crti.o
                                                  /home/leon/riotboard/arm-2012.09/bin/../arm-none-eabi/lib//libc.a(lib_a-init.o)
_init_signal                                      /home/leon/riotboard/arm-2012.09/bin/../arm-none-eabi/lib//libc.a(lib_a-signal.o)
_init_signal_r                                    /home/leon/riotboard/arm-2012.09/bin/../arm-none-eabi/lib//libc.a(lib_a-signal.o)
_isatty                                           /home/leon/git/swp-report/iMX6_Platform_SDK/output/mx6sl/lib/libsdk.a(runtime_support.o)
                                                  /home/leon/riotboard/arm-2012.09/bin/../arm-none-eabi/lib//libc.a(lib_a-isattyr.o)
_isatty_r                                         /home/leon/riotboard/arm-2012.09/bin/../arm-none-eabi/lib//libc.a(lib_a-isattyr.o)
                                                  /home/leon/riotboard/arm-2012.09/bin/../arm-none-eabi/lib//libc.a(lib_a-makebuf.o)
_kill                                             /home/leon/git/swp-report/iMX6_Platform_SDK/output/mx6sl/lib/libsdk.a(runtime_support.o)
                                                  /home/leon/riotboard/arm-2012.09/bin/../arm-none-eabi/lib//libc.a(lib_a-signalr.o)
_kill_r                                           /home/leon/riotboard/arm-2012.09/bin/../arm-none-eabi/lib//libc.a(lib_a-signalr.o)
                                                  /home/leon/riotboard/arm-2012.09/bin/../arm-none-eabi/lib//libc.a(lib_a-signal.o)
_link                                             /home/leon/git/swp-report/iMX6_Platform_SDK/output/mx6sl/lib/libsdk.a(runtime_support.o)
_localeconv_r                                     /home/leon/riotboard/arm-2012.09/bin/../arm-none-eabi/lib//libc.a(lib_a-locale.o)
                                                  /home/leon/riotboard/arm-2012.09/bin/../arm-none-eabi/lib//libc.a(lib_a-vfprintf.o)
                                                  /home/leon/riotboard/arm-2012.09/bin/../arm-none-eabi/lib//libc.a(lib_a-svfprintf.o)
_lseek                                            /home/leon/git/swp-report/iMX6_Platform_SDK/output/mx6sl/lib/libsdk.a(runtime_support.o)
                                                  /home/leon/riotboard/arm-2012.09/bin/../arm-none-eabi/lib//libc.a(lib_a-lseekr.o)
_lseek_r                                          /home/leon/riotboard/arm-2012.09/bin/../arm-none-eabi/lib//libc.a(lib_a-lseekr.o)
                                                  /home/leon/riotboard/arm-2012.09/bin/../arm-none-eabi/lib//libc.a(lib_a-stdio.o)
_malloc_r                                         /home/leon/riotboard/arm-2012.09/bin/../arm-none-eabi/lib//libc.a(lib_a-mallocr.o)
                                                  /home/leon/riotboard/arm-2012.09/bin/../arm-none-eabi/lib//libc.a(lib_a-callocr.o)
                                                  /home/leon/riotboard/arm-2012.09/bin/../arm-none-eabi/lib//libc.a(lib_a-svfiprintf.o)
                                                  /home/leon/riotboard/arm-2012.09/bin/../arm-none-eabi/lib//libc.a(lib_a-signal.o)
                                                  /home/leon/riotboard/arm-2012.09/bin/../arm-none-eabi/lib//libc.a(lib_a-makebuf.o)
                                                  /home/leon/riotboard/arm-2012.09/bin/../arm-none-eabi/lib//libc.a(lib_a-fvwrite.o)
                                                  /home/leon/riotboard/arm-2012.09/bin/../arm-none-eabi/lib//libc.a(lib_a-findfp.o)
                                                  /home/leon/riotboard/arm-2012.09/bin/../arm-none-eabi/lib//libc.a(lib_a-svfprintf.o)
                                                  /home/leon/riotboard/arm-2012.09/bin/../arm-none-eabi/lib//libc.a(lib_a-reallocr.o)
                                                  /home/leon/riotboard/arm-2012.09/bin/../arm-none-eabi/lib//libc.a(lib_a-malloc.o)
_malloc_trim_r                                    /home/leon/riotboard/arm-2012.09/bin/../arm-none-eabi/lib//libc.a(lib_a-freer.o)
_mprec_log10                                      /home/leon/riotboard/arm-2012.09/bin/../arm-none-eabi/lib//libc.a(lib_a-mprec.o)
_open                                             /home/leon/git/swp-report/iMX6_Platform_SDK/output/mx6sl/lib/libsdk.a(runtime_support.o)
_printf_r                                         /home/leon/riotboard/arm-2012.09/bin/../arm-none-eabi/lib//libc.a(lib_a-printf.o)
_putc_r                                           /home/leon/riotboard/arm-2012.09/bin/../arm-none-eabi/lib//libc.a(lib_a-putc.o)
                                                  /home/leon/riotboard/arm-2012.09/bin/../arm-none-eabi/lib//libc.a(lib_a-fputc.o)
_raise_r                                          /home/leon/riotboard/arm-2012.09/bin/../arm-none-eabi/lib//libc.a(lib_a-signal.o)
_raw_puts                                         /home/leon/git/swp-report/iMX6_Platform_SDK/output/mx6sl/lib/libsdk.a(runtime_support.o)
_read                                             /home/leon/git/swp-report/iMX6_Platform_SDK/output/mx6sl/lib/libsdk.a(runtime_support.o)
                                                  /home/leon/riotboard/arm-2012.09/bin/../arm-none-eabi/lib//libc.a(lib_a-readr.o)
_read_r                                           /home/leon/riotboard/arm-2012.09/bin/../arm-none-eabi/lib//libc.a(lib_a-readr.o)
                                                  /home/leon/riotboard/arm-2012.09/bin/../arm-none-eabi/lib//libc.a(lib_a-stdio.o)
_realloc_r                                        /home/leon/riotboard/arm-2012.09/bin/../arm-none-eabi/lib//libc.a(lib_a-reallocr.o)
                                                  /home/leon/riotboard/arm-2012.09/bin/../arm-none-eabi/lib//libc.a(lib_a-svfiprintf.o)
                                                  /home/leon/riotboard/arm-2012.09/bin/../arm-none-eabi/lib//libc.a(lib_a-fvwrite.o)
                                                  /home/leon/riotboard/arm-2012.09/bin/../arm-none-eabi/lib//libc.a(lib_a-realloc.o)
_reclaim_reent                                    /home/leon/riotboard/arm-2012.09/bin/../arm-none-eabi/lib//libc.a(lib_a-reent.o)
_sbrk                                             /home/leon/git/swp-report/iMX6_Platform_SDK/output/mx6sl/lib/libsdk.a(runtime_support.o)
                                                  /home/leon/riotboard/arm-2012.09/bin/../arm-none-eabi/lib//libc.a(lib_a-sbrkr.o)
_sbrk_r                                           /home/leon/riotboard/arm-2012.09/bin/../arm-none-eabi/lib//libc.a(lib_a-sbrkr.o)
                                                  /home/leon/riotboard/arm-2012.09/bin/../arm-none-eabi/lib//libc.a(lib_a-freer.o)
                                                  /home/leon/riotboard/arm-2012.09/bin/../arm-none-eabi/lib//libc.a(lib_a-mallocr.o)
_setlocale_r                                      /home/leon/riotboard/arm-2012.09/bin/../arm-none-eabi/lib//libc.a(lib_a-locale.o)
_signal_r                                         /home/leon/riotboard/arm-2012.09/bin/../arm-none-eabi/lib//libc.a(lib_a-signal.o)
_sprintf_r                                        /home/leon/riotboard/arm-2012.09/bin/../arm-none-eabi/lib//libc.a(lib_a-sprintf.o)
_start                                            /home/leon/git/swp-report/iMX6_Platform_SDK/output/mx6sl/lib/libsdk.a(startup.o)
                                                  /home/leon/git/swp-report/iMX6_Platform_SDK/output/mx6sl/lib/libsdk.a(vectors.o)
                                                  /home/leon/git/swp-report/iMX6_Platform_SDK/output/mx6sl/sdk_unit_test/evk_rev_a/obj/apps/common/ivt.o
_start_image_add                                  /home/leon/git/swp-report/iMX6_Platform_SDK/output/mx6sl/sdk_unit_test/evk_rev_a/obj/apps/common/ivt.o
_stat                                             /home/leon/git/swp-report/iMX6_Platform_SDK/output/mx6sl/lib/libsdk.a(runtime_support.o)
_svfiprintf_r                                     /home/leon/riotboard/arm-2012.09/bin/../arm-none-eabi/lib//libc.a(lib_a-svfiprintf.o)
_svfprintf_r                                      /home/leon/riotboard/arm-2012.09/bin/../arm-none-eabi/lib//libc.a(lib_a-svfprintf.o)
                                                  /home/leon/riotboard/arm-2012.09/bin/../arm-none-eabi/lib//libc.a(lib_a-sprintf.o)
_sys_exit                                         /home/leon/git/swp-report/iMX6_Platform_SDK/output/mx6sl/lib/libsdk.a(system_util.o)
                                                  /home/leon/git/swp-report/iMX6_Platform_SDK/output/mx6sl/lib/libsdk.a(runtime_support.o)
                                                  /home/leon/git/swp-report/iMX6_Platform_SDK/output/mx6sl/lib/libsdk.a(startup.o)
_times                                            /home/leon/git/swp-report/iMX6_Platform_SDK/output/mx6sl/lib/libsdk.a(runtime_support.o)
_unlink                                           /home/leon/git/swp-report/iMX6_Platform_SDK/output/mx6sl/lib/libsdk.a(runtime_support.o)
_vfiprintf_r                                      /home/leon/riotboard/arm-2012.09/bin/../arm-none-eabi/lib//libc.a(lib_a-vfiprintf.o)
                                                  /home/leon/riotboard/arm-2012.09/bin/../arm-none-eabi/lib//libc.a(lib_a-fiprintf.o)
_vfprintf_r                                       /home/leon/riotboard/arm-2012.09/bin/../arm-none-eabi/lib//libc.a(lib_a-vfprintf.o)
                                                  /home/leon/riotboard/arm-2012.09/bin/../arm-none-eabi/lib//libc.a(lib_a-vprintf.o)
                                                  /home/leon/riotboard/arm-2012.09/bin/../arm-none-eabi/lib//libc.a(lib_a-printf.o)
_vprintf_r                                        /home/leon/riotboard/arm-2012.09/bin/../arm-none-eabi/lib//libc.a(lib_a-vprintf.o)
_wait                                             /home/leon/git/swp-report/iMX6_Platform_SDK/output/mx6sl/lib/libsdk.a(runtime_support.o)
_wcrtomb_r                                        /home/leon/riotboard/arm-2012.09/bin/../arm-none-eabi/lib//libc.a(lib_a-wcrtomb.o)
                                                  /home/leon/riotboard/arm-2012.09/bin/../arm-none-eabi/lib//libc.a(lib_a-fputwc.o)
_wctomb_r                                         /home/leon/riotboard/arm-2012.09/bin/../arm-none-eabi/lib//libc.a(lib_a-wctomb_r.o)
_wrapup_reent                                     /home/leon/riotboard/arm-2012.09/bin/../arm-none-eabi/lib//libc.a(lib_a-reent.o)
_write                                            /home/leon/git/swp-report/iMX6_Platform_SDK/output/mx6sl/lib/libsdk.a(runtime_support.o)
                                                  /home/leon/riotboard/arm-2012.09/bin/../arm-none-eabi/lib//libc.a(lib_a-writer.o)
_write_r                                          /home/leon/riotboard/arm-2012.09/bin/../arm-none-eabi/lib//libc.a(lib_a-writer.o)
                                                  /home/leon/riotboard/arm-2012.09/bin/../arm-none-eabi/lib//libc.a(lib_a-syswrite.o)
                                                  /home/leon/riotboard/arm-2012.09/bin/../arm-none-eabi/lib//libc.a(lib_a-stdio.o)
abort                                             /home/leon/riotboard/arm-2012.09/bin/../arm-none-eabi/lib//libc.a(lib_a-abort.o)
                                                  /home/leon/riotboard/arm-2012.09/bin/../lib/gcc/arm-none-eabi/4.7.2//libgcc.a(pr-support.o)
                                                  /home/leon/riotboard/arm-2012.09/bin/../lib/gcc/arm-none-eabi/4.7.2//libgcc.a(unwind-arm.o)
                                                  /home/leon/riotboard/arm-2012.09/bin/../arm-none-eabi/lib//libstdc++.a(vterminate.o)
                                                  /home/leon/riotboard/arm-2012.09/bin/../arm-none-eabi/lib//libstdc++.a(eh_personality.o)
                                                  /home/leon/riotboard/arm-2012.09/bin/../arm-none-eabi/lib//libstdc++.a(eh_terminate.o)
                                                  /home/leon/git/swp-report/iMX6_Platform_SDK/output/mx6sl/lib/libsdk.a(runtime_support.o)
                                                  /home/leon/riotboard/arm-2012.09/bin/../arm-none-eabi/lib//libc.a(lib_a-assert.o)
arm_branch_prediction_disable                     /home/leon/git/swp-report/iMX6_Platform_SDK/output/mx6sl/lib/libsdk.a(cortexA9.o)
arm_branch_prediction_enable                      /home/leon/git/swp-report/iMX6_Platform_SDK/output/mx6sl/lib/libsdk.a(cortexA9.o)
arm_branch_target_cache_invalidate                /home/leon/git/swp-report/iMX6_Platform_SDK/output/mx6sl/lib/libsdk.a(cortexA9.o)
arm_branch_target_cache_invalidate_is             /home/leon/git/swp-report/iMX6_Platform_SDK/output/mx6sl/lib/libsdk.a(cortexA9.o)
arm_dcache_disable                                /home/leon/git/swp-report/iMX6_Platform_SDK/output/mx6sl/lib/libsdk.a(armv7_cache.o)
                                                  /home/leon/git/swp-report/iMX6_Platform_SDK/output/mx6sl/sdk_unit_test/evk_rev_a/libsdk_unit_test.a(cpu_wp_test.o)
arm_dcache_enable                                 /home/leon/git/swp-report/iMX6_Platform_SDK/output/mx6sl/lib/libsdk.a(armv7_cache.o)
arm_dcache_flush                                  /home/leon/git/swp-report/iMX6_Platform_SDK/output/mx6sl/lib/libsdk.a(armv7_cache.o)
                                                  /home/leon/git/swp-report/iMX6_Platform_SDK/output/mx6sl/sdk_unit_test/evk_rev_a/libsdk_unit_test.a(cpu_wp_test.o)
arm_dcache_flush_line                             /home/leon/git/swp-report/iMX6_Platform_SDK/output/mx6sl/lib/libsdk.a(armv7_cache.o)
arm_dcache_flush_mlines                           /home/leon/git/swp-report/iMX6_Platform_SDK/output/mx6sl/lib/libsdk.a(armv7_cache.o)
                                                  /home/leon/git/swp-report/iMX6_Platform_SDK/output/mx6sl/lib/libsdk.a(usdhc.o)
arm_dcache_invalidate                             /home/leon/git/swp-report/iMX6_Platform_SDK/output/mx6sl/lib/libsdk.a(armv7_cache.o)
                                                  /home/leon/git/swp-report/iMX6_Platform_SDK/output/mx6sl/sdk_unit_test/evk_rev_a/libsdk_unit_test.a(cpu_wp_test.o)
arm_dcache_invalidate_line                        /home/leon/git/swp-report/iMX6_Platform_SDK/output/mx6sl/lib/libsdk.a(armv7_cache.o)
arm_dcache_invalidate_mlines                      /home/leon/git/swp-report/iMX6_Platform_SDK/output/mx6sl/lib/libsdk.a(armv7_cache.o)
                                                  /home/leon/git/swp-report/iMX6_Platform_SDK/output/mx6sl/lib/libsdk.a(usdhc.o)
arm_dcache_state_query                            /home/leon/git/swp-report/iMX6_Platform_SDK/output/mx6sl/lib/libsdk.a(armv7_cache.o)
                                                  /home/leon/git/swp-report/iMX6_Platform_SDK/output/mx6sl/lib/libsdk.a(usdhc.o)
                                                  /home/leon/git/swp-report/iMX6_Platform_SDK/output/mx6sl/sdk_unit_test/evk_rev_a/libsdk_unit_test.a(cpu_wp_test.o)
arm_icache_disable                                /home/leon/git/swp-report/iMX6_Platform_SDK/output/mx6sl/lib/libsdk.a(armv7_cache.o)
arm_icache_enable                                 /home/leon/git/swp-report/iMX6_Platform_SDK/output/mx6sl/lib/libsdk.a(armv7_cache.o)
arm_icache_invalidate                             /home/leon/git/swp-report/iMX6_Platform_SDK/output/mx6sl/lib/libsdk.a(armv7_cache.o)
arm_icache_invalidate_is                          /home/leon/git/swp-report/iMX6_Platform_SDK/output/mx6sl/lib/libsdk.a(armv7_cache.o)
arm_icache_invalidate_line                        /home/leon/git/swp-report/iMX6_Platform_SDK/output/mx6sl/lib/libsdk.a(armv7_cache.o)
arm_icache_invalidate_mlines                      /home/leon/git/swp-report/iMX6_Platform_SDK/output/mx6sl/lib/libsdk.a(armv7_cache.o)
arm_icache_state_query                            /home/leon/git/swp-report/iMX6_Platform_SDK/output/mx6sl/lib/libsdk.a(armv7_cache.o)
arm_iomux_config                                  /home/leon/git/swp-report/iMX6_Platform_SDK/output/mx6sl/lib/libboard_evk_rev_a.a(iomux_config.o)
arm_set_interrupt_state                           /home/leon/git/swp-report/iMX6_Platform_SDK/output/mx6sl/lib/libsdk.a(cortexA9.o)
                                                  /home/leon/git/swp-report/iMX6_Platform_SDK/output/mx6sl/sdk_unit_test/evk_rev_a/obj/apps/common/platform_init.o
arm_unified_tlb_invalidate                        /home/leon/git/swp-report/iMX6_Platform_SDK/output/mx6sl/lib/libsdk.a(cortexA9.o)
                                                  /home/leon/git/swp-report/iMX6_Platform_SDK/output/mx6sl/lib/libsdk.a(mmu.o)
arm_unified_tlb_invalidate_is                     /home/leon/git/swp-report/iMX6_Platform_SDK/output/mx6sl/lib/libsdk.a(cortexA9.o)
audio_clock_config                                /home/leon/git/swp-report/iMX6_Platform_SDK/output/mx6sl/lib/libboard_evk_rev_a.a(board_audio.o)
                                                  /home/leon/git/swp-report/iMX6_Platform_SDK/output/mx6sl/sdk_unit_test/evk_rev_a/libsdk_unit_test.a(ssi_playback.o)
audio_codec_power_on                              /home/leon/git/swp-report/iMX6_Platform_SDK/output/mx6sl/lib/libboard_evk_rev_a.a(board_audio.o)
                                                  /home/leon/git/swp-report/iMX6_Platform_SDK/output/mx6sl/lib/libsdk.a(smd_sensor.o)
                                                  /home/leon/git/swp-report/iMX6_Platform_SDK/output/mx6sl/sdk_unit_test/evk_rev_a/libsdk_unit_test.a(ssi_playback.o)
audio_test                                        /home/leon/git/swp-report/iMX6_Platform_SDK/output/mx6sl/sdk_unit_test/evk_rev_a/libsdk_unit_test.a(audio_test.o)
                                                  /home/leon/git/swp-report/iMX6_Platform_SDK/output/mx6sl/sdk_unit_test/evk_rev_a/obj/apps/sdk_unit_test/src/all_test.o
audmux_iomux_config                               /home/leon/git/swp-report/iMX6_Platform_SDK/output/mx6sl/lib/libboard_evk_rev_a.a(audmux_iomux_config.o)
                                                  /home/leon/git/swp-report/iMX6_Platform_SDK/output/mx6sl/lib/libsdk.a(imx-ssi.o)
                                                  /home/leon/git/swp-report/iMX6_Platform_SDK/output/mx6sl/lib/libboard_evk_rev_a.a(iomux_config.o)
audmux_port_set                                   /home/leon/git/swp-report/iMX6_Platform_SDK/output/mx6sl/lib/libsdk.a(imx_audmux.o)
audmux_route                                      /home/leon/git/swp-report/iMX6_Platform_SDK/output/mx6sl/lib/libsdk.a(imx_audmux.o)
                                                  /home/leon/git/swp-report/iMX6_Platform_SDK/output/mx6sl/sdk_unit_test/evk_rev_a/libsdk_unit_test.a(ssi_playback.o)
auo_lut                                           /home/leon/git/swp-report/iMX6_Platform_SDK/output/mx6sl/sdk_unit_test/evk_rev_a/libsdk_unit_test.a(auo_lut.o)
                                                  /home/leon/git/swp-report/iMX6_Platform_SDK/output/mx6sl/sdk_unit_test/evk_rev_a/libsdk_unit_test.a(spdc_test.o)
auo_lut_size                                      /home/leon/git/swp-report/iMX6_Platform_SDK/output/mx6sl/sdk_unit_test/evk_rev_a/libsdk_unit_test.a(auo_lut.o)
                                                  /home/leon/git/swp-report/iMX6_Platform_SDK/output/mx6sl/lib/libsdk.a(mxc_spdc.o)
bd                                                /home/leon/git/swp-report/iMX6_Platform_SDK/output/mx6sl/sdk_unit_test/evk_rev_a/obj/apps/common/ivt.o
board_description                                 /home/leon/git/swp-report/iMX6_Platform_SDK/output/mx6sl/lib/libsdk.a(board_id.o)
board_ioexpander_init                             /home/leon/git/swp-report/iMX6_Platform_SDK/output/mx6sl/lib/libboard_evk_rev_a.a(board_io_expanders.o)
                                                  /home/leon/git/swp-report/iMX6_Platform_SDK/output/mx6sl/sdk_unit_test/evk_rev_a/obj/apps/common/platform_init.o
board_name                                        /home/leon/git/swp-report/iMX6_Platform_SDK/output/mx6sl/lib/libsdk.a(board_id.o)
                                                  /home/leon/git/swp-report/iMX6_Platform_SDK/output/mx6sl/sdk_unit_test/evk_rev_a/obj/apps/common/print_version.o
board_revision                                    /home/leon/git/swp-report/iMX6_Platform_SDK/output/mx6sl/lib/libsdk.a(board_id.o)
                                                  /home/leon/git/swp-report/iMX6_Platform_SDK/output/mx6sl/sdk_unit_test/evk_rev_a/obj/apps/common/print_version.o
bzero                                             /home/leon/riotboard/arm-2012.09/bin/../arm-none-eabi/lib//libc.a(lib_a-bzero.o)
                                                  /home/leon/git/swp-report/iMX6_Platform_SDK/output/mx6sl/lib/libsdk.a(mmu.o)
camera_power_on                                   /home/leon/git/swp-report/iMX6_Platform_SDK/output/mx6sl/lib/libboard_evk_rev_a.a(board_camera.o)
                                                  /home/leon/git/swp-report/iMX6_Platform_SDK/output/mx6sl/lib/libsdk.a(smd_sensor.o)
camera_strobeflash_off                            /home/leon/git/swp-report/iMX6_Platform_SDK/output/mx6sl/lib/libsdk.a(smd_sensor.o)
camera_strobeflash_on                             /home/leon/git/swp-report/iMX6_Platform_SDK/output/mx6sl/lib/libsdk.a(smd_sensor.o)
camera_test                                       /home/leon/git/swp-report/iMX6_Platform_SDK/output/mx6sl/sdk_unit_test/evk_rev_a/libsdk_unit_test.a(camera_test.o)
                                                  /home/leon/git/swp-report/iMX6_Platform_SDK/output/mx6sl/sdk_unit_test/evk_rev_a/obj/apps/sdk_unit_test/src/all_test.o
card_cmd_config                                   /home/leon/git/swp-report/iMX6_Platform_SDK/output/mx6sl/lib/libsdk.a(usdhc.o)
                                                  /home/leon/git/swp-report/iMX6_Platform_SDK/output/mx6sl/lib/libsdk.a(usdhc_sd.o)
                                                  /home/leon/git/swp-report/iMX6_Platform_SDK/output/mx6sl/lib/libsdk.a(usdhc_mmc.o)
card_data_read                                    /home/leon/git/swp-report/iMX6_Platform_SDK/output/mx6sl/lib/libsdk.a(usdhc.o)
                                                  /home/leon/git/swp-report/iMX6_Platform_SDK/output/mx6sl/sdk_unit_test/evk_rev_a/libsdk_unit_test.a(usdhc_test.o)
card_data_write                                   /home/leon/git/swp-report/iMX6_Platform_SDK/output/mx6sl/lib/libsdk.a(usdhc.o)
                                                  /home/leon/git/swp-report/iMX6_Platform_SDK/output/mx6sl/sdk_unit_test/evk_rev_a/libsdk_unit_test.a(usdhc_test.o)
card_detect_test_en                               /home/leon/git/swp-report/iMX6_Platform_SDK/output/mx6sl/lib/libsdk.a(usdhc.o)
card_emmc_init                                    /home/leon/git/swp-report/iMX6_Platform_SDK/output/mx6sl/lib/libsdk.a(usdhc.o)
                                                  /home/leon/git/swp-report/iMX6_Platform_SDK/output/mx6sl/sdk_unit_test/evk_rev_a/libsdk_unit_test.a(usdhc_test.o)
card_enter_trans                                  /home/leon/git/swp-report/iMX6_Platform_SDK/output/mx6sl/lib/libsdk.a(usdhc.o)
                                                  /home/leon/git/swp-report/iMX6_Platform_SDK/output/mx6sl/lib/libsdk.a(usdhc_sd.o)
                                                  /home/leon/git/swp-report/iMX6_Platform_SDK/output/mx6sl/lib/libsdk.a(usdhc_mmc.o)
card_get_cid                                      /home/leon/git/swp-report/iMX6_Platform_SDK/output/mx6sl/lib/libsdk.a(usdhc.o)
                                                  /home/leon/git/swp-report/iMX6_Platform_SDK/output/mx6sl/lib/libsdk.a(usdhc_sd.o)
                                                  /home/leon/git/swp-report/iMX6_Platform_SDK/output/mx6sl/lib/libsdk.a(usdhc_mmc.o)
card_get_port                                     /home/leon/git/swp-report/iMX6_Platform_SDK/output/mx6sl/lib/libsdk.a(usdhc.o)
                                                  /home/leon/git/swp-report/iMX6_Platform_SDK/output/mx6sl/lib/libsdk.a(usdhc_sd.o)
                                                  /home/leon/git/swp-report/iMX6_Platform_SDK/output/mx6sl/lib/libsdk.a(usdhc_mmc.o)
                                                  /home/leon/git/swp-report/iMX6_Platform_SDK/output/mx6sl/lib/libsdk.a(usdhc_host.o)
card_init                                         /home/leon/git/swp-report/iMX6_Platform_SDK/output/mx6sl/lib/libsdk.a(usdhc.o)
                                                  /home/leon/git/swp-report/iMX6_Platform_SDK/output/mx6sl/sdk_unit_test/evk_rev_a/libsdk_unit_test.a(usdhc_test.o)
card_set_blklen                                   /home/leon/git/swp-report/iMX6_Platform_SDK/output/mx6sl/lib/libsdk.a(usdhc.o)
card_trans_status                                 /home/leon/git/swp-report/iMX6_Platform_SDK/output/mx6sl/lib/libsdk.a(usdhc.o)
                                                  /home/leon/git/swp-report/iMX6_Platform_SDK/output/mx6sl/lib/libsdk.a(usdhc_mmc.o)
card_wait_xfer_done                               /home/leon/git/swp-report/iMX6_Platform_SDK/output/mx6sl/lib/libsdk.a(usdhc.o)
card_xfer_result                                  /home/leon/git/swp-report/iMX6_Platform_SDK/output/mx6sl/lib/libsdk.a(usdhc.o)
                                                  /home/leon/git/swp-report/iMX6_Platform_SDK/output/mx6sl/sdk_unit_test/evk_rev_a/libsdk_unit_test.a(usdhc_test.o)
ccm_ccgr_config                                   /home/leon/git/swp-report/iMX6_Platform_SDK/output/mx6sl/lib/libsdk.a(ccm_pll.o)
ccm_enter_low_power                               /home/leon/git/swp-report/iMX6_Platform_SDK/output/mx6sl/lib/libsdk.a(ccm_pll.o)
ccm_init                                          /home/leon/git/swp-report/iMX6_Platform_SDK/output/mx6sl/lib/libsdk.a(ccm_pll.o)
                                                  /home/leon/git/swp-report/iMX6_Platform_SDK/output/mx6sl/sdk_unit_test/evk_rev_a/obj/apps/common/platform_init.o
ccm_iomux_config                                  /home/leon/git/swp-report/iMX6_Platform_SDK/output/mx6sl/lib/libboard_evk_rev_a.a(iomux_config.o)
ccm_set_lpm_wakeup_source                         /home/leon/git/swp-report/iMX6_Platform_SDK/output/mx6sl/lib/libsdk.a(ccm_pll.o)
chip_name                                         /home/leon/git/swp-report/iMX6_Platform_SDK/output/mx6sl/lib/libsdk.a(board_id.o)
                                                  /home/leon/git/swp-report/iMX6_Platform_SDK/output/mx6sl/sdk_unit_test/evk_rev_a/obj/apps/common/print_version.o
chip_revision                                     /home/leon/git/swp-report/iMX6_Platform_SDK/output/mx6sl/lib/libsdk.a(board_id.o)
                                                  /home/leon/git/swp-report/iMX6_Platform_SDK/output/mx6sl/sdk_unit_test/evk_rev_a/obj/apps/common/print_version.o
cleanup_glue                                      /home/leon/riotboard/arm-2012.09/bin/../arm-none-eabi/lib//libc.a(lib_a-reent.o)
clock_gating_config                               /home/leon/git/swp-report/iMX6_Platform_SDK/output/mx6sl/lib/libsdk.a(ccm_pll.o)
                                                  /home/leon/git/swp-report/iMX6_Platform_SDK/output/mx6sl/lib/libsdk.a(gpt.o)
                                                  /home/leon/git/swp-report/iMX6_Platform_SDK/output/mx6sl/lib/libsdk.a(ecspi.o)
                                                  /home/leon/git/swp-report/iMX6_Platform_SDK/output/mx6sl/lib/libsdk.a(imx_i2c.o)
                                                  /home/leon/git/swp-report/iMX6_Platform_SDK/output/mx6sl/lib/libsdk.a(epit.o)
                                                  /home/leon/git/swp-report/iMX6_Platform_SDK/output/mx6sl/lib/libsdk.a(imx_uart.o)
common_abort_handler                              /home/leon/git/swp-report/iMX6_Platform_SDK/output/mx6sl/lib/libsdk.a(arm_abort.o)
compute_alarm                                     /home/leon/git/swp-report/iMX6_Platform_SDK/output/mx6sl/lib/libsdk.a(tempmon.o)
compute_temp                                      /home/leon/git/swp-report/iMX6_Platform_SDK/output/mx6sl/lib/libsdk.a(tempmon.o)
copysignf                                         /home/leon/riotboard/arm-2012.09/bin/../arm-none-eabi/lib//libm.a(lib_a-sf_copysign.o)
                                                  /home/leon/riotboard/arm-2012.09/bin/../arm-none-eabi/lib//libm.a(lib_a-sf_scalbn.o)
cosf                                              /home/leon/riotboard/arm-2012.09/bin/../arm-none-eabi/lib//libm.a(lib_a-sf_cos.o)
                                                  /home/leon/git/swp-report/iMX6_Platform_SDK/output/mx6sl/sdk_unit_test/evk_rev_a/libsdk_unit_test.a(usb0_device_mouse_test.o)
cpu_get_current                                   /home/leon/git/swp-report/iMX6_Platform_SDK/output/mx6sl/lib/libsdk.a(cortexA9.o)
cpu_workpoint_set                                 /home/leon/git/swp-report/iMX6_Platform_SDK/output/mx6sl/lib/libsdk.a(cpu_workpoint.o)
                                                  /home/leon/git/swp-report/iMX6_Platform_SDK/output/mx6sl/sdk_unit_test/evk_rev_a/libsdk_unit_test.a(cpu_wp_test.o)
cpu_wp_test                                       /home/leon/git/swp-report/iMX6_Platform_SDK/output/mx6sl/sdk_unit_test/evk_rev_a/libsdk_unit_test.a(cpu_wp_test.o)
                                                  /home/leon/git/swp-report/iMX6_Platform_SDK/output/mx6sl/sdk_unit_test/evk_rev_a/obj/apps/sdk_unit_test/src/all_test.o
csi_iomux_config                                  /home/leon/git/swp-report/iMX6_Platform_SDK/output/mx6sl/lib/libboard_evk_rev_a.a(csi_iomux_config.o)
                                                  /home/leon/git/swp-report/iMX6_Platform_SDK/output/mx6sl/lib/libsdk.a(smd_sensor.o)
                                                  /home/leon/git/swp-report/iMX6_Platform_SDK/output/mx6sl/lib/libboard_evk_rev_a.a(iomux_config.o)
csi_sensor_capture                                /home/leon/git/swp-report/iMX6_Platform_SDK/output/mx6sl/sdk_unit_test/evk_rev_a/libsdk_unit_test.a(csi_sensor_capture.o)
                                                  /home/leon/git/swp-report/iMX6_Platform_SDK/output/mx6sl/sdk_unit_test/evk_rev_a/libsdk_unit_test.a(camera_test.o)
csi_setup                                         /home/leon/git/swp-report/iMX6_Platform_SDK/output/mx6sl/lib/libsdk.a(csi_drv.o)
                                                  /home/leon/git/swp-report/iMX6_Platform_SDK/output/mx6sl/sdk_unit_test/evk_rev_a/libsdk_unit_test.a(csi_sensor_capture.o)
csi_streamoff                                     /home/leon/git/swp-report/iMX6_Platform_SDK/output/mx6sl/lib/libsdk.a(csi_drv.o)
                                                  /home/leon/git/swp-report/iMX6_Platform_SDK/output/mx6sl/sdk_unit_test/evk_rev_a/libsdk_unit_test.a(csi_sensor_capture.o)
csi_streamon                                      /home/leon/git/swp-report/iMX6_Platform_SDK/output/mx6sl/lib/libsdk.a(csi_drv.o)
                                                  /home/leon/git/swp-report/iMX6_Platform_SDK/output/mx6sl/sdk_unit_test/evk_rev_a/libsdk_unit_test.a(csi_sensor_capture.o)
data_abort_handler                                /home/leon/git/swp-report/iMX6_Platform_SDK/output/mx6sl/lib/libsdk.a(arm_abort.o)
                                                  /home/leon/git/swp-report/iMX6_Platform_SDK/output/mx6sl/lib/libsdk.a(vectors.o)
default_interrupt_routine                         /home/leon/git/swp-report/iMX6_Platform_SDK/output/mx6sl/lib/libsdk.a(interrupt.o)
dev_spi_nor                                       /home/leon/git/swp-report/iMX6_Platform_SDK/output/mx6sl/sdk_unit_test/evk_rev_a/libsdk_unit_test.a(spi_test.o)
                                                  /home/leon/git/swp-report/iMX6_Platform_SDK/output/mx6sl/sdk_unit_test/evk_rev_a/libsdk_unit_test.a(spi_nor_numonyx.o)
disable_L1_cache                                  /home/leon/git/swp-report/iMX6_Platform_SDK/output/mx6sl/lib/libsdk.a(cortexA9.o)
disable_interrupt                                 /home/leon/git/swp-report/iMX6_Platform_SDK/output/mx6sl/lib/libsdk.a(interrupt.o)
                                                  /home/leon/git/swp-report/iMX6_Platform_SDK/output/mx6sl/lib/libsdk.a(usdhc.o)
                                                  /home/leon/git/swp-report/iMX6_Platform_SDK/output/mx6sl/lib/libsdk.a(gpt.o)
                                                  /home/leon/git/swp-report/iMX6_Platform_SDK/output/mx6sl/lib/libsdk.a(tempmon.o)
                                                  /home/leon/git/swp-report/iMX6_Platform_SDK/output/mx6sl/lib/libsdk.a(srtc.o)
                                                  /home/leon/git/swp-report/iMX6_Platform_SDK/output/mx6sl/lib/libsdk.a(rtc.o)
                                                  /home/leon/git/swp-report/iMX6_Platform_SDK/output/mx6sl/lib/libsdk.a(pwm.o)
                                                  /home/leon/git/swp-report/iMX6_Platform_SDK/output/mx6sl/lib/libsdk.a(imx_i2c.o)
                                                  /home/leon/git/swp-report/iMX6_Platform_SDK/output/mx6sl/lib/libsdk.a(epit.o)
                                                  /home/leon/git/swp-report/iMX6_Platform_SDK/output/mx6sl/lib/libsdk.a(imx_uart.o)
disable_strict_align_check                        /home/leon/git/swp-report/iMX6_Platform_SDK/output/mx6sl/lib/libsdk.a(cortexA9.o)
                                                  /home/leon/git/swp-report/iMX6_Platform_SDK/output/mx6sl/sdk_unit_test/evk_rev_a/obj/apps/common/platform_init.o
dump_regs                                         /home/leon/git/swp-report/iMX6_Platform_SDK/output/mx6sl/lib/libsdk.a(abort_handler.o)
                                                  /home/leon/git/swp-report/iMX6_Platform_SDK/output/mx6sl/lib/libsdk.a(arm_abort.o)
ecspi1_iomux_config                               /home/leon/git/swp-report/iMX6_Platform_SDK/output/mx6sl/lib/libboard_evk_rev_a.a(ecspi1_iomux_config.o)
                                                  /home/leon/git/swp-report/iMX6_Platform_SDK/output/mx6sl/lib/libboard_evk_rev_a.a(ecspi_iomux_config.o)
                                                  /home/leon/git/swp-report/iMX6_Platform_SDK/output/mx6sl/lib/libboard_evk_rev_a.a(iomux_config.o)
ecspi2_iomux_config                               /home/leon/git/swp-report/iMX6_Platform_SDK/output/mx6sl/lib/libboard_evk_rev_a.a(ecspi2_iomux_config.o)
                                                  /home/leon/git/swp-report/iMX6_Platform_SDK/output/mx6sl/lib/libboard_evk_rev_a.a(ecspi_iomux_config.o)
                                                  /home/leon/git/swp-report/iMX6_Platform_SDK/output/mx6sl/lib/libboard_evk_rev_a.a(iomux_config.o)
ecspi3_iomux_config                               /home/leon/git/swp-report/iMX6_Platform_SDK/output/mx6sl/lib/libboard_evk_rev_a.a(iomux_config.o)
                                                  /home/leon/git/swp-report/iMX6_Platform_SDK/output/mx6sl/lib/libboard_evk_rev_a.a(ecspi_iomux_config.o)
ecspi4_iomux_config                               /home/leon/git/swp-report/iMX6_Platform_SDK/output/mx6sl/lib/libboard_evk_rev_a.a(iomux_config.o)
                                                  /home/leon/git/swp-report/iMX6_Platform_SDK/output/mx6sl/lib/libboard_evk_rev_a.a(ecspi_iomux_config.o)
ecspi_app_test                                    /home/leon/git/swp-report/iMX6_Platform_SDK/output/mx6sl/sdk_unit_test/evk_rev_a/libsdk_unit_test.a(spi_lpb.o)
ecspi_close                                       /home/leon/git/swp-report/iMX6_Platform_SDK/output/mx6sl/lib/libsdk.a(ecspi.o)
                                                  /home/leon/git/swp-report/iMX6_Platform_SDK/output/mx6sl/sdk_unit_test/evk_rev_a/libsdk_unit_test.a(spi_test.o)
ecspi_configure                                   /home/leon/git/swp-report/iMX6_Platform_SDK/output/mx6sl/lib/libsdk.a(ecspi.o)
                                                  /home/leon/git/swp-report/iMX6_Platform_SDK/output/mx6sl/sdk_unit_test/evk_rev_a/libsdk_unit_test.a(spi_test.o)
ecspi_iomux_config                                /home/leon/git/swp-report/iMX6_Platform_SDK/output/mx6sl/lib/libboard_evk_rev_a.a(ecspi_iomux_config.o)
                                                  /home/leon/git/swp-report/iMX6_Platform_SDK/output/mx6sl/lib/libsdk.a(ecspi.o)
ecspi_open                                        /home/leon/git/swp-report/iMX6_Platform_SDK/output/mx6sl/lib/libsdk.a(ecspi.o)
                                                  /home/leon/git/swp-report/iMX6_Platform_SDK/output/mx6sl/sdk_unit_test/evk_rev_a/libsdk_unit_test.a(spi_test.o)
ecspi_shp_test                                    /home/leon/git/swp-report/iMX6_Platform_SDK/output/mx6sl/sdk_unit_test/evk_rev_a/libsdk_unit_test.a(spi_lpb.o)
                                                  /home/leon/git/swp-report/iMX6_Platform_SDK/output/mx6sl/sdk_unit_test/evk_rev_a/libsdk_unit_test.a(sdma_test.o)
ecspi_xfer                                        /home/leon/git/swp-report/iMX6_Platform_SDK/output/mx6sl/lib/libsdk.a(ecspi.o)
                                                  /home/leon/git/swp-report/iMX6_Platform_SDK/output/mx6sl/sdk_unit_test/evk_rev_a/libsdk_unit_test.a(spi_nor_numonyx.o)
eim_iomux_config                                  /home/leon/git/swp-report/iMX6_Platform_SDK/output/mx6sl/lib/libboard_evk_rev_a.a(iomux_config.o)
emmc_init                                         /home/leon/git/swp-report/iMX6_Platform_SDK/output/mx6sl/lib/libsdk.a(usdhc_mmc.o)
                                                  /home/leon/git/swp-report/iMX6_Platform_SDK/output/mx6sl/lib/libsdk.a(usdhc.o)
emmc_print_cfg_info                               /home/leon/git/swp-report/iMX6_Platform_SDK/output/mx6sl/lib/libsdk.a(usdhc_mmc.o)
                                                  /home/leon/git/swp-report/iMX6_Platform_SDK/output/mx6sl/sdk_unit_test/evk_rev_a/libsdk_unit_test.a(usdhc_test.o)
emuerateDevice                                    /home/leon/git/swp-report/iMX6_Platform_SDK/output/mx6sl/sdk_unit_test/evk_rev_a/libsdk_unit_test.a(usb0_host_test.o)
enable_interrupt                                  /home/leon/git/swp-report/iMX6_Platform_SDK/output/mx6sl/lib/libsdk.a(interrupt.o)
                                                  /home/leon/git/swp-report/iMX6_Platform_SDK/output/mx6sl/lib/libsdk.a(usdhc.o)
                                                  /home/leon/git/swp-report/iMX6_Platform_SDK/output/mx6sl/lib/libsdk.a(gpt.o)
                                                  /home/leon/git/swp-report/iMX6_Platform_SDK/output/mx6sl/lib/libsdk.a(tempmon.o)
                                                  /home/leon/git/swp-report/iMX6_Platform_SDK/output/mx6sl/lib/libsdk.a(sdma.o)
                                                  /home/leon/git/swp-report/iMX6_Platform_SDK/output/mx6sl/lib/libsdk.a(srtc.o)
                                                  /home/leon/git/swp-report/iMX6_Platform_SDK/output/mx6sl/lib/libsdk.a(rtc.o)
                                                  /home/leon/git/swp-report/iMX6_Platform_SDK/output/mx6sl/lib/libsdk.a(pwm.o)
                                                  /home/leon/git/swp-report/iMX6_Platform_SDK/output/mx6sl/lib/libsdk.a(imx_i2c.o)
                                                  /home/leon/git/swp-report/iMX6_Platform_SDK/output/mx6sl/sdk_unit_test/evk_rev_a/libsdk_unit_test.a(gic_test.o)
                                                  /home/leon/git/swp-report/iMX6_Platform_SDK/output/mx6sl/lib/libsdk.a(epit.o)
                                                  /home/leon/git/swp-report/iMX6_Platform_SDK/output/mx6sl/lib/libsdk.a(imx_uart.o)
enable_neon_fpu                                   /home/leon/git/swp-report/iMX6_Platform_SDK/output/mx6sl/lib/libsdk.a(cortexA9.o)
                                                  /home/leon/git/swp-report/iMX6_Platform_SDK/output/mx6sl/sdk_unit_test/evk_rev_a/obj/apps/common/platform_init.o
endpointList                                      /home/leon/git/swp-report/iMX6_Platform_SDK/output/mx6sl/sdk_unit_test/evk_rev_a/libsdk_unit_test.a(usb0_device_mouse_test.o)
environ                                           /home/leon/git/swp-report/iMX6_Platform_SDK/output/mx6sl/lib/libsdk.a(runtime_support.o)
epdc_any_luts_active                              /home/leon/git/swp-report/iMX6_Platform_SDK/output/mx6sl/lib/libsdk.a(mxc_epdc.o)
epdc_any_luts_available                           /home/leon/git/swp-report/iMX6_Platform_SDK/output/mx6sl/lib/libsdk.a(mxc_epdc.o)
epdc_buffer_init                                  /home/leon/git/swp-report/iMX6_Platform_SDK/output/mx6sl/lib/libsdk.a(mxc_epdc.o)
                                                  /home/leon/git/swp-report/iMX6_Platform_SDK/output/mx6sl/sdk_unit_test/evk_rev_a/libsdk_unit_test.a(epdc_test.o)
epdc_clear_lut_complete_irq                       /home/leon/git/swp-report/iMX6_Platform_SDK/output/mx6sl/lib/libsdk.a(mxc_epdc.o)
epdc_clock_setting                                /home/leon/git/swp-report/iMX6_Platform_SDK/output/mx6sl/lib/libboard_evk_rev_a.a(board_display.o)
                                                  /home/leon/git/swp-report/iMX6_Platform_SDK/output/mx6sl/sdk_unit_test/evk_rev_a/libsdk_unit_test.a(epdc_test.o)
epdc_dump_registers                               /home/leon/git/swp-report/iMX6_Platform_SDK/output/mx6sl/lib/libsdk.a(mxc_epdc.o)
epdc_get_next_lut                                 /home/leon/git/swp-report/iMX6_Platform_SDK/output/mx6sl/lib/libsdk.a(mxc_epdc.o)
                                                  /home/leon/git/swp-report/iMX6_Platform_SDK/output/mx6sl/sdk_unit_test/evk_rev_a/libsdk_unit_test.a(epdc_test.o)
epdc_init_settings                                /home/leon/git/swp-report/iMX6_Platform_SDK/output/mx6sl/lib/libsdk.a(mxc_epdc.o)
                                                  /home/leon/git/swp-report/iMX6_Platform_SDK/output/mx6sl/sdk_unit_test/evk_rev_a/libsdk_unit_test.a(epdc_test.o)
epdc_iomux_config                                 /home/leon/git/swp-report/iMX6_Platform_SDK/output/mx6sl/lib/libboard_evk_rev_a.a(epdc_iomux_config.o)
                                                  /home/leon/git/swp-report/iMX6_Platform_SDK/output/mx6sl/sdk_unit_test/evk_rev_a/libsdk_unit_test.a(epdc_test.o)
                                                  /home/leon/git/swp-report/iMX6_Platform_SDK/output/mx6sl/lib/libboard_evk_rev_a.a(iomux_config.o)
epdc_is_collision                                 /home/leon/git/swp-report/iMX6_Platform_SDK/output/mx6sl/lib/libsdk.a(mxc_epdc.o)
epdc_is_lut_active                                /home/leon/git/swp-report/iMX6_Platform_SDK/output/mx6sl/lib/libsdk.a(mxc_epdc.o)
                                                  /home/leon/git/swp-report/iMX6_Platform_SDK/output/mx6sl/sdk_unit_test/evk_rev_a/libsdk_unit_test.a(epdc_test.o)
epdc_is_lut_complete                              /home/leon/git/swp-report/iMX6_Platform_SDK/output/mx6sl/lib/libsdk.a(mxc_epdc.o)
epdc_is_working_buffer_busy                       /home/leon/git/swp-report/iMX6_Platform_SDK/output/mx6sl/lib/libsdk.a(mxc_epdc.o)
                                                  /home/leon/git/swp-report/iMX6_Platform_SDK/output/mx6sl/sdk_unit_test/evk_rev_a/libsdk_unit_test.a(epdc_test.o)
epdc_is_working_buffer_complete                   /home/leon/git/swp-report/iMX6_Platform_SDK/output/mx6sl/lib/libsdk.a(mxc_epdc.o)
epdc_load_image                                   /home/leon/git/swp-report/iMX6_Platform_SDK/output/mx6sl/lib/libsdk.a(mxc_epdc.o)
                                                  /home/leon/git/swp-report/iMX6_Platform_SDK/output/mx6sl/sdk_unit_test/evk_rev_a/libsdk_unit_test.a(epdc_test.o)
epdc_power_supply                                 /home/leon/git/swp-report/iMX6_Platform_SDK/output/mx6sl/lib/libboard_evk_rev_a.a(board_display.o)
                                                  /home/leon/git/swp-report/iMX6_Platform_SDK/output/mx6sl/sdk_unit_test/evk_rev_a/libsdk_unit_test.a(epdc_test.o)
epdc_pvi_svga_sdr_init                            /home/leon/git/swp-report/iMX6_Platform_SDK/output/mx6sl/sdk_unit_test/evk_rev_a/libsdk_unit_test.a(epdc_test.o)
epdc_reset                                        /home/leon/git/swp-report/iMX6_Platform_SDK/output/mx6sl/lib/libsdk.a(mxc_epdc.o)
                                                  /home/leon/git/swp-report/iMX6_Platform_SDK/output/mx6sl/sdk_unit_test/evk_rev_a/libsdk_unit_test.a(epdc_test.o)
epdc_send_erase_to_color                          /home/leon/git/swp-report/iMX6_Platform_SDK/output/mx6sl/sdk_unit_test/evk_rev_a/libsdk_unit_test.a(epdc_test.o)
epdc_send_image_update                            /home/leon/git/swp-report/iMX6_Platform_SDK/output/mx6sl/sdk_unit_test/evk_rev_a/libsdk_unit_test.a(epdc_test.o)
epdc_send_mode0_to_black_update                   /home/leon/git/swp-report/iMX6_Platform_SDK/output/mx6sl/sdk_unit_test/evk_rev_a/libsdk_unit_test.a(epdc_test.o)
epdc_set_update_addr                              /home/leon/git/swp-report/iMX6_Platform_SDK/output/mx6sl/lib/libsdk.a(mxc_epdc.o)
                                                  /home/leon/git/swp-report/iMX6_Platform_SDK/output/mx6sl/sdk_unit_test/evk_rev_a/libsdk_unit_test.a(epdc_test.o)
epdc_set_update_coord                             /home/leon/git/swp-report/iMX6_Platform_SDK/output/mx6sl/lib/libsdk.a(mxc_epdc.o)
                                                  /home/leon/git/swp-report/iMX6_Platform_SDK/output/mx6sl/sdk_unit_test/evk_rev_a/libsdk_unit_test.a(epdc_test.o)
epdc_set_update_dimensions                        /home/leon/git/swp-report/iMX6_Platform_SDK/output/mx6sl/lib/libsdk.a(mxc_epdc.o)
                                                  /home/leon/git/swp-report/iMX6_Platform_SDK/output/mx6sl/sdk_unit_test/evk_rev_a/libsdk_unit_test.a(epdc_test.o)
epdc_set_vertical_timing                          /home/leon/git/swp-report/iMX6_Platform_SDK/output/mx6sl/lib/libsdk.a(mxc_epdc.o)
epdc_submit_update                                /home/leon/git/swp-report/iMX6_Platform_SDK/output/mx6sl/lib/libsdk.a(mxc_epdc.o)
                                                  /home/leon/git/swp-report/iMX6_Platform_SDK/output/mx6sl/sdk_unit_test/evk_rev_a/libsdk_unit_test.a(epdc_test.o)
epdc_test                                         /home/leon/git/swp-report/iMX6_Platform_SDK/output/mx6sl/sdk_unit_test/evk_rev_a/libsdk_unit_test.a(epdc_test.o)
                                                  /home/leon/git/swp-report/iMX6_Platform_SDK/output/mx6sl/sdk_unit_test/evk_rev_a/obj/apps/sdk_unit_test/src/all_test.o
epdc_update_image                                 /home/leon/git/swp-report/iMX6_Platform_SDK/output/mx6sl/sdk_unit_test/evk_rev_a/libsdk_unit_test.a(epdc_test.o)
epit1_iomux_config                                /home/leon/git/swp-report/iMX6_Platform_SDK/output/mx6sl/lib/libboard_evk_rev_a.a(iomux_config.o)
epit2_iomux_config                                /home/leon/git/swp-report/iMX6_Platform_SDK/output/mx6sl/lib/libboard_evk_rev_a.a(iomux_config.o)
epit_counter_disable                              /home/leon/git/swp-report/iMX6_Platform_SDK/output/mx6sl/lib/libsdk.a(epit.o)
                                                  /home/leon/git/swp-report/iMX6_Platform_SDK/output/mx6sl/sdk_unit_test/evk_rev_a/libsdk_unit_test.a(epit_test.o)
                                                  /home/leon/git/swp-report/iMX6_Platform_SDK/output/mx6sl/sdk_unit_test/evk_rev_a/libsdk_unit_test.a(cpu_wp_test.o)
                                                  /home/leon/git/swp-report/iMX6_Platform_SDK/output/mx6sl/lib/libsdk.a(timer.o)
epit_counter_enable                               /home/leon/git/swp-report/iMX6_Platform_SDK/output/mx6sl/lib/libsdk.a(epit.o)
                                                  /home/leon/git/swp-report/iMX6_Platform_SDK/output/mx6sl/sdk_unit_test/evk_rev_a/libsdk_unit_test.a(epit_test.o)
                                                  /home/leon/git/swp-report/iMX6_Platform_SDK/output/mx6sl/sdk_unit_test/evk_rev_a/libsdk_unit_test.a(cpu_wp_test.o)
                                                  /home/leon/git/swp-report/iMX6_Platform_SDK/output/mx6sl/lib/libsdk.a(timer.o)
epit_get_compare_event                            /home/leon/git/swp-report/iMX6_Platform_SDK/output/mx6sl/lib/libsdk.a(epit.o)
                                                  /home/leon/git/swp-report/iMX6_Platform_SDK/output/mx6sl/sdk_unit_test/evk_rev_a/libsdk_unit_test.a(epit_test.o)
                                                  /home/leon/git/swp-report/iMX6_Platform_SDK/output/mx6sl/lib/libsdk.a(timer.o)
epit_get_counter_value                            /home/leon/git/swp-report/iMX6_Platform_SDK/output/mx6sl/lib/libsdk.a(epit.o)
                                                  /home/leon/git/swp-report/iMX6_Platform_SDK/output/mx6sl/sdk_unit_test/evk_rev_a/libsdk_unit_test.a(cpu_wp_test.o)
epit_init                                         /home/leon/git/swp-report/iMX6_Platform_SDK/output/mx6sl/lib/libsdk.a(epit.o)
                                                  /home/leon/git/swp-report/iMX6_Platform_SDK/output/mx6sl/sdk_unit_test/evk_rev_a/libsdk_unit_test.a(epit_test.o)
                                                  /home/leon/git/swp-report/iMX6_Platform_SDK/output/mx6sl/sdk_unit_test/evk_rev_a/libsdk_unit_test.a(cpu_wp_test.o)
                                                  /home/leon/git/swp-report/iMX6_Platform_SDK/output/mx6sl/lib/libsdk.a(timer.o)
epit_reload_counter                               /home/leon/git/swp-report/iMX6_Platform_SDK/output/mx6sl/lib/libsdk.a(epit.o)
epit_set_compare_event                            /home/leon/git/swp-report/iMX6_Platform_SDK/output/mx6sl/lib/libsdk.a(epit.o)
epit_setup_interrupt                              /home/leon/git/swp-report/iMX6_Platform_SDK/output/mx6sl/lib/libsdk.a(epit.o)
                                                  /home/leon/git/swp-report/iMX6_Platform_SDK/output/mx6sl/sdk_unit_test/evk_rev_a/libsdk_unit_test.a(epit_test.o)
                                                  /home/leon/git/swp-report/iMX6_Platform_SDK/output/mx6sl/sdk_unit_test/evk_rev_a/libsdk_unit_test.a(cpu_wp_test.o)
epit_test                                         /home/leon/git/swp-report/iMX6_Platform_SDK/output/mx6sl/sdk_unit_test/evk_rev_a/libsdk_unit_test.a(epit_test.o)
                                                  /home/leon/git/swp-report/iMX6_Platform_SDK/output/mx6sl/sdk_unit_test/evk_rev_a/obj/apps/sdk_unit_test/src/all_test.o
errno                                             /home/leon/git/swp-report/iMX6_Platform_SDK/output/mx6sl/lib/libsdk.a(runtime_support.o)
                                                  /home/leon/riotboard/arm-2012.09/bin/../arm-none-eabi/lib//libc.a(lib_a-readr.o)
                                                  /home/leon/riotboard/arm-2012.09/bin/../arm-none-eabi/lib//libc.a(lib_a-lseekr.o)
                                                  /home/leon/riotboard/arm-2012.09/bin/../arm-none-eabi/lib//libc.a(lib_a-isattyr.o)
                                                  /home/leon/riotboard/arm-2012.09/bin/../arm-none-eabi/lib//libc.a(lib_a-fstatr.o)
                                                  /home/leon/riotboard/arm-2012.09/bin/../arm-none-eabi/lib//libc.a(lib_a-closer.o)
                                                  /home/leon/riotboard/arm-2012.09/bin/../arm-none-eabi/lib//libc.a(lib_a-writer.o)
                                                  /home/leon/riotboard/arm-2012.09/bin/../arm-none-eabi/lib//libc.a(lib_a-signalr.o)
                                                  /home/leon/riotboard/arm-2012.09/bin/../arm-none-eabi/lib//libc.a(lib_a-reent.o)
                                                  /home/leon/riotboard/arm-2012.09/bin/../arm-none-eabi/lib//libc.a(lib_a-sbrkr.o)
exception_handler                                 /home/leon/git/swp-report/iMX6_Platform_SDK/output/mx6sl/lib/libsdk.a(vectors.o)
fabsf                                             /home/leon/riotboard/arm-2012.09/bin/../arm-none-eabi/lib//libm.a(lib_a-sf_fabs.o)
                                                  /home/leon/riotboard/arm-2012.09/bin/../arm-none-eabi/lib//libm.a(lib_a-ef_rem_pio2.o)
fclose                                            /home/leon/riotboard/arm-2012.09/bin/../arm-none-eabi/lib//libc.a(lib_a-fclose.o)
                                                  /home/leon/riotboard/arm-2012.09/bin/../arm-none-eabi/lib//libc.a(lib_a-findfp.o)
fec_iomux_config                                  /home/leon/git/swp-report/iMX6_Platform_SDK/output/mx6sl/lib/libboard_evk_rev_a.a(fec_iomux_config.o)
                                                  /home/leon/git/swp-report/iMX6_Platform_SDK/output/mx6sl/sdk_unit_test/evk_rev_a/libsdk_unit_test.a(fec_test.o)
                                                  /home/leon/git/swp-report/iMX6_Platform_SDK/output/mx6sl/lib/libboard_evk_rev_a.a(iomux_config.o)
fec_test                                          /home/leon/git/swp-report/iMX6_Platform_SDK/output/mx6sl/sdk_unit_test/evk_rev_a/libsdk_unit_test.a(fec_test.o)
                                                  /home/leon/git/swp-report/iMX6_Platform_SDK/output/mx6sl/sdk_unit_test/evk_rev_a/obj/apps/sdk_unit_test/src/all_test.o
fflush                                            /home/leon/riotboard/arm-2012.09/bin/../arm-none-eabi/lib//libc.a(lib_a-fflush.o)
                                                  /home/leon/riotboard/arm-2012.09/bin/../arm-none-eabi/lib//libc.a(lib_a-refill.o)
fillBuffer                                        /home/leon/git/swp-report/iMX6_Platform_SDK/output/mx6sl/sdk_unit_test/evk_rev_a/libsdk_unit_test.a(usb0_device_mouse_test.o)
fiprintf                                          /home/leon/riotboard/arm-2012.09/bin/../arm-none-eabi/lib//libc.a(lib_a-fiprintf.o)
                                                  /home/leon/riotboard/arm-2012.09/bin/../arm-none-eabi/lib//libc.a(lib_a-assert.o)
floorf                                            /home/leon/riotboard/arm-2012.09/bin/../arm-none-eabi/lib//libm.a(lib_a-sf_floor.o)
                                                  /home/leon/riotboard/arm-2012.09/bin/../arm-none-eabi/lib//libm.a(lib_a-kf_rem_pio2.o)
fputc                                             /home/leon/riotboard/arm-2012.09/bin/../arm-none-eabi/lib//libc.a(lib_a-fputc.o)
                                                  /home/leon/riotboard/arm-2012.09/bin/../arm-none-eabi/lib//libstdc++.a(vterminate.o)
                                                  /home/leon/git/swp-report/iMX6_Platform_SDK/output/mx6sl/lib/libsdk.a(system_util.o)
                                                  /home/leon/git/swp-report/iMX6_Platform_SDK/output/mx6sl/lib/libsdk.a(menu.o)
fputs                                             /home/leon/riotboard/arm-2012.09/bin/../arm-none-eabi/lib//libc.a(lib_a-fputs.o)
                                                  /home/leon/riotboard/arm-2012.09/bin/../arm-none-eabi/lib//libstdc++.a(vterminate.o)
fputwc                                            /home/leon/riotboard/arm-2012.09/bin/../arm-none-eabi/lib//libc.a(lib_a-fputwc.o)
frame_list                                        /home/leon/git/swp-report/iMX6_Platform_SDK/output/mx6sl/sdk_unit_test/evk_rev_a/libsdk_unit_test.a(usb0_host_test.o)
free                                              /home/leon/riotboard/arm-2012.09/bin/../arm-none-eabi/lib//libc.a(lib_a-malloc.o)
                                                  /home/leon/riotboard/arm-2012.09/bin/../arm-none-eabi/lib//libstdc++.a(del_op.o)
                                                  /home/leon/riotboard/arm-2012.09/bin/../arm-none-eabi/lib//libstdc++.a(cp-demangle.o)
                                                  /home/leon/riotboard/arm-2012.09/bin/../arm-none-eabi/lib//libstdc++.a(vterminate.o)
                                                  /home/leon/riotboard/arm-2012.09/bin/../arm-none-eabi/lib//libstdc++.a(eh_alloc.o)
                                                  /home/leon/git/swp-report/iMX6_Platform_SDK/output/mx6sl/lib/libsdk.a(usbh_drv.o)
                                                  /home/leon/git/swp-report/iMX6_Platform_SDK/output/mx6sl/lib/libsdk.a(usbd_drv.o)
                                                  /home/leon/git/swp-report/iMX6_Platform_SDK/output/mx6sl/sdk_unit_test/evk_rev_a/libsdk_unit_test.a(usb0_host_test.o)
                                                  /home/leon/git/swp-report/iMX6_Platform_SDK/output/mx6sl/sdk_unit_test/evk_rev_a/libsdk_unit_test.a(audio_test.o)
free_memory_end                                   /home/leon/git/swp-report/iMX6_Platform_SDK/output/mx6sl/lib/libsdk.a(runtime_support.o)
free_memory_start                                 /home/leon/git/swp-report/iMX6_Platform_SDK/output/mx6sl/lib/libsdk.a(runtime_support.o)
fsl_gray_600x230                                  /home/leon/git/swp-report/iMX6_Platform_SDK/output/mx6sl/lib/libsdk.a(mxc_epdc.o)
                                                  /home/leon/git/swp-report/iMX6_Platform_SDK/output/mx6sl/lib/libsdk.a(mxc_spdc.o)
fwrite                                            /home/leon/riotboard/arm-2012.09/bin/../arm-none-eabi/lib//libc.a(lib_a-fwrite.o)
                                                  /home/leon/riotboard/arm-2012.09/bin/../arm-none-eabi/lib//libstdc++.a(vterminate.o)
gImage_fsl                                        /home/leon/git/swp-report/iMX6_Platform_SDK/output/mx6sl/lib/libsdk.a(lcdif_drv.o)
g_TextAttributeBlink                              /home/leon/git/swp-report/iMX6_Platform_SDK/output/mx6sl/lib/libsdk.a(text_color.o)
g_TextAttributeBold                               /home/leon/git/swp-report/iMX6_Platform_SDK/output/mx6sl/lib/libsdk.a(text_color.o)
                                                  /home/leon/git/swp-report/iMX6_Platform_SDK/output/mx6sl/lib/libsdk.a(system_util.o)
                                                  /home/leon/git/swp-report/iMX6_Platform_SDK/output/mx6sl/lib/libsdk.a(menu.o)
g_TextAttributeDefault                            /home/leon/git/swp-report/iMX6_Platform_SDK/output/mx6sl/lib/libsdk.a(text_color.o)
                                                  /home/leon/git/swp-report/iMX6_Platform_SDK/output/mx6sl/lib/libsdk.a(menu.o)
g_TextAttributeDim                                /home/leon/git/swp-report/iMX6_Platform_SDK/output/mx6sl/lib/libsdk.a(text_color.o)
g_TextAttributeHidden                             /home/leon/git/swp-report/iMX6_Platform_SDK/output/mx6sl/lib/libsdk.a(text_color.o)
g_TextAttributeReverse                            /home/leon/git/swp-report/iMX6_Platform_SDK/output/mx6sl/lib/libsdk.a(text_color.o)
g_TextAttributeUnderline                          /home/leon/git/swp-report/iMX6_Platform_SDK/output/mx6sl/lib/libsdk.a(text_color.o)
g_TextColorBlack                                  /home/leon/git/swp-report/iMX6_Platform_SDK/output/mx6sl/lib/libsdk.a(text_color.o)
g_TextColorBlue                                   /home/leon/git/swp-report/iMX6_Platform_SDK/output/mx6sl/lib/libsdk.a(text_color.o)
                                                  /home/leon/git/swp-report/iMX6_Platform_SDK/output/mx6sl/lib/libsdk.a(menu.o)
g_TextColorCyan                                   /home/leon/git/swp-report/iMX6_Platform_SDK/output/mx6sl/lib/libsdk.a(text_color.o)
g_TextColorGray                                   /home/leon/git/swp-report/iMX6_Platform_SDK/output/mx6sl/lib/libsdk.a(text_color.o)
g_TextColorGreen                                  /home/leon/git/swp-report/iMX6_Platform_SDK/output/mx6sl/lib/libsdk.a(text_color.o)
g_TextColorLightBlue                              /home/leon/git/swp-report/iMX6_Platform_SDK/output/mx6sl/lib/libsdk.a(text_color.o)
g_TextColorMagenta                                /home/leon/git/swp-report/iMX6_Platform_SDK/output/mx6sl/lib/libsdk.a(text_color.o)
                                                  /home/leon/git/swp-report/iMX6_Platform_SDK/output/mx6sl/lib/libsdk.a(menu.o)
g_TextColorOrange                                 /home/leon/git/swp-report/iMX6_Platform_SDK/output/mx6sl/lib/libsdk.a(text_color.o)
g_TextColorPurple                                 /home/leon/git/swp-report/iMX6_Platform_SDK/output/mx6sl/lib/libsdk.a(text_color.o)
g_TextColorRed                                    /home/leon/git/swp-report/iMX6_Platform_SDK/output/mx6sl/lib/libsdk.a(text_color.o)
                                                  /home/leon/git/swp-report/iMX6_Platform_SDK/output/mx6sl/lib/libsdk.a(system_util.o)
                                                  /home/leon/git/swp-report/iMX6_Platform_SDK/output/mx6sl/lib/libsdk.a(menu.o)
g_TextColorWhite                                  /home/leon/git/swp-report/iMX6_Platform_SDK/output/mx6sl/lib/libsdk.a(text_color.o)
g_TextColorYellow                                 /home/leon/git/swp-report/iMX6_Platform_SDK/output/mx6sl/lib/libsdk.a(text_color.o)
                                                  /home/leon/git/swp-report/iMX6_Platform_SDK/output/mx6sl/lib/libsdk.a(menu.o)
g_at24cx_i2c_device                               /home/leon/git/swp-report/iMX6_Platform_SDK/output/mx6sl/lib/libboard_evk_rev_a.a(board_i2c.o)
                                                  /home/leon/git/swp-report/iMX6_Platform_SDK/output/mx6sl/sdk_unit_test/evk_rev_a/libsdk_unit_test.a(at24cxx.o)
g_camera_i2c_port                                 /home/leon/git/swp-report/iMX6_Platform_SDK/output/mx6sl/lib/libboard_evk_rev_a.a(board_camera.o)
                                                  /home/leon/git/swp-report/iMX6_Platform_SDK/output/mx6sl/lib/libsdk.a(smd_sensor.o)
g_camera_modes                                    /home/leon/git/swp-report/iMX6_Platform_SDK/output/mx6sl/lib/libsdk.a(camera_profile.o)
g_camera_profiles                                 /home/leon/git/swp-report/iMX6_Platform_SDK/output/mx6sl/lib/libsdk.a(camera_profile.o)
                                                  /home/leon/git/swp-report/iMX6_Platform_SDK/output/mx6sl/lib/libsdk.a(smd_sensor.o)
g_camera_test_name                                /home/leon/git/swp-report/iMX6_Platform_SDK/output/mx6sl/sdk_unit_test/evk_rev_a/libsdk_unit_test.a(camera_test.o)
g_debug_uart_port                                 /home/leon/git/swp-report/iMX6_Platform_SDK/output/mx6sl/lib/libboard_evk_rev_a.a(hardware_modules.o)
                                                  /home/leon/git/swp-report/iMX6_Platform_SDK/output/mx6sl/lib/libsdk.a(runtime_support.o)
                                                  /home/leon/git/swp-report/iMX6_Platform_SDK/output/mx6sl/lib/libsdk.a(system_util.o)
                                                  /home/leon/git/swp-report/iMX6_Platform_SDK/output/mx6sl/sdk_unit_test/evk_rev_a/obj/apps/common/print_clock_info.o
                                                  /home/leon/git/swp-report/iMX6_Platform_SDK/output/mx6sl/sdk_unit_test/evk_rev_a/obj/apps/common/platform_init.o
g_epdc_test_name                                  /home/leon/git/swp-report/iMX6_Platform_SDK/output/mx6sl/sdk_unit_test/evk_rev_a/libsdk_unit_test.a(epdc_test.o)
g_fec_enet_test_name                              /home/leon/git/swp-report/iMX6_Platform_SDK/output/mx6sl/sdk_unit_test/evk_rev_a/libsdk_unit_test.a(fec_test.o)
g_interrupt_handlers                              /home/leon/git/swp-report/iMX6_Platform_SDK/output/mx6sl/lib/libsdk.a(interrupt.o)
g_lcd_display_test_name                           /home/leon/git/swp-report/iMX6_Platform_SDK/output/mx6sl/sdk_unit_test/evk_rev_a/libsdk_unit_test.a(lcdif_display.o)
g_microsecondTimerMultiple                        /home/leon/git/swp-report/iMX6_Platform_SDK/output/mx6sl/lib/libsdk.a(timer.o)
g_mt9p111_af_firmware                             /home/leon/git/swp-report/iMX6_Platform_SDK/output/mx6sl/lib/libsdk.a(camera_profile.o)
g_mt9p111_af_ready                                /home/leon/git/swp-report/iMX6_Platform_SDK/output/mx6sl/lib/libsdk.a(camera_profile.o)
g_mt9p111_af_trigger                              /home/leon/git/swp-report/iMX6_Platform_SDK/output/mx6sl/lib/libsdk.a(camera_profile.o)
g_mt9p111_mode_vga_640_480_30fps                  /home/leon/git/swp-report/iMX6_Platform_SDK/output/mx6sl/lib/libsdk.a(camera_profile.o)
g_mt9p111_sensor_detection                        /home/leon/git/swp-report/iMX6_Platform_SDK/output/mx6sl/lib/libsdk.a(camera_profile.o)
g_ov3640_mode_vga_640_480_30fps                   /home/leon/git/swp-report/iMX6_Platform_SDK/output/mx6sl/lib/libsdk.a(camera_profile.o)
g_ov3640_sensor_detection                         /home/leon/git/swp-report/iMX6_Platform_SDK/output/mx6sl/lib/libsdk.a(camera_profile.o)
g_ov5640_mode_vga_640_480_30fps                   /home/leon/git/swp-report/iMX6_Platform_SDK/output/mx6sl/lib/libsdk.a(camera_profile.o)
g_ov5640_sensor_detection                         /home/leon/git/swp-report/iMX6_Platform_SDK/output/mx6sl/lib/libsdk.a(camera_profile.o)
g_ov5642_af_firmware                              /home/leon/git/swp-report/iMX6_Platform_SDK/output/mx6sl/lib/libsdk.a(camera_profile.o)
g_ov5642_af_ready                                 /home/leon/git/swp-report/iMX6_Platform_SDK/output/mx6sl/lib/libsdk.a(camera_profile.o)
g_ov5642_af_trigger                               /home/leon/git/swp-report/iMX6_Platform_SDK/output/mx6sl/lib/libsdk.a(camera_profile.o)
g_ov5642_mode_vga_640_480_30fps                   /home/leon/git/swp-report/iMX6_Platform_SDK/output/mx6sl/lib/libsdk.a(camera_profile.o)
g_ov5642_sensor_detection                         /home/leon/git/swp-report/iMX6_Platform_SDK/output/mx6sl/lib/libsdk.a(camera_profile.o)
g_pmic_da9053_i2c_device                          /home/leon/git/swp-report/iMX6_Platform_SDK/output/mx6sl/lib/libboard_evk_rev_a.a(board_i2c.o)
g_pmic_ltc3589_i2c_device                         /home/leon/git/swp-report/iMX6_Platform_SDK/output/mx6sl/lib/libboard_evk_rev_a.a(board_i2c.o)
g_pmic_max17135_i2c_device                        /home/leon/git/swp-report/iMX6_Platform_SDK/output/mx6sl/lib/libboard_evk_rev_a.a(board_i2c.o)
g_pmic_pf0100_i2c_device                          /home/leon/git/swp-report/iMX6_Platform_SDK/output/mx6sl/lib/libboard_evk_rev_a.a(board_i2c.o)
                                                  /home/leon/git/swp-report/iMX6_Platform_SDK/output/mx6sl/lib/libsdk.a(pf0100.o)
g_pmic_pf0100_i2c_device_id_test_name             /home/leon/git/swp-report/iMX6_Platform_SDK/output/mx6sl/lib/libsdk.a(pf0100.o)
g_pwm_test_end                                    /home/leon/git/swp-report/iMX6_Platform_SDK/output/mx6sl/sdk_unit_test/evk_rev_a/libsdk_unit_test.a(pwm_output.o)
                                                  /home/leon/git/swp-report/iMX6_Platform_SDK/output/mx6sl/lib/libsdk.a(pwm.o)
g_system_timer_port                               /home/leon/git/swp-report/iMX6_Platform_SDK/output/mx6sl/lib/libboard_evk_rev_a.a(hardware_modules.o)
                                                  /home/leon/git/swp-report/iMX6_Platform_SDK/output/mx6sl/lib/libsdk.a(timer.o)
g_uart_test_name                                  /home/leon/git/swp-report/iMX6_Platform_SDK/output/mx6sl/sdk_unit_test/evk_rev_a/libsdk_unit_test.a(uart_test.o)
g_vectNum                                         /home/leon/git/swp-report/iMX6_Platform_SDK/output/mx6sl/lib/libsdk.a(interrupt.o)
g_wm8962_i2c_device                               /home/leon/git/swp-report/iMX6_Platform_SDK/output/mx6sl/lib/libboard_evk_rev_a.a(board_i2c.o)
                                                  /home/leon/git/swp-report/iMX6_Platform_SDK/output/mx6sl/lib/libsdk.a(wm8962.o)
get_arm_private_peripheral_base                   /home/leon/git/swp-report/iMX6_Platform_SDK/output/mx6sl/lib/libsdk.a(cortexA9.o)
                                                  /home/leon/git/swp-report/iMX6_Platform_SDK/output/mx6sl/lib/libsdk.a(gic.o)
get_board_id                                      /home/leon/git/swp-report/iMX6_Platform_SDK/output/mx6sl/lib/libsdk.a(board_id.o)
                                                  /home/leon/git/swp-report/iMX6_Platform_SDK/output/mx6sl/sdk_unit_test/evk_rev_a/obj/apps/common/print_version.o
get_color_supported                               /home/leon/git/swp-report/iMX6_Platform_SDK/output/mx6sl/lib/libsdk.a(text_color.o)
get_input_hex                                     /home/leon/git/swp-report/iMX6_Platform_SDK/output/mx6sl/lib/libsdk.a(system_util.o)
                                                  /home/leon/git/swp-report/iMX6_Platform_SDK/output/mx6sl/sdk_unit_test/evk_rev_a/libsdk_unit_test.a(ocotp_test.o)
get_main_clock                                    /home/leon/git/swp-report/iMX6_Platform_SDK/output/mx6sl/lib/libsdk.a(ccm_pll.o)
                                                  /home/leon/git/swp-report/iMX6_Platform_SDK/output/mx6sl/lib/libsdk.a(pwm.o)
                                                  /home/leon/git/swp-report/iMX6_Platform_SDK/output/mx6sl/lib/libsdk.a(imx_i2c.o)
                                                  /home/leon/git/swp-report/iMX6_Platform_SDK/output/mx6sl/lib/libsdk.a(fec_drv.o)
                                                  /home/leon/git/swp-report/iMX6_Platform_SDK/output/mx6sl/sdk_unit_test/evk_rev_a/libsdk_unit_test.a(mem_2_mem.o)
                                                  /home/leon/git/swp-report/iMX6_Platform_SDK/output/mx6sl/sdk_unit_test/evk_rev_a/libsdk_unit_test.a(gpt_test.o)
                                                  /home/leon/git/swp-report/iMX6_Platform_SDK/output/mx6sl/sdk_unit_test/evk_rev_a/libsdk_unit_test.a(epit_test.o)
                                                  /home/leon/git/swp-report/iMX6_Platform_SDK/output/mx6sl/sdk_unit_test/evk_rev_a/libsdk_unit_test.a(cpu_wp_test.o)
                                                  /home/leon/git/swp-report/iMX6_Platform_SDK/output/mx6sl/lib/libsdk.a(timer.o)
                                                  /home/leon/git/swp-report/iMX6_Platform_SDK/output/mx6sl/sdk_unit_test/evk_rev_a/obj/apps/common/print_clock_info.o
get_menu_item                                     /home/leon/git/swp-report/iMX6_Platform_SDK/output/mx6sl/lib/libsdk.a(usb_common.o)
                                                  /home/leon/git/swp-report/iMX6_Platform_SDK/output/mx6sl/sdk_unit_test/evk_rev_a/libsdk_unit_test.a(usb0_host_testmodes_test.o)
                                                  /home/leon/git/swp-report/iMX6_Platform_SDK/output/mx6sl/sdk_unit_test/evk_rev_a/libsdk_unit_test.a(usb_test.o)
get_peri_clock                                    /home/leon/git/swp-report/iMX6_Platform_SDK/output/mx6sl/lib/libsdk.a(ccm_pll.o)
                                                  /home/leon/git/swp-report/iMX6_Platform_SDK/output/mx6sl/lib/libsdk.a(imx_uart.o)
                                                  /home/leon/git/swp-report/iMX6_Platform_SDK/output/mx6sl/sdk_unit_test/evk_rev_a/obj/apps/common/print_clock_info.o
gicTestDone                                       /home/leon/git/swp-report/iMX6_Platform_SDK/output/mx6sl/sdk_unit_test/evk_rev_a/libsdk_unit_test.a(gic_test.o)
gic_cpu_enable                                    /home/leon/git/swp-report/iMX6_Platform_SDK/output/mx6sl/lib/libsdk.a(gic.o)
gic_enable                                        /home/leon/git/swp-report/iMX6_Platform_SDK/output/mx6sl/lib/libsdk.a(gic.o)
gic_enable_irq                                    /home/leon/git/swp-report/iMX6_Platform_SDK/output/mx6sl/lib/libsdk.a(gic.o)
                                                  /home/leon/git/swp-report/iMX6_Platform_SDK/output/mx6sl/lib/libsdk.a(interrupt.o)
gic_init                                          /home/leon/git/swp-report/iMX6_Platform_SDK/output/mx6sl/lib/libsdk.a(gic.o)
                                                  /home/leon/git/swp-report/iMX6_Platform_SDK/output/mx6sl/sdk_unit_test/evk_rev_a/obj/apps/common/platform_init.o
gic_init_cpu                                      /home/leon/git/swp-report/iMX6_Platform_SDK/output/mx6sl/lib/libsdk.a(gic.o)
gic_read_irq_ack                                  /home/leon/git/swp-report/iMX6_Platform_SDK/output/mx6sl/lib/libsdk.a(gic.o)
                                                  /home/leon/git/swp-report/iMX6_Platform_SDK/output/mx6sl/lib/libsdk.a(interrupt.o)
gic_send_sgi                                      /home/leon/git/swp-report/iMX6_Platform_SDK/output/mx6sl/lib/libsdk.a(gic.o)
                                                  /home/leon/git/swp-report/iMX6_Platform_SDK/output/mx6sl/sdk_unit_test/evk_rev_a/libsdk_unit_test.a(gic_test.o)
gic_set_cpu_priority_mask                         /home/leon/git/swp-report/iMX6_Platform_SDK/output/mx6sl/lib/libsdk.a(gic.o)
gic_set_cpu_target                                /home/leon/git/swp-report/iMX6_Platform_SDK/output/mx6sl/lib/libsdk.a(gic.o)
                                                  /home/leon/git/swp-report/iMX6_Platform_SDK/output/mx6sl/lib/libsdk.a(interrupt.o)
gic_set_irq_priority                              /home/leon/git/swp-report/iMX6_Platform_SDK/output/mx6sl/lib/libsdk.a(gic.o)
                                                  /home/leon/git/swp-report/iMX6_Platform_SDK/output/mx6sl/lib/libsdk.a(interrupt.o)
gic_set_irq_security                              /home/leon/git/swp-report/iMX6_Platform_SDK/output/mx6sl/lib/libsdk.a(gic.o)
                                                  /home/leon/git/swp-report/iMX6_Platform_SDK/output/mx6sl/lib/libsdk.a(interrupt.o)
gic_sgi_test_handler                              /home/leon/git/swp-report/iMX6_Platform_SDK/output/mx6sl/sdk_unit_test/evk_rev_a/libsdk_unit_test.a(gic_test.o)
gic_test                                          /home/leon/git/swp-report/iMX6_Platform_SDK/output/mx6sl/sdk_unit_test/evk_rev_a/libsdk_unit_test.a(gic_test.o)
                                                  /home/leon/git/swp-report/iMX6_Platform_SDK/output/mx6sl/sdk_unit_test/evk_rev_a/obj/apps/sdk_unit_test/src/all_test.o
gic_write_end_of_irq                              /home/leon/git/swp-report/iMX6_Platform_SDK/output/mx6sl/lib/libsdk.a(gic.o)
                                                  /home/leon/git/swp-report/iMX6_Platform_SDK/output/mx6sl/lib/libsdk.a(interrupt.o)
gpio1_iomux_config                                /home/leon/git/swp-report/iMX6_Platform_SDK/output/mx6sl/lib/libboard_evk_rev_a.a(gpio1_iomux_config.o)
                                                  /home/leon/git/swp-report/iMX6_Platform_SDK/output/mx6sl/lib/libboard_evk_rev_a.a(iomux_config.o)
gpio2_iomux_config                                /home/leon/git/swp-report/iMX6_Platform_SDK/output/mx6sl/lib/libboard_evk_rev_a.a(iomux_config.o)
gpio3_iomux_config                                /home/leon/git/swp-report/iMX6_Platform_SDK/output/mx6sl/lib/libboard_evk_rev_a.a(iomux_config.o)
gpio4_iomux_config                                /home/leon/git/swp-report/iMX6_Platform_SDK/output/mx6sl/lib/libboard_evk_rev_a.a(gpio4_iomux_config.o)
                                                  /home/leon/git/swp-report/iMX6_Platform_SDK/output/mx6sl/lib/libboard_evk_rev_a.a(iomux_config.o)
gpio5_iomux_config                                /home/leon/git/swp-report/iMX6_Platform_SDK/output/mx6sl/lib/libboard_evk_rev_a.a(iomux_config.o)
gpio_clear_interrupt                              /home/leon/git/swp-report/iMX6_Platform_SDK/output/mx6sl/lib/libsdk.a(gpio.o)
gpio_get_direction                                /home/leon/git/swp-report/iMX6_Platform_SDK/output/mx6sl/lib/libsdk.a(gpio.o)
gpio_get_interrupt_status                         /home/leon/git/swp-report/iMX6_Platform_SDK/output/mx6sl/lib/libsdk.a(gpio.o)
gpio_get_level                                    /home/leon/git/swp-report/iMX6_Platform_SDK/output/mx6sl/lib/libsdk.a(gpio.o)
gpio_get_port_count                               /home/leon/git/swp-report/iMX6_Platform_SDK/output/mx6sl/lib/libsdk.a(gpio.o)
gpio_set_direction                                /home/leon/git/swp-report/iMX6_Platform_SDK/output/mx6sl/lib/libsdk.a(gpio.o)
                                                  /home/leon/git/swp-report/iMX6_Platform_SDK/output/mx6sl/lib/libboard_evk_rev_a.a(board_display.o)
                                                  /home/leon/git/swp-report/iMX6_Platform_SDK/output/mx6sl/lib/libboard_evk_rev_a.a(board_camera.o)
                                                  /home/leon/git/swp-report/iMX6_Platform_SDK/output/mx6sl/sdk_unit_test/evk_rev_a/libsdk_unit_test.a(fec_test.o)
gpio_set_gpio                                     /home/leon/git/swp-report/iMX6_Platform_SDK/output/mx6sl/lib/libsdk.a(gpio.o)
                                                  /home/leon/git/swp-report/iMX6_Platform_SDK/output/mx6sl/lib/libboard_evk_rev_a.a(board_display.o)
                                                  /home/leon/git/swp-report/iMX6_Platform_SDK/output/mx6sl/lib/libboard_evk_rev_a.a(board_camera.o)
gpio_set_interrupt_config                         /home/leon/git/swp-report/iMX6_Platform_SDK/output/mx6sl/lib/libsdk.a(gpio.o)
gpio_set_interrupt_mask                           /home/leon/git/swp-report/iMX6_Platform_SDK/output/mx6sl/lib/libsdk.a(gpio.o)
gpio_set_level                                    /home/leon/git/swp-report/iMX6_Platform_SDK/output/mx6sl/lib/libsdk.a(gpio.o)
                                                  /home/leon/git/swp-report/iMX6_Platform_SDK/output/mx6sl/lib/libboard_evk_rev_a.a(board_display.o)
                                                  /home/leon/git/swp-report/iMX6_Platform_SDK/output/mx6sl/lib/libboard_evk_rev_a.a(board_camera.o)
                                                  /home/leon/git/swp-report/iMX6_Platform_SDK/output/mx6sl/sdk_unit_test/evk_rev_a/libsdk_unit_test.a(fec_test.o)
gpt_counter_disable                               /home/leon/git/swp-report/iMX6_Platform_SDK/output/mx6sl/lib/libsdk.a(gpt.o)
                                                  /home/leon/git/swp-report/iMX6_Platform_SDK/output/mx6sl/sdk_unit_test/evk_rev_a/libsdk_unit_test.a(gpt_test.o)
gpt_counter_enable                                /home/leon/git/swp-report/iMX6_Platform_SDK/output/mx6sl/lib/libsdk.a(gpt.o)
                                                  /home/leon/git/swp-report/iMX6_Platform_SDK/output/mx6sl/sdk_unit_test/evk_rev_a/libsdk_unit_test.a(gpt_test.o)
gpt_get_capture_event                             /home/leon/git/swp-report/iMX6_Platform_SDK/output/mx6sl/lib/libsdk.a(gpt.o)
                                                  /home/leon/git/swp-report/iMX6_Platform_SDK/output/mx6sl/sdk_unit_test/evk_rev_a/libsdk_unit_test.a(gpt_test.o)
gpt_get_compare_event                             /home/leon/git/swp-report/iMX6_Platform_SDK/output/mx6sl/lib/libsdk.a(gpt.o)
                                                  /home/leon/git/swp-report/iMX6_Platform_SDK/output/mx6sl/sdk_unit_test/evk_rev_a/libsdk_unit_test.a(gpt_test.o)
gpt_get_rollover_event                            /home/leon/git/swp-report/iMX6_Platform_SDK/output/mx6sl/lib/libsdk.a(gpt.o)
                                                  /home/leon/git/swp-report/iMX6_Platform_SDK/output/mx6sl/sdk_unit_test/evk_rev_a/libsdk_unit_test.a(gpt_test.o)
gpt_in_capture_test                               /home/leon/git/swp-report/iMX6_Platform_SDK/output/mx6sl/sdk_unit_test/evk_rev_a/libsdk_unit_test.a(gpt_test.o)
gpt_init                                          /home/leon/git/swp-report/iMX6_Platform_SDK/output/mx6sl/lib/libsdk.a(gpt.o)
                                                  /home/leon/git/swp-report/iMX6_Platform_SDK/output/mx6sl/sdk_unit_test/evk_rev_a/libsdk_unit_test.a(gpt_test.o)
gpt_interrupt_routine                             /home/leon/git/swp-report/iMX6_Platform_SDK/output/mx6sl/sdk_unit_test/evk_rev_a/libsdk_unit_test.a(gpt_test.o)
gpt_iomux_config                                  /home/leon/git/swp-report/iMX6_Platform_SDK/output/mx6sl/lib/libboard_evk_rev_a.a(iomux_config.o)
gpt_out_compare_test                              /home/leon/git/swp-report/iMX6_Platform_SDK/output/mx6sl/sdk_unit_test/evk_rev_a/libsdk_unit_test.a(gpt_test.o)
gpt_set_capture_event                             /home/leon/git/swp-report/iMX6_Platform_SDK/output/mx6sl/lib/libsdk.a(gpt.o)
                                                  /home/leon/git/swp-report/iMX6_Platform_SDK/output/mx6sl/sdk_unit_test/evk_rev_a/libsdk_unit_test.a(gpt_test.o)
gpt_set_compare_event                             /home/leon/git/swp-report/iMX6_Platform_SDK/output/mx6sl/lib/libsdk.a(gpt.o)
                                                  /home/leon/git/swp-report/iMX6_Platform_SDK/output/mx6sl/sdk_unit_test/evk_rev_a/libsdk_unit_test.a(gpt_test.o)
gpt_setup_interrupt                               /home/leon/git/swp-report/iMX6_Platform_SDK/output/mx6sl/lib/libsdk.a(gpt.o)
                                                  /home/leon/git/swp-report/iMX6_Platform_SDK/output/mx6sl/sdk_unit_test/evk_rev_a/libsdk_unit_test.a(gpt_test.o)
gpt_test                                          /home/leon/git/swp-report/iMX6_Platform_SDK/output/mx6sl/sdk_unit_test/evk_rev_a/libsdk_unit_test.a(gpt_test.o)
                                                  /home/leon/git/swp-report/iMX6_Platform_SDK/output/mx6sl/sdk_unit_test/evk_rev_a/obj/apps/sdk_unit_test/src/all_test.o
hal_delay_us                                      /home/leon/git/swp-report/iMX6_Platform_SDK/output/mx6sl/lib/libsdk.a(timer.o)
                                                  /home/leon/git/swp-report/iMX6_Platform_SDK/output/mx6sl/lib/libboard_evk_rev_a.a(board_camera.o)
                                                  /home/leon/git/swp-report/iMX6_Platform_SDK/output/mx6sl/lib/libsdk.a(usdhc_sd.o)
                                                  /home/leon/git/swp-report/iMX6_Platform_SDK/output/mx6sl/lib/libsdk.a(usdhc_mmc.o)
                                                  /home/leon/git/swp-report/iMX6_Platform_SDK/output/mx6sl/lib/libsdk.a(usdhc_host.o)
                                                  /home/leon/git/swp-report/iMX6_Platform_SDK/output/mx6sl/lib/libsdk.a(ecspi.o)
                                                  /home/leon/git/swp-report/iMX6_Platform_SDK/output/mx6sl/lib/libsdk.a(pxp_drv.o)
                                                  /home/leon/git/swp-report/iMX6_Platform_SDK/output/mx6sl/lib/libsdk.a(lcdif_drv.o)
                                                  /home/leon/git/swp-report/iMX6_Platform_SDK/output/mx6sl/lib/libsdk.a(fec_drv.o)
                                                  /home/leon/git/swp-report/iMX6_Platform_SDK/output/mx6sl/lib/libsdk.a(smd_sensor.o)
                                                  /home/leon/git/swp-report/iMX6_Platform_SDK/output/mx6sl/lib/libsdk.a(csi_drv.o)
                                                  /home/leon/git/swp-report/iMX6_Platform_SDK/output/mx6sl/lib/libsdk.a(wm8962.o)
                                                  /home/leon/git/swp-report/iMX6_Platform_SDK/output/mx6sl/sdk_unit_test/evk_rev_a/libsdk_unit_test.a(spi_nor_numonyx.o)
                                                  /home/leon/git/swp-report/iMX6_Platform_SDK/output/mx6sl/sdk_unit_test/evk_rev_a/libsdk_unit_test.a(at24cxx.o)
                                                  /home/leon/git/swp-report/iMX6_Platform_SDK/output/mx6sl/sdk_unit_test/evk_rev_a/libsdk_unit_test.a(fec_test.o)
                                                  /home/leon/git/swp-report/iMX6_Platform_SDK/output/mx6sl/sdk_unit_test/evk_rev_a/libsdk_unit_test.a(timer_test.o)
                                                  /home/leon/git/swp-report/iMX6_Platform_SDK/output/mx6sl/sdk_unit_test/evk_rev_a/libsdk_unit_test.a(gpt_test.o)
                                                  /home/leon/git/swp-report/iMX6_Platform_SDK/output/mx6sl/sdk_unit_test/evk_rev_a/libsdk_unit_test.a(epit_test.o)
                                                  /home/leon/git/swp-report/iMX6_Platform_SDK/output/mx6sl/sdk_unit_test/evk_rev_a/libsdk_unit_test.a(cpu_wp_test.o)
hid_device_enum                                   /home/leon/git/swp-report/iMX6_Platform_SDK/output/mx6sl/sdk_unit_test/evk_rev_a/libsdk_unit_test.a(usb0_device_mouse_test.o)
host_cfg_block                                    /home/leon/git/swp-report/iMX6_Platform_SDK/output/mx6sl/lib/libsdk.a(usdhc_host.o)
                                                  /home/leon/git/swp-report/iMX6_Platform_SDK/output/mx6sl/lib/libsdk.a(usdhc_mmc.o)
                                                  /home/leon/git/swp-report/iMX6_Platform_SDK/output/mx6sl/lib/libsdk.a(usdhc.o)
host_cfg_clock                                    /home/leon/git/swp-report/iMX6_Platform_SDK/output/mx6sl/lib/libsdk.a(usdhc_host.o)
                                                  /home/leon/git/swp-report/iMX6_Platform_SDK/output/mx6sl/lib/libsdk.a(usdhc_sd.o)
                                                  /home/leon/git/swp-report/iMX6_Platform_SDK/output/mx6sl/lib/libsdk.a(usdhc_mmc.o)
                                                  /home/leon/git/swp-report/iMX6_Platform_SDK/output/mx6sl/lib/libsdk.a(usdhc.o)
host_clear_fifo                                   /home/leon/git/swp-report/iMX6_Platform_SDK/output/mx6sl/lib/libsdk.a(usdhc_host.o)
                                                  /home/leon/git/swp-report/iMX6_Platform_SDK/output/mx6sl/lib/libsdk.a(usdhc.o)
host_data_read                                    /home/leon/git/swp-report/iMX6_Platform_SDK/output/mx6sl/lib/libsdk.a(usdhc_host.o)
                                                  /home/leon/git/swp-report/iMX6_Platform_SDK/output/mx6sl/lib/libsdk.a(usdhc_mmc.o)
                                                  /home/leon/git/swp-report/iMX6_Platform_SDK/output/mx6sl/lib/libsdk.a(usdhc.o)
host_data_write                                   /home/leon/git/swp-report/iMX6_Platform_SDK/output/mx6sl/lib/libsdk.a(usdhc_host.o)
                                                  /home/leon/git/swp-report/iMX6_Platform_SDK/output/mx6sl/lib/libsdk.a(usdhc.o)
host_init                                         /home/leon/git/swp-report/iMX6_Platform_SDK/output/mx6sl/lib/libsdk.a(usdhc_host.o)
                                                  /home/leon/git/swp-report/iMX6_Platform_SDK/output/mx6sl/lib/libsdk.a(usdhc.o)
host_init_active                                  /home/leon/git/swp-report/iMX6_Platform_SDK/output/mx6sl/lib/libsdk.a(usdhc_host.o)
                                                  /home/leon/git/swp-report/iMX6_Platform_SDK/output/mx6sl/lib/libsdk.a(usdhc.o)
host_read_response                                /home/leon/git/swp-report/iMX6_Platform_SDK/output/mx6sl/lib/libsdk.a(usdhc_host.o)
                                                  /home/leon/git/swp-report/iMX6_Platform_SDK/output/mx6sl/lib/libsdk.a(usdhc_sd.o)
                                                  /home/leon/git/swp-report/iMX6_Platform_SDK/output/mx6sl/lib/libsdk.a(usdhc_mmc.o)
                                                  /home/leon/git/swp-report/iMX6_Platform_SDK/output/mx6sl/lib/libsdk.a(usdhc.o)
host_reset                                        /home/leon/git/swp-report/iMX6_Platform_SDK/output/mx6sl/lib/libsdk.a(usdhc_host.o)
                                                  /home/leon/git/swp-report/iMX6_Platform_SDK/output/mx6sl/lib/libsdk.a(usdhc.o)
host_send_cmd                                     /home/leon/git/swp-report/iMX6_Platform_SDK/output/mx6sl/lib/libsdk.a(usdhc_host.o)
                                                  /home/leon/git/swp-report/iMX6_Platform_SDK/output/mx6sl/lib/libsdk.a(usdhc_sd.o)
                                                  /home/leon/git/swp-report/iMX6_Platform_SDK/output/mx6sl/lib/libsdk.a(usdhc_mmc.o)
                                                  /home/leon/git/swp-report/iMX6_Platform_SDK/output/mx6sl/lib/libsdk.a(usdhc.o)
host_set_bus_width                                /home/leon/git/swp-report/iMX6_Platform_SDK/output/mx6sl/lib/libsdk.a(usdhc_host.o)
                                                  /home/leon/git/swp-report/iMX6_Platform_SDK/output/mx6sl/lib/libsdk.a(usdhc_sd.o)
                                                  /home/leon/git/swp-report/iMX6_Platform_SDK/output/mx6sl/lib/libsdk.a(usdhc_mmc.o)
host_setup_adma                                   /home/leon/git/swp-report/iMX6_Platform_SDK/output/mx6sl/lib/libsdk.a(usdhc_host.o)
                                                  /home/leon/git/swp-report/iMX6_Platform_SDK/output/mx6sl/lib/libsdk.a(usdhc.o)
i2c1_iomux_config                                 /home/leon/git/swp-report/iMX6_Platform_SDK/output/mx6sl/lib/libboard_evk_rev_a.a(i2c1_iomux_config.o)
                                                  /home/leon/git/swp-report/iMX6_Platform_SDK/output/mx6sl/lib/libboard_evk_rev_a.a(i2c_iomux_config.o)
                                                  /home/leon/git/swp-report/iMX6_Platform_SDK/output/mx6sl/lib/libboard_evk_rev_a.a(iomux_config.o)
i2c2_iomux_config                                 /home/leon/git/swp-report/iMX6_Platform_SDK/output/mx6sl/lib/libboard_evk_rev_a.a(i2c2_iomux_config.o)
                                                  /home/leon/git/swp-report/iMX6_Platform_SDK/output/mx6sl/lib/libboard_evk_rev_a.a(i2c_iomux_config.o)
                                                  /home/leon/git/swp-report/iMX6_Platform_SDK/output/mx6sl/lib/libboard_evk_rev_a.a(iomux_config.o)
i2c3_iomux_config                                 /home/leon/git/swp-report/iMX6_Platform_SDK/output/mx6sl/lib/libboard_evk_rev_a.a(i2c3_iomux_config.o)
                                                  /home/leon/git/swp-report/iMX6_Platform_SDK/output/mx6sl/lib/libboard_evk_rev_a.a(i2c_iomux_config.o)
                                                  /home/leon/git/swp-report/iMX6_Platform_SDK/output/mx6sl/lib/libboard_evk_rev_a.a(iomux_config.o)
i2c_eeprom_at24cxx_test                           /home/leon/git/swp-report/iMX6_Platform_SDK/output/mx6sl/sdk_unit_test/evk_rev_a/libsdk_unit_test.a(at24cxx.o)
                                                  /home/leon/git/swp-report/iMX6_Platform_SDK/output/mx6sl/sdk_unit_test/evk_rev_a/libsdk_unit_test.a(i2c_test.o)
i2c_get_request_instance                          /home/leon/git/swp-report/iMX6_Platform_SDK/output/mx6sl/lib/libsdk.a(imx_i2c.o)
                                                  /home/leon/git/swp-report/iMX6_Platform_SDK/output/mx6sl/lib/libsdk.a(imx_i2c_slave.o)
i2c_imx6_slave_test                               /home/leon/git/swp-report/iMX6_Platform_SDK/output/mx6sl/sdk_unit_test/evk_rev_a/libsdk_unit_test.a(imx6_i2c_device.o)
                                                  /home/leon/git/swp-report/iMX6_Platform_SDK/output/mx6sl/sdk_unit_test/evk_rev_a/libsdk_unit_test.a(i2c_test.o)
i2c_init                                          /home/leon/git/swp-report/iMX6_Platform_SDK/output/mx6sl/lib/libsdk.a(imx_i2c.o)
                                                  /home/leon/git/swp-report/iMX6_Platform_SDK/output/mx6sl/lib/libsdk.a(pf0100.o)
                                                  /home/leon/git/swp-report/iMX6_Platform_SDK/output/mx6sl/lib/libsdk.a(smd_sensor.o)
                                                  /home/leon/git/swp-report/iMX6_Platform_SDK/output/mx6sl/lib/libsdk.a(wm8962.o)
                                                  /home/leon/git/swp-report/iMX6_Platform_SDK/output/mx6sl/sdk_unit_test/evk_rev_a/libsdk_unit_test.a(at24cxx.o)
                                                  /home/leon/git/swp-report/iMX6_Platform_SDK/output/mx6sl/sdk_unit_test/evk_rev_a/libsdk_unit_test.a(imx6_i2c_device.o)
i2c_iomux_config                                  /home/leon/git/swp-report/iMX6_Platform_SDK/output/mx6sl/lib/libboard_evk_rev_a.a(i2c_iomux_config.o)
                                                  /home/leon/git/swp-report/iMX6_Platform_SDK/output/mx6sl/lib/libsdk.a(imx_i2c.o)
i2c_read                                          /home/leon/git/swp-report/iMX6_Platform_SDK/output/mx6sl/lib/libsdk.a(imx_i2c.o)
                                                  /home/leon/git/swp-report/iMX6_Platform_SDK/output/mx6sl/sdk_unit_test/evk_rev_a/libsdk_unit_test.a(at24cxx.o)
i2c_setup_interrupt                               /home/leon/git/swp-report/iMX6_Platform_SDK/output/mx6sl/lib/libsdk.a(imx_i2c.o)
                                                  /home/leon/git/swp-report/iMX6_Platform_SDK/output/mx6sl/lib/libsdk.a(imx_i2c_slave.o)
i2c_slave_handler                                 /home/leon/git/swp-report/iMX6_Platform_SDK/output/mx6sl/lib/libsdk.a(imx_i2c_slave.o)
i2c_slave_interrupt_routine                       /home/leon/git/swp-report/iMX6_Platform_SDK/output/mx6sl/lib/libsdk.a(imx_i2c_slave.o)
i2c_slave_xfer                                    /home/leon/git/swp-report/iMX6_Platform_SDK/output/mx6sl/lib/libsdk.a(imx_i2c_slave.o)
                                                  /home/leon/git/swp-report/iMX6_Platform_SDK/output/mx6sl/sdk_unit_test/evk_rev_a/libsdk_unit_test.a(imx6_i2c_device.o)
i2c_test                                          /home/leon/git/swp-report/iMX6_Platform_SDK/output/mx6sl/sdk_unit_test/evk_rev_a/libsdk_unit_test.a(i2c_test.o)
                                                  /home/leon/git/swp-report/iMX6_Platform_SDK/output/mx6sl/sdk_unit_test/evk_rev_a/obj/apps/sdk_unit_test/src/all_test.o
i2c_write                                         /home/leon/git/swp-report/iMX6_Platform_SDK/output/mx6sl/lib/libsdk.a(imx_i2c.o)
                                                  /home/leon/git/swp-report/iMX6_Platform_SDK/output/mx6sl/sdk_unit_test/evk_rev_a/libsdk_unit_test.a(at24cxx.o)
i2c_xfer                                          /home/leon/git/swp-report/iMX6_Platform_SDK/output/mx6sl/lib/libsdk.a(imx_i2c.o)
                                                  /home/leon/git/swp-report/iMX6_Platform_SDK/output/mx6sl/lib/libsdk.a(pf0100.o)
                                                  /home/leon/git/swp-report/iMX6_Platform_SDK/output/mx6sl/lib/libsdk.a(smd_sensor.o)
                                                  /home/leon/git/swp-report/iMX6_Platform_SDK/output/mx6sl/lib/libsdk.a(wm8962.o)
image_center_copy                                 /home/leon/git/swp-report/iMX6_Platform_SDK/output/mx6sl/lib/libsdk.a(lcdif_drv.o)
                                                  /home/leon/git/swp-report/iMX6_Platform_SDK/output/mx6sl/sdk_unit_test/evk_rev_a/libsdk_unit_test.a(lcdif_display.o)
imx6_slave_receive                                /home/leon/git/swp-report/iMX6_Platform_SDK/output/mx6sl/sdk_unit_test/evk_rev_a/libsdk_unit_test.a(imx6_i2c_device.o)
imx6_slave_transmit                               /home/leon/git/swp-report/iMX6_Platform_SDK/output/mx6sl/sdk_unit_test/evk_rev_a/libsdk_unit_test.a(imx6_i2c_device.o)
imx_fec_get_phy_status                            /home/leon/git/swp-report/iMX6_Platform_SDK/output/mx6sl/lib/libsdk.a(fec_drv.o)
imx_fec_init                                      /home/leon/git/swp-report/iMX6_Platform_SDK/output/mx6sl/lib/libsdk.a(fec_drv.o)
                                                  /home/leon/git/swp-report/iMX6_Platform_SDK/output/mx6sl/sdk_unit_test/evk_rev_a/libsdk_unit_test.a(fec_test.o)
imx_fec_isolate_phy                               /home/leon/git/swp-report/iMX6_Platform_SDK/output/mx6sl/lib/libsdk.a(fec_drv.o)
imx_fec_mii_read                                  /home/leon/git/swp-report/iMX6_Platform_SDK/output/mx6sl/lib/libsdk.a(fec_drv.o)
imx_fec_mii_type                                  /home/leon/git/swp-report/iMX6_Platform_SDK/output/mx6sl/lib/libsdk.a(fec_drv.o)
                                                  /home/leon/git/swp-report/iMX6_Platform_SDK/output/mx6sl/sdk_unit_test/evk_rev_a/libsdk_unit_test.a(fec_test.o)
imx_fec_mii_write                                 /home/leon/git/swp-report/iMX6_Platform_SDK/output/mx6sl/lib/libsdk.a(fec_drv.o)
imx_fec_phy_init                                  /home/leon/git/swp-report/iMX6_Platform_SDK/output/mx6sl/lib/libsdk.a(fec_drv.o)
                                                  /home/leon/git/swp-report/iMX6_Platform_SDK/output/mx6sl/sdk_unit_test/evk_rev_a/libsdk_unit_test.a(fec_test.o)
imx_fec_poll                                      /home/leon/git/swp-report/iMX6_Platform_SDK/output/mx6sl/lib/libsdk.a(fec_drv.o)
                                                  /home/leon/git/swp-report/iMX6_Platform_SDK/output/mx6sl/sdk_unit_test/evk_rev_a/libsdk_unit_test.a(fec_test.o)
imx_fec_recv                                      /home/leon/git/swp-report/iMX6_Platform_SDK/output/mx6sl/lib/libsdk.a(fec_drv.o)
                                                  /home/leon/git/swp-report/iMX6_Platform_SDK/output/mx6sl/sdk_unit_test/evk_rev_a/libsdk_unit_test.a(fec_test.o)
imx_fec_send                                      /home/leon/git/swp-report/iMX6_Platform_SDK/output/mx6sl/lib/libsdk.a(fec_drv.o)
                                                  /home/leon/git/swp-report/iMX6_Platform_SDK/output/mx6sl/sdk_unit_test/evk_rev_a/libsdk_unit_test.a(fec_test.o)
imx_fec_start                                     /home/leon/git/swp-report/iMX6_Platform_SDK/output/mx6sl/lib/libsdk.a(fec_drv.o)
                                                  /home/leon/git/swp-report/iMX6_Platform_SDK/output/mx6sl/sdk_unit_test/evk_rev_a/libsdk_unit_test.a(fec_test.o)
imx_fec_stop                                      /home/leon/git/swp-report/iMX6_Platform_SDK/output/mx6sl/lib/libsdk.a(fec_drv.o)
                                                  /home/leon/git/swp-report/iMX6_Platform_SDK/output/mx6sl/sdk_unit_test/evk_rev_a/libsdk_unit_test.a(fec_test.o)
imx_fec_unisolate_phy                             /home/leon/git/swp-report/iMX6_Platform_SDK/output/mx6sl/lib/libsdk.a(fec_drv.o)
imx_spdif                                         /home/leon/git/swp-report/iMX6_Platform_SDK/output/mx6sl/lib/libsdk.a(imx_spdif.o)
                                                  /home/leon/git/swp-report/iMX6_Platform_SDK/output/mx6sl/lib/libsdk.a(snd_card.o)
imx_ssi_1                                         /home/leon/git/swp-report/iMX6_Platform_SDK/output/mx6sl/lib/libsdk.a(imx-ssi.o)
imx_ssi_2                                         /home/leon/git/swp-report/iMX6_Platform_SDK/output/mx6sl/lib/libsdk.a(imx-ssi.o)
                                                  /home/leon/git/swp-report/iMX6_Platform_SDK/output/mx6sl/lib/libsdk.a(snd_card.o)
imx_ssi_3                                         /home/leon/git/swp-report/iMX6_Platform_SDK/output/mx6sl/lib/libsdk.a(imx-ssi.o)
input_dcd                                         /home/leon/git/swp-report/iMX6_Platform_SDK/output/mx6sl/lib/libboard_evk_rev_a.a(dcd.o)
input_dcd_hdr                                     /home/leon/git/swp-report/iMX6_Platform_SDK/output/mx6sl/lib/libboard_evk_rev_a.a(dcd.o)
                                                  /home/leon/git/swp-report/iMX6_Platform_SDK/output/mx6sl/sdk_unit_test/evk_rev_a/obj/apps/common/ivt.o
input_dcd_wrt_cmd                                 /home/leon/git/swp-report/iMX6_Platform_SDK/output/mx6sl/lib/libboard_evk_rev_a.a(dcd.o)
input_ivt                                         /home/leon/git/swp-report/iMX6_Platform_SDK/output/mx6sl/sdk_unit_test/evk_rev_a/obj/apps/common/ivt.o
iomux_config                                      /home/leon/git/swp-report/iMX6_Platform_SDK/output/mx6sl/lib/libboard_evk_rev_a.a(iomux_config.o)
is_color_supported                                /home/leon/git/swp-report/iMX6_Platform_SDK/output/mx6sl/lib/libsdk.a(text_color.o)
is_input_char                                     /home/leon/git/swp-report/iMX6_Platform_SDK/output/mx6sl/lib/libsdk.a(system_util.o)
                                                  /home/leon/git/swp-report/iMX6_Platform_SDK/output/mx6sl/sdk_unit_test/evk_rev_a/libsdk_unit_test.a(fec_test.o)
                                                  /home/leon/git/swp-report/iMX6_Platform_SDK/output/mx6sl/sdk_unit_test/evk_rev_a/libsdk_unit_test.a(ssi_playback.o)
jump_to_sdp                                       /home/leon/git/swp-report/iMX6_Platform_SDK/output/mx6sl/lib/libsdk.a(system_util.o)
k_gpio_mux_registers                              /home/leon/git/swp-report/iMX6_Platform_SDK/output/mx6sl/lib/libsdk.a(imx6sl_gpio_map.o)
                                                  /home/leon/git/swp-report/iMX6_Platform_SDK/output/mx6sl/lib/libsdk.a(gpio.o)
k_mainMenu                                        /home/leon/git/swp-report/iMX6_Platform_SDK/output/mx6sl/sdk_unit_test/evk_rev_a/obj/apps/sdk_unit_test/src/all_test.o
k_menuItems                                       /home/leon/git/swp-report/iMX6_Platform_SDK/output/mx6sl/sdk_unit_test/evk_rev_a/obj/apps/sdk_unit_test/src/all_test.o
k_sdk_copyright                                   /home/leon/git/swp-report/iMX6_Platform_SDK/output/mx6sl/lib/libsdk.a(sdk_version.o)
                                                  /home/leon/git/swp-report/iMX6_Platform_SDK/output/mx6sl/sdk_unit_test/evk_rev_a/obj/apps/common/print_version.o
k_sdk_version                                     /home/leon/git/swp-report/iMX6_Platform_SDK/output/mx6sl/lib/libsdk.a(sdk_version.o)
                                                  /home/leon/git/swp-report/iMX6_Platform_SDK/output/mx6sl/sdk_unit_test/evk_rev_a/obj/apps/common/print_version.o
kpp_iomux_config                                  /home/leon/git/swp-report/iMX6_Platform_SDK/output/mx6sl/lib/libboard_evk_rev_a.a(kpp_iomux_config.o)
                                                  /home/leon/git/swp-report/iMX6_Platform_SDK/output/mx6sl/lib/libboard_evk_rev_a.a(iomux_config.o)
lcd_iomux_config                                  /home/leon/git/swp-report/iMX6_Platform_SDK/output/mx6sl/lib/libboard_evk_rev_a.a(lcd_iomux_config.o)
                                                  /home/leon/git/swp-report/iMX6_Platform_SDK/output/mx6sl/lib/libsdk.a(lcdif_drv.o)
                                                  /home/leon/git/swp-report/iMX6_Platform_SDK/output/mx6sl/lib/libboard_evk_rev_a.a(iomux_config.o)
lcdif_backlight_on                                /home/leon/git/swp-report/iMX6_Platform_SDK/output/mx6sl/lib/libboard_evk_rev_a.a(board_display.o)
                                                  /home/leon/git/swp-report/iMX6_Platform_SDK/output/mx6sl/lib/libsdk.a(lcdif_drv.o)
lcdif_clock_enable                                /home/leon/git/swp-report/iMX6_Platform_SDK/output/mx6sl/lib/libboard_evk_rev_a.a(board_display.o)
                                                  /home/leon/git/swp-report/iMX6_Platform_SDK/output/mx6sl/lib/libsdk.a(lcdif_drv.o)
lcdif_csc_config                                  /home/leon/git/swp-report/iMX6_Platform_SDK/output/mx6sl/lib/libsdk.a(lcdif_drv.o)
lcdif_display_setup                               /home/leon/git/swp-report/iMX6_Platform_SDK/output/mx6sl/lib/libsdk.a(lcdif_drv.o)
                                                  /home/leon/git/swp-report/iMX6_Platform_SDK/output/mx6sl/sdk_unit_test/evk_rev_a/libsdk_unit_test.a(lcdif_display.o)
                                                  /home/leon/git/swp-report/iMX6_Platform_SDK/output/mx6sl/sdk_unit_test/evk_rev_a/libsdk_unit_test.a(csi_sensor_capture.o)
lcdif_display_test                                /home/leon/git/swp-report/iMX6_Platform_SDK/output/mx6sl/sdk_unit_test/evk_rev_a/libsdk_unit_test.a(lcdif_display.o)
                                                  /home/leon/git/swp-report/iMX6_Platform_SDK/output/mx6sl/sdk_unit_test/evk_rev_a/libsdk_unit_test.a(lcdif_test.o)
lcdif_power_on                                    /home/leon/git/swp-report/iMX6_Platform_SDK/output/mx6sl/lib/libboard_evk_rev_a.a(board_display.o)
                                                  /home/leon/git/swp-report/iMX6_Platform_SDK/output/mx6sl/lib/libsdk.a(lcdif_drv.o)
lcdif_test                                        /home/leon/git/swp-report/iMX6_Platform_SDK/output/mx6sl/sdk_unit_test/evk_rev_a/libsdk_unit_test.a(lcdif_test.o)
                                                  /home/leon/git/swp-report/iMX6_Platform_SDK/output/mx6sl/sdk_unit_test/evk_rev_a/obj/apps/sdk_unit_test/src/all_test.o
localeconv                                        /home/leon/riotboard/arm-2012.09/bin/../arm-none-eabi/lib//libc.a(lib_a-locale.o)
main                                              /home/leon/git/swp-report/iMX6_Platform_SDK/output/mx6sl/sdk_unit_test/evk_rev_a/obj/apps/sdk_unit_test/src/unit_test_main.o
                                                  /home/leon/git/swp-report/iMX6_Platform_SDK/output/mx6sl/lib/libsdk.a(startup.o)
malloc                                            /home/leon/riotboard/arm-2012.09/bin/../arm-none-eabi/lib//libc.a(lib_a-malloc.o)
                                                  /home/leon/riotboard/arm-2012.09/bin/../arm-none-eabi/lib//libstdc++.a(eh_alloc.o)
                                                  /home/leon/git/swp-report/iMX6_Platform_SDK/output/mx6sl/lib/libsdk.a(usbh_drv.o)
                                                  /home/leon/git/swp-report/iMX6_Platform_SDK/output/mx6sl/lib/libsdk.a(usbd_drv.o)
                                                  /home/leon/git/swp-report/iMX6_Platform_SDK/output/mx6sl/sdk_unit_test/evk_rev_a/libsdk_unit_test.a(usb0_host_test.o)
                                                  /home/leon/git/swp-report/iMX6_Platform_SDK/output/mx6sl/sdk_unit_test/evk_rev_a/libsdk_unit_test.a(usb0_device_mouse_test.o)
                                                  /home/leon/git/swp-report/iMX6_Platform_SDK/output/mx6sl/sdk_unit_test/evk_rev_a/libsdk_unit_test.a(audio_test.o)
                                                  /home/leon/git/swp-report/iMX6_Platform_SDK/output/mx6sl/lib/libsdk.a(system_util.o)
mem_2_mem_test                                    /home/leon/git/swp-report/iMX6_Platform_SDK/output/mx6sl/sdk_unit_test/evk_rev_a/libsdk_unit_test.a(mem_2_mem.o)
                                                  /home/leon/git/swp-report/iMX6_Platform_SDK/output/mx6sl/sdk_unit_test/evk_rev_a/libsdk_unit_test.a(sdma_test.o)
memchr                                            /home/leon/riotboard/arm-2012.09/bin/../arm-none-eabi/lib//libc.a(lib_a-memchr.o)
                                                  /home/leon/riotboard/arm-2012.09/bin/../arm-none-eabi/lib//libc.a(lib_a-svfiprintf.o)
                                                  /home/leon/riotboard/arm-2012.09/bin/../arm-none-eabi/lib//libc.a(lib_a-fvwrite.o)
                                                  /home/leon/riotboard/arm-2012.09/bin/../arm-none-eabi/lib//libc.a(lib_a-vfprintf.o)
                                                  /home/leon/riotboard/arm-2012.09/bin/../arm-none-eabi/lib//libc.a(lib_a-vfiprintf.o)
                                                  /home/leon/riotboard/arm-2012.09/bin/../arm-none-eabi/lib//libc.a(lib_a-svfprintf.o)
memcmp                                            /home/leon/riotboard/arm-2012.09/bin/../arm-none-eabi/lib//libc.a(lib_a-memcmp.o)
                                                  /home/leon/riotboard/arm-2012.09/bin/../arm-none-eabi/lib//libstdc++.a(cp-demangle.o)
memcpy                                            /home/leon/riotboard/arm-2012.09/bin/../arm-none-eabi/lib//libc.a(lib_a-memcpy.o)
                                                  /home/leon/riotboard/arm-2012.09/bin/../lib/gcc/arm-none-eabi/4.7.2//libgcc.a(unwind-arm.o)
                                                  /home/leon/riotboard/arm-2012.09/bin/../arm-none-eabi/lib//libstdc++.a(cp-demangle.o)
                                                  /home/leon/git/swp-report/iMX6_Platform_SDK/output/mx6sl/lib/libsdk.a(usbd_drv.o)
                                                  /home/leon/git/swp-report/iMX6_Platform_SDK/output/mx6sl/lib/libsdk.a(mxc_spdc.o)
                                                  /home/leon/git/swp-report/iMX6_Platform_SDK/output/mx6sl/lib/libsdk.a(lcdif_drv.o)
                                                  /home/leon/git/swp-report/iMX6_Platform_SDK/output/mx6sl/lib/libsdk.a(fec_drv.o)
                                                  /home/leon/git/swp-report/iMX6_Platform_SDK/output/mx6sl/lib/libsdk.a(mxc_epdc.o)
                                                  /home/leon/riotboard/arm-2012.09/bin/../arm-none-eabi/lib//libc.a(lib_a-svfiprintf.o)
                                                  /home/leon/riotboard/arm-2012.09/bin/../arm-none-eabi/lib//libc.a(lib_a-mprec.o)
                                                  /home/leon/riotboard/arm-2012.09/bin/../arm-none-eabi/lib//libc.a(lib_a-fvwrite.o)
                                                  /home/leon/riotboard/arm-2012.09/bin/../arm-none-eabi/lib//libc.a(lib_a-dtoa.o)
                                                  /home/leon/git/swp-report/iMX6_Platform_SDK/output/mx6sl/sdk_unit_test/evk_rev_a/libsdk_unit_test.a(usb0_device_mouse_test.o)
                                                  /home/leon/git/swp-report/iMX6_Platform_SDK/output/mx6sl/sdk_unit_test/evk_rev_a/libsdk_unit_test.a(pwm_output.o)
                                                  /home/leon/git/swp-report/iMX6_Platform_SDK/output/mx6sl/sdk_unit_test/evk_rev_a/libsdk_unit_test.a(fec_test.o)
                                                  /home/leon/git/swp-report/iMX6_Platform_SDK/output/mx6sl/lib/libsdk.a(menu.o)
memcpy_perf_record                                /home/leon/git/swp-report/iMX6_Platform_SDK/output/mx6sl/sdk_unit_test/evk_rev_a/libsdk_unit_test.a(cpu_wp_test.o)
memmove                                           /home/leon/riotboard/arm-2012.09/bin/../arm-none-eabi/lib//libc.a(lib_a-memmove.o)
                                                  /home/leon/riotboard/arm-2012.09/bin/../arm-none-eabi/lib//libc.a(lib_a-svfiprintf.o)
                                                  /home/leon/riotboard/arm-2012.09/bin/../arm-none-eabi/lib//libc.a(lib_a-fvwrite.o)
                                                  /home/leon/riotboard/arm-2012.09/bin/../arm-none-eabi/lib//libc.a(lib_a-reallocr.o)
memset                                            /home/leon/riotboard/arm-2012.09/bin/../arm-none-eabi/lib//libc.a(lib_a-memset.o)
                                                  /home/leon/riotboard/arm-2012.09/bin/../arm-none-eabi/lib//libstdc++.a(eh_alloc.o)
                                                  /home/leon/git/swp-report/iMX6_Platform_SDK/output/mx6sl/lib/libsdk.a(imx_spdif.o)
                                                  /home/leon/git/swp-report/iMX6_Platform_SDK/output/mx6sl/lib/libsdk.a(pmu_driver.o)
                                                  /home/leon/git/swp-report/iMX6_Platform_SDK/output/mx6sl/lib/libsdk.a(lcdif_drv.o)
                                                  /home/leon/git/swp-report/iMX6_Platform_SDK/output/mx6sl/lib/libsdk.a(mxc_epdc.o)
                                                  /home/leon/riotboard/arm-2012.09/bin/../arm-none-eabi/lib//libc.a(lib_a-callocr.o)
                                                  /home/leon/riotboard/arm-2012.09/bin/../arm-none-eabi/lib//libc.a(lib_a-findfp.o)
                                                  /home/leon/git/swp-report/iMX6_Platform_SDK/output/mx6sl/sdk_unit_test/evk_rev_a/libsdk_unit_test.a(spi_nor_numonyx.o)
                                                  /home/leon/git/swp-report/iMX6_Platform_SDK/output/mx6sl/sdk_unit_test/evk_rev_a/libsdk_unit_test.a(mem_2_mem.o)
                                                  /home/leon/git/swp-report/iMX6_Platform_SDK/output/mx6sl/sdk_unit_test/evk_rev_a/libsdk_unit_test.a(fec_test.o)
                                                  /home/leon/git/swp-report/iMX6_Platform_SDK/output/mx6sl/sdk_unit_test/evk_rev_a/libsdk_unit_test.a(spi_test.o)
                                                  /home/leon/git/swp-report/iMX6_Platform_SDK/output/mx6sl/sdk_unit_test/evk_rev_a/libsdk_unit_test.a(usdhc_test.o)
                                                  /home/leon/git/swp-report/iMX6_Platform_SDK/output/mx6sl/sdk_unit_test/evk_rev_a/libsdk_unit_test.a(uart_loopback.o)
                                                  /home/leon/git/swp-report/iMX6_Platform_SDK/output/mx6sl/sdk_unit_test/evk_rev_a/libsdk_unit_test.a(spi_lpb.o)
                                                  /home/leon/git/swp-report/iMX6_Platform_SDK/output/mx6sl/sdk_unit_test/evk_rev_a/libsdk_unit_test.a(imx6_i2c_device.o)
                                                  /home/leon/git/swp-report/iMX6_Platform_SDK/output/mx6sl/lib/libsdk.a(board_id.o)
                                                  /home/leon/git/swp-report/iMX6_Platform_SDK/output/mx6sl/lib/libsdk.a(menu.o)
                                                  /home/leon/git/swp-report/iMX6_Platform_SDK/output/mx6sl/sdk_unit_test/evk_rev_a/obj/apps/common/print_version.o
menu_append_menuitems                             /home/leon/git/swp-report/iMX6_Platform_SDK/output/mx6sl/lib/libsdk.a(menu.o)
menu_get_indent                                   /home/leon/git/swp-report/iMX6_Platform_SDK/output/mx6sl/lib/libsdk.a(menu.o)
                                                  /home/leon/git/swp-report/iMX6_Platform_SDK/output/mx6sl/lib/libsdk.a(pf0100.o)
                                                  /home/leon/git/swp-report/iMX6_Platform_SDK/output/mx6sl/lib/libsdk.a(usdhc.o)
                                                  /home/leon/git/swp-report/iMX6_Platform_SDK/output/mx6sl/sdk_unit_test/evk_rev_a/libsdk_unit_test.a(lcdif_display.o)
                                                  /home/leon/git/swp-report/iMX6_Platform_SDK/output/mx6sl/sdk_unit_test/evk_rev_a/libsdk_unit_test.a(fec_test.o)
                                                  /home/leon/git/swp-report/iMX6_Platform_SDK/output/mx6sl/sdk_unit_test/evk_rev_a/libsdk_unit_test.a(epdc_test.o)
                                                  /home/leon/git/swp-report/iMX6_Platform_SDK/output/mx6sl/sdk_unit_test/evk_rev_a/libsdk_unit_test.a(usdhc_test.o)
                                                  /home/leon/git/swp-report/iMX6_Platform_SDK/output/mx6sl/sdk_unit_test/evk_rev_a/libsdk_unit_test.a(uart_test.o)
menu_present                                      /home/leon/git/swp-report/iMX6_Platform_SDK/output/mx6sl/lib/libsdk.a(menu.o)
                                                  /home/leon/git/swp-report/iMX6_Platform_SDK/output/mx6sl/sdk_unit_test/evk_rev_a/obj/apps/sdk_unit_test/src/all_test.o
menu_print_menuitem                               /home/leon/git/swp-report/iMX6_Platform_SDK/output/mx6sl/lib/libsdk.a(menu.o)
menuitem_cmd_exitmenu                             /home/leon/git/swp-report/iMX6_Platform_SDK/output/mx6sl/lib/libsdk.a(menu.o)
                                                  /home/leon/git/swp-report/iMX6_Platform_SDK/output/mx6sl/sdk_unit_test/evk_rev_a/obj/apps/sdk_unit_test/src/all_test.o
menuitem_cmd_showmenu                             /home/leon/git/swp-report/iMX6_Platform_SDK/output/mx6sl/lib/libsdk.a(menu.o)
microseconds_test                                 /home/leon/git/swp-report/iMX6_Platform_SDK/output/mx6sl/sdk_unit_test/evk_rev_a/libsdk_unit_test.a(timer_test.o)
                                                  /home/leon/git/swp-report/iMX6_Platform_SDK/output/mx6sl/sdk_unit_test/evk_rev_a/obj/apps/sdk_unit_test/src/all_test.o
mmc_init                                          /home/leon/git/swp-report/iMX6_Platform_SDK/output/mx6sl/lib/libsdk.a(usdhc_mmc.o)
                                                  /home/leon/git/swp-report/iMX6_Platform_SDK/output/mx6sl/lib/libsdk.a(usdhc.o)
mmc_sd_test                                       /home/leon/git/swp-report/iMX6_Platform_SDK/output/mx6sl/sdk_unit_test/evk_rev_a/libsdk_unit_test.a(usdhc_test.o)
mmc_set_boot_ack                                  /home/leon/git/swp-report/iMX6_Platform_SDK/output/mx6sl/lib/libsdk.a(usdhc_mmc.o)
                                                  /home/leon/git/swp-report/iMX6_Platform_SDK/output/mx6sl/sdk_unit_test/evk_rev_a/libsdk_unit_test.a(usdhc_test.o)
mmc_set_boot_bus_width                            /home/leon/git/swp-report/iMX6_Platform_SDK/output/mx6sl/lib/libsdk.a(usdhc_mmc.o)
                                                  /home/leon/git/swp-report/iMX6_Platform_SDK/output/mx6sl/sdk_unit_test/evk_rev_a/libsdk_unit_test.a(usdhc_test.o)
mmc_set_boot_partition                            /home/leon/git/swp-report/iMX6_Platform_SDK/output/mx6sl/lib/libsdk.a(usdhc_mmc.o)
                                                  /home/leon/git/swp-report/iMX6_Platform_SDK/output/mx6sl/sdk_unit_test/evk_rev_a/libsdk_unit_test.a(usdhc_test.o)
mmc_voltage_validation                            /home/leon/git/swp-report/iMX6_Platform_SDK/output/mx6sl/lib/libsdk.a(usdhc_mmc.o)
                                                  /home/leon/git/swp-report/iMX6_Platform_SDK/output/mx6sl/lib/libsdk.a(usdhc.o)
mmdc_iomux_config                                 /home/leon/git/swp-report/iMX6_Platform_SDK/output/mx6sl/lib/libboard_evk_rev_a.a(mmdc_iomux_config.o)
                                                  /home/leon/git/swp-report/iMX6_Platform_SDK/output/mx6sl/lib/libboard_evk_rev_a.a(iomux_config.o)
mmu_disable                                       /home/leon/git/swp-report/iMX6_Platform_SDK/output/mx6sl/lib/libsdk.a(mmu.o)
                                                  /home/leon/git/swp-report/iMX6_Platform_SDK/output/mx6sl/sdk_unit_test/evk_rev_a/libsdk_unit_test.a(cpu_wp_test.o)
mmu_enable                                        /home/leon/git/swp-report/iMX6_Platform_SDK/output/mx6sl/lib/libsdk.a(mmu.o)
mmu_init                                          /home/leon/git/swp-report/iMX6_Platform_SDK/output/mx6sl/lib/libsdk.a(mmu.o)
                                                  /home/leon/git/swp-report/iMX6_Platform_SDK/output/mx6sl/sdk_unit_test/evk_rev_a/obj/apps/common/platform_init.o
mmu_map_l1_range                                  /home/leon/git/swp-report/iMX6_Platform_SDK/output/mx6sl/lib/libsdk.a(mmu.o)
mmu_virtual_to_physical                           /home/leon/git/swp-report/iMX6_Platform_SDK/output/mx6sl/lib/libsdk.a(mmu.o)
my_memcpy                                         /home/leon/git/swp-report/iMX6_Platform_SDK/output/mx6sl/sdk_unit_test/evk_rev_a/libsdk_unit_test.a(cpu_wp_test.o)
mybkpt                                            /home/leon/git/swp-report/iMX6_Platform_SDK/output/mx6sl/lib/libsdk.a(system_util.o)
ocotp_fuse_blow_row                               /home/leon/git/swp-report/iMX6_Platform_SDK/output/mx6sl/lib/libsdk.a(ocotp.o)
                                                  /home/leon/git/swp-report/iMX6_Platform_SDK/output/mx6sl/sdk_unit_test/evk_rev_a/libsdk_unit_test.a(ocotp_test.o)
ocotp_reload_otp_shadow_registers                 /home/leon/git/swp-report/iMX6_Platform_SDK/output/mx6sl/lib/libsdk.a(ocotp.o)
ocotp_sense_fuse                                  /home/leon/git/swp-report/iMX6_Platform_SDK/output/mx6sl/lib/libsdk.a(ocotp.o)
                                                  /home/leon/git/swp-report/iMX6_Platform_SDK/output/mx6sl/sdk_unit_test/evk_rev_a/libsdk_unit_test.a(ocotp_test.o)
ocotp_test                                        /home/leon/git/swp-report/iMX6_Platform_SDK/output/mx6sl/sdk_unit_test/evk_rev_a/libsdk_unit_test.a(ocotp_test.o)
                                                  /home/leon/git/swp-report/iMX6_Platform_SDK/output/mx6sl/sdk_unit_test/evk_rev_a/obj/apps/sdk_unit_test/src/all_test.o
one_time_tick_callback                            /home/leon/git/swp-report/iMX6_Platform_SDK/output/mx6sl/sdk_unit_test/evk_rev_a/libsdk_unit_test.a(snvs_rtc_test.o)
one_time_timer_test                               /home/leon/git/swp-report/iMX6_Platform_SDK/output/mx6sl/sdk_unit_test/evk_rev_a/libsdk_unit_test.a(snvs_rtc_test.o)
operator delete(void*)                            /home/leon/riotboard/arm-2012.09/bin/../arm-none-eabi/lib//libstdc++.a(del_op.o)
                                                  /home/leon/riotboard/arm-2012.09/bin/../arm-none-eabi/lib//libstdc++.a(tinfo.o)
                                                  /home/leon/riotboard/arm-2012.09/bin/../arm-none-eabi/lib//libstdc++.a(class_type_info.o)
                                                  /home/leon/riotboard/arm-2012.09/bin/../arm-none-eabi/lib//libstdc++.a(si_class_type_info.o)
                                                  /home/leon/riotboard/arm-2012.09/bin/../arm-none-eabi/lib//libstdc++.a(eh_exception.o)
operator new(unsigned int, void*)                 /home/leon/git/swp-report/iMX6_Platform_SDK/output/mx6sl/lib/libsdk.a(pmu_driver.o)
ov5642_strobe_on                                  /home/leon/git/swp-report/iMX6_Platform_SDK/output/mx6sl/lib/libsdk.a(smd_sensor.o)
over_temp_callback                                /home/leon/git/swp-report/iMX6_Platform_SDK/output/mx6sl/sdk_unit_test/evk_rev_a/libsdk_unit_test.a(tempmon_test.o)
pcm_music                                         /home/leon/git/swp-report/iMX6_Platform_SDK/output/mx6sl/sdk_unit_test/evk_rev_a/libsdk_unit_test.a(audio_test.o)
pcm_para                                          /home/leon/git/swp-report/iMX6_Platform_SDK/output/mx6sl/sdk_unit_test/evk_rev_a/libsdk_unit_test.a(audio_test.o)
periodic_tick_callback                            /home/leon/git/swp-report/iMX6_Platform_SDK/output/mx6sl/sdk_unit_test/evk_rev_a/libsdk_unit_test.a(snvs_rtc_test.o)
periodic_timer_test                               /home/leon/git/swp-report/iMX6_Platform_SDK/output/mx6sl/sdk_unit_test/evk_rev_a/libsdk_unit_test.a(snvs_rtc_test.o)
pf0100_enable_vgen1_1v2                           /home/leon/git/swp-report/iMX6_Platform_SDK/output/mx6sl/lib/libsdk.a(pf0100.o)
pf0100_enable_vgen2_1v5                           /home/leon/git/swp-report/iMX6_Platform_SDK/output/mx6sl/lib/libsdk.a(pf0100.o)
                                                  /home/leon/git/swp-report/iMX6_Platform_SDK/output/mx6sl/lib/libboard_evk_rev_a.a(board_camera.o)
pf0100_enable_vgen3_1v8                           /home/leon/git/swp-report/iMX6_Platform_SDK/output/mx6sl/lib/libsdk.a(pf0100.o)
                                                  /home/leon/git/swp-report/iMX6_Platform_SDK/output/mx6sl/lib/libboard_evk_rev_a.a(board_audio.o)
pf0100_enable_vgen4_1v8                           /home/leon/git/swp-report/iMX6_Platform_SDK/output/mx6sl/lib/libsdk.a(pf0100.o)
                                                  /home/leon/git/swp-report/iMX6_Platform_SDK/output/mx6sl/lib/libboard_evk_rev_a.a(board_camera.o)
pf0100_enable_vgen4_2v5                           /home/leon/git/swp-report/iMX6_Platform_SDK/output/mx6sl/lib/libsdk.a(pf0100.o)
pf0100_enable_vgen6_2v8                           /home/leon/git/swp-report/iMX6_Platform_SDK/output/mx6sl/lib/libsdk.a(pf0100.o)
                                                  /home/leon/git/swp-report/iMX6_Platform_SDK/output/mx6sl/lib/libboard_evk_rev_a.a(board_camera.o)
pf0100_i2c_device_id_check                        /home/leon/git/swp-report/iMX6_Platform_SDK/output/mx6sl/lib/libsdk.a(pf0100.o)
pf0100_reg_read                                   /home/leon/git/swp-report/iMX6_Platform_SDK/output/mx6sl/lib/libsdk.a(pf0100.o)
pf0100_reg_write                                  /home/leon/git/swp-report/iMX6_Platform_SDK/output/mx6sl/lib/libsdk.a(pf0100.o)
platform_init                                     /home/leon/git/swp-report/iMX6_Platform_SDK/output/mx6sl/sdk_unit_test/evk_rev_a/obj/apps/common/platform_init.o
                                                  /home/leon/git/swp-report/iMX6_Platform_SDK/output/mx6sl/sdk_unit_test/evk_rev_a/obj/apps/sdk_unit_test/src/unit_test_main.o
pmu::AnalogRegulator::AnalogRegulator(_hw_pmu_reg_1p1 volatile&) /home/leon/git/swp-report/iMX6_Platform_SDK/output/mx6sl/lib/libsdk.a(pmu_driver.o)
pmu::AnalogRegulator::AnalogRegulator(_hw_pmu_reg_1p1 volatile&) /home/leon/git/swp-report/iMX6_Platform_SDK/output/mx6sl/lib/libsdk.a(pmu_driver.o)
pmu::AnalogRegulator::AnalogRegulator<_hw_pmu_reg_2p5>(_hw_pmu_reg_2p5 volatile&) /home/leon/git/swp-report/iMX6_Platform_SDK/output/mx6sl/lib/libsdk.a(pmu_driver.o)
pmu::AnalogRegulator::AnalogRegulator<_hw_pmu_reg_2p5>(_hw_pmu_reg_2p5 volatile&) /home/leon/git/swp-report/iMX6_Platform_SDK/output/mx6sl/lib/libsdk.a(pmu_driver.o)
pmu::AnalogRegulator::AnalogRegulator<_hw_pmu_reg_3p0>(_hw_pmu_reg_3p0 volatile&) /home/leon/git/swp-report/iMX6_Platform_SDK/output/mx6sl/lib/libsdk.a(pmu_driver.o)
pmu::AnalogRegulator::AnalogRegulator<_hw_pmu_reg_3p0>(_hw_pmu_reg_3p0 volatile&) /home/leon/git/swp-report/iMX6_Platform_SDK/output/mx6sl/lib/libsdk.a(pmu_driver.o)
pmu::AnalogRegulator::getBrownoutMillivolts() const /home/leon/git/swp-report/iMX6_Platform_SDK/output/mx6sl/lib/libsdk.a(pmu_driver.o)
pmu::AnalogRegulator::getOutputMillivolts() const /home/leon/git/swp-report/iMX6_Platform_SDK/output/mx6sl/lib/libsdk.a(pmu_driver.o)
pmu::AnalogRegulator::getProperty(_pmu_regulator_properties, void*) /home/leon/git/swp-report/iMX6_Platform_SDK/output/mx6sl/lib/libsdk.a(pmu_driver.o)
pmu::AnalogRegulator::isBrownoutDetectEnabled() const /home/leon/git/swp-report/iMX6_Platform_SDK/output/mx6sl/lib/libsdk.a(pmu_driver.o)
pmu::AnalogRegulator::isEnabled() const           /home/leon/git/swp-report/iMX6_Platform_SDK/output/mx6sl/lib/libsdk.a(pmu_driver.o)
pmu::AnalogRegulator::setBrownoutDetectIsEnabled(bool) /home/leon/git/swp-report/iMX6_Platform_SDK/output/mx6sl/lib/libsdk.a(pmu_driver.o)
pmu::AnalogRegulator::setBrownoutMillivolts(unsigned long) /home/leon/git/swp-report/iMX6_Platform_SDK/output/mx6sl/lib/libsdk.a(pmu_driver.o)
pmu::AnalogRegulator::setIsEnabled(bool)          /home/leon/git/swp-report/iMX6_Platform_SDK/output/mx6sl/lib/libsdk.a(pmu_driver.o)
pmu::AnalogRegulator::setOutputMillivolts(unsigned long) /home/leon/git/swp-report/iMX6_Platform_SDK/output/mx6sl/lib/libsdk.a(pmu_driver.o)
pmu::AnalogRegulator::setProperty(_pmu_regulator_properties, void const*) /home/leon/git/swp-report/iMX6_Platform_SDK/output/mx6sl/lib/libsdk.a(pmu_driver.o)
pmu::DigitalRegulator::DigitalRegulator()         /home/leon/git/swp-report/iMX6_Platform_SDK/output/mx6sl/lib/libsdk.a(pmu_driver.o)
pmu::DigitalRegulator::DigitalRegulator()         /home/leon/git/swp-report/iMX6_Platform_SDK/output/mx6sl/lib/libsdk.a(pmu_driver.o)
pmu::DigitalRegulator::getBrownoutMillivolts() const /home/leon/git/swp-report/iMX6_Platform_SDK/output/mx6sl/lib/libsdk.a(pmu_driver.o)
pmu::DigitalRegulator::getOutputMillivolts() const /home/leon/git/swp-report/iMX6_Platform_SDK/output/mx6sl/lib/libsdk.a(pmu_driver.o)
pmu::DigitalRegulator::getProperty(_pmu_regulator_properties, void*) /home/leon/git/swp-report/iMX6_Platform_SDK/output/mx6sl/lib/libsdk.a(pmu_driver.o)
pmu::DigitalRegulator::isBypassed() const         /home/leon/git/swp-report/iMX6_Platform_SDK/output/mx6sl/lib/libsdk.a(pmu_driver.o)
pmu::DigitalRegulator::isEnabled() const          /home/leon/git/swp-report/iMX6_Platform_SDK/output/mx6sl/lib/libsdk.a(pmu_driver.o)
pmu::DigitalRegulator::setBrownoutMillivolts(unsigned long) /home/leon/git/swp-report/iMX6_Platform_SDK/output/mx6sl/lib/libsdk.a(pmu_driver.o)
pmu::DigitalRegulator::setIsBypassed(bool)        /home/leon/git/swp-report/iMX6_Platform_SDK/output/mx6sl/lib/libsdk.a(pmu_driver.o)
pmu::DigitalRegulator::setIsEnabled(bool)         /home/leon/git/swp-report/iMX6_Platform_SDK/output/mx6sl/lib/libsdk.a(pmu_driver.o)
pmu::DigitalRegulator::setOutputMillivolts(unsigned long) /home/leon/git/swp-report/iMX6_Platform_SDK/output/mx6sl/lib/libsdk.a(pmu_driver.o)
pmu::DigitalRegulator::setProperty(_pmu_regulator_properties, void const*) /home/leon/git/swp-report/iMX6_Platform_SDK/output/mx6sl/lib/libsdk.a(pmu_driver.o)
pmu::LDO1p1Regulator::LDO1p1Regulator()           /home/leon/git/swp-report/iMX6_Platform_SDK/output/mx6sl/lib/libsdk.a(pmu_driver.o)
pmu::LDO1p1Regulator::LDO1p1Regulator()           /home/leon/git/swp-report/iMX6_Platform_SDK/output/mx6sl/lib/libsdk.a(pmu_driver.o)
pmu::LDO1p1Regulator::getOutputMillivolts() const /home/leon/git/swp-report/iMX6_Platform_SDK/output/mx6sl/lib/libsdk.a(pmu_driver.o)
pmu::LDO1p1Regulator::getProperty(_pmu_regulator_properties, void*) /home/leon/git/swp-report/iMX6_Platform_SDK/output/mx6sl/lib/libsdk.a(pmu_driver.o)
pmu::LDO1p1Regulator::isInBrownout() const        /home/leon/git/swp-report/iMX6_Platform_SDK/output/mx6sl/lib/libsdk.a(pmu_driver.o)
pmu::LDO1p1Regulator::isOK() const                /home/leon/git/swp-report/iMX6_Platform_SDK/output/mx6sl/lib/libsdk.a(pmu_driver.o)
pmu::LDO1p1Regulator::setOutputMillivolts(unsigned long) /home/leon/git/swp-report/iMX6_Platform_SDK/output/mx6sl/lib/libsdk.a(pmu_driver.o)
pmu::LDO2p5Regulator::LDO2p5Regulator()           /home/leon/git/swp-report/iMX6_Platform_SDK/output/mx6sl/lib/libsdk.a(pmu_driver.o)
pmu::LDO2p5Regulator::LDO2p5Regulator()           /home/leon/git/swp-report/iMX6_Platform_SDK/output/mx6sl/lib/libsdk.a(pmu_driver.o)
pmu::LDO2p5Regulator::isInBrownout() const        /home/leon/git/swp-report/iMX6_Platform_SDK/output/mx6sl/lib/libsdk.a(pmu_driver.o)
pmu::LDO2p5Regulator::isOK() const                /home/leon/git/swp-report/iMX6_Platform_SDK/output/mx6sl/lib/libsdk.a(pmu_driver.o)
pmu::LDO3p0Regulator::LDO3p0Regulator()           /home/leon/git/swp-report/iMX6_Platform_SDK/output/mx6sl/lib/libsdk.a(pmu_driver.o)
pmu::LDO3p0Regulator::LDO3p0Regulator()           /home/leon/git/swp-report/iMX6_Platform_SDK/output/mx6sl/lib/libsdk.a(pmu_driver.o)
pmu::LDO3p0Regulator::getProperty(_pmu_regulator_properties, void*) /home/leon/git/swp-report/iMX6_Platform_SDK/output/mx6sl/lib/libsdk.a(pmu_driver.o)
pmu::LDO3p0Regulator::isInBrownout() const        /home/leon/git/swp-report/iMX6_Platform_SDK/output/mx6sl/lib/libsdk.a(pmu_driver.o)
pmu::LDO3p0Regulator::isOK() const                /home/leon/git/swp-report/iMX6_Platform_SDK/output/mx6sl/lib/libsdk.a(pmu_driver.o)
pmu::LDO3p0Regulator::setProperty(_pmu_regulator_properties, void const*) /home/leon/git/swp-report/iMX6_Platform_SDK/output/mx6sl/lib/libsdk.a(pmu_driver.o)
pmu::LDOARMRegulator::LDOARMRegulator()           /home/leon/git/swp-report/iMX6_Platform_SDK/output/mx6sl/lib/libsdk.a(pmu_driver.o)
pmu::LDOARMRegulator::LDOARMRegulator()           /home/leon/git/swp-report/iMX6_Platform_SDK/output/mx6sl/lib/libsdk.a(pmu_driver.o)
pmu::LDOARMRegulator::getBrownout() const         /home/leon/git/swp-report/iMX6_Platform_SDK/output/mx6sl/lib/libsdk.a(pmu_driver.o)
pmu::LDOARMRegulator::getRampRate() const         /home/leon/git/swp-report/iMX6_Platform_SDK/output/mx6sl/lib/libsdk.a(pmu_driver.o)
pmu::LDOARMRegulator::getTrigger() const          /home/leon/git/swp-report/iMX6_Platform_SDK/output/mx6sl/lib/libsdk.a(pmu_driver.o)
pmu::LDOARMRegulator::isBrownoutDetectEnabled() const /home/leon/git/swp-report/iMX6_Platform_SDK/output/mx6sl/lib/libsdk.a(pmu_driver.o)
pmu::LDOARMRegulator::isInBrownout() const        /home/leon/git/swp-report/iMX6_Platform_SDK/output/mx6sl/lib/libsdk.a(pmu_driver.o)
pmu::LDOARMRegulator::isOK() const                /home/leon/git/swp-report/iMX6_Platform_SDK/output/mx6sl/lib/libsdk.a(pmu_driver.o)
pmu::LDOARMRegulator::setBrownout(unsigned long)  /home/leon/git/swp-report/iMX6_Platform_SDK/output/mx6sl/lib/libsdk.a(pmu_driver.o)
pmu::LDOARMRegulator::setBrownoutDetectIsEnabled(bool) /home/leon/git/swp-report/iMX6_Platform_SDK/output/mx6sl/lib/libsdk.a(pmu_driver.o)
pmu::LDOARMRegulator::setRampRate(unsigned long)  /home/leon/git/swp-report/iMX6_Platform_SDK/output/mx6sl/lib/libsdk.a(pmu_driver.o)
pmu::LDOARMRegulator::setTrigger(unsigned long)   /home/leon/git/swp-report/iMX6_Platform_SDK/output/mx6sl/lib/libsdk.a(pmu_driver.o)
pmu::LDOGraphicsRegulator::LDOGraphicsRegulator() /home/leon/git/swp-report/iMX6_Platform_SDK/output/mx6sl/lib/libsdk.a(pmu_driver.o)
pmu::LDOGraphicsRegulator::LDOGraphicsRegulator() /home/leon/git/swp-report/iMX6_Platform_SDK/output/mx6sl/lib/libsdk.a(pmu_driver.o)
pmu::LDOGraphicsRegulator::getBrownout() const    /home/leon/git/swp-report/iMX6_Platform_SDK/output/mx6sl/lib/libsdk.a(pmu_driver.o)
pmu::LDOGraphicsRegulator::getRampRate() const    /home/leon/git/swp-report/iMX6_Platform_SDK/output/mx6sl/lib/libsdk.a(pmu_driver.o)
pmu::LDOGraphicsRegulator::getTrigger() const     /home/leon/git/swp-report/iMX6_Platform_SDK/output/mx6sl/lib/libsdk.a(pmu_driver.o)
pmu::LDOGraphicsRegulator::isBrownoutDetectEnabled() const /home/leon/git/swp-report/iMX6_Platform_SDK/output/mx6sl/lib/libsdk.a(pmu_driver.o)
pmu::LDOGraphicsRegulator::isInBrownout() const   /home/leon/git/swp-report/iMX6_Platform_SDK/output/mx6sl/lib/libsdk.a(pmu_driver.o)
pmu::LDOGraphicsRegulator::isOK() const           /home/leon/git/swp-report/iMX6_Platform_SDK/output/mx6sl/lib/libsdk.a(pmu_driver.o)
pmu::LDOGraphicsRegulator::setBrownout(unsigned long) /home/leon/git/swp-report/iMX6_Platform_SDK/output/mx6sl/lib/libsdk.a(pmu_driver.o)
pmu::LDOGraphicsRegulator::setBrownoutDetectIsEnabled(bool) /home/leon/git/swp-report/iMX6_Platform_SDK/output/mx6sl/lib/libsdk.a(pmu_driver.o)
pmu::LDOGraphicsRegulator::setRampRate(unsigned long) /home/leon/git/swp-report/iMX6_Platform_SDK/output/mx6sl/lib/libsdk.a(pmu_driver.o)
pmu::LDOGraphicsRegulator::setTrigger(unsigned long) /home/leon/git/swp-report/iMX6_Platform_SDK/output/mx6sl/lib/libsdk.a(pmu_driver.o)
pmu::LDOSoCRegulator::LDOSoCRegulator()           /home/leon/git/swp-report/iMX6_Platform_SDK/output/mx6sl/lib/libsdk.a(pmu_driver.o)
pmu::LDOSoCRegulator::LDOSoCRegulator()           /home/leon/git/swp-report/iMX6_Platform_SDK/output/mx6sl/lib/libsdk.a(pmu_driver.o)
pmu::LDOSoCRegulator::getBrownout() const         /home/leon/git/swp-report/iMX6_Platform_SDK/output/mx6sl/lib/libsdk.a(pmu_driver.o)
pmu::LDOSoCRegulator::getRampRate() const         /home/leon/git/swp-report/iMX6_Platform_SDK/output/mx6sl/lib/libsdk.a(pmu_driver.o)
pmu::LDOSoCRegulator::getTrigger() const          /home/leon/git/swp-report/iMX6_Platform_SDK/output/mx6sl/lib/libsdk.a(pmu_driver.o)
pmu::LDOSoCRegulator::isBrownoutDetectEnabled() const /home/leon/git/swp-report/iMX6_Platform_SDK/output/mx6sl/lib/libsdk.a(pmu_driver.o)
pmu::LDOSoCRegulator::isInBrownout() const        /home/leon/git/swp-report/iMX6_Platform_SDK/output/mx6sl/lib/libsdk.a(pmu_driver.o)
pmu::LDOSoCRegulator::isOK() const                /home/leon/git/swp-report/iMX6_Platform_SDK/output/mx6sl/lib/libsdk.a(pmu_driver.o)
pmu::LDOSoCRegulator::setBrownout(unsigned long)  /home/leon/git/swp-report/iMX6_Platform_SDK/output/mx6sl/lib/libsdk.a(pmu_driver.o)
pmu::LDOSoCRegulator::setBrownoutDetectIsEnabled(bool) /home/leon/git/swp-report/iMX6_Platform_SDK/output/mx6sl/lib/libsdk.a(pmu_driver.o)
pmu::LDOSoCRegulator::setRampRate(unsigned long)  /home/leon/git/swp-report/iMX6_Platform_SDK/output/mx6sl/lib/libsdk.a(pmu_driver.o)
pmu::LDOSoCRegulator::setTrigger(unsigned long)   /home/leon/git/swp-report/iMX6_Platform_SDK/output/mx6sl/lib/libsdk.a(pmu_driver.o)
pmu::Regulator::Regulator()                       /home/leon/git/swp-report/iMX6_Platform_SDK/output/mx6sl/lib/libsdk.a(pmu_driver.o)
pmu::Regulator::Regulator()                       /home/leon/git/swp-report/iMX6_Platform_SDK/output/mx6sl/lib/libsdk.a(pmu_driver.o)
pmu::Regulator::getBrownoutHandler()              /home/leon/git/swp-report/iMX6_Platform_SDK/output/mx6sl/lib/libsdk.a(pmu_driver.o)
pmu::Regulator::getProperty(_pmu_regulator_properties, void*) /home/leon/git/swp-report/iMX6_Platform_SDK/output/mx6sl/lib/libsdk.a(pmu_driver.o)
pmu::Regulator::setBrownoutHandler(void (*)(_pmu_regs)) /home/leon/git/swp-report/iMX6_Platform_SDK/output/mx6sl/lib/libsdk.a(pmu_driver.o)
pmu::Regulator::setProperty(_pmu_regulator_properties, void const*) /home/leon/git/swp-report/iMX6_Platform_SDK/output/mx6sl/lib/libsdk.a(pmu_driver.o)
pmu::Regulator::setVoltageRange(unsigned long, unsigned long, unsigned long) /home/leon/git/swp-report/iMX6_Platform_SDK/output/mx6sl/lib/libsdk.a(pmu_driver.o)
pmu::_pmu_info::_pmu_info()                       /home/leon/git/swp-report/iMX6_Platform_SDK/output/mx6sl/lib/libsdk.a(pmu_driver.o)
pmu::_pmu_info::_pmu_info()                       /home/leon/git/swp-report/iMX6_Platform_SDK/output/mx6sl/lib/libsdk.a(pmu_driver.o)
pmu_get_property                                  /home/leon/git/swp-report/iMX6_Platform_SDK/output/mx6sl/lib/libsdk.a(pmu_driver.o)
pmu_init                                          /home/leon/git/swp-report/iMX6_Platform_SDK/output/mx6sl/lib/libsdk.a(pmu_driver.o)
                                                  /home/leon/git/swp-report/iMX6_Platform_SDK/output/mx6sl/lib/libsdk.a(cpu_workpoint.o)
pmu_iomux_config                                  /home/leon/git/swp-report/iMX6_Platform_SDK/output/mx6sl/lib/libboard_evk_rev_a.a(iomux_config.o)
pmu_set_property                                  /home/leon/git/swp-report/iMX6_Platform_SDK/output/mx6sl/lib/libsdk.a(pmu_driver.o)
                                                  /home/leon/git/swp-report/iMX6_Platform_SDK/output/mx6sl/lib/libsdk.a(cpu_workpoint.o)
prefetch_abort_handler                            /home/leon/git/swp-report/iMX6_Platform_SDK/output/mx6sl/lib/libsdk.a(arm_abort.o)
                                                  /home/leon/git/swp-report/iMX6_Platform_SDK/output/mx6sl/lib/libsdk.a(vectors.o)
print_current_temp                                /home/leon/git/swp-report/iMX6_Platform_SDK/output/mx6sl/sdk_unit_test/evk_rev_a/libsdk_unit_test.a(tempmon_test.o)
print_version                                     /home/leon/git/swp-report/iMX6_Platform_SDK/output/mx6sl/sdk_unit_test/evk_rev_a/obj/apps/common/print_version.o
                                                  /home/leon/git/swp-report/iMX6_Platform_SDK/output/mx6sl/sdk_unit_test/evk_rev_a/obj/apps/sdk_unit_test/src/unit_test_main.o
printf                                            /home/leon/riotboard/arm-2012.09/bin/../arm-none-eabi/lib//libc.a(lib_a-printf.o)
                                                  /home/leon/git/swp-report/iMX6_Platform_SDK/output/mx6sl/lib/libsdk.a(pf0100.o)
                                                  /home/leon/git/swp-report/iMX6_Platform_SDK/output/mx6sl/lib/libsdk.a(imx_spdif.o)
                                                  /home/leon/git/swp-report/iMX6_Platform_SDK/output/mx6sl/lib/libsdk.a(imx-ssi.o)
                                                  /home/leon/git/swp-report/iMX6_Platform_SDK/output/mx6sl/lib/libsdk.a(usdhc_sd.o)
                                                  /home/leon/git/swp-report/iMX6_Platform_SDK/output/mx6sl/lib/libsdk.a(usdhc_mmc.o)
                                                  /home/leon/git/swp-report/iMX6_Platform_SDK/output/mx6sl/lib/libsdk.a(usdhc_host.o)
                                                  /home/leon/git/swp-report/iMX6_Platform_SDK/output/mx6sl/lib/libsdk.a(usdhc.o)
                                                  /home/leon/git/swp-report/iMX6_Platform_SDK/output/mx6sl/lib/libsdk.a(usbh_drv.o)
                                                  /home/leon/git/swp-report/iMX6_Platform_SDK/output/mx6sl/lib/libsdk.a(usbd_drv.o)
                                                  /home/leon/git/swp-report/iMX6_Platform_SDK/output/mx6sl/lib/libsdk.a(usb_common.o)
                                                  /home/leon/git/swp-report/iMX6_Platform_SDK/output/mx6sl/lib/libsdk.a(ecspi.o)
                                                  /home/leon/git/swp-report/iMX6_Platform_SDK/output/mx6sl/lib/libsdk.a(mxc_spdc.o)
                                                  /home/leon/git/swp-report/iMX6_Platform_SDK/output/mx6sl/lib/libsdk.a(sdma.o)
                                                  /home/leon/git/swp-report/iMX6_Platform_SDK/output/mx6sl/lib/libsdk.a(pwm.o)
                                                  /home/leon/git/swp-report/iMX6_Platform_SDK/output/mx6sl/lib/libsdk.a(lcdif_drv.o)
                                                  /home/leon/git/swp-report/iMX6_Platform_SDK/output/mx6sl/lib/libsdk.a(imx_i2c_slave.o)
                                                  /home/leon/git/swp-report/iMX6_Platform_SDK/output/mx6sl/lib/libsdk.a(gpio.o)
                                                  /home/leon/git/swp-report/iMX6_Platform_SDK/output/mx6sl/lib/libsdk.a(fec_drv.o)
                                                  /home/leon/git/swp-report/iMX6_Platform_SDK/output/mx6sl/lib/libsdk.a(mxc_epdc.o)
                                                  /home/leon/git/swp-report/iMX6_Platform_SDK/output/mx6sl/lib/libsdk.a(cpu_workpoint.o)
                                                  /home/leon/git/swp-report/iMX6_Platform_SDK/output/mx6sl/lib/libsdk.a(smd_sensor.o)
                                                  /home/leon/git/swp-report/iMX6_Platform_SDK/output/mx6sl/lib/libsdk.a(wm8962.o)
                                                  /home/leon/git/swp-report/iMX6_Platform_SDK/output/mx6sl/lib/libsdk.a(snd_card.o)
                                                  /home/leon/git/swp-report/iMX6_Platform_SDK/output/mx6sl/lib/libsdk.a(imx_audmux.o)
                                                  /home/leon/git/swp-report/iMX6_Platform_SDK/output/mx6sl/sdk_unit_test/evk_rev_a/libsdk_unit_test.a(lcdif_display.o)
                                                  /home/leon/git/swp-report/iMX6_Platform_SDK/output/mx6sl/sdk_unit_test/evk_rev_a/libsdk_unit_test.a(usb0_host_testmodes_test.o)
                                                  /home/leon/git/swp-report/iMX6_Platform_SDK/output/mx6sl/sdk_unit_test/evk_rev_a/libsdk_unit_test.a(usb0_host_test.o)
                                                  /home/leon/git/swp-report/iMX6_Platform_SDK/output/mx6sl/sdk_unit_test/evk_rev_a/libsdk_unit_test.a(usb0_device_mouse_test.o)
                                                  /home/leon/git/swp-report/iMX6_Platform_SDK/output/mx6sl/sdk_unit_test/evk_rev_a/libsdk_unit_test.a(spi_nor_numonyx.o)
                                                  /home/leon/git/swp-report/iMX6_Platform_SDK/output/mx6sl/sdk_unit_test/evk_rev_a/libsdk_unit_test.a(pwm_output.o)
                                                  /home/leon/git/swp-report/iMX6_Platform_SDK/output/mx6sl/sdk_unit_test/evk_rev_a/libsdk_unit_test.a(mem_2_mem.o)
                                                  /home/leon/git/swp-report/iMX6_Platform_SDK/output/mx6sl/sdk_unit_test/evk_rev_a/libsdk_unit_test.a(at24cxx.o)
                                                  /home/leon/git/swp-report/iMX6_Platform_SDK/output/mx6sl/sdk_unit_test/evk_rev_a/libsdk_unit_test.a(spdc_test.o)
                                                  /home/leon/git/swp-report/iMX6_Platform_SDK/output/mx6sl/sdk_unit_test/evk_rev_a/libsdk_unit_test.a(fec_test.o)
                                                  /home/leon/git/swp-report/iMX6_Platform_SDK/output/mx6sl/sdk_unit_test/evk_rev_a/libsdk_unit_test.a(csi_sensor_capture.o)
                                                  /home/leon/git/swp-report/iMX6_Platform_SDK/output/mx6sl/sdk_unit_test/evk_rev_a/libsdk_unit_test.a(camera_test.o)
                                                  /home/leon/git/swp-report/iMX6_Platform_SDK/output/mx6sl/sdk_unit_test/evk_rev_a/libsdk_unit_test.a(lcdif_test.o)
                                                  /home/leon/git/swp-report/iMX6_Platform_SDK/output/mx6sl/sdk_unit_test/evk_rev_a/libsdk_unit_test.a(epdc_test.o)
                                                  /home/leon/git/swp-report/iMX6_Platform_SDK/output/mx6sl/sdk_unit_test/evk_rev_a/libsdk_unit_test.a(usb_test.o)
                                                  /home/leon/git/swp-report/iMX6_Platform_SDK/output/mx6sl/sdk_unit_test/evk_rev_a/libsdk_unit_test.a(spi_test.o)
                                                  /home/leon/git/swp-report/iMX6_Platform_SDK/output/mx6sl/sdk_unit_test/evk_rev_a/libsdk_unit_test.a(watchdog_test.o)
                                                  /home/leon/git/swp-report/iMX6_Platform_SDK/output/mx6sl/sdk_unit_test/evk_rev_a/libsdk_unit_test.a(pwm_test.o)
                                                  /home/leon/git/swp-report/iMX6_Platform_SDK/output/mx6sl/sdk_unit_test/evk_rev_a/libsdk_unit_test.a(usdhc_test.o)
                                                  /home/leon/git/swp-report/iMX6_Platform_SDK/output/mx6sl/sdk_unit_test/evk_rev_a/libsdk_unit_test.a(uart_test.o)
                                                  /home/leon/git/swp-report/iMX6_Platform_SDK/output/mx6sl/sdk_unit_test/evk_rev_a/libsdk_unit_test.a(timer_test.o)
                                                  /home/leon/git/swp-report/iMX6_Platform_SDK/output/mx6sl/sdk_unit_test/evk_rev_a/libsdk_unit_test.a(gpt_test.o)
                                                  /home/leon/git/swp-report/iMX6_Platform_SDK/output/mx6sl/sdk_unit_test/evk_rev_a/libsdk_unit_test.a(epit_test.o)
                                                  /home/leon/git/swp-report/iMX6_Platform_SDK/output/mx6sl/sdk_unit_test/evk_rev_a/libsdk_unit_test.a(uart_loopback.o)
                                                  /home/leon/git/swp-report/iMX6_Platform_SDK/output/mx6sl/sdk_unit_test/evk_rev_a/libsdk_unit_test.a(spi_lpb.o)
                                                  /home/leon/git/swp-report/iMX6_Platform_SDK/output/mx6sl/sdk_unit_test/evk_rev_a/libsdk_unit_test.a(sdma_test.o)
                                                  /home/leon/git/swp-report/iMX6_Platform_SDK/output/mx6sl/sdk_unit_test/evk_rev_a/libsdk_unit_test.a(tempmon_test.o)
                                                  /home/leon/git/swp-report/iMX6_Platform_SDK/output/mx6sl/sdk_unit_test/evk_rev_a/libsdk_unit_test.a(snvs_srtc_test.o)
                                                  /home/leon/git/swp-report/iMX6_Platform_SDK/output/mx6sl/sdk_unit_test/evk_rev_a/libsdk_unit_test.a(snvs_rtc_test.o)
                                                  /home/leon/git/swp-report/iMX6_Platform_SDK/output/mx6sl/sdk_unit_test/evk_rev_a/libsdk_unit_test.a(imx6_i2c_device.o)
                                                  /home/leon/git/swp-report/iMX6_Platform_SDK/output/mx6sl/sdk_unit_test/evk_rev_a/libsdk_unit_test.a(i2c_test.o)
                                                  /home/leon/git/swp-report/iMX6_Platform_SDK/output/mx6sl/sdk_unit_test/evk_rev_a/libsdk_unit_test.a(ocotp_test.o)
                                                  /home/leon/git/swp-report/iMX6_Platform_SDK/output/mx6sl/sdk_unit_test/evk_rev_a/libsdk_unit_test.a(gic_test.o)
                                                  /home/leon/git/swp-report/iMX6_Platform_SDK/output/mx6sl/sdk_unit_test/evk_rev_a/libsdk_unit_test.a(ssi_playback.o)
                                                  /home/leon/git/swp-report/iMX6_Platform_SDK/output/mx6sl/sdk_unit_test/evk_rev_a/libsdk_unit_test.a(audio_test.o)
                                                  /home/leon/git/swp-report/iMX6_Platform_SDK/output/mx6sl/sdk_unit_test/evk_rev_a/libsdk_unit_test.a(cpu_wp_test.o)
                                                  /home/leon/git/swp-report/iMX6_Platform_SDK/output/mx6sl/lib/libsdk.a(abort_handler.o)
                                                  /home/leon/git/swp-report/iMX6_Platform_SDK/output/mx6sl/lib/libsdk.a(interrupt.o)
                                                  /home/leon/git/swp-report/iMX6_Platform_SDK/output/mx6sl/lib/libsdk.a(board_id.o)
                                                  /home/leon/git/swp-report/iMX6_Platform_SDK/output/mx6sl/lib/libsdk.a(text_color.o)
                                                  /home/leon/git/swp-report/iMX6_Platform_SDK/output/mx6sl/lib/libsdk.a(system_util.o)
                                                  /home/leon/git/swp-report/iMX6_Platform_SDK/output/mx6sl/lib/libsdk.a(menu.o)
                                                  /home/leon/git/swp-report/iMX6_Platform_SDK/output/mx6sl/sdk_unit_test/evk_rev_a/obj/apps/common/print_version.o
                                                  /home/leon/git/swp-report/iMX6_Platform_SDK/output/mx6sl/sdk_unit_test/evk_rev_a/obj/apps/common/print_clock_info.o
printf_color                                      /home/leon/git/swp-report/iMX6_Platform_SDK/output/mx6sl/lib/libsdk.a(text_color.o)
                                                  /home/leon/git/swp-report/iMX6_Platform_SDK/output/mx6sl/lib/libsdk.a(system_util.o)
                                                  /home/leon/git/swp-report/iMX6_Platform_SDK/output/mx6sl/lib/libsdk.a(menu.o)
putc                                              /home/leon/riotboard/arm-2012.09/bin/../arm-none-eabi/lib//libc.a(lib_a-putc.o)
pwm1_iomux_config                                 /home/leon/git/swp-report/iMX6_Platform_SDK/output/mx6sl/lib/libboard_evk_rev_a.a(pwm1_iomux_config.o)
                                                  /home/leon/git/swp-report/iMX6_Platform_SDK/output/mx6sl/lib/libboard_evk_rev_a.a(pwm_iomux_config.o)
                                                  /home/leon/git/swp-report/iMX6_Platform_SDK/output/mx6sl/lib/libboard_evk_rev_a.a(iomux_config.o)
pwm2_iomux_config                                 /home/leon/git/swp-report/iMX6_Platform_SDK/output/mx6sl/lib/libboard_evk_rev_a.a(iomux_config.o)
                                                  /home/leon/git/swp-report/iMX6_Platform_SDK/output/mx6sl/lib/libboard_evk_rev_a.a(pwm_iomux_config.o)
pwm3_iomux_config                                 /home/leon/git/swp-report/iMX6_Platform_SDK/output/mx6sl/lib/libboard_evk_rev_a.a(iomux_config.o)
                                                  /home/leon/git/swp-report/iMX6_Platform_SDK/output/mx6sl/lib/libboard_evk_rev_a.a(pwm_iomux_config.o)
pwm4_iomux_config                                 /home/leon/git/swp-report/iMX6_Platform_SDK/output/mx6sl/lib/libboard_evk_rev_a.a(iomux_config.o)
                                                  /home/leon/git/swp-report/iMX6_Platform_SDK/output/mx6sl/lib/libboard_evk_rev_a.a(pwm_iomux_config.o)
pwm_clear_int_status                              /home/leon/git/swp-report/iMX6_Platform_SDK/output/mx6sl/lib/libsdk.a(pwm.o)
pwm_disable                                       /home/leon/git/swp-report/iMX6_Platform_SDK/output/mx6sl/lib/libsdk.a(pwm.o)
                                                  /home/leon/git/swp-report/iMX6_Platform_SDK/output/mx6sl/sdk_unit_test/evk_rev_a/libsdk_unit_test.a(pwm_output.o)
pwm_enable                                        /home/leon/git/swp-report/iMX6_Platform_SDK/output/mx6sl/lib/libsdk.a(pwm.o)
                                                  /home/leon/git/swp-report/iMX6_Platform_SDK/output/mx6sl/sdk_unit_test/evk_rev_a/libsdk_unit_test.a(pwm_output.o)
pwm_free_interrupt                                /home/leon/git/swp-report/iMX6_Platform_SDK/output/mx6sl/lib/libsdk.a(pwm.o)
pwm_get_clock_freq                                /home/leon/git/swp-report/iMX6_Platform_SDK/output/mx6sl/lib/libsdk.a(pwm.o)
                                                  /home/leon/git/swp-report/iMX6_Platform_SDK/output/mx6sl/sdk_unit_test/evk_rev_a/libsdk_unit_test.a(pwm_output.o)
pwm_init                                          /home/leon/git/swp-report/iMX6_Platform_SDK/output/mx6sl/lib/libsdk.a(pwm.o)
                                                  /home/leon/git/swp-report/iMX6_Platform_SDK/output/mx6sl/sdk_unit_test/evk_rev_a/libsdk_unit_test.a(pwm_output.o)
pwm_int_test_end                                  /home/leon/git/swp-report/iMX6_Platform_SDK/output/mx6sl/lib/libsdk.a(pwm.o)
pwm_iomux_config                                  /home/leon/git/swp-report/iMX6_Platform_SDK/output/mx6sl/lib/libboard_evk_rev_a.a(pwm_iomux_config.o)
                                                  /home/leon/git/swp-report/iMX6_Platform_SDK/output/mx6sl/sdk_unit_test/evk_rev_a/libsdk_unit_test.a(pwm_output.o)
pwm_isr_test_end                                  /home/leon/git/swp-report/iMX6_Platform_SDK/output/mx6sl/lib/libsdk.a(pwm.o)
pwm_output_test                                   /home/leon/git/swp-report/iMX6_Platform_SDK/output/mx6sl/sdk_unit_test/evk_rev_a/libsdk_unit_test.a(pwm_output.o)
                                                  /home/leon/git/swp-report/iMX6_Platform_SDK/output/mx6sl/sdk_unit_test/evk_rev_a/libsdk_unit_test.a(pwm_test.o)
pwm_setup_interrupt                               /home/leon/git/swp-report/iMX6_Platform_SDK/output/mx6sl/lib/libsdk.a(pwm.o)
pwm_test                                          /home/leon/git/swp-report/iMX6_Platform_SDK/output/mx6sl/sdk_unit_test/evk_rev_a/libsdk_unit_test.a(pwm_test.o)
                                                  /home/leon/git/swp-report/iMX6_Platform_SDK/output/mx6sl/sdk_unit_test/evk_rev_a/obj/apps/sdk_unit_test/src/all_test.o
pxp_csc_process                                   /home/leon/git/swp-report/iMX6_Platform_SDK/output/mx6sl/lib/libsdk.a(pxp_drv.o)
                                                  /home/leon/git/swp-report/iMX6_Platform_SDK/output/mx6sl/sdk_unit_test/evk_rev_a/libsdk_unit_test.a(csi_sensor_capture.o)
pxp_disable                                       /home/leon/git/swp-report/iMX6_Platform_SDK/output/mx6sl/lib/libsdk.a(pxp_drv.o)
                                                  /home/leon/git/swp-report/iMX6_Platform_SDK/output/mx6sl/sdk_unit_test/evk_rev_a/libsdk_unit_test.a(csi_sensor_capture.o)
qf_Descriptor                                     /home/leon/git/swp-report/iMX6_Platform_SDK/output/mx6sl/sdk_unit_test/evk_rev_a/libsdk_unit_test.a(usb0_device_mouse_test.o)
raise                                             /home/leon/riotboard/arm-2012.09/bin/../arm-none-eabi/lib//libc.a(lib_a-signal.o)
                                                  /home/leon/riotboard/arm-2012.09/bin/../arm-none-eabi/lib//libc.a(lib_a-abort.o)
read_input_string                                 /home/leon/git/swp-report/iMX6_Platform_SDK/output/mx6sl/lib/libsdk.a(system_util.o)
read_int                                          /home/leon/git/swp-report/iMX6_Platform_SDK/output/mx6sl/lib/libsdk.a(system_util.o)
                                                  /home/leon/git/swp-report/iMX6_Platform_SDK/output/mx6sl/sdk_unit_test/evk_rev_a/libsdk_unit_test.a(pwm_output.o)
                                                  /home/leon/git/swp-report/iMX6_Platform_SDK/output/mx6sl/sdk_unit_test/evk_rev_a/libsdk_unit_test.a(tempmon_test.o)
read_usdhc_adma_mode                              /home/leon/git/swp-report/iMX6_Platform_SDK/output/mx6sl/lib/libsdk.a(usdhc.o)
                                                  /home/leon/git/swp-report/iMX6_Platform_SDK/output/mx6sl/lib/libsdk.a(usdhc_host.o)
read_usdhc_intr_mode                              /home/leon/git/swp-report/iMX6_Platform_SDK/output/mx6sl/lib/libsdk.a(usdhc.o)
                                                  /home/leon/git/swp-report/iMX6_Platform_SDK/output/mx6sl/lib/libsdk.a(usdhc_host.o)
                                                  /home/leon/git/swp-report/iMX6_Platform_SDK/output/mx6sl/sdk_unit_test/evk_rev_a/libsdk_unit_test.a(usdhc_test.o)
realloc                                           /home/leon/riotboard/arm-2012.09/bin/../arm-none-eabi/lib//libc.a(lib_a-realloc.o)
                                                  /home/leon/riotboard/arm-2012.09/bin/../arm-none-eabi/lib//libstdc++.a(cp-demangle.o)
                                                  /home/leon/git/swp-report/iMX6_Platform_SDK/output/mx6sl/lib/libsdk.a(system_util.o)
register_interrupt_routine                        /home/leon/git/swp-report/iMX6_Platform_SDK/output/mx6sl/lib/libsdk.a(interrupt.o)
                                                  /home/leon/git/swp-report/iMX6_Platform_SDK/output/mx6sl/lib/libsdk.a(usdhc.o)
                                                  /home/leon/git/swp-report/iMX6_Platform_SDK/output/mx6sl/lib/libsdk.a(gpt.o)
                                                  /home/leon/git/swp-report/iMX6_Platform_SDK/output/mx6sl/lib/libsdk.a(tempmon.o)
                                                  /home/leon/git/swp-report/iMX6_Platform_SDK/output/mx6sl/lib/libsdk.a(sdma.o)
                                                  /home/leon/git/swp-report/iMX6_Platform_SDK/output/mx6sl/lib/libsdk.a(srtc.o)
                                                  /home/leon/git/swp-report/iMX6_Platform_SDK/output/mx6sl/lib/libsdk.a(rtc.o)
                                                  /home/leon/git/swp-report/iMX6_Platform_SDK/output/mx6sl/lib/libsdk.a(pwm.o)
                                                  /home/leon/git/swp-report/iMX6_Platform_SDK/output/mx6sl/lib/libsdk.a(pmu_driver.o)
                                                  /home/leon/git/swp-report/iMX6_Platform_SDK/output/mx6sl/lib/libsdk.a(imx_i2c.o)
                                                  /home/leon/git/swp-report/iMX6_Platform_SDK/output/mx6sl/sdk_unit_test/evk_rev_a/libsdk_unit_test.a(gic_test.o)
                                                  /home/leon/git/swp-report/iMX6_Platform_SDK/output/mx6sl/lib/libsdk.a(epit.o)
                                                  /home/leon/git/swp-report/iMX6_Platform_SDK/output/mx6sl/lib/libsdk.a(imx_uart.o)
reset_usb_hub                                     /home/leon/git/swp-report/iMX6_Platform_SDK/output/mx6sl/lib/libboard_evk_rev_a.a(board_usb.o)
restore_core_regs                                 /home/leon/riotboard/arm-2012.09/bin/../lib/gcc/arm-none-eabi/4.7.2//libgcc.a(libunwind.o)
                                                  /home/leon/riotboard/arm-2012.09/bin/../lib/gcc/arm-none-eabi/4.7.2//libgcc.a(unwind-arm.o)
rtc_deinit                                        /home/leon/git/swp-report/iMX6_Platform_SDK/output/mx6sl/lib/libsdk.a(rtc.o)
                                                  /home/leon/git/swp-report/iMX6_Platform_SDK/output/mx6sl/sdk_unit_test/evk_rev_a/libsdk_unit_test.a(snvs_rtc_test.o)
rtc_disable_periodic_timer                        /home/leon/git/swp-report/iMX6_Platform_SDK/output/mx6sl/lib/libsdk.a(rtc.o)
rtc_init                                          /home/leon/git/swp-report/iMX6_Platform_SDK/output/mx6sl/lib/libsdk.a(rtc.o)
                                                  /home/leon/git/swp-report/iMX6_Platform_SDK/output/mx6sl/sdk_unit_test/evk_rev_a/libsdk_unit_test.a(snvs_rtc_test.o)
rtc_setup_onetime_timer                           /home/leon/git/swp-report/iMX6_Platform_SDK/output/mx6sl/lib/libsdk.a(rtc.o)
                                                  /home/leon/git/swp-report/iMX6_Platform_SDK/output/mx6sl/sdk_unit_test/evk_rev_a/libsdk_unit_test.a(snvs_rtc_test.o)
rtc_setup_periodic_timer                          /home/leon/git/swp-report/iMX6_Platform_SDK/output/mx6sl/lib/libsdk.a(rtc.o)
                                                  /home/leon/git/swp-report/iMX6_Platform_SDK/output/mx6sl/sdk_unit_test/evk_rev_a/libsdk_unit_test.a(snvs_rtc_test.o)
run_test                                          /home/leon/git/swp-report/iMX6_Platform_SDK/output/mx6sl/sdk_unit_test/evk_rev_a/obj/apps/sdk_unit_test/src/all_test.o
scalbnf                                           /home/leon/riotboard/arm-2012.09/bin/../arm-none-eabi/lib//libm.a(lib_a-sf_scalbn.o)
                                                  /home/leon/riotboard/arm-2012.09/bin/../arm-none-eabi/lib//libm.a(lib_a-kf_rem_pio2.o)
script_info                                       /home/leon/git/swp-report/iMX6_Platform_SDK/output/mx6sl/lib/libsdk.a(sdma_script_info.o)
                                                  /home/leon/git/swp-report/iMX6_Platform_SDK/output/mx6sl/lib/libsdk.a(sdma.o)
scu_disable_maintenance_broadcast                 /home/leon/git/swp-report/iMX6_Platform_SDK/output/mx6sl/lib/libsdk.a(cortexA9.o)
scu_enable                                        /home/leon/git/swp-report/iMX6_Platform_SDK/output/mx6sl/lib/libsdk.a(cortexA9.o)
scu_enable_maintenance_broadcast                  /home/leon/git/swp-report/iMX6_Platform_SDK/output/mx6sl/lib/libsdk.a(cortexA9.o)
scu_get_cpus_in_smp                               /home/leon/git/swp-report/iMX6_Platform_SDK/output/mx6sl/lib/libsdk.a(cortexA9.o)
scu_join_smp                                      /home/leon/git/swp-report/iMX6_Platform_SDK/output/mx6sl/lib/libsdk.a(cortexA9.o)
scu_leave_smp                                     /home/leon/git/swp-report/iMX6_Platform_SDK/output/mx6sl/lib/libsdk.a(cortexA9.o)
scu_secure_invalidate                             /home/leon/git/swp-report/iMX6_Platform_SDK/output/mx6sl/lib/libsdk.a(cortexA9.o)
sd_if_cmd_arg                                     /home/leon/git/swp-report/iMX6_Platform_SDK/output/mx6sl/lib/libsdk.a(usdhc_sd.o)
sd_init                                           /home/leon/git/swp-report/iMX6_Platform_SDK/output/mx6sl/lib/libsdk.a(usdhc_sd.o)
                                                  /home/leon/git/swp-report/iMX6_Platform_SDK/output/mx6sl/lib/libsdk.a(usdhc.o)
sd_ocr_value                                      /home/leon/git/swp-report/iMX6_Platform_SDK/output/mx6sl/lib/libsdk.a(usdhc_sd.o)
sd_voltage_validation                             /home/leon/git/swp-report/iMX6_Platform_SDK/output/mx6sl/lib/libsdk.a(usdhc_sd.o)
                                                  /home/leon/git/swp-report/iMX6_Platform_SDK/output/mx6sl/lib/libsdk.a(usdhc.o)
sdma_channel_isr_attach                           /home/leon/git/swp-report/iMX6_Platform_SDK/output/mx6sl/lib/libsdk.a(sdma.o)
                                                  /home/leon/git/swp-report/iMX6_Platform_SDK/output/mx6sl/sdk_unit_test/evk_rev_a/libsdk_unit_test.a(uart_loopback.o)
sdma_channel_release                              /home/leon/git/swp-report/iMX6_Platform_SDK/output/mx6sl/lib/libsdk.a(sdma.o)
                                                  /home/leon/git/swp-report/iMX6_Platform_SDK/output/mx6sl/sdk_unit_test/evk_rev_a/libsdk_unit_test.a(mem_2_mem.o)
                                                  /home/leon/git/swp-report/iMX6_Platform_SDK/output/mx6sl/sdk_unit_test/evk_rev_a/libsdk_unit_test.a(uart_loopback.o)
                                                  /home/leon/git/swp-report/iMX6_Platform_SDK/output/mx6sl/sdk_unit_test/evk_rev_a/libsdk_unit_test.a(spi_lpb.o)
sdma_channel_request                              /home/leon/git/swp-report/iMX6_Platform_SDK/output/mx6sl/lib/libsdk.a(sdma.o)
                                                  /home/leon/git/swp-report/iMX6_Platform_SDK/output/mx6sl/sdk_unit_test/evk_rev_a/libsdk_unit_test.a(mem_2_mem.o)
                                                  /home/leon/git/swp-report/iMX6_Platform_SDK/output/mx6sl/sdk_unit_test/evk_rev_a/libsdk_unit_test.a(uart_loopback.o)
                                                  /home/leon/git/swp-report/iMX6_Platform_SDK/output/mx6sl/sdk_unit_test/evk_rev_a/libsdk_unit_test.a(spi_lpb.o)
sdma_channel_start                                /home/leon/git/swp-report/iMX6_Platform_SDK/output/mx6sl/lib/libsdk.a(sdma.o)
                                                  /home/leon/git/swp-report/iMX6_Platform_SDK/output/mx6sl/sdk_unit_test/evk_rev_a/libsdk_unit_test.a(mem_2_mem.o)
                                                  /home/leon/git/swp-report/iMX6_Platform_SDK/output/mx6sl/sdk_unit_test/evk_rev_a/libsdk_unit_test.a(uart_loopback.o)
                                                  /home/leon/git/swp-report/iMX6_Platform_SDK/output/mx6sl/sdk_unit_test/evk_rev_a/libsdk_unit_test.a(spi_lpb.o)
sdma_channel_status                               /home/leon/git/swp-report/iMX6_Platform_SDK/output/mx6sl/lib/libsdk.a(sdma.o)
                                                  /home/leon/git/swp-report/iMX6_Platform_SDK/output/mx6sl/sdk_unit_test/evk_rev_a/libsdk_unit_test.a(mem_2_mem.o)
                                                  /home/leon/git/swp-report/iMX6_Platform_SDK/output/mx6sl/sdk_unit_test/evk_rev_a/libsdk_unit_test.a(uart_loopback.o)
                                                  /home/leon/git/swp-report/iMX6_Platform_SDK/output/mx6sl/sdk_unit_test/evk_rev_a/libsdk_unit_test.a(spi_lpb.o)
sdma_channel_stop                                 /home/leon/git/swp-report/iMX6_Platform_SDK/output/mx6sl/lib/libsdk.a(sdma.o)
                                                  /home/leon/git/swp-report/iMX6_Platform_SDK/output/mx6sl/sdk_unit_test/evk_rev_a/libsdk_unit_test.a(mem_2_mem.o)
                                                  /home/leon/git/swp-report/iMX6_Platform_SDK/output/mx6sl/sdk_unit_test/evk_rev_a/libsdk_unit_test.a(uart_loopback.o)
                                                  /home/leon/git/swp-report/iMX6_Platform_SDK/output/mx6sl/sdk_unit_test/evk_rev_a/libsdk_unit_test.a(spi_lpb.o)
sdma_deinit                                       /home/leon/git/swp-report/iMX6_Platform_SDK/output/mx6sl/lib/libsdk.a(sdma.o)
                                                  /home/leon/git/swp-report/iMX6_Platform_SDK/output/mx6sl/sdk_unit_test/evk_rev_a/libsdk_unit_test.a(mem_2_mem.o)
                                                  /home/leon/git/swp-report/iMX6_Platform_SDK/output/mx6sl/sdk_unit_test/evk_rev_a/libsdk_unit_test.a(uart_loopback.o)
                                                  /home/leon/git/swp-report/iMX6_Platform_SDK/output/mx6sl/sdk_unit_test/evk_rev_a/libsdk_unit_test.a(spi_lpb.o)
sdma_init                                         /home/leon/git/swp-report/iMX6_Platform_SDK/output/mx6sl/lib/libsdk.a(sdma.o)
                                                  /home/leon/git/swp-report/iMX6_Platform_SDK/output/mx6sl/sdk_unit_test/evk_rev_a/libsdk_unit_test.a(mem_2_mem.o)
                                                  /home/leon/git/swp-report/iMX6_Platform_SDK/output/mx6sl/sdk_unit_test/evk_rev_a/libsdk_unit_test.a(uart_loopback.o)
                                                  /home/leon/git/swp-report/iMX6_Platform_SDK/output/mx6sl/sdk_unit_test/evk_rev_a/libsdk_unit_test.a(spi_lpb.o)
sdma_iomux_config                                 /home/leon/git/swp-report/iMX6_Platform_SDK/output/mx6sl/lib/libboard_evk_rev_a.a(iomux_config.o)
sdma_lookup_script                                /home/leon/git/swp-report/iMX6_Platform_SDK/output/mx6sl/lib/libsdk.a(sdma.o)
                                                  /home/leon/git/swp-report/iMX6_Platform_SDK/output/mx6sl/sdk_unit_test/evk_rev_a/libsdk_unit_test.a(mem_2_mem.o)
                                                  /home/leon/git/swp-report/iMX6_Platform_SDK/output/mx6sl/sdk_unit_test/evk_rev_a/libsdk_unit_test.a(uart_loopback.o)
                                                  /home/leon/git/swp-report/iMX6_Platform_SDK/output/mx6sl/sdk_unit_test/evk_rev_a/libsdk_unit_test.a(spi_lpb.o)
sdma_setup_interrupt                              /home/leon/git/swp-report/iMX6_Platform_SDK/output/mx6sl/lib/libsdk.a(sdma.o)
                                                  /home/leon/git/swp-report/iMX6_Platform_SDK/output/mx6sl/sdk_unit_test/evk_rev_a/libsdk_unit_test.a(uart_loopback.o)
sdma_test                                         /home/leon/git/swp-report/iMX6_Platform_SDK/output/mx6sl/sdk_unit_test/evk_rev_a/libsdk_unit_test.a(sdma_test.o)
                                                  /home/leon/git/swp-report/iMX6_Platform_SDK/output/mx6sl/sdk_unit_test/evk_rev_a/obj/apps/sdk_unit_test/src/all_test.o
sensor_af_trigger                                 /home/leon/git/swp-report/iMX6_Platform_SDK/output/mx6sl/lib/libsdk.a(smd_sensor.o)
sensor_autofocus_init                             /home/leon/git/swp-report/iMX6_Platform_SDK/output/mx6sl/lib/libsdk.a(smd_sensor.o)
sensor_clock_setting                              /home/leon/git/swp-report/iMX6_Platform_SDK/output/mx6sl/lib/libboard_evk_rev_a.a(board_camera.o)
                                                  /home/leon/git/swp-report/iMX6_Platform_SDK/output/mx6sl/lib/libsdk.a(smd_sensor.o)
sensor_config                                     /home/leon/git/swp-report/iMX6_Platform_SDK/output/mx6sl/lib/libsdk.a(smd_sensor.o)
                                                  /home/leon/git/swp-report/iMX6_Platform_SDK/output/mx6sl/sdk_unit_test/evk_rev_a/libsdk_unit_test.a(csi_sensor_capture.o)
sensor_init                                       /home/leon/git/swp-report/iMX6_Platform_SDK/output/mx6sl/lib/libsdk.a(smd_sensor.o)
sensor_reset                                      /home/leon/git/swp-report/iMX6_Platform_SDK/output/mx6sl/lib/libboard_evk_rev_a.a(board_camera.o)
                                                  /home/leon/git/swp-report/iMX6_Platform_SDK/output/mx6sl/lib/libsdk.a(smd_sensor.o)
sensor_search                                     /home/leon/git/swp-report/iMX6_Platform_SDK/output/mx6sl/lib/libsdk.a(smd_sensor.o)
                                                  /home/leon/git/swp-report/iMX6_Platform_SDK/output/mx6sl/sdk_unit_test/evk_rev_a/libsdk_unit_test.a(csi_sensor_capture.o)
sensor_standby                                    /home/leon/git/swp-report/iMX6_Platform_SDK/output/mx6sl/lib/libboard_evk_rev_a.a(board_camera.o)
set_card_access_mode                              /home/leon/git/swp-report/iMX6_Platform_SDK/output/mx6sl/lib/libsdk.a(usdhc.o)
                                                  /home/leon/git/swp-report/iMX6_Platform_SDK/output/mx6sl/sdk_unit_test/evk_rev_a/libsdk_unit_test.a(usdhc_test.o)
setlocale                                         /home/leon/riotboard/arm-2012.09/bin/../arm-none-eabi/lib//libc.a(lib_a-locale.o)
show_board_id                                     /home/leon/git/swp-report/iMX6_Platform_SDK/output/mx6sl/lib/libsdk.a(board_id.o)
show_ddr_config                                   /home/leon/git/swp-report/iMX6_Platform_SDK/output/mx6sl/sdk_unit_test/evk_rev_a/obj/apps/common/print_clock_info.o
                                                  /home/leon/git/swp-report/iMX6_Platform_SDK/output/mx6sl/sdk_unit_test/evk_rev_a/obj/apps/sdk_unit_test/src/unit_test_main.o
show_freq                                         /home/leon/git/swp-report/iMX6_Platform_SDK/output/mx6sl/sdk_unit_test/evk_rev_a/obj/apps/common/print_clock_info.o
                                                  /home/leon/git/swp-report/iMX6_Platform_SDK/output/mx6sl/sdk_unit_test/evk_rev_a/obj/apps/sdk_unit_test/src/unit_test_main.o
signal                                            /home/leon/riotboard/arm-2012.09/bin/../arm-none-eabi/lib//libc.a(lib_a-signal.o)
sinf                                              /home/leon/riotboard/arm-2012.09/bin/../arm-none-eabi/lib//libm.a(lib_a-sf_sin.o)
                                                  /home/leon/git/swp-report/iMX6_Platform_SDK/output/mx6sl/sdk_unit_test/evk_rev_a/libsdk_unit_test.a(usb0_device_mouse_test.o)
sipix_epd_clock_setting                           /home/leon/git/swp-report/iMX6_Platform_SDK/output/mx6sl/lib/libboard_evk_rev_a.a(board_display.o)
                                                  /home/leon/git/swp-report/iMX6_Platform_SDK/output/mx6sl/sdk_unit_test/evk_rev_a/libsdk_unit_test.a(spdc_test.o)
sjc_iomux_config                                  /home/leon/git/swp-report/iMX6_Platform_SDK/output/mx6sl/lib/libboard_evk_rev_a.a(sjc_iomux_config.o)
                                                  /home/leon/git/swp-report/iMX6_Platform_SDK/output/mx6sl/lib/libboard_evk_rev_a.a(iomux_config.o)
snd_card_spdif                                    /home/leon/git/swp-report/iMX6_Platform_SDK/output/mx6sl/lib/libsdk.a(snd_card.o)
snd_card_ssi_wm8962                               /home/leon/git/swp-report/iMX6_Platform_SDK/output/mx6sl/lib/libsdk.a(snd_card.o)
                                                  /home/leon/git/swp-report/iMX6_Platform_SDK/output/mx6sl/sdk_unit_test/evk_rev_a/libsdk_unit_test.a(ssi_playback.o)
snvs_deinit                                       /home/leon/git/swp-report/iMX6_Platform_SDK/output/mx6sl/lib/libsdk.a(snvs.o)
                                                  /home/leon/git/swp-report/iMX6_Platform_SDK/output/mx6sl/lib/libsdk.a(srtc.o)
                                                  /home/leon/git/swp-report/iMX6_Platform_SDK/output/mx6sl/lib/libsdk.a(rtc.o)
snvs_init                                         /home/leon/git/swp-report/iMX6_Platform_SDK/output/mx6sl/lib/libsdk.a(snvs.o)
                                                  /home/leon/git/swp-report/iMX6_Platform_SDK/output/mx6sl/lib/libsdk.a(srtc.o)
                                                  /home/leon/git/swp-report/iMX6_Platform_SDK/output/mx6sl/lib/libsdk.a(rtc.o)
snvs_iomux_config                                 /home/leon/git/swp-report/iMX6_Platform_SDK/output/mx6sl/lib/libboard_evk_rev_a.a(iomux_config.o)
snvs_rtc_alarm                                    /home/leon/git/swp-report/iMX6_Platform_SDK/output/mx6sl/lib/libsdk.a(snvs.o)
                                                  /home/leon/git/swp-report/iMX6_Platform_SDK/output/mx6sl/lib/libsdk.a(rtc.o)
snvs_rtc_counter                                  /home/leon/git/swp-report/iMX6_Platform_SDK/output/mx6sl/lib/libsdk.a(snvs.o)
                                                  /home/leon/git/swp-report/iMX6_Platform_SDK/output/mx6sl/lib/libsdk.a(rtc.o)
snvs_rtc_interrupt_handler                        /home/leon/git/swp-report/iMX6_Platform_SDK/output/mx6sl/lib/libsdk.a(rtc.o)
snvs_rtc_periodic_interrupt                       /home/leon/git/swp-report/iMX6_Platform_SDK/output/mx6sl/lib/libsdk.a(snvs.o)
                                                  /home/leon/git/swp-report/iMX6_Platform_SDK/output/mx6sl/lib/libsdk.a(rtc.o)
snvs_rtc_set_alarm_timeout                        /home/leon/git/swp-report/iMX6_Platform_SDK/output/mx6sl/lib/libsdk.a(snvs.o)
                                                  /home/leon/git/swp-report/iMX6_Platform_SDK/output/mx6sl/lib/libsdk.a(rtc.o)
snvs_rtc_set_counter                              /home/leon/git/swp-report/iMX6_Platform_SDK/output/mx6sl/lib/libsdk.a(snvs.o)
                                                  /home/leon/git/swp-report/iMX6_Platform_SDK/output/mx6sl/lib/libsdk.a(rtc.o)
snvs_rtc_setup_interrupt                          /home/leon/git/swp-report/iMX6_Platform_SDK/output/mx6sl/lib/libsdk.a(rtc.o)
snvs_rtc_test                                     /home/leon/git/swp-report/iMX6_Platform_SDK/output/mx6sl/sdk_unit_test/evk_rev_a/libsdk_unit_test.a(snvs_rtc_test.o)
                                                  /home/leon/git/swp-report/iMX6_Platform_SDK/output/mx6sl/sdk_unit_test/evk_rev_a/obj/apps/sdk_unit_test/src/all_test.o
snvs_srtc_alarm                                   /home/leon/git/swp-report/iMX6_Platform_SDK/output/mx6sl/lib/libsdk.a(snvs.o)
                                                  /home/leon/git/swp-report/iMX6_Platform_SDK/output/mx6sl/lib/libsdk.a(srtc.o)
snvs_srtc_counter                                 /home/leon/git/swp-report/iMX6_Platform_SDK/output/mx6sl/lib/libsdk.a(snvs.o)
                                                  /home/leon/git/swp-report/iMX6_Platform_SDK/output/mx6sl/lib/libsdk.a(srtc.o)
snvs_srtc_interrupt_handler                       /home/leon/git/swp-report/iMX6_Platform_SDK/output/mx6sl/lib/libsdk.a(srtc.o)
snvs_srtc_set_alarm_timeout                       /home/leon/git/swp-report/iMX6_Platform_SDK/output/mx6sl/lib/libsdk.a(snvs.o)
                                                  /home/leon/git/swp-report/iMX6_Platform_SDK/output/mx6sl/lib/libsdk.a(srtc.o)
snvs_srtc_set_counter                             /home/leon/git/swp-report/iMX6_Platform_SDK/output/mx6sl/lib/libsdk.a(snvs.o)
                                                  /home/leon/git/swp-report/iMX6_Platform_SDK/output/mx6sl/lib/libsdk.a(srtc.o)
snvs_srtc_setup_interrupt                         /home/leon/git/swp-report/iMX6_Platform_SDK/output/mx6sl/lib/libsdk.a(srtc.o)
snvs_srtc_test                                    /home/leon/git/swp-report/iMX6_Platform_SDK/output/mx6sl/sdk_unit_test/evk_rev_a/libsdk_unit_test.a(snvs_srtc_test.o)
                                                  /home/leon/git/swp-report/iMX6_Platform_SDK/output/mx6sl/sdk_unit_test/evk_rev_a/obj/apps/sdk_unit_test/src/all_test.o
spdc_check_lut_download_finish                    /home/leon/git/swp-report/iMX6_Platform_SDK/output/mx6sl/lib/libsdk.a(mxc_spdc.o)
                                                  /home/leon/git/swp-report/iMX6_Platform_SDK/output/mx6sl/sdk_unit_test/evk_rev_a/libsdk_unit_test.a(spdc_test.o)
spdc_check_operation_finish                       /home/leon/git/swp-report/iMX6_Platform_SDK/output/mx6sl/lib/libsdk.a(mxc_spdc.o)
                                                  /home/leon/git/swp-report/iMX6_Platform_SDK/output/mx6sl/sdk_unit_test/evk_rev_a/libsdk_unit_test.a(spdc_test.o)
spdc_check_tcon_init_finish                       /home/leon/git/swp-report/iMX6_Platform_SDK/output/mx6sl/lib/libsdk.a(mxc_spdc.o)
                                                  /home/leon/git/swp-report/iMX6_Platform_SDK/output/mx6sl/sdk_unit_test/evk_rev_a/libsdk_unit_test.a(spdc_test.o)
spdc_clock_gate                                   /home/leon/git/swp-report/iMX6_Platform_SDK/output/mx6sl/lib/libsdk.a(mxc_spdc.o)
                                                  /home/leon/git/swp-report/iMX6_Platform_SDK/output/mx6sl/sdk_unit_test/evk_rev_a/libsdk_unit_test.a(spdc_test.o)
spdc_enable_interrupts                            /home/leon/git/swp-report/iMX6_Platform_SDK/output/mx6sl/lib/libsdk.a(mxc_spdc.o)
                                                  /home/leon/git/swp-report/iMX6_Platform_SDK/output/mx6sl/sdk_unit_test/evk_rev_a/libsdk_unit_test.a(spdc_test.o)
spdc_iomux_config                                 /home/leon/git/swp-report/iMX6_Platform_SDK/output/mx6sl/lib/libboard_evk_rev_a.a(spdc_iomux_config.o)
                                                  /home/leon/git/swp-report/iMX6_Platform_SDK/output/mx6sl/sdk_unit_test/evk_rev_a/libsdk_unit_test.a(spdc_test.o)
                                                  /home/leon/git/swp-report/iMX6_Platform_SDK/output/mx6sl/lib/libboard_evk_rev_a.a(iomux_config.o)
spdc_load_wv_lut                                  /home/leon/git/swp-report/iMX6_Platform_SDK/output/mx6sl/lib/libsdk.a(mxc_spdc.o)
                                                  /home/leon/git/swp-report/iMX6_Platform_SDK/output/mx6sl/sdk_unit_test/evk_rev_a/libsdk_unit_test.a(spdc_test.o)
spdc_operation_start                              /home/leon/git/swp-report/iMX6_Platform_SDK/output/mx6sl/lib/libsdk.a(mxc_spdc.o)
                                                  /home/leon/git/swp-report/iMX6_Platform_SDK/output/mx6sl/sdk_unit_test/evk_rev_a/libsdk_unit_test.a(spdc_test.o)
spdc_panel_init_set                               /home/leon/git/swp-report/iMX6_Platform_SDK/output/mx6sl/lib/libsdk.a(mxc_spdc.o)
                                                  /home/leon/git/swp-report/iMX6_Platform_SDK/output/mx6sl/sdk_unit_test/evk_rev_a/libsdk_unit_test.a(spdc_test.o)
spdc_power_up                                     /home/leon/git/swp-report/iMX6_Platform_SDK/output/mx6sl/lib/libboard_evk_rev_a.a(board_display.o)
                                                  /home/leon/git/swp-report/iMX6_Platform_SDK/output/mx6sl/sdk_unit_test/evk_rev_a/libsdk_unit_test.a(spdc_test.o)
spdc_set_buffers                                  /home/leon/git/swp-report/iMX6_Platform_SDK/output/mx6sl/lib/libsdk.a(mxc_spdc.o)
                                                  /home/leon/git/swp-report/iMX6_Platform_SDK/output/mx6sl/sdk_unit_test/evk_rev_a/libsdk_unit_test.a(spdc_test.o)
spdc_temperature_set                              /home/leon/git/swp-report/iMX6_Platform_SDK/output/mx6sl/lib/libsdk.a(mxc_spdc.o)
                                                  /home/leon/git/swp-report/iMX6_Platform_SDK/output/mx6sl/sdk_unit_test/evk_rev_a/libsdk_unit_test.a(spdc_test.o)
spdc_test                                         /home/leon/git/swp-report/iMX6_Platform_SDK/output/mx6sl/sdk_unit_test/evk_rev_a/libsdk_unit_test.a(spdc_test.o)
                                                  /home/leon/git/swp-report/iMX6_Platform_SDK/output/mx6sl/sdk_unit_test/evk_rev_a/obj/apps/sdk_unit_test/src/all_test.o
spdc_trigger_display                              /home/leon/git/swp-report/iMX6_Platform_SDK/output/mx6sl/lib/libsdk.a(mxc_spdc.o)
                                                  /home/leon/git/swp-report/iMX6_Platform_SDK/output/mx6sl/sdk_unit_test/evk_rev_a/libsdk_unit_test.a(spdc_test.o)
spdc_update_image                                 /home/leon/git/swp-report/iMX6_Platform_SDK/output/mx6sl/lib/libsdk.a(mxc_spdc.o)
                                                  /home/leon/git/swp-report/iMX6_Platform_SDK/output/mx6sl/sdk_unit_test/evk_rev_a/libsdk_unit_test.a(spdc_test.o)
spdif_clk_cfg                                     /home/leon/git/swp-report/iMX6_Platform_SDK/output/mx6sl/lib/libboard_evk_rev_a.a(board_audio.o)
                                                  /home/leon/git/swp-report/iMX6_Platform_SDK/output/mx6sl/lib/libsdk.a(imx_spdif.o)
spdif_config                                      /home/leon/git/swp-report/iMX6_Platform_SDK/output/mx6sl/lib/libsdk.a(imx_spdif.o)
spdif_deinit                                      /home/leon/git/swp-report/iMX6_Platform_SDK/output/mx6sl/lib/libsdk.a(imx_spdif.o)
spdif_get_tx_clk_freq                             /home/leon/git/swp-report/iMX6_Platform_SDK/output/mx6sl/lib/libboard_evk_rev_a.a(board_audio.o)
                                                  /home/leon/git/swp-report/iMX6_Platform_SDK/output/mx6sl/lib/libsdk.a(imx_spdif.o)
spdif_init                                        /home/leon/git/swp-report/iMX6_Platform_SDK/output/mx6sl/lib/libsdk.a(imx_spdif.o)
spdif_iomux_config                                /home/leon/git/swp-report/iMX6_Platform_SDK/output/mx6sl/lib/libboard_evk_rev_a.a(iomux_config.o)
                                                  /home/leon/git/swp-report/iMX6_Platform_SDK/output/mx6sl/lib/libsdk.a(imx_spdif.o)
spdif_write_fifo                                  /home/leon/git/swp-report/iMX6_Platform_SDK/output/mx6sl/lib/libsdk.a(imx_spdif.o)
spi_nor_erase_numonyx                             /home/leon/git/swp-report/iMX6_Platform_SDK/output/mx6sl/sdk_unit_test/evk_rev_a/libsdk_unit_test.a(spi_nor_numonyx.o)
                                                  /home/leon/git/swp-report/iMX6_Platform_SDK/output/mx6sl/sdk_unit_test/evk_rev_a/libsdk_unit_test.a(spi_test.o)
spi_nor_query_numonyx                             /home/leon/git/swp-report/iMX6_Platform_SDK/output/mx6sl/sdk_unit_test/evk_rev_a/libsdk_unit_test.a(spi_nor_numonyx.o)
                                                  /home/leon/git/swp-report/iMX6_Platform_SDK/output/mx6sl/sdk_unit_test/evk_rev_a/libsdk_unit_test.a(spi_test.o)
spi_nor_read_numonyx                              /home/leon/git/swp-report/iMX6_Platform_SDK/output/mx6sl/sdk_unit_test/evk_rev_a/libsdk_unit_test.a(spi_nor_numonyx.o)
                                                  /home/leon/git/swp-report/iMX6_Platform_SDK/output/mx6sl/sdk_unit_test/evk_rev_a/libsdk_unit_test.a(spi_test.o)
spi_nor_write_numonyx                             /home/leon/git/swp-report/iMX6_Platform_SDK/output/mx6sl/sdk_unit_test/evk_rev_a/libsdk_unit_test.a(spi_nor_numonyx.o)
                                                  /home/leon/git/swp-report/iMX6_Platform_SDK/output/mx6sl/sdk_unit_test/evk_rev_a/libsdk_unit_test.a(spi_test.o)
spi_test                                          /home/leon/git/swp-report/iMX6_Platform_SDK/output/mx6sl/sdk_unit_test/evk_rev_a/libsdk_unit_test.a(spi_test.o)
                                                  /home/leon/git/swp-report/iMX6_Platform_SDK/output/mx6sl/sdk_unit_test/evk_rev_a/obj/apps/sdk_unit_test/src/all_test.o
sprintf                                           /home/leon/riotboard/arm-2012.09/bin/../arm-none-eabi/lib//libc.a(lib_a-sprintf.o)
                                                  /home/leon/riotboard/arm-2012.09/bin/../arm-none-eabi/lib//libstdc++.a(cp-demangle.o)
                                                  /home/leon/git/swp-report/iMX6_Platform_SDK/output/mx6sl/lib/libsdk.a(board_id.o)
src_iomux_config                                  /home/leon/git/swp-report/iMX6_Platform_SDK/output/mx6sl/lib/libboard_evk_rev_a.a(iomux_config.o)
srtc_deinit                                       /home/leon/git/swp-report/iMX6_Platform_SDK/output/mx6sl/lib/libsdk.a(srtc.o)
                                                  /home/leon/git/swp-report/iMX6_Platform_SDK/output/mx6sl/sdk_unit_test/evk_rev_a/libsdk_unit_test.a(snvs_srtc_test.o)
srtc_init                                         /home/leon/git/swp-report/iMX6_Platform_SDK/output/mx6sl/lib/libsdk.a(srtc.o)
                                                  /home/leon/git/swp-report/iMX6_Platform_SDK/output/mx6sl/sdk_unit_test/evk_rev_a/libsdk_unit_test.a(snvs_srtc_test.o)
srtc_one_time_tick_callback                       /home/leon/git/swp-report/iMX6_Platform_SDK/output/mx6sl/sdk_unit_test/evk_rev_a/libsdk_unit_test.a(snvs_srtc_test.o)
srtc_one_time_timer_test                          /home/leon/git/swp-report/iMX6_Platform_SDK/output/mx6sl/sdk_unit_test/evk_rev_a/libsdk_unit_test.a(snvs_srtc_test.o)
srtc_setup_onetime_timer                          /home/leon/git/swp-report/iMX6_Platform_SDK/output/mx6sl/lib/libsdk.a(srtc.o)
                                                  /home/leon/git/swp-report/iMX6_Platform_SDK/output/mx6sl/sdk_unit_test/evk_rev_a/libsdk_unit_test.a(snvs_srtc_test.o)
ssi_config                                        /home/leon/git/swp-report/iMX6_Platform_SDK/output/mx6sl/lib/libsdk.a(imx-ssi.o)
ssi_deinit                                        /home/leon/git/swp-report/iMX6_Platform_SDK/output/mx6sl/lib/libsdk.a(imx-ssi.o)
ssi_init                                          /home/leon/git/swp-report/iMX6_Platform_SDK/output/mx6sl/lib/libsdk.a(imx-ssi.o)
ssi_playback                                      /home/leon/git/swp-report/iMX6_Platform_SDK/output/mx6sl/sdk_unit_test/evk_rev_a/libsdk_unit_test.a(ssi_playback.o)
                                                  /home/leon/git/swp-report/iMX6_Platform_SDK/output/mx6sl/sdk_unit_test/evk_rev_a/libsdk_unit_test.a(audio_test.o)
ssi_read_fifo                                     /home/leon/git/swp-report/iMX6_Platform_SDK/output/mx6sl/lib/libsdk.a(imx-ssi.o)
ssi_write_fifo                                    /home/leon/git/swp-report/iMX6_Platform_SDK/output/mx6sl/lib/libsdk.a(imx-ssi.o)
std::bad_exception::what() const                  /home/leon/riotboard/arm-2012.09/bin/../arm-none-eabi/lib//libstdc++.a(eh_exception.o)
std::bad_exception::~bad_exception()              /home/leon/riotboard/arm-2012.09/bin/../arm-none-eabi/lib//libstdc++.a(eh_exception.o)
std::bad_exception::~bad_exception()              /home/leon/riotboard/arm-2012.09/bin/../arm-none-eabi/lib//libstdc++.a(eh_exception.o)
                                                  /home/leon/riotboard/arm-2012.09/bin/../arm-none-eabi/lib//libstdc++.a(eh_call.o)
std::bad_exception::~bad_exception()              /home/leon/riotboard/arm-2012.09/bin/../arm-none-eabi/lib//libstdc++.a(eh_exception.o)
std::exception::what() const                      /home/leon/riotboard/arm-2012.09/bin/../arm-none-eabi/lib//libstdc++.a(eh_exception.o)
std::exception::~exception()                      /home/leon/riotboard/arm-2012.09/bin/../arm-none-eabi/lib//libstdc++.a(eh_exception.o)
std::exception::~exception()                      /home/leon/riotboard/arm-2012.09/bin/../arm-none-eabi/lib//libstdc++.a(eh_exception.o)
std::exception::~exception()                      /home/leon/riotboard/arm-2012.09/bin/../arm-none-eabi/lib//libstdc++.a(eh_exception.o)
std::set_terminate(void (*)())                    /home/leon/riotboard/arm-2012.09/bin/../arm-none-eabi/lib//libstdc++.a(eh_terminate.o)
std::set_unexpected(void (*)())                   /home/leon/riotboard/arm-2012.09/bin/../arm-none-eabi/lib//libstdc++.a(eh_terminate.o)
std::terminate()                                  /home/leon/riotboard/arm-2012.09/bin/../arm-none-eabi/lib//libstdc++.a(eh_terminate.o)
                                                  /home/leon/riotboard/arm-2012.09/bin/../arm-none-eabi/lib//libstdc++.a(eh_catch.o)
                                                  /home/leon/riotboard/arm-2012.09/bin/../arm-none-eabi/lib//libstdc++.a(eh_personality.o)
                                                  /home/leon/riotboard/arm-2012.09/bin/../arm-none-eabi/lib//libstdc++.a(eh_alloc.o)
                                                  /home/leon/riotboard/arm-2012.09/bin/../arm-none-eabi/lib//libstdc++.a(eh_arm.o)
                                                  /home/leon/riotboard/arm-2012.09/bin/../arm-none-eabi/lib//libstdc++.a(eh_throw.o)
                                                  /home/leon/riotboard/arm-2012.09/bin/../arm-none-eabi/lib//libstdc++.a(eh_call.o)
                                                  /home/leon/riotboard/arm-2012.09/bin/../arm-none-eabi/lib//libstdc++.a(eh_unex_handler.o)
                                                  /home/leon/riotboard/arm-2012.09/bin/../arm-none-eabi/lib//libstdc++.a(pure.o)
std::type_info::__do_catch(std::type_info const*, void**, unsigned int) const /home/leon/riotboard/arm-2012.09/bin/../arm-none-eabi/lib//libstdc++.a(tinfo.o)
std::type_info::__do_upcast(__cxxabiv1::__class_type_info const*, void**) const /home/leon/riotboard/arm-2012.09/bin/../arm-none-eabi/lib//libstdc++.a(tinfo.o)
std::type_info::__is_function_p() const           /home/leon/riotboard/arm-2012.09/bin/../arm-none-eabi/lib//libstdc++.a(tinfo.o)
                                                  /home/leon/riotboard/arm-2012.09/bin/../arm-none-eabi/lib//libstdc++.a(class_type_info.o)
                                                  /home/leon/riotboard/arm-2012.09/bin/../arm-none-eabi/lib//libstdc++.a(si_class_type_info.o)
std::type_info::__is_pointer_p() const            /home/leon/riotboard/arm-2012.09/bin/../arm-none-eabi/lib//libstdc++.a(tinfo.o)
                                                  /home/leon/riotboard/arm-2012.09/bin/../arm-none-eabi/lib//libstdc++.a(class_type_info.o)
                                                  /home/leon/riotboard/arm-2012.09/bin/../arm-none-eabi/lib//libstdc++.a(si_class_type_info.o)
std::type_info::operator==(std::type_info const&) const /home/leon/riotboard/arm-2012.09/bin/../arm-none-eabi/lib//libstdc++.a(tinfo.o)
                                                  /home/leon/riotboard/arm-2012.09/bin/../arm-none-eabi/lib//libstdc++.a(class_type_info.o)
                                                  /home/leon/riotboard/arm-2012.09/bin/../arm-none-eabi/lib//libstdc++.a(si_class_type_info.o)
std::type_info::~type_info()                      /home/leon/riotboard/arm-2012.09/bin/../arm-none-eabi/lib//libstdc++.a(tinfo.o)
std::type_info::~type_info()                      /home/leon/riotboard/arm-2012.09/bin/../arm-none-eabi/lib//libstdc++.a(tinfo.o)
std::type_info::~type_info()                      /home/leon/riotboard/arm-2012.09/bin/../arm-none-eabi/lib//libstdc++.a(tinfo.o)
                                                  /home/leon/riotboard/arm-2012.09/bin/../arm-none-eabi/lib//libstdc++.a(class_type_info.o)
std::uncaught_exception()                         /home/leon/riotboard/arm-2012.09/bin/../arm-none-eabi/lib//libstdc++.a(eh_catch.o)
std::unexpected()                                 /home/leon/riotboard/arm-2012.09/bin/../arm-none-eabi/lib//libstdc++.a(eh_terminate.o)
                                                  /home/leon/riotboard/arm-2012.09/bin/../arm-none-eabi/lib//libstdc++.a(eh_personality.o)
                                                  /home/leon/riotboard/arm-2012.09/bin/../arm-none-eabi/lib//libstdc++.a(eh_call.o)
strcmp                                            /home/leon/riotboard/arm-2012.09/bin/../arm-none-eabi/lib//libc.a(lib_a-strcmp.o)
                                                  /home/leon/riotboard/arm-2012.09/bin/../arm-none-eabi/lib//libstdc++.a(tinfo.o)
                                                  /home/leon/riotboard/arm-2012.09/bin/../arm-none-eabi/lib//libstdc++.a(cp-demangle.o)
                                                  /home/leon/riotboard/arm-2012.09/bin/../arm-none-eabi/lib//libc.a(lib_a-locale.o)
strlen                                            /home/leon/riotboard/arm-2012.09/bin/../arm-none-eabi/lib//libc.a(lib_a-strlen.o)
                                                  /home/leon/riotboard/arm-2012.09/bin/../arm-none-eabi/lib//libc.a(lib_a-fputs.o)
                                                  /home/leon/riotboard/arm-2012.09/bin/../arm-none-eabi/lib//libstdc++.a(cp-demangle.o)
                                                  /home/leon/git/swp-report/iMX6_Platform_SDK/output/mx6sl/lib/libsdk.a(runtime_support.o)
                                                  /home/leon/riotboard/arm-2012.09/bin/../arm-none-eabi/lib//libc.a(lib_a-svfiprintf.o)
                                                  /home/leon/riotboard/arm-2012.09/bin/../arm-none-eabi/lib//libc.a(lib_a-vfprintf.o)
                                                  /home/leon/riotboard/arm-2012.09/bin/../arm-none-eabi/lib//libc.a(lib_a-vfiprintf.o)
                                                  /home/leon/riotboard/arm-2012.09/bin/../arm-none-eabi/lib//libc.a(lib_a-svfprintf.o)
                                                  /home/leon/git/swp-report/iMX6_Platform_SDK/output/mx6sl/lib/libsdk.a(menu.o)
strncasecmp                                       /home/leon/riotboard/arm-2012.09/bin/../arm-none-eabi/lib//libc.a(lib_a-strncasecmp.o)
                                                  /home/leon/git/swp-report/iMX6_Platform_SDK/output/mx6sl/lib/libsdk.a(menu.o)
strncmp                                           /home/leon/riotboard/arm-2012.09/bin/../arm-none-eabi/lib//libc.a(lib_a-strncmp.o)
                                                  /home/leon/riotboard/arm-2012.09/bin/../arm-none-eabi/lib//libstdc++.a(cp-demangle.o)
swap32                                            /home/leon/git/swp-report/iMX6_Platform_SDK/output/mx6sl/lib/libsdk.a(usb_common.o)
system_time_init                                  /home/leon/git/swp-report/iMX6_Platform_SDK/output/mx6sl/lib/libsdk.a(timer.o)
                                                  /home/leon/git/swp-report/iMX6_Platform_SDK/output/mx6sl/sdk_unit_test/evk_rev_a/obj/apps/common/platform_init.o
tempmon_disable_alarm                             /home/leon/git/swp-report/iMX6_Platform_SDK/output/mx6sl/lib/libsdk.a(tempmon.o)
                                                  /home/leon/git/swp-report/iMX6_Platform_SDK/output/mx6sl/sdk_unit_test/evk_rev_a/libsdk_unit_test.a(tempmon_test.o)
tempmon_get_temp                                  /home/leon/git/swp-report/iMX6_Platform_SDK/output/mx6sl/lib/libsdk.a(tempmon.o)
                                                  /home/leon/git/swp-report/iMX6_Platform_SDK/output/mx6sl/sdk_unit_test/evk_rev_a/libsdk_unit_test.a(tempmon_test.o)
tempmon_init                                      /home/leon/git/swp-report/iMX6_Platform_SDK/output/mx6sl/lib/libsdk.a(tempmon.o)
                                                  /home/leon/git/swp-report/iMX6_Platform_SDK/output/mx6sl/sdk_unit_test/evk_rev_a/libsdk_unit_test.a(tempmon_test.o)
tempmon_set_alarm                                 /home/leon/git/swp-report/iMX6_Platform_SDK/output/mx6sl/lib/libsdk.a(tempmon.o)
                                                  /home/leon/git/swp-report/iMX6_Platform_SDK/output/mx6sl/sdk_unit_test/evk_rev_a/libsdk_unit_test.a(tempmon_test.o)
tempmon_test                                      /home/leon/git/swp-report/iMX6_Platform_SDK/output/mx6sl/sdk_unit_test/evk_rev_a/libsdk_unit_test.a(tempmon_test.o)
                                                  /home/leon/git/swp-report/iMX6_Platform_SDK/output/mx6sl/sdk_unit_test/evk_rev_a/obj/apps/sdk_unit_test/src/all_test.o
time_get_microseconds                             /home/leon/git/swp-report/iMX6_Platform_SDK/output/mx6sl/lib/libsdk.a(timer.o)
                                                  /home/leon/git/swp-report/iMX6_Platform_SDK/output/mx6sl/lib/libsdk.a(runtime_support.o)
                                                  /home/leon/git/swp-report/iMX6_Platform_SDK/output/mx6sl/sdk_unit_test/evk_rev_a/libsdk_unit_test.a(timer_test.o)
top_of_stacks                                     /home/leon/git/swp-report/iMX6_Platform_SDK/output/mx6sl/lib/libsdk.a(startup.o)
trans_done                                        /home/leon/git/swp-report/iMX6_Platform_SDK/output/mx6sl/sdk_unit_test/evk_rev_a/libsdk_unit_test.a(uart_loopback.o)
typeinfo for __cxxabiv1::__class_type_info        /home/leon/riotboard/arm-2012.09/bin/../arm-none-eabi/lib//libstdc++.a(class_type_info.o)
                                                  /home/leon/riotboard/arm-2012.09/bin/../arm-none-eabi/lib//libstdc++.a(si_class_type_info.o)
typeinfo for __cxxabiv1::__forced_unwind          /home/leon/riotboard/arm-2012.09/bin/../arm-none-eabi/lib//libstdc++.a(eh_exception.o)
                                                  /home/leon/riotboard/arm-2012.09/bin/../arm-none-eabi/lib//libstdc++.a(eh_arm.o)
typeinfo for __cxxabiv1::__foreign_exception      /home/leon/riotboard/arm-2012.09/bin/../arm-none-eabi/lib//libstdc++.a(eh_exception.o)
                                                  /home/leon/riotboard/arm-2012.09/bin/../arm-none-eabi/lib//libstdc++.a(eh_arm.o)
typeinfo for __cxxabiv1::__si_class_type_info     /home/leon/riotboard/arm-2012.09/bin/../arm-none-eabi/lib//libstdc++.a(si_class_type_info.o)
typeinfo for std::bad_exception                   /home/leon/riotboard/arm-2012.09/bin/../arm-none-eabi/lib//libstdc++.a(eh_exception.o)
                                                  /home/leon/riotboard/arm-2012.09/bin/../arm-none-eabi/lib//libstdc++.a(eh_call.o)
typeinfo for std::exception                       /home/leon/riotboard/arm-2012.09/bin/../arm-none-eabi/lib//libstdc++.a(eh_exception.o)
                                                  /home/leon/riotboard/arm-2012.09/bin/../arm-none-eabi/lib//libstdc++.a(vterminate.o)
typeinfo for std::type_info                       /home/leon/riotboard/arm-2012.09/bin/../arm-none-eabi/lib//libstdc++.a(tinfo.o)
                                                  /home/leon/riotboard/arm-2012.09/bin/../arm-none-eabi/lib//libstdc++.a(class_type_info.o)
typeinfo name for __cxxabiv1::__class_type_info   /home/leon/riotboard/arm-2012.09/bin/../arm-none-eabi/lib//libstdc++.a(class_type_info.o)
typeinfo name for __cxxabiv1::__forced_unwind     /home/leon/riotboard/arm-2012.09/bin/../arm-none-eabi/lib//libstdc++.a(eh_exception.o)
typeinfo name for __cxxabiv1::__foreign_exception /home/leon/riotboard/arm-2012.09/bin/../arm-none-eabi/lib//libstdc++.a(eh_exception.o)
typeinfo name for __cxxabiv1::__si_class_type_info /home/leon/riotboard/arm-2012.09/bin/../arm-none-eabi/lib//libstdc++.a(si_class_type_info.o)
typeinfo name for std::bad_exception              /home/leon/riotboard/arm-2012.09/bin/../arm-none-eabi/lib//libstdc++.a(eh_exception.o)
typeinfo name for std::exception                  /home/leon/riotboard/arm-2012.09/bin/../arm-none-eabi/lib//libstdc++.a(eh_exception.o)
typeinfo name for std::type_info                  /home/leon/riotboard/arm-2012.09/bin/../arm-none-eabi/lib//libstdc++.a(tinfo.o)
uart1_iomux_config                                /home/leon/git/swp-report/iMX6_Platform_SDK/output/mx6sl/lib/libboard_evk_rev_a.a(uart1_iomux_config.o)
                                                  /home/leon/git/swp-report/iMX6_Platform_SDK/output/mx6sl/lib/libboard_evk_rev_a.a(iomux_config.o)
                                                  /home/leon/git/swp-report/iMX6_Platform_SDK/output/mx6sl/lib/libboard_evk_rev_a.a(uart_iomux_config.o)
uart2_iomux_config                                /home/leon/git/swp-report/iMX6_Platform_SDK/output/mx6sl/lib/libboard_evk_rev_a.a(iomux_config.o)
                                                  /home/leon/git/swp-report/iMX6_Platform_SDK/output/mx6sl/lib/libboard_evk_rev_a.a(uart_iomux_config.o)
uart3_iomux_config                                /home/leon/git/swp-report/iMX6_Platform_SDK/output/mx6sl/lib/libboard_evk_rev_a.a(iomux_config.o)
                                                  /home/leon/git/swp-report/iMX6_Platform_SDK/output/mx6sl/lib/libboard_evk_rev_a.a(uart_iomux_config.o)
uart4_iomux_config                                /home/leon/git/swp-report/iMX6_Platform_SDK/output/mx6sl/lib/libboard_evk_rev_a.a(iomux_config.o)
                                                  /home/leon/git/swp-report/iMX6_Platform_SDK/output/mx6sl/lib/libboard_evk_rev_a.a(uart_iomux_config.o)
uart5_iomux_config                                /home/leon/git/swp-report/iMX6_Platform_SDK/output/mx6sl/lib/libboard_evk_rev_a.a(iomux_config.o)
                                                  /home/leon/git/swp-report/iMX6_Platform_SDK/output/mx6sl/lib/libboard_evk_rev_a.a(uart_iomux_config.o)
uart5_trans_isr                                   /home/leon/git/swp-report/iMX6_Platform_SDK/output/mx6sl/sdk_unit_test/evk_rev_a/libsdk_unit_test.a(uart_loopback.o)
uart_app_interrupt_test                           /home/leon/git/swp-report/iMX6_Platform_SDK/output/mx6sl/sdk_unit_test/evk_rev_a/libsdk_unit_test.a(uart_loopback.o)
                                                  /home/leon/git/swp-report/iMX6_Platform_SDK/output/mx6sl/sdk_unit_test/evk_rev_a/libsdk_unit_test.a(sdma_test.o)
uart_app_test                                     /home/leon/git/swp-report/iMX6_Platform_SDK/output/mx6sl/sdk_unit_test/evk_rev_a/libsdk_unit_test.a(uart_loopback.o)
                                                  /home/leon/git/swp-report/iMX6_Platform_SDK/output/mx6sl/sdk_unit_test/evk_rev_a/libsdk_unit_test.a(sdma_test.o)
uart_get_reffreq                                  /home/leon/git/swp-report/iMX6_Platform_SDK/output/mx6sl/lib/libsdk.a(imx_uart.o)
uart_getchar                                      /home/leon/git/swp-report/iMX6_Platform_SDK/output/mx6sl/lib/libsdk.a(imx_uart.o)
                                                  /home/leon/git/swp-report/iMX6_Platform_SDK/output/mx6sl/lib/libsdk.a(runtime_support.o)
                                                  /home/leon/git/swp-report/iMX6_Platform_SDK/output/mx6sl/sdk_unit_test/evk_rev_a/libsdk_unit_test.a(uart_test.o)
                                                  /home/leon/git/swp-report/iMX6_Platform_SDK/output/mx6sl/lib/libsdk.a(system_util.o)
                                                  /home/leon/git/swp-report/iMX6_Platform_SDK/output/mx6sl/sdk_unit_test/evk_rev_a/obj/apps/common/platform_init.o
uart_init                                         /home/leon/git/swp-report/iMX6_Platform_SDK/output/mx6sl/lib/libsdk.a(imx_uart.o)
                                                  /home/leon/git/swp-report/iMX6_Platform_SDK/output/mx6sl/sdk_unit_test/evk_rev_a/libsdk_unit_test.a(uart_test.o)
                                                  /home/leon/git/swp-report/iMX6_Platform_SDK/output/mx6sl/sdk_unit_test/evk_rev_a/libsdk_unit_test.a(uart_loopback.o)
                                                  /home/leon/git/swp-report/iMX6_Platform_SDK/output/mx6sl/sdk_unit_test/evk_rev_a/obj/apps/common/platform_init.o
uart_interrupt_handler                            /home/leon/git/swp-report/iMX6_Platform_SDK/output/mx6sl/sdk_unit_test/evk_rev_a/libsdk_unit_test.a(uart_test.o)
uart_iomux_config                                 /home/leon/git/swp-report/iMX6_Platform_SDK/output/mx6sl/lib/libboard_evk_rev_a.a(uart_iomux_config.o)
                                                  /home/leon/git/swp-report/iMX6_Platform_SDK/output/mx6sl/lib/libsdk.a(imx_uart.o)
uart_putchar                                      /home/leon/git/swp-report/iMX6_Platform_SDK/output/mx6sl/lib/libsdk.a(imx_uart.o)
                                                  /home/leon/git/swp-report/iMX6_Platform_SDK/output/mx6sl/lib/libsdk.a(runtime_support.o)
                                                  /home/leon/git/swp-report/iMX6_Platform_SDK/output/mx6sl/sdk_unit_test/evk_rev_a/libsdk_unit_test.a(uart_test.o)
uart_set_FIFO_mode                                /home/leon/git/swp-report/iMX6_Platform_SDK/output/mx6sl/lib/libsdk.a(imx_uart.o)
                                                  /home/leon/git/swp-report/iMX6_Platform_SDK/output/mx6sl/sdk_unit_test/evk_rev_a/libsdk_unit_test.a(uart_test.o)
                                                  /home/leon/git/swp-report/iMX6_Platform_SDK/output/mx6sl/sdk_unit_test/evk_rev_a/libsdk_unit_test.a(uart_loopback.o)
uart_set_loopback_mode                            /home/leon/git/swp-report/iMX6_Platform_SDK/output/mx6sl/lib/libsdk.a(imx_uart.o)
                                                  /home/leon/git/swp-report/iMX6_Platform_SDK/output/mx6sl/sdk_unit_test/evk_rev_a/libsdk_unit_test.a(uart_test.o)
                                                  /home/leon/git/swp-report/iMX6_Platform_SDK/output/mx6sl/sdk_unit_test/evk_rev_a/libsdk_unit_test.a(uart_loopback.o)
uart_setup_interrupt                              /home/leon/git/swp-report/iMX6_Platform_SDK/output/mx6sl/lib/libsdk.a(imx_uart.o)
                                                  /home/leon/git/swp-report/iMX6_Platform_SDK/output/mx6sl/sdk_unit_test/evk_rev_a/libsdk_unit_test.a(uart_test.o)
uart_shp_test                                     /home/leon/git/swp-report/iMX6_Platform_SDK/output/mx6sl/sdk_unit_test/evk_rev_a/libsdk_unit_test.a(uart_loopback.o)
uart_test                                         /home/leon/git/swp-report/iMX6_Platform_SDK/output/mx6sl/sdk_unit_test/evk_rev_a/libsdk_unit_test.a(uart_test.o)
                                                  /home/leon/git/swp-report/iMX6_Platform_SDK/output/mx6sl/sdk_unit_test/evk_rev_a/obj/apps/sdk_unit_test/src/all_test.o
usb0_device_mouse_test                            /home/leon/git/swp-report/iMX6_Platform_SDK/output/mx6sl/sdk_unit_test/evk_rev_a/libsdk_unit_test.a(usb0_device_mouse_test.o)
                                                  /home/leon/git/swp-report/iMX6_Platform_SDK/output/mx6sl/sdk_unit_test/evk_rev_a/libsdk_unit_test.a(usb_test.o)
usb0_host_test                                    /home/leon/git/swp-report/iMX6_Platform_SDK/output/mx6sl/sdk_unit_test/evk_rev_a/libsdk_unit_test.a(usb0_host_test.o)
                                                  /home/leon/git/swp-report/iMX6_Platform_SDK/output/mx6sl/sdk_unit_test/evk_rev_a/libsdk_unit_test.a(usb_test.o)
usb0_host_testmodes_test                          /home/leon/git/swp-report/iMX6_Platform_SDK/output/mx6sl/sdk_unit_test/evk_rev_a/libsdk_unit_test.a(usb0_host_testmodes_test.o)
                                                  /home/leon/git/swp-report/iMX6_Platform_SDK/output/mx6sl/sdk_unit_test/evk_rev_a/libsdk_unit_test.a(usb_test.o)
usbDisableVbus                                    /home/leon/git/swp-report/iMX6_Platform_SDK/output/mx6sl/lib/libboard_evk_rev_a.a(board_usb.o)
                                                  /home/leon/git/swp-report/iMX6_Platform_SDK/output/mx6sl/lib/libsdk.a(usbd_drv.o)
usbEnableClocks                                   /home/leon/git/swp-report/iMX6_Platform_SDK/output/mx6sl/lib/libsdk.a(mx6x_usb.o)
                                                  /home/leon/git/swp-report/iMX6_Platform_SDK/output/mx6sl/lib/libsdk.a(usbh_drv.o)
                                                  /home/leon/git/swp-report/iMX6_Platform_SDK/output/mx6sl/lib/libsdk.a(usbd_drv.o)
usbEnableTransceiver                              /home/leon/git/swp-report/iMX6_Platform_SDK/output/mx6sl/lib/libsdk.a(mx6x_usb.o)
                                                  /home/leon/git/swp-report/iMX6_Platform_SDK/output/mx6sl/lib/libsdk.a(usbh_drv.o)
                                                  /home/leon/git/swp-report/iMX6_Platform_SDK/output/mx6sl/lib/libsdk.a(usbd_drv.o)
usbEnableVbus                                     /home/leon/git/swp-report/iMX6_Platform_SDK/output/mx6sl/lib/libboard_evk_rev_a.a(board_usb.o)
                                                  /home/leon/git/swp-report/iMX6_Platform_SDK/output/mx6sl/lib/libsdk.a(usbh_drv.o)
usb_get_port_speed                                /home/leon/git/swp-report/iMX6_Platform_SDK/output/mx6sl/lib/libsdk.a(usb_common.o)
                                                  /home/leon/git/swp-report/iMX6_Platform_SDK/output/mx6sl/lib/libsdk.a(usbd_drv.o)
                                                  /home/leon/git/swp-report/iMX6_Platform_SDK/output/mx6sl/sdk_unit_test/evk_rev_a/libsdk_unit_test.a(usb0_host_test.o)
                                                  /home/leon/git/swp-report/iMX6_Platform_SDK/output/mx6sl/sdk_unit_test/evk_rev_a/libsdk_unit_test.a(usb0_device_mouse_test.o)
usb_iomux_config                                  /home/leon/git/swp-report/iMX6_Platform_SDK/output/mx6sl/lib/libboard_evk_rev_a.a(usb_iomux_config.o)
                                                  /home/leon/git/swp-report/iMX6_Platform_SDK/output/mx6sl/lib/libboard_evk_rev_a.a(iomux_config.o)
usb_test                                          /home/leon/git/swp-report/iMX6_Platform_SDK/output/mx6sl/sdk_unit_test/evk_rev_a/libsdk_unit_test.a(usb_test.o)
                                                  /home/leon/git/swp-report/iMX6_Platform_SDK/output/mx6sl/sdk_unit_test/evk_rev_a/obj/apps/sdk_unit_test/src/all_test.o
usbd_add_dtd                                      /home/leon/git/swp-report/iMX6_Platform_SDK/output/mx6sl/lib/libsdk.a(usbd_drv.o)
                                                  /home/leon/git/swp-report/iMX6_Platform_SDK/output/mx6sl/sdk_unit_test/evk_rev_a/libsdk_unit_test.a(usb0_device_mouse_test.o)
usbd_bus_reset                                    /home/leon/git/swp-report/iMX6_Platform_SDK/output/mx6sl/lib/libsdk.a(usbd_drv.o)
                                                  /home/leon/git/swp-report/iMX6_Platform_SDK/output/mx6sl/sdk_unit_test/evk_rev_a/libsdk_unit_test.a(usb0_device_mouse_test.o)
usbd_device_init                                  /home/leon/git/swp-report/iMX6_Platform_SDK/output/mx6sl/lib/libsdk.a(usbd_drv.o)
                                                  /home/leon/git/swp-report/iMX6_Platform_SDK/output/mx6sl/sdk_unit_test/evk_rev_a/libsdk_unit_test.a(usb0_device_mouse_test.o)
usbd_device_send_control_packet                   /home/leon/git/swp-report/iMX6_Platform_SDK/output/mx6sl/lib/libsdk.a(usbd_drv.o)
                                                  /home/leon/git/swp-report/iMX6_Platform_SDK/output/mx6sl/sdk_unit_test/evk_rev_a/libsdk_unit_test.a(usb0_device_mouse_test.o)
usbd_device_send_zero_len_packet                  /home/leon/git/swp-report/iMX6_Platform_SDK/output/mx6sl/lib/libsdk.a(usbd_drv.o)
                                                  /home/leon/git/swp-report/iMX6_Platform_SDK/output/mx6sl/sdk_unit_test/evk_rev_a/libsdk_unit_test.a(usb0_device_mouse_test.o)
usbd_dtd_init                                     /home/leon/git/swp-report/iMX6_Platform_SDK/output/mx6sl/lib/libsdk.a(usbd_drv.o)
                                                  /home/leon/git/swp-report/iMX6_Platform_SDK/output/mx6sl/sdk_unit_test/evk_rev_a/libsdk_unit_test.a(usb0_device_mouse_test.o)
usbd_endpoint_qh_init                             /home/leon/git/swp-report/iMX6_Platform_SDK/output/mx6sl/lib/libsdk.a(usbd_drv.o)
                                                  /home/leon/git/swp-report/iMX6_Platform_SDK/output/mx6sl/sdk_unit_test/evk_rev_a/libsdk_unit_test.a(usb0_device_mouse_test.o)
usbd_get_setup_packet                             /home/leon/git/swp-report/iMX6_Platform_SDK/output/mx6sl/lib/libsdk.a(usbd_drv.o)
                                                  /home/leon/git/swp-report/iMX6_Platform_SDK/output/mx6sl/sdk_unit_test/evk_rev_a/libsdk_unit_test.a(usb0_device_mouse_test.o)
usbd_reclaim_dtd                                  /home/leon/git/swp-report/iMX6_Platform_SDK/output/mx6sl/lib/libsdk.a(usbd_drv.o)
                                                  /home/leon/git/swp-report/iMX6_Platform_SDK/output/mx6sl/sdk_unit_test/evk_rev_a/libsdk_unit_test.a(usb0_device_mouse_test.o)
usbh_bus_reset                                    /home/leon/git/swp-report/iMX6_Platform_SDK/output/mx6sl/lib/libsdk.a(usbh_drv.o)
                                                  /home/leon/git/swp-report/iMX6_Platform_SDK/output/mx6sl/sdk_unit_test/evk_rev_a/libsdk_unit_test.a(usb0_host_test.o)
usbh_disable_Periodic_list                        /home/leon/git/swp-report/iMX6_Platform_SDK/output/mx6sl/lib/libsdk.a(usbh_drv.o)
usbh_disable_asynchronous_schedule                /home/leon/git/swp-report/iMX6_Platform_SDK/output/mx6sl/lib/libsdk.a(usbh_drv.o)
                                                  /home/leon/git/swp-report/iMX6_Platform_SDK/output/mx6sl/sdk_unit_test/evk_rev_a/libsdk_unit_test.a(usb0_host_test.o)
usbh_enable_asynchronous_schedule                 /home/leon/git/swp-report/iMX6_Platform_SDK/output/mx6sl/lib/libsdk.a(usbh_drv.o)
                                                  /home/leon/git/swp-report/iMX6_Platform_SDK/output/mx6sl/sdk_unit_test/evk_rev_a/libsdk_unit_test.a(usb0_host_test.o)
usbh_get_config_desc                              /home/leon/git/swp-report/iMX6_Platform_SDK/output/mx6sl/sdk_unit_test/evk_rev_a/libsdk_unit_test.a(usb0_host_test.o)
usbh_get_dev_desc                                 /home/leon/git/swp-report/iMX6_Platform_SDK/output/mx6sl/sdk_unit_test/evk_rev_a/libsdk_unit_test.a(usb0_host_test.o)
usbh_get_interface_desc                           /home/leon/git/swp-report/iMX6_Platform_SDK/output/mx6sl/sdk_unit_test/evk_rev_a/libsdk_unit_test.a(usb0_host_test.o)
usbh_get_report_desc                              /home/leon/git/swp-report/iMX6_Platform_SDK/output/mx6sl/sdk_unit_test/evk_rev_a/libsdk_unit_test.a(usb0_host_test.o)
usbh_init                                         /home/leon/git/swp-report/iMX6_Platform_SDK/output/mx6sl/lib/libsdk.a(usbh_drv.o)
                                                  /home/leon/git/swp-report/iMX6_Platform_SDK/output/mx6sl/sdk_unit_test/evk_rev_a/libsdk_unit_test.a(usb0_host_testmodes_test.o)
                                                  /home/leon/git/swp-report/iMX6_Platform_SDK/output/mx6sl/sdk_unit_test/evk_rev_a/libsdk_unit_test.a(usb0_host_test.o)
usbh_periodic_schedule_init                       /home/leon/git/swp-report/iMX6_Platform_SDK/output/mx6sl/lib/libsdk.a(usbh_drv.o)
                                                  /home/leon/git/swp-report/iMX6_Platform_SDK/output/mx6sl/sdk_unit_test/evk_rev_a/libsdk_unit_test.a(usb0_host_test.o)
usbh_qh_init                                      /home/leon/git/swp-report/iMX6_Platform_SDK/output/mx6sl/lib/libsdk.a(usbh_drv.o)
                                                  /home/leon/git/swp-report/iMX6_Platform_SDK/output/mx6sl/sdk_unit_test/evk_rev_a/libsdk_unit_test.a(usb0_host_test.o)
usbh_qtd_init                                     /home/leon/git/swp-report/iMX6_Platform_SDK/output/mx6sl/lib/libsdk.a(usbh_drv.o)
                                                  /home/leon/git/swp-report/iMX6_Platform_SDK/output/mx6sl/sdk_unit_test/evk_rev_a/libsdk_unit_test.a(usb0_host_test.o)
usbh_set_configuration                            /home/leon/git/swp-report/iMX6_Platform_SDK/output/mx6sl/sdk_unit_test/evk_rev_a/libsdk_unit_test.a(usb0_host_test.o)
usbh_set_device_address                           /home/leon/git/swp-report/iMX6_Platform_SDK/output/mx6sl/sdk_unit_test/evk_rev_a/libsdk_unit_test.a(usb0_host_test.o)
usdhc1_iomux_config                               /home/leon/git/swp-report/iMX6_Platform_SDK/output/mx6sl/lib/libboard_evk_rev_a.a(usdhc1_iomux_config.o)
                                                  /home/leon/git/swp-report/iMX6_Platform_SDK/output/mx6sl/lib/libboard_evk_rev_a.a(usdhc_iomux_config.o)
                                                  /home/leon/git/swp-report/iMX6_Platform_SDK/output/mx6sl/lib/libboard_evk_rev_a.a(iomux_config.o)
usdhc1_isr                                        /home/leon/git/swp-report/iMX6_Platform_SDK/output/mx6sl/lib/libsdk.a(usdhc_host.o)
                                                  /home/leon/git/swp-report/iMX6_Platform_SDK/output/mx6sl/lib/libsdk.a(usdhc.o)
usdhc2_iomux_config                               /home/leon/git/swp-report/iMX6_Platform_SDK/output/mx6sl/lib/libboard_evk_rev_a.a(usdhc2_iomux_config.o)
                                                  /home/leon/git/swp-report/iMX6_Platform_SDK/output/mx6sl/lib/libboard_evk_rev_a.a(usdhc_iomux_config.o)
                                                  /home/leon/git/swp-report/iMX6_Platform_SDK/output/mx6sl/lib/libboard_evk_rev_a.a(iomux_config.o)
usdhc2_isr                                        /home/leon/git/swp-report/iMX6_Platform_SDK/output/mx6sl/lib/libsdk.a(usdhc_host.o)
                                                  /home/leon/git/swp-report/iMX6_Platform_SDK/output/mx6sl/lib/libsdk.a(usdhc.o)
usdhc3_iomux_config                               /home/leon/git/swp-report/iMX6_Platform_SDK/output/mx6sl/lib/libboard_evk_rev_a.a(usdhc3_iomux_config.o)
                                                  /home/leon/git/swp-report/iMX6_Platform_SDK/output/mx6sl/lib/libboard_evk_rev_a.a(usdhc_iomux_config.o)
                                                  /home/leon/git/swp-report/iMX6_Platform_SDK/output/mx6sl/lib/libboard_evk_rev_a.a(iomux_config.o)
usdhc3_isr                                        /home/leon/git/swp-report/iMX6_Platform_SDK/output/mx6sl/lib/libsdk.a(usdhc_host.o)
                                                  /home/leon/git/swp-report/iMX6_Platform_SDK/output/mx6sl/lib/libsdk.a(usdhc.o)
usdhc4_iomux_config                               /home/leon/git/swp-report/iMX6_Platform_SDK/output/mx6sl/lib/libboard_evk_rev_a.a(iomux_config.o)
                                                  /home/leon/git/swp-report/iMX6_Platform_SDK/output/mx6sl/lib/libboard_evk_rev_a.a(usdhc_iomux_config.o)
usdhc4_isr                                        /home/leon/git/swp-report/iMX6_Platform_SDK/output/mx6sl/lib/libsdk.a(usdhc_host.o)
                                                  /home/leon/git/swp-report/iMX6_Platform_SDK/output/mx6sl/lib/libsdk.a(usdhc.o)
usdhc_card_detected                               /home/leon/git/swp-report/iMX6_Platform_SDK/output/mx6sl/lib/libboard_evk_rev_a.a(board_usdhc.o)
                                                  /home/leon/git/swp-report/iMX6_Platform_SDK/output/mx6sl/lib/libsdk.a(usdhc.o)
usdhc_device                                      /home/leon/git/swp-report/iMX6_Platform_SDK/output/mx6sl/lib/libsdk.a(usdhc.o)
                                                  /home/leon/git/swp-report/iMX6_Platform_SDK/output/mx6sl/lib/libsdk.a(usdhc_sd.o)
                                                  /home/leon/git/swp-report/iMX6_Platform_SDK/output/mx6sl/lib/libsdk.a(usdhc_mmc.o)
                                                  /home/leon/git/swp-report/iMX6_Platform_SDK/output/mx6sl/lib/libsdk.a(usdhc_host.o)
usdhc_gpio_config                                 /home/leon/git/swp-report/iMX6_Platform_SDK/output/mx6sl/lib/libboard_evk_rev_a.a(board_usdhc.o)
                                                  /home/leon/git/swp-report/iMX6_Platform_SDK/output/mx6sl/lib/libsdk.a(usdhc_host.o)
usdhc_iomux_config                                /home/leon/git/swp-report/iMX6_Platform_SDK/output/mx6sl/lib/libboard_evk_rev_a.a(usdhc_iomux_config.o)
                                                  /home/leon/git/swp-report/iMX6_Platform_SDK/output/mx6sl/lib/libsdk.a(usdhc_host.o)
usdhc_test                                        /home/leon/git/swp-report/iMX6_Platform_SDK/output/mx6sl/sdk_unit_test/evk_rev_a/libsdk_unit_test.a(usdhc_test.o)
                                                  /home/leon/git/swp-report/iMX6_Platform_SDK/output/mx6sl/sdk_unit_test/evk_rev_a/obj/apps/sdk_unit_test/src/all_test.o
usdhc_write_protected                             /home/leon/git/swp-report/iMX6_Platform_SDK/output/mx6sl/lib/libboard_evk_rev_a.a(board_usdhc.o)
                                                  /home/leon/git/swp-report/iMX6_Platform_SDK/output/mx6sl/lib/libsdk.a(usdhc.o)
vectors                                           /home/leon/git/swp-report/iMX6_Platform_SDK/output/mx6sl/lib/libsdk.a(vectors.o)
                                                  /home/leon/git/swp-report/iMX6_Platform_SDK/output/mx6sl/lib/libsdk.a(startup.o)
vfiprintf                                         /home/leon/riotboard/arm-2012.09/bin/../arm-none-eabi/lib//libc.a(lib_a-vfiprintf.o)
vfprintf                                          /home/leon/riotboard/arm-2012.09/bin/../arm-none-eabi/lib//libc.a(lib_a-vfprintf.o)
vprintf                                           /home/leon/riotboard/arm-2012.09/bin/../arm-none-eabi/lib//libc.a(lib_a-vprintf.o)
                                                  /home/leon/git/swp-report/iMX6_Platform_SDK/output/mx6sl/lib/libsdk.a(imx_i2c.o)
                                                  /home/leon/git/swp-report/iMX6_Platform_SDK/output/mx6sl/lib/libsdk.a(gpio.o)
                                                  /home/leon/git/swp-report/iMX6_Platform_SDK/output/mx6sl/lib/libsdk.a(text_color.o)
vtable for __cxxabiv1::__class_type_info          /home/leon/riotboard/arm-2012.09/bin/../arm-none-eabi/lib//libstdc++.a(class_type_info.o)
                                                  /home/leon/riotboard/arm-2012.09/bin/../arm-none-eabi/lib//libstdc++.a(tinfo.o)
                                                  /home/leon/riotboard/arm-2012.09/bin/../arm-none-eabi/lib//libstdc++.a(eh_exception.o)
vtable for __cxxabiv1::__forced_unwind            /home/leon/riotboard/arm-2012.09/bin/../arm-none-eabi/lib//libstdc++.a(eh_exception.o)
vtable for __cxxabiv1::__foreign_exception        /home/leon/riotboard/arm-2012.09/bin/../arm-none-eabi/lib//libstdc++.a(eh_exception.o)
vtable for __cxxabiv1::__si_class_type_info       /home/leon/riotboard/arm-2012.09/bin/../arm-none-eabi/lib//libstdc++.a(si_class_type_info.o)
                                                  /home/leon/riotboard/arm-2012.09/bin/../arm-none-eabi/lib//libstdc++.a(class_type_info.o)
                                                  /home/leon/riotboard/arm-2012.09/bin/../arm-none-eabi/lib//libstdc++.a(eh_exception.o)
vtable for pmu::AnalogRegulator                   /home/leon/git/swp-report/iMX6_Platform_SDK/output/mx6sl/lib/libsdk.a(pmu_driver.o)
vtable for pmu::DigitalRegulator                  /home/leon/git/swp-report/iMX6_Platform_SDK/output/mx6sl/lib/libsdk.a(pmu_driver.o)
vtable for pmu::LDO1p1Regulator                   /home/leon/git/swp-report/iMX6_Platform_SDK/output/mx6sl/lib/libsdk.a(pmu_driver.o)
vtable for pmu::LDO2p5Regulator                   /home/leon/git/swp-report/iMX6_Platform_SDK/output/mx6sl/lib/libsdk.a(pmu_driver.o)
vtable for pmu::LDO3p0Regulator                   /home/leon/git/swp-report/iMX6_Platform_SDK/output/mx6sl/lib/libsdk.a(pmu_driver.o)
vtable for pmu::LDOARMRegulator                   /home/leon/git/swp-report/iMX6_Platform_SDK/output/mx6sl/lib/libsdk.a(pmu_driver.o)
vtable for pmu::LDOGraphicsRegulator              /home/leon/git/swp-report/iMX6_Platform_SDK/output/mx6sl/lib/libsdk.a(pmu_driver.o)
vtable for pmu::LDOSoCRegulator                   /home/leon/git/swp-report/iMX6_Platform_SDK/output/mx6sl/lib/libsdk.a(pmu_driver.o)
vtable for pmu::Regulator                         /home/leon/git/swp-report/iMX6_Platform_SDK/output/mx6sl/lib/libsdk.a(pmu_driver.o)
vtable for std::bad_exception                     /home/leon/riotboard/arm-2012.09/bin/../arm-none-eabi/lib//libstdc++.a(eh_exception.o)
                                                  /home/leon/riotboard/arm-2012.09/bin/../arm-none-eabi/lib//libstdc++.a(eh_call.o)
vtable for std::exception                         /home/leon/riotboard/arm-2012.09/bin/../arm-none-eabi/lib//libstdc++.a(eh_exception.o)
vtable for std::type_info                         /home/leon/riotboard/arm-2012.09/bin/../arm-none-eabi/lib//libstdc++.a(tinfo.o)
wavefile_end                                      /home/leon/git/swp-report/iMX6_Platform_SDK/output/mx6sl/sdk_unit_test/evk_rev_a/libsdk_unit_test.a(wav_file.o)
                                                  /home/leon/git/swp-report/iMX6_Platform_SDK/output/mx6sl/sdk_unit_test/evk_rev_a/libsdk_unit_test.a(audio_test.o)
wavefile_start                                    /home/leon/git/swp-report/iMX6_Platform_SDK/output/mx6sl/sdk_unit_test/evk_rev_a/libsdk_unit_test.a(wav_file.o)
                                                  /home/leon/git/swp-report/iMX6_Platform_SDK/output/mx6sl/sdk_unit_test/evk_rev_a/libsdk_unit_test.a(audio_test.o)
wcrtomb                                           /home/leon/riotboard/arm-2012.09/bin/../arm-none-eabi/lib//libc.a(lib_a-wcrtomb.o)
wdog1_iomux_config                                /home/leon/git/swp-report/iMX6_Platform_SDK/output/mx6sl/lib/libboard_evk_rev_a.a(wdog1_iomux_config.o)
                                                  /home/leon/git/swp-report/iMX6_Platform_SDK/output/mx6sl/lib/libboard_evk_rev_a.a(iomux_config.o)
wdog2_iomux_config                                /home/leon/git/swp-report/iMX6_Platform_SDK/output/mx6sl/lib/libboard_evk_rev_a.a(iomux_config.o)
wdog_test                                         /home/leon/git/swp-report/iMX6_Platform_SDK/output/mx6sl/sdk_unit_test/evk_rev_a/libsdk_unit_test.a(watchdog_test.o)
                                                  /home/leon/git/swp-report/iMX6_Platform_SDK/output/mx6sl/sdk_unit_test/evk_rev_a/obj/apps/sdk_unit_test/src/all_test.o
wm8962                                            /home/leon/git/swp-report/iMX6_Platform_SDK/output/mx6sl/lib/libsdk.a(wm8962.o)
                                                  /home/leon/git/swp-report/iMX6_Platform_SDK/output/mx6sl/lib/libsdk.a(snd_card.o)
wm8962_i2c_req                                    /home/leon/git/swp-report/iMX6_Platform_SDK/output/mx6sl/lib/libsdk.a(wm8962.o)
wm8962_ops                                        /home/leon/git/swp-report/iMX6_Platform_SDK/output/mx6sl/lib/libsdk.a(wm8962.o)
write                                             /home/leon/riotboard/arm-2012.09/bin/../arm-none-eabi/lib//libc.a(lib_a-syswrite.o)
                                                  /home/leon/riotboard/arm-2012.09/bin/../arm-none-eabi/lib//libstdc++.a(pure.o)
write_protect_test_en                             /home/leon/git/swp-report/iMX6_Platform_SDK/output/mx6sl/lib/libsdk.a(usdhc.o)
wv_data                                           /home/leon/git/swp-report/iMX6_Platform_SDK/output/mx6sl/lib/libsdk.a(mxc_epdc.o)
xtalosc_iomux_config                              /home/leon/git/swp-report/iMX6_Platform_SDK/output/mx6sl/lib/libboard_evk_rev_a.a(iomux_config.o)
