Archive member included because of file (symbol)

/home/leon/git/swp-report/iMX6_Platform_SDK/output/mx6sdl/lib/libsdk.a(ccm_pll.o)
                              /home/leon/git/swp-report/iMX6_Platform_SDK/output/mx6sdl/sdk_unit_test/smart_device_rev_a/obj/apps/common/platform_init.o (ccm_init)
/home/leon/git/swp-report/iMX6_Platform_SDK/output/mx6sdl/lib/libsdk.a(cortexA9.o)
                              /home/leon/git/swp-report/iMX6_Platform_SDK/output/mx6sdl/sdk_unit_test/smart_device_rev_a/obj/apps/common/platform_init.o (arm_set_interrupt_state)
/home/leon/git/swp-report/iMX6_Platform_SDK/output/mx6sdl/lib/libsdk.a(gic.o)
                              /home/leon/git/swp-report/iMX6_Platform_SDK/output/mx6sdl/sdk_unit_test/smart_device_rev_a/obj/apps/common/platform_init.o (gic_init)
/home/leon/git/swp-report/iMX6_Platform_SDK/output/mx6sdl/lib/libsdk.a(mmu.o)
                              /home/leon/git/swp-report/iMX6_Platform_SDK/output/mx6sdl/sdk_unit_test/smart_device_rev_a/obj/apps/common/platform_init.o (mmu_init)
/home/leon/git/swp-report/iMX6_Platform_SDK/output/mx6sdl/lib/libsdk.a(startup.o)
                              (_start)
/home/leon/git/swp-report/iMX6_Platform_SDK/output/mx6sdl/lib/libsdk.a(vectors.o)
                              /home/leon/git/swp-report/iMX6_Platform_SDK/output/mx6sdl/lib/libsdk.a(startup.o) (vectors)
/home/leon/git/swp-report/iMX6_Platform_SDK/output/mx6sdl/lib/libsdk.a(menu.o)
                              /home/leon/git/swp-report/iMX6_Platform_SDK/output/mx6sdl/sdk_unit_test/smart_device_rev_a/obj/apps/sdk_unit_test/src/all_test.o (menuitem_cmd_exitmenu)
/home/leon/git/swp-report/iMX6_Platform_SDK/output/mx6sdl/lib/libsdk.a(sdk_version.o)
                              /home/leon/git/swp-report/iMX6_Platform_SDK/output/mx6sdl/sdk_unit_test/smart_device_rev_a/obj/apps/common/print_version.o (k_sdk_version)
/home/leon/git/swp-report/iMX6_Platform_SDK/output/mx6sdl/lib/libsdk.a(system_util.o)
                              /home/leon/git/swp-report/iMX6_Platform_SDK/output/mx6sdl/lib/libsdk.a(startup.o) (_sys_exit)
/home/leon/git/swp-report/iMX6_Platform_SDK/output/mx6sdl/lib/libsdk.a(text_color.o)
                              /home/leon/git/swp-report/iMX6_Platform_SDK/output/mx6sdl/lib/libsdk.a(menu.o) (g_TextAttributeDefault)
/home/leon/git/swp-report/iMX6_Platform_SDK/output/mx6sdl/lib/libsdk.a(board_id.o)
                              /home/leon/git/swp-report/iMX6_Platform_SDK/output/mx6sdl/sdk_unit_test/smart_device_rev_a/obj/apps/common/print_version.o (chip_name)
/home/leon/git/swp-report/iMX6_Platform_SDK/output/mx6sdl/lib/libsdk.a(timer.o)
                              /home/leon/git/swp-report/iMX6_Platform_SDK/output/mx6sdl/sdk_unit_test/smart_device_rev_a/obj/apps/common/platform_init.o (system_time_init)
/home/leon/git/swp-report/iMX6_Platform_SDK/output/mx6sdl/lib/libsdk.a(imx_uart.o)
                              /home/leon/git/swp-report/iMX6_Platform_SDK/output/mx6sdl/sdk_unit_test/smart_device_rev_a/obj/apps/common/platform_init.o (uart_getchar)
/home/leon/git/swp-report/iMX6_Platform_SDK/output/mx6sdl/lib/libsdk.a(arm_abort.o)
                              /home/leon/git/swp-report/iMX6_Platform_SDK/output/mx6sdl/lib/libsdk.a(vectors.o) (data_abort_handler)
/home/leon/git/swp-report/iMX6_Platform_SDK/output/mx6sdl/lib/libsdk.a(interrupt.o)
                              /home/leon/git/swp-report/iMX6_Platform_SDK/output/mx6sdl/lib/libsdk.a(vectors.o) (IRQ_HDLR)
/home/leon/git/swp-report/iMX6_Platform_SDK/output/mx6sdl/lib/libsdk.a(epit.o)
                              /home/leon/git/swp-report/iMX6_Platform_SDK/output/mx6sdl/lib/libsdk.a(timer.o) (epit_get_compare_event)
/home/leon/git/swp-report/iMX6_Platform_SDK/output/mx6sdl/lib/libsdk.a(abort_handler.o)
                              /home/leon/git/swp-report/iMX6_Platform_SDK/output/mx6sdl/lib/libsdk.a(arm_abort.o) (dump_regs)
/home/leon/git/swp-report/iMX6_Platform_SDK/output/mx6sdl/lib/libboard_smart_device_rev_a.a(board_io_expanders.o)
                              /home/leon/git/swp-report/iMX6_Platform_SDK/output/mx6sdl/sdk_unit_test/smart_device_rev_a/obj/apps/common/platform_init.o (board_ioexpander_init)
/home/leon/git/swp-report/iMX6_Platform_SDK/output/mx6sdl/lib/libboard_smart_device_rev_a.a(hardware_modules.o)
                              /home/leon/git/swp-report/iMX6_Platform_SDK/output/mx6sdl/sdk_unit_test/smart_device_rev_a/obj/apps/common/platform_init.o (g_debug_uart_port)
/home/leon/git/swp-report/iMX6_Platform_SDK/output/mx6sdl/lib/libboard_smart_device_rev_a.a(dcd.o)
                              /home/leon/git/swp-report/iMX6_Platform_SDK/output/mx6sdl/sdk_unit_test/smart_device_rev_a/obj/apps/common/ivt.o (input_dcd_hdr)
/home/leon/git/swp-report/iMX6_Platform_SDK/output/mx6sdl/lib/libboard_smart_device_rev_a.a(uart_iomux_config.o)
                              /home/leon/git/swp-report/iMX6_Platform_SDK/output/mx6sdl/lib/libsdk.a(imx_uart.o) (uart_iomux_config)
/home/leon/git/swp-report/iMX6_Platform_SDK/output/mx6sdl/lib/libboard_smart_device_rev_a.a(iomux_config.o)
                              /home/leon/git/swp-report/iMX6_Platform_SDK/output/mx6sdl/lib/libboard_smart_device_rev_a.a(uart_iomux_config.o) (uart2_iomux_config)
/home/leon/git/swp-report/iMX6_Platform_SDK/output/mx6sdl/lib/libboard_smart_device_rev_a.a(ipu1_iomux_config.o)
                              /home/leon/git/swp-report/iMX6_Platform_SDK/output/mx6sdl/lib/libboard_smart_device_rev_a.a(iomux_config.o) (ipu1_iomux_config)
/home/leon/git/swp-report/iMX6_Platform_SDK/output/mx6sdl/lib/libboard_smart_device_rev_a.a(kpp_iomux_config.o)
                              /home/leon/git/swp-report/iMX6_Platform_SDK/output/mx6sdl/lib/libboard_smart_device_rev_a.a(iomux_config.o) (kpp_iomux_config)
/home/leon/git/swp-report/iMX6_Platform_SDK/output/mx6sdl/lib/libboard_smart_device_rev_a.a(mmdc_iomux_config.o)
                              /home/leon/git/swp-report/iMX6_Platform_SDK/output/mx6sdl/lib/libboard_smart_device_rev_a.a(iomux_config.o) (mmdc_iomux_config)
/home/leon/git/swp-report/iMX6_Platform_SDK/output/mx6sdl/lib/libboard_smart_device_rev_a.a(pwm1_iomux_config.o)
                              /home/leon/git/swp-report/iMX6_Platform_SDK/output/mx6sdl/lib/libboard_smart_device_rev_a.a(iomux_config.o) (pwm1_iomux_config)
/home/leon/git/swp-report/iMX6_Platform_SDK/output/mx6sdl/lib/libboard_smart_device_rev_a.a(sjc_iomux_config.o)
                              /home/leon/git/swp-report/iMX6_Platform_SDK/output/mx6sdl/lib/libboard_smart_device_rev_a.a(iomux_config.o) (sjc_iomux_config)
/home/leon/git/swp-report/iMX6_Platform_SDK/output/mx6sdl/lib/libboard_smart_device_rev_a.a(uart1_iomux_config.o)
                              /home/leon/git/swp-report/iMX6_Platform_SDK/output/mx6sdl/lib/libboard_smart_device_rev_a.a(uart_iomux_config.o) (uart1_iomux_config)
/home/leon/git/swp-report/iMX6_Platform_SDK/output/mx6sdl/lib/libboard_smart_device_rev_a.a(usdhc2_iomux_config.o)
                              /home/leon/git/swp-report/iMX6_Platform_SDK/output/mx6sdl/lib/libboard_smart_device_rev_a.a(iomux_config.o) (usdhc2_iomux_config)
/home/leon/git/swp-report/iMX6_Platform_SDK/output/mx6sdl/lib/libboard_smart_device_rev_a.a(usdhc3_iomux_config.o)
                              /home/leon/git/swp-report/iMX6_Platform_SDK/output/mx6sdl/lib/libboard_smart_device_rev_a.a(iomux_config.o) (usdhc3_iomux_config)
/home/leon/git/swp-report/iMX6_Platform_SDK/output/mx6sdl/lib/libboard_smart_device_rev_a.a(usdhc4_iomux_config.o)
                              /home/leon/git/swp-report/iMX6_Platform_SDK/output/mx6sdl/lib/libboard_smart_device_rev_a.a(iomux_config.o) (usdhc4_iomux_config)
/home/leon/git/swp-report/iMX6_Platform_SDK/output/mx6sdl/lib/libboard_smart_device_rev_a.a(audmux_iomux_config.o)
                              /home/leon/git/swp-report/iMX6_Platform_SDK/output/mx6sdl/lib/libboard_smart_device_rev_a.a(iomux_config.o) (audmux_iomux_config)
/home/leon/git/swp-report/iMX6_Platform_SDK/output/mx6sdl/lib/libboard_smart_device_rev_a.a(ccm_iomux_config.o)
                              /home/leon/git/swp-report/iMX6_Platform_SDK/output/mx6sdl/lib/libboard_smart_device_rev_a.a(iomux_config.o) (ccm_iomux_config)
/home/leon/git/swp-report/iMX6_Platform_SDK/output/mx6sdl/lib/libboard_smart_device_rev_a.a(ecspi1_iomux_config.o)
                              /home/leon/git/swp-report/iMX6_Platform_SDK/output/mx6sdl/lib/libboard_smart_device_rev_a.a(iomux_config.o) (ecspi1_iomux_config)
/home/leon/git/swp-report/iMX6_Platform_SDK/output/mx6sdl/lib/libboard_smart_device_rev_a.a(enet_iomux_config.o)
                              /home/leon/git/swp-report/iMX6_Platform_SDK/output/mx6sdl/lib/libboard_smart_device_rev_a.a(iomux_config.o) (enet_iomux_config)
/home/leon/git/swp-report/iMX6_Platform_SDK/output/mx6sdl/lib/libboard_smart_device_rev_a.a(epdc_iomux_config.o)
                              /home/leon/git/swp-report/iMX6_Platform_SDK/output/mx6sdl/lib/libboard_smart_device_rev_a.a(iomux_config.o) (epdc_iomux_config)
/home/leon/git/swp-report/iMX6_Platform_SDK/output/mx6sdl/lib/libboard_smart_device_rev_a.a(flexcan1_iomux_config.o)
                              /home/leon/git/swp-report/iMX6_Platform_SDK/output/mx6sdl/lib/libboard_smart_device_rev_a.a(iomux_config.o) (flexcan1_iomux_config)
/home/leon/git/swp-report/iMX6_Platform_SDK/output/mx6sdl/lib/libboard_smart_device_rev_a.a(gpio1_iomux_config.o)
                              /home/leon/git/swp-report/iMX6_Platform_SDK/output/mx6sdl/lib/libboard_smart_device_rev_a.a(iomux_config.o) (gpio1_iomux_config)
/home/leon/git/swp-report/iMX6_Platform_SDK/output/mx6sdl/lib/libboard_smart_device_rev_a.a(gpio2_iomux_config.o)
                              /home/leon/git/swp-report/iMX6_Platform_SDK/output/mx6sdl/lib/libboard_smart_device_rev_a.a(iomux_config.o) (gpio2_iomux_config)
/home/leon/git/swp-report/iMX6_Platform_SDK/output/mx6sdl/lib/libboard_smart_device_rev_a.a(gpio3_iomux_config.o)
                              /home/leon/git/swp-report/iMX6_Platform_SDK/output/mx6sdl/lib/libboard_smart_device_rev_a.a(iomux_config.o) (gpio3_iomux_config)
/home/leon/git/swp-report/iMX6_Platform_SDK/output/mx6sdl/lib/libboard_smart_device_rev_a.a(gpio4_iomux_config.o)
                              /home/leon/git/swp-report/iMX6_Platform_SDK/output/mx6sdl/lib/libboard_smart_device_rev_a.a(iomux_config.o) (gpio4_iomux_config)
/home/leon/git/swp-report/iMX6_Platform_SDK/output/mx6sdl/lib/libboard_smart_device_rev_a.a(gpio5_iomux_config.o)
                              /home/leon/git/swp-report/iMX6_Platform_SDK/output/mx6sdl/lib/libboard_smart_device_rev_a.a(iomux_config.o) (gpio5_iomux_config)
/home/leon/git/swp-report/iMX6_Platform_SDK/output/mx6sdl/lib/libboard_smart_device_rev_a.a(gpio6_iomux_config.o)
                              /home/leon/git/swp-report/iMX6_Platform_SDK/output/mx6sdl/lib/libboard_smart_device_rev_a.a(iomux_config.o) (gpio6_iomux_config)
/home/leon/git/swp-report/iMX6_Platform_SDK/output/mx6sdl/lib/libboard_smart_device_rev_a.a(gpio7_iomux_config.o)
                              /home/leon/git/swp-report/iMX6_Platform_SDK/output/mx6sdl/lib/libboard_smart_device_rev_a.a(iomux_config.o) (gpio7_iomux_config)
/home/leon/git/swp-report/iMX6_Platform_SDK/output/mx6sdl/lib/libboard_smart_device_rev_a.a(gps_iomux_config.o)
                              /home/leon/git/swp-report/iMX6_Platform_SDK/output/mx6sdl/lib/libboard_smart_device_rev_a.a(iomux_config.o) (gps_iomux_config)
/home/leon/git/swp-report/iMX6_Platform_SDK/output/mx6sdl/lib/libboard_smart_device_rev_a.a(i2c1_iomux_config.o)
                              /home/leon/git/swp-report/iMX6_Platform_SDK/output/mx6sdl/lib/libboard_smart_device_rev_a.a(iomux_config.o) (i2c1_iomux_config)
/home/leon/git/swp-report/iMX6_Platform_SDK/output/mx6sdl/lib/libboard_smart_device_rev_a.a(i2c2_iomux_config.o)
                              /home/leon/git/swp-report/iMX6_Platform_SDK/output/mx6sdl/lib/libboard_smart_device_rev_a.a(iomux_config.o) (i2c2_iomux_config)
/home/leon/git/swp-report/iMX6_Platform_SDK/output/mx6sdl/lib/libboard_smart_device_rev_a.a(i2c3_iomux_config.o)
                              /home/leon/git/swp-report/iMX6_Platform_SDK/output/mx6sdl/lib/libboard_smart_device_rev_a.a(iomux_config.o) (i2c3_iomux_config)
/home/leon/git/swp-report/iMX6_Platform_SDK/output/mx6sdl/sdk_unit_test/smart_device_rev_a/libsdk_unit_test.a(cpu_wp_test.o)
                              /home/leon/git/swp-report/iMX6_Platform_SDK/output/mx6sdl/sdk_unit_test/smart_device_rev_a/obj/apps/sdk_unit_test/src/all_test.o (cpu_wp_test)
/home/leon/git/swp-report/iMX6_Platform_SDK/output/mx6sdl/sdk_unit_test/smart_device_rev_a/libsdk_unit_test.a(multicore_test.o)
                              /home/leon/git/swp-report/iMX6_Platform_SDK/output/mx6sdl/sdk_unit_test/smart_device_rev_a/obj/apps/sdk_unit_test/src/all_test.o (multicore_test)
/home/leon/git/swp-report/iMX6_Platform_SDK/output/mx6sdl/sdk_unit_test/smart_device_rev_a/libsdk_unit_test.a(audio_test.o)
                              /home/leon/git/swp-report/iMX6_Platform_SDK/output/mx6sdl/sdk_unit_test/smart_device_rev_a/obj/apps/sdk_unit_test/src/all_test.o (audio_test)
/home/leon/git/swp-report/iMX6_Platform_SDK/output/mx6sdl/sdk_unit_test/smart_device_rev_a/libsdk_unit_test.a(wav_file.o)
                              /home/leon/git/swp-report/iMX6_Platform_SDK/output/mx6sdl/sdk_unit_test/smart_device_rev_a/libsdk_unit_test.a(audio_test.o) (wavefile_start)
/home/leon/git/swp-report/iMX6_Platform_SDK/output/mx6sdl/sdk_unit_test/smart_device_rev_a/libsdk_unit_test.a(gic_test.o)
                              /home/leon/git/swp-report/iMX6_Platform_SDK/output/mx6sdl/sdk_unit_test/smart_device_rev_a/obj/apps/sdk_unit_test/src/all_test.o (gic_test)
/home/leon/git/swp-report/iMX6_Platform_SDK/output/mx6sdl/sdk_unit_test/smart_device_rev_a/libsdk_unit_test.a(ocotp_test.o)
                              /home/leon/git/swp-report/iMX6_Platform_SDK/output/mx6sdl/sdk_unit_test/smart_device_rev_a/obj/apps/sdk_unit_test/src/all_test.o (ocotp_test)
/home/leon/git/swp-report/iMX6_Platform_SDK/output/mx6sdl/sdk_unit_test/smart_device_rev_a/libsdk_unit_test.a(snvs_rtc_test.o)
                              /home/leon/git/swp-report/iMX6_Platform_SDK/output/mx6sdl/sdk_unit_test/smart_device_rev_a/obj/apps/sdk_unit_test/src/all_test.o (snvs_rtc_test)
/home/leon/git/swp-report/iMX6_Platform_SDK/output/mx6sdl/sdk_unit_test/smart_device_rev_a/libsdk_unit_test.a(snvs_srtc_test.o)
                              /home/leon/git/swp-report/iMX6_Platform_SDK/output/mx6sdl/sdk_unit_test/smart_device_rev_a/obj/apps/sdk_unit_test/src/all_test.o (snvs_srtc_test)
/home/leon/git/swp-report/iMX6_Platform_SDK/output/mx6sdl/sdk_unit_test/smart_device_rev_a/libsdk_unit_test.a(i2c_test.o)
                              /home/leon/git/swp-report/iMX6_Platform_SDK/output/mx6sdl/sdk_unit_test/smart_device_rev_a/obj/apps/sdk_unit_test/src/all_test.o (i2c_test)
/home/leon/git/swp-report/iMX6_Platform_SDK/output/mx6sdl/sdk_unit_test/smart_device_rev_a/libsdk_unit_test.a(imx6_i2c_device.o)
                              /home/leon/git/swp-report/iMX6_Platform_SDK/output/mx6sdl/sdk_unit_test/smart_device_rev_a/libsdk_unit_test.a(i2c_test.o) (i2c_imx6_slave_test)
/home/leon/git/swp-report/iMX6_Platform_SDK/output/mx6sdl/sdk_unit_test/smart_device_rev_a/libsdk_unit_test.a(tempmon_test.o)
                              /home/leon/git/swp-report/iMX6_Platform_SDK/output/mx6sdl/sdk_unit_test/smart_device_rev_a/obj/apps/sdk_unit_test/src/all_test.o (tempmon_test)
/home/leon/git/swp-report/iMX6_Platform_SDK/output/mx6sdl/sdk_unit_test/smart_device_rev_a/libsdk_unit_test.a(sdma_test.o)
                              /home/leon/git/swp-report/iMX6_Platform_SDK/output/mx6sdl/sdk_unit_test/smart_device_rev_a/obj/apps/sdk_unit_test/src/all_test.o (sdma_test)
/home/leon/git/swp-report/iMX6_Platform_SDK/output/mx6sdl/sdk_unit_test/smart_device_rev_a/libsdk_unit_test.a(spi_lpb.o)
                              /home/leon/git/swp-report/iMX6_Platform_SDK/output/mx6sdl/sdk_unit_test/smart_device_rev_a/libsdk_unit_test.a(sdma_test.o) (ecspi_shp_test)
/home/leon/git/swp-report/iMX6_Platform_SDK/output/mx6sdl/sdk_unit_test/smart_device_rev_a/libsdk_unit_test.a(uart_loopback.o)
                              /home/leon/git/swp-report/iMX6_Platform_SDK/output/mx6sdl/sdk_unit_test/smart_device_rev_a/libsdk_unit_test.a(sdma_test.o) (uart_app_test)
/home/leon/git/swp-report/iMX6_Platform_SDK/output/mx6sdl/sdk_unit_test/smart_device_rev_a/libsdk_unit_test.a(uart_test.o)
                              /home/leon/git/swp-report/iMX6_Platform_SDK/output/mx6sdl/sdk_unit_test/smart_device_rev_a/obj/apps/sdk_unit_test/src/all_test.o (uart_test)
/home/leon/git/swp-report/iMX6_Platform_SDK/output/mx6sdl/sdk_unit_test/smart_device_rev_a/libsdk_unit_test.a(epit_test.o)
                              /home/leon/git/swp-report/iMX6_Platform_SDK/output/mx6sdl/sdk_unit_test/smart_device_rev_a/obj/apps/sdk_unit_test/src/all_test.o (epit_test)
/home/leon/git/swp-report/iMX6_Platform_SDK/output/mx6sdl/sdk_unit_test/smart_device_rev_a/libsdk_unit_test.a(gpt_test.o)
                              /home/leon/git/swp-report/iMX6_Platform_SDK/output/mx6sdl/sdk_unit_test/smart_device_rev_a/obj/apps/sdk_unit_test/src/all_test.o (gpt_test)
/home/leon/git/swp-report/iMX6_Platform_SDK/output/mx6sdl/sdk_unit_test/smart_device_rev_a/libsdk_unit_test.a(timer_test.o)
                              /home/leon/git/swp-report/iMX6_Platform_SDK/output/mx6sdl/sdk_unit_test/smart_device_rev_a/obj/apps/sdk_unit_test/src/all_test.o (microseconds_test)
/home/leon/git/swp-report/iMX6_Platform_SDK/output/mx6sdl/sdk_unit_test/smart_device_rev_a/libsdk_unit_test.a(usdhc_test.o)
                              /home/leon/git/swp-report/iMX6_Platform_SDK/output/mx6sdl/sdk_unit_test/smart_device_rev_a/obj/apps/sdk_unit_test/src/all_test.o (usdhc_test)
/home/leon/git/swp-report/iMX6_Platform_SDK/output/mx6sdl/sdk_unit_test/smart_device_rev_a/libsdk_unit_test.a(watchdog_test.o)
                              /home/leon/git/swp-report/iMX6_Platform_SDK/output/mx6sdl/sdk_unit_test/smart_device_rev_a/obj/apps/sdk_unit_test/src/all_test.o (wdog_test)
/home/leon/git/swp-report/iMX6_Platform_SDK/output/mx6sdl/sdk_unit_test/smart_device_rev_a/libsdk_unit_test.a(pwm_test.o)
                              /home/leon/git/swp-report/iMX6_Platform_SDK/output/mx6sdl/sdk_unit_test/smart_device_rev_a/obj/apps/sdk_unit_test/src/all_test.o (pwm_test)
/home/leon/git/swp-report/iMX6_Platform_SDK/output/mx6sdl/sdk_unit_test/smart_device_rev_a/libsdk_unit_test.a(hdmi_test.o)
                              /home/leon/git/swp-report/iMX6_Platform_SDK/output/mx6sdl/sdk_unit_test/smart_device_rev_a/obj/apps/sdk_unit_test/src/all_test.o (hdmi_test)
/home/leon/git/swp-report/iMX6_Platform_SDK/output/mx6sdl/sdk_unit_test/smart_device_rev_a/libsdk_unit_test.a(ips_display.o)
                              /home/leon/git/swp-report/iMX6_Platform_SDK/output/mx6sdl/sdk_unit_test/smart_device_rev_a/libsdk_unit_test.a(hdmi_test.o) (ips_hdmi_stream)
/home/leon/git/swp-report/iMX6_Platform_SDK/output/mx6sdl/sdk_unit_test/smart_device_rev_a/libsdk_unit_test.a(ips_test.o)
                              /home/leon/git/swp-report/iMX6_Platform_SDK/output/mx6sdl/sdk_unit_test/smart_device_rev_a/obj/apps/sdk_unit_test/src/all_test.o (ipu_test)
/home/leon/git/swp-report/iMX6_Platform_SDK/output/mx6sdl/sdk_unit_test/smart_device_rev_a/libsdk_unit_test.a(ipu_image.o)
                              /home/leon/git/swp-report/iMX6_Platform_SDK/output/mx6sdl/sdk_unit_test/smart_device_rev_a/libsdk_unit_test.a(ips_display.o) (load_centralized_image)
/home/leon/git/swp-report/iMX6_Platform_SDK/output/mx6sdl/sdk_unit_test/smart_device_rev_a/libsdk_unit_test.a(keypad_test.o)
                              /home/leon/git/swp-report/iMX6_Platform_SDK/output/mx6sdl/sdk_unit_test/smart_device_rev_a/obj/apps/sdk_unit_test/src/all_test.o (keypad_test)
/home/leon/git/swp-report/iMX6_Platform_SDK/output/mx6sdl/sdk_unit_test/smart_device_rev_a/libsdk_unit_test.a(camera_test.o)
                              /home/leon/git/swp-report/iMX6_Platform_SDK/output/mx6sdl/sdk_unit_test/smart_device_rev_a/obj/apps/sdk_unit_test/src/all_test.o (camera_test)
/home/leon/git/swp-report/iMX6_Platform_SDK/output/mx6sdl/sdk_unit_test/smart_device_rev_a/libsdk_unit_test.a(csi_test_mode.o)
                              /home/leon/git/swp-report/iMX6_Platform_SDK/output/mx6sdl/sdk_unit_test/smart_device_rev_a/libsdk_unit_test.a(camera_test.o) (csi_test_mode)
/home/leon/git/swp-report/iMX6_Platform_SDK/output/mx6sdl/sdk_unit_test/smart_device_rev_a/libsdk_unit_test.a(sensor_capture.o)
                              /home/leon/git/swp-report/iMX6_Platform_SDK/output/mx6sdl/sdk_unit_test/smart_device_rev_a/libsdk_unit_test.a(camera_test.o) (sensor_capture)
/home/leon/git/swp-report/iMX6_Platform_SDK/output/mx6sdl/sdk_unit_test/smart_device_rev_a/libsdk_unit_test.a(pcie_test_rc.o)
                              /home/leon/git/swp-report/iMX6_Platform_SDK/output/mx6sdl/sdk_unit_test/smart_device_rev_a/obj/apps/sdk_unit_test/src/all_test.o (pcie_test)
/home/leon/git/swp-report/iMX6_Platform_SDK/output/mx6sdl/sdk_unit_test/smart_device_rev_a/libsdk_unit_test.a(usb_test.o)
                              /home/leon/git/swp-report/iMX6_Platform_SDK/output/mx6sdl/sdk_unit_test/smart_device_rev_a/obj/apps/sdk_unit_test/src/all_test.o (usb_test)
/home/leon/git/swp-report/iMX6_Platform_SDK/output/mx6sdl/sdk_unit_test/smart_device_rev_a/libsdk_unit_test.a(enet_test.o)
                              /home/leon/git/swp-report/iMX6_Platform_SDK/output/mx6sdl/sdk_unit_test/smart_device_rev_a/obj/apps/sdk_unit_test/src/all_test.o (enet_test)
/home/leon/git/swp-report/iMX6_Platform_SDK/output/mx6sdl/sdk_unit_test/smart_device_rev_a/libsdk_unit_test.a(spi_test.o)
                              /home/leon/git/swp-report/iMX6_Platform_SDK/output/mx6sdl/sdk_unit_test/smart_device_rev_a/obj/apps/sdk_unit_test/src/all_test.o (spi_test)
/home/leon/git/swp-report/iMX6_Platform_SDK/output/mx6sdl/sdk_unit_test/smart_device_rev_a/libsdk_unit_test.a(accelerometer_test.o)
                              /home/leon/git/swp-report/iMX6_Platform_SDK/output/mx6sdl/sdk_unit_test/smart_device_rev_a/obj/apps/sdk_unit_test/src/all_test.o (accelerometer_test)
/home/leon/git/swp-report/iMX6_Platform_SDK/output/mx6sdl/sdk_unit_test/smart_device_rev_a/libsdk_unit_test.a(at24cxx.o)
                              /home/leon/git/swp-report/iMX6_Platform_SDK/output/mx6sdl/sdk_unit_test/smart_device_rev_a/libsdk_unit_test.a(i2c_test.o) (i2c_eeprom_at24cxx_test)
/home/leon/git/swp-report/iMX6_Platform_SDK/output/mx6sdl/sdk_unit_test/smart_device_rev_a/libsdk_unit_test.a(mem_2_mem.o)
                              /home/leon/git/swp-report/iMX6_Platform_SDK/output/mx6sdl/sdk_unit_test/smart_device_rev_a/libsdk_unit_test.a(sdma_test.o) (mem_2_mem_test)
/home/leon/git/swp-report/iMX6_Platform_SDK/output/mx6sdl/sdk_unit_test/smart_device_rev_a/libsdk_unit_test.a(pwm_output.o)
                              /home/leon/git/swp-report/iMX6_Platform_SDK/output/mx6sdl/sdk_unit_test/smart_device_rev_a/libsdk_unit_test.a(pwm_test.o) (pwm_output_test)
/home/leon/git/swp-report/iMX6_Platform_SDK/output/mx6sdl/sdk_unit_test/smart_device_rev_a/libsdk_unit_test.a(init_dma_data.o)
                              /home/leon/git/swp-report/iMX6_Platform_SDK/output/mx6sdl/sdk_unit_test/smart_device_rev_a/libsdk_unit_test.a(hdmi_test.o) (init_dma_data)
/home/leon/git/swp-report/iMX6_Platform_SDK/output/mx6sdl/sdk_unit_test/smart_device_rev_a/libsdk_unit_test.a(ips_combiner.o)
                              /home/leon/git/swp-report/iMX6_Platform_SDK/output/mx6sdl/sdk_unit_test/smart_device_rev_a/libsdk_unit_test.a(ips_test.o) (ips_combiner_test)
/home/leon/git/swp-report/iMX6_Platform_SDK/output/mx6sdl/sdk_unit_test/smart_device_rev_a/libsdk_unit_test.a(ips_csc.o)
                              /home/leon/git/swp-report/iMX6_Platform_SDK/output/mx6sdl/sdk_unit_test/smart_device_rev_a/libsdk_unit_test.a(ips_test.o) (ips_csc_test)
/home/leon/git/swp-report/iMX6_Platform_SDK/output/mx6sdl/sdk_unit_test/smart_device_rev_a/libsdk_unit_test.a(ips_resize.o)
                              /home/leon/git/swp-report/iMX6_Platform_SDK/output/mx6sdl/sdk_unit_test/smart_device_rev_a/libsdk_unit_test.a(ips_test.o) (ips_resize_test)
/home/leon/git/swp-report/iMX6_Platform_SDK/output/mx6sdl/sdk_unit_test/smart_device_rev_a/libsdk_unit_test.a(ips_rotate.o)
                              /home/leon/git/swp-report/iMX6_Platform_SDK/output/mx6sdl/sdk_unit_test/smart_device_rev_a/libsdk_unit_test.a(ips_test.o) (ips_rotate_test)
/home/leon/git/swp-report/iMX6_Platform_SDK/output/mx6sdl/sdk_unit_test/smart_device_rev_a/libsdk_unit_test.a(usb0_device_mouse_test.o)
                              /home/leon/git/swp-report/iMX6_Platform_SDK/output/mx6sdl/sdk_unit_test/smart_device_rev_a/libsdk_unit_test.a(usb_test.o) (usb0_device_mouse_test)
/home/leon/git/swp-report/iMX6_Platform_SDK/output/mx6sdl/sdk_unit_test/smart_device_rev_a/libsdk_unit_test.a(usb0_host_test.o)
                              /home/leon/git/swp-report/iMX6_Platform_SDK/output/mx6sdl/sdk_unit_test/smart_device_rev_a/libsdk_unit_test.a(usb_test.o) (usb0_host_test)
/home/leon/git/swp-report/iMX6_Platform_SDK/output/mx6sdl/sdk_unit_test/smart_device_rev_a/libsdk_unit_test.a(usb0_host_testmodes_test.o)
                              /home/leon/git/swp-report/iMX6_Platform_SDK/output/mx6sdl/sdk_unit_test/smart_device_rev_a/libsdk_unit_test.a(usb_test.o) (usb0_host_testmodes_test)
/home/leon/git/swp-report/iMX6_Platform_SDK/output/mx6sdl/sdk_unit_test/smart_device_rev_a/libsdk_unit_test.a(spi_nor_numonyx.o)
                              /home/leon/git/swp-report/iMX6_Platform_SDK/output/mx6sdl/sdk_unit_test/smart_device_rev_a/libsdk_unit_test.a(spi_test.o) (spi_nor_query_numonyx)
/home/leon/riotboard/arm-2012.09/bin/../arm-none-eabi/lib//libm.a(lib_a-sf_cos.o)
                              /home/leon/git/swp-report/iMX6_Platform_SDK/output/mx6sdl/sdk_unit_test/smart_device_rev_a/libsdk_unit_test.a(usb0_device_mouse_test.o) (cosf)
/home/leon/riotboard/arm-2012.09/bin/../arm-none-eabi/lib//libm.a(lib_a-sf_fabs.o)
                              /home/leon/git/swp-report/iMX6_Platform_SDK/output/mx6sdl/sdk_unit_test/smart_device_rev_a/libsdk_unit_test.a(accelerometer_test.o) (fabsf)
/home/leon/riotboard/arm-2012.09/bin/../arm-none-eabi/lib//libm.a(lib_a-sf_modf.o)
                              /home/leon/git/swp-report/iMX6_Platform_SDK/output/mx6sdl/sdk_unit_test/smart_device_rev_a/libsdk_unit_test.a(accelerometer_test.o) (modff)
/home/leon/riotboard/arm-2012.09/bin/../arm-none-eabi/lib//libm.a(lib_a-sf_sin.o)
                              /home/leon/git/swp-report/iMX6_Platform_SDK/output/mx6sdl/sdk_unit_test/smart_device_rev_a/libsdk_unit_test.a(usb0_device_mouse_test.o) (sinf)
/home/leon/riotboard/arm-2012.09/bin/../arm-none-eabi/lib//libm.a(lib_a-ef_rem_pio2.o)
                              /home/leon/riotboard/arm-2012.09/bin/../arm-none-eabi/lib//libm.a(lib_a-sf_cos.o) (__ieee754_rem_pio2f)
/home/leon/riotboard/arm-2012.09/bin/../arm-none-eabi/lib//libm.a(lib_a-kf_cos.o)
                              /home/leon/riotboard/arm-2012.09/bin/../arm-none-eabi/lib//libm.a(lib_a-sf_cos.o) (__kernel_cosf)
/home/leon/riotboard/arm-2012.09/bin/../arm-none-eabi/lib//libm.a(lib_a-kf_rem_pio2.o)
                              /home/leon/riotboard/arm-2012.09/bin/../arm-none-eabi/lib//libm.a(lib_a-ef_rem_pio2.o) (__kernel_rem_pio2f)
/home/leon/riotboard/arm-2012.09/bin/../arm-none-eabi/lib//libm.a(lib_a-kf_sin.o)
                              /home/leon/riotboard/arm-2012.09/bin/../arm-none-eabi/lib//libm.a(lib_a-sf_cos.o) (__kernel_sinf)
/home/leon/riotboard/arm-2012.09/bin/../arm-none-eabi/lib//libm.a(lib_a-sf_floor.o)
                              /home/leon/riotboard/arm-2012.09/bin/../arm-none-eabi/lib//libm.a(lib_a-kf_rem_pio2.o) (floorf)
/home/leon/riotboard/arm-2012.09/bin/../arm-none-eabi/lib//libm.a(lib_a-sf_scalbn.o)
                              /home/leon/riotboard/arm-2012.09/bin/../arm-none-eabi/lib//libm.a(lib_a-kf_rem_pio2.o) (scalbnf)
/home/leon/riotboard/arm-2012.09/bin/../arm-none-eabi/lib//libm.a(lib_a-sf_copysign.o)
                              /home/leon/riotboard/arm-2012.09/bin/../arm-none-eabi/lib//libm.a(lib_a-sf_scalbn.o) (copysignf)
/home/leon/riotboard/arm-2012.09/bin/../arm-none-eabi/lib//libc.a(lib_a-assert.o)
                              /home/leon/git/swp-report/iMX6_Platform_SDK/output/mx6sdl/lib/libsdk.a(gic.o) (__assert_func)
/home/leon/riotboard/arm-2012.09/bin/../arm-none-eabi/lib//libc.a(lib_a-bzero.o)
                              /home/leon/git/swp-report/iMX6_Platform_SDK/output/mx6sdl/lib/libsdk.a(mmu.o) (bzero)
/home/leon/riotboard/arm-2012.09/bin/../arm-none-eabi/lib//libc.a(lib_a-fflush.o)
                              /home/leon/git/swp-report/iMX6_Platform_SDK/output/mx6sdl/sdk_unit_test/smart_device_rev_a/libsdk_unit_test.a(accelerometer_test.o) (fflush)
/home/leon/riotboard/arm-2012.09/bin/../arm-none-eabi/lib//libc.a(lib_a-findfp.o)
                              /home/leon/riotboard/arm-2012.09/bin/../arm-none-eabi/lib//libc.a(lib_a-fflush.o) (__sinit)
/home/leon/riotboard/arm-2012.09/bin/../arm-none-eabi/lib//libc.a(lib_a-fiprintf.o)
                              /home/leon/riotboard/arm-2012.09/bin/../arm-none-eabi/lib//libc.a(lib_a-assert.o) (fiprintf)
/home/leon/riotboard/arm-2012.09/bin/../arm-none-eabi/lib//libc.a(lib_a-fputc.o)
                              /home/leon/git/swp-report/iMX6_Platform_SDK/output/mx6sdl/lib/libsdk.a(menu.o) (fputc)
/home/leon/riotboard/arm-2012.09/bin/../arm-none-eabi/lib//libc.a(lib_a-fputs.o)
                              /home/leon/git/swp-report/iMX6_Platform_SDK/output/mx6sdl/sdk_unit_test/smart_device_rev_a/libsdk_unit_test.a(accelerometer_test.o) (fputs)
/home/leon/riotboard/arm-2012.09/bin/../arm-none-eabi/lib//libc.a(lib_a-freer.o)
                              /home/leon/riotboard/arm-2012.09/bin/../arm-none-eabi/lib//libc.a(lib_a-fflush.o) (_free_r)
/home/leon/riotboard/arm-2012.09/bin/../arm-none-eabi/lib//libc.a(lib_a-fvwrite.o)
                              /home/leon/riotboard/arm-2012.09/bin/../arm-none-eabi/lib//libc.a(lib_a-fputs.o) (__sfvwrite_r)
/home/leon/riotboard/arm-2012.09/bin/../arm-none-eabi/lib//libc.a(lib_a-fwalk.o)
                              /home/leon/riotboard/arm-2012.09/bin/../arm-none-eabi/lib//libc.a(lib_a-findfp.o) (_fwalk)
/home/leon/riotboard/arm-2012.09/bin/../arm-none-eabi/lib//libc.a(lib_a-impure.o)
                              /home/leon/riotboard/arm-2012.09/bin/../arm-none-eabi/lib//libc.a(lib_a-fflush.o) (_global_impure_ptr)
/home/leon/riotboard/arm-2012.09/bin/../arm-none-eabi/lib//libc.a(lib_a-init.o)
                              /home/leon/git/swp-report/iMX6_Platform_SDK/output/mx6sdl/lib/libsdk.a(startup.o) (__libc_init_array)
/home/leon/riotboard/arm-2012.09/bin/../arm-none-eabi/lib//libc.a(lib_a-malloc.o)
                              /home/leon/git/swp-report/iMX6_Platform_SDK/output/mx6sdl/lib/libsdk.a(system_util.o) (malloc)
/home/leon/riotboard/arm-2012.09/bin/../arm-none-eabi/lib//libc.a(lib_a-mallocr.o)
                              /home/leon/riotboard/arm-2012.09/bin/../arm-none-eabi/lib//libc.a(lib_a-findfp.o) (_malloc_r)
/home/leon/riotboard/arm-2012.09/bin/../arm-none-eabi/lib//libc.a(lib_a-memchr.o)
                              /home/leon/riotboard/arm-2012.09/bin/../arm-none-eabi/lib//libc.a(lib_a-fvwrite.o) (memchr)
/home/leon/riotboard/arm-2012.09/bin/../arm-none-eabi/lib//libc.a(lib_a-memcpy.o)
                              /home/leon/git/swp-report/iMX6_Platform_SDK/output/mx6sdl/lib/libsdk.a(menu.o) (memcpy)
/home/leon/riotboard/arm-2012.09/bin/../arm-none-eabi/lib//libc.a(lib_a-memmove.o)
                              /home/leon/riotboard/arm-2012.09/bin/../arm-none-eabi/lib//libc.a(lib_a-fvwrite.o) (memmove)
/home/leon/riotboard/arm-2012.09/bin/../arm-none-eabi/lib//libc.a(lib_a-memset.o)
                              /home/leon/git/swp-report/iMX6_Platform_SDK/output/mx6sdl/sdk_unit_test/smart_device_rev_a/obj/apps/common/print_version.o (memset)
/home/leon/riotboard/arm-2012.09/bin/../arm-none-eabi/lib//libc.a(lib_a-mlock.o)
                              /home/leon/riotboard/arm-2012.09/bin/../arm-none-eabi/lib//libc.a(lib_a-freer.o) (__malloc_lock)
/home/leon/riotboard/arm-2012.09/bin/../arm-none-eabi/lib//libc.a(lib_a-printf.o)
                              /home/leon/git/swp-report/iMX6_Platform_SDK/output/mx6sdl/sdk_unit_test/smart_device_rev_a/obj/apps/common/print_clock_info.o (printf)
/home/leon/riotboard/arm-2012.09/bin/../arm-none-eabi/lib//libc.a(lib_a-putc.o)
                              /home/leon/riotboard/arm-2012.09/bin/../arm-none-eabi/lib//libc.a(lib_a-fputc.o) (_putc_r)
/home/leon/riotboard/arm-2012.09/bin/../arm-none-eabi/lib//libc.a(lib_a-realloc.o)
                              /home/leon/git/swp-report/iMX6_Platform_SDK/output/mx6sdl/lib/libsdk.a(system_util.o) (realloc)
/home/leon/riotboard/arm-2012.09/bin/../arm-none-eabi/lib//libc.a(lib_a-reallocr.o)
                              /home/leon/riotboard/arm-2012.09/bin/../arm-none-eabi/lib//libc.a(lib_a-fvwrite.o) (_realloc_r)
/home/leon/riotboard/arm-2012.09/bin/../arm-none-eabi/lib//libc.a(lib_a-rget.o)
                              /home/leon/git/swp-report/iMX6_Platform_SDK/output/mx6sdl/lib/libsdk.a(menu.o) (__srget_r)
/home/leon/riotboard/arm-2012.09/bin/../arm-none-eabi/lib//libc.a(lib_a-sbrkr.o)
                              /home/leon/riotboard/arm-2012.09/bin/../arm-none-eabi/lib//libc.a(lib_a-freer.o) (_sbrk_r)
/home/leon/riotboard/arm-2012.09/bin/../arm-none-eabi/lib//libc.a(lib_a-sprintf.o)
                              /home/leon/git/swp-report/iMX6_Platform_SDK/output/mx6sdl/lib/libsdk.a(board_id.o) (sprintf)
/home/leon/riotboard/arm-2012.09/bin/../arm-none-eabi/lib//libc.a(lib_a-stdio.o)
                              /home/leon/riotboard/arm-2012.09/bin/../arm-none-eabi/lib//libc.a(lib_a-findfp.o) (__sread)
/home/leon/riotboard/arm-2012.09/bin/../arm-none-eabi/lib//libc.a(lib_a-strlen.o)
                              /home/leon/git/swp-report/iMX6_Platform_SDK/output/mx6sdl/lib/libsdk.a(menu.o) (strlen)
/home/leon/riotboard/arm-2012.09/bin/../arm-none-eabi/lib//libc.a(lib_a-strncasecmp.o)
                              /home/leon/git/swp-report/iMX6_Platform_SDK/output/mx6sdl/lib/libsdk.a(menu.o) (strncasecmp)
/home/leon/riotboard/arm-2012.09/bin/../arm-none-eabi/lib//libc.a(lib_a-svfprintf.o)
                              /home/leon/riotboard/arm-2012.09/bin/../arm-none-eabi/lib//libc.a(lib_a-sprintf.o) (_svfprintf_r)
/home/leon/riotboard/arm-2012.09/bin/../arm-none-eabi/lib//libc.a(lib_a-vfiprintf.o)
                              /home/leon/riotboard/arm-2012.09/bin/../arm-none-eabi/lib//libc.a(lib_a-fiprintf.o) (_vfiprintf_r)
/home/leon/riotboard/arm-2012.09/bin/../arm-none-eabi/lib//libc.a(lib_a-vfprintf.o)
                              /home/leon/riotboard/arm-2012.09/bin/../arm-none-eabi/lib//libc.a(lib_a-printf.o) (_vfprintf_r)
/home/leon/riotboard/arm-2012.09/bin/../arm-none-eabi/lib//libc.a(lib_a-vprintf.o)
                              /home/leon/git/swp-report/iMX6_Platform_SDK/output/mx6sdl/lib/libsdk.a(text_color.o) (vprintf)
/home/leon/riotboard/arm-2012.09/bin/../arm-none-eabi/lib//libc.a(lib_a-wbuf.o)
                              /home/leon/riotboard/arm-2012.09/bin/../arm-none-eabi/lib//libc.a(lib_a-putc.o) (__swbuf_r)
/home/leon/riotboard/arm-2012.09/bin/../arm-none-eabi/lib//libc.a(lib_a-writer.o)
                              /home/leon/riotboard/arm-2012.09/bin/../arm-none-eabi/lib//libc.a(lib_a-stdio.o) (_write_r)
/home/leon/riotboard/arm-2012.09/bin/../arm-none-eabi/lib//libc.a(lib_a-wsetup.o)
                              /home/leon/riotboard/arm-2012.09/bin/../arm-none-eabi/lib//libc.a(lib_a-fvwrite.o) (__swsetup_r)
/home/leon/riotboard/arm-2012.09/bin/../arm-none-eabi/lib//libc.a(lib_a-abort.o)
                              /home/leon/riotboard/arm-2012.09/bin/../arm-none-eabi/lib//libc.a(lib_a-assert.o) (abort)
/home/leon/riotboard/arm-2012.09/bin/../arm-none-eabi/lib//libc.a(lib_a-closer.o)
                              /home/leon/riotboard/arm-2012.09/bin/../arm-none-eabi/lib//libc.a(lib_a-stdio.o) (_close_r)
/home/leon/riotboard/arm-2012.09/bin/../arm-none-eabi/lib//libc.a(lib_a-ctype_.o)
                              /home/leon/riotboard/arm-2012.09/bin/../arm-none-eabi/lib//libc.a(lib_a-strncasecmp.o) (__ctype_ptr__)
/home/leon/riotboard/arm-2012.09/bin/../arm-none-eabi/lib//libc.a(lib_a-dtoa.o)
                              /home/leon/riotboard/arm-2012.09/bin/../arm-none-eabi/lib//libc.a(lib_a-svfprintf.o) (_dtoa_r)
/home/leon/riotboard/arm-2012.09/bin/../arm-none-eabi/lib//libc.a(lib_a-fclose.o)
                              /home/leon/riotboard/arm-2012.09/bin/../arm-none-eabi/lib//libc.a(lib_a-findfp.o) (fclose)
/home/leon/riotboard/arm-2012.09/bin/../arm-none-eabi/lib//libc.a(lib_a-fputwc.o)
                              /home/leon/riotboard/arm-2012.09/bin/../arm-none-eabi/lib//libc.a(lib_a-vfiprintf.o) (_fputwc_r)
/home/leon/riotboard/arm-2012.09/bin/../arm-none-eabi/lib//libc.a(lib_a-locale.o)
                              /home/leon/riotboard/arm-2012.09/bin/../arm-none-eabi/lib//libc.a(lib_a-fputwc.o) (__locale_mb_cur_max)
/home/leon/riotboard/arm-2012.09/bin/../arm-none-eabi/lib//libc.a(lib_a-lseekr.o)
                              /home/leon/riotboard/arm-2012.09/bin/../arm-none-eabi/lib//libc.a(lib_a-stdio.o) (_lseek_r)
/home/leon/riotboard/arm-2012.09/bin/../arm-none-eabi/lib//libc.a(lib_a-makebuf.o)
                              /home/leon/riotboard/arm-2012.09/bin/../arm-none-eabi/lib//libc.a(lib_a-wsetup.o) (__smakebuf_r)
/home/leon/riotboard/arm-2012.09/bin/../arm-none-eabi/lib//libc.a(lib_a-mprec.o)
                              /home/leon/riotboard/arm-2012.09/bin/../arm-none-eabi/lib//libc.a(lib_a-dtoa.o) (_Balloc)
/home/leon/riotboard/arm-2012.09/bin/../arm-none-eabi/lib//libc.a(lib_a-readr.o)
                              /home/leon/riotboard/arm-2012.09/bin/../arm-none-eabi/lib//libc.a(lib_a-stdio.o) (_read_r)
/home/leon/riotboard/arm-2012.09/bin/../arm-none-eabi/lib//libc.a(lib_a-reent.o)
                              /home/leon/riotboard/arm-2012.09/bin/../arm-none-eabi/lib//libc.a(lib_a-sbrkr.o) (errno)
/home/leon/riotboard/arm-2012.09/bin/../arm-none-eabi/lib//libc.a(lib_a-refill.o)
                              /home/leon/riotboard/arm-2012.09/bin/../arm-none-eabi/lib//libc.a(lib_a-rget.o) (__srefill_r)
/home/leon/riotboard/arm-2012.09/bin/../arm-none-eabi/lib//libc.a(lib_a-s_fpclassify.o)
                              /home/leon/riotboard/arm-2012.09/bin/../arm-none-eabi/lib//libc.a(lib_a-svfprintf.o) (__fpclassifyd)
/home/leon/riotboard/arm-2012.09/bin/../arm-none-eabi/lib//libc.a(lib_a-signal.o)
                              /home/leon/riotboard/arm-2012.09/bin/../arm-none-eabi/lib//libc.a(lib_a-abort.o) (raise)
/home/leon/riotboard/arm-2012.09/bin/../arm-none-eabi/lib//libc.a(lib_a-signalr.o)
                              /home/leon/riotboard/arm-2012.09/bin/../arm-none-eabi/lib//libc.a(lib_a-signal.o) (_kill_r)
/home/leon/riotboard/arm-2012.09/bin/../arm-none-eabi/lib//libc.a(lib_a-strcmp.o)
                              /home/leon/riotboard/arm-2012.09/bin/../arm-none-eabi/lib//libc.a(lib_a-locale.o) (strcmp)
/home/leon/riotboard/arm-2012.09/bin/../arm-none-eabi/lib//libc.a(lib_a-svfiprintf.o)
                              /home/leon/riotboard/arm-2012.09/bin/../arm-none-eabi/lib//libc.a(lib_a-svfprintf.o) (__ssprint_r)
/home/leon/riotboard/arm-2012.09/bin/../arm-none-eabi/lib//libc.a(lib_a-wcrtomb.o)
                              /home/leon/riotboard/arm-2012.09/bin/../arm-none-eabi/lib//libc.a(lib_a-fputwc.o) (_wcrtomb_r)
/home/leon/riotboard/arm-2012.09/bin/../arm-none-eabi/lib//libc.a(lib_a-wctomb_r.o)
                              /home/leon/riotboard/arm-2012.09/bin/../arm-none-eabi/lib//libc.a(lib_a-wcrtomb.o) (__wctomb)
/home/leon/riotboard/arm-2012.09/bin/../arm-none-eabi/lib//libc.a(lib_a-callocr.o)
                              /home/leon/riotboard/arm-2012.09/bin/../arm-none-eabi/lib//libc.a(lib_a-mprec.o) (_calloc_r)
/home/leon/riotboard/arm-2012.09/bin/../arm-none-eabi/lib//libc.a(lib_a-fstatr.o)
                              /home/leon/riotboard/arm-2012.09/bin/../arm-none-eabi/lib//libc.a(lib_a-makebuf.o) (_fstat_r)
/home/leon/riotboard/arm-2012.09/bin/../arm-none-eabi/lib//libc.a(lib_a-isattyr.o)
                              /home/leon/riotboard/arm-2012.09/bin/../arm-none-eabi/lib//libc.a(lib_a-makebuf.o) (_isatty_r)
/home/leon/riotboard/arm-2012.09/bin/../lib/gcc/arm-none-eabi/4.7.2//libgcc.a(_udivsi3.o)
                              /home/leon/git/swp-report/iMX6_Platform_SDK/output/mx6sdl/lib/libsdk.a(ccm_pll.o) (__aeabi_uidiv)
/home/leon/riotboard/arm-2012.09/bin/../lib/gcc/arm-none-eabi/4.7.2//libgcc.a(_dvmd_tls.o)
                              /home/leon/riotboard/arm-2012.09/bin/../lib/gcc/arm-none-eabi/4.7.2//libgcc.a(_udivsi3.o) (__aeabi_idiv0)
/home/leon/riotboard/arm-2012.09/bin/../lib/gcc/arm-none-eabi/4.7.2//libgcc.a(_arm_addsubdf3.o)
                              /home/leon/riotboard/arm-2012.09/bin/../arm-none-eabi/lib//libc.a(lib_a-dtoa.o) (__aeabi_dsub)
/home/leon/riotboard/arm-2012.09/bin/../lib/gcc/arm-none-eabi/4.7.2//libgcc.a(_arm_muldivdf3.o)
                              /home/leon/riotboard/arm-2012.09/bin/../arm-none-eabi/lib//libc.a(lib_a-dtoa.o) (__aeabi_dmul)
/home/leon/riotboard/arm-2012.09/bin/../lib/gcc/arm-none-eabi/4.7.2//libgcc.a(_arm_cmpdf2.o)
                              /home/leon/riotboard/arm-2012.09/bin/../arm-none-eabi/lib//libc.a(lib_a-svfprintf.o) (__aeabi_dcmpeq)
/home/leon/riotboard/arm-2012.09/bin/../lib/gcc/arm-none-eabi/4.7.2//libgcc.a(_arm_fixdfsi.o)
                              /home/leon/riotboard/arm-2012.09/bin/../arm-none-eabi/lib//libc.a(lib_a-dtoa.o) (__aeabi_d2iz)
/home/leon/riotboard/arm-2012.09/bin/../lib/gcc/arm-none-eabi/4.7.2//libgcc.a(_arm_addsubsf3.o)
                              /home/leon/riotboard/arm-2012.09/bin/../arm-none-eabi/lib//libm.a(lib_a-sf_cos.o) (__aeabi_fsub)
/home/leon/riotboard/arm-2012.09/bin/../lib/gcc/arm-none-eabi/4.7.2//libgcc.a(_arm_muldivsf3.o)
                              /home/leon/riotboard/arm-2012.09/bin/../arm-none-eabi/lib//libm.a(lib_a-ef_rem_pio2.o) (__aeabi_fmul)
/home/leon/riotboard/arm-2012.09/bin/../lib/gcc/arm-none-eabi/4.7.2//libgcc.a(_arm_cmpsf2.o)
                              /home/leon/riotboard/arm-2012.09/bin/../arm-none-eabi/lib//libm.a(lib_a-ef_rem_pio2.o) (__aeabi_fcmpeq)
/home/leon/riotboard/arm-2012.09/bin/../lib/gcc/arm-none-eabi/4.7.2//libgcc.a(_arm_fixsfsi.o)
                              /home/leon/riotboard/arm-2012.09/bin/../arm-none-eabi/lib//libm.a(lib_a-ef_rem_pio2.o) (__aeabi_f2iz)
/home/leon/riotboard/arm-2012.09/bin/../lib/gcc/arm-none-eabi/4.7.2//libgcc.a(_aeabi_uldivmod.o)
                              /home/leon/git/swp-report/iMX6_Platform_SDK/output/mx6sdl/lib/libsdk.a(timer.o) (__aeabi_uldivmod)
/home/leon/riotboard/arm-2012.09/bin/../lib/gcc/arm-none-eabi/4.7.2//libgcc.a(bpabi.o)
                              /home/leon/riotboard/arm-2012.09/bin/../lib/gcc/arm-none-eabi/4.7.2//libgcc.a(_aeabi_uldivmod.o) (__gnu_uldivmod_helper)
/home/leon/riotboard/arm-2012.09/bin/../lib/gcc/arm-none-eabi/4.7.2//libgcc.a(_divdi3.o)
                              /home/leon/riotboard/arm-2012.09/bin/../lib/gcc/arm-none-eabi/4.7.2//libgcc.a(bpabi.o) (__divdi3)
/home/leon/riotboard/arm-2012.09/bin/../lib/gcc/arm-none-eabi/4.7.2//libgcc.a(_udivdi3.o)
                              /home/leon/riotboard/arm-2012.09/bin/../lib/gcc/arm-none-eabi/4.7.2//libgcc.a(bpabi.o) (__udivdi3)
/home/leon/riotboard/arm-2012.09/bin/../lib/gcc/arm-none-eabi/4.7.2//libgcc.a(_clzsi2.o)
                              /home/leon/riotboard/arm-2012.09/bin/../lib/gcc/arm-none-eabi/4.7.2//libgcc.a(_divdi3.o) (__clzsi2)
/home/leon/git/swp-report/iMX6_Platform_SDK/output/mx6sdl/lib/libsdk.a(profile.o)
                              /home/leon/git/swp-report/iMX6_Platform_SDK/output/mx6sdl/sdk_unit_test/smart_device_rev_a/libsdk_unit_test.a(mem_2_mem.o) (StartPerfCounter)
/home/leon/git/swp-report/iMX6_Platform_SDK/output/mx6sdl/lib/libsdk.a(armv7_cache.o)
                              /home/leon/git/swp-report/iMX6_Platform_SDK/output/mx6sdl/sdk_unit_test/smart_device_rev_a/libsdk_unit_test.a(cpu_wp_test.o) (arm_dcache_state_query)
/home/leon/git/swp-report/iMX6_Platform_SDK/output/mx6sdl/lib/libsdk.a(runtime_support.o)
                              /home/leon/riotboard/arm-2012.09/bin/../arm-none-eabi/lib//libc.a(lib_a-isattyr.o) (_isatty)
/home/leon/git/swp-report/iMX6_Platform_SDK/output/mx6sdl/lib/libsdk.a(mma8451.o)
                              /home/leon/git/swp-report/iMX6_Platform_SDK/output/mx6sdl/sdk_unit_test/smart_device_rev_a/libsdk_unit_test.a(accelerometer_test.o) (mma8451_init)
/home/leon/git/swp-report/iMX6_Platform_SDK/output/mx6sdl/lib/libsdk.a(smd_sensor.o)
                              /home/leon/git/swp-report/iMX6_Platform_SDK/output/mx6sdl/sdk_unit_test/smart_device_rev_a/libsdk_unit_test.a(sensor_capture.o) (sensor_config)
/home/leon/git/swp-report/iMX6_Platform_SDK/output/mx6sdl/lib/libsdk.a(cpu_get_cores.o)
                              /home/leon/git/swp-report/iMX6_Platform_SDK/output/mx6sdl/sdk_unit_test/smart_device_rev_a/libsdk_unit_test.a(multicore_test.o) (cpu_get_cores)
/home/leon/git/swp-report/iMX6_Platform_SDK/output/mx6sdl/lib/libsdk.a(cpu_multicore.o)
                              /home/leon/git/swp-report/iMX6_Platform_SDK/output/mx6sdl/sdk_unit_test/smart_device_rev_a/libsdk_unit_test.a(multicore_test.o) (cpu_start_secondary)
/home/leon/git/swp-report/iMX6_Platform_SDK/output/mx6sdl/lib/libsdk.a(cpu_workpoint.o)
                              /home/leon/git/swp-report/iMX6_Platform_SDK/output/mx6sdl/sdk_unit_test/smart_device_rev_a/libsdk_unit_test.a(cpu_wp_test.o) (cpu_workpoint_set)
/home/leon/git/swp-report/iMX6_Platform_SDK/output/mx6sdl/lib/libsdk.a(enet_drv.o)
                              /home/leon/git/swp-report/iMX6_Platform_SDK/output/mx6sdl/sdk_unit_test/smart_device_rev_a/libsdk_unit_test.a(enet_test.o) (imx_enet_phy_init)
/home/leon/git/swp-report/iMX6_Platform_SDK/output/mx6sdl/lib/libsdk.a(gpio.o)
                              /home/leon/git/swp-report/iMX6_Platform_SDK/output/mx6sdl/sdk_unit_test/smart_device_rev_a/libsdk_unit_test.a(accelerometer_test.o) (gpio_set_gpio)
/home/leon/git/swp-report/iMX6_Platform_SDK/output/mx6sdl/lib/libsdk.a(imx6sdl_gpio_map.o)
                              /home/leon/git/swp-report/iMX6_Platform_SDK/output/mx6sdl/lib/libsdk.a(gpio.o) (k_gpio_mux_registers)
/home/leon/git/swp-report/iMX6_Platform_SDK/output/mx6sdl/lib/libsdk.a(hdmi_tx.o)
                              /home/leon/git/swp-report/iMX6_Platform_SDK/output/mx6sdl/sdk_unit_test/smart_device_rev_a/libsdk_unit_test.a(hdmi_test.o) (hdmi_config_input_source)
/home/leon/git/swp-report/iMX6_Platform_SDK/output/mx6sdl/lib/libsdk.a(hdmi_tx_audio.o)
                              /home/leon/git/swp-report/iMX6_Platform_SDK/output/mx6sdl/sdk_unit_test/smart_device_rev_a/libsdk_unit_test.a(hdmi_test.o) (hdmi_audio_mute)
/home/leon/git/swp-report/iMX6_Platform_SDK/output/mx6sdl/lib/libsdk.a(hdmi_tx_phy.o)
                              /home/leon/git/swp-report/iMX6_Platform_SDK/output/mx6sdl/sdk_unit_test/smart_device_rev_a/libsdk_unit_test.a(hdmi_test.o) (hdmi_phy_init)
/home/leon/git/swp-report/iMX6_Platform_SDK/output/mx6sdl/lib/libsdk.a(imx_i2c.o)
                              /home/leon/git/swp-report/iMX6_Platform_SDK/output/mx6sdl/lib/libsdk.a(smd_sensor.o) (i2c_xfer)
/home/leon/git/swp-report/iMX6_Platform_SDK/output/mx6sdl/lib/libsdk.a(imx_i2c_slave.o)
                              /home/leon/git/swp-report/iMX6_Platform_SDK/output/mx6sdl/sdk_unit_test/smart_device_rev_a/libsdk_unit_test.a(imx6_i2c_device.o) (i2c_slave_xfer)
/home/leon/git/swp-report/iMX6_Platform_SDK/output/mx6sdl/lib/libsdk.a(ips_disp_panel.o)
                              /home/leon/git/swp-report/iMX6_Platform_SDK/output/mx6sdl/sdk_unit_test/smart_device_rev_a/libsdk_unit_test.a(ips_display.o) (search_panel)
/home/leon/git/swp-report/iMX6_Platform_SDK/output/mx6sdl/lib/libsdk.a(ipu_common.o)
                              /home/leon/git/swp-report/iMX6_Platform_SDK/output/mx6sdl/sdk_unit_test/smart_device_rev_a/libsdk_unit_test.a(ips_display.o) (ipu_enable_display)
/home/leon/git/swp-report/iMX6_Platform_SDK/output/mx6sdl/lib/libsdk.a(ipu_csi.o)
                              /home/leon/git/swp-report/iMX6_Platform_SDK/output/mx6sdl/lib/libsdk.a(ipu_common.o) (ipu_csi_config)
/home/leon/git/swp-report/iMX6_Platform_SDK/output/mx6sdl/lib/libsdk.a(ipu_dc.o)
                              /home/leon/git/swp-report/iMX6_Platform_SDK/output/mx6sdl/lib/libsdk.a(ipu_common.o) (ipu_dc_config)
/home/leon/git/swp-report/iMX6_Platform_SDK/output/mx6sdl/lib/libsdk.a(ipu_di.o)
                              /home/leon/git/swp-report/iMX6_Platform_SDK/output/mx6sdl/lib/libsdk.a(ipu_common.o) (ipu_di_config)
/home/leon/git/swp-report/iMX6_Platform_SDK/output/mx6sdl/lib/libsdk.a(ipu_dmfc.o)
                              /home/leon/git/swp-report/iMX6_Platform_SDK/output/mx6sdl/lib/libsdk.a(ipu_common.o) (ipu_dmfc_config)
/home/leon/git/swp-report/iMX6_Platform_SDK/output/mx6sdl/lib/libsdk.a(ipu_dp.o)
                              /home/leon/git/swp-report/iMX6_Platform_SDK/output/mx6sdl/sdk_unit_test/smart_device_rev_a/libsdk_unit_test.a(ips_combiner.o) (ipu_dp_config)
/home/leon/git/swp-report/iMX6_Platform_SDK/output/mx6sdl/lib/libsdk.a(ipu_ic.o)
                              /home/leon/git/swp-report/iMX6_Platform_SDK/output/mx6sdl/sdk_unit_test/smart_device_rev_a/libsdk_unit_test.a(ips_csc.o) (ipu_ic_enable)
/home/leon/git/swp-report/iMX6_Platform_SDK/output/mx6sdl/lib/libsdk.a(ipu_idmac.o)
                              /home/leon/git/swp-report/iMX6_Platform_SDK/output/mx6sdl/lib/libsdk.a(ipu_common.o) (ipu_cpmem_set_field)
/home/leon/git/swp-report/iMX6_Platform_SDK/output/mx6sdl/lib/libsdk.a(ipu_vdi.o)
                              /home/leon/git/swp-report/iMX6_Platform_SDK/output/mx6sdl/lib/libsdk.a(ipu_common.o) (ips_deinterlace_proc)
/home/leon/git/swp-report/iMX6_Platform_SDK/output/mx6sdl/lib/libsdk.a(keypad_port.o)
                              /home/leon/git/swp-report/iMX6_Platform_SDK/output/mx6sdl/sdk_unit_test/smart_device_rev_a/libsdk_unit_test.a(keypad_test.o) (kpp_get_keypad_state)
/home/leon/git/swp-report/iMX6_Platform_SDK/output/mx6sdl/lib/libsdk.a(ldb.o)
                              /home/leon/git/swp-report/iMX6_Platform_SDK/output/mx6sdl/lib/libsdk.a(ips_disp_panel.o) (ldb_config)
/home/leon/git/swp-report/iMX6_Platform_SDK/output/mx6sdl/lib/libsdk.a(ocotp.o)
                              /home/leon/git/swp-report/iMX6_Platform_SDK/output/mx6sdl/sdk_unit_test/smart_device_rev_a/libsdk_unit_test.a(ocotp_test.o) (ocotp_sense_fuse)
/home/leon/git/swp-report/iMX6_Platform_SDK/output/mx6sdl/lib/libsdk.a(pcie.o)
                              /home/leon/git/swp-report/iMX6_Platform_SDK/output/mx6sdl/sdk_unit_test/smart_device_rev_a/libsdk_unit_test.a(pcie_test_rc.o) (pcie_func_clk_setup)
/home/leon/git/swp-report/iMX6_Platform_SDK/output/mx6sdl/lib/libsdk.a(pcie_phy.o)
                              /home/leon/git/swp-report/iMX6_Platform_SDK/output/mx6sdl/lib/libsdk.a(pcie.o) (pcie_phy_cr_read)
/home/leon/git/swp-report/iMX6_Platform_SDK/output/mx6sdl/lib/libsdk.a(pcie_prot.o)
                              /home/leon/git/swp-report/iMX6_Platform_SDK/output/mx6sdl/sdk_unit_test/smart_device_rev_a/libsdk_unit_test.a(pcie_test_rc.o) (pcie_dump_cfg_header)
/home/leon/git/swp-report/iMX6_Platform_SDK/output/mx6sdl/lib/libsdk.a(pmu_driver.o)
                              /home/leon/git/swp-report/iMX6_Platform_SDK/output/mx6sdl/lib/libsdk.a(cpu_workpoint.o) (pmu_init)
/home/leon/git/swp-report/iMX6_Platform_SDK/output/mx6sdl/lib/libsdk.a(pwm.o)
                              /home/leon/git/swp-report/iMX6_Platform_SDK/output/mx6sdl/sdk_unit_test/smart_device_rev_a/libsdk_unit_test.a(pwm_output.o) (pwm_init)
/home/leon/git/swp-report/iMX6_Platform_SDK/output/mx6sdl/lib/libsdk.a(rtc.o)
                              /home/leon/git/swp-report/iMX6_Platform_SDK/output/mx6sdl/sdk_unit_test/smart_device_rev_a/libsdk_unit_test.a(snvs_rtc_test.o) (rtc_init)
/home/leon/git/swp-report/iMX6_Platform_SDK/output/mx6sdl/lib/libsdk.a(srtc.o)
                              /home/leon/git/swp-report/iMX6_Platform_SDK/output/mx6sdl/sdk_unit_test/smart_device_rev_a/libsdk_unit_test.a(snvs_srtc_test.o) (srtc_init)
/home/leon/git/swp-report/iMX6_Platform_SDK/output/mx6sdl/lib/libsdk.a(sdma.o)
                              /home/leon/git/swp-report/iMX6_Platform_SDK/output/mx6sdl/sdk_unit_test/smart_device_rev_a/libsdk_unit_test.a(spi_lpb.o) (sdma_channel_start)
/home/leon/git/swp-report/iMX6_Platform_SDK/output/mx6sdl/lib/libsdk.a(sdma_script_info.o)
                              /home/leon/git/swp-report/iMX6_Platform_SDK/output/mx6sdl/lib/libsdk.a(sdma.o) (script_info)
/home/leon/git/swp-report/iMX6_Platform_SDK/output/mx6sdl/lib/libsdk.a(snvs.o)
                              /home/leon/git/swp-report/iMX6_Platform_SDK/output/mx6sdl/lib/libsdk.a(rtc.o) (snvs_rtc_counter)
/home/leon/git/swp-report/iMX6_Platform_SDK/output/mx6sdl/lib/libsdk.a(ecspi.o)
                              /home/leon/git/swp-report/iMX6_Platform_SDK/output/mx6sdl/sdk_unit_test/smart_device_rev_a/libsdk_unit_test.a(spi_test.o) (ecspi_configure)
/home/leon/git/swp-report/iMX6_Platform_SDK/output/mx6sdl/lib/libsdk.a(tempmon.o)
                              /home/leon/git/swp-report/iMX6_Platform_SDK/output/mx6sdl/sdk_unit_test/smart_device_rev_a/libsdk_unit_test.a(tempmon_test.o) (tempmon_get_temp)
/home/leon/git/swp-report/iMX6_Platform_SDK/output/mx6sdl/lib/libsdk.a(gpt.o)
                              /home/leon/git/swp-report/iMX6_Platform_SDK/output/mx6sdl/sdk_unit_test/smart_device_rev_a/libsdk_unit_test.a(gpt_test.o) (gpt_get_rollover_event)
/home/leon/git/swp-report/iMX6_Platform_SDK/output/mx6sdl/lib/libsdk.a(usb_common.o)
                              /home/leon/git/swp-report/iMX6_Platform_SDK/output/mx6sdl/sdk_unit_test/smart_device_rev_a/libsdk_unit_test.a(usb0_device_mouse_test.o) (usb_get_port_speed)
/home/leon/git/swp-report/iMX6_Platform_SDK/output/mx6sdl/lib/libsdk.a(usbd_drv.o)
                              /home/leon/git/swp-report/iMX6_Platform_SDK/output/mx6sdl/sdk_unit_test/smart_device_rev_a/libsdk_unit_test.a(usb0_device_mouse_test.o) (usbd_device_init)
/home/leon/git/swp-report/iMX6_Platform_SDK/output/mx6sdl/lib/libsdk.a(usbh_drv.o)
                              /home/leon/git/swp-report/iMX6_Platform_SDK/output/mx6sdl/sdk_unit_test/smart_device_rev_a/libsdk_unit_test.a(usb0_host_test.o) (usbh_init)
/home/leon/git/swp-report/iMX6_Platform_SDK/output/mx6sdl/lib/libsdk.a(usdhc.o)
                              /home/leon/git/swp-report/iMX6_Platform_SDK/output/mx6sdl/sdk_unit_test/smart_device_rev_a/libsdk_unit_test.a(usdhc_test.o) (set_card_access_mode)
/home/leon/git/swp-report/iMX6_Platform_SDK/output/mx6sdl/lib/libsdk.a(usdhc_host.o)
                              /home/leon/git/swp-report/iMX6_Platform_SDK/output/mx6sdl/lib/libsdk.a(usdhc.o) (usdhc1_isr)
/home/leon/git/swp-report/iMX6_Platform_SDK/output/mx6sdl/lib/libsdk.a(usdhc_mmc.o)
                              /home/leon/git/swp-report/iMX6_Platform_SDK/output/mx6sdl/lib/libsdk.a(usdhc.o) (mmc_init)
/home/leon/git/swp-report/iMX6_Platform_SDK/output/mx6sdl/lib/libsdk.a(usdhc_sd.o)
                              /home/leon/git/swp-report/iMX6_Platform_SDK/output/mx6sdl/lib/libsdk.a(usdhc.o) (sd_init)
/home/leon/git/swp-report/iMX6_Platform_SDK/output/mx6sdl/lib/libsdk.a(spinlock.o)
                              /home/leon/git/swp-report/iMX6_Platform_SDK/output/mx6sdl/lib/libsdk.a(keypad_port.o) (spinlock_init)
/home/leon/git/swp-report/iMX6_Platform_SDK/output/mx6sdl/lib/libsdk.a(spinlock_lock_unlock.o)
                              /home/leon/git/swp-report/iMX6_Platform_SDK/output/mx6sdl/lib/libsdk.a(keypad_port.o) (spinlock_lock)
/home/leon/git/swp-report/iMX6_Platform_SDK/output/mx6sdl/lib/libsdk.a(camera_profile.o)
                              /home/leon/git/swp-report/iMX6_Platform_SDK/output/mx6sdl/lib/libsdk.a(smd_sensor.o) (g_camera_profiles)
/home/leon/git/swp-report/iMX6_Platform_SDK/output/mx6sdl/lib/libsdk.a(hdmi_common.o)
                              /home/leon/git/swp-report/iMX6_Platform_SDK/output/mx6sdl/lib/libsdk.a(hdmi_tx.o) (isColorSpaceConversion)
/home/leon/git/swp-report/iMX6_Platform_SDK/output/mx6sdl/lib/libsdk.a(mx6x_usb.o)
                              /home/leon/git/swp-report/iMX6_Platform_SDK/output/mx6sdl/lib/libsdk.a(usbd_drv.o) (usbEnableClocks)
/home/leon/git/swp-report/iMX6_Platform_SDK/output/mx6sdl/lib/libboard_smart_device_rev_a.a(board_audio.o)
                              /home/leon/git/swp-report/iMX6_Platform_SDK/output/mx6sdl/lib/libsdk.a(smd_sensor.o) (audio_codec_power_on)
/home/leon/git/swp-report/iMX6_Platform_SDK/output/mx6sdl/lib/libboard_smart_device_rev_a.a(board_camera.o)
                              /home/leon/git/swp-report/iMX6_Platform_SDK/output/mx6sdl/lib/libsdk.a(smd_sensor.o) (g_camera_i2c_port)
/home/leon/git/swp-report/iMX6_Platform_SDK/output/mx6sdl/lib/libboard_smart_device_rev_a.a(board_display.o)
                              /home/leon/git/swp-report/iMX6_Platform_SDK/output/mx6sdl/lib/libsdk.a(ips_disp_panel.o) (lvds_power_on)
/home/leon/git/swp-report/iMX6_Platform_SDK/output/mx6sdl/lib/libboard_smart_device_rev_a.a(board_hdmi.o)
                              /home/leon/git/swp-report/iMX6_Platform_SDK/output/mx6sdl/lib/libsdk.a(ips_disp_panel.o) (hdmi_pgm_iomux)
/home/leon/git/swp-report/iMX6_Platform_SDK/output/mx6sdl/lib/libboard_smart_device_rev_a.a(board_i2c.o)
                              /home/leon/git/swp-report/iMX6_Platform_SDK/output/mx6sdl/sdk_unit_test/smart_device_rev_a/libsdk_unit_test.a(at24cxx.o) (g_at24cx_i2c_device)
/home/leon/git/swp-report/iMX6_Platform_SDK/output/mx6sdl/lib/libboard_smart_device_rev_a.a(board_mipi.o)
                              /home/leon/git/swp-report/iMX6_Platform_SDK/output/mx6sdl/lib/libsdk.a(ips_disp_panel.o) (mipi_backlight_en)
/home/leon/git/swp-report/iMX6_Platform_SDK/output/mx6sdl/lib/libboard_smart_device_rev_a.a(board_network.o)
                              /home/leon/git/swp-report/iMX6_Platform_SDK/output/mx6sdl/sdk_unit_test/smart_device_rev_a/libsdk_unit_test.a(enet_test.o) (imx_enet_iomux)
/home/leon/git/swp-report/iMX6_Platform_SDK/output/mx6sdl/lib/libboard_smart_device_rev_a.a(board_pcie.o)
                              /home/leon/git/swp-report/iMX6_Platform_SDK/output/mx6sdl/sdk_unit_test/smart_device_rev_a/libsdk_unit_test.a(pcie_test_rc.o) (pcie_clk_setup)
/home/leon/git/swp-report/iMX6_Platform_SDK/output/mx6sdl/lib/libboard_smart_device_rev_a.a(board_usb.o)
                              /home/leon/git/swp-report/iMX6_Platform_SDK/output/mx6sdl/lib/libsdk.a(usbh_drv.o) (usbEnableVbus)
/home/leon/git/swp-report/iMX6_Platform_SDK/output/mx6sdl/lib/libboard_smart_device_rev_a.a(board_usdhc.o)
                              /home/leon/git/swp-report/iMX6_Platform_SDK/output/mx6sdl/lib/libsdk.a(usdhc_host.o) (usdhc_gpio_config)
/home/leon/git/swp-report/iMX6_Platform_SDK/output/mx6sdl/lib/libboard_smart_device_rev_a.a(ecspi_iomux_config.o)
                              /home/leon/git/swp-report/iMX6_Platform_SDK/output/mx6sdl/lib/libsdk.a(ecspi.o) (ecspi_iomux_config)
/home/leon/git/swp-report/iMX6_Platform_SDK/output/mx6sdl/lib/libboard_smart_device_rev_a.a(i2c_iomux_config.o)
                              /home/leon/git/swp-report/iMX6_Platform_SDK/output/mx6sdl/lib/libsdk.a(imx_i2c.o) (i2c_iomux_config)
/home/leon/git/swp-report/iMX6_Platform_SDK/output/mx6sdl/lib/libboard_smart_device_rev_a.a(pwm_iomux_config.o)
                              /home/leon/git/swp-report/iMX6_Platform_SDK/output/mx6sdl/sdk_unit_test/smart_device_rev_a/libsdk_unit_test.a(pwm_output.o) (pwm_iomux_config)
/home/leon/git/swp-report/iMX6_Platform_SDK/output/mx6sdl/lib/libboard_smart_device_rev_a.a(usdhc_iomux_config.o)
                              /home/leon/git/swp-report/iMX6_Platform_SDK/output/mx6sdl/lib/libsdk.a(usdhc_host.o) (usdhc_iomux_config)
/home/leon/riotboard/arm-2012.09/bin/../arm-none-eabi/lib//libstdc++.a(pure.o)
                              /home/leon/git/swp-report/iMX6_Platform_SDK/output/mx6sdl/lib/libsdk.a(pmu_driver.o) (__cxa_pure_virtual)
/home/leon/riotboard/arm-2012.09/bin/../arm-none-eabi/lib//libstdc++.a(eh_terminate.o)
                              /home/leon/riotboard/arm-2012.09/bin/../arm-none-eabi/lib//libstdc++.a(pure.o) (std::terminate())
/home/leon/riotboard/arm-2012.09/bin/../arm-none-eabi/lib//libstdc++.a(eh_unex_handler.o)
                              /home/leon/riotboard/arm-2012.09/bin/../arm-none-eabi/lib//libstdc++.a(eh_terminate.o) (__cxxabiv1::__unexpected_handler)
/home/leon/riotboard/arm-2012.09/bin/../arm-none-eabi/lib//libstdc++.a(eh_call.o)
                              /home/leon/riotboard/arm-2012.09/bin/../arm-none-eabi/lib//libstdc++.a(eh_terminate.o) (__cxa_call_unexpected)
/home/leon/riotboard/arm-2012.09/bin/../arm-none-eabi/lib//libstdc++.a(eh_throw.o)
                              /home/leon/riotboard/arm-2012.09/bin/../arm-none-eabi/lib//libstdc++.a(eh_call.o) (__cxa_throw)
/home/leon/riotboard/arm-2012.09/bin/../arm-none-eabi/lib//libstdc++.a(eh_arm.o)
                              /home/leon/riotboard/arm-2012.09/bin/../arm-none-eabi/lib//libstdc++.a(eh_terminate.o) (__cxa_end_cleanup)
/home/leon/riotboard/arm-2012.09/bin/../arm-none-eabi/lib//libstdc++.a(eh_exception.o)
                              /home/leon/riotboard/arm-2012.09/bin/../arm-none-eabi/lib//libstdc++.a(eh_call.o) (std::bad_exception::~bad_exception())
/home/leon/riotboard/arm-2012.09/bin/../arm-none-eabi/lib//libstdc++.a(eh_alloc.o)
                              /home/leon/riotboard/arm-2012.09/bin/../arm-none-eabi/lib//libstdc++.a(eh_call.o) (__cxa_allocate_exception)
/home/leon/riotboard/arm-2012.09/bin/../arm-none-eabi/lib//libstdc++.a(eh_globals.o)
                              /home/leon/riotboard/arm-2012.09/bin/../arm-none-eabi/lib//libstdc++.a(eh_call.o) (__cxa_get_globals_fast)
/home/leon/riotboard/arm-2012.09/bin/../arm-none-eabi/lib//libstdc++.a(si_class_type_info.o)
                              /home/leon/riotboard/arm-2012.09/bin/../arm-none-eabi/lib//libstdc++.a(eh_exception.o) (vtable for __cxxabiv1::__si_class_type_info)
/home/leon/riotboard/arm-2012.09/bin/../arm-none-eabi/lib//libstdc++.a(eh_personality.o)
                              /home/leon/riotboard/arm-2012.09/bin/../arm-none-eabi/lib//libstdc++.a(eh_terminate.o) (__gxx_personality_v0)
/home/leon/riotboard/arm-2012.09/bin/../arm-none-eabi/lib//libstdc++.a(eh_term_handler.o)
                              /home/leon/riotboard/arm-2012.09/bin/../arm-none-eabi/lib//libstdc++.a(eh_terminate.o) (__cxxabiv1::__terminate_handler)
/home/leon/riotboard/arm-2012.09/bin/../arm-none-eabi/lib//libstdc++.a(eh_catch.o)
                              /home/leon/riotboard/arm-2012.09/bin/../arm-none-eabi/lib//libstdc++.a(eh_terminate.o) (__cxa_begin_catch)
/home/leon/riotboard/arm-2012.09/bin/../arm-none-eabi/lib//libstdc++.a(class_type_info.o)
                              /home/leon/riotboard/arm-2012.09/bin/../arm-none-eabi/lib//libstdc++.a(si_class_type_info.o) (__cxxabiv1::__class_type_info::__do_upcast(__cxxabiv1::__class_type_info const*, void**) const)
/home/leon/riotboard/arm-2012.09/bin/../arm-none-eabi/lib//libstdc++.a(vterminate.o)
                              /home/leon/riotboard/arm-2012.09/bin/../arm-none-eabi/lib//libstdc++.a(eh_term_handler.o) (__gnu_cxx::__verbose_terminate_handler())
/home/leon/riotboard/arm-2012.09/bin/../arm-none-eabi/lib//libstdc++.a(cp-demangle.o)
                              /home/leon/riotboard/arm-2012.09/bin/../arm-none-eabi/lib//libstdc++.a(vterminate.o) (__cxa_demangle)
/home/leon/riotboard/arm-2012.09/bin/../arm-none-eabi/lib//libstdc++.a(eh_type.o)
                              /home/leon/riotboard/arm-2012.09/bin/../arm-none-eabi/lib//libstdc++.a(vterminate.o) (__cxa_current_exception_type)
/home/leon/riotboard/arm-2012.09/bin/../arm-none-eabi/lib//libstdc++.a(del_op.o)
                              /home/leon/riotboard/arm-2012.09/bin/../arm-none-eabi/lib//libstdc++.a(eh_exception.o) (operator delete(void*))
/home/leon/riotboard/arm-2012.09/bin/../arm-none-eabi/lib//libstdc++.a(tinfo.o)
                              /home/leon/riotboard/arm-2012.09/bin/../arm-none-eabi/lib//libstdc++.a(class_type_info.o) (std::type_info::~type_info())
/home/leon/riotboard/arm-2012.09/bin/../arm-none-eabi/lib//libc.a(lib_a-fwrite.o)
                              /home/leon/riotboard/arm-2012.09/bin/../arm-none-eabi/lib//libstdc++.a(vterminate.o) (fwrite)
/home/leon/riotboard/arm-2012.09/bin/../arm-none-eabi/lib//libc.a(lib_a-memcmp.o)
                              /home/leon/riotboard/arm-2012.09/bin/../arm-none-eabi/lib//libstdc++.a(cp-demangle.o) (memcmp)
/home/leon/riotboard/arm-2012.09/bin/../arm-none-eabi/lib//libc.a(lib_a-strncmp.o)
                              /home/leon/riotboard/arm-2012.09/bin/../arm-none-eabi/lib//libstdc++.a(cp-demangle.o) (strncmp)
/home/leon/riotboard/arm-2012.09/bin/../arm-none-eabi/lib//libc.a(lib_a-syswrite.o)
                              /home/leon/riotboard/arm-2012.09/bin/../arm-none-eabi/lib//libstdc++.a(pure.o) (write)
/home/leon/riotboard/arm-2012.09/bin/../lib/gcc/arm-none-eabi/4.7.2//libgcc.a(_divsi3.o)
                              /home/leon/git/swp-report/iMX6_Platform_SDK/output/mx6sdl/lib/libsdk.a(ipu_common.o) (__aeabi_idiv)
/home/leon/riotboard/arm-2012.09/bin/../lib/gcc/arm-none-eabi/4.7.2//libgcc.a(unwind-arm.o)
                              /home/leon/riotboard/arm-2012.09/bin/../arm-none-eabi/lib//libstdc++.a(eh_throw.o) (__aeabi_unwind_cpp_pr0)
/home/leon/riotboard/arm-2012.09/bin/../lib/gcc/arm-none-eabi/4.7.2//libgcc.a(libunwind.o)
                              /home/leon/riotboard/arm-2012.09/bin/../lib/gcc/arm-none-eabi/4.7.2//libgcc.a(unwind-arm.o) (restore_core_regs)
/home/leon/riotboard/arm-2012.09/bin/../lib/gcc/arm-none-eabi/4.7.2//libgcc.a(pr-support.o)
                              /home/leon/riotboard/arm-2012.09/bin/../lib/gcc/arm-none-eabi/4.7.2//libgcc.a(unwind-arm.o) (__gnu_unwind_execute)

Allocating common symbols
Common symbol       size              file

errno               0x4               /home/leon/riotboard/arm-2012.09/bin/../arm-none-eabi/lib//libc.a(lib_a-reent.o)

Discarded input sections

 .group         0x00000000        0x8 /home/leon/git/swp-report/iMX6_Platform_SDK/output/mx6sdl/lib/libsdk.a(pmu_driver.o)
 .group         0x00000000        0x8 /home/leon/git/swp-report/iMX6_Platform_SDK/output/mx6sdl/lib/libsdk.a(pmu_driver.o)
 .group         0x00000000        0x8 /home/leon/git/swp-report/iMX6_Platform_SDK/output/mx6sdl/lib/libsdk.a(pmu_driver.o)
 .group         0x00000000        0x8 /home/leon/git/swp-report/iMX6_Platform_SDK/output/mx6sdl/lib/libsdk.a(pmu_driver.o)
 .group         0x00000000        0x8 /home/leon/git/swp-report/iMX6_Platform_SDK/output/mx6sdl/lib/libsdk.a(pmu_driver.o)
 .group         0x00000000        0x8 /home/leon/git/swp-report/iMX6_Platform_SDK/output/mx6sdl/lib/libsdk.a(pmu_driver.o)
 .group         0x00000000        0x8 /home/leon/git/swp-report/iMX6_Platform_SDK/output/mx6sdl/lib/libsdk.a(pmu_driver.o)
 .group         0x00000000        0x8 /home/leon/git/swp-report/iMX6_Platform_SDK/output/mx6sdl/lib/libsdk.a(pmu_driver.o)
 .group         0x00000000        0x8 /home/leon/git/swp-report/iMX6_Platform_SDK/output/mx6sdl/lib/libsdk.a(pmu_driver.o)
 .group         0x00000000        0x8 /home/leon/git/swp-report/iMX6_Platform_SDK/output/mx6sdl/lib/libsdk.a(pmu_driver.o)
 .group         0x00000000        0x8 /home/leon/git/swp-report/iMX6_Platform_SDK/output/mx6sdl/lib/libsdk.a(pmu_driver.o)
 .group         0x00000000        0x8 /home/leon/git/swp-report/iMX6_Platform_SDK/output/mx6sdl/lib/libsdk.a(pmu_driver.o)
 .group         0x00000000        0x8 /home/leon/git/swp-report/iMX6_Platform_SDK/output/mx6sdl/lib/libsdk.a(pmu_driver.o)
 .group         0x00000000        0x8 /home/leon/git/swp-report/iMX6_Platform_SDK/output/mx6sdl/lib/libsdk.a(pmu_driver.o)
 .group         0x00000000        0x8 /home/leon/git/swp-report/iMX6_Platform_SDK/output/mx6sdl/lib/libsdk.a(pmu_driver.o)
 .group         0x00000000        0x8 /home/leon/git/swp-report/iMX6_Platform_SDK/output/mx6sdl/lib/libsdk.a(pmu_driver.o)
 .group         0x00000000        0x8 /home/leon/git/swp-report/iMX6_Platform_SDK/output/mx6sdl/lib/libsdk.a(pmu_driver.o)
 .group         0x00000000        0x8 /home/leon/git/swp-report/iMX6_Platform_SDK/output/mx6sdl/lib/libsdk.a(pmu_driver.o)
 .group         0x00000000        0x8 /home/leon/git/swp-report/iMX6_Platform_SDK/output/mx6sdl/lib/libsdk.a(pmu_driver.o)
 .group         0x00000000        0x8 /home/leon/git/swp-report/iMX6_Platform_SDK/output/mx6sdl/lib/libsdk.a(pmu_driver.o)
 .group         0x00000000        0x8 /home/leon/git/swp-report/iMX6_Platform_SDK/output/mx6sdl/lib/libsdk.a(pmu_driver.o)
 .group         0x00000000        0x8 /home/leon/git/swp-report/iMX6_Platform_SDK/output/mx6sdl/lib/libsdk.a(pmu_driver.o)
 .group         0x00000000        0x8 /home/leon/git/swp-report/iMX6_Platform_SDK/output/mx6sdl/lib/libsdk.a(pmu_driver.o)
 .group         0x00000000        0x8 /home/leon/git/swp-report/iMX6_Platform_SDK/output/mx6sdl/lib/libsdk.a(pmu_driver.o)
 .group         0x00000000        0x8 /home/leon/git/swp-report/iMX6_Platform_SDK/output/mx6sdl/lib/libsdk.a(pmu_driver.o)
 .group         0x00000000        0x8 /home/leon/git/swp-report/iMX6_Platform_SDK/output/mx6sdl/lib/libsdk.a(pmu_driver.o)
 .group         0x00000000        0x8 /home/leon/git/swp-report/iMX6_Platform_SDK/output/mx6sdl/lib/libsdk.a(pmu_driver.o)
 .group         0x00000000        0x8 /home/leon/git/swp-report/iMX6_Platform_SDK/output/mx6sdl/lib/libsdk.a(pmu_driver.o)
 .group         0x00000000        0x8 /home/leon/git/swp-report/iMX6_Platform_SDK/output/mx6sdl/lib/libsdk.a(pmu_driver.o)
 .group         0x00000000        0x8 /home/leon/git/swp-report/iMX6_Platform_SDK/output/mx6sdl/lib/libsdk.a(pmu_driver.o)
 .group         0x00000000        0x8 /home/leon/git/swp-report/iMX6_Platform_SDK/output/mx6sdl/lib/libsdk.a(pmu_driver.o)
 .group         0x00000000        0x8 /home/leon/git/swp-report/iMX6_Platform_SDK/output/mx6sdl/lib/libsdk.a(pmu_driver.o)
 .group         0x00000000        0x8 /home/leon/git/swp-report/iMX6_Platform_SDK/output/mx6sdl/lib/libsdk.a(pmu_driver.o)
 .group         0x00000000        0x8 /home/leon/git/swp-report/iMX6_Platform_SDK/output/mx6sdl/lib/libsdk.a(pmu_driver.o)
 .group         0x00000000        0x8 /home/leon/git/swp-report/iMX6_Platform_SDK/output/mx6sdl/lib/libsdk.a(pmu_driver.o)
 .group         0x00000000        0x8 /home/leon/git/swp-report/iMX6_Platform_SDK/output/mx6sdl/lib/libsdk.a(pmu_driver.o)
 .group         0x00000000        0x8 /home/leon/git/swp-report/iMX6_Platform_SDK/output/mx6sdl/lib/libsdk.a(pmu_driver.o)
 .group         0x00000000        0x8 /home/leon/git/swp-report/iMX6_Platform_SDK/output/mx6sdl/lib/libsdk.a(pmu_driver.o)
 .group         0x00000000        0x8 /home/leon/git/swp-report/iMX6_Platform_SDK/output/mx6sdl/lib/libsdk.a(pmu_driver.o)

Memory Configuration

Name             Origin             Length             Attributes
OCRAM            0x00900000         0x00020000         xrw
DDR              0x10000000         0x40000000         xrw
*default*        0x00000000         0xffffffff

Linker script and memory map

LOAD /home/leon/riotboard/arm-2012.09/bin/../lib/gcc/arm-none-eabi/4.7.2//crtbegin.o
LOAD /home/leon/riotboard/arm-2012.09/bin/../lib/gcc/arm-none-eabi/4.7.2//crti.o
LOAD /home/leon/riotboard/arm-2012.09/bin/../lib/gcc/arm-none-eabi/4.7.2//crtend.o
LOAD /home/leon/riotboard/arm-2012.09/bin/../lib/gcc/arm-none-eabi/4.7.2//crtn.o

.l1_page_table  0x00900000     0x4000
                0x00900000                __l1_page_table_start = .
                0x00904000                . = (. + 0x4000)
 *fill*         0x00900000     0x4000 

.heap.ocram     0x00904000    0x1bfb8
                0x00904000                __heap_ocram_start = .
                0x0091ffb8                . = (. + 0x1bfb8)
 *fill*         0x00904000    0x1bfb8 
                0x0091ffb8                __heap_ocram_end = .

.ram_vectors    0x0091ffb8       0x48
                0x0091ffb8                __ram_vectors_start = .
                0x00920000                . = (. + 0x48)
 *fill*         0x0091ffb8       0x48 
                0x00920000                __ram_vectors_end = .
                0x10000000                _start_image_add = ORIGIN (DDR)

.ivt            0x10000000      0x420
                0x10000400                . = (. + 0x400)
 *fill*         0x10000000      0x400 
 *(.ivt)
 .ivt           0x10000400       0x20 /home/leon/git/swp-report/iMX6_Platform_SDK/output/mx6sdl/sdk_unit_test/smart_device_rev_a/obj/apps/common/ivt.o
                0x10000400                input_ivt

.boot_data      0x10000420        0xc
                0x10000420                __start_boot_data = .
 *(.boot_data)
 .boot_data     0x10000420        0xc /home/leon/git/swp-report/iMX6_Platform_SDK/output/mx6sdl/sdk_unit_test/smart_device_rev_a/obj/apps/common/ivt.o
                0x10000420                bd

.dcd_hdr        0x10000430        0x4
                0x10000430                __start_dcd = .
 *(.dcd_hdr)
 .dcd_hdr       0x10000430        0x4 /home/leon/git/swp-report/iMX6_Platform_SDK/output/mx6sdl/lib/libboard_smart_device_rev_a.a(dcd.o)
                0x10000430                input_dcd_hdr

.dcd_wrt_cmd    0x10000434        0x4
 *(.dcd_wrt_cmd)
 .dcd_wrt_cmd   0x10000434        0x4 /home/leon/git/swp-report/iMX6_Platform_SDK/output/mx6sdl/lib/libboard_smart_device_rev_a.a(dcd.o)
                0x10000434                input_dcd_wrt_cmd

.dcd_data       0x10000438      0x298
 *(.dcd_data)
 .dcd_data      0x10000438      0x298 /home/leon/git/swp-report/iMX6_Platform_SDK/output/mx6sdl/lib/libboard_smart_device_rev_a.a(dcd.o)
                0x10000438                input_dcd

.text           0x100006d0    0x64f28
 CREATE_OBJECT_SYMBOLS
 *(.startup)
 .startup       0x100006d0      0x138 /home/leon/git/swp-report/iMX6_Platform_SDK/output/mx6sdl/lib/libsdk.a(startup.o)
                0x100006d0                _start
 *(.text .text.* .gnu.linkonce.t.*)
 .text          0x10000808      0x128 /home/leon/riotboard/arm-2012.09/bin/../lib/gcc/arm-none-eabi/4.7.2//crtbegin.o
 .text          0x10000930        0x0 /home/leon/riotboard/arm-2012.09/bin/../lib/gcc/arm-none-eabi/4.7.2//crti.o
 .text          0x10000930        0x0 /home/leon/riotboard/arm-2012.09/bin/../lib/gcc/arm-none-eabi/4.7.2//crtend.o
 .text          0x10000930        0x0 /home/leon/riotboard/arm-2012.09/bin/../lib/gcc/arm-none-eabi/4.7.2//crtn.o
 .text          0x10000930        0x0 /home/leon/git/swp-report/iMX6_Platform_SDK/output/mx6sdl/sdk_unit_test/smart_device_rev_a/obj/apps/common/ivt.o
 .text          0x10000930       0xbc /home/leon/git/swp-report/iMX6_Platform_SDK/output/mx6sdl/sdk_unit_test/smart_device_rev_a/obj/apps/common/platform_init.o
                0x10000930                platform_init
 .text          0x100009ec       0xfc /home/leon/git/swp-report/iMX6_Platform_SDK/output/mx6sdl/sdk_unit_test/smart_device_rev_a/obj/apps/common/print_clock_info.o
                0x100009ec                show_freq
                0x10000ad8                show_ddr_config
 .text          0x10000ae8      0x15c /home/leon/git/swp-report/iMX6_Platform_SDK/output/mx6sdl/sdk_unit_test/smart_device_rev_a/obj/apps/common/print_version.o
                0x10000ae8                print_version
 .text          0x10000c44       0x50 /home/leon/git/swp-report/iMX6_Platform_SDK/output/mx6sdl/sdk_unit_test/smart_device_rev_a/obj/apps/sdk_unit_test/src/all_test.o
                0x10000c44                run_test
                0x10000c78                ALL_test
 .text          0x10000c94       0x2c /home/leon/git/swp-report/iMX6_Platform_SDK/output/mx6sdl/sdk_unit_test/smart_device_rev_a/obj/apps/sdk_unit_test/src/unit_test_main.o
                0x10000c94                main
 .text          0x10000cc0      0xc64 /home/leon/git/swp-report/iMX6_Platform_SDK/output/mx6sdl/lib/libsdk.a(ccm_pll.o)
                0x10000cc0                ccm_init
                0x10000de4                get_main_clock
                0x10001074                get_peri_clock
                0x10001224                ccm_ccgr_config
                0x1000128c                clock_gating_config
                0x100016c4                ccm_set_lpm_wakeup_source
                0x100017b8                ccm_enter_low_power
                0x10001828                ipu_hsp_clk_config
                0x10001848                gpu_clock_config
 .text          0x10001924      0x164 /home/leon/git/swp-report/iMX6_Platform_SDK/output/mx6sdl/lib/libsdk.a(cortexA9.o)
                0x10001924                arm_set_interrupt_state
                0x10001948                cpu_get_current
                0x10001954                enable_neon_fpu
                0x10001970                disable_strict_align_check
                0x10001984                disable_L1_cache
                0x100019a4                get_arm_private_peripheral_base
                0x100019ac                arm_unified_tlb_invalidate
                0x100019bc                arm_unified_tlb_invalidate_is
                0x100019cc                arm_branch_prediction_enable
                0x100019dc                arm_branch_prediction_disable
                0x100019ec                arm_branch_target_cache_invalidate
                0x100019f8                arm_branch_target_cache_invalidate_is
                0x10001a04                scu_enable
                0x10001a18                scu_join_smp
                0x10001a28                scu_leave_smp
                0x10001a38                scu_get_cpus_in_smp
                0x10001a4c                scu_enable_maintenance_broadcast
                0x10001a5c                scu_disable_maintenance_broadcast
                0x10001a6c                scu_secure_invalidate
 .text          0x10001a88      0x5e0 /home/leon/git/swp-report/iMX6_Platform_SDK/output/mx6sdl/lib/libsdk.a(gic.o)
                0x10001b6c                gic_enable
                0x10001bcc                gic_set_irq_security
                0x10001c74                gic_enable_irq
                0x10001cf0                gic_set_irq_priority
                0x10001d38                gic_set_cpu_target
                0x10001e44                gic_send_sgi
                0x10001e98                gic_cpu_enable
                0x10001ef8                gic_set_cpu_priority_mask
                0x10001f2c                gic_read_irq_ack
                0x10001f58                gic_write_end_of_irq
                0x10001f88                gic_init
                0x1000202c                gic_init_cpu
 .text          0x10002068      0x460 /home/leon/git/swp-report/iMX6_Platform_SDK/output/mx6sdl/lib/libsdk.a(mmu.o)
                0x10002068                mmu_enable
                0x100020a0                mmu_disable
                0x100020d4                mmu_init
                0x100021f0                mmu_map_l1_range
                0x10002408                mmu_virtual_to_physical
 .text          0x100024c8        0x0 /home/leon/git/swp-report/iMX6_Platform_SDK/output/mx6sdl/lib/libsdk.a(startup.o)
 .text          0x100024c8        0x4 /home/leon/git/swp-report/iMX6_Platform_SDK/output/mx6sdl/lib/libsdk.a(vectors.o)
                0x100024c8                exception_handler
 .text.vectors  0x100024cc       0x48 /home/leon/git/swp-report/iMX6_Platform_SDK/output/mx6sdl/lib/libsdk.a(vectors.o)
                0x100024cc                vectors
 .text          0x10002514      0xc78 /home/leon/git/swp-report/iMX6_Platform_SDK/output/mx6sdl/lib/libsdk.a(menu.o)
                0x100029bc                menu_get_indent
                0x100029d8                menuitem_cmd_showmenu
                0x100029fc                menuitem_cmd_exitmenu
                0x10002a20                menu_append_menuitems
                0x10002b40                menu_present
                0x100030dc                menu_print_menuitem
 .text          0x1000318c        0x0 /home/leon/git/swp-report/iMX6_Platform_SDK/output/mx6sdl/lib/libsdk.a(sdk_version.o)
 .text          0x1000318c      0x914 /home/leon/git/swp-report/iMX6_Platform_SDK/output/mx6sdl/lib/libsdk.a(system_util.o)
                0x1000318c                _sys_exit
                0x100031a8                mybkpt
                0x100031b0                is_input_char
                0x10003330                read_input_string
                0x10003618                get_input_hex
                0x10003898                read_int
                0x100039fc                jump_to_sdp
 .text          0x10003aa0       0xe0 /home/leon/git/swp-report/iMX6_Platform_SDK/output/mx6sdl/lib/libsdk.a(text_color.o)
                0x10003aa0                printf_color
                0x10003b3c                get_color_supported
 .text          0x10003b80      0x7c4 /home/leon/git/swp-report/iMX6_Platform_SDK/output/mx6sdl/lib/libsdk.a(board_id.o)
                0x10003b80                chip_name
                0x10003c98                chip_revision
                0x10003d70                board_name
                0x10003e74                board_revision
                0x10003f3c                board_description
                0x1000405c                get_board_id
                0x10004138                show_board_id
 .text          0x10004344      0x290 /home/leon/git/swp-report/iMX6_Platform_SDK/output/mx6sdl/lib/libsdk.a(timer.o)
                0x10004344                hal_delay_us
                0x100043b4                system_time_init
                0x10004514                time_get_microseconds
 .text          0x100045d4     0x2820 /home/leon/git/swp-report/iMX6_Platform_SDK/output/mx6sdl/lib/libsdk.a(imx_uart.o)
                0x100045d4                uart_get_reffreq
                0x100046d0                uart_putchar
                0x10004820                uart_getchar
                0x10004980                uart_set_FIFO_mode
                0x100054ac                uart_set_loopback_mode
                0x10005700                uart_setup_interrupt
                0x100057cc                uart_init
 .text          0x10006df4       0x98 /home/leon/git/swp-report/iMX6_Platform_SDK/output/mx6sdl/lib/libsdk.a(arm_abort.o)
                0x10006df4                common_abort_handler
                0x10006e54                data_abort_handler
                0x10006e6c                prefetch_abort_handler
 .text          0x10006e8c      0x1bc /home/leon/git/swp-report/iMX6_Platform_SDK/output/mx6sdl/lib/libsdk.a(interrupt.o)
                0x10006e8c                IRQ_HDLR
                0x10006f54                disable_interrupt
                0x10006f90                enable_interrupt
                0x10006fe8                register_interrupt_routine
                0x1000701c                default_interrupt_routine
 .text          0x10007048      0x8e0 /home/leon/git/swp-report/iMX6_Platform_SDK/output/mx6sdl/lib/libsdk.a(epit.o)
                0x10007048                epit_reload_counter
                0x100070a8                epit_get_counter_value
                0x10007104                epit_set_compare_event
                0x10007164                epit_get_compare_event
                0x1000725c                epit_counter_disable
                0x10007420                epit_counter_enable
                0x1000767c                epit_setup_interrupt
                0x1000770c                epit_init
 .text          0x10007928      0x4bc /home/leon/git/swp-report/iMX6_Platform_SDK/output/mx6sdl/lib/libsdk.a(abort_handler.o)
                0x10007928                dump_regs
 .text          0x10007de4       0x20 /home/leon/git/swp-report/iMX6_Platform_SDK/output/mx6sdl/lib/libboard_smart_device_rev_a.a(board_io_expanders.o)
                0x10007de4                board_ioexpander_init
                0x10007df4                board_ioexpander_iomux_config
 .text          0x10007e04        0x0 /home/leon/git/swp-report/iMX6_Platform_SDK/output/mx6sdl/lib/libboard_smart_device_rev_a.a(hardware_modules.o)
 .text          0x10007e04        0x0 /home/leon/git/swp-report/iMX6_Platform_SDK/output/mx6sdl/lib/libboard_smart_device_rev_a.a(dcd.o)
 .text          0x10007e04       0x90 /home/leon/git/swp-report/iMX6_Platform_SDK/output/mx6sdl/lib/libboard_smart_device_rev_a.a(uart_iomux_config.o)
                0x10007e04                uart_iomux_config
 .text          0x10007e94      0x2f8 /home/leon/git/swp-report/iMX6_Platform_SDK/output/mx6sdl/lib/libboard_smart_device_rev_a.a(iomux_config.o)
                0x10007e94                iomux_config
                0x10007f0c                arm_iomux_config
                0x10007f1c                asrc_iomux_config
                0x10007f2c                dcic1_iomux_config
                0x10007f3c                dcic2_iomux_config
                0x10007f4c                ecspi2_iomux_config
                0x10007f5c                ecspi3_iomux_config
                0x10007f6c                ecspi4_iomux_config
                0x10007f7c                eim_iomux_config
                0x10007f8c                epit1_iomux_config
                0x10007f9c                epit2_iomux_config
                0x10007fac                esai_iomux_config
                0x10007fbc                flexcan2_iomux_config
                0x10007fcc                gpmi_iomux_config
                0x10007fdc                gpt_iomux_config
                0x10007fec                hdmi_iomux_config
                0x10007ffc                i2c4_iomux_config
                0x1000800c                lcd_iomux_config
                0x1000801c                ldb_iomux_config
                0x1000802c                mipi_csi_iomux_config
                0x1000803c                mipi_dsi_iomux_config
                0x1000804c                mipi_hsi_iomux_config
                0x1000805c                mlb_iomux_config
                0x1000806c                pcie_iomux_config
                0x1000807c                pmu_iomux_config
                0x1000808c                pwm2_iomux_config
                0x1000809c                pwm3_iomux_config
                0x100080ac                pwm4_iomux_config
                0x100080bc                sdma_iomux_config
                0x100080cc                snvs_iomux_config
                0x100080dc                spdif_iomux_config
                0x100080ec                src_iomux_config
                0x100080fc                uart2_iomux_config
                0x1000810c                uart3_iomux_config
                0x1000811c                uart4_iomux_config
                0x1000812c                uart5_iomux_config
                0x1000813c                usb_iomux_config
                0x1000814c                usdhc1_iomux_config
                0x1000815c                wdog1_iomux_config
                0x1000816c                wdog2_iomux_config
                0x1000817c                xtalosc_iomux_config
 .text          0x1000818c      0x5b0 /home/leon/git/swp-report/iMX6_Platform_SDK/output/mx6sdl/lib/libboard_smart_device_rev_a.a(ipu1_iomux_config.o)
                0x1000818c                ipu1_iomux_config
 .text          0x1000873c      0x190 /home/leon/git/swp-report/iMX6_Platform_SDK/output/mx6sdl/lib/libboard_smart_device_rev_a.a(kpp_iomux_config.o)
                0x1000873c                kpp_iomux_config
 .text          0x100088cc     0x2484 /home/leon/git/swp-report/iMX6_Platform_SDK/output/mx6sdl/lib/libboard_smart_device_rev_a.a(mmdc_iomux_config.o)
                0x100088cc                mmdc_iomux_config
 .text          0x1000ad50       0x34 /home/leon/git/swp-report/iMX6_Platform_SDK/output/mx6sdl/lib/libboard_smart_device_rev_a.a(pwm1_iomux_config.o)
                0x1000ad50                pwm1_iomux_config
 .text          0x1000ad84       0x70 /home/leon/git/swp-report/iMX6_Platform_SDK/output/mx6sdl/lib/libboard_smart_device_rev_a.a(sjc_iomux_config.o)
                0x1000ad84                sjc_iomux_config
 .text          0x1000adf4       0x78 /home/leon/git/swp-report/iMX6_Platform_SDK/output/mx6sdl/lib/libboard_smart_device_rev_a.a(uart1_iomux_config.o)
                0x1000adf4                uart1_iomux_config
 .text          0x1000ae6c      0x188 /home/leon/git/swp-report/iMX6_Platform_SDK/output/mx6sdl/lib/libboard_smart_device_rev_a.a(usdhc2_iomux_config.o)
                0x1000ae6c                usdhc2_iomux_config
 .text          0x1000aff4      0x188 /home/leon/git/swp-report/iMX6_Platform_SDK/output/mx6sdl/lib/libboard_smart_device_rev_a.a(usdhc3_iomux_config.o)
                0x1000aff4                usdhc3_iomux_config
 .text          0x1000b17c      0x188 /home/leon/git/swp-report/iMX6_Platform_SDK/output/mx6sdl/lib/libboard_smart_device_rev_a.a(usdhc4_iomux_config.o)
                0x1000b17c                usdhc4_iomux_config
 .text          0x1000b304       0xa0 /home/leon/git/swp-report/iMX6_Platform_SDK/output/mx6sdl/lib/libboard_smart_device_rev_a.a(audmux_iomux_config.o)
                0x1000b304                audmux_iomux_config
 .text          0x1000b3a4       0x34 /home/leon/git/swp-report/iMX6_Platform_SDK/output/mx6sdl/lib/libboard_smart_device_rev_a.a(ccm_iomux_config.o)
                0x1000b3a4                ccm_iomux_config
 .text          0x1000b3d8       0xe0 /home/leon/git/swp-report/iMX6_Platform_SDK/output/mx6sdl/lib/libboard_smart_device_rev_a.a(ecspi1_iomux_config.o)
                0x1000b3d8                ecspi1_iomux_config
 .text          0x1000b4b8      0x3bc /home/leon/git/swp-report/iMX6_Platform_SDK/output/mx6sdl/lib/libboard_smart_device_rev_a.a(enet_iomux_config.o)
                0x1000b4b8                enet_iomux_config
 .text          0x1000b874      0x66c /home/leon/git/swp-report/iMX6_Platform_SDK/output/mx6sdl/lib/libboard_smart_device_rev_a.a(epdc_iomux_config.o)
                0x1000b874                epdc_iomux_config
 .text          0x1000bee0       0x68 /home/leon/git/swp-report/iMX6_Platform_SDK/output/mx6sdl/lib/libboard_smart_device_rev_a.a(flexcan1_iomux_config.o)
                0x1000bee0                flexcan1_iomux_config
 .text          0x1000bf48      0x274 /home/leon/git/swp-report/iMX6_Platform_SDK/output/mx6sdl/lib/libboard_smart_device_rev_a.a(gpio1_iomux_config.o)
                0x1000bf48                gpio1_iomux_config
 .text          0x1000c1bc      0x164 /home/leon/git/swp-report/iMX6_Platform_SDK/output/mx6sdl/lib/libboard_smart_device_rev_a.a(gpio2_iomux_config.o)
                0x1000c1bc                gpio2_iomux_config
 .text          0x1000c320      0x258 /home/leon/git/swp-report/iMX6_Platform_SDK/output/mx6sdl/lib/libboard_smart_device_rev_a.a(gpio3_iomux_config.o)
                0x1000c320                gpio3_iomux_config
 .text          0x1000c578       0xa0 /home/leon/git/swp-report/iMX6_Platform_SDK/output/mx6sdl/lib/libboard_smart_device_rev_a.a(gpio4_iomux_config.o)
                0x1000c578                gpio4_iomux_config
 .text          0x1000c618       0x50 /home/leon/git/swp-report/iMX6_Platform_SDK/output/mx6sdl/lib/libboard_smart_device_rev_a.a(gpio5_iomux_config.o)
                0x1000c618                gpio5_iomux_config
 .text          0x1000c668      0x150 /home/leon/git/swp-report/iMX6_Platform_SDK/output/mx6sdl/lib/libboard_smart_device_rev_a.a(gpio6_iomux_config.o)
                0x1000c668                gpio6_iomux_config
 .text          0x1000c7b8       0x7c /home/leon/git/swp-report/iMX6_Platform_SDK/output/mx6sdl/lib/libboard_smart_device_rev_a.a(gpio7_iomux_config.o)
                0x1000c7b8                gpio7_iomux_config
 .text          0x1000c834       0xdc /home/leon/git/swp-report/iMX6_Platform_SDK/output/mx6sdl/lib/libboard_smart_device_rev_a.a(gps_iomux_config.o)
                0x1000c834                gps_iomux_config
 .text          0x1000c910       0x78 /home/leon/git/swp-report/iMX6_Platform_SDK/output/mx6sdl/lib/libboard_smart_device_rev_a.a(i2c1_iomux_config.o)
                0x1000c910                i2c1_iomux_config
 .text          0x1000c988       0x78 /home/leon/git/swp-report/iMX6_Platform_SDK/output/mx6sdl/lib/libboard_smart_device_rev_a.a(i2c2_iomux_config.o)
                0x1000c988                i2c2_iomux_config
 .text          0x1000ca00       0x78 /home/leon/git/swp-report/iMX6_Platform_SDK/output/mx6sdl/lib/libboard_smart_device_rev_a.a(i2c3_iomux_config.o)
                0x1000ca00                i2c3_iomux_config
 .text          0x1000ca78      0x1fc /home/leon/git/swp-report/iMX6_Platform_SDK/output/mx6sdl/sdk_unit_test/smart_device_rev_a/libsdk_unit_test.a(cpu_wp_test.o)
                0x1000ca78                my_memcpy
                0x1000cab4                memcpy_perf_record
                0x1000cb9c                cpu_wp_test
 .text          0x1000cc74      0x20c /home/leon/git/swp-report/iMX6_Platform_SDK/output/mx6sdl/sdk_unit_test/smart_device_rev_a/libsdk_unit_test.a(multicore_test.o)
                0x1000cc74                SGI3_ISR
                0x1000cd10                multicore_entry
                0x1000ce68                multicore_test
 .text          0x1000ce80      0x2d0 /home/leon/git/swp-report/iMX6_Platform_SDK/output/mx6sdl/sdk_unit_test/smart_device_rev_a/libsdk_unit_test.a(audio_test.o)
                0x1000ce80                audio_test
 .text          0x1000d150        0x0 /home/leon/git/swp-report/iMX6_Platform_SDK/output/mx6sdl/sdk_unit_test/smart_device_rev_a/libsdk_unit_test.a(wav_file.o)
 .text          0x1000d150       0xc4 /home/leon/git/swp-report/iMX6_Platform_SDK/output/mx6sdl/sdk_unit_test/smart_device_rev_a/libsdk_unit_test.a(gic_test.o)
                0x1000d150                gic_sgi_test_handler
                0x1000d17c                gic_test
 .text          0x1000d214      0x3ec /home/leon/git/swp-report/iMX6_Platform_SDK/output/mx6sdl/sdk_unit_test/smart_device_rev_a/libsdk_unit_test.a(ocotp_test.o)
                0x1000d214                ocotp_test
 .text          0x1000d600      0x340 /home/leon/git/swp-report/iMX6_Platform_SDK/output/mx6sdl/sdk_unit_test/smart_device_rev_a/libsdk_unit_test.a(snvs_rtc_test.o)
                0x1000d600                one_time_tick_callback
                0x1000d62c                periodic_tick_callback
                0x1000d67c                one_time_timer_test
                0x1000d744                periodic_timer_test
                0x1000d818                snvs_rtc_test
 .text          0x1000d940      0x1fc /home/leon/git/swp-report/iMX6_Platform_SDK/output/mx6sdl/sdk_unit_test/smart_device_rev_a/libsdk_unit_test.a(snvs_srtc_test.o)
                0x1000d940                srtc_one_time_tick_callback
                0x1000d96c                srtc_one_time_timer_test
                0x1000da30                snvs_srtc_test
 .text          0x1000db3c      0x128 /home/leon/git/swp-report/iMX6_Platform_SDK/output/mx6sdl/sdk_unit_test/smart_device_rev_a/libsdk_unit_test.a(i2c_test.o)
                0x1000db3c                i2c_test
 .text          0x1000dc64      0x884 /home/leon/git/swp-report/iMX6_Platform_SDK/output/mx6sdl/sdk_unit_test/smart_device_rev_a/libsdk_unit_test.a(imx6_i2c_device.o)
                0x1000dc64                imx6_slave_receive
                0x1000dd9c                imx6_slave_transmit
                0x1000df88                i2c_imx6_slave_test
 .text          0x1000e4e8      0x290 /home/leon/git/swp-report/iMX6_Platform_SDK/output/mx6sdl/sdk_unit_test/smart_device_rev_a/libsdk_unit_test.a(tempmon_test.o)
                0x1000e4e8                over_temp_callback
                0x1000e51c                print_current_temp
                0x1000e554                tempmon_test
 .text          0x1000e778      0x1f4 /home/leon/git/swp-report/iMX6_Platform_SDK/output/mx6sdl/sdk_unit_test/smart_device_rev_a/libsdk_unit_test.a(sdma_test.o)
                0x1000e778                sdma_test
 .text          0x1000e96c      0xa1c /home/leon/git/swp-report/iMX6_Platform_SDK/output/mx6sdl/sdk_unit_test/smart_device_rev_a/libsdk_unit_test.a(spi_lpb.o)
                0x1000ea6c                ecspi_app_test
                0x1000eefc                ecspi_shp_test
 .text          0x1000f388      0xfbc /home/leon/git/swp-report/iMX6_Platform_SDK/output/mx6sdl/sdk_unit_test/smart_device_rev_a/libsdk_unit_test.a(uart_loopback.o)
                0x1000f594                uart_app_test
                0x1000fa10                uart_shp_test
                0x1000fe9c                uart5_trans_isr
                0x1000fed8                uart_app_interrupt_test
 .text          0x10010344      0x24c /home/leon/git/swp-report/iMX6_Platform_SDK/output/mx6sdl/sdk_unit_test/smart_device_rev_a/libsdk_unit_test.a(uart_test.o)
                0x10010344                uart_interrupt_handler
                0x1001039c                uart_test
 .text          0x10010590      0x374 /home/leon/git/swp-report/iMX6_Platform_SDK/output/mx6sdl/sdk_unit_test/smart_device_rev_a/libsdk_unit_test.a(epit_test.o)
                0x10010590                epit_test
 .text          0x10010904      0x4fc /home/leon/git/swp-report/iMX6_Platform_SDK/output/mx6sdl/sdk_unit_test/smart_device_rev_a/libsdk_unit_test.a(gpt_test.o)
                0x10010904                gpt_test
                0x10010a2c                gpt_out_compare_test
                0x10010b84                gpt_interrupt_routine
                0x10010c18                gpt_in_capture_test
 .text          0x10010e00       0xb4 /home/leon/git/swp-report/iMX6_Platform_SDK/output/mx6sdl/sdk_unit_test/smart_device_rev_a/libsdk_unit_test.a(timer_test.o)
                0x10010e00                microseconds_test
 .text          0x10010eb4      0xcf4 /home/leon/git/swp-report/iMX6_Platform_SDK/output/mx6sdl/sdk_unit_test/smart_device_rev_a/libsdk_unit_test.a(usdhc_test.o)
                0x10010eb4                mmc_sd_test
                0x10010ee8                usdhc_test
 .text          0x10011ba8      0x244 /home/leon/git/swp-report/iMX6_Platform_SDK/output/mx6sdl/sdk_unit_test/smart_device_rev_a/libsdk_unit_test.a(watchdog_test.o)
                0x10011dc0                wdog_test
 .text          0x10011dec      0x1ec /home/leon/git/swp-report/iMX6_Platform_SDK/output/mx6sdl/sdk_unit_test/smart_device_rev_a/libsdk_unit_test.a(pwm_test.o)
                0x10011dec                pwm_test
 .text          0x10011fd8      0x82c /home/leon/git/swp-report/iMX6_Platform_SDK/output/mx6sdl/sdk_unit_test/smart_device_rev_a/libsdk_unit_test.a(hdmi_test.o)
                0x10011fd8                hdmi_test
                0x10012344                init_hdmi_interrupt
                0x100123f4                hdmi_tx_ISR
                0x10012484                hdmi_1080P60_video_output
                0x10012644                hdmi_720P60_video_output
 .text          0x10012804      0xb98 /home/leon/git/swp-report/iMX6_Platform_SDK/output/mx6sdl/sdk_unit_test/smart_device_rev_a/libsdk_unit_test.a(ips_display.o)
                0x10012804                ips_display_test
                0x10012940                ips_hdmi_stream
                0x10012aa0                ips_hdmi_720P60_stream
                0x10012d04                ips_hdmi_1080P60_stream
                0x10012efc                ips_ext_hdmi_transmitter_1080P60_stream
                0x100130bc                ips_hannstar_xga_yuv_stream
                0x100132fc                ips_mipi_wvga_rgb_stream
 .text          0x1001339c      0x238 /home/leon/git/swp-report/iMX6_Platform_SDK/output/mx6sdl/sdk_unit_test/smart_device_rev_a/libsdk_unit_test.a(ips_test.o)
                0x1001339c                ipu_test
 .text          0x100135d4      0x538 /home/leon/git/swp-report/iMX6_Platform_SDK/output/mx6sdl/sdk_unit_test/smart_device_rev_a/libsdk_unit_test.a(ipu_image.o)
                0x100135d4                load_centralized_image
                0x10013710                load_foreground_image
                0x1001375c                load_horiz_image
                0x100138cc                set_background_margin
                0x100139bc                load_vert_image
 .text          0x10013b0c      0x2b4 /home/leon/git/swp-report/iMX6_Platform_SDK/output/mx6sdl/sdk_unit_test/smart_device_rev_a/libsdk_unit_test.a(keypad_test.o)
                0x10013b0c                keypad_test
                0x10013c10                multiple_key_press_test
 .text          0x10013dc0      0x204 /home/leon/git/swp-report/iMX6_Platform_SDK/output/mx6sdl/sdk_unit_test/smart_device_rev_a/libsdk_unit_test.a(camera_test.o)
                0x10013dc0                camera_test
 .text          0x10013fc4      0x2f0 /home/leon/git/swp-report/iMX6_Platform_SDK/output/mx6sdl/sdk_unit_test/smart_device_rev_a/libsdk_unit_test.a(csi_test_mode.o)
                0x10013fc4                csi_test_mode
 .text          0x100142b4      0x2b8 /home/leon/git/swp-report/iMX6_Platform_SDK/output/mx6sdl/sdk_unit_test/smart_device_rev_a/libsdk_unit_test.a(sensor_capture.o)
                0x100142b4                sensor_capture
 .text          0x1001456c      0x758 /home/leon/git/swp-report/iMX6_Platform_SDK/output/mx6sdl/sdk_unit_test/smart_device_rev_a/libsdk_unit_test.a(pcie_test_rc.o)
                0x1001456c                pcie_test
 .text          0x10014cc4      0x194 /home/leon/git/swp-report/iMX6_Platform_SDK/output/mx6sdl/sdk_unit_test/smart_device_rev_a/libsdk_unit_test.a(usb_test.o)
                0x10014cc4                usb_test
 .text          0x10014e58      0x4d0 /home/leon/git/swp-report/iMX6_Platform_SDK/output/mx6sdl/sdk_unit_test/smart_device_rev_a/libsdk_unit_test.a(enet_test.o)
                0x10014ffc                enet_test
 .text          0x10015328      0x508 /home/leon/git/swp-report/iMX6_Platform_SDK/output/mx6sdl/sdk_unit_test/smart_device_rev_a/libsdk_unit_test.a(spi_test.o)
                0x1001563c                spi_test
 .text          0x10015830      0x368 /home/leon/git/swp-report/iMX6_Platform_SDK/output/mx6sdl/sdk_unit_test/smart_device_rev_a/libsdk_unit_test.a(accelerometer_test.o)
                0x10015830                accelerometer_test
 .text          0x10015b98      0x2ac /home/leon/git/swp-report/iMX6_Platform_SDK/output/mx6sdl/sdk_unit_test/smart_device_rev_a/libsdk_unit_test.a(at24cxx.o)
                0x10015c4c                i2c_eeprom_at24cxx_test
 .text          0x10015e44      0x404 /home/leon/git/swp-report/iMX6_Platform_SDK/output/mx6sdl/sdk_unit_test/smart_device_rev_a/libsdk_unit_test.a(mem_2_mem.o)
                0x10015e44                mem_2_mem_test
 .text          0x10016248      0x2f4 /home/leon/git/swp-report/iMX6_Platform_SDK/output/mx6sdl/sdk_unit_test/smart_device_rev_a/libsdk_unit_test.a(pwm_output.o)
                0x100162d4                pwm_output_test
 .text          0x1001653c      0x540 /home/leon/git/swp-report/iMX6_Platform_SDK/output/mx6sdl/sdk_unit_test/smart_device_rev_a/libsdk_unit_test.a(init_dma_data.o)
                0x1001653c                init_dma_data
 .text          0x10016a7c      0x37c /home/leon/git/swp-report/iMX6_Platform_SDK/output/mx6sdl/sdk_unit_test/smart_device_rev_a/libsdk_unit_test.a(ips_combiner.o)
                0x10016a7c                ips_combiner_test
 .text          0x10016df8      0x52c /home/leon/git/swp-report/iMX6_Platform_SDK/output/mx6sdl/sdk_unit_test/smart_device_rev_a/libsdk_unit_test.a(ips_csc.o)
                0x10016df8                ips_csc_test
 .text          0x10017324      0x738 /home/leon/git/swp-report/iMX6_Platform_SDK/output/mx6sdl/sdk_unit_test/smart_device_rev_a/libsdk_unit_test.a(ips_resize.o)
                0x10017324                ips_resize_test
 .text          0x10017a5c      0x3e8 /home/leon/git/swp-report/iMX6_Platform_SDK/output/mx6sdl/sdk_unit_test/smart_device_rev_a/libsdk_unit_test.a(ips_rotate.o)
                0x10017a5c                ips_rotate_test
 .text          0x10017e44     0x16bc /home/leon/git/swp-report/iMX6_Platform_SDK/output/mx6sdl/sdk_unit_test/smart_device_rev_a/libsdk_unit_test.a(usb0_device_mouse_test.o)
                0x10017e44                usb0_device_mouse_test
                0x10018ce4                hid_device_enum
                0x100192c4                fillBuffer
 .text          0x10019500     0x39f0 /home/leon/git/swp-report/iMX6_Platform_SDK/output/mx6sdl/sdk_unit_test/smart_device_rev_a/libsdk_unit_test.a(usb0_host_test.o)
                0x10019500                usb0_host_test
                0x1001a034                emuerateDevice
                0x1001a1b4                usbh_set_device_address
                0x1001a8dc                usbh_get_dev_desc
                0x1001b02c                usbh_get_config_desc
                0x1001b7bc                usbh_get_interface_desc
                0x1001c02c                usbh_set_configuration
                0x1001c768                usbh_get_report_desc
 .text          0x1001cef0      0x978 /home/leon/git/swp-report/iMX6_Platform_SDK/output/mx6sdl/sdk_unit_test/smart_device_rev_a/libsdk_unit_test.a(usb0_host_testmodes_test.o)
                0x1001cef0                usb0_host_testmodes_test
 .text          0x1001d868      0xb00 /home/leon/git/swp-report/iMX6_Platform_SDK/output/mx6sdl/sdk_unit_test/smart_device_rev_a/libsdk_unit_test.a(spi_nor_numonyx.o)
                0x1001db40                spi_nor_query_numonyx
                0x1001dc0c                spi_nor_erase_numonyx
                0x1001dc98                spi_nor_read_numonyx
                0x1001dee0                spi_nor_write_numonyx
 .text          0x1001e368       0xa4 /home/leon/riotboard/arm-2012.09/bin/../arm-none-eabi/lib//libm.a(lib_a-sf_cos.o)
                0x1001e368                cosf
 .text          0x1001e40c        0x8 /home/leon/riotboard/arm-2012.09/bin/../arm-none-eabi/lib//libm.a(lib_a-sf_fabs.o)
                0x1001e40c                fabsf
 .text          0x1001e414       0x70 /home/leon/riotboard/arm-2012.09/bin/../arm-none-eabi/lib//libm.a(lib_a-sf_modf.o)
                0x1001e414                modff
 .text          0x1001e484       0xbc /home/leon/riotboard/arm-2012.09/bin/../arm-none-eabi/lib//libm.a(lib_a-sf_sin.o)
                0x1001e484                sinf
 .text          0x1001e540      0x460 /home/leon/riotboard/arm-2012.09/bin/../arm-none-eabi/lib//libm.a(lib_a-ef_rem_pio2.o)
                0x1001e540                __ieee754_rem_pio2f
 .text          0x1001e9a0      0x214 /home/leon/riotboard/arm-2012.09/bin/../arm-none-eabi/lib//libm.a(lib_a-kf_cos.o)
                0x1001e9a0                __kernel_cosf
 .text          0x1001ebb4      0x960 /home/leon/riotboard/arm-2012.09/bin/../arm-none-eabi/lib//libm.a(lib_a-kf_rem_pio2.o)
                0x1001ebb4                __kernel_rem_pio2f
 .text          0x1001f514      0x14c /home/leon/riotboard/arm-2012.09/bin/../arm-none-eabi/lib//libm.a(lib_a-kf_sin.o)
                0x1001f514                __kernel_sinf
 .text          0x1001f660       0xd0 /home/leon/riotboard/arm-2012.09/bin/../arm-none-eabi/lib//libm.a(lib_a-sf_floor.o)
                0x1001f660                floorf
 .text          0x1001f730      0x120 /home/leon/riotboard/arm-2012.09/bin/../arm-none-eabi/lib//libm.a(lib_a-sf_scalbn.o)
                0x1001f730                scalbnf
 .text          0x1001f850       0x10 /home/leon/riotboard/arm-2012.09/bin/../arm-none-eabi/lib//libm.a(lib_a-sf_copysign.o)
                0x1001f850                copysignf
 .text          0x1001f860       0x68 /home/leon/riotboard/arm-2012.09/bin/../arm-none-eabi/lib//libc.a(lib_a-assert.o)
                0x1001f860                __assert_func
                0x1001f8b8                __assert
 .text          0x1001f8c8       0x20 /home/leon/riotboard/arm-2012.09/bin/../arm-none-eabi/lib//libc.a(lib_a-bzero.o)
                0x1001f8c8                bzero
 .text          0x1001f8e8      0x26c /home/leon/riotboard/arm-2012.09/bin/../arm-none-eabi/lib//libc.a(lib_a-fflush.o)
                0x1001f8e8                _fflush_r
                0x1001fb14                fflush
 .text          0x1001fb54      0x2c4 /home/leon/riotboard/arm-2012.09/bin/../arm-none-eabi/lib//libc.a(lib_a-findfp.o)
                0x1001fb64                _cleanup_r
                0x1001fbf8                __sfmoreglue
                0x1001fc40                _cleanup
                0x1001fc50                __sinit
                0x1001fcc8                __sfp
                0x1001fdc0                __sfp_lock_acquire
                0x1001fdc4                __sfp_lock_release
                0x1001fdc8                __sinit_lock_acquire
                0x1001fdcc                __sinit_lock_release
                0x1001fdd0                __fp_lock_all
                0x1001fdf4                __fp_unlock_all
 .text          0x1001fe18       0x70 /home/leon/riotboard/arm-2012.09/bin/../arm-none-eabi/lib//libc.a(lib_a-fiprintf.o)
                0x1001fe18                _fiprintf_r
                0x1001fe48                fiprintf
 .text          0x1001fe88       0x94 /home/leon/riotboard/arm-2012.09/bin/../arm-none-eabi/lib//libc.a(lib_a-fputc.o)
                0x1001fe88                _fputc_r
                0x1001fecc                fputc
 .text          0x1001ff1c       0xa8 /home/leon/riotboard/arm-2012.09/bin/../arm-none-eabi/lib//libc.a(lib_a-fputs.o)
                0x1001ff1c                _fputs_r
                0x1001ffa8                fputs
 .text          0x1001ffc4      0x368 /home/leon/riotboard/arm-2012.09/bin/../arm-none-eabi/lib//libc.a(lib_a-freer.o)
                0x1001ffc4                _malloc_trim_r
                0x100200c0                _free_r
 .text          0x1002032c      0x4c4 /home/leon/riotboard/arm-2012.09/bin/../arm-none-eabi/lib//libc.a(lib_a-fvwrite.o)
                0x1002032c                __sfvwrite_r
 .text          0x100207f0      0x114 /home/leon/riotboard/arm-2012.09/bin/../arm-none-eabi/lib//libc.a(lib_a-fwalk.o)
                0x100207f0                _fwalk
                0x10020878                _fwalk_reent
 .text          0x10020904        0x0 /home/leon/riotboard/arm-2012.09/bin/../arm-none-eabi/lib//libc.a(lib_a-impure.o)
 .text          0x10020904       0x88 /home/leon/riotboard/arm-2012.09/bin/../arm-none-eabi/lib//libc.a(lib_a-init.o)
                0x10020904                __libc_init_array
 .text          0x1002098c       0x40 /home/leon/riotboard/arm-2012.09/bin/../arm-none-eabi/lib//libc.a(lib_a-malloc.o)
                0x1002098c                malloc
                0x100209ac                free
 .text          0x100209cc      0x71c /home/leon/riotboard/arm-2012.09/bin/../arm-none-eabi/lib//libc.a(lib_a-mallocr.o)
                0x100209cc                _malloc_r
 .text          0x100210e8      0x11c /home/leon/riotboard/arm-2012.09/bin/../arm-none-eabi/lib//libc.a(lib_a-memchr.o)
                0x100210e8                memchr
 .text          0x10021204      0x20c /home/leon/riotboard/arm-2012.09/bin/../arm-none-eabi/lib//libc.a(lib_a-memcpy.o)
                0x10021204                memcpy
 .text          0x10021410      0x134 /home/leon/riotboard/arm-2012.09/bin/../arm-none-eabi/lib//libc.a(lib_a-memmove.o)
                0x10021410                memmove
 .text          0x10021544      0x134 /home/leon/riotboard/arm-2012.09/bin/../arm-none-eabi/lib//libc.a(lib_a-memset.o)
                0x10021544                memset
 .text          0x10021678        0x8 /home/leon/riotboard/arm-2012.09/bin/../arm-none-eabi/lib//libc.a(lib_a-mlock.o)
                0x10021678                __malloc_lock
                0x1002167c                __malloc_unlock
 .text          0x10021680       0x74 /home/leon/riotboard/arm-2012.09/bin/../arm-none-eabi/lib//libc.a(lib_a-printf.o)
                0x10021680                _printf_r
                0x100216b4                printf
 .text          0x100216f4      0x170 /home/leon/riotboard/arm-2012.09/bin/../arm-none-eabi/lib//libc.a(lib_a-putc.o)
                0x100216f4                _putc_r
                0x100217a4                putc
 .text          0x10021864       0x28 /home/leon/riotboard/arm-2012.09/bin/../arm-none-eabi/lib//libc.a(lib_a-realloc.o)
                0x10021864                realloc
 .text          0x1002188c      0x574 /home/leon/riotboard/arm-2012.09/bin/../arm-none-eabi/lib//libc.a(lib_a-reallocr.o)
                0x1002188c                _realloc_r
 .text          0x10021e00       0x6c /home/leon/riotboard/arm-2012.09/bin/../arm-none-eabi/lib//libc.a(lib_a-rget.o)
                0x10021e00                __srget_r
                0x10021e58                __srget
 .text          0x10021e6c       0x40 /home/leon/riotboard/arm-2012.09/bin/../arm-none-eabi/lib//libc.a(lib_a-sbrkr.o)
                0x10021e6c                _sbrk_r
 .text          0x10021eac       0xdc /home/leon/riotboard/arm-2012.09/bin/../arm-none-eabi/lib//libc.a(lib_a-sprintf.o)
                0x10021eac                _sprintf_r
                0x10021f14                sprintf
 .text          0x10021f88       0xdc /home/leon/riotboard/arm-2012.09/bin/../arm-none-eabi/lib//libc.a(lib_a-stdio.o)
                0x10021f88                __sread
                0x10021fbc                __seofread
                0x10021fc4                __swrite
                0x1002201c                __sseek
                0x10022050                __sclose
 .text          0x10022064       0x60 /home/leon/riotboard/arm-2012.09/bin/../arm-none-eabi/lib//libc.a(lib_a-strlen.o)
                0x10022064                strlen
 .text          0x100220c4       0x78 /home/leon/riotboard/arm-2012.09/bin/../arm-none-eabi/lib//libc.a(lib_a-strncasecmp.o)
                0x100220c4                strncasecmp
 .text          0x1002213c     0x1f7c /home/leon/riotboard/arm-2012.09/bin/../arm-none-eabi/lib//libc.a(lib_a-svfprintf.o)
                0x1002213c                _svfprintf_r
 .text          0x100240b8     0x12c4 /home/leon/riotboard/arm-2012.09/bin/../arm-none-eabi/lib//libc.a(lib_a-vfiprintf.o)
                0x100240b8                __sprint_r
                0x10024174                _vfiprintf_r
                0x10025350                vfiprintf
 .text          0x1002537c     0x2180 /home/leon/riotboard/arm-2012.09/bin/../arm-none-eabi/lib//libc.a(lib_a-vfprintf.o)
                0x1002537c                _vfprintf_r
                0x100274d0                vfprintf
 .text          0x100274fc       0x4c /home/leon/riotboard/arm-2012.09/bin/../arm-none-eabi/lib//libc.a(lib_a-vprintf.o)
                0x100274fc                vprintf
                0x10027528                _vprintf_r
 .text          0x10027548      0x14c /home/leon/riotboard/arm-2012.09/bin/../arm-none-eabi/lib//libc.a(lib_a-wbuf.o)
                0x10027548                __swbuf_r
                0x10027678                __swbuf
 .text          0x10027694       0x44 /home/leon/riotboard/arm-2012.09/bin/../arm-none-eabi/lib//libc.a(lib_a-writer.o)
                0x10027694                _write_r
 .text          0x100276d8      0x138 /home/leon/riotboard/arm-2012.09/bin/../arm-none-eabi/lib//libc.a(lib_a-wsetup.o)
                0x100276d8                __swsetup_r
 .text          0x10027810       0x14 /home/leon/riotboard/arm-2012.09/bin/../arm-none-eabi/lib//libc.a(lib_a-abort.o)
                0x10027810                abort
 .text          0x10027824       0x3c /home/leon/riotboard/arm-2012.09/bin/../arm-none-eabi/lib//libc.a(lib_a-closer.o)
                0x10027824                _close_r
 .text          0x10027860        0x0 /home/leon/riotboard/arm-2012.09/bin/../arm-none-eabi/lib//libc.a(lib_a-ctype_.o)
 .text          0x10027860     0x18a8 /home/leon/riotboard/arm-2012.09/bin/../arm-none-eabi/lib//libc.a(lib_a-dtoa.o)
                0x10027a40                _dtoa_r
 .text          0x10029108      0x10c /home/leon/riotboard/arm-2012.09/bin/../arm-none-eabi/lib//libc.a(lib_a-fclose.o)
                0x10029108                _fclose_r
                0x10029200                fclose
 .text          0x10029214      0x19c /home/leon/riotboard/arm-2012.09/bin/../arm-none-eabi/lib//libc.a(lib_a-fputwc.o)
                0x10029214                _fputwc_r
                0x10029364                fputwc
 .text          0x100293b0       0xd0 /home/leon/riotboard/arm-2012.09/bin/../arm-none-eabi/lib//libc.a(lib_a-locale.o)
                0x100293b0                _setlocale_r
                0x1002941c                __locale_charset
                0x10029428                __locale_mb_cur_max
                0x10029438                __locale_msgcharset
                0x10029444                __locale_cjk_lang
                0x1002944c                _localeconv_r
                0x10029458                setlocale
                0x10029474                localeconv
 .text          0x10029480       0x44 /home/leon/riotboard/arm-2012.09/bin/../arm-none-eabi/lib//libc.a(lib_a-lseekr.o)
                0x10029480                _lseek_r
 .text          0x100294c4      0x15c /home/leon/riotboard/arm-2012.09/bin/../arm-none-eabi/lib//libc.a(lib_a-makebuf.o)
                0x100294c4                __smakebuf_r
 .text          0x10029620      0xd20 /home/leon/riotboard/arm-2012.09/bin/../arm-none-eabi/lib//libc.a(lib_a-mprec.o)
                0x10029620                _Balloc
                0x100296ac                _Bfree
                0x100296c8                __multadd
                0x100297a4                __s2b
                0x10029894                __hi0bits
                0x100298e4                __lo0bits
                0x10029978                __i2b
                0x1002999c                __multiply
                0x10029b80                __pow5mult
                0x10029c74                __lshift
                0x10029d78                __mcmp
                0x10029ddc                __mdiff
                0x10029f28                __ulp
                0x10029f8c                __b2d
                0x1002a058                __d2b
                0x1002a160                __ratio
                0x1002a1f0                _mprec_log10
                0x1002a244                __copybits
                0x1002a2b8                __any_on
 .text          0x1002a340       0x44 /home/leon/riotboard/arm-2012.09/bin/../arm-none-eabi/lib//libc.a(lib_a-readr.o)
                0x1002a340                _read_r
 .text          0x1002a384      0x19c /home/leon/riotboard/arm-2012.09/bin/../arm-none-eabi/lib//libc.a(lib_a-reent.o)
                0x1002a384                cleanup_glue
                0x1002a3b0                _reclaim_reent
                0x1002a4ac                _wrapup_reent
 .text          0x1002a520      0x1cc /home/leon/riotboard/arm-2012.09/bin/../arm-none-eabi/lib//libc.a(lib_a-refill.o)
                0x1002a548                __srefill_r
 .text          0x1002a6ec       0x6c /home/leon/riotboard/arm-2012.09/bin/../arm-none-eabi/lib//libc.a(lib_a-s_fpclassify.o)
                0x1002a6ec                __fpclassifyd
 .text          0x1002a758      0x24c /home/leon/riotboard/arm-2012.09/bin/../arm-none-eabi/lib//libc.a(lib_a-signal.o)
                0x1002a758                _init_signal_r
                0x1002a7b8                _signal_r
                0x1002a824                _raise_r
                0x1002a8bc                __sigtramp_r
                0x1002a950                raise
                0x1002a964                signal
                0x1002a980                _init_signal
                0x1002a990                __sigtramp
 .text          0x1002a9a4       0x50 /home/leon/riotboard/arm-2012.09/bin/../arm-none-eabi/lib//libc.a(lib_a-signalr.o)
                0x1002a9a4                _kill_r
                0x1002a9e4                _getpid_r
 .text          0x1002a9f4      0x230 /home/leon/riotboard/arm-2012.09/bin/../arm-none-eabi/lib//libc.a(lib_a-strcmp.o)
                0x1002a9f4                strcmp
 .text          0x1002ac24     0x1224 /home/leon/riotboard/arm-2012.09/bin/../arm-none-eabi/lib//libc.a(lib_a-svfiprintf.o)
                0x1002ac24                __ssprint_r
                0x1002adc8                _svfiprintf_r
 .text          0x1002be48      0x134 /home/leon/riotboard/arm-2012.09/bin/../arm-none-eabi/lib//libc.a(lib_a-wcrtomb.o)
                0x1002be48                _wcrtomb_r
                0x1002bed8                wcrtomb
 .text          0x1002bf7c       0x7c /home/leon/riotboard/arm-2012.09/bin/../arm-none-eabi/lib//libc.a(lib_a-wctomb_r.o)
                0x1002bf7c                __ascii_wctomb
                0x1002bfa8                _wctomb_r
 .text          0x1002bff8       0x94 /home/leon/riotboard/arm-2012.09/bin/../arm-none-eabi/lib//libc.a(lib_a-callocr.o)
                0x1002bff8                _calloc_r
 .text          0x1002c08c       0x40 /home/leon/riotboard/arm-2012.09/bin/../arm-none-eabi/lib//libc.a(lib_a-fstatr.o)
                0x1002c08c                _fstat_r
 .text          0x1002c0cc       0x3c /home/leon/riotboard/arm-2012.09/bin/../arm-none-eabi/lib//libc.a(lib_a-isattyr.o)
                0x1002c0cc                _isatty_r
 .text          0x1002c108      0x114 /home/leon/riotboard/arm-2012.09/bin/../lib/gcc/arm-none-eabi/4.7.2//libgcc.a(_udivsi3.o)
                0x1002c108                __udivsi3
                0x1002c108                __aeabi_uidiv
                0x1002c1fc                __aeabi_uidivmod
 .text          0x1002c21c        0x4 /home/leon/riotboard/arm-2012.09/bin/../lib/gcc/arm-none-eabi/4.7.2//libgcc.a(_dvmd_tls.o)
                0x1002c21c                __aeabi_ldiv0
                0x1002c21c                __aeabi_idiv0
 .text          0x1002c220      0x41c /home/leon/riotboard/arm-2012.09/bin/../lib/gcc/arm-none-eabi/4.7.2//libgcc.a(_arm_addsubdf3.o)
                0x1002c220                __aeabi_drsub
                0x1002c228                __aeabi_dsub
                0x1002c228                __subdf3
                0x1002c22c                __adddf3
                0x1002c22c                __aeabi_dadd
                0x1002c53c                __aeabi_ui2d
                0x1002c53c                __floatunsidf
                0x1002c560                __floatsidf
                0x1002c560                __aeabi_i2d
                0x1002c588                __extendsfdf2
                0x1002c588                __aeabi_f2d
                0x1002c5c8                __aeabi_ul2d
                0x1002c5c8                __floatundidf
                0x1002c5dc                __floatdidf
                0x1002c5dc                __aeabi_l2d
 .text          0x1002c63c      0x49c /home/leon/riotboard/arm-2012.09/bin/../lib/gcc/arm-none-eabi/4.7.2//libgcc.a(_arm_muldivdf3.o)
                0x1002c63c                __aeabi_dmul
                0x1002c63c                __muldf3
                0x1002c8cc                __aeabi_ddiv
                0x1002c8cc                __divdf3
 .text          0x1002cad8      0x144 /home/leon/riotboard/arm-2012.09/bin/../lib/gcc/arm-none-eabi/4.7.2//libgcc.a(_arm_cmpdf2.o)
                0x1002cad8                __gtdf2
                0x1002cad8                __gedf2
                0x1002cae0                __ltdf2
                0x1002cae0                __ledf2
                0x1002cae8                __cmpdf2
                0x1002cae8                __eqdf2
                0x1002cae8                __nedf2
                0x1002cb70                __aeabi_cdrcmple
                0x1002cb8c                __aeabi_cdcmple
                0x1002cb8c                __aeabi_cdcmpeq
                0x1002cba4                __aeabi_dcmpeq
                0x1002cbbc                __aeabi_dcmplt
                0x1002cbd4                __aeabi_dcmple
                0x1002cbec                __aeabi_dcmpge
                0x1002cc04                __aeabi_dcmpgt
 .text          0x1002cc1c       0x5c /home/leon/riotboard/arm-2012.09/bin/../lib/gcc/arm-none-eabi/4.7.2//libgcc.a(_arm_fixdfsi.o)
                0x1002cc1c                __fixdfsi
                0x1002cc1c                __aeabi_d2iz
 .text          0x1002cc78      0x2ac /home/leon/riotboard/arm-2012.09/bin/../lib/gcc/arm-none-eabi/4.7.2//libgcc.a(_arm_addsubsf3.o)
                0x1002cc78                __aeabi_frsub
                0x1002cc80                __subsf3
                0x1002cc80                __aeabi_fsub
                0x1002cc84                __aeabi_fadd
                0x1002cc84                __addsf3
                0x1002ce40                __aeabi_ui2f
                0x1002ce40                __floatunsisf
                0x1002ce48                __aeabi_i2f
                0x1002ce48                __floatsisf
                0x1002ce68                __floatundisf
                0x1002ce68                __aeabi_ul2f
                0x1002ce78                __floatdisf
                0x1002ce78                __aeabi_l2f
 .text          0x1002cf24      0x2f8 /home/leon/riotboard/arm-2012.09/bin/../lib/gcc/arm-none-eabi/4.7.2//libgcc.a(_arm_muldivsf3.o)
                0x1002cf24                __mulsf3
                0x1002cf24                __aeabi_fmul
                0x1002d0bc                __divsf3
                0x1002d0bc                __aeabi_fdiv
 .text          0x1002d21c      0x114 /home/leon/riotboard/arm-2012.09/bin/../lib/gcc/arm-none-eabi/4.7.2//libgcc.a(_arm_cmpsf2.o)
                0x1002d21c                __gtsf2
                0x1002d21c                __gesf2
                0x1002d224                __lesf2
                0x1002d224                __ltsf2
                0x1002d22c                __nesf2
                0x1002d22c                __eqsf2
                0x1002d22c                __cmpsf2
                0x1002d290                __aeabi_cfrcmple
                0x1002d2a0                __aeabi_cfcmple
                0x1002d2a0                __aeabi_cfcmpeq
                0x1002d2b8                __aeabi_fcmpeq
                0x1002d2d0                __aeabi_fcmplt
                0x1002d2e8                __aeabi_fcmple
                0x1002d300                __aeabi_fcmpge
                0x1002d318                __aeabi_fcmpgt
 .text          0x1002d330       0x5c /home/leon/riotboard/arm-2012.09/bin/../lib/gcc/arm-none-eabi/4.7.2//libgcc.a(_arm_fixsfsi.o)
                0x1002d330                __fixsfsi
                0x1002d330                __aeabi_f2iz
 .text          0x1002d38c       0x3c /home/leon/riotboard/arm-2012.09/bin/../lib/gcc/arm-none-eabi/4.7.2//libgcc.a(_aeabi_uldivmod.o)
                0x1002d38c                __aeabi_uldivmod
 .text          0x1002d3c8       0x84 /home/leon/riotboard/arm-2012.09/bin/../lib/gcc/arm-none-eabi/4.7.2//libgcc.a(bpabi.o)
                0x1002d3c8                __gnu_ldivmod_helper
                0x1002d40c                __gnu_uldivmod_helper
 .text          0x1002d44c      0x4f0 /home/leon/riotboard/arm-2012.09/bin/../lib/gcc/arm-none-eabi/4.7.2//libgcc.a(_divdi3.o)
                0x1002d44c                __divdi3
 .text          0x1002d93c      0x488 /home/leon/riotboard/arm-2012.09/bin/../lib/gcc/arm-none-eabi/4.7.2//libgcc.a(_udivdi3.o)
                0x1002d93c                __udivdi3
 .text          0x1002ddc4       0x48 /home/leon/riotboard/arm-2012.09/bin/../lib/gcc/arm-none-eabi/4.7.2//libgcc.a(_clzsi2.o)
                0x1002ddc4                __clzsi2
 .text          0x1002de0c       0x64 /home/leon/git/swp-report/iMX6_Platform_SDK/output/mx6sdl/lib/libsdk.a(profile.o)
                0x1002de0c                StartPerfCounter
                0x1002de34                StopPerfCounter
 .text          0x1002de70      0x644 /home/leon/git/swp-report/iMX6_Platform_SDK/output/mx6sdl/lib/libsdk.a(armv7_cache.o)
                0x1002de70                arm_dcache_state_query
                0x1002deb0                arm_dcache_enable
                0x1002def8                arm_dcache_disable
                0x1002df30                arm_dcache_invalidate
                0x1002dfd4                arm_dcache_invalidate_line
                0x1002e040                arm_dcache_invalidate_mlines
                0x1002e0e0                arm_dcache_flush
                0x1002e184                arm_dcache_flush_line
                0x1002e1f0                arm_dcache_flush_mlines
                0x1002e290                arm_icache_state_query
                0x1002e2d0                arm_icache_enable
                0x1002e318                arm_icache_disable
                0x1002e350                arm_icache_invalidate
                0x1002e37c                arm_icache_invalidate_is
                0x1002e3a8                arm_icache_invalidate_line
                0x1002e414                arm_icache_invalidate_mlines
 .text          0x1002e4b4      0x610 /home/leon/git/swp-report/iMX6_Platform_SDK/output/mx6sdl/lib/libsdk.a(runtime_support.o)
                0x1002e4b4                _execve
                0x1002e4f0                _fork
                0x1002e518                _isatty
                0x1002e53c                _open
                0x1002e568                _close
                0x1002e58c                _lseek
                0x1002e5b8                _fstat
                0x1002e5ec                _read
                0x1002e6bc                _write
                0x1002e7a8                _raw_puts
                0x1002e828                _sbrk
                0x1002e8d8                _exit
                0x1002e8f8                _kill
                0x1002e930                _getpid
                0x1002e948                _link
                0x1002e980                _unlink
                0x1002e9b4                _stat
                0x1002e9e8                _times
                0x1002ea0c                _gettimeofday
                0x1002ea90                _wait
 .text          0x1002eac4      0x62c /home/leon/git/swp-report/iMX6_Platform_SDK/output/mx6sdl/lib/libsdk.a(mma8451.o)
                0x1002eac4                mma8451_read_register
                0x1002eb94                mma8451_write_register
                0x1002ec74                mma8451_init
                0x1002ee30                mma8451_get_acceleration
 .text          0x1002f0f0      0xa88 /home/leon/git/swp-report/iMX6_Platform_SDK/output/mx6sdl/lib/libsdk.a(smd_sensor.o)
                0x1002f488                sensor_config
                0x1002f4c4                sensor_search
                0x1002f654                sensor_init
                0x1002f7c8                sensor_af_trigger
                0x1002f8a8                sensor_autofocus_init
                0x1002fa28                camera_strobeflash_on
                0x1002fb04                camera_strobeflash_off
 .text          0x1002fb78       0x78 /home/leon/git/swp-report/iMX6_Platform_SDK/output/mx6sdl/lib/libsdk.a(cpu_get_cores.o)
                0x1002fb78                cpu_get_cores
 .text          0x1002fbf0      0x1d8 /home/leon/git/swp-report/iMX6_Platform_SDK/output/mx6sdl/lib/libsdk.a(cpu_multicore.o)
                0x1002fc54                cpu_start_secondary
                0x1002fd58                cpu_disable
 .text          0x1002fdc8      0x1cc /home/leon/git/swp-report/iMX6_Platform_SDK/output/mx6sdl/lib/libsdk.a(cpu_workpoint.o)
                0x1002fdc8                cpu_workpoint_set
 .text          0x1002ff94     0x17e0 /home/leon/git/swp-report/iMX6_Platform_SDK/output/mx6sdl/lib/libsdk.a(enet_drv.o)
                0x1002ff94                imx_enet_mii_read
                0x100300a4                imx_enet_mii_write
                0x10030578                enet_phy_rework_ar8031
                0x100306ec                enet_phy_rework_ksz9021
                0x100307e0                imx_enet_phy_init
                0x10030a60                imx_enet_get_phy_status
                0x10030d88                imx_enet_phy_enable_external_loopback
                0x10030ea4                imx_enet_poll
                0x10030f9c                imx_enet_send
                0x100310b4                imx_enet_recv
                0x10031290                imx_enet_init
                0x100313e4                imx_enet_start
                0x10031478                imx_enet_stop
                0x100314bc                imx_enet_isolate_phy
                0x10031560                imx_enet_unisolate_phy
                0x10031628                imx_enet_mii_type
 .text          0x10031774     0x1308 /home/leon/git/swp-report/iMX6_Platform_SDK/output/mx6sdl/lib/libsdk.a(gpio.o)
                0x100317a4                gpio_get_port_count
                0x100317bc                gpio_set_gpio
                0x10031880                gpio_set_direction
                0x10031adc                gpio_get_direction
                0x10031c24                gpio_set_level
                0x10031f64                gpio_get_level
                0x100320c4                gpio_set_interrupt_config
                0x100324c8                gpio_set_interrupt_mask
                0x1003270c                gpio_get_interrupt_status
                0x10032868                gpio_clear_interrupt
 .text          0x10032a7c        0x0 /home/leon/git/swp-report/iMX6_Platform_SDK/output/mx6sdl/lib/libsdk.a(imx6sdl_gpio_map.o)
 .text          0x10032a7c     0x1334 /home/leon/git/swp-report/iMX6_Platform_SDK/output/mx6sdl/lib/libsdk.a(hdmi_tx.o)
                0x10032a7c                hdmi_config_input_source
                0x10032abc                hdmi_video_sample
                0x10032d04                update_csc_coeffs
                0x10033218                hdmi_video_csc
                0x100333b8                hdmi_video_packetize
                0x10033784                preamble_filter_set
                0x10033844                hdmi_av_frame_composer
                0x10033c8c                hdmi_tx_hdcp_config
                0x10033cf8                hdmi_config_force_video
                0x10033d50                hdmi_config_forced_pixels
 .text          0x10033db0      0xd24 /home/leon/git/swp-report/iMX6_Platform_SDK/output/mx6sdl/lib/libsdk.a(hdmi_tx_audio.o)
                0x10033db0                hdmi_audio_mute
                0x10033e00                audio_PacketLayout
                0x10033e40                audio_DMA_InterruptMask
                0x10033e70                audio_DMA_InterruptPolarity
                0x10033ea0                audio_DMA_ResetFIFO
                0x10033ec4                audio_clk_N
                0x10033f24                audio_clk_CTS
                0x10033fc4                audio_ComputeN
                0x100342e4                audio_ComputeCTS
                0x10034520                audio_DMA_StartAddr
                0x10034598                audio_DMA_StopAddr
                0x10034610                audio_DMA_LockEnable
                0x10034650                audio_DMA_BurstMode
                0x10034690                audio_DMA_IncrType
                0x100346d0                audio_DMA_Threshold
                0x10034700                audio_DMA_SetCONF1
                0x10034730                audio_DMA_Start
                0x10034754                audio_Configure
                0x1003480c                Audio_ChannelCount
                0x100348fc                audio_Configure_DMA
                0x10034a94                audio_info_config
 .text          0x10034ad4     0x14fc /home/leon/git/swp-report/iMX6_Platform_SDK/output/mx6sdl/lib/libsdk.a(hdmi_tx_phy.o)
                0x10034ad4                hdmi_phy_int_mask
                0x10035f3c                hdmi_phy_init
 .text          0x10035fd0     0x1798 /home/leon/git/swp-report/iMX6_Platform_SDK/output/mx6sdl/lib/libsdk.a(imx_i2c.o)
                0x10036000                i2c_get_request_instance
                0x10036a78                i2c_xfer
                0x10037194                i2c_read
                0x100371c4                i2c_write
                0x100371f4                i2c_setup_interrupt
                0x10037460                i2c_init
 .text          0x10037768      0xd38 /home/leon/git/swp-report/iMX6_Platform_SDK/output/mx6sdl/lib/libsdk.a(imx_i2c_slave.o)
                0x10037768                i2c_slave_interrupt_routine
                0x100378b4                i2c_slave_handler
                0x10037ee4                i2c_slave_xfer
 .text          0x100384a0      0x474 /home/leon/git/swp-report/iMX6_Platform_SDK/output/mx6sdl/lib/libsdk.a(ips_disp_panel.o)
                0x10038734                search_panel
                0x100387f4                list_panel
                0x1003888c                get_panel_by_id
 .text          0x10038914      0xf90 /home/leon/git/swp-report/iMX6_Platform_SDK/output/mx6sdl/lib/libsdk.a(ipu_common.o)
                0x10038914                need_csc
                0x1003897c                ipu_write_field
                0x10038a20                ipu_read
                0x10038a78                ipu_write
                0x10038acc                ipu_enable_display
                0x10038b38                ipu_disable_display
                0x10038bb8                ipu_sw_reset
                0x10038c98                ipu_display_setup
                0x10038e0c                ipu_dual_display_setup
                0x10038f10                ipu_capture_setup
                0x10039354                ipu_capture_streamoff
                0x10039428                ipu_mipi_csi2_setup
                0x10039620                ipu1_ch0_eobnd_isr
                0x100397fc                ipu_ch0_eobnd_interrupt_register
 .text          0x100398a4      0xcb8 /home/leon/git/swp-report/iMX6_Platform_SDK/output/mx6sdl/lib/libsdk.a(ipu_csi.o)
                0x100398a4                ipu_csi_config
                0x10039ee8                ipu_smfc_fifo_allocate
                0x1003a044                ipu_capture_disp_link
                0x1003a170                ipu_disable_csi
                0x1003a1dc                ipu_disable_smfc
                0x1003a210                ipu_csi_test_mode_color
 .text          0x1003a55c     0x1bd8 /home/leon/git/swp-report/iMX6_Platform_SDK/output/mx6sdl/lib/libsdk.a(ipu_dc.o)
                0x1003a55c                ipu_dc_config
                0x1003a84c                ipu_dc_write_channel_config
                0x1003ab04                ipu_dc_display_config
                0x1003ac98                ipu_dc_map
                0x1003b02c                ipu_dc_microcode_config
                0x1003bdd8                ipu_dc_microcode_event
 .text          0x1003c134      0xfd8 /home/leon/git/swp-report/iMX6_Platform_SDK/output/mx6sdl/lib/libsdk.a(ipu_di.o)
                0x1003c134                ipu_di_config
                0x1003c764                ipu_di_waveform_config
                0x1003c82c                ipu_di_screen_set
                0x1003c8c0                ipu_di_pointer_config
                0x1003ca10                ipu_di_bsclk_gen
                0x1003cb48                ipu_di_sync_config
                0x1003ce50                ipu_di_interface_set
 .text          0x1003d10c      0x3e0 /home/leon/git/swp-report/iMX6_Platform_SDK/output/mx6sdl/lib/libsdk.a(ipu_dmfc.o)
                0x1003d10c                ipu_dmfc_config
                0x1003d3a0                ipu_dmfc_alloc
 .text          0x1003d4ec      0x59c /home/leon/git/swp-report/iMX6_Platform_SDK/output/mx6sdl/lib/libsdk.a(ipu_dp.o)
                0x1003d4ec                ipu_dp_config
                0x1003d540                ipu_dp_csc_config
                0x1003d8e4                ipu_dp_fg_config
 .text          0x1003da88     0x167c /home/leon/git/swp-report/iMX6_Platform_SDK/output/mx6sdl/lib/libsdk.a(ipu_ic.o)
                0x1003da88                ipu_ic_enable
                0x1003dad4                ipu_ic_rotation_config
                0x1003dce0                ipu_ic_resize_config
                0x1003e234                ipu_ic_deinterlace_config
                0x1003e410                ipu_ic_calc_resize_coeffs
                0x1003e528                ipu_ic_config_resize_rate
                0x1003e650                ipu_ic_combine_config
                0x1003e80c                ipu_ic_csc_config
                0x1003ef04                ipu_ic_task_enable
 .text          0x1003f104     0x2828 /home/leon/git/swp-report/iMX6_Platform_SDK/output/mx6sdl/lib/libsdk.a(ipu_idmac.o)
                0x1003f104                ipu_cpmem_set_field
                0x1003f230                ipu_cpmem_mod_field
                0x1003f3bc                ipu_cpmem_read_field
                0x1003f518                ipu_channel_buf_ready
                0x1003f690                ipu_channel_buf_not_ready
                0x1003f808                ipu_idmac_channel_mode_sel
                0x1003f890                ipu_idmac_channel_enable
                0x1003f918                ipu_idmac_channel_busy
                0x1003f9c4                ipu_general_idmac_config
                0x1003fea8                ipu_disp_bg_idmac_config
                0x1003ff90                ipu_disp_fg_idmac_config
                0x10040078                ipu_dma_update_buffer
                0x1004016c                ipu_idmac_chan_cur_buff
                0x10040200                ipu_rotate_idmac_config
                0x10040334                ipu_resize_idmac_config
                0x10040470                ipu_deinterlace_idmac_config
                0x100405c4                ipu_idma_pixel_format_config
 .text          0x1004192c      0x598 /home/leon/git/swp-report/iMX6_Platform_SDK/output/mx6sdl/lib/libsdk.a(ipu_vdi.o)
                0x1004192c                ipu_deinterlace_3_fields
                0x1004197c                ipu_vdi_set_top_field_man
                0x100419f0                ipu_vdi_set_motion
                0x10041af8                ipu_vdi_init
                0x10041c3c                ipu_vdi_uninit
                0x10041c84                ips_deinterlace_proc
 .text          0x10041ec4      0x520 /home/leon/git/swp-report/iMX6_Platform_SDK/output/mx6sdl/lib/libsdk.a(keypad_port.o)
                0x10041ee4                kpp_scan_matrix
                0x10042128                kpp_get_keypad_state
                0x100421e8                kpp_wait_for_release_state
                0x10042230                kpp_interrupt_routine
                0x10042270                kpp_setup_interrupt
                0x100422d4                kpp_open
                0x10042398                kpp_close
 .text          0x100423e4      0x4ac /home/leon/git/swp-report/iMX6_Platform_SDK/output/mx6sdl/lib/libsdk.a(ldb.o)
                0x100425b4                ldb_config
                0x100427ec                ldb_set_vs_polarity
 .text          0x10042890      0x3f4 /home/leon/git/swp-report/iMX6_Platform_SDK/output/mx6sdl/lib/libsdk.a(ocotp.o)
                0x100428fc                Delay4Reload
                0x10042b40                ocotp_sense_fuse
                0x10042bb0                ocotp_fuse_blow_row
                0x10042c0c                ocotp_reload_otp_shadow_registers
 .text          0x10042c84      0x55c /home/leon/git/swp-report/iMX6_Platform_SDK/output/mx6sdl/lib/libsdk.a(pcie.o)
                0x10042f38                pcie_map_space
                0x10042ffc                pcie_init
 .text          0x100431e0      0x394 /home/leon/git/swp-report/iMX6_Platform_SDK/output/mx6sdl/lib/libsdk.a(pcie_phy.o)
                0x1004332c                pcie_phy_cr_read
                0x10043404                pcie_phy_cr_write
 .text          0x10043574      0x70c /home/leon/git/swp-report/iMX6_Platform_SDK/output/mx6sdl/lib/libsdk.a(pcie_prot.o)
                0x1004390c                pcie_dump_cfg_header
                0x10043978                pcie_enum_resources
                0x10043c08                pcie_cfg_ep_bar
 .text          0x10043c80     0x1bf0 /home/leon/git/swp-report/iMX6_Platform_SDK/output/mx6sdl/lib/libsdk.a(pmu_driver.o)
                0x10043eec                pmu_init
                0x10044088                pmu_get_property
                0x100440e8                pmu_set_property
                0x1004414c                pmu::Regulator::getProperty(_pmu_regulator_properties, void*)
                0x100443c8                pmu::Regulator::setProperty(_pmu_regulator_properties, void const*)
                0x10044540                pmu::Regulator::setVoltageRange(unsigned long, unsigned long, unsigned long)
                0x1004458c                pmu::AnalogRegulator::getProperty(_pmu_regulator_properties, void*)
                0x10044658                pmu::AnalogRegulator::setProperty(_pmu_regulator_properties, void const*)
                0x10044718                pmu::AnalogRegulator::getOutputMillivolts() const
                0x10044770                pmu::AnalogRegulator::setOutputMillivolts(unsigned long)
                0x10044858                pmu::AnalogRegulator::getBrownoutMillivolts() const
                0x100448c8                pmu::AnalogRegulator::setBrownoutMillivolts(unsigned long)
                0x10044960                pmu::AnalogRegulator::isBrownoutDetectEnabled() const
                0x100449a4                pmu::AnalogRegulator::setBrownoutDetectIsEnabled(bool)
                0x100449f0                pmu::AnalogRegulator::isEnabled() const
                0x10044a34                pmu::AnalogRegulator::setIsEnabled(bool)
                0x10044a80                pmu::DigitalRegulator::DigitalRegulator()
                0x10044a80                pmu::DigitalRegulator::DigitalRegulator()
                0x10044ac0                pmu::DigitalRegulator::getProperty(_pmu_regulator_properties, void*)
                0x10044bc0                pmu::DigitalRegulator::setProperty(_pmu_regulator_properties, void const*)
                0x10044c88                pmu::DigitalRegulator::isBypassed() const
                0x10044cd4                pmu::DigitalRegulator::setIsBypassed(bool)
                0x10044d88                pmu::DigitalRegulator::getOutputMillivolts() const
                0x10044e24                pmu::DigitalRegulator::setOutputMillivolts(unsigned long)
                0x10044f08                pmu::DigitalRegulator::getBrownoutMillivolts() const
                0x10044f7c                pmu::DigitalRegulator::setBrownoutMillivolts(unsigned long)
                0x10045014                pmu::DigitalRegulator::isEnabled() const
                0x10045060                pmu::DigitalRegulator::setIsEnabled(bool)
                0x1004511c                pmu::LDO1p1Regulator::LDO1p1Regulator()
                0x1004511c                pmu::LDO1p1Regulator::LDO1p1Regulator()
                0x1004517c                pmu::LDO1p1Regulator::getProperty(_pmu_regulator_properties, void*)
                0x10045214                pmu::LDO1p1Regulator::getOutputMillivolts() const
                0x10045270                pmu::LDO1p1Regulator::setOutputMillivolts(unsigned long)
                0x10045364                pmu::LDO2p5Regulator::LDO2p5Regulator()
                0x10045364                pmu::LDO2p5Regulator::LDO2p5Regulator()
                0x100453c4                pmu::LDO3p0Regulator::LDO3p0Regulator()
                0x100453c4                pmu::LDO3p0Regulator::LDO3p0Regulator()
                0x10045424                pmu::LDO3p0Regulator::getProperty(_pmu_regulator_properties, void*)
                0x10045490                pmu::LDO3p0Regulator::setProperty(_pmu_regulator_properties, void const*)
                0x10045500                pmu::LDOARMRegulator::LDOARMRegulator()
                0x10045500                pmu::LDOARMRegulator::LDOARMRegulator()
                0x10045558                pmu::LDOARMRegulator::setBrownoutDetectIsEnabled(bool)
                0x100455a4                pmu::LDOARMRegulator::setRampRate(unsigned long)
                0x10045604                pmu::LDOGraphicsRegulator::LDOGraphicsRegulator()
                0x10045604                pmu::LDOGraphicsRegulator::LDOGraphicsRegulator()
                0x1004565c                pmu::LDOGraphicsRegulator::setBrownoutDetectIsEnabled(bool)
                0x100456a8                pmu::LDOGraphicsRegulator::setRampRate(unsigned long)
                0x10045708                pmu::LDOSoCRegulator::LDOSoCRegulator()
                0x10045708                pmu::LDOSoCRegulator::LDOSoCRegulator()
                0x10045760                pmu::LDOSoCRegulator::setBrownoutDetectIsEnabled(bool)
                0x100457ac                pmu::LDOSoCRegulator::setRampRate(unsigned long)
 .text._ZnwjPv  0x10045870       0x28 /home/leon/git/swp-report/iMX6_Platform_SDK/output/mx6sdl/lib/libsdk.a(pmu_driver.o)
                0x10045870                operator new(unsigned int, void*)
 .text._ZN3pmu9RegulatorC2Ev
                0x10045898       0x64 /home/leon/git/swp-report/iMX6_Platform_SDK/output/mx6sdl/lib/libsdk.a(pmu_driver.o)
                0x10045898                pmu::Regulator::Regulator()
                0x10045898                pmu::Regulator::Regulator()
 .text._ZN3pmu9Regulator18setBrownoutHandlerEPFv9_pmu_regsE
                0x100458fc       0x2c /home/leon/git/swp-report/iMX6_Platform_SDK/output/mx6sdl/lib/libsdk.a(pmu_driver.o)
                0x100458fc                pmu::Regulator::setBrownoutHandler(void (*)(_pmu_regs))
 .text._ZN3pmu9Regulator18getBrownoutHandlerEv
                0x10045928       0x28 /home/leon/git/swp-report/iMX6_Platform_SDK/output/mx6sdl/lib/libsdk.a(pmu_driver.o)
                0x10045928                pmu::Regulator::getBrownoutHandler()
 .text._ZN3pmu15AnalogRegulatorC2ERV15_hw_pmu_reg_1p1
                0x10045950       0x50 /home/leon/git/swp-report/iMX6_Platform_SDK/output/mx6sdl/lib/libsdk.a(pmu_driver.o)
                0x10045950                pmu::AnalogRegulator::AnalogRegulator(_hw_pmu_reg_1p1 volatile&)
                0x10045950                pmu::AnalogRegulator::AnalogRegulator(_hw_pmu_reg_1p1 volatile&)
 .text._ZNK3pmu15LDO1p1Regulator12isInBrownoutEv
                0x100459a0       0x70 /home/leon/git/swp-report/iMX6_Platform_SDK/output/mx6sdl/lib/libsdk.a(pmu_driver.o)
                0x100459a0                pmu::LDO1p1Regulator::isInBrownout() const
 .text._ZNK3pmu15LDO1p1Regulator4isOKEv
                0x10045a10       0x78 /home/leon/git/swp-report/iMX6_Platform_SDK/output/mx6sdl/lib/libsdk.a(pmu_driver.o)
                0x10045a10                pmu::LDO1p1Regulator::isOK() const
 .text._ZNK3pmu15LDO2p5Regulator12isInBrownoutEv
                0x10045a88       0x70 /home/leon/git/swp-report/iMX6_Platform_SDK/output/mx6sdl/lib/libsdk.a(pmu_driver.o)
                0x10045a88                pmu::LDO2p5Regulator::isInBrownout() const
 .text._ZNK3pmu15LDO2p5Regulator4isOKEv
                0x10045af8       0x78 /home/leon/git/swp-report/iMX6_Platform_SDK/output/mx6sdl/lib/libsdk.a(pmu_driver.o)
                0x10045af8                pmu::LDO2p5Regulator::isOK() const
 .text._ZNK3pmu15LDO3p0Regulator12isInBrownoutEv
                0x10045b70       0x70 /home/leon/git/swp-report/iMX6_Platform_SDK/output/mx6sdl/lib/libsdk.a(pmu_driver.o)
                0x10045b70                pmu::LDO3p0Regulator::isInBrownout() const
 .text._ZNK3pmu15LDO3p0Regulator4isOKEv
                0x10045be0       0x78 /home/leon/git/swp-report/iMX6_Platform_SDK/output/mx6sdl/lib/libsdk.a(pmu_driver.o)
                0x10045be0                pmu::LDO3p0Regulator::isOK() const
 .text._ZNK3pmu15LDOARMRegulator23isBrownoutDetectEnabledEv
                0x10045c58       0x44 /home/leon/git/swp-report/iMX6_Platform_SDK/output/mx6sdl/lib/libsdk.a(pmu_driver.o)
                0x10045c58                pmu::LDOARMRegulator::isBrownoutDetectEnabled() const
 .text._ZNK3pmu15LDOARMRegulator12isInBrownoutEv
                0x10045c9c       0x6c /home/leon/git/swp-report/iMX6_Platform_SDK/output/mx6sdl/lib/libsdk.a(pmu_driver.o)
                0x10045c9c                pmu::LDOARMRegulator::isInBrownout() const
 .text._ZNK3pmu15LDOARMRegulator4isOKEv
                0x10045d08       0x24 /home/leon/git/swp-report/iMX6_Platform_SDK/output/mx6sdl/lib/libsdk.a(pmu_driver.o)
                0x10045d08                pmu::LDOARMRegulator::isOK() const
 .text._ZNK3pmu15LDOARMRegulator11getRampRateEv
                0x10045d2c       0x34 /home/leon/git/swp-report/iMX6_Platform_SDK/output/mx6sdl/lib/libsdk.a(pmu_driver.o)
                0x10045d2c                pmu::LDOARMRegulator::getRampRate() const
 .text._ZNK3pmu15LDOARMRegulator10getTriggerEv
                0x10045d60       0x34 /home/leon/git/swp-report/iMX6_Platform_SDK/output/mx6sdl/lib/libsdk.a(pmu_driver.o)
                0x10045d60                pmu::LDOARMRegulator::getTrigger() const
 .text._ZN3pmu15LDOARMRegulator10setTriggerEm
                0x10045d94       0x44 /home/leon/git/swp-report/iMX6_Platform_SDK/output/mx6sdl/lib/libsdk.a(pmu_driver.o)
                0x10045d94                pmu::LDOARMRegulator::setTrigger(unsigned long)
 .text._ZNK3pmu15LDOARMRegulator11getBrownoutEv
                0x10045dd8       0x34 /home/leon/git/swp-report/iMX6_Platform_SDK/output/mx6sdl/lib/libsdk.a(pmu_driver.o)
                0x10045dd8                pmu::LDOARMRegulator::getBrownout() const
 .text._ZN3pmu15LDOARMRegulator11setBrownoutEm
                0x10045e0c       0x44 /home/leon/git/swp-report/iMX6_Platform_SDK/output/mx6sdl/lib/libsdk.a(pmu_driver.o)
                0x10045e0c                pmu::LDOARMRegulator::setBrownout(unsigned long)
 .text._ZNK3pmu20LDOGraphicsRegulator23isBrownoutDetectEnabledEv
                0x10045e50       0x44 /home/leon/git/swp-report/iMX6_Platform_SDK/output/mx6sdl/lib/libsdk.a(pmu_driver.o)
                0x10045e50                pmu::LDOGraphicsRegulator::isBrownoutDetectEnabled() const
 .text._ZNK3pmu20LDOGraphicsRegulator12isInBrownoutEv
                0x10045e94       0x6c /home/leon/git/swp-report/iMX6_Platform_SDK/output/mx6sdl/lib/libsdk.a(pmu_driver.o)
                0x10045e94                pmu::LDOGraphicsRegulator::isInBrownout() const
 .text._ZNK3pmu20LDOGraphicsRegulator4isOKEv
                0x10045f00       0x24 /home/leon/git/swp-report/iMX6_Platform_SDK/output/mx6sdl/lib/libsdk.a(pmu_driver.o)
                0x10045f00                pmu::LDOGraphicsRegulator::isOK() const
 .text._ZNK3pmu20LDOGraphicsRegulator11getRampRateEv
                0x10045f24       0x34 /home/leon/git/swp-report/iMX6_Platform_SDK/output/mx6sdl/lib/libsdk.a(pmu_driver.o)
                0x10045f24                pmu::LDOGraphicsRegulator::getRampRate() const
 .text._ZNK3pmu20LDOGraphicsRegulator10getTriggerEv
                0x10045f58       0x34 /home/leon/git/swp-report/iMX6_Platform_SDK/output/mx6sdl/lib/libsdk.a(pmu_driver.o)
                0x10045f58                pmu::LDOGraphicsRegulator::getTrigger() const
 .text._ZN3pmu20LDOGraphicsRegulator10setTriggerEm
                0x10045f8c       0x44 /home/leon/git/swp-report/iMX6_Platform_SDK/output/mx6sdl/lib/libsdk.a(pmu_driver.o)
                0x10045f8c                pmu::LDOGraphicsRegulator::setTrigger(unsigned long)
 .text._ZNK3pmu20LDOGraphicsRegulator11getBrownoutEv
                0x10045fd0       0x34 /home/leon/git/swp-report/iMX6_Platform_SDK/output/mx6sdl/lib/libsdk.a(pmu_driver.o)
                0x10045fd0                pmu::LDOGraphicsRegulator::getBrownout() const
 .text._ZN3pmu20LDOGraphicsRegulator11setBrownoutEm
                0x10046004       0x44 /home/leon/git/swp-report/iMX6_Platform_SDK/output/mx6sdl/lib/libsdk.a(pmu_driver.o)
                0x10046004                pmu::LDOGraphicsRegulator::setBrownout(unsigned long)
 .text._ZNK3pmu15LDOSoCRegulator23isBrownoutDetectEnabledEv
                0x10046048       0x44 /home/leon/git/swp-report/iMX6_Platform_SDK/output/mx6sdl/lib/libsdk.a(pmu_driver.o)
                0x10046048                pmu::LDOSoCRegulator::isBrownoutDetectEnabled() const
 .text._ZNK3pmu15LDOSoCRegulator12isInBrownoutEv
                0x1004608c       0x6c /home/leon/git/swp-report/iMX6_Platform_SDK/output/mx6sdl/lib/libsdk.a(pmu_driver.o)
                0x1004608c                pmu::LDOSoCRegulator::isInBrownout() const
 .text._ZNK3pmu15LDOSoCRegulator4isOKEv
                0x100460f8       0x74 /home/leon/git/swp-report/iMX6_Platform_SDK/output/mx6sdl/lib/libsdk.a(pmu_driver.o)
                0x100460f8                pmu::LDOSoCRegulator::isOK() const
 .text._ZNK3pmu15LDOSoCRegulator11getRampRateEv
                0x1004616c       0x34 /home/leon/git/swp-report/iMX6_Platform_SDK/output/mx6sdl/lib/libsdk.a(pmu_driver.o)
                0x1004616c                pmu::LDOSoCRegulator::getRampRate() const
 .text._ZNK3pmu15LDOSoCRegulator10getTriggerEv
                0x100461a0       0x34 /home/leon/git/swp-report/iMX6_Platform_SDK/output/mx6sdl/lib/libsdk.a(pmu_driver.o)
                0x100461a0                pmu::LDOSoCRegulator::getTrigger() const
 .text._ZN3pmu15LDOSoCRegulator10setTriggerEm
                0x100461d4       0x44 /home/leon/git/swp-report/iMX6_Platform_SDK/output/mx6sdl/lib/libsdk.a(pmu_driver.o)
                0x100461d4                pmu::LDOSoCRegulator::setTrigger(unsigned long)
 .text._ZNK3pmu15LDOSoCRegulator11getBrownoutEv
                0x10046218       0x34 /home/leon/git/swp-report/iMX6_Platform_SDK/output/mx6sdl/lib/libsdk.a(pmu_driver.o)
                0x10046218                pmu::LDOSoCRegulator::getBrownout() const
 .text._ZN3pmu15LDOSoCRegulator11setBrownoutEm
                0x1004624c       0x44 /home/leon/git/swp-report/iMX6_Platform_SDK/output/mx6sdl/lib/libsdk.a(pmu_driver.o)
                0x1004624c                pmu::LDOSoCRegulator::setBrownout(unsigned long)
 .text._ZN3pmu9_pmu_infoC2Ev
                0x10046290       0x84 /home/leon/git/swp-report/iMX6_Platform_SDK/output/mx6sdl/lib/libsdk.a(pmu_driver.o)
                0x10046290                pmu::_pmu_info::_pmu_info()
                0x10046290                pmu::_pmu_info::_pmu_info()
 .text._ZN3pmu15AnalogRegulatorC2I15_hw_pmu_reg_2p5EERVT_
                0x10046314       0x50 /home/leon/git/swp-report/iMX6_Platform_SDK/output/mx6sdl/lib/libsdk.a(pmu_driver.o)
                0x10046314                pmu::AnalogRegulator::AnalogRegulator<_hw_pmu_reg_2p5>(_hw_pmu_reg_2p5 volatile&)
                0x10046314                pmu::AnalogRegulator::AnalogRegulator<_hw_pmu_reg_2p5>(_hw_pmu_reg_2p5 volatile&)
 .text._ZN3pmu15AnalogRegulatorC2I15_hw_pmu_reg_3p0EERVT_
                0x10046364       0x50 /home/leon/git/swp-report/iMX6_Platform_SDK/output/mx6sdl/lib/libsdk.a(pmu_driver.o)
                0x10046364                pmu::AnalogRegulator::AnalogRegulator<_hw_pmu_reg_3p0>(_hw_pmu_reg_3p0 volatile&)
                0x10046364                pmu::AnalogRegulator::AnalogRegulator<_hw_pmu_reg_3p0>(_hw_pmu_reg_3p0 volatile&)
 .text          0x100463b4      0xb4c /home/leon/git/swp-report/iMX6_Platform_SDK/output/mx6sdl/lib/libsdk.a(pwm.o)
                0x100463b4                pwm_init
                0x100468cc                pwm_clear_int_status
                0x100469b8                pwm_setup_interrupt
                0x10046c80                pwm_free_interrupt
                0x10046d28                pwm_isr_test_end
                0x10046d6c                pwm_enable
                0x10046df4                pwm_disable
                0x10046e84                pwm_get_clock_freq
 .text          0x10046f00      0x3b0 /home/leon/git/swp-report/iMX6_Platform_SDK/output/mx6sdl/lib/libsdk.a(rtc.o)
                0x10046f00                snvs_rtc_interrupt_handler
                0x1004701c                snvs_rtc_setup_interrupt
                0x10047080                rtc_init
                0x10047100                rtc_deinit
                0x1004715c                rtc_setup_onetime_timer
                0x100471d0                rtc_setup_periodic_timer
                0x10047258                rtc_disable_periodic_timer
 .text          0x100472b0      0x210 /home/leon/git/swp-report/iMX6_Platform_SDK/output/mx6sdl/lib/libsdk.a(srtc.o)
                0x100472b0                snvs_srtc_setup_interrupt
                0x10047314                snvs_srtc_interrupt_handler
                0x100473d8                srtc_init
                0x1004741c                srtc_deinit
                0x1004744c                srtc_setup_onetime_timer
 .text          0x100474c0     0x1224 /home/leon/git/swp-report/iMX6_Platform_SDK/output/mx6sdl/lib/libsdk.a(sdma.o)
                0x10047a0c                sdma_init
                0x10047bd4                sdma_deinit
                0x10047cc8                sdma_channel_start
                0x10047d74                sdma_channel_stop
                0x10047dd4                sdma_channel_request
                0x100481cc                sdma_channel_release
                0x100483ec                sdma_channel_status
                0x10048520                sdma_lookup_script
                0x1004860c                sdma_setup_interrupt
                0x10048680                sdma_channel_isr_attach
 .text          0x100486e4        0x0 /home/leon/git/swp-report/iMX6_Platform_SDK/output/mx6sdl/lib/libsdk.a(sdma_script_info.o)
 .text          0x100486e4      0x4e8 /home/leon/git/swp-report/iMX6_Platform_SDK/output/mx6sdl/lib/libsdk.a(snvs.o)
                0x100486e4                snvs_rtc_counter
                0x1004878c                snvs_rtc_alarm
                0x10048834                snvs_rtc_periodic_interrupt
                0x10048918                snvs_rtc_set_counter
                0x10048970                snvs_rtc_set_alarm_timeout
                0x100489c8                snvs_srtc_counter
                0x10048a70                snvs_srtc_alarm
                0x10048b18                snvs_srtc_set_counter
                0x10048b70                snvs_srtc_set_alarm_timeout
                0x10048bac                snvs_init
                0x10048bbc                snvs_deinit
 .text          0x10048bcc     0x132c /home/leon/git/swp-report/iMX6_Platform_SDK/output/mx6sdl/lib/libsdk.a(ecspi.o)
                0x100491bc                ecspi_configure
                0x10049b44                ecspi_open
                0x10049bfc                ecspi_close
                0x10049d08                ecspi_xfer
 .text          0x10049ef8      0x4e8 /home/leon/git/swp-report/iMX6_Platform_SDK/output/mx6sdl/lib/libsdk.a(tempmon.o)
                0x10049ef8                compute_temp
                0x10049fa8                compute_alarm
                0x1004a0a4                tempmon_init
                0x1004a16c                tempmon_get_temp
                0x1004a24c                tempmon_set_alarm
                0x1004a374                tempmon_disable_alarm
 .text          0x1004a3e0      0x528 /home/leon/git/swp-report/iMX6_Platform_SDK/output/mx6sdl/lib/libsdk.a(gpt.o)
                0x1004a400                gpt_get_rollover_event
                0x1004a44c                gpt_get_capture_event
                0x1004a4fc                gpt_set_capture_event
                0x1004a584                gpt_get_compare_event
                0x1004a5ec                gpt_set_compare_event
                0x1004a6f4                gpt_counter_disable
                0x1004a72c                gpt_counter_enable
                0x1004a774                gpt_setup_interrupt
                0x1004a7d8                gpt_init
 .text          0x1004a908      0x3a8 /home/leon/git/swp-report/iMX6_Platform_SDK/output/mx6sdl/lib/libsdk.a(usb_common.o)
                0x1004a908                usb_get_port_speed
                0x1004aaa4                swap32
                0x1004ab20                get_menu_item
 .text          0x1004acb0     0x2ac4 /home/leon/git/swp-report/iMX6_Platform_SDK/output/mx6sdl/lib/libsdk.a(usbd_drv.o)
                0x1004acb0                usbd_device_init
                0x1004bcd8                usbd_bus_reset
                0x1004c044                usbd_get_setup_packet
                0x1004c5fc                usbd_device_send_control_packet
                0x1004ca10                usbd_device_send_zero_len_packet
                0x1004cd90                usbd_endpoint_qh_init
                0x1004ceb4                usbd_dtd_init
                0x1004d000                usbd_add_dtd
                0x1004d694                usbd_reclaim_dtd
 .text          0x1004d774     0x37f0 /home/leon/git/swp-report/iMX6_Platform_SDK/output/mx6sdl/lib/libsdk.a(usbh_drv.o)
                0x1004d774                usbh_init
                0x1004e704                usbh_periodic_schedule_init
                0x1004ff5c                usbh_bus_reset
                0x10050260                usbh_enable_asynchronous_schedule
                0x10050564                usbh_disable_asynchronous_schedule
                0x10050868                usbh_disable_Periodic_list
                0x10050b6c                usbh_qtd_init
                0x10050d94                usbh_qh_init
 .text          0x10050f64     0x11b8 /home/leon/git/swp-report/iMX6_Platform_SDK/output/mx6sdl/lib/libsdk.a(usdhc.o)
                0x1005117c                set_card_access_mode
                0x100511bc                read_usdhc_adma_mode
                0x100511dc                read_usdhc_intr_mode
                0x100511fc                card_init
                0x100513ac                card_emmc_init
                0x10051440                card_cmd_config
                0x10051554                card_get_cid
                0x100515f4                card_enter_trans
                0x100516d0                card_trans_status
                0x100517cc                card_get_port
                0x100518b4                card_set_blklen
                0x10051998                card_data_read
                0x10051c84                card_data_write
                0x10051f84                card_xfer_result
                0x10052078                card_wait_xfer_done
 .text          0x1005211c     0x3484 /home/leon/git/swp-report/iMX6_Platform_SDK/output/mx6sdl/lib/libsdk.a(usdhc_host.o)
                0x100534fc                usdhc1_isr
                0x10053514                usdhc2_isr
                0x1005352c                usdhc3_isr
                0x10053544                usdhc4_isr
                0x1005355c                host_init
                0x1005358c                host_init_active
                0x10053634                host_send_cmd
                0x10053a5c                host_cfg_clock
                0x100541f8                host_set_bus_width
                0x10054230                host_reset
                0x10054360                host_read_response
                0x10054550                host_cfg_block
                0x100547cc                host_clear_fifo
                0x10054978                host_setup_adma
                0x10054b98                host_data_read
                0x100550a0                host_data_write
 .text          0x100555a0      0xe04 /home/leon/git/swp-report/iMX6_Platform_SDK/output/mx6sdl/lib/libsdk.a(usdhc_mmc.o)
                0x10055b40                mmc_init
                0x10055be4                emmc_init
                0x10055d10                emmc_print_cfg_info
                0x10055f48                mmc_set_boot_bus_width
                0x10056010                mmc_set_boot_partition
                0x10056110                mmc_set_boot_ack
                0x10056194                mmc_voltage_validation
 .text          0x100563a4      0x800 /home/leon/git/swp-report/iMX6_Platform_SDK/output/mx6sdl/lib/libsdk.a(usdhc_sd.o)
                0x10056738                sd_init
                0x100567f0                sd_voltage_validation
 .text          0x10056ba4       0x60 /home/leon/git/swp-report/iMX6_Platform_SDK/output/mx6sdl/lib/libsdk.a(spinlock.o)
                0x10056ba4                spinlock_init
                0x10056bcc                spinlock_is_locked
 .text          0x10056c04       0x60 /home/leon/git/swp-report/iMX6_Platform_SDK/output/mx6sdl/lib/libsdk.a(spinlock_lock_unlock.o)
                0x10056c04                spinlock_lock
                0x10056c30                spinlock_unlock
 .text          0x10056c64        0x0 /home/leon/git/swp-report/iMX6_Platform_SDK/output/mx6sdl/lib/libsdk.a(camera_profile.o)
 .text          0x10056c64     0x1e94 /home/leon/git/swp-report/iMX6_Platform_SDK/output/mx6sdl/lib/libsdk.a(hdmi_common.o)
                0x10056c64                isColorSpaceConversion
                0x10056ca0                isColorSpaceDecimation
                0x10056cdc                isColorSpaceInterpolation
                0x10056d30                isPixelRepetition
                0x10056d68                hdmi_set_video_mode
 .text          0x10058af8      0x2fc /home/leon/git/swp-report/iMX6_Platform_SDK/output/mx6sdl/lib/libsdk.a(mx6x_usb.o)
                0x10058af8                usbEnableClocks
                0x10058c20                usbEnableTransceiver
 .text          0x10058df4      0x144 /home/leon/git/swp-report/iMX6_Platform_SDK/output/mx6sdl/lib/libboard_smart_device_rev_a.a(board_audio.o)
                0x10058df4                SGTL5000PowerUp_and_clockinit
                0x10058e04                spdif_get_tx_clk_freq
                0x10058e20                audio_codec_power_on
                0x10058e5c                audio_clock_config
                0x10058e84                spdif_clk_cfg
                0x10058ee8                esai_codec_power_on
                0x10058f00                esai_clk_sel_gate_on
 .text          0x10058f38      0x38c /home/leon/git/swp-report/iMX6_Platform_SDK/output/mx6sdl/lib/libboard_smart_device_rev_a.a(board_camera.o)
                0x10058f38                camera_power_on
                0x10058f48                csi_port0_iomux_config
                0x10058f7c                camera_ipu1_iomux_config
                0x10059118                sensor_reset
                0x100591b0                sensor_standby
                0x1005922c                sensor_clock_setting
 .text          0x100592c4      0x44c /home/leon/git/swp-report/iMX6_Platform_SDK/output/mx6sdl/lib/libboard_smart_device_rev_a.a(board_display.o)
                0x100592c4                lvds_power_on
                0x1005932c                disable_para_panel
                0x1005937c                tftlcd_backlight_en
                0x10059458                tftlcd_reset
                0x100594f0                ldb_clock_config
                0x100595ec                epdc_clock_setting
                0x10059668                epdc_power_supply
 .text          0x10059710      0x200 /home/leon/git/swp-report/iMX6_Platform_SDK/output/mx6sdl/lib/libboard_smart_device_rev_a.a(board_hdmi.o)
                0x10059710                hdmi_tx_cec_pgm_iomux
                0x10059754                hdmi_tx_ddc_pgm_iomux
                0x100597cc                hdmi_tx_phydtb_pgm_iomux
                0x1005981c                hdmi_pgm_iomux
                0x1005983c                ext_hdmi_transmitter_power_on
                0x1005984c                hdmi_clock_set
 .text          0x10059910        0x0 /home/leon/git/swp-report/iMX6_Platform_SDK/output/mx6sdl/lib/libboard_smart_device_rev_a.a(board_i2c.o)
 .text          0x10059910      0x240 /home/leon/git/swp-report/iMX6_Platform_SDK/output/mx6sdl/lib/libboard_smart_device_rev_a.a(board_mipi.o)
                0x10059910                mipi_cam_power_on
                0x100599b8                mipi_backlight_en
                0x10059a08                mipi_display_reset
                0x10059a78                mipi_clock_set
                0x10059aa8                mipi_csi2_clock_set
 .text          0x10059b50       0x94 /home/leon/git/swp-report/iMX6_Platform_SDK/output/mx6sdl/lib/libboard_smart_device_rev_a.a(board_network.o)
                0x10059b50                imx_ar8031_iomux
                0x10059b64                imx_KSZ9021RN_reset
                0x10059b74                imx_ar8031_reset
                0x10059bbc                imx_enet_iomux
                0x10059bd0                imx_enet_phy_reset
 .text          0x10059be4      0x23c /home/leon/git/swp-report/iMX6_Platform_SDK/output/mx6sdl/lib/libboard_smart_device_rev_a.a(board_pcie.o)
                0x10059be4                pcie_clk_setup
                0x10059c80                pcie_card_pwr_setup
                0x10059ce8                pcie_enable_extrn_125mhz_clk
                0x10059d58                pcie_enable_extrn_100mhz_clk
                0x10059dc8                pcie_card_rst
 .text          0x10059e20      0x128 /home/leon/git/swp-report/iMX6_Platform_SDK/output/mx6sdl/lib/libboard_smart_device_rev_a.a(board_usb.o)
                0x10059e20                usbEnableVbus
                0x10059ecc                usbDisableVbus
                0x10059f38                reset_usb_hub
 .text          0x10059f48      0x154 /home/leon/git/swp-report/iMX6_Platform_SDK/output/mx6sdl/lib/libboard_smart_device_rev_a.a(board_usdhc.o)
                0x10059f48                usdhc_gpio_config
                0x10059f8c                usdhc_card_detected
                0x1005a014                usdhc_write_protected
 .text          0x1005a09c       0x84 /home/leon/git/swp-report/iMX6_Platform_SDK/output/mx6sdl/lib/libboard_smart_device_rev_a.a(ecspi_iomux_config.o)
                0x1005a09c                ecspi_iomux_config
 .text          0x1005a120       0x84 /home/leon/git/swp-report/iMX6_Platform_SDK/output/mx6sdl/lib/libboard_smart_device_rev_a.a(i2c_iomux_config.o)
                0x1005a120                i2c_iomux_config
 .text          0x1005a1a4       0x84 /home/leon/git/swp-report/iMX6_Platform_SDK/output/mx6sdl/lib/libboard_smart_device_rev_a.a(pwm_iomux_config.o)
                0x1005a1a4                pwm_iomux_config
 .text          0x1005a228       0x84 /home/leon/git/swp-report/iMX6_Platform_SDK/output/mx6sdl/lib/libboard_smart_device_rev_a.a(usdhc_iomux_config.o)
                0x1005a228                usdhc_iomux_config
 .text          0x1005a2ac        0x0 /home/leon/riotboard/arm-2012.09/bin/../arm-none-eabi/lib//libstdc++.a(pure.o)
 .text.__cxa_pure_virtual
                0x1005a2ac       0x1c /home/leon/riotboard/arm-2012.09/bin/../arm-none-eabi/lib//libstdc++.a(pure.o)
                0x1005a2ac                __cxa_pure_virtual
 .text.__cxa_deleted_virtual
                0x1005a2c8       0x1c /home/leon/riotboard/arm-2012.09/bin/../arm-none-eabi/lib//libstdc++.a(pure.o)
                0x1005a2c8                __cxa_deleted_virtual
 .text          0x1005a2e4        0x0 /home/leon/riotboard/arm-2012.09/bin/../arm-none-eabi/lib//libstdc++.a(eh_terminate.o)
 .text._ZN10__cxxabiv111__terminateEPFvvE
                0x1005a2e4       0x34 /home/leon/riotboard/arm-2012.09/bin/../arm-none-eabi/lib//libstdc++.a(eh_terminate.o)
                0x1005a2e4                __cxxabiv1::__terminate(void (*)())
 .text._ZSt9terminatev
                0x1005a318       0x14 /home/leon/riotboard/arm-2012.09/bin/../arm-none-eabi/lib//libstdc++.a(eh_terminate.o)
                0x1005a318                std::terminate()
 .text._ZN10__cxxabiv112__unexpectedEPFvvE
                0x1005a32c       0x10 /home/leon/riotboard/arm-2012.09/bin/../arm-none-eabi/lib//libstdc++.a(eh_terminate.o)
                0x1005a32c                __cxxabiv1::__unexpected(void (*)())
 .text._ZSt10unexpectedv
                0x1005a33c       0x14 /home/leon/riotboard/arm-2012.09/bin/../arm-none-eabi/lib//libstdc++.a(eh_terminate.o)
                0x1005a33c                std::unexpected()
 .text._ZSt13set_terminatePFvvE
                0x1005a350       0x18 /home/leon/riotboard/arm-2012.09/bin/../arm-none-eabi/lib//libstdc++.a(eh_terminate.o)
                0x1005a350                std::set_terminate(void (*)())
 .text._ZSt14set_unexpectedPFvvE
                0x1005a368       0x18 /home/leon/riotboard/arm-2012.09/bin/../arm-none-eabi/lib//libstdc++.a(eh_terminate.o)
                0x1005a368                std::set_unexpected(void (*)())
 .text          0x1005a380        0x0 /home/leon/riotboard/arm-2012.09/bin/../arm-none-eabi/lib//libstdc++.a(eh_unex_handler.o)
 .text          0x1005a380        0x0 /home/leon/riotboard/arm-2012.09/bin/../arm-none-eabi/lib//libstdc++.a(eh_call.o)
 .text._ZN10__cxxabiv1L24__is_gxx_exception_classEPc
                0x1005a380       0x70 /home/leon/riotboard/arm-2012.09/bin/../arm-none-eabi/lib//libstdc++.a(eh_call.o)
 .text.__cxa_call_terminate
                0x1005a3f0       0x2c /home/leon/riotboard/arm-2012.09/bin/../arm-none-eabi/lib//libstdc++.a(eh_call.o)
                0x1005a3f0                __cxa_call_terminate
 .text.__cxa_call_unexpected
                0x1005a41c      0x134 /home/leon/riotboard/arm-2012.09/bin/../arm-none-eabi/lib//libstdc++.a(eh_call.o)
                0x1005a41c                __cxa_call_unexpected
 .text          0x1005a550        0x0 /home/leon/riotboard/arm-2012.09/bin/../arm-none-eabi/lib//libstdc++.a(eh_throw.o)
 .text._ZL23__gxx_exception_cleanup19_Unwind_Reason_CodeP21_Unwind_Control_Block
                0x1005a550       0x3c /home/leon/riotboard/arm-2012.09/bin/../arm-none-eabi/lib//libstdc++.a(eh_throw.o)
 .text.__cxa_throw
                0x1005a58c       0x94 /home/leon/riotboard/arm-2012.09/bin/../arm-none-eabi/lib//libstdc++.a(eh_throw.o)
                0x1005a58c                __cxa_throw
 .text.__cxa_rethrow
                0x1005a620       0xb0 /home/leon/riotboard/arm-2012.09/bin/../arm-none-eabi/lib//libstdc++.a(eh_throw.o)
                0x1005a620                __cxa_rethrow
 .text          0x1005a6d0        0x0 /home/leon/riotboard/arm-2012.09/bin/../arm-none-eabi/lib//libstdc++.a(eh_arm.o)
 .text.__cxa_end_cleanup
                0x1005a6d0       0x10 /home/leon/riotboard/arm-2012.09/bin/../arm-none-eabi/lib//libstdc++.a(eh_arm.o)
                0x1005a6d0                __cxa_end_cleanup
 .text.__cxa_type_match
                0x1005a6e0      0x14c /home/leon/riotboard/arm-2012.09/bin/../arm-none-eabi/lib//libstdc++.a(eh_arm.o)
                0x1005a6e0                __cxa_type_match
 .text.__cxa_begin_cleanup
                0x1005a82c       0xb0 /home/leon/riotboard/arm-2012.09/bin/../arm-none-eabi/lib//libstdc++.a(eh_arm.o)
                0x1005a82c                __cxa_begin_cleanup
 .text.__gnu_end_cleanup
                0x1005a8dc       0xb0 /home/leon/riotboard/arm-2012.09/bin/../arm-none-eabi/lib//libstdc++.a(eh_arm.o)
                0x1005a8dc                __gnu_end_cleanup
 .text          0x1005a98c        0x0 /home/leon/riotboard/arm-2012.09/bin/../arm-none-eabi/lib//libstdc++.a(eh_exception.o)
 .text._ZNSt9exceptionD2Ev
                0x1005a98c       0x10 /home/leon/riotboard/arm-2012.09/bin/../arm-none-eabi/lib//libstdc++.a(eh_exception.o)
                0x1005a98c                std::exception::~exception()
                0x1005a98c                std::exception::~exception()
 .text._ZNSt13bad_exceptionD2Ev
                0x1005a99c       0x10 /home/leon/riotboard/arm-2012.09/bin/../arm-none-eabi/lib//libstdc++.a(eh_exception.o)
                0x1005a99c                std::bad_exception::~bad_exception()
                0x1005a99c                std::bad_exception::~bad_exception()
 .text._ZN10__cxxabiv115__forced_unwindD2Ev
                0x1005a9ac       0x10 /home/leon/riotboard/arm-2012.09/bin/../arm-none-eabi/lib//libstdc++.a(eh_exception.o)
                0x1005a9ac                __cxxabiv1::__forced_unwind::~__forced_unwind()
                0x1005a9ac                __cxxabiv1::__forced_unwind::~__forced_unwind()
 .text._ZN10__cxxabiv119__foreign_exceptionD2Ev
                0x1005a9bc       0x10 /home/leon/riotboard/arm-2012.09/bin/../arm-none-eabi/lib//libstdc++.a(eh_exception.o)
                0x1005a9bc                __cxxabiv1::__foreign_exception::~__foreign_exception()
                0x1005a9bc                __cxxabiv1::__foreign_exception::~__foreign_exception()
 .text._ZNKSt9exception4whatEv
                0x1005a9cc        0xc /home/leon/riotboard/arm-2012.09/bin/../arm-none-eabi/lib//libstdc++.a(eh_exception.o)
                0x1005a9cc                std::exception::what() const
 .text._ZNKSt13bad_exception4whatEv
                0x1005a9d8        0xc /home/leon/riotboard/arm-2012.09/bin/../arm-none-eabi/lib//libstdc++.a(eh_exception.o)
                0x1005a9d8                std::bad_exception::what() const
 .text._ZN10__cxxabiv119__foreign_exceptionD0Ev
                0x1005a9e4       0x24 /home/leon/riotboard/arm-2012.09/bin/../arm-none-eabi/lib//libstdc++.a(eh_exception.o)
                0x1005a9e4                __cxxabiv1::__foreign_exception::~__foreign_exception()
 .text._ZN10__cxxabiv115__forced_unwindD0Ev
                0x1005aa08       0x24 /home/leon/riotboard/arm-2012.09/bin/../arm-none-eabi/lib//libstdc++.a(eh_exception.o)
                0x1005aa08                __cxxabiv1::__forced_unwind::~__forced_unwind()
 .text._ZNSt9exceptionD0Ev
                0x1005aa2c       0x24 /home/leon/riotboard/arm-2012.09/bin/../arm-none-eabi/lib//libstdc++.a(eh_exception.o)
                0x1005aa2c                std::exception::~exception()
 .text._ZNSt13bad_exceptionD0Ev
                0x1005aa50       0x24 /home/leon/riotboard/arm-2012.09/bin/../arm-none-eabi/lib//libstdc++.a(eh_exception.o)
                0x1005aa50                std::bad_exception::~bad_exception()
 .text          0x1005aa74        0x0 /home/leon/riotboard/arm-2012.09/bin/../arm-none-eabi/lib//libstdc++.a(eh_alloc.o)
 .text.__cxa_allocate_exception
                0x1005aa74       0x98 /home/leon/riotboard/arm-2012.09/bin/../arm-none-eabi/lib//libstdc++.a(eh_alloc.o)
                0x1005aa74                __cxa_allocate_exception
 .text.__cxa_free_exception
                0x1005ab0c       0x54 /home/leon/riotboard/arm-2012.09/bin/../arm-none-eabi/lib//libstdc++.a(eh_alloc.o)
                0x1005ab0c                __cxa_free_exception
 .text.__cxa_allocate_dependent_exception
                0x1005ab60       0x90 /home/leon/riotboard/arm-2012.09/bin/../arm-none-eabi/lib//libstdc++.a(eh_alloc.o)
                0x1005ab60                __cxa_allocate_dependent_exception
 .text.__cxa_free_dependent_exception
                0x1005abf0       0x5c /home/leon/riotboard/arm-2012.09/bin/../arm-none-eabi/lib//libstdc++.a(eh_alloc.o)
                0x1005abf0                __cxa_free_dependent_exception
 .text          0x1005ac4c        0x0 /home/leon/riotboard/arm-2012.09/bin/../arm-none-eabi/lib//libstdc++.a(eh_globals.o)
 .text.__cxa_get_globals_fast
                0x1005ac4c        0xc /home/leon/riotboard/arm-2012.09/bin/../arm-none-eabi/lib//libstdc++.a(eh_globals.o)
                0x1005ac4c                __cxa_get_globals_fast
 .text.__cxa_get_globals
                0x1005ac58        0xc /home/leon/riotboard/arm-2012.09/bin/../arm-none-eabi/lib//libstdc++.a(eh_globals.o)
                0x1005ac58                __cxa_get_globals
 .text          0x1005ac64        0x0 /home/leon/riotboard/arm-2012.09/bin/../arm-none-eabi/lib//libstdc++.a(si_class_type_info.o)
 .text._ZNK10__cxxabiv120__si_class_type_info12__do_dyncastEiNS_17__class_type_info10__sub_kindEPKS1_PKvS4_S6_RNS1_16__dyncast_resultE
                0x1005ac64       0xdc /home/leon/riotboard/arm-2012.09/bin/../arm-none-eabi/lib//libstdc++.a(si_class_type_info.o)
                0x1005ac64                __cxxabiv1::__si_class_type_info::__do_dyncast(int, __cxxabiv1::__class_type_info::__sub_kind, __cxxabiv1::__class_type_info const*, void const*, __cxxabiv1::__class_type_info const*, void const*, __cxxabiv1::__class_type_info::__dyncast_result&) const
 .text._ZN10__cxxabiv120__si_class_type_infoD2Ev
                0x1005ad40       0x24 /home/leon/riotboard/arm-2012.09/bin/../arm-none-eabi/lib//libstdc++.a(si_class_type_info.o)
                0x1005ad40                __cxxabiv1::__si_class_type_info::~__si_class_type_info()
                0x1005ad40                __cxxabiv1::__si_class_type_info::~__si_class_type_info()
 .text._ZN10__cxxabiv120__si_class_type_infoD0Ev
                0x1005ad64       0x20 /home/leon/riotboard/arm-2012.09/bin/../arm-none-eabi/lib//libstdc++.a(si_class_type_info.o)
                0x1005ad64                __cxxabiv1::__si_class_type_info::~__si_class_type_info()
 .text._ZNK10__cxxabiv120__si_class_type_info11__do_upcastEPKNS_17__class_type_infoEPKvRNS1_15__upcast_resultE
                0x1005ad84       0x4c /home/leon/riotboard/arm-2012.09/bin/../arm-none-eabi/lib//libstdc++.a(si_class_type_info.o)
                0x1005ad84                __cxxabiv1::__si_class_type_info::__do_upcast(__cxxabiv1::__class_type_info const*, void const*, __cxxabiv1::__class_type_info::__upcast_result&) const
 .text._ZNK10__cxxabiv120__si_class_type_info20__do_find_public_srcEiPKvPKNS_17__class_type_infoES2_
                0x1005add0       0x6c /home/leon/riotboard/arm-2012.09/bin/../arm-none-eabi/lib//libstdc++.a(si_class_type_info.o)
                0x1005add0                __cxxabiv1::__si_class_type_info::__do_find_public_src(int, void const*, __cxxabiv1::__class_type_info const*, void const*) const
 .text          0x1005ae3c        0x0 /home/leon/riotboard/arm-2012.09/bin/../arm-none-eabi/lib//libstdc++.a(eh_personality.o)
 .text._ZL12read_sleb128PKhPl
                0x1005ae3c       0x44 /home/leon/riotboard/arm-2012.09/bin/../arm-none-eabi/lib//libstdc++.a(eh_personality.o)
 .text._ZL28read_encoded_value_with_basehjPKhPj
                0x1005ae80      0x170 /home/leon/riotboard/arm-2012.09/bin/../arm-none-eabi/lib//libstdc++.a(eh_personality.o)
 .text._ZL21base_of_encoded_valuehP15_Unwind_Context
                0x1005aff0       0x7c /home/leon/riotboard/arm-2012.09/bin/../arm-none-eabi/lib//libstdc++.a(eh_personality.o)
 .text._ZL17parse_lsda_headerP15_Unwind_ContextPKhP16lsda_header_info
                0x1005b06c       0xd8 /home/leon/riotboard/arm-2012.09/bin/../arm-none-eabi/lib//libstdc++.a(eh_personality.o)
 .text.__gxx_personality_v0
                0x1005b144      0x620 /home/leon/riotboard/arm-2012.09/bin/../arm-none-eabi/lib//libstdc++.a(eh_personality.o)
                0x1005b144                __gxx_personality_v0
 .text          0x1005b764        0x0 /home/leon/riotboard/arm-2012.09/bin/../arm-none-eabi/lib//libstdc++.a(eh_term_handler.o)
 .text          0x1005b764        0x0 /home/leon/riotboard/arm-2012.09/bin/../arm-none-eabi/lib//libstdc++.a(eh_catch.o)
 .text.__cxa_get_exception_ptr
                0x1005b764        0x8 /home/leon/riotboard/arm-2012.09/bin/../arm-none-eabi/lib//libstdc++.a(eh_catch.o)
                0x1005b764                __cxa_get_exception_ptr
 .text.__cxa_begin_catch
                0x1005b76c       0xdc /home/leon/riotboard/arm-2012.09/bin/../arm-none-eabi/lib//libstdc++.a(eh_catch.o)
                0x1005b76c                __cxa_begin_catch
 .text.__cxa_end_catch
                0x1005b848       0xdc /home/leon/riotboard/arm-2012.09/bin/../arm-none-eabi/lib//libstdc++.a(eh_catch.o)
                0x1005b848                __cxa_end_catch
 .text._ZSt18uncaught_exceptionv
                0x1005b924       0x1c /home/leon/riotboard/arm-2012.09/bin/../arm-none-eabi/lib//libstdc++.a(eh_catch.o)
                0x1005b924                std::uncaught_exception()
 .text          0x1005b940        0x0 /home/leon/riotboard/arm-2012.09/bin/../arm-none-eabi/lib//libstdc++.a(class_type_info.o)
 .text._ZNK10__cxxabiv117__class_type_info11__do_upcastEPKS0_PPv
                0x1005b940       0x64 /home/leon/riotboard/arm-2012.09/bin/../arm-none-eabi/lib//libstdc++.a(class_type_info.o)
                0x1005b940                __cxxabiv1::__class_type_info::__do_upcast(__cxxabiv1::__class_type_info const*, void**) const
 .text._ZNK10__cxxabiv117__class_type_info20__do_find_public_srcEiPKvPKS0_S2_
                0x1005b9a4       0x14 /home/leon/riotboard/arm-2012.09/bin/../arm-none-eabi/lib//libstdc++.a(class_type_info.o)
                0x1005b9a4                __cxxabiv1::__class_type_info::__do_find_public_src(int, void const*, __cxxabiv1::__class_type_info const*, void const*) const
 .text._ZNK10__cxxabiv117__class_type_info11__do_upcastEPKS0_PKvRNS0_15__upcast_resultE
                0x1005b9b8       0x38 /home/leon/riotboard/arm-2012.09/bin/../arm-none-eabi/lib//libstdc++.a(class_type_info.o)
                0x1005b9b8                __cxxabiv1::__class_type_info::__do_upcast(__cxxabiv1::__class_type_info const*, void const*, __cxxabiv1::__class_type_info::__upcast_result&) const
 .text._ZN10__cxxabiv117__class_type_infoD2Ev
                0x1005b9f0       0x24 /home/leon/riotboard/arm-2012.09/bin/../arm-none-eabi/lib//libstdc++.a(class_type_info.o)
                0x1005b9f0                __cxxabiv1::__class_type_info::~__class_type_info()
                0x1005b9f0                __cxxabiv1::__class_type_info::~__class_type_info()
 .text._ZN10__cxxabiv117__class_type_infoD0Ev
                0x1005ba14       0x20 /home/leon/riotboard/arm-2012.09/bin/../arm-none-eabi/lib//libstdc++.a(class_type_info.o)
                0x1005ba14                __cxxabiv1::__class_type_info::~__class_type_info()
 .text._ZNK10__cxxabiv117__class_type_info12__do_dyncastEiNS0_10__sub_kindEPKS0_PKvS3_S5_RNS0_16__dyncast_resultE
                0x1005ba34       0x7c /home/leon/riotboard/arm-2012.09/bin/../arm-none-eabi/lib//libstdc++.a(class_type_info.o)
                0x1005ba34                __cxxabiv1::__class_type_info::__do_dyncast(int, __cxxabiv1::__class_type_info::__sub_kind, __cxxabiv1::__class_type_info const*, void const*, __cxxabiv1::__class_type_info const*, void const*, __cxxabiv1::__class_type_info::__dyncast_result&) const
 .text._ZNK10__cxxabiv117__class_type_info10__do_catchEPKSt9type_infoPPvj
                0x1005bab0       0x54 /home/leon/riotboard/arm-2012.09/bin/../arm-none-eabi/lib//libstdc++.a(class_type_info.o)
                0x1005bab0                __cxxabiv1::__class_type_info::__do_catch(std::type_info const*, void**, unsigned int) const
 .text          0x1005bb04        0x0 /home/leon/riotboard/arm-2012.09/bin/../arm-none-eabi/lib//libstdc++.a(vterminate.o)
 .text._ZN9__gnu_cxx27__verbose_terminate_handlerEv
                0x1005bb04      0x19c /home/leon/riotboard/arm-2012.09/bin/../arm-none-eabi/lib//libstdc++.a(vterminate.o)
                0x1005bb04                __gnu_cxx::__verbose_terminate_handler()
 .text          0x1005bca0     0x7c50 /home/leon/riotboard/arm-2012.09/bin/../arm-none-eabi/lib//libstdc++.a(cp-demangle.o)
                0x10063774                __cxa_demangle
                0x100638c0                __gcclibcxx_demangle_callback
 .text          0x100638f0        0x0 /home/leon/riotboard/arm-2012.09/bin/../arm-none-eabi/lib//libstdc++.a(eh_type.o)
 .text.__cxa_current_exception_type
                0x100638f0       0x30 /home/leon/riotboard/arm-2012.09/bin/../arm-none-eabi/lib//libstdc++.a(eh_type.o)
                0x100638f0                __cxa_current_exception_type
 .text          0x10063920        0x0 /home/leon/riotboard/arm-2012.09/bin/../arm-none-eabi/lib//libstdc++.a(del_op.o)
 .text._ZdlPv   0x10063920       0x14 /home/leon/riotboard/arm-2012.09/bin/../arm-none-eabi/lib//libstdc++.a(del_op.o)
                0x10063920                operator delete(void*)
 .text          0x10063934        0x0 /home/leon/riotboard/arm-2012.09/bin/../arm-none-eabi/lib//libstdc++.a(tinfo.o)
 .text._ZNSt9type_infoD2Ev
                0x10063934       0x10 /home/leon/riotboard/arm-2012.09/bin/../arm-none-eabi/lib//libstdc++.a(tinfo.o)
                0x10063934                std::type_info::~type_info()
                0x10063934                std::type_info::~type_info()
 .text._ZNKSt9type_info14__is_pointer_pEv
                0x10063944        0x8 /home/leon/riotboard/arm-2012.09/bin/../arm-none-eabi/lib//libstdc++.a(tinfo.o)
                0x10063944                std::type_info::__is_pointer_p() const
 .text._ZNKSt9type_info15__is_function_pEv
                0x1006394c        0x8 /home/leon/riotboard/arm-2012.09/bin/../arm-none-eabi/lib//libstdc++.a(tinfo.o)
                0x1006394c                std::type_info::__is_function_p() const
 .text._ZNKSt9type_info11__do_upcastEPKN10__cxxabiv117__class_type_infoEPPv
                0x10063954        0x8 /home/leon/riotboard/arm-2012.09/bin/../arm-none-eabi/lib//libstdc++.a(tinfo.o)
                0x10063954                std::type_info::__do_upcast(__cxxabiv1::__class_type_info const*, void**) const
 .text._ZNSt9type_infoD0Ev
                0x1006395c       0x24 /home/leon/riotboard/arm-2012.09/bin/../arm-none-eabi/lib//libstdc++.a(tinfo.o)
                0x1006395c                std::type_info::~type_info()
 .text._ZNKSt9type_infoeqERKS_
                0x10063980       0x4c /home/leon/riotboard/arm-2012.09/bin/../arm-none-eabi/lib//libstdc++.a(tinfo.o)
                0x10063980                std::type_info::operator==(std::type_info const&) const
 .text._ZNKSt9type_info10__do_catchEPKS_PPvj
                0x100639cc        0x4 /home/leon/riotboard/arm-2012.09/bin/../arm-none-eabi/lib//libstdc++.a(tinfo.o)
                0x100639cc                std::type_info::__do_catch(std::type_info const*, void**, unsigned int) const
 .text          0x100639d0       0xe8 /home/leon/riotboard/arm-2012.09/bin/../arm-none-eabi/lib//libc.a(lib_a-fwrite.o)
                0x100639d0                _fwrite_r
                0x10063a74                fwrite
 .text          0x10063ab8       0xb4 /home/leon/riotboard/arm-2012.09/bin/../arm-none-eabi/lib//libc.a(lib_a-memcmp.o)
                0x10063ab8                memcmp
 .text          0x10063b6c      0x140 /home/leon/riotboard/arm-2012.09/bin/../arm-none-eabi/lib//libc.a(lib_a-strncmp.o)
                0x10063b6c                strncmp
 .text          0x10063cac       0x30 /home/leon/riotboard/arm-2012.09/bin/../arm-none-eabi/lib//libc.a(lib_a-syswrite.o)
                0x10063cac                write
 .text          0x10063cdc      0x148 /home/leon/riotboard/arm-2012.09/bin/../lib/gcc/arm-none-eabi/4.7.2//libgcc.a(_divsi3.o)
                0x10063cdc                __aeabi_idiv
                0x10063cdc                __divsi3
                0x10063e04                __aeabi_idivmod
 .text          0x10063e24      0xfa8 /home/leon/riotboard/arm-2012.09/bin/../lib/gcc/arm-none-eabi/4.7.2//libgcc.a(unwind-arm.o)
                0x100642a4                _Unwind_GetCFA
                0x100642ac                __gnu_Unwind_RaiseException
                0x10064358                __gnu_Unwind_ForcedUnwind
                0x1006437c                __gnu_Unwind_Resume
                0x100643f4                __gnu_Unwind_Resume_or_Rethrow
                0x10064414                _Unwind_Complete
                0x10064418                _Unwind_DeleteException
                0x1006443c                _Unwind_VRS_Get
                0x100644b0                _Unwind_VRS_Set
                0x10064954                __aeabi_unwind_cpp_pr2
                0x1006495c                __aeabi_unwind_cpp_pr1
                0x10064964                __aeabi_unwind_cpp_pr0
                0x1006496c                __gnu_Unwind_Backtrace
                0x10064a38                _Unwind_VRS_Pop
 .text          0x10064dcc      0x1b0 /home/leon/riotboard/arm-2012.09/bin/../lib/gcc/arm-none-eabi/4.7.2//libgcc.a(libunwind.o)
                0x10064dcc                __restore_core_regs
                0x10064dcc                restore_core_regs
                0x10064de8                __gnu_Unwind_Restore_VFP
                0x10064df0                __gnu_Unwind_Save_VFP
                0x10064df8                __gnu_Unwind_Restore_VFP_D
                0x10064e00                __gnu_Unwind_Save_VFP_D
                0x10064e08                __gnu_Unwind_Restore_VFP_D_16_to_31
                0x10064e10                __gnu_Unwind_Save_VFP_D_16_to_31
                0x10064e18                __gnu_Unwind_Restore_WMMXD
                0x10064e5c                __gnu_Unwind_Save_WMMXD
                0x10064ea0                __gnu_Unwind_Restore_WMMXC
                0x10064eb4                __gnu_Unwind_Save_WMMXC
                0x10064ec8                ___Unwind_RaiseException
                0x10064ec8                _Unwind_RaiseException
                0x10064eec                ___Unwind_Resume
                0x10064eec                _Unwind_Resume
                0x10064f10                _Unwind_Resume_or_Rethrow
                0x10064f10                ___Unwind_Resume_or_Rethrow
                0x10064f34                ___Unwind_ForcedUnwind
                0x10064f34                _Unwind_ForcedUnwind
                0x10064f58                _Unwind_Backtrace
                0x10064f58                ___Unwind_Backtrace
 .text          0x10064f7c      0x53c /home/leon/riotboard/arm-2012.09/bin/../lib/gcc/arm-none-eabi/4.7.2//libgcc.a(pr-support.o)
                0x10065010                __gnu_unwind_execute
                0x1006542c                __gnu_unwind_frame
                0x10065474                _Unwind_GetRegionStart
                0x10065488                _Unwind_GetLanguageSpecificData
                0x100654a8                _Unwind_GetDataRelBase
                0x100654b0                _Unwind_GetTextRelBase
 *(.glue_7t)
 .glue_7t       0x00000000        0x0 linker stubs
 *(.glue_7)
 .glue_7        0x00000000        0x0 linker stubs
 *(.vfp11_veneer)
 .vfp11_veneer  0x00000000        0x0 linker stubs
 *(.ARM.extab* .gnu.linkonce.armextab.*)
 .ARM.extab.startup
                0x100654b8        0x0 /home/leon/git/swp-report/iMX6_Platform_SDK/output/mx6sdl/lib/libsdk.a(startup.o)
 .ARM.extab     0x100654b8        0x0 /home/leon/riotboard/arm-2012.09/bin/../lib/gcc/arm-none-eabi/4.7.2//libgcc.a(_divdi3.o)
 .ARM.extab     0x100654b8        0x0 /home/leon/riotboard/arm-2012.09/bin/../lib/gcc/arm-none-eabi/4.7.2//libgcc.a(_udivdi3.o)
 .ARM.extab.text.__cxa_pure_virtual
                0x100654b8        0xc /home/leon/riotboard/arm-2012.09/bin/../arm-none-eabi/lib//libstdc++.a(pure.o)
 .ARM.extab.text.__cxa_deleted_virtual
                0x100654c4        0xc /home/leon/riotboard/arm-2012.09/bin/../arm-none-eabi/lib//libstdc++.a(pure.o)
 .ARM.extab.text._ZN10__cxxabiv111__terminateEPFvvE
                0x100654d0       0x2c /home/leon/riotboard/arm-2012.09/bin/../arm-none-eabi/lib//libstdc++.a(eh_terminate.o)
 .ARM.extab.text._ZSt9terminatev
                0x100654fc        0x0 /home/leon/riotboard/arm-2012.09/bin/../arm-none-eabi/lib//libstdc++.a(eh_terminate.o)
 .ARM.extab.text._ZN10__cxxabiv112__unexpectedEPFvvE
                0x100654fc        0xc /home/leon/riotboard/arm-2012.09/bin/../arm-none-eabi/lib//libstdc++.a(eh_terminate.o)
 .ARM.extab.text._ZSt10unexpectedv
                0x10065508        0xc /home/leon/riotboard/arm-2012.09/bin/../arm-none-eabi/lib//libstdc++.a(eh_terminate.o)
 .ARM.extab.text._ZSt13set_terminatePFvvE
                0x10065514        0x0 /home/leon/riotboard/arm-2012.09/bin/../arm-none-eabi/lib//libstdc++.a(eh_terminate.o)
 .ARM.extab.text._ZSt14set_unexpectedPFvvE
                0x10065514        0x0 /home/leon/riotboard/arm-2012.09/bin/../arm-none-eabi/lib//libstdc++.a(eh_terminate.o)
 .ARM.extab.text._ZN10__cxxabiv1L24__is_gxx_exception_classEPc
                0x10065514        0x0 /home/leon/riotboard/arm-2012.09/bin/../arm-none-eabi/lib//libstdc++.a(eh_call.o)
 .ARM.extab.text.__cxa_call_terminate
                0x10065514        0x0 /home/leon/riotboard/arm-2012.09/bin/../arm-none-eabi/lib//libstdc++.a(eh_call.o)
 .ARM.extab.text.__cxa_call_unexpected
                0x10065514       0x28 /home/leon/riotboard/arm-2012.09/bin/../arm-none-eabi/lib//libstdc++.a(eh_call.o)
 .ARM.extab.text._ZL23__gxx_exception_cleanup19_Unwind_Reason_CodeP21_Unwind_Control_Block
                0x1006553c        0x0 /home/leon/riotboard/arm-2012.09/bin/../arm-none-eabi/lib//libstdc++.a(eh_throw.o)
 .ARM.extab.text.__cxa_throw
                0x1006553c        0x0 /home/leon/riotboard/arm-2012.09/bin/../arm-none-eabi/lib//libstdc++.a(eh_throw.o)
 .ARM.extab.text.__cxa_rethrow
                0x1006553c        0x0 /home/leon/riotboard/arm-2012.09/bin/../arm-none-eabi/lib//libstdc++.a(eh_throw.o)
 .ARM.extab.text.__cxa_type_match
                0x1006553c        0x0 /home/leon/riotboard/arm-2012.09/bin/../arm-none-eabi/lib//libstdc++.a(eh_arm.o)
 .ARM.extab.text.__cxa_begin_cleanup
                0x1006553c        0x0 /home/leon/riotboard/arm-2012.09/bin/../arm-none-eabi/lib//libstdc++.a(eh_arm.o)
 .ARM.extab.text.__gnu_end_cleanup
                0x1006553c        0x0 /home/leon/riotboard/arm-2012.09/bin/../arm-none-eabi/lib//libstdc++.a(eh_arm.o)
 .ARM.extab.text._ZNSt9exceptionD2Ev
                0x1006553c        0x0 /home/leon/riotboard/arm-2012.09/bin/../arm-none-eabi/lib//libstdc++.a(eh_exception.o)
 .ARM.extab.text._ZNSt13bad_exceptionD2Ev
                0x1006553c        0x0 /home/leon/riotboard/arm-2012.09/bin/../arm-none-eabi/lib//libstdc++.a(eh_exception.o)
 .ARM.extab.text._ZN10__cxxabiv115__forced_unwindD2Ev
                0x1006553c        0x0 /home/leon/riotboard/arm-2012.09/bin/../arm-none-eabi/lib//libstdc++.a(eh_exception.o)
 .ARM.extab.text._ZN10__cxxabiv119__foreign_exceptionD2Ev
                0x1006553c        0x0 /home/leon/riotboard/arm-2012.09/bin/../arm-none-eabi/lib//libstdc++.a(eh_exception.o)
 .ARM.extab.text._ZNKSt9exception4whatEv
                0x1006553c        0x0 /home/leon/riotboard/arm-2012.09/bin/../arm-none-eabi/lib//libstdc++.a(eh_exception.o)
 .ARM.extab.text._ZNKSt13bad_exception4whatEv
                0x1006553c        0x0 /home/leon/riotboard/arm-2012.09/bin/../arm-none-eabi/lib//libstdc++.a(eh_exception.o)
 .ARM.extab.text._ZN10__cxxabiv119__foreign_exceptionD0Ev
                0x1006553c        0x0 /home/leon/riotboard/arm-2012.09/bin/../arm-none-eabi/lib//libstdc++.a(eh_exception.o)
 .ARM.extab.text._ZN10__cxxabiv115__forced_unwindD0Ev
                0x1006553c        0x0 /home/leon/riotboard/arm-2012.09/bin/../arm-none-eabi/lib//libstdc++.a(eh_exception.o)
 .ARM.extab.text._ZNSt9exceptionD0Ev
                0x1006553c        0x0 /home/leon/riotboard/arm-2012.09/bin/../arm-none-eabi/lib//libstdc++.a(eh_exception.o)
 .ARM.extab.text._ZNSt13bad_exceptionD0Ev
                0x1006553c        0x0 /home/leon/riotboard/arm-2012.09/bin/../arm-none-eabi/lib//libstdc++.a(eh_exception.o)
 .ARM.extab.text.__cxa_allocate_exception
                0x1006553c        0x0 /home/leon/riotboard/arm-2012.09/bin/../arm-none-eabi/lib//libstdc++.a(eh_alloc.o)
 .ARM.extab.text.__cxa_free_exception
                0x1006553c        0x0 /home/leon/riotboard/arm-2012.09/bin/../arm-none-eabi/lib//libstdc++.a(eh_alloc.o)
 .ARM.extab.text.__cxa_allocate_dependent_exception
                0x1006553c        0x0 /home/leon/riotboard/arm-2012.09/bin/../arm-none-eabi/lib//libstdc++.a(eh_alloc.o)
 .ARM.extab.text.__cxa_free_dependent_exception
                0x1006553c        0x0 /home/leon/riotboard/arm-2012.09/bin/../arm-none-eabi/lib//libstdc++.a(eh_alloc.o)
 .ARM.extab.text.__cxa_get_globals_fast
                0x1006553c        0x0 /home/leon/riotboard/arm-2012.09/bin/../arm-none-eabi/lib//libstdc++.a(eh_globals.o)
 .ARM.extab.text.__cxa_get_globals
                0x1006553c        0x0 /home/leon/riotboard/arm-2012.09/bin/../arm-none-eabi/lib//libstdc++.a(eh_globals.o)
 .ARM.extab.text._ZNK10__cxxabiv120__si_class_type_info12__do_dyncastEiNS_17__class_type_info10__sub_kindEPKS1_PKvS4_S6_RNS1_16__dyncast_resultE
                0x1006553c        0x0 /home/leon/riotboard/arm-2012.09/bin/../arm-none-eabi/lib//libstdc++.a(si_class_type_info.o)
 .ARM.extab.text._ZN10__cxxabiv120__si_class_type_infoD2Ev
                0x1006553c        0x0 /home/leon/riotboard/arm-2012.09/bin/../arm-none-eabi/lib//libstdc++.a(si_class_type_info.o)
 .ARM.extab.text._ZN10__cxxabiv120__si_class_type_infoD0Ev
                0x1006553c        0x0 /home/leon/riotboard/arm-2012.09/bin/../arm-none-eabi/lib//libstdc++.a(si_class_type_info.o)
 .ARM.extab.text._ZNK10__cxxabiv120__si_class_type_info11__do_upcastEPKNS_17__class_type_infoEPKvRNS1_15__upcast_resultE
                0x1006553c        0x0 /home/leon/riotboard/arm-2012.09/bin/../arm-none-eabi/lib//libstdc++.a(si_class_type_info.o)
 .ARM.extab.text._ZNK10__cxxabiv120__si_class_type_info20__do_find_public_srcEiPKvPKNS_17__class_type_infoES2_
                0x1006553c        0x0 /home/leon/riotboard/arm-2012.09/bin/../arm-none-eabi/lib//libstdc++.a(si_class_type_info.o)
 .ARM.extab.text._ZL12read_sleb128PKhPl
                0x1006553c        0x0 /home/leon/riotboard/arm-2012.09/bin/../arm-none-eabi/lib//libstdc++.a(eh_personality.o)
 .ARM.extab.text._ZL28read_encoded_value_with_basehjPKhPj
                0x1006553c        0x0 /home/leon/riotboard/arm-2012.09/bin/../arm-none-eabi/lib//libstdc++.a(eh_personality.o)
 .ARM.extab.text._ZL21base_of_encoded_valuehP15_Unwind_Context
                0x1006553c        0xc /home/leon/riotboard/arm-2012.09/bin/../arm-none-eabi/lib//libstdc++.a(eh_personality.o)
 .ARM.extab.text._ZL17parse_lsda_headerP15_Unwind_ContextPKhP16lsda_header_info
                0x10065548        0x0 /home/leon/riotboard/arm-2012.09/bin/../arm-none-eabi/lib//libstdc++.a(eh_personality.o)
 .ARM.extab.text.__gxx_personality_v0
                0x10065548       0x20 /home/leon/riotboard/arm-2012.09/bin/../arm-none-eabi/lib//libstdc++.a(eh_personality.o)
 .ARM.extab.text.__cxa_get_exception_ptr
                0x10065568        0x0 /home/leon/riotboard/arm-2012.09/bin/../arm-none-eabi/lib//libstdc++.a(eh_catch.o)
 .ARM.extab.text.__cxa_begin_catch
                0x10065568       0x20 /home/leon/riotboard/arm-2012.09/bin/../arm-none-eabi/lib//libstdc++.a(eh_catch.o)
 .ARM.extab.text.__cxa_end_catch
                0x10065588        0xc /home/leon/riotboard/arm-2012.09/bin/../arm-none-eabi/lib//libstdc++.a(eh_catch.o)
 .ARM.extab.text._ZSt18uncaught_exceptionv
                0x10065594        0x0 /home/leon/riotboard/arm-2012.09/bin/../arm-none-eabi/lib//libstdc++.a(eh_catch.o)
 .ARM.extab.text._ZNK10__cxxabiv117__class_type_info11__do_upcastEPKS0_PPv
                0x10065594        0x0 /home/leon/riotboard/arm-2012.09/bin/../arm-none-eabi/lib//libstdc++.a(class_type_info.o)
 .ARM.extab.text._ZNK10__cxxabiv117__class_type_info20__do_find_public_srcEiPKvPKS0_S2_
                0x10065594        0x0 /home/leon/riotboard/arm-2012.09/bin/../arm-none-eabi/lib//libstdc++.a(class_type_info.o)
 .ARM.extab.text._ZNK10__cxxabiv117__class_type_info11__do_upcastEPKS0_PKvRNS0_15__upcast_resultE
                0x10065594        0x0 /home/leon/riotboard/arm-2012.09/bin/../arm-none-eabi/lib//libstdc++.a(class_type_info.o)
 .ARM.extab.text._ZN10__cxxabiv117__class_type_infoD2Ev
                0x10065594        0x0 /home/leon/riotboard/arm-2012.09/bin/../arm-none-eabi/lib//libstdc++.a(class_type_info.o)
 .ARM.extab.text._ZN10__cxxabiv117__class_type_infoD0Ev
                0x10065594        0x0 /home/leon/riotboard/arm-2012.09/bin/../arm-none-eabi/lib//libstdc++.a(class_type_info.o)
 .ARM.extab.text._ZNK10__cxxabiv117__class_type_info12__do_dyncastEiNS0_10__sub_kindEPKS0_PKvS3_S5_RNS0_16__dyncast_resultE
                0x10065594        0x0 /home/leon/riotboard/arm-2012.09/bin/../arm-none-eabi/lib//libstdc++.a(class_type_info.o)
 .ARM.extab.text._ZNK10__cxxabiv117__class_type_info10__do_catchEPKSt9type_infoPPvj
                0x10065594        0x0 /home/leon/riotboard/arm-2012.09/bin/../arm-none-eabi/lib//libstdc++.a(class_type_info.o)
 .ARM.extab.text._ZN9__gnu_cxx27__verbose_terminate_handlerEv
                0x10065594       0x34 /home/leon/riotboard/arm-2012.09/bin/../arm-none-eabi/lib//libstdc++.a(vterminate.o)
 .ARM.extab.text.__cxa_current_exception_type
                0x100655c8        0x0 /home/leon/riotboard/arm-2012.09/bin/../arm-none-eabi/lib//libstdc++.a(eh_type.o)
 .ARM.extab.text._ZdlPv
                0x100655c8        0x0 /home/leon/riotboard/arm-2012.09/bin/../arm-none-eabi/lib//libstdc++.a(del_op.o)
 .ARM.extab.text._ZNSt9type_infoD2Ev
                0x100655c8        0x0 /home/leon/riotboard/arm-2012.09/bin/../arm-none-eabi/lib//libstdc++.a(tinfo.o)
 .ARM.extab.text._ZNKSt9type_info14__is_pointer_pEv
                0x100655c8        0x0 /home/leon/riotboard/arm-2012.09/bin/../arm-none-eabi/lib//libstdc++.a(tinfo.o)
 .ARM.extab.text._ZNKSt9type_info15__is_function_pEv
                0x100655c8        0x0 /home/leon/riotboard/arm-2012.09/bin/../arm-none-eabi/lib//libstdc++.a(tinfo.o)
 .ARM.extab.text._ZNKSt9type_info11__do_upcastEPKN10__cxxabiv117__class_type_infoEPPv
                0x100655c8        0x0 /home/leon/riotboard/arm-2012.09/bin/../arm-none-eabi/lib//libstdc++.a(tinfo.o)
 .ARM.extab.text._ZNSt9type_infoD0Ev
                0x100655c8        0x0 /home/leon/riotboard/arm-2012.09/bin/../arm-none-eabi/lib//libstdc++.a(tinfo.o)
 .ARM.extab.text._ZNKSt9type_infoeqERKS_
                0x100655c8        0x0 /home/leon/riotboard/arm-2012.09/bin/../arm-none-eabi/lib//libstdc++.a(tinfo.o)
 .ARM.extab.text._ZNKSt9type_info10__do_catchEPKS_PPvj
                0x100655c8        0x0 /home/leon/riotboard/arm-2012.09/bin/../arm-none-eabi/lib//libstdc++.a(tinfo.o)
 .ARM.extab     0x100655c8       0x18 /home/leon/riotboard/arm-2012.09/bin/../lib/gcc/arm-none-eabi/4.7.2//libgcc.a(unwind-arm.o)
 .ARM.extab     0x100655e0       0x18 /home/leon/riotboard/arm-2012.09/bin/../lib/gcc/arm-none-eabi/4.7.2//libgcc.a(pr-support.o)
 *(.gcc_except_table)

.v4_bx          0x100655f8        0x0
 .v4_bx         0x00000000        0x0 linker stubs

.iplt           0x100655f8        0x0
 .iplt          0x00000000        0x0 /home/leon/riotboard/arm-2012.09/bin/../lib/gcc/arm-none-eabi/4.7.2//crtbegin.o

.ctors
 *crtbegin.o(.ctors)
 *crtbegin?.o(.ctors)
 *(EXCLUDE_FILE(*crtend?.o *crtend.o) .ctors)
 *(SORT(.ctors.*))
 *(.ctors)

.dtors
 *crtbegin.o(.dtors)
 *crtbegin?.o(.dtors)
 *(EXCLUDE_FILE(*crtend?.o *crtend.o) .dtors)
 *(SORT(.dtors.*))
 *(.dtors)

.rodata         0x100655f8    0x3b87c
 *(.rodata .rodata.* .gnu.linkonce.r.*)
 .rodata        0x100655f8       0x9c /home/leon/git/swp-report/iMX6_Platform_SDK/output/mx6sdl/sdk_unit_test/smart_device_rev_a/obj/apps/common/print_clock_info.o
 .rodata        0x10065694      0x100 /home/leon/git/swp-report/iMX6_Platform_SDK/output/mx6sdl/sdk_unit_test/smart_device_rev_a/obj/apps/common/print_version.o
 .rodata        0x10065794      0x4c4 /home/leon/git/swp-report/iMX6_Platform_SDK/output/mx6sdl/sdk_unit_test/smart_device_rev_a/obj/apps/sdk_unit_test/src/all_test.o
                0x10065978                k_menuItems
                0x10065c4c                k_mainMenu
 .rodata        0x10065c58       0x34 /home/leon/git/swp-report/iMX6_Platform_SDK/output/mx6sdl/lib/libsdk.a(ccm_pll.o)
                0x10065c58                PLL1_OUTPUT
                0x10065c5c                PLL2_OUTPUT
                0x10065c70                PLL3_OUTPUT
                0x10065c84                PLL4_OUTPUT
                0x10065c88                PLL5_OUTPUT
 .rodata        0x10065c8c       0x64 /home/leon/git/swp-report/iMX6_Platform_SDK/output/mx6sdl/lib/libsdk.a(gic.o)
 .rodata        0x10065cf0      0x154 /home/leon/git/swp-report/iMX6_Platform_SDK/output/mx6sdl/lib/libsdk.a(menu.o)
 .rodata        0x10065e44       0x50 /home/leon/git/swp-report/iMX6_Platform_SDK/output/mx6sdl/lib/libsdk.a(sdk_version.o)
                0x10065e44                k_sdk_version
                0x10065e48                k_sdk_copyright
 .rodata        0x10065e94       0xcc /home/leon/git/swp-report/iMX6_Platform_SDK/output/mx6sdl/lib/libsdk.a(system_util.o)
 .rodata        0x10065f60       0xf4 /home/leon/git/swp-report/iMX6_Platform_SDK/output/mx6sdl/lib/libsdk.a(text_color.o)
                0x10065f68                g_TextAttributeDefault
                0x10065f74                g_TextAttributeBold
                0x10065f80                g_TextAttributeDim
                0x10065f8c                g_TextAttributeUnderline
                0x10065f98                g_TextAttributeBlink
                0x10065fa4                g_TextAttributeReverse
                0x10065fb0                g_TextAttributeHidden
                0x10065fbc                g_TextColorBlack
                0x10065fc8                g_TextColorRed
                0x10065fd4                g_TextColorGreen
                0x10065fe0                g_TextColorYellow
                0x10065fec                g_TextColorBlue
                0x10065ff8                g_TextColorMagenta
                0x10066004                g_TextColorCyan
                0x10066010                g_TextColorWhite
                0x10066020                g_TextColorOrange
                0x10066030                g_TextColorLightBlue
                0x10066040                g_TextColorGray
                0x10066050                g_TextColorPurple
 .rodata        0x10066054      0x1f8 /home/leon/git/swp-report/iMX6_Platform_SDK/output/mx6sdl/lib/libsdk.a(board_id.o)
 .rodata        0x1006624c       0x20 /home/leon/git/swp-report/iMX6_Platform_SDK/output/mx6sdl/lib/libsdk.a(interrupt.o)
 .rodata        0x1006626c      0x230 /home/leon/git/swp-report/iMX6_Platform_SDK/output/mx6sdl/lib/libsdk.a(abort_handler.o)
 .rodata        0x1006649c       0x84 /home/leon/git/swp-report/iMX6_Platform_SDK/output/mx6sdl/lib/libboard_smart_device_rev_a.a(uart_iomux_config.o)
 .rodata        0x10066520       0x3c /home/leon/git/swp-report/iMX6_Platform_SDK/output/mx6sdl/sdk_unit_test/smart_device_rev_a/libsdk_unit_test.a(cpu_wp_test.o)
 .rodata        0x1006655c       0xc4 /home/leon/git/swp-report/iMX6_Platform_SDK/output/mx6sdl/sdk_unit_test/smart_device_rev_a/libsdk_unit_test.a(multicore_test.o)
 .rodata        0x10066620       0xac /home/leon/git/swp-report/iMX6_Platform_SDK/output/mx6sdl/sdk_unit_test/smart_device_rev_a/libsdk_unit_test.a(audio_test.o)
 .rodata        0x100666cc       0x64 /home/leon/git/swp-report/iMX6_Platform_SDK/output/mx6sdl/sdk_unit_test/smart_device_rev_a/libsdk_unit_test.a(gic_test.o)
 .rodata        0x10066730      0x1a0 /home/leon/git/swp-report/iMX6_Platform_SDK/output/mx6sdl/sdk_unit_test/smart_device_rev_a/libsdk_unit_test.a(ocotp_test.o)
 .rodata        0x100668d0      0x128 /home/leon/git/swp-report/iMX6_Platform_SDK/output/mx6sdl/sdk_unit_test/smart_device_rev_a/libsdk_unit_test.a(snvs_rtc_test.o)
 .rodata        0x100669f8       0xa4 /home/leon/git/swp-report/iMX6_Platform_SDK/output/mx6sdl/sdk_unit_test/smart_device_rev_a/libsdk_unit_test.a(snvs_srtc_test.o)
 .rodata        0x10066a9c       0xc4 /home/leon/git/swp-report/iMX6_Platform_SDK/output/mx6sdl/sdk_unit_test/smart_device_rev_a/libsdk_unit_test.a(i2c_test.o)
 .rodata        0x10066b60      0x308 /home/leon/git/swp-report/iMX6_Platform_SDK/output/mx6sdl/sdk_unit_test/smart_device_rev_a/libsdk_unit_test.a(imx6_i2c_device.o)
 .rodata        0x10066e68      0x1a0 /home/leon/git/swp-report/iMX6_Platform_SDK/output/mx6sdl/sdk_unit_test/smart_device_rev_a/libsdk_unit_test.a(tempmon_test.o)
 .rodata        0x10067008      0x11c /home/leon/git/swp-report/iMX6_Platform_SDK/output/mx6sdl/sdk_unit_test/smart_device_rev_a/libsdk_unit_test.a(sdma_test.o)
 .rodata        0x10067124      0x154 /home/leon/git/swp-report/iMX6_Platform_SDK/output/mx6sdl/sdk_unit_test/smart_device_rev_a/libsdk_unit_test.a(spi_lpb.o)
 .rodata        0x10067278      0x1f8 /home/leon/git/swp-report/iMX6_Platform_SDK/output/mx6sdl/sdk_unit_test/smart_device_rev_a/libsdk_unit_test.a(uart_loopback.o)
 .rodata        0x10067470       0xb0 /home/leon/git/swp-report/iMX6_Platform_SDK/output/mx6sdl/sdk_unit_test/smart_device_rev_a/libsdk_unit_test.a(uart_test.o)
                0x10067470                g_uart_test_name
 .rodata        0x10067520      0x164 /home/leon/git/swp-report/iMX6_Platform_SDK/output/mx6sdl/sdk_unit_test/smart_device_rev_a/libsdk_unit_test.a(epit_test.o)
 .rodata        0x10067684      0x248 /home/leon/git/swp-report/iMX6_Platform_SDK/output/mx6sdl/sdk_unit_test/smart_device_rev_a/libsdk_unit_test.a(gpt_test.o)
 .rodata        0x100678cc       0xc0 /home/leon/git/swp-report/iMX6_Platform_SDK/output/mx6sdl/sdk_unit_test/smart_device_rev_a/libsdk_unit_test.a(timer_test.o)
 .rodata        0x1006798c      0x38c /home/leon/git/swp-report/iMX6_Platform_SDK/output/mx6sdl/sdk_unit_test/smart_device_rev_a/libsdk_unit_test.a(usdhc_test.o)
 .rodata        0x10067d18       0xc8 /home/leon/git/swp-report/iMX6_Platform_SDK/output/mx6sdl/sdk_unit_test/smart_device_rev_a/libsdk_unit_test.a(watchdog_test.o)
 .rodata        0x10067de0       0x7c /home/leon/git/swp-report/iMX6_Platform_SDK/output/mx6sdl/sdk_unit_test/smart_device_rev_a/libsdk_unit_test.a(pwm_test.o)
 .rodata        0x10067e5c       0x98 /home/leon/git/swp-report/iMX6_Platform_SDK/output/mx6sdl/sdk_unit_test/smart_device_rev_a/libsdk_unit_test.a(hdmi_test.o)
 .rodata        0x10067ef4       0xa0 /home/leon/git/swp-report/iMX6_Platform_SDK/output/mx6sdl/sdk_unit_test/smart_device_rev_a/libsdk_unit_test.a(ips_display.o)
 .rodata        0x10067f94      0x134 /home/leon/git/swp-report/iMX6_Platform_SDK/output/mx6sdl/sdk_unit_test/smart_device_rev_a/libsdk_unit_test.a(ips_test.o)
 .rodata        0x100680c8    0x2f2dc /home/leon/git/swp-report/iMX6_Platform_SDK/output/mx6sdl/sdk_unit_test/smart_device_rev_a/libsdk_unit_test.a(ipu_image.o)
                0x10079ee4                gImage_foretext
 .rodata        0x100973a4      0x118 /home/leon/git/swp-report/iMX6_Platform_SDK/output/mx6sdl/sdk_unit_test/smart_device_rev_a/libsdk_unit_test.a(keypad_test.o)
 .rodata        0x100974bc       0x94 /home/leon/git/swp-report/iMX6_Platform_SDK/output/mx6sdl/sdk_unit_test/smart_device_rev_a/libsdk_unit_test.a(camera_test.o)
                0x100974bc                g_camera_test_name
 .rodata        0x10097550      0x118 /home/leon/git/swp-report/iMX6_Platform_SDK/output/mx6sdl/sdk_unit_test/smart_device_rev_a/libsdk_unit_test.a(csi_test_mode.o)
 .rodata        0x10097668      0x118 /home/leon/git/swp-report/iMX6_Platform_SDK/output/mx6sdl/sdk_unit_test/smart_device_rev_a/libsdk_unit_test.a(sensor_capture.o)
 .rodata        0x10097780      0x290 /home/leon/git/swp-report/iMX6_Platform_SDK/output/mx6sdl/sdk_unit_test/smart_device_rev_a/libsdk_unit_test.a(pcie_test_rc.o)
 .rodata        0x10097a10      0x16c /home/leon/git/swp-report/iMX6_Platform_SDK/output/mx6sdl/sdk_unit_test/smart_device_rev_a/libsdk_unit_test.a(usb_test.o)
 .rodata        0x10097b7c      0x204 /home/leon/git/swp-report/iMX6_Platform_SDK/output/mx6sdl/sdk_unit_test/smart_device_rev_a/libsdk_unit_test.a(enet_test.o)
 .rodata        0x10097d80      0x1d0 /home/leon/git/swp-report/iMX6_Platform_SDK/output/mx6sdl/sdk_unit_test/smart_device_rev_a/libsdk_unit_test.a(spi_test.o)
 .rodata        0x10097f50       0xd8 /home/leon/git/swp-report/iMX6_Platform_SDK/output/mx6sdl/sdk_unit_test/smart_device_rev_a/libsdk_unit_test.a(accelerometer_test.o)
 .rodata        0x10098028      0x114 /home/leon/git/swp-report/iMX6_Platform_SDK/output/mx6sdl/sdk_unit_test/smart_device_rev_a/libsdk_unit_test.a(at24cxx.o)
 .rodata        0x1009813c      0x158 /home/leon/git/swp-report/iMX6_Platform_SDK/output/mx6sdl/sdk_unit_test/smart_device_rev_a/libsdk_unit_test.a(mem_2_mem.o)
 .rodata        0x10098294      0x368 /home/leon/git/swp-report/iMX6_Platform_SDK/output/mx6sdl/sdk_unit_test/smart_device_rev_a/libsdk_unit_test.a(pwm_output.o)
 .rodata        0x100985fc     0x403c /home/leon/git/swp-report/iMX6_Platform_SDK/output/mx6sdl/sdk_unit_test/smart_device_rev_a/libsdk_unit_test.a(init_dma_data.o)
                0x100985fc                gAudio_sample
 .rodata        0x1009c638       0xb0 /home/leon/git/swp-report/iMX6_Platform_SDK/output/mx6sdl/sdk_unit_test/smart_device_rev_a/libsdk_unit_test.a(ips_combiner.o)
 .rodata        0x1009c6e8       0xe4 /home/leon/git/swp-report/iMX6_Platform_SDK/output/mx6sdl/sdk_unit_test/smart_device_rev_a/libsdk_unit_test.a(ips_csc.o)
 .rodata        0x1009c7cc       0x94 /home/leon/git/swp-report/iMX6_Platform_SDK/output/mx6sdl/sdk_unit_test/smart_device_rev_a/libsdk_unit_test.a(ips_resize.o)
 .rodata        0x1009c860       0x88 /home/leon/git/swp-report/iMX6_Platform_SDK/output/mx6sdl/sdk_unit_test/smart_device_rev_a/libsdk_unit_test.a(ips_rotate.o)
 .rodata        0x1009c8e8      0x114 /home/leon/git/swp-report/iMX6_Platform_SDK/output/mx6sdl/sdk_unit_test/smart_device_rev_a/libsdk_unit_test.a(usb0_device_mouse_test.o)
 .rodata        0x1009c9fc      0x218 /home/leon/git/swp-report/iMX6_Platform_SDK/output/mx6sdl/sdk_unit_test/smart_device_rev_a/libsdk_unit_test.a(usb0_host_test.o)
 .rodata        0x1009cc14       0xa8 /home/leon/git/swp-report/iMX6_Platform_SDK/output/mx6sdl/sdk_unit_test/smart_device_rev_a/libsdk_unit_test.a(usb0_host_testmodes_test.o)
 .rodata        0x1009ccbc      0x118 /home/leon/git/swp-report/iMX6_Platform_SDK/output/mx6sdl/sdk_unit_test/smart_device_rev_a/libsdk_unit_test.a(spi_nor_numonyx.o)
 .rodata        0x1009cdd4      0x398 /home/leon/riotboard/arm-2012.09/bin/../arm-none-eabi/lib//libm.a(lib_a-ef_rem_pio2.o)
 .rodata        0x1009d16c       0x38 /home/leon/riotboard/arm-2012.09/bin/../arm-none-eabi/lib//libm.a(lib_a-kf_rem_pio2.o)
 .rodata.str1.4
                0x1009d1a4       0x3f /home/leon/riotboard/arm-2012.09/bin/../arm-none-eabi/lib//libc.a(lib_a-assert.o)
                                 0x44 (size before relaxing)
 *fill*         0x1009d1e3        0x1 
 .rodata        0x1009d1e4        0x4 /home/leon/riotboard/arm-2012.09/bin/../arm-none-eabi/lib//libc.a(lib_a-impure.o)
                0x1009d1e4                _global_impure_ptr
 .rodata.str1.4
                0x1009d1e8        0x2 /home/leon/riotboard/arm-2012.09/bin/../arm-none-eabi/lib//libc.a(lib_a-impure.o)
                                  0x4 (size before relaxing)
 *fill*         0x1009d1ea        0x2 
 .rodata        0x1009d1ec       0x20 /home/leon/riotboard/arm-2012.09/bin/../arm-none-eabi/lib//libc.a(lib_a-svfprintf.o)
 .rodata.str1.4
                0x1009d20c       0x42 /home/leon/riotboard/arm-2012.09/bin/../arm-none-eabi/lib//libc.a(lib_a-svfprintf.o)
                                 0x44 (size before relaxing)
 *fill*         0x1009d24e        0x2 
 .rodata        0x1009d250       0x20 /home/leon/riotboard/arm-2012.09/bin/../arm-none-eabi/lib//libc.a(lib_a-vfiprintf.o)
 .rodata.str1.4
                0x00000000       0x30 /home/leon/riotboard/arm-2012.09/bin/../arm-none-eabi/lib//libc.a(lib_a-vfiprintf.o)
 .rodata        0x1009d270       0x20 /home/leon/riotboard/arm-2012.09/bin/../arm-none-eabi/lib//libc.a(lib_a-vfprintf.o)
 .rodata.str1.4
                0x00000000       0x44 /home/leon/riotboard/arm-2012.09/bin/../arm-none-eabi/lib//libc.a(lib_a-vfprintf.o)
 .rodata        0x1009d290      0x104 /home/leon/riotboard/arm-2012.09/bin/../arm-none-eabi/lib//libc.a(lib_a-ctype_.o)
                0x1009d290                _ctype_
 .rodata.str1.4
                0x1009d394       0x10 /home/leon/riotboard/arm-2012.09/bin/../arm-none-eabi/lib//libc.a(lib_a-dtoa.o)
                                 0x14 (size before relaxing)
 .rodata.str1.4
                0x1009d3a4        0xa /home/leon/riotboard/arm-2012.09/bin/../arm-none-eabi/lib//libc.a(lib_a-locale.o)
                                 0x14 (size before relaxing)
 *fill*         0x1009d3ae        0x2 
 .rodata        0x1009d3b0      0x128 /home/leon/riotboard/arm-2012.09/bin/../arm-none-eabi/lib//libc.a(lib_a-mprec.o)
                0x1009d3c0                __mprec_tens
                0x1009d488                __mprec_tinytens
                0x1009d4b0                __mprec_bigtens
 .rodata        0x1009d4d8       0x20 /home/leon/riotboard/arm-2012.09/bin/../arm-none-eabi/lib//libc.a(lib_a-svfiprintf.o)
 .rodata.str1.4
                0x00000000       0x30 /home/leon/riotboard/arm-2012.09/bin/../arm-none-eabi/lib//libc.a(lib_a-svfiprintf.o)
 .rodata        0x1009d4f8       0x20 /home/leon/git/swp-report/iMX6_Platform_SDK/output/mx6sdl/lib/libsdk.a(runtime_support.o)
 .rodata        0x1009d518       0x34 /home/leon/git/swp-report/iMX6_Platform_SDK/output/mx6sdl/lib/libsdk.a(mma8451.o)
 .rodata        0x1009d54c       0xc4 /home/leon/git/swp-report/iMX6_Platform_SDK/output/mx6sdl/lib/libsdk.a(smd_sensor.o)
 .rodata        0x1009d610       0x88 /home/leon/git/swp-report/iMX6_Platform_SDK/output/mx6sdl/lib/libsdk.a(cpu_multicore.o)
 .rodata        0x1009d698       0x48 /home/leon/git/swp-report/iMX6_Platform_SDK/output/mx6sdl/lib/libsdk.a(cpu_workpoint.o)
 .rodata        0x1009d6e0      0x1c4 /home/leon/git/swp-report/iMX6_Platform_SDK/output/mx6sdl/lib/libsdk.a(enet_drv.o)
 .rodata        0x1009d8a4       0xe0 /home/leon/git/swp-report/iMX6_Platform_SDK/output/mx6sdl/lib/libsdk.a(gpio.o)
 .rodata        0x1009d984      0x380 /home/leon/git/swp-report/iMX6_Platform_SDK/output/mx6sdl/lib/libsdk.a(imx6sdl_gpio_map.o)
                0x1009d984                k_gpio_mux_registers
 .rodata        0x1009dd04       0xb4 /home/leon/git/swp-report/iMX6_Platform_SDK/output/mx6sdl/lib/libsdk.a(hdmi_tx.o)
 .rodata        0x1009ddb8       0x3c /home/leon/git/swp-report/iMX6_Platform_SDK/output/mx6sdl/lib/libsdk.a(hdmi_tx_audio.o)
 .rodata        0x1009ddf4       0xec /home/leon/git/swp-report/iMX6_Platform_SDK/output/mx6sdl/lib/libsdk.a(hdmi_tx_phy.o)
 .rodata        0x1009dee0      0x2c4 /home/leon/git/swp-report/iMX6_Platform_SDK/output/mx6sdl/lib/libsdk.a(imx_i2c.o)
 .rodata        0x1009e1a4       0xa4 /home/leon/git/swp-report/iMX6_Platform_SDK/output/mx6sdl/lib/libsdk.a(imx_i2c_slave.o)
 .rodata        0x1009e248       0x54 /home/leon/git/swp-report/iMX6_Platform_SDK/output/mx6sdl/lib/libsdk.a(ips_disp_panel.o)
 .rodata        0x1009e29c       0x74 /home/leon/git/swp-report/iMX6_Platform_SDK/output/mx6sdl/lib/libsdk.a(ipu_common.o)
 .rodata        0x1009e310       0xc0 /home/leon/git/swp-report/iMX6_Platform_SDK/output/mx6sdl/lib/libsdk.a(ipu_csi.o)
 .rodata        0x1009e3d0       0x9c /home/leon/git/swp-report/iMX6_Platform_SDK/output/mx6sdl/lib/libsdk.a(ipu_dc.o)
 .rodata        0x1009e46c       0x18 /home/leon/git/swp-report/iMX6_Platform_SDK/output/mx6sdl/lib/libsdk.a(ipu_di.o)
 .rodata        0x1009e484       0x78 /home/leon/git/swp-report/iMX6_Platform_SDK/output/mx6sdl/lib/libsdk.a(ipu_dp.o)
 .rodata        0x1009e4fc      0x1bc /home/leon/git/swp-report/iMX6_Platform_SDK/output/mx6sdl/lib/libsdk.a(ipu_ic.o)
 .rodata        0x1009e6b8       0x38 /home/leon/git/swp-report/iMX6_Platform_SDK/output/mx6sdl/lib/libsdk.a(ipu_idmac.o)
 .rodata        0x1009e6f0       0x68 /home/leon/git/swp-report/iMX6_Platform_SDK/output/mx6sdl/lib/libsdk.a(ldb.o)
 .rodata        0x1009e758      0x10c /home/leon/git/swp-report/iMX6_Platform_SDK/output/mx6sdl/lib/libsdk.a(pcie.o)
 .rodata        0x1009e864       0xc0 /home/leon/git/swp-report/iMX6_Platform_SDK/output/mx6sdl/lib/libsdk.a(pcie_prot.o)
 *fill*         0x1009e924        0x4 
 .rodata        0x1009e928      0x248 /home/leon/git/swp-report/iMX6_Platform_SDK/output/mx6sdl/lib/libsdk.a(pmu_driver.o)
                0x1009e928                vtable for pmu::LDOSoCRegulator
                0x1009e980                vtable for pmu::LDOGraphicsRegulator
                0x1009e9d8                vtable for pmu::LDOARMRegulator
                0x1009ea30                vtable for pmu::DigitalRegulator
                0x1009ea88                vtable for pmu::LDO3p0Regulator
                0x1009eac0                vtable for pmu::LDO1p1Regulator
                0x1009eaf8                vtable for pmu::AnalogRegulator
                0x1009eb30                vtable for pmu::Regulator
 .rodata._ZTVN3pmu15LDO2p5RegulatorE
                0x1009eb70       0x38 /home/leon/git/swp-report/iMX6_Platform_SDK/output/mx6sdl/lib/libsdk.a(pmu_driver.o)
                0x1009eb70                vtable for pmu::LDO2p5Regulator
 .rodata        0x1009eba8       0x5c /home/leon/git/swp-report/iMX6_Platform_SDK/output/mx6sdl/lib/libsdk.a(pwm.o)
 .rodata        0x1009ec04       0x18 /home/leon/git/swp-report/iMX6_Platform_SDK/output/mx6sdl/lib/libsdk.a(sdma.o)
 .rodata        0x1009ec1c      0x7ec /home/leon/git/swp-report/iMX6_Platform_SDK/output/mx6sdl/lib/libsdk.a(sdma_script_info.o)
                0x1009f1f8                script_info
 .rodata        0x1009f408       0x74 /home/leon/git/swp-report/iMX6_Platform_SDK/output/mx6sdl/lib/libsdk.a(ecspi.o)
 .rodata        0x1009f47c       0x94 /home/leon/git/swp-report/iMX6_Platform_SDK/output/mx6sdl/lib/libsdk.a(usb_common.o)
 .rodata        0x1009f510       0x50 /home/leon/git/swp-report/iMX6_Platform_SDK/output/mx6sdl/lib/libsdk.a(usbd_drv.o)
 .rodata        0x1009f560       0x28 /home/leon/git/swp-report/iMX6_Platform_SDK/output/mx6sdl/lib/libsdk.a(usbh_drv.o)
 .rodata        0x1009f588      0x1cc /home/leon/git/swp-report/iMX6_Platform_SDK/output/mx6sdl/lib/libsdk.a(usdhc.o)
 .rodata        0x1009f754       0x1c /home/leon/git/swp-report/iMX6_Platform_SDK/output/mx6sdl/lib/libsdk.a(usdhc_host.o)
 .rodata        0x1009f770      0x20c /home/leon/git/swp-report/iMX6_Platform_SDK/output/mx6sdl/lib/libsdk.a(usdhc_mmc.o)
 .rodata        0x1009f97c       0x58 /home/leon/git/swp-report/iMX6_Platform_SDK/output/mx6sdl/lib/libsdk.a(usdhc_sd.o)
                0x1009f97c                sd_ocr_value
                0x1009f988                sd_if_cmd_arg
 .rodata        0x1009f9d4       0x10 /home/leon/git/swp-report/iMX6_Platform_SDK/output/mx6sdl/lib/libsdk.a(hdmi_common.o)
 .rodata        0x1009f9e4       0x64 /home/leon/git/swp-report/iMX6_Platform_SDK/output/mx6sdl/lib/libboard_smart_device_rev_a.a(board_display.o)
 .rodata        0x1009fa48       0x28 /home/leon/git/swp-report/iMX6_Platform_SDK/output/mx6sdl/lib/libboard_smart_device_rev_a.a(board_hdmi.o)
 .rodata        0x1009fa70       0x70 /home/leon/git/swp-report/iMX6_Platform_SDK/output/mx6sdl/lib/libboard_smart_device_rev_a.a(board_i2c.o)
                0x1009fa70                g_wm8958_i2c_device
                0x1009fa78                g_wm8962_i2c_device
                0x1009fa80                g_sgtl5000_i2c_device
                0x1009fa88                g_cs42888_i2c_device
                0x1009fa90                g_pmic_ltc3589_i2c_device
                0x1009fa98                g_pmic_da9053_i2c_device
                0x1009faa0                g_pmic_max17135_i2c_device
                0x1009faa8                g_pmic_pf0100_i2c_device
                0x1009fab0                g_adv7180_i2c_device
                0x1009fab8                g_os81050_i2c_device
                0x1009fac0                g_p1003_tsc_i2c_device
                0x1009fac8                g_at24cx_i2c_device
                0x1009fad0                g_si476x_i2c_device
                0x1009fad8                g_mma8451_i2c_device
 .rodata        0x1009fae0       0x84 /home/leon/git/swp-report/iMX6_Platform_SDK/output/mx6sdl/lib/libboard_smart_device_rev_a.a(ecspi_iomux_config.o)
 .rodata        0x1009fb64       0x84 /home/leon/git/swp-report/iMX6_Platform_SDK/output/mx6sdl/lib/libboard_smart_device_rev_a.a(i2c_iomux_config.o)
 .rodata        0x1009fbe8       0x84 /home/leon/git/swp-report/iMX6_Platform_SDK/output/mx6sdl/lib/libboard_smart_device_rev_a.a(pwm_iomux_config.o)
 .rodata        0x1009fc6c       0x84 /home/leon/git/swp-report/iMX6_Platform_SDK/output/mx6sdl/lib/libboard_smart_device_rev_a.a(usdhc_iomux_config.o)
 .rodata.str1.4
                0x1009fcf0       0x3b /home/leon/riotboard/arm-2012.09/bin/../arm-none-eabi/lib//libstdc++.a(pure.o)
                                 0x3c (size before relaxing)
 *fill*         0x1009fd2b        0x5 
 .rodata._ZTVN10__cxxabiv115__forced_unwindE
                0x1009fd30       0x18 /home/leon/riotboard/arm-2012.09/bin/../arm-none-eabi/lib//libstdc++.a(eh_exception.o)
                0x1009fd30                vtable for __cxxabiv1::__forced_unwind
 .rodata._ZTVSt9exception
                0x1009fd48       0x18 /home/leon/riotboard/arm-2012.09/bin/../arm-none-eabi/lib//libstdc++.a(eh_exception.o)
                0x1009fd48                vtable for std::exception
 .rodata._ZTIN10__cxxabiv115__forced_unwindE
                0x1009fd60        0x8 /home/leon/riotboard/arm-2012.09/bin/../arm-none-eabi/lib//libstdc++.a(eh_exception.o)
                0x1009fd60                typeinfo for __cxxabiv1::__forced_unwind
 .rodata._ZTISt9exception
                0x1009fd68        0x8 /home/leon/riotboard/arm-2012.09/bin/../arm-none-eabi/lib//libstdc++.a(eh_exception.o)
                0x1009fd68                typeinfo for std::exception
 .rodata._ZTSSt13bad_exception
                0x1009fd70       0x14 /home/leon/riotboard/arm-2012.09/bin/../arm-none-eabi/lib//libstdc++.a(eh_exception.o)
                0x1009fd70                typeinfo name for std::bad_exception
 .rodata.str1.4
                0x1009fd84       0x23 /home/leon/riotboard/arm-2012.09/bin/../arm-none-eabi/lib//libstdc++.a(eh_exception.o)
                                 0x24 (size before relaxing)
 *fill*         0x1009fda7        0x1 
 .rodata._ZTSN10__cxxabiv119__foreign_exceptionE
                0x1009fda8       0x24 /home/leon/riotboard/arm-2012.09/bin/../arm-none-eabi/lib//libstdc++.a(eh_exception.o)
                0x1009fda8                typeinfo name for __cxxabiv1::__foreign_exception
 .rodata._ZTIN10__cxxabiv119__foreign_exceptionE
                0x1009fdcc        0x8 /home/leon/riotboard/arm-2012.09/bin/../arm-none-eabi/lib//libstdc++.a(eh_exception.o)
                0x1009fdcc                typeinfo for __cxxabiv1::__foreign_exception
 *fill*         0x1009fdd4        0x4 
 .rodata._ZTVSt13bad_exception
                0x1009fdd8       0x18 /home/leon/riotboard/arm-2012.09/bin/../arm-none-eabi/lib//libstdc++.a(eh_exception.o)
                0x1009fdd8                vtable for std::bad_exception
 .rodata._ZTSSt9exception
                0x1009fdf0       0x10 /home/leon/riotboard/arm-2012.09/bin/../arm-none-eabi/lib//libstdc++.a(eh_exception.o)
                0x1009fdf0                typeinfo name for std::exception
 .rodata._ZTVN10__cxxabiv119__foreign_exceptionE
                0x1009fe00       0x18 /home/leon/riotboard/arm-2012.09/bin/../arm-none-eabi/lib//libstdc++.a(eh_exception.o)
                0x1009fe00                vtable for __cxxabiv1::__foreign_exception
 .rodata._ZTSN10__cxxabiv115__forced_unwindE
                0x1009fe18       0x20 /home/leon/riotboard/arm-2012.09/bin/../arm-none-eabi/lib//libstdc++.a(eh_exception.o)
                0x1009fe18                typeinfo name for __cxxabiv1::__forced_unwind
 .rodata._ZTISt13bad_exception
                0x1009fe38        0xc /home/leon/riotboard/arm-2012.09/bin/../arm-none-eabi/lib//libstdc++.a(eh_exception.o)
                0x1009fe38                typeinfo for std::bad_exception
 *fill*         0x1009fe44        0x4 
 .rodata._ZTVN10__cxxabiv120__si_class_type_infoE
                0x1009fe48       0x30 /home/leon/riotboard/arm-2012.09/bin/../arm-none-eabi/lib//libstdc++.a(si_class_type_info.o)
                0x1009fe48                vtable for __cxxabiv1::__si_class_type_info
 .rodata._ZTIN10__cxxabiv120__si_class_type_infoE
                0x1009fe78        0xc /home/leon/riotboard/arm-2012.09/bin/../arm-none-eabi/lib//libstdc++.a(si_class_type_info.o)
                0x1009fe78                typeinfo for __cxxabiv1::__si_class_type_info
 .rodata._ZTSN10__cxxabiv120__si_class_type_infoE
                0x1009fe84       0x28 /home/leon/riotboard/arm-2012.09/bin/../arm-none-eabi/lib//libstdc++.a(si_class_type_info.o)
                0x1009fe84                typeinfo name for __cxxabiv1::__si_class_type_info
 *fill*         0x1009feac        0x4 
 .rodata._ZTVN10__cxxabiv117__class_type_infoE
                0x1009feb0       0x30 /home/leon/riotboard/arm-2012.09/bin/../arm-none-eabi/lib//libstdc++.a(class_type_info.o)
                0x1009feb0                vtable for __cxxabiv1::__class_type_info
 .rodata._ZTIN10__cxxabiv117__class_type_infoE
                0x1009fee0        0xc /home/leon/riotboard/arm-2012.09/bin/../arm-none-eabi/lib//libstdc++.a(class_type_info.o)
                0x1009fee0                typeinfo for __cxxabiv1::__class_type_info
 .rodata._ZTSN10__cxxabiv117__class_type_infoE
                0x1009feec       0x24 /home/leon/riotboard/arm-2012.09/bin/../arm-none-eabi/lib//libstdc++.a(class_type_info.o)
                0x1009feec                typeinfo name for __cxxabiv1::__class_type_info
 .rodata.str1.4
                0x1009ff10       0x94 /home/leon/riotboard/arm-2012.09/bin/../arm-none-eabi/lib//libstdc++.a(vterminate.o)
 .rodata        0x1009ffa4      0x6f8 /home/leon/riotboard/arm-2012.09/bin/../arm-none-eabi/lib//libstdc++.a(cp-demangle.o)
 .rodata.str1.4
                0x100a069c      0x764 /home/leon/riotboard/arm-2012.09/bin/../arm-none-eabi/lib//libstdc++.a(cp-demangle.o)
                                0x7b4 (size before relaxing)
 .rodata._ZTISt9type_info
                0x100a0e00        0x8 /home/leon/riotboard/arm-2012.09/bin/../arm-none-eabi/lib//libstdc++.a(tinfo.o)
                0x100a0e00                typeinfo for std::type_info
 .rodata._ZTSSt9type_info
                0x100a0e08       0x10 /home/leon/riotboard/arm-2012.09/bin/../arm-none-eabi/lib//libstdc++.a(tinfo.o)
                0x100a0e08                typeinfo name for std::type_info
 .rodata._ZTVSt9type_info
                0x100a0e18       0x20 /home/leon/riotboard/arm-2012.09/bin/../arm-none-eabi/lib//libstdc++.a(tinfo.o)
                0x100a0e18                vtable for std::type_info
                0x100a0e38                . = ALIGN (0x4)
 *(.init)
 .init          0x100a0e38        0xc /home/leon/riotboard/arm-2012.09/bin/../lib/gcc/arm-none-eabi/4.7.2//crti.o
                0x100a0e38                _init
 .init          0x100a0e44        0xc /home/leon/riotboard/arm-2012.09/bin/../lib/gcc/arm-none-eabi/4.7.2//crtn.o
                0x100a0e50                . = ALIGN (0x4)
                0x100a0e50                __init_array_start = .
 *(SORT(.init_array.*))
 *(.init_array)
 .init_array    0x100a0e50        0x4 /home/leon/riotboard/arm-2012.09/bin/../lib/gcc/arm-none-eabi/4.7.2//crtbegin.o
 .init_array    0x100a0e54        0x4 /home/leon/git/swp-report/iMX6_Platform_SDK/output/mx6sdl/lib/libsdk.a(pmu_driver.o)
                0x100a0e58                __init_array_end = .
                0x100a0e58                . = ALIGN (0x4)
 *(.fini)
 .fini          0x100a0e58        0xc /home/leon/riotboard/arm-2012.09/bin/../lib/gcc/arm-none-eabi/4.7.2//crti.o
                0x100a0e58                _fini
 .fini          0x100a0e64        0xc /home/leon/riotboard/arm-2012.09/bin/../lib/gcc/arm-none-eabi/4.7.2//crtn.o
                0x100a0e70                . = ALIGN (0x4)
                0x100a0e70                __fini_array_start = .
 *(.fini_array)
 .fini_array    0x100a0e70        0x4 /home/leon/riotboard/arm-2012.09/bin/../lib/gcc/arm-none-eabi/4.7.2//crtbegin.o
 *(SORT(.fini_array.*))
                0x100a0e74                __fini_array_end = .
                0x100a0e74                PROVIDE (__exidx_start, .)

.eh_frame       0x100a0e74        0x4
 .eh_frame      0x100a0e74        0x0 /home/leon/riotboard/arm-2012.09/bin/../lib/gcc/arm-none-eabi/4.7.2//crtbegin.o
 .eh_frame      0x100a0e74        0x4 /home/leon/riotboard/arm-2012.09/bin/../lib/gcc/arm-none-eabi/4.7.2//crtend.o

.wavedata       0x100a0e78    0xc24e0
 .wavedata      0x100a0e78    0xc24e0 /home/leon/git/swp-report/iMX6_Platform_SDK/output/mx6sdl/sdk_unit_test/smart_device_rev_a/libsdk_unit_test.a(wav_file.o)
                0x100a0e78                wavefile_start
                0x10163358                wavefile_end

.ARM.exidx      0x10163358      0x1e0
 *(.ARM.exidx* .gnu.linkonce.armexidx.*)
 .ARM.exidx.startup
                0x10163358        0x8 /home/leon/git/swp-report/iMX6_Platform_SDK/output/mx6sdl/lib/libsdk.a(startup.o)
 .ARM.exidx     0x10163360        0x0 /home/leon/riotboard/arm-2012.09/bin/../lib/gcc/arm-none-eabi/4.7.2//libgcc.a(_divdi3.o)
                                  0x8 (size before relaxing)
 .ARM.exidx     0x10163360        0x0 /home/leon/riotboard/arm-2012.09/bin/../lib/gcc/arm-none-eabi/4.7.2//libgcc.a(_udivdi3.o)
                                  0x8 (size before relaxing)
 .ARM.exidx.text.__cxa_pure_virtual
                0x10163360        0x8 /home/leon/riotboard/arm-2012.09/bin/../arm-none-eabi/lib//libstdc++.a(pure.o)
 .ARM.exidx.text.__cxa_deleted_virtual
                0x10163368        0x8 /home/leon/riotboard/arm-2012.09/bin/../arm-none-eabi/lib//libstdc++.a(pure.o)
 .ARM.exidx.text._ZN10__cxxabiv111__terminateEPFvvE
                0x10163370        0x8 /home/leon/riotboard/arm-2012.09/bin/../arm-none-eabi/lib//libstdc++.a(eh_terminate.o)
 .ARM.exidx.text._ZSt9terminatev
                0x10163378        0x8 /home/leon/riotboard/arm-2012.09/bin/../arm-none-eabi/lib//libstdc++.a(eh_terminate.o)
 .ARM.exidx.text._ZN10__cxxabiv112__unexpectedEPFvvE
                0x10163380        0x8 /home/leon/riotboard/arm-2012.09/bin/../arm-none-eabi/lib//libstdc++.a(eh_terminate.o)
 .ARM.exidx.text._ZSt10unexpectedv
                0x10163388        0x8 /home/leon/riotboard/arm-2012.09/bin/../arm-none-eabi/lib//libstdc++.a(eh_terminate.o)
 .ARM.exidx.text._ZSt13set_terminatePFvvE
                0x10163390        0x8 /home/leon/riotboard/arm-2012.09/bin/../arm-none-eabi/lib//libstdc++.a(eh_terminate.o)
 .ARM.exidx.text._ZSt14set_unexpectedPFvvE
                0x10163398        0x0 /home/leon/riotboard/arm-2012.09/bin/../arm-none-eabi/lib//libstdc++.a(eh_terminate.o)
                                  0x8 (size before relaxing)
 .ARM.exidx.text._ZN10__cxxabiv1L24__is_gxx_exception_classEPc
                0x10163398        0x0 /home/leon/riotboard/arm-2012.09/bin/../arm-none-eabi/lib//libstdc++.a(eh_call.o)
                                  0x8 (size before relaxing)
 .ARM.exidx.text.__cxa_call_terminate
                0x10163398        0x0 /home/leon/riotboard/arm-2012.09/bin/../arm-none-eabi/lib//libstdc++.a(eh_call.o)
                                  0x8 (size before relaxing)
 .ARM.exidx.text.__cxa_call_unexpected
                0x10163398        0x8 /home/leon/riotboard/arm-2012.09/bin/../arm-none-eabi/lib//libstdc++.a(eh_call.o)
 .ARM.exidx.text._ZL23__gxx_exception_cleanup19_Unwind_Reason_CodeP21_Unwind_Control_Block
                0x101633a0        0x8 /home/leon/riotboard/arm-2012.09/bin/../arm-none-eabi/lib//libstdc++.a(eh_throw.o)
 .ARM.exidx.text.__cxa_throw
                0x101633a8        0x8 /home/leon/riotboard/arm-2012.09/bin/../arm-none-eabi/lib//libstdc++.a(eh_throw.o)
 .ARM.exidx.text.__cxa_rethrow
                0x101633b0       0x10 /home/leon/riotboard/arm-2012.09/bin/../arm-none-eabi/lib//libstdc++.a(eh_throw.o)
                                  0x8 (size before relaxing)
 .ARM.exidx.text.__cxa_type_match
                0x101633c0        0x8 /home/leon/riotboard/arm-2012.09/bin/../arm-none-eabi/lib//libstdc++.a(eh_arm.o)
 .ARM.exidx.text.__cxa_begin_cleanup
                0x101633c8        0x8 /home/leon/riotboard/arm-2012.09/bin/../arm-none-eabi/lib//libstdc++.a(eh_arm.o)
 .ARM.exidx.text.__gnu_end_cleanup
                0x101633d0        0x0 /home/leon/riotboard/arm-2012.09/bin/../arm-none-eabi/lib//libstdc++.a(eh_arm.o)
                                  0x8 (size before relaxing)
 .ARM.exidx.text._ZNSt9exceptionD2Ev
                0x101633d0        0x0 /home/leon/riotboard/arm-2012.09/bin/../arm-none-eabi/lib//libstdc++.a(eh_exception.o)
                                  0x8 (size before relaxing)
 .ARM.exidx.text._ZNSt13bad_exceptionD2Ev
                0x101633d0        0x0 /home/leon/riotboard/arm-2012.09/bin/../arm-none-eabi/lib//libstdc++.a(eh_exception.o)
                                  0x8 (size before relaxing)
 .ARM.exidx.text._ZN10__cxxabiv115__forced_unwindD2Ev
                0x101633d0        0x0 /home/leon/riotboard/arm-2012.09/bin/../arm-none-eabi/lib//libstdc++.a(eh_exception.o)
                                  0x8 (size before relaxing)
 .ARM.exidx.text._ZN10__cxxabiv119__foreign_exceptionD2Ev
                0x101633d0        0x0 /home/leon/riotboard/arm-2012.09/bin/../arm-none-eabi/lib//libstdc++.a(eh_exception.o)
                                  0x8 (size before relaxing)
 .ARM.exidx.text._ZNKSt9exception4whatEv
                0x101633d0        0x0 /home/leon/riotboard/arm-2012.09/bin/../arm-none-eabi/lib//libstdc++.a(eh_exception.o)
                                  0x8 (size before relaxing)
 .ARM.exidx.text._ZNKSt13bad_exception4whatEv
                0x101633d0        0x0 /home/leon/riotboard/arm-2012.09/bin/../arm-none-eabi/lib//libstdc++.a(eh_exception.o)
                                  0x8 (size before relaxing)
 .ARM.exidx.text._ZN10__cxxabiv119__foreign_exceptionD0Ev
                0x101633d0        0x0 /home/leon/riotboard/arm-2012.09/bin/../arm-none-eabi/lib//libstdc++.a(eh_exception.o)
                                  0x8 (size before relaxing)
 .ARM.exidx.text._ZN10__cxxabiv115__forced_unwindD0Ev
                0x101633d0        0x0 /home/leon/riotboard/arm-2012.09/bin/../arm-none-eabi/lib//libstdc++.a(eh_exception.o)
                                  0x8 (size before relaxing)
 .ARM.exidx.text._ZNSt9exceptionD0Ev
                0x101633d0        0x0 /home/leon/riotboard/arm-2012.09/bin/../arm-none-eabi/lib//libstdc++.a(eh_exception.o)
                                  0x8 (size before relaxing)
 .ARM.exidx.text._ZNSt13bad_exceptionD0Ev
                0x101633d0        0x0 /home/leon/riotboard/arm-2012.09/bin/../arm-none-eabi/lib//libstdc++.a(eh_exception.o)
                                  0x8 (size before relaxing)
 .ARM.exidx.text.__cxa_allocate_exception
                0x101633d0        0x0 /home/leon/riotboard/arm-2012.09/bin/../arm-none-eabi/lib//libstdc++.a(eh_alloc.o)
                                  0x8 (size before relaxing)
 .ARM.exidx.text.__cxa_free_exception
                0x101633d0        0x0 /home/leon/riotboard/arm-2012.09/bin/../arm-none-eabi/lib//libstdc++.a(eh_alloc.o)
                                  0x8 (size before relaxing)
 .ARM.exidx.text.__cxa_allocate_dependent_exception
                0x101633d0        0x0 /home/leon/riotboard/arm-2012.09/bin/../arm-none-eabi/lib//libstdc++.a(eh_alloc.o)
                                  0x8 (size before relaxing)
 .ARM.exidx.text.__cxa_free_dependent_exception
                0x101633d0        0x0 /home/leon/riotboard/arm-2012.09/bin/../arm-none-eabi/lib//libstdc++.a(eh_alloc.o)
                                  0x8 (size before relaxing)
 .ARM.exidx.text.__cxa_get_globals_fast
                0x101633d0        0x0 /home/leon/riotboard/arm-2012.09/bin/../arm-none-eabi/lib//libstdc++.a(eh_globals.o)
                                  0x8 (size before relaxing)
 .ARM.exidx.text.__cxa_get_globals
                0x101633d0        0x0 /home/leon/riotboard/arm-2012.09/bin/../arm-none-eabi/lib//libstdc++.a(eh_globals.o)
                                  0x8 (size before relaxing)
 .ARM.exidx.text._ZNK10__cxxabiv120__si_class_type_info12__do_dyncastEiNS_17__class_type_info10__sub_kindEPKS1_PKvS4_S6_RNS1_16__dyncast_resultE
                0x101633d0        0x8 /home/leon/riotboard/arm-2012.09/bin/../arm-none-eabi/lib//libstdc++.a(si_class_type_info.o)
 .ARM.exidx.text._ZN10__cxxabiv120__si_class_type_infoD2Ev
                0x101633d8        0x8 /home/leon/riotboard/arm-2012.09/bin/../arm-none-eabi/lib//libstdc++.a(si_class_type_info.o)
 .ARM.exidx.text._ZN10__cxxabiv120__si_class_type_infoD0Ev
                0x101633e0        0x0 /home/leon/riotboard/arm-2012.09/bin/../arm-none-eabi/lib//libstdc++.a(si_class_type_info.o)
                                  0x8 (size before relaxing)
 .ARM.exidx.text._ZNK10__cxxabiv120__si_class_type_info11__do_upcastEPKNS_17__class_type_infoEPKvRNS1_15__upcast_resultE
                0x101633e0        0x8 /home/leon/riotboard/arm-2012.09/bin/../arm-none-eabi/lib//libstdc++.a(si_class_type_info.o)
 .ARM.exidx.text._ZNK10__cxxabiv120__si_class_type_info20__do_find_public_srcEiPKvPKNS_17__class_type_infoES2_
                0x101633e8        0x8 /home/leon/riotboard/arm-2012.09/bin/../arm-none-eabi/lib//libstdc++.a(si_class_type_info.o)
 .ARM.exidx.text._ZL12read_sleb128PKhPl
                0x101633f0        0x8 /home/leon/riotboard/arm-2012.09/bin/../arm-none-eabi/lib//libstdc++.a(eh_personality.o)
 .ARM.exidx.text._ZL28read_encoded_value_with_basehjPKhPj
                0x101633f8        0x8 /home/leon/riotboard/arm-2012.09/bin/../arm-none-eabi/lib//libstdc++.a(eh_personality.o)
 .ARM.exidx.text._ZL21base_of_encoded_valuehP15_Unwind_Context
                0x10163400        0x8 /home/leon/riotboard/arm-2012.09/bin/../arm-none-eabi/lib//libstdc++.a(eh_personality.o)
 .ARM.exidx.text._ZL17parse_lsda_headerP15_Unwind_ContextPKhP16lsda_header_info
                0x10163408        0x8 /home/leon/riotboard/arm-2012.09/bin/../arm-none-eabi/lib//libstdc++.a(eh_personality.o)
 .ARM.exidx.text.__gxx_personality_v0
                0x10163410        0x8 /home/leon/riotboard/arm-2012.09/bin/../arm-none-eabi/lib//libstdc++.a(eh_personality.o)
 .ARM.exidx.text.__cxa_get_exception_ptr
                0x10163418        0x8 /home/leon/riotboard/arm-2012.09/bin/../arm-none-eabi/lib//libstdc++.a(eh_catch.o)
 .ARM.exidx.text.__cxa_begin_catch
                0x10163420        0x8 /home/leon/riotboard/arm-2012.09/bin/../arm-none-eabi/lib//libstdc++.a(eh_catch.o)
 .ARM.exidx.text.__cxa_end_catch
                0x10163428        0x8 /home/leon/riotboard/arm-2012.09/bin/../arm-none-eabi/lib//libstdc++.a(eh_catch.o)
 .ARM.exidx.text._ZSt18uncaught_exceptionv
                0x10163430        0x8 /home/leon/riotboard/arm-2012.09/bin/../arm-none-eabi/lib//libstdc++.a(eh_catch.o)
 .ARM.exidx.text._ZNK10__cxxabiv117__class_type_info11__do_upcastEPKS0_PPv
                0x10163438        0x8 /home/leon/riotboard/arm-2012.09/bin/../arm-none-eabi/lib//libstdc++.a(class_type_info.o)
 .ARM.exidx.text._ZNK10__cxxabiv117__class_type_info20__do_find_public_srcEiPKvPKS0_S2_
                0x10163440        0x8 /home/leon/riotboard/arm-2012.09/bin/../arm-none-eabi/lib//libstdc++.a(class_type_info.o)
 .ARM.exidx.text._ZNK10__cxxabiv117__class_type_info11__do_upcastEPKS0_PKvRNS0_15__upcast_resultE
                0x10163448        0x8 /home/leon/riotboard/arm-2012.09/bin/../arm-none-eabi/lib//libstdc++.a(class_type_info.o)
 .ARM.exidx.text._ZN10__cxxabiv117__class_type_infoD2Ev
                0x10163450        0x8 /home/leon/riotboard/arm-2012.09/bin/../arm-none-eabi/lib//libstdc++.a(class_type_info.o)
 .ARM.exidx.text._ZN10__cxxabiv117__class_type_infoD0Ev
                0x10163458        0x0 /home/leon/riotboard/arm-2012.09/bin/../arm-none-eabi/lib//libstdc++.a(class_type_info.o)
                                  0x8 (size before relaxing)
 .ARM.exidx.text._ZNK10__cxxabiv117__class_type_info12__do_dyncastEiNS0_10__sub_kindEPKS0_PKvS3_S5_RNS0_16__dyncast_resultE
                0x10163458        0x8 /home/leon/riotboard/arm-2012.09/bin/../arm-none-eabi/lib//libstdc++.a(class_type_info.o)
 .ARM.exidx.text._ZNK10__cxxabiv117__class_type_info10__do_catchEPKSt9type_infoPPvj
                0x10163460        0x8 /home/leon/riotboard/arm-2012.09/bin/../arm-none-eabi/lib//libstdc++.a(class_type_info.o)
 .ARM.exidx.text._ZN9__gnu_cxx27__verbose_terminate_handlerEv
                0x10163468       0x10 /home/leon/riotboard/arm-2012.09/bin/../arm-none-eabi/lib//libstdc++.a(vterminate.o)
                                  0x8 (size before relaxing)
 .ARM.exidx.text.__cxa_current_exception_type
                0x10163478        0x0 /home/leon/riotboard/arm-2012.09/bin/../arm-none-eabi/lib//libstdc++.a(eh_type.o)
                                  0x8 (size before relaxing)
 .ARM.exidx.text._ZdlPv
                0x10163478        0x0 /home/leon/riotboard/arm-2012.09/bin/../arm-none-eabi/lib//libstdc++.a(del_op.o)
                                  0x8 (size before relaxing)
 .ARM.exidx.text._ZNSt9type_infoD2Ev
                0x10163478        0x0 /home/leon/riotboard/arm-2012.09/bin/../arm-none-eabi/lib//libstdc++.a(tinfo.o)
                                  0x8 (size before relaxing)
 .ARM.exidx.text._ZNKSt9type_info14__is_pointer_pEv
                0x10163478        0x0 /home/leon/riotboard/arm-2012.09/bin/../arm-none-eabi/lib//libstdc++.a(tinfo.o)
                                  0x8 (size before relaxing)
 .ARM.exidx.text._ZNKSt9type_info15__is_function_pEv
                0x10163478        0x0 /home/leon/riotboard/arm-2012.09/bin/../arm-none-eabi/lib//libstdc++.a(tinfo.o)
                                  0x8 (size before relaxing)
 .ARM.exidx.text._ZNKSt9type_info11__do_upcastEPKN10__cxxabiv117__class_type_infoEPPv
                0x10163478        0x0 /home/leon/riotboard/arm-2012.09/bin/../arm-none-eabi/lib//libstdc++.a(tinfo.o)
                                  0x8 (size before relaxing)
 .ARM.exidx.text._ZNSt9type_infoD0Ev
                0x10163478        0x0 /home/leon/riotboard/arm-2012.09/bin/../arm-none-eabi/lib//libstdc++.a(tinfo.o)
                                  0x8 (size before relaxing)
 .ARM.exidx.text._ZNKSt9type_infoeqERKS_
                0x10163478        0x0 /home/leon/riotboard/arm-2012.09/bin/../arm-none-eabi/lib//libstdc++.a(tinfo.o)
                                  0x8 (size before relaxing)
 .ARM.exidx.text._ZNKSt9type_info10__do_catchEPKS_PPvj
                0x10163478        0x0 /home/leon/riotboard/arm-2012.09/bin/../arm-none-eabi/lib//libstdc++.a(tinfo.o)
                                  0x8 (size before relaxing)
 .ARM.exidx     0x10163478       0x88 /home/leon/riotboard/arm-2012.09/bin/../lib/gcc/arm-none-eabi/4.7.2//libgcc.a(unwind-arm.o)
                                 0xd8 (size before relaxing)
 .ARM.exidx     0x10163500       0x38 /home/leon/riotboard/arm-2012.09/bin/../lib/gcc/arm-none-eabi/4.7.2//libgcc.a(pr-support.o)
                                 0x48 (size before relaxing)
                0x10163538                PROVIDE (__exidx_end, .)

.rel.dyn        0x10163538        0x0
 .rel.iplt      0x00000000        0x0 /home/leon/riotboard/arm-2012.09/bin/../lib/gcc/arm-none-eabi/4.7.2//crtbegin.o

.data           0x10163538    0x1f370
 *(.data .data.* .gnu.linkonce.d.*)
 .data          0x10163538        0x4 /home/leon/riotboard/arm-2012.09/bin/../lib/gcc/arm-none-eabi/4.7.2//crtbegin.o
                0x10163538                __dso_handle
 .data          0x1016353c        0x0 /home/leon/riotboard/arm-2012.09/bin/../lib/gcc/arm-none-eabi/4.7.2//crti.o
 .data          0x1016353c        0x0 /home/leon/riotboard/arm-2012.09/bin/../lib/gcc/arm-none-eabi/4.7.2//crtend.o
 .data          0x1016353c        0x0 /home/leon/riotboard/arm-2012.09/bin/../lib/gcc/arm-none-eabi/4.7.2//crtn.o
 .data          0x1016353c        0x0 /home/leon/git/swp-report/iMX6_Platform_SDK/output/mx6sdl/sdk_unit_test/smart_device_rev_a/obj/apps/common/ivt.o
 .data          0x1016353c        0x0 /home/leon/git/swp-report/iMX6_Platform_SDK/output/mx6sdl/sdk_unit_test/smart_device_rev_a/obj/apps/common/platform_init.o
 .data          0x1016353c        0x0 /home/leon/git/swp-report/iMX6_Platform_SDK/output/mx6sdl/sdk_unit_test/smart_device_rev_a/obj/apps/common/print_clock_info.o
 .data          0x1016353c        0x0 /home/leon/git/swp-report/iMX6_Platform_SDK/output/mx6sdl/sdk_unit_test/smart_device_rev_a/obj/apps/common/print_version.o
 .data          0x1016353c        0x0 /home/leon/git/swp-report/iMX6_Platform_SDK/output/mx6sdl/sdk_unit_test/smart_device_rev_a/obj/apps/sdk_unit_test/src/all_test.o
 .data          0x1016353c        0x0 /home/leon/git/swp-report/iMX6_Platform_SDK/output/mx6sdl/sdk_unit_test/smart_device_rev_a/obj/apps/sdk_unit_test/src/unit_test_main.o
 .data          0x1016353c        0x0 /home/leon/git/swp-report/iMX6_Platform_SDK/output/mx6sdl/lib/libsdk.a(ccm_pll.o)
 .data          0x1016353c        0x0 /home/leon/git/swp-report/iMX6_Platform_SDK/output/mx6sdl/lib/libsdk.a(cortexA9.o)
 .data          0x1016353c        0x0 /home/leon/git/swp-report/iMX6_Platform_SDK/output/mx6sdl/lib/libsdk.a(gic.o)
 .data          0x1016353c        0x0 /home/leon/git/swp-report/iMX6_Platform_SDK/output/mx6sdl/lib/libsdk.a(mmu.o)
 .data          0x1016353c        0x0 /home/leon/git/swp-report/iMX6_Platform_SDK/output/mx6sdl/lib/libsdk.a(startup.o)
 .data          0x1016353c        0x0 /home/leon/git/swp-report/iMX6_Platform_SDK/output/mx6sdl/lib/libsdk.a(vectors.o)
 .data          0x1016353c        0x4 /home/leon/git/swp-report/iMX6_Platform_SDK/output/mx6sdl/lib/libsdk.a(menu.o)
 .data          0x10163540        0x0 /home/leon/git/swp-report/iMX6_Platform_SDK/output/mx6sdl/lib/libsdk.a(sdk_version.o)
 .data          0x10163540        0x0 /home/leon/git/swp-report/iMX6_Platform_SDK/output/mx6sdl/lib/libsdk.a(system_util.o)
 .data          0x10163540        0x4 /home/leon/git/swp-report/iMX6_Platform_SDK/output/mx6sdl/lib/libsdk.a(text_color.o)
                0x10163540                is_color_supported
 .data          0x10163544        0x0 /home/leon/git/swp-report/iMX6_Platform_SDK/output/mx6sdl/lib/libsdk.a(board_id.o)
 .data          0x10163544        0x0 /home/leon/git/swp-report/iMX6_Platform_SDK/output/mx6sdl/lib/libsdk.a(timer.o)
 .data          0x10163544        0x0 /home/leon/git/swp-report/iMX6_Platform_SDK/output/mx6sdl/lib/libsdk.a(imx_uart.o)
 .data          0x10163544        0x4 /home/leon/git/swp-report/iMX6_Platform_SDK/output/mx6sdl/lib/libsdk.a(arm_abort.o)
 .data          0x10163548        0x0 /home/leon/git/swp-report/iMX6_Platform_SDK/output/mx6sdl/lib/libsdk.a(interrupt.o)
 .data          0x10163548        0x0 /home/leon/git/swp-report/iMX6_Platform_SDK/output/mx6sdl/lib/libsdk.a(epit.o)
 .data          0x10163548        0x0 /home/leon/git/swp-report/iMX6_Platform_SDK/output/mx6sdl/lib/libsdk.a(abort_handler.o)
 .data          0x10163548        0x0 /home/leon/git/swp-report/iMX6_Platform_SDK/output/mx6sdl/lib/libboard_smart_device_rev_a.a(board_io_expanders.o)
 .data          0x10163548        0x8 /home/leon/git/swp-report/iMX6_Platform_SDK/output/mx6sdl/lib/libboard_smart_device_rev_a.a(hardware_modules.o)
                0x10163548                g_debug_uart_port
                0x1016354c                g_system_timer_port
 .data          0x10163550        0x0 /home/leon/git/swp-report/iMX6_Platform_SDK/output/mx6sdl/lib/libboard_smart_device_rev_a.a(dcd.o)
 .data          0x10163550        0x0 /home/leon/git/swp-report/iMX6_Platform_SDK/output/mx6sdl/lib/libboard_smart_device_rev_a.a(uart_iomux_config.o)
 .data          0x10163550        0x0 /home/leon/git/swp-report/iMX6_Platform_SDK/output/mx6sdl/lib/libboard_smart_device_rev_a.a(iomux_config.o)
 .data          0x10163550        0x0 /home/leon/git/swp-report/iMX6_Platform_SDK/output/mx6sdl/lib/libboard_smart_device_rev_a.a(ipu1_iomux_config.o)
 .data          0x10163550        0x0 /home/leon/git/swp-report/iMX6_Platform_SDK/output/mx6sdl/lib/libboard_smart_device_rev_a.a(kpp_iomux_config.o)
 .data          0x10163550        0x0 /home/leon/git/swp-report/iMX6_Platform_SDK/output/mx6sdl/lib/libboard_smart_device_rev_a.a(mmdc_iomux_config.o)
 .data          0x10163550        0x0 /home/leon/git/swp-report/iMX6_Platform_SDK/output/mx6sdl/lib/libboard_smart_device_rev_a.a(pwm1_iomux_config.o)
 .data          0x10163550        0x0 /home/leon/git/swp-report/iMX6_Platform_SDK/output/mx6sdl/lib/libboard_smart_device_rev_a.a(sjc_iomux_config.o)
 .data          0x10163550        0x0 /home/leon/git/swp-report/iMX6_Platform_SDK/output/mx6sdl/lib/libboard_smart_device_rev_a.a(uart1_iomux_config.o)
 .data          0x10163550        0x0 /home/leon/git/swp-report/iMX6_Platform_SDK/output/mx6sdl/lib/libboard_smart_device_rev_a.a(usdhc2_iomux_config.o)
 .data          0x10163550        0x0 /home/leon/git/swp-report/iMX6_Platform_SDK/output/mx6sdl/lib/libboard_smart_device_rev_a.a(usdhc3_iomux_config.o)
 .data          0x10163550        0x0 /home/leon/git/swp-report/iMX6_Platform_SDK/output/mx6sdl/lib/libboard_smart_device_rev_a.a(usdhc4_iomux_config.o)
 .data          0x10163550        0x0 /home/leon/git/swp-report/iMX6_Platform_SDK/output/mx6sdl/lib/libboard_smart_device_rev_a.a(audmux_iomux_config.o)
 .data          0x10163550        0x0 /home/leon/git/swp-report/iMX6_Platform_SDK/output/mx6sdl/lib/libboard_smart_device_rev_a.a(ccm_iomux_config.o)
 .data          0x10163550        0x0 /home/leon/git/swp-report/iMX6_Platform_SDK/output/mx6sdl/lib/libboard_smart_device_rev_a.a(ecspi1_iomux_config.o)
 .data          0x10163550        0x0 /home/leon/git/swp-report/iMX6_Platform_SDK/output/mx6sdl/lib/libboard_smart_device_rev_a.a(enet_iomux_config.o)
 .data          0x10163550        0x0 /home/leon/git/swp-report/iMX6_Platform_SDK/output/mx6sdl/lib/libboard_smart_device_rev_a.a(epdc_iomux_config.o)
 .data          0x10163550        0x0 /home/leon/git/swp-report/iMX6_Platform_SDK/output/mx6sdl/lib/libboard_smart_device_rev_a.a(flexcan1_iomux_config.o)
 .data          0x10163550        0x0 /home/leon/git/swp-report/iMX6_Platform_SDK/output/mx6sdl/lib/libboard_smart_device_rev_a.a(gpio1_iomux_config.o)
 .data          0x10163550        0x0 /home/leon/git/swp-report/iMX6_Platform_SDK/output/mx6sdl/lib/libboard_smart_device_rev_a.a(gpio2_iomux_config.o)
 .data          0x10163550        0x0 /home/leon/git/swp-report/iMX6_Platform_SDK/output/mx6sdl/lib/libboard_smart_device_rev_a.a(gpio3_iomux_config.o)
 .data          0x10163550        0x0 /home/leon/git/swp-report/iMX6_Platform_SDK/output/mx6sdl/lib/libboard_smart_device_rev_a.a(gpio4_iomux_config.o)
 .data          0x10163550        0x0 /home/leon/git/swp-report/iMX6_Platform_SDK/output/mx6sdl/lib/libboard_smart_device_rev_a.a(gpio5_iomux_config.o)
 .data          0x10163550        0x0 /home/leon/git/swp-report/iMX6_Platform_SDK/output/mx6sdl/lib/libboard_smart_device_rev_a.a(gpio6_iomux_config.o)
 .data          0x10163550        0x0 /home/leon/git/swp-report/iMX6_Platform_SDK/output/mx6sdl/lib/libboard_smart_device_rev_a.a(gpio7_iomux_config.o)
 .data          0x10163550        0x0 /home/leon/git/swp-report/iMX6_Platform_SDK/output/mx6sdl/lib/libboard_smart_device_rev_a.a(gps_iomux_config.o)
 .data          0x10163550        0x0 /home/leon/git/swp-report/iMX6_Platform_SDK/output/mx6sdl/lib/libboard_smart_device_rev_a.a(i2c1_iomux_config.o)
 .data          0x10163550        0x0 /home/leon/git/swp-report/iMX6_Platform_SDK/output/mx6sdl/lib/libboard_smart_device_rev_a.a(i2c2_iomux_config.o)
 .data          0x10163550        0x0 /home/leon/git/swp-report/iMX6_Platform_SDK/output/mx6sdl/lib/libboard_smart_device_rev_a.a(i2c3_iomux_config.o)
 .data          0x10163550        0x0 /home/leon/git/swp-report/iMX6_Platform_SDK/output/mx6sdl/sdk_unit_test/smart_device_rev_a/libsdk_unit_test.a(cpu_wp_test.o)
 .data          0x10163550        0x0 /home/leon/git/swp-report/iMX6_Platform_SDK/output/mx6sdl/sdk_unit_test/smart_device_rev_a/libsdk_unit_test.a(multicore_test.o)
 .data          0x10163550       0x1c /home/leon/git/swp-report/iMX6_Platform_SDK/output/mx6sdl/sdk_unit_test/smart_device_rev_a/libsdk_unit_test.a(audio_test.o)
                0x10163550                pcm_para
                0x1016355c                pcm_music
 .data          0x1016356c        0x0 /home/leon/git/swp-report/iMX6_Platform_SDK/output/mx6sdl/sdk_unit_test/smart_device_rev_a/libsdk_unit_test.a(wav_file.o)
 .data          0x1016356c        0x0 /home/leon/git/swp-report/iMX6_Platform_SDK/output/mx6sdl/sdk_unit_test/smart_device_rev_a/libsdk_unit_test.a(gic_test.o)
 .data          0x1016356c        0x0 /home/leon/git/swp-report/iMX6_Platform_SDK/output/mx6sdl/sdk_unit_test/smart_device_rev_a/libsdk_unit_test.a(ocotp_test.o)
 .data          0x1016356c        0x0 /home/leon/git/swp-report/iMX6_Platform_SDK/output/mx6sdl/sdk_unit_test/smart_device_rev_a/libsdk_unit_test.a(snvs_rtc_test.o)
 .data          0x1016356c        0x0 /home/leon/git/swp-report/iMX6_Platform_SDK/output/mx6sdl/sdk_unit_test/smart_device_rev_a/libsdk_unit_test.a(snvs_srtc_test.o)
 .data          0x1016356c        0x0 /home/leon/git/swp-report/iMX6_Platform_SDK/output/mx6sdl/sdk_unit_test/smart_device_rev_a/libsdk_unit_test.a(i2c_test.o)
 .data          0x1016356c       0x18 /home/leon/git/swp-report/iMX6_Platform_SDK/output/mx6sdl/sdk_unit_test/smart_device_rev_a/libsdk_unit_test.a(imx6_i2c_device.o)
 .data          0x10163584        0x0 /home/leon/git/swp-report/iMX6_Platform_SDK/output/mx6sdl/sdk_unit_test/smart_device_rev_a/libsdk_unit_test.a(tempmon_test.o)
 .data          0x10163584       0x20 /home/leon/git/swp-report/iMX6_Platform_SDK/output/mx6sdl/sdk_unit_test/smart_device_rev_a/libsdk_unit_test.a(sdma_test.o)
 .data          0x101635a4        0x0 /home/leon/git/swp-report/iMX6_Platform_SDK/output/mx6sdl/sdk_unit_test/smart_device_rev_a/libsdk_unit_test.a(spi_lpb.o)
 .data          0x101635a4        0x8 /home/leon/git/swp-report/iMX6_Platform_SDK/output/mx6sdl/sdk_unit_test/smart_device_rev_a/libsdk_unit_test.a(uart_loopback.o)
 .data          0x101635ac        0x4 /home/leon/git/swp-report/iMX6_Platform_SDK/output/mx6sdl/sdk_unit_test/smart_device_rev_a/libsdk_unit_test.a(uart_test.o)
 .data          0x101635b0        0x4 /home/leon/git/swp-report/iMX6_Platform_SDK/output/mx6sdl/sdk_unit_test/smart_device_rev_a/libsdk_unit_test.a(epit_test.o)
 .data          0x101635b4        0x0 /home/leon/git/swp-report/iMX6_Platform_SDK/output/mx6sdl/sdk_unit_test/smart_device_rev_a/libsdk_unit_test.a(gpt_test.o)
 .data          0x101635b4        0x0 /home/leon/git/swp-report/iMX6_Platform_SDK/output/mx6sdl/sdk_unit_test/smart_device_rev_a/libsdk_unit_test.a(timer_test.o)
 .data          0x101635b4       0x68 /home/leon/git/swp-report/iMX6_Platform_SDK/output/mx6sdl/sdk_unit_test/smart_device_rev_a/libsdk_unit_test.a(usdhc_test.o)
 .data          0x1016361c        0x0 /home/leon/git/swp-report/iMX6_Platform_SDK/output/mx6sdl/sdk_unit_test/smart_device_rev_a/libsdk_unit_test.a(watchdog_test.o)
 .data          0x1016361c        0x8 /home/leon/git/swp-report/iMX6_Platform_SDK/output/mx6sdl/sdk_unit_test/smart_device_rev_a/libsdk_unit_test.a(pwm_test.o)
 .data          0x10163624        0x0 /home/leon/git/swp-report/iMX6_Platform_SDK/output/mx6sdl/sdk_unit_test/smart_device_rev_a/libsdk_unit_test.a(hdmi_test.o)
 .data          0x10163624        0x0 /home/leon/git/swp-report/iMX6_Platform_SDK/output/mx6sdl/sdk_unit_test/smart_device_rev_a/libsdk_unit_test.a(ips_display.o)
 .data          0x10163624       0x28 /home/leon/git/swp-report/iMX6_Platform_SDK/output/mx6sdl/sdk_unit_test/smart_device_rev_a/libsdk_unit_test.a(ips_test.o)
 .data          0x1016364c        0x0 /home/leon/git/swp-report/iMX6_Platform_SDK/output/mx6sdl/sdk_unit_test/smart_device_rev_a/libsdk_unit_test.a(ipu_image.o)
 .data          0x1016364c      0x100 /home/leon/git/swp-report/iMX6_Platform_SDK/output/mx6sdl/sdk_unit_test/smart_device_rev_a/libsdk_unit_test.a(keypad_test.o)
 .data          0x1016374c       0x10 /home/leon/git/swp-report/iMX6_Platform_SDK/output/mx6sdl/sdk_unit_test/smart_device_rev_a/libsdk_unit_test.a(camera_test.o)
 .data          0x1016375c        0x0 /home/leon/git/swp-report/iMX6_Platform_SDK/output/mx6sdl/sdk_unit_test/smart_device_rev_a/libsdk_unit_test.a(csi_test_mode.o)
 .data          0x1016375c        0x0 /home/leon/git/swp-report/iMX6_Platform_SDK/output/mx6sdl/sdk_unit_test/smart_device_rev_a/libsdk_unit_test.a(sensor_capture.o)
 .data          0x1016375c        0x4 /home/leon/git/swp-report/iMX6_Platform_SDK/output/mx6sdl/sdk_unit_test/smart_device_rev_a/libsdk_unit_test.a(pcie_test_rc.o)
                0x1016375c                res_num
 .data          0x10163760       0x24 /home/leon/git/swp-report/iMX6_Platform_SDK/output/mx6sdl/sdk_unit_test/smart_device_rev_a/libsdk_unit_test.a(usb_test.o)
 .data          0x10163784        0x8 /home/leon/git/swp-report/iMX6_Platform_SDK/output/mx6sdl/sdk_unit_test/smart_device_rev_a/libsdk_unit_test.a(enet_test.o)
 .data          0x1016378c        0xc /home/leon/git/swp-report/iMX6_Platform_SDK/output/mx6sdl/sdk_unit_test/smart_device_rev_a/libsdk_unit_test.a(spi_test.o)
 .data          0x10163798        0x0 /home/leon/git/swp-report/iMX6_Platform_SDK/output/mx6sdl/sdk_unit_test/smart_device_rev_a/libsdk_unit_test.a(accelerometer_test.o)
 .data          0x10163798       0x10 /home/leon/git/swp-report/iMX6_Platform_SDK/output/mx6sdl/sdk_unit_test/smart_device_rev_a/libsdk_unit_test.a(at24cxx.o)
 .data          0x101637a8        0x0 /home/leon/git/swp-report/iMX6_Platform_SDK/output/mx6sdl/sdk_unit_test/smart_device_rev_a/libsdk_unit_test.a(mem_2_mem.o)
 .data          0x101637a8        0x0 /home/leon/git/swp-report/iMX6_Platform_SDK/output/mx6sdl/sdk_unit_test/smart_device_rev_a/libsdk_unit_test.a(pwm_output.o)
 .data          0x101637a8        0x0 /home/leon/git/swp-report/iMX6_Platform_SDK/output/mx6sdl/sdk_unit_test/smart_device_rev_a/libsdk_unit_test.a(init_dma_data.o)
 .data          0x101637a8        0x0 /home/leon/git/swp-report/iMX6_Platform_SDK/output/mx6sdl/sdk_unit_test/smart_device_rev_a/libsdk_unit_test.a(ips_combiner.o)
 .data          0x101637a8        0x0 /home/leon/git/swp-report/iMX6_Platform_SDK/output/mx6sdl/sdk_unit_test/smart_device_rev_a/libsdk_unit_test.a(ips_csc.o)
 .data          0x101637a8        0x0 /home/leon/git/swp-report/iMX6_Platform_SDK/output/mx6sdl/sdk_unit_test/smart_device_rev_a/libsdk_unit_test.a(ips_resize.o)
 .data          0x101637a8        0x0 /home/leon/git/swp-report/iMX6_Platform_SDK/output/mx6sdl/sdk_unit_test/smart_device_rev_a/libsdk_unit_test.a(ips_rotate.o)
 .data          0x101637a8       0x10 /home/leon/git/swp-report/iMX6_Platform_SDK/output/mx6sdl/sdk_unit_test/smart_device_rev_a/libsdk_unit_test.a(usb0_device_mouse_test.o)
                0x101637a8                qf_Descriptor
 .data          0x101637b8        0x0 /home/leon/git/swp-report/iMX6_Platform_SDK/output/mx6sdl/sdk_unit_test/smart_device_rev_a/libsdk_unit_test.a(usb0_host_test.o)
 .data          0x101637b8       0x28 /home/leon/git/swp-report/iMX6_Platform_SDK/output/mx6sdl/sdk_unit_test/smart_device_rev_a/libsdk_unit_test.a(usb0_host_testmodes_test.o)
 .data          0x101637e0        0x0 /home/leon/git/swp-report/iMX6_Platform_SDK/output/mx6sdl/sdk_unit_test/smart_device_rev_a/libsdk_unit_test.a(spi_nor_numonyx.o)
 .data          0x101637e0        0x0 /home/leon/riotboard/arm-2012.09/bin/../arm-none-eabi/lib//libm.a(lib_a-sf_cos.o)
 .data          0x101637e0        0x0 /home/leon/riotboard/arm-2012.09/bin/../arm-none-eabi/lib//libm.a(lib_a-sf_fabs.o)
 .data          0x101637e0        0x0 /home/leon/riotboard/arm-2012.09/bin/../arm-none-eabi/lib//libm.a(lib_a-sf_modf.o)
 .data          0x101637e0        0x0 /home/leon/riotboard/arm-2012.09/bin/../arm-none-eabi/lib//libm.a(lib_a-sf_sin.o)
 .data          0x101637e0        0x0 /home/leon/riotboard/arm-2012.09/bin/../arm-none-eabi/lib//libm.a(lib_a-ef_rem_pio2.o)
 .data          0x101637e0        0x0 /home/leon/riotboard/arm-2012.09/bin/../arm-none-eabi/lib//libm.a(lib_a-kf_cos.o)
 .data          0x101637e0        0x0 /home/leon/riotboard/arm-2012.09/bin/../arm-none-eabi/lib//libm.a(lib_a-kf_rem_pio2.o)
 .data          0x101637e0        0x0 /home/leon/riotboard/arm-2012.09/bin/../arm-none-eabi/lib//libm.a(lib_a-kf_sin.o)
 .data          0x101637e0        0x0 /home/leon/riotboard/arm-2012.09/bin/../arm-none-eabi/lib//libm.a(lib_a-sf_floor.o)
 .data          0x101637e0        0x0 /home/leon/riotboard/arm-2012.09/bin/../arm-none-eabi/lib//libm.a(lib_a-sf_scalbn.o)
 .data          0x101637e0        0x0 /home/leon/riotboard/arm-2012.09/bin/../arm-none-eabi/lib//libm.a(lib_a-sf_copysign.o)
 .data          0x101637e0        0x0 /home/leon/riotboard/arm-2012.09/bin/../arm-none-eabi/lib//libc.a(lib_a-assert.o)
 .data          0x101637e0        0x0 /home/leon/riotboard/arm-2012.09/bin/../arm-none-eabi/lib//libc.a(lib_a-bzero.o)
 .data          0x101637e0        0x0 /home/leon/riotboard/arm-2012.09/bin/../arm-none-eabi/lib//libc.a(lib_a-fflush.o)
 .data          0x101637e0        0x0 /home/leon/riotboard/arm-2012.09/bin/../arm-none-eabi/lib//libc.a(lib_a-findfp.o)
 .data          0x101637e0        0x0 /home/leon/riotboard/arm-2012.09/bin/../arm-none-eabi/lib//libc.a(lib_a-fiprintf.o)
 .data          0x101637e0        0x0 /home/leon/riotboard/arm-2012.09/bin/../arm-none-eabi/lib//libc.a(lib_a-fputc.o)
 .data          0x101637e0        0x0 /home/leon/riotboard/arm-2012.09/bin/../arm-none-eabi/lib//libc.a(lib_a-fputs.o)
 .data          0x101637e0        0x0 /home/leon/riotboard/arm-2012.09/bin/../arm-none-eabi/lib//libc.a(lib_a-freer.o)
 .data          0x101637e0        0x0 /home/leon/riotboard/arm-2012.09/bin/../arm-none-eabi/lib//libc.a(lib_a-fvwrite.o)
 .data          0x101637e0        0x0 /home/leon/riotboard/arm-2012.09/bin/../arm-none-eabi/lib//libc.a(lib_a-fwalk.o)
 .data          0x101637e0      0x430 /home/leon/riotboard/arm-2012.09/bin/../arm-none-eabi/lib//libc.a(lib_a-impure.o)
                0x101637e0                _impure_ptr
 .data          0x10163c10        0x0 /home/leon/riotboard/arm-2012.09/bin/../arm-none-eabi/lib//libc.a(lib_a-init.o)
 .data          0x10163c10        0x0 /home/leon/riotboard/arm-2012.09/bin/../arm-none-eabi/lib//libc.a(lib_a-malloc.o)
 .data          0x10163c10      0x410 /home/leon/riotboard/arm-2012.09/bin/../arm-none-eabi/lib//libc.a(lib_a-mallocr.o)
                0x10163c10                __malloc_av_
                0x10164018                __malloc_sbrk_base
                0x1016401c                __malloc_trim_threshold
 .data          0x10164020        0x0 /home/leon/riotboard/arm-2012.09/bin/../arm-none-eabi/lib//libc.a(lib_a-memchr.o)
 .data          0x10164020        0x0 /home/leon/riotboard/arm-2012.09/bin/../arm-none-eabi/lib//libc.a(lib_a-memcpy.o)
 .data          0x10164020        0x0 /home/leon/riotboard/arm-2012.09/bin/../arm-none-eabi/lib//libc.a(lib_a-memmove.o)
 .data          0x10164020        0x0 /home/leon/riotboard/arm-2012.09/bin/../arm-none-eabi/lib//libc.a(lib_a-memset.o)
 .data          0x10164020        0x0 /home/leon/riotboard/arm-2012.09/bin/../arm-none-eabi/lib//libc.a(lib_a-mlock.o)
 .data          0x10164020        0x0 /home/leon/riotboard/arm-2012.09/bin/../arm-none-eabi/lib//libc.a(lib_a-printf.o)
 .data          0x10164020        0x0 /home/leon/riotboard/arm-2012.09/bin/../arm-none-eabi/lib//libc.a(lib_a-putc.o)
 .data          0x10164020        0x0 /home/leon/riotboard/arm-2012.09/bin/../arm-none-eabi/lib//libc.a(lib_a-realloc.o)
 .data          0x10164020        0x0 /home/leon/riotboard/arm-2012.09/bin/../arm-none-eabi/lib//libc.a(lib_a-reallocr.o)
 .data          0x10164020        0x0 /home/leon/riotboard/arm-2012.09/bin/../arm-none-eabi/lib//libc.a(lib_a-rget.o)
 .data          0x10164020        0x0 /home/leon/riotboard/arm-2012.09/bin/../arm-none-eabi/lib//libc.a(lib_a-sbrkr.o)
 .data          0x10164020        0x0 /home/leon/riotboard/arm-2012.09/bin/../arm-none-eabi/lib//libc.a(lib_a-sprintf.o)
 .data          0x10164020        0x0 /home/leon/riotboard/arm-2012.09/bin/../arm-none-eabi/lib//libc.a(lib_a-stdio.o)
 .data          0x10164020        0x0 /home/leon/riotboard/arm-2012.09/bin/../arm-none-eabi/lib//libc.a(lib_a-strlen.o)
 .data          0x10164020        0x0 /home/leon/riotboard/arm-2012.09/bin/../arm-none-eabi/lib//libc.a(lib_a-strncasecmp.o)
 .data          0x10164020        0x0 /home/leon/riotboard/arm-2012.09/bin/../arm-none-eabi/lib//libc.a(lib_a-svfprintf.o)
 .data          0x10164020        0x0 /home/leon/riotboard/arm-2012.09/bin/../arm-none-eabi/lib//libc.a(lib_a-vfiprintf.o)
 .data          0x10164020        0x0 /home/leon/riotboard/arm-2012.09/bin/../arm-none-eabi/lib//libc.a(lib_a-vfprintf.o)
 .data          0x10164020        0x0 /home/leon/riotboard/arm-2012.09/bin/../arm-none-eabi/lib//libc.a(lib_a-vprintf.o)
 .data          0x10164020        0x0 /home/leon/riotboard/arm-2012.09/bin/../arm-none-eabi/lib//libc.a(lib_a-wbuf.o)
 .data          0x10164020        0x0 /home/leon/riotboard/arm-2012.09/bin/../arm-none-eabi/lib//libc.a(lib_a-writer.o)
 .data          0x10164020        0x0 /home/leon/riotboard/arm-2012.09/bin/../arm-none-eabi/lib//libc.a(lib_a-wsetup.o)
 .data          0x10164020        0x0 /home/leon/riotboard/arm-2012.09/bin/../arm-none-eabi/lib//libc.a(lib_a-abort.o)
 .data          0x10164020        0x0 /home/leon/riotboard/arm-2012.09/bin/../arm-none-eabi/lib//libc.a(lib_a-closer.o)
 .data          0x10164020        0x4 /home/leon/riotboard/arm-2012.09/bin/../arm-none-eabi/lib//libc.a(lib_a-ctype_.o)
                0x10164020                __ctype_ptr__
 .data          0x10164024        0x0 /home/leon/riotboard/arm-2012.09/bin/../arm-none-eabi/lib//libc.a(lib_a-dtoa.o)
 .data          0x10164024        0x0 /home/leon/riotboard/arm-2012.09/bin/../arm-none-eabi/lib//libc.a(lib_a-fclose.o)
 .data          0x10164024        0x0 /home/leon/riotboard/arm-2012.09/bin/../arm-none-eabi/lib//libc.a(lib_a-fputwc.o)
 .data          0x10164024       0x7c /home/leon/riotboard/arm-2012.09/bin/../arm-none-eabi/lib//libc.a(lib_a-locale.o)
                0x10164044                __mb_cur_max
 .data          0x101640a0        0x0 /home/leon/riotboard/arm-2012.09/bin/../arm-none-eabi/lib//libc.a(lib_a-lseekr.o)
 .data          0x101640a0        0x0 /home/leon/riotboard/arm-2012.09/bin/../arm-none-eabi/lib//libc.a(lib_a-makebuf.o)
 .data          0x101640a0        0x0 /home/leon/riotboard/arm-2012.09/bin/../arm-none-eabi/lib//libc.a(lib_a-mprec.o)
 .data          0x101640a0        0x0 /home/leon/riotboard/arm-2012.09/bin/../arm-none-eabi/lib//libc.a(lib_a-readr.o)
 .data          0x101640a0        0x0 /home/leon/riotboard/arm-2012.09/bin/../arm-none-eabi/lib//libc.a(lib_a-reent.o)
 .data          0x101640a0        0x0 /home/leon/riotboard/arm-2012.09/bin/../arm-none-eabi/lib//libc.a(lib_a-refill.o)
 .data          0x101640a0        0x0 /home/leon/riotboard/arm-2012.09/bin/../arm-none-eabi/lib//libc.a(lib_a-s_fpclassify.o)
 .data          0x101640a0        0x0 /home/leon/riotboard/arm-2012.09/bin/../arm-none-eabi/lib//libc.a(lib_a-signal.o)
 .data          0x101640a0        0x0 /home/leon/riotboard/arm-2012.09/bin/../arm-none-eabi/lib//libc.a(lib_a-signalr.o)
 .data          0x101640a0        0x0 /home/leon/riotboard/arm-2012.09/bin/../arm-none-eabi/lib//libc.a(lib_a-strcmp.o)
 .data          0x101640a0        0x0 /home/leon/riotboard/arm-2012.09/bin/../arm-none-eabi/lib//libc.a(lib_a-svfiprintf.o)
 .data          0x101640a0        0x0 /home/leon/riotboard/arm-2012.09/bin/../arm-none-eabi/lib//libc.a(lib_a-wcrtomb.o)
 .data          0x101640a0        0x4 /home/leon/riotboard/arm-2012.09/bin/../arm-none-eabi/lib//libc.a(lib_a-wctomb_r.o)
                0x101640a0                __wctomb
 .data          0x101640a4        0x0 /home/leon/riotboard/arm-2012.09/bin/../arm-none-eabi/lib//libc.a(lib_a-callocr.o)
 .data          0x101640a4        0x0 /home/leon/riotboard/arm-2012.09/bin/../arm-none-eabi/lib//libc.a(lib_a-fstatr.o)
 .data          0x101640a4        0x0 /home/leon/riotboard/arm-2012.09/bin/../arm-none-eabi/lib//libc.a(lib_a-isattyr.o)
 .data          0x101640a4        0x0 /home/leon/riotboard/arm-2012.09/bin/../lib/gcc/arm-none-eabi/4.7.2//libgcc.a(_udivsi3.o)
 .data          0x101640a4        0x0 /home/leon/riotboard/arm-2012.09/bin/../lib/gcc/arm-none-eabi/4.7.2//libgcc.a(_dvmd_tls.o)
 .data          0x101640a4        0x0 /home/leon/riotboard/arm-2012.09/bin/../lib/gcc/arm-none-eabi/4.7.2//libgcc.a(_arm_addsubdf3.o)
 .data          0x101640a4        0x0 /home/leon/riotboard/arm-2012.09/bin/../lib/gcc/arm-none-eabi/4.7.2//libgcc.a(_arm_muldivdf3.o)
 .data          0x101640a4        0x0 /home/leon/riotboard/arm-2012.09/bin/../lib/gcc/arm-none-eabi/4.7.2//libgcc.a(_arm_cmpdf2.o)
 .data          0x101640a4        0x0 /home/leon/riotboard/arm-2012.09/bin/../lib/gcc/arm-none-eabi/4.7.2//libgcc.a(_arm_fixdfsi.o)
 .data          0x101640a4        0x0 /home/leon/riotboard/arm-2012.09/bin/../lib/gcc/arm-none-eabi/4.7.2//libgcc.a(_arm_addsubsf3.o)
 .data          0x101640a4        0x0 /home/leon/riotboard/arm-2012.09/bin/../lib/gcc/arm-none-eabi/4.7.2//libgcc.a(_arm_muldivsf3.o)
 .data          0x101640a4        0x0 /home/leon/riotboard/arm-2012.09/bin/../lib/gcc/arm-none-eabi/4.7.2//libgcc.a(_arm_cmpsf2.o)
 .data          0x101640a4        0x0 /home/leon/riotboard/arm-2012.09/bin/../lib/gcc/arm-none-eabi/4.7.2//libgcc.a(_arm_fixsfsi.o)
 .data          0x101640a4        0x0 /home/leon/riotboard/arm-2012.09/bin/../lib/gcc/arm-none-eabi/4.7.2//libgcc.a(_aeabi_uldivmod.o)
 .data          0x101640a4        0x0 /home/leon/riotboard/arm-2012.09/bin/../lib/gcc/arm-none-eabi/4.7.2//libgcc.a(bpabi.o)
 .data          0x101640a4        0x0 /home/leon/riotboard/arm-2012.09/bin/../lib/gcc/arm-none-eabi/4.7.2//libgcc.a(_divdi3.o)
 .data          0x101640a4        0x0 /home/leon/riotboard/arm-2012.09/bin/../lib/gcc/arm-none-eabi/4.7.2//libgcc.a(_udivdi3.o)
 .data          0x101640a4        0x0 /home/leon/riotboard/arm-2012.09/bin/../lib/gcc/arm-none-eabi/4.7.2//libgcc.a(_clzsi2.o)
 .data          0x101640a4        0x0 /home/leon/git/swp-report/iMX6_Platform_SDK/output/mx6sdl/lib/libsdk.a(profile.o)
 .data          0x101640a4        0x0 /home/leon/git/swp-report/iMX6_Platform_SDK/output/mx6sdl/lib/libsdk.a(armv7_cache.o)
 .data          0x101640a4        0x4 /home/leon/git/swp-report/iMX6_Platform_SDK/output/mx6sdl/lib/libsdk.a(runtime_support.o)
                0x101640a4                environ
 .data          0x101640a8        0x0 /home/leon/git/swp-report/iMX6_Platform_SDK/output/mx6sdl/lib/libsdk.a(mma8451.o)
 .data          0x101640a8       0x30 /home/leon/git/swp-report/iMX6_Platform_SDK/output/mx6sdl/lib/libsdk.a(smd_sensor.o)
                0x101640a8                ov5642_strobe_on
 .data          0x101640d8        0x0 /home/leon/git/swp-report/iMX6_Platform_SDK/output/mx6sdl/lib/libsdk.a(cpu_get_cores.o)
 .data          0x101640d8        0x0 /home/leon/git/swp-report/iMX6_Platform_SDK/output/mx6sdl/lib/libsdk.a(cpu_multicore.o)
 .data          0x101640d8       0x40 /home/leon/git/swp-report/iMX6_Platform_SDK/output/mx6sdl/lib/libsdk.a(cpu_workpoint.o)
 .data          0x10164118        0x0 /home/leon/git/swp-report/iMX6_Platform_SDK/output/mx6sdl/lib/libsdk.a(enet_drv.o)
 .data          0x10164118        0x0 /home/leon/git/swp-report/iMX6_Platform_SDK/output/mx6sdl/lib/libsdk.a(gpio.o)
 .data          0x10164118        0x0 /home/leon/git/swp-report/iMX6_Platform_SDK/output/mx6sdl/lib/libsdk.a(imx6sdl_gpio_map.o)
 .data          0x10164118        0x0 /home/leon/git/swp-report/iMX6_Platform_SDK/output/mx6sdl/lib/libsdk.a(hdmi_tx.o)
 .data          0x10164118        0x0 /home/leon/git/swp-report/iMX6_Platform_SDK/output/mx6sdl/lib/libsdk.a(hdmi_tx_audio.o)
 .data          0x10164118        0x0 /home/leon/git/swp-report/iMX6_Platform_SDK/output/mx6sdl/lib/libsdk.a(hdmi_tx_phy.o)
 .data          0x10164118        0x0 /home/leon/git/swp-report/iMX6_Platform_SDK/output/mx6sdl/lib/libsdk.a(imx_i2c.o)
 .data          0x10164118        0x0 /home/leon/git/swp-report/iMX6_Platform_SDK/output/mx6sdl/lib/libsdk.a(imx_i2c_slave.o)
 .data          0x10164118      0x368 /home/leon/git/swp-report/iMX6_Platform_SDK/output/mx6sdl/lib/libsdk.a(ips_disp_panel.o)
                0x10164118                disp_dev_list
                0x1016447c                num_of_panels
 .data          0x10164480        0x0 /home/leon/git/swp-report/iMX6_Platform_SDK/output/mx6sdl/lib/libsdk.a(ipu_common.o)
 .data          0x10164480        0x0 /home/leon/git/swp-report/iMX6_Platform_SDK/output/mx6sdl/lib/libsdk.a(ipu_csi.o)
 .data          0x10164480        0x0 /home/leon/git/swp-report/iMX6_Platform_SDK/output/mx6sdl/lib/libsdk.a(ipu_dc.o)
 .data          0x10164480        0x0 /home/leon/git/swp-report/iMX6_Platform_SDK/output/mx6sdl/lib/libsdk.a(ipu_di.o)
 .data          0x10164480        0x0 /home/leon/git/swp-report/iMX6_Platform_SDK/output/mx6sdl/lib/libsdk.a(ipu_dmfc.o)
 .data          0x10164480        0x0 /home/leon/git/swp-report/iMX6_Platform_SDK/output/mx6sdl/lib/libsdk.a(ipu_dp.o)
 .data          0x10164480        0x0 /home/leon/git/swp-report/iMX6_Platform_SDK/output/mx6sdl/lib/libsdk.a(ipu_ic.o)
 .data          0x10164480        0x0 /home/leon/git/swp-report/iMX6_Platform_SDK/output/mx6sdl/lib/libsdk.a(ipu_idmac.o)
 .data          0x10164480        0x0 /home/leon/git/swp-report/iMX6_Platform_SDK/output/mx6sdl/lib/libsdk.a(ipu_vdi.o)
 .data          0x10164480        0x0 /home/leon/git/swp-report/iMX6_Platform_SDK/output/mx6sdl/lib/libsdk.a(keypad_port.o)
 .data          0x10164480        0x0 /home/leon/git/swp-report/iMX6_Platform_SDK/output/mx6sdl/lib/libsdk.a(ldb.o)
 .data          0x10164480        0x0 /home/leon/git/swp-report/iMX6_Platform_SDK/output/mx6sdl/lib/libsdk.a(ocotp.o)
 .data          0x10164480        0x0 /home/leon/git/swp-report/iMX6_Platform_SDK/output/mx6sdl/lib/libsdk.a(pcie.o)
 .data          0x10164480        0x0 /home/leon/git/swp-report/iMX6_Platform_SDK/output/mx6sdl/lib/libsdk.a(pcie_phy.o)
 .data          0x10164480        0x0 /home/leon/git/swp-report/iMX6_Platform_SDK/output/mx6sdl/lib/libsdk.a(pcie_prot.o)
 .data          0x10164480        0x0 /home/leon/git/swp-report/iMX6_Platform_SDK/output/mx6sdl/lib/libsdk.a(pmu_driver.o)
 .data          0x10164480        0x0 /home/leon/git/swp-report/iMX6_Platform_SDK/output/mx6sdl/lib/libsdk.a(pwm.o)
 .data          0x10164480        0x0 /home/leon/git/swp-report/iMX6_Platform_SDK/output/mx6sdl/lib/libsdk.a(rtc.o)
 .data          0x10164480        0x0 /home/leon/git/swp-report/iMX6_Platform_SDK/output/mx6sdl/lib/libsdk.a(srtc.o)
 .data          0x10164480        0x0 /home/leon/git/swp-report/iMX6_Platform_SDK/output/mx6sdl/lib/libsdk.a(sdma.o)
 .data          0x10164480        0x0 /home/leon/git/swp-report/iMX6_Platform_SDK/output/mx6sdl/lib/libsdk.a(sdma_script_info.o)
 .data          0x10164480        0x0 /home/leon/git/swp-report/iMX6_Platform_SDK/output/mx6sdl/lib/libsdk.a(snvs.o)
 .data          0x10164480        0x0 /home/leon/git/swp-report/iMX6_Platform_SDK/output/mx6sdl/lib/libsdk.a(ecspi.o)
 .data          0x10164480        0x0 /home/leon/git/swp-report/iMX6_Platform_SDK/output/mx6sdl/lib/libsdk.a(tempmon.o)
 .data          0x10164480        0x0 /home/leon/git/swp-report/iMX6_Platform_SDK/output/mx6sdl/lib/libsdk.a(gpt.o)
 .data          0x10164480        0x0 /home/leon/git/swp-report/iMX6_Platform_SDK/output/mx6sdl/lib/libsdk.a(usb_common.o)
 .data          0x10164480        0x0 /home/leon/git/swp-report/iMX6_Platform_SDK/output/mx6sdl/lib/libsdk.a(usbd_drv.o)
 .data          0x10164480        0x0 /home/leon/git/swp-report/iMX6_Platform_SDK/output/mx6sdl/lib/libsdk.a(usbh_drv.o)
 .data          0x10164480       0x58 /home/leon/git/swp-report/iMX6_Platform_SDK/output/mx6sdl/lib/libsdk.a(usdhc.o)
                0x10164480                usdhc_device
                0x101644d0                card_detect_test_en
                0x101644d4                write_protect_test_en
 .data          0x101644d8        0x0 /home/leon/git/swp-report/iMX6_Platform_SDK/output/mx6sdl/lib/libsdk.a(usdhc_host.o)
 .data          0x101644d8        0x4 /home/leon/git/swp-report/iMX6_Platform_SDK/output/mx6sdl/lib/libsdk.a(usdhc_mmc.o)
 .data          0x101644dc        0x0 /home/leon/git/swp-report/iMX6_Platform_SDK/output/mx6sdl/lib/libsdk.a(usdhc_sd.o)
 .data          0x101644dc        0x0 /home/leon/git/swp-report/iMX6_Platform_SDK/output/mx6sdl/lib/libsdk.a(spinlock.o)
 .data          0x101644dc        0x0 /home/leon/git/swp-report/iMX6_Platform_SDK/output/mx6sdl/lib/libsdk.a(spinlock_lock_unlock.o)
 .data          0x101644dc    0x1e3c0 /home/leon/git/swp-report/iMX6_Platform_SDK/output/mx6sdl/lib/libsdk.a(camera_profile.o)
                0x101644dc                g_ov3640_sensor_detection
                0x101644fc                g_ov5640_sensor_detection
                0x1016451c                g_ov5642_sensor_detection
                0x1016453c                g_mt9p111_sensor_detection
                0x1016454c                g_ov3640_mode_vga_640_480_30fps
                0x10164cac                g_ov5640_mode_vga_640_480_30fps
                0x10165c2c                g_ov5642_mode_vga_640_480_30fps
                0x10167b4c                g_ov5642_af_firmware
                0x1017e81c                g_ov5642_af_trigger
                0x1017e83c                g_ov5642_af_ready
                0x1017e84c                g_mt9p111_mode_vga_640_480_30fps
                0x10181f8c                g_mt9p111_af_firmware
                0x101826cc                g_mt9p111_af_trigger
                0x101826fc                g_mt9p111_af_ready
                0x1018270c                g_camera_modes
                0x1018272c                g_camera_profiles
 .data          0x1018289c        0x0 /home/leon/git/swp-report/iMX6_Platform_SDK/output/mx6sdl/lib/libsdk.a(hdmi_common.o)
 .data          0x1018289c        0x0 /home/leon/git/swp-report/iMX6_Platform_SDK/output/mx6sdl/lib/libsdk.a(mx6x_usb.o)
 .data          0x1018289c        0x0 /home/leon/git/swp-report/iMX6_Platform_SDK/output/mx6sdl/lib/libboard_smart_device_rev_a.a(board_audio.o)
 .data          0x1018289c        0x1 /home/leon/git/swp-report/iMX6_Platform_SDK/output/mx6sdl/lib/libboard_smart_device_rev_a.a(board_camera.o)
                0x1018289c                g_camera_i2c_port
 .data          0x1018289d        0x0 /home/leon/git/swp-report/iMX6_Platform_SDK/output/mx6sdl/lib/libboard_smart_device_rev_a.a(board_display.o)
 .data          0x1018289d        0x0 /home/leon/git/swp-report/iMX6_Platform_SDK/output/mx6sdl/lib/libboard_smart_device_rev_a.a(board_hdmi.o)
 .data          0x1018289d        0x0 /home/leon/git/swp-report/iMX6_Platform_SDK/output/mx6sdl/lib/libboard_smart_device_rev_a.a(board_i2c.o)
 .data          0x1018289d        0x0 /home/leon/git/swp-report/iMX6_Platform_SDK/output/mx6sdl/lib/libboard_smart_device_rev_a.a(board_mipi.o)
 .data          0x1018289d        0x0 /home/leon/git/swp-report/iMX6_Platform_SDK/output/mx6sdl/lib/libboard_smart_device_rev_a.a(board_network.o)
 .data          0x1018289d        0x0 /home/leon/git/swp-report/iMX6_Platform_SDK/output/mx6sdl/lib/libboard_smart_device_rev_a.a(board_pcie.o)
 .data          0x1018289d        0x0 /home/leon/git/swp-report/iMX6_Platform_SDK/output/mx6sdl/lib/libboard_smart_device_rev_a.a(board_usb.o)
 .data          0x1018289d        0x0 /home/leon/git/swp-report/iMX6_Platform_SDK/output/mx6sdl/lib/libboard_smart_device_rev_a.a(board_usdhc.o)
 .data          0x1018289d        0x0 /home/leon/git/swp-report/iMX6_Platform_SDK/output/mx6sdl/lib/libboard_smart_device_rev_a.a(ecspi_iomux_config.o)
 .data          0x1018289d        0x0 /home/leon/git/swp-report/iMX6_Platform_SDK/output/mx6sdl/lib/libboard_smart_device_rev_a.a(i2c_iomux_config.o)
 .data          0x1018289d        0x0 /home/leon/git/swp-report/iMX6_Platform_SDK/output/mx6sdl/lib/libboard_smart_device_rev_a.a(pwm_iomux_config.o)
 .data          0x1018289d        0x0 /home/leon/git/swp-report/iMX6_Platform_SDK/output/mx6sdl/lib/libboard_smart_device_rev_a.a(usdhc_iomux_config.o)
 .data          0x1018289d        0x0 /home/leon/riotboard/arm-2012.09/bin/../arm-none-eabi/lib//libstdc++.a(pure.o)
 .data          0x1018289d        0x0 /home/leon/riotboard/arm-2012.09/bin/../arm-none-eabi/lib//libstdc++.a(eh_terminate.o)
 .data          0x1018289d        0x0 /home/leon/riotboard/arm-2012.09/bin/../arm-none-eabi/lib//libstdc++.a(eh_unex_handler.o)
 *fill*         0x1018289d        0x3 
 .data._ZN10__cxxabiv120__unexpected_handlerE
                0x101828a0        0x4 /home/leon/riotboard/arm-2012.09/bin/../arm-none-eabi/lib//libstdc++.a(eh_unex_handler.o)
                0x101828a0                __cxxabiv1::__unexpected_handler
 .data          0x101828a4        0x0 /home/leon/riotboard/arm-2012.09/bin/../arm-none-eabi/lib//libstdc++.a(eh_call.o)
 .data          0x101828a4        0x0 /home/leon/riotboard/arm-2012.09/bin/../arm-none-eabi/lib//libstdc++.a(eh_throw.o)
 .data          0x101828a4        0x0 /home/leon/riotboard/arm-2012.09/bin/../arm-none-eabi/lib//libstdc++.a(eh_arm.o)
 .data          0x101828a4        0x0 /home/leon/riotboard/arm-2012.09/bin/../arm-none-eabi/lib//libstdc++.a(eh_exception.o)
 .data          0x101828a4        0x0 /home/leon/riotboard/arm-2012.09/bin/../arm-none-eabi/lib//libstdc++.a(eh_alloc.o)
 .data          0x101828a4        0x0 /home/leon/riotboard/arm-2012.09/bin/../arm-none-eabi/lib//libstdc++.a(eh_globals.o)
 .data          0x101828a4        0x0 /home/leon/riotboard/arm-2012.09/bin/../arm-none-eabi/lib//libstdc++.a(si_class_type_info.o)
 .data          0x101828a4        0x0 /home/leon/riotboard/arm-2012.09/bin/../arm-none-eabi/lib//libstdc++.a(eh_personality.o)
 .data          0x101828a4        0x0 /home/leon/riotboard/arm-2012.09/bin/../arm-none-eabi/lib//libstdc++.a(eh_term_handler.o)
 .data._ZN10__cxxabiv119__terminate_handlerE
                0x101828a4        0x4 /home/leon/riotboard/arm-2012.09/bin/../arm-none-eabi/lib//libstdc++.a(eh_term_handler.o)
                0x101828a4                __cxxabiv1::__terminate_handler
 .data          0x101828a8        0x0 /home/leon/riotboard/arm-2012.09/bin/../arm-none-eabi/lib//libstdc++.a(eh_catch.o)
 .data          0x101828a8        0x0 /home/leon/riotboard/arm-2012.09/bin/../arm-none-eabi/lib//libstdc++.a(class_type_info.o)
 .data          0x101828a8        0x0 /home/leon/riotboard/arm-2012.09/bin/../arm-none-eabi/lib//libstdc++.a(vterminate.o)
 .data          0x101828a8        0x0 /home/leon/riotboard/arm-2012.09/bin/../arm-none-eabi/lib//libstdc++.a(cp-demangle.o)
 .data          0x101828a8        0x0 /home/leon/riotboard/arm-2012.09/bin/../arm-none-eabi/lib//libstdc++.a(eh_type.o)
 .data          0x101828a8        0x0 /home/leon/riotboard/arm-2012.09/bin/../arm-none-eabi/lib//libstdc++.a(del_op.o)
 .data          0x101828a8        0x0 /home/leon/riotboard/arm-2012.09/bin/../arm-none-eabi/lib//libstdc++.a(tinfo.o)
 .data          0x101828a8        0x0 /home/leon/riotboard/arm-2012.09/bin/../arm-none-eabi/lib//libc.a(lib_a-fwrite.o)
 .data          0x101828a8        0x0 /home/leon/riotboard/arm-2012.09/bin/../arm-none-eabi/lib//libc.a(lib_a-memcmp.o)
 .data          0x101828a8        0x0 /home/leon/riotboard/arm-2012.09/bin/../arm-none-eabi/lib//libc.a(lib_a-strncmp.o)
 .data          0x101828a8        0x0 /home/leon/riotboard/arm-2012.09/bin/../arm-none-eabi/lib//libc.a(lib_a-syswrite.o)
 .data          0x101828a8        0x0 /home/leon/riotboard/arm-2012.09/bin/../lib/gcc/arm-none-eabi/4.7.2//libgcc.a(_divsi3.o)
 .data          0x101828a8        0x0 /home/leon/riotboard/arm-2012.09/bin/../lib/gcc/arm-none-eabi/4.7.2//libgcc.a(unwind-arm.o)
 .data          0x101828a8        0x0 /home/leon/riotboard/arm-2012.09/bin/../lib/gcc/arm-none-eabi/4.7.2//libgcc.a(libunwind.o)
 .data          0x101828a8        0x0 /home/leon/riotboard/arm-2012.09/bin/../lib/gcc/arm-none-eabi/4.7.2//libgcc.a(pr-support.o)

.jcr            0x101828a8        0x4
 .jcr           0x101828a8        0x0 /home/leon/riotboard/arm-2012.09/bin/../lib/gcc/arm-none-eabi/4.7.2//crtbegin.o
 .jcr           0x101828a8        0x4 /home/leon/riotboard/arm-2012.09/bin/../lib/gcc/arm-none-eabi/4.7.2//crtend.o

.tm_clone_table
                0x101828ac        0x0
 .tm_clone_table
                0x101828ac        0x0 /home/leon/riotboard/arm-2012.09/bin/../lib/gcc/arm-none-eabi/4.7.2//crtbegin.o
 .tm_clone_table
                0x101828ac        0x0 /home/leon/riotboard/arm-2012.09/bin/../lib/gcc/arm-none-eabi/4.7.2//crtend.o

.igot.plt       0x101828ac        0x0
 .igot.plt      0x00000000        0x0 /home/leon/riotboard/arm-2012.09/bin/../lib/gcc/arm-none-eabi/4.7.2//crtbegin.o

.hab.data       0x10400000     0x2000
                0x10400000                __hab_data = .
                0x10402000                . = (. + 0x2000)
 *fill*         0x10400000     0x2000 
                0x10402000                . = ALIGN (0x20)
                0x10402000                __hab_data_end = .
                0x00402000                _image_size = (. - _start_image_add)

.bss            0x10402000    0x472cc
                0x10402000                __bss_start__ = .
 *(.shbss)
 *(.bss .bss.* .gnu.linkonce.b.*)
 .bss           0x10402000       0x1c /home/leon/riotboard/arm-2012.09/bin/../lib/gcc/arm-none-eabi/4.7.2//crtbegin.o
 .bss           0x1040201c        0x0 /home/leon/riotboard/arm-2012.09/bin/../lib/gcc/arm-none-eabi/4.7.2//crti.o
 .bss           0x1040201c        0x0 /home/leon/riotboard/arm-2012.09/bin/../lib/gcc/arm-none-eabi/4.7.2//crtend.o
 .bss           0x1040201c        0x0 /home/leon/riotboard/arm-2012.09/bin/../lib/gcc/arm-none-eabi/4.7.2//crtn.o
 .bss           0x1040201c        0x0 /home/leon/git/swp-report/iMX6_Platform_SDK/output/mx6sdl/sdk_unit_test/smart_device_rev_a/obj/apps/common/ivt.o
 .bss           0x1040201c        0x0 /home/leon/git/swp-report/iMX6_Platform_SDK/output/mx6sdl/sdk_unit_test/smart_device_rev_a/obj/apps/common/platform_init.o
 .bss           0x1040201c        0x0 /home/leon/git/swp-report/iMX6_Platform_SDK/output/mx6sdl/sdk_unit_test/smart_device_rev_a/obj/apps/common/print_clock_info.o
 .bss           0x1040201c        0x0 /home/leon/git/swp-report/iMX6_Platform_SDK/output/mx6sdl/sdk_unit_test/smart_device_rev_a/obj/apps/common/print_version.o
 .bss           0x1040201c        0x0 /home/leon/git/swp-report/iMX6_Platform_SDK/output/mx6sdl/sdk_unit_test/smart_device_rev_a/obj/apps/sdk_unit_test/src/all_test.o
 .bss           0x1040201c        0x0 /home/leon/git/swp-report/iMX6_Platform_SDK/output/mx6sdl/sdk_unit_test/smart_device_rev_a/obj/apps/sdk_unit_test/src/unit_test_main.o
 .bss           0x1040201c        0x0 /home/leon/git/swp-report/iMX6_Platform_SDK/output/mx6sdl/lib/libsdk.a(ccm_pll.o)
 .bss           0x1040201c        0x0 /home/leon/git/swp-report/iMX6_Platform_SDK/output/mx6sdl/lib/libsdk.a(cortexA9.o)
 .bss           0x1040201c        0x0 /home/leon/git/swp-report/iMX6_Platform_SDK/output/mx6sdl/lib/libsdk.a(gic.o)
 .bss           0x1040201c        0x0 /home/leon/git/swp-report/iMX6_Platform_SDK/output/mx6sdl/lib/libsdk.a(mmu.o)
 .bss           0x1040201c        0x0 /home/leon/git/swp-report/iMX6_Platform_SDK/output/mx6sdl/lib/libsdk.a(startup.o)
 .bss           0x1040201c        0x0 /home/leon/git/swp-report/iMX6_Platform_SDK/output/mx6sdl/lib/libsdk.a(vectors.o)
 .bss           0x1040201c       0x7c /home/leon/git/swp-report/iMX6_Platform_SDK/output/mx6sdl/lib/libsdk.a(menu.o)
 .bss           0x10402098        0x0 /home/leon/git/swp-report/iMX6_Platform_SDK/output/mx6sdl/lib/libsdk.a(sdk_version.o)
 .bss           0x10402098        0x0 /home/leon/git/swp-report/iMX6_Platform_SDK/output/mx6sdl/lib/libsdk.a(system_util.o)
 .bss           0x10402098        0x0 /home/leon/git/swp-report/iMX6_Platform_SDK/output/mx6sdl/lib/libsdk.a(text_color.o)
 .bss           0x10402098        0x0 /home/leon/git/swp-report/iMX6_Platform_SDK/output/mx6sdl/lib/libsdk.a(board_id.o)
 .bss           0x10402098        0x4 /home/leon/git/swp-report/iMX6_Platform_SDK/output/mx6sdl/lib/libsdk.a(timer.o)
                0x10402098                g_microsecondTimerMultiple
 .bss           0x1040209c        0x0 /home/leon/git/swp-report/iMX6_Platform_SDK/output/mx6sdl/lib/libsdk.a(imx_uart.o)
 .bss           0x1040209c        0x0 /home/leon/git/swp-report/iMX6_Platform_SDK/output/mx6sdl/lib/libsdk.a(arm_abort.o)
 .bss           0x1040209c      0x290 /home/leon/git/swp-report/iMX6_Platform_SDK/output/mx6sdl/lib/libsdk.a(interrupt.o)
                0x1040209c                g_interrupt_handlers
                0x1040231c                g_vectNum
 .bss           0x1040232c        0x0 /home/leon/git/swp-report/iMX6_Platform_SDK/output/mx6sdl/lib/libsdk.a(epit.o)
 .bss           0x1040232c        0x0 /home/leon/git/swp-report/iMX6_Platform_SDK/output/mx6sdl/lib/libsdk.a(abort_handler.o)
 .bss           0x1040232c        0x4 /home/leon/git/swp-report/iMX6_Platform_SDK/output/mx6sdl/lib/libboard_smart_device_rev_a.a(board_io_expanders.o)
                0x1040232c                max7310_i2c_req_array
 .bss           0x10402330        0x0 /home/leon/git/swp-report/iMX6_Platform_SDK/output/mx6sdl/lib/libboard_smart_device_rev_a.a(hardware_modules.o)
 .bss           0x10402330        0x0 /home/leon/git/swp-report/iMX6_Platform_SDK/output/mx6sdl/lib/libboard_smart_device_rev_a.a(dcd.o)
 .bss           0x10402330        0x0 /home/leon/git/swp-report/iMX6_Platform_SDK/output/mx6sdl/lib/libboard_smart_device_rev_a.a(uart_iomux_config.o)
 .bss           0x10402330        0x0 /home/leon/git/swp-report/iMX6_Platform_SDK/output/mx6sdl/lib/libboard_smart_device_rev_a.a(iomux_config.o)
 .bss           0x10402330        0x0 /home/leon/git/swp-report/iMX6_Platform_SDK/output/mx6sdl/lib/libboard_smart_device_rev_a.a(ipu1_iomux_config.o)
 .bss           0x10402330        0x0 /home/leon/git/swp-report/iMX6_Platform_SDK/output/mx6sdl/lib/libboard_smart_device_rev_a.a(kpp_iomux_config.o)
 .bss           0x10402330        0x0 /home/leon/git/swp-report/iMX6_Platform_SDK/output/mx6sdl/lib/libboard_smart_device_rev_a.a(mmdc_iomux_config.o)
 .bss           0x10402330        0x0 /home/leon/git/swp-report/iMX6_Platform_SDK/output/mx6sdl/lib/libboard_smart_device_rev_a.a(pwm1_iomux_config.o)
 .bss           0x10402330        0x0 /home/leon/git/swp-report/iMX6_Platform_SDK/output/mx6sdl/lib/libboard_smart_device_rev_a.a(sjc_iomux_config.o)
 .bss           0x10402330        0x0 /home/leon/git/swp-report/iMX6_Platform_SDK/output/mx6sdl/lib/libboard_smart_device_rev_a.a(uart1_iomux_config.o)
 .bss           0x10402330        0x0 /home/leon/git/swp-report/iMX6_Platform_SDK/output/mx6sdl/lib/libboard_smart_device_rev_a.a(usdhc2_iomux_config.o)
 .bss           0x10402330        0x0 /home/leon/git/swp-report/iMX6_Platform_SDK/output/mx6sdl/lib/libboard_smart_device_rev_a.a(usdhc3_iomux_config.o)
 .bss           0x10402330        0x0 /home/leon/git/swp-report/iMX6_Platform_SDK/output/mx6sdl/lib/libboard_smart_device_rev_a.a(usdhc4_iomux_config.o)
 .bss           0x10402330        0x0 /home/leon/git/swp-report/iMX6_Platform_SDK/output/mx6sdl/lib/libboard_smart_device_rev_a.a(audmux_iomux_config.o)
 .bss           0x10402330        0x0 /home/leon/git/swp-report/iMX6_Platform_SDK/output/mx6sdl/lib/libboard_smart_device_rev_a.a(ccm_iomux_config.o)
 .bss           0x10402330        0x0 /home/leon/git/swp-report/iMX6_Platform_SDK/output/mx6sdl/lib/libboard_smart_device_rev_a.a(ecspi1_iomux_config.o)
 .bss           0x10402330        0x0 /home/leon/git/swp-report/iMX6_Platform_SDK/output/mx6sdl/lib/libboard_smart_device_rev_a.a(enet_iomux_config.o)
 .bss           0x10402330        0x0 /home/leon/git/swp-report/iMX6_Platform_SDK/output/mx6sdl/lib/libboard_smart_device_rev_a.a(epdc_iomux_config.o)
 .bss           0x10402330        0x0 /home/leon/git/swp-report/iMX6_Platform_SDK/output/mx6sdl/lib/libboard_smart_device_rev_a.a(flexcan1_iomux_config.o)
 .bss           0x10402330        0x0 /home/leon/git/swp-report/iMX6_Platform_SDK/output/mx6sdl/lib/libboard_smart_device_rev_a.a(gpio1_iomux_config.o)
 .bss           0x10402330        0x0 /home/leon/git/swp-report/iMX6_Platform_SDK/output/mx6sdl/lib/libboard_smart_device_rev_a.a(gpio2_iomux_config.o)
 .bss           0x10402330        0x0 /home/leon/git/swp-report/iMX6_Platform_SDK/output/mx6sdl/lib/libboard_smart_device_rev_a.a(gpio3_iomux_config.o)
 .bss           0x10402330        0x0 /home/leon/git/swp-report/iMX6_Platform_SDK/output/mx6sdl/lib/libboard_smart_device_rev_a.a(gpio4_iomux_config.o)
 .bss           0x10402330        0x0 /home/leon/git/swp-report/iMX6_Platform_SDK/output/mx6sdl/lib/libboard_smart_device_rev_a.a(gpio5_iomux_config.o)
 .bss           0x10402330        0x0 /home/leon/git/swp-report/iMX6_Platform_SDK/output/mx6sdl/lib/libboard_smart_device_rev_a.a(gpio6_iomux_config.o)
 .bss           0x10402330        0x0 /home/leon/git/swp-report/iMX6_Platform_SDK/output/mx6sdl/lib/libboard_smart_device_rev_a.a(gpio7_iomux_config.o)
 .bss           0x10402330        0x0 /home/leon/git/swp-report/iMX6_Platform_SDK/output/mx6sdl/lib/libboard_smart_device_rev_a.a(gps_iomux_config.o)
 .bss           0x10402330        0x0 /home/leon/git/swp-report/iMX6_Platform_SDK/output/mx6sdl/lib/libboard_smart_device_rev_a.a(i2c1_iomux_config.o)
 .bss           0x10402330        0x0 /home/leon/git/swp-report/iMX6_Platform_SDK/output/mx6sdl/lib/libboard_smart_device_rev_a.a(i2c2_iomux_config.o)
 .bss           0x10402330        0x0 /home/leon/git/swp-report/iMX6_Platform_SDK/output/mx6sdl/lib/libboard_smart_device_rev_a.a(i2c3_iomux_config.o)
 .bss           0x10402330        0x0 /home/leon/git/swp-report/iMX6_Platform_SDK/output/mx6sdl/sdk_unit_test/smart_device_rev_a/libsdk_unit_test.a(cpu_wp_test.o)
 .bss           0x10402330        0x4 /home/leon/git/swp-report/iMX6_Platform_SDK/output/mx6sdl/sdk_unit_test/smart_device_rev_a/libsdk_unit_test.a(multicore_test.o)
                0x10402330                isTestDone
 .bss           0x10402334        0x4 /home/leon/git/swp-report/iMX6_Platform_SDK/output/mx6sdl/sdk_unit_test/smart_device_rev_a/libsdk_unit_test.a(audio_test.o)
 .bss           0x10402338        0x0 /home/leon/git/swp-report/iMX6_Platform_SDK/output/mx6sdl/sdk_unit_test/smart_device_rev_a/libsdk_unit_test.a(wav_file.o)
 .bss           0x10402338        0x4 /home/leon/git/swp-report/iMX6_Platform_SDK/output/mx6sdl/sdk_unit_test/smart_device_rev_a/libsdk_unit_test.a(gic_test.o)
                0x10402338                gicTestDone
 .bss           0x1040233c        0x0 /home/leon/git/swp-report/iMX6_Platform_SDK/output/mx6sdl/sdk_unit_test/smart_device_rev_a/libsdk_unit_test.a(ocotp_test.o)
 .bss           0x1040233c        0x8 /home/leon/git/swp-report/iMX6_Platform_SDK/output/mx6sdl/sdk_unit_test/smart_device_rev_a/libsdk_unit_test.a(snvs_rtc_test.o)
 .bss           0x10402344        0x4 /home/leon/git/swp-report/iMX6_Platform_SDK/output/mx6sdl/sdk_unit_test/smart_device_rev_a/libsdk_unit_test.a(snvs_srtc_test.o)
 .bss           0x10402348        0x0 /home/leon/git/swp-report/iMX6_Platform_SDK/output/mx6sdl/sdk_unit_test/smart_device_rev_a/libsdk_unit_test.a(i2c_test.o)
 .bss           0x10402348       0x28 /home/leon/git/swp-report/iMX6_Platform_SDK/output/mx6sdl/sdk_unit_test/smart_device_rev_a/libsdk_unit_test.a(imx6_i2c_device.o)
 .bss           0x10402370        0x0 /home/leon/git/swp-report/iMX6_Platform_SDK/output/mx6sdl/sdk_unit_test/smart_device_rev_a/libsdk_unit_test.a(tempmon_test.o)
 .bss           0x10402370        0x0 /home/leon/git/swp-report/iMX6_Platform_SDK/output/mx6sdl/sdk_unit_test/smart_device_rev_a/libsdk_unit_test.a(sdma_test.o)
 .bss           0x10402370     0x2818 /home/leon/git/swp-report/iMX6_Platform_SDK/output/mx6sdl/sdk_unit_test/smart_device_rev_a/libsdk_unit_test.a(spi_lpb.o)
 .bss           0x10404b88     0x281c /home/leon/git/swp-report/iMX6_Platform_SDK/output/mx6sdl/sdk_unit_test/smart_device_rev_a/libsdk_unit_test.a(uart_loopback.o)
                0x104073a0                trans_done
 .bss           0x104073a4        0x1 /home/leon/git/swp-report/iMX6_Platform_SDK/output/mx6sdl/sdk_unit_test/smart_device_rev_a/libsdk_unit_test.a(uart_test.o)
 .bss           0x104073a5        0x1 /home/leon/git/swp-report/iMX6_Platform_SDK/output/mx6sdl/sdk_unit_test/smart_device_rev_a/libsdk_unit_test.a(epit_test.o)
 *fill*         0x104073a6        0x2 
 .bss           0x104073a8        0xc /home/leon/git/swp-report/iMX6_Platform_SDK/output/mx6sdl/sdk_unit_test/smart_device_rev_a/libsdk_unit_test.a(gpt_test.o)
 .bss           0x104073b4        0x0 /home/leon/git/swp-report/iMX6_Platform_SDK/output/mx6sdl/sdk_unit_test/smart_device_rev_a/libsdk_unit_test.a(timer_test.o)
 .bss           0x104073b4    0x17d00 /home/leon/git/swp-report/iMX6_Platform_SDK/output/mx6sdl/sdk_unit_test/smart_device_rev_a/libsdk_unit_test.a(usdhc_test.o)
 .bss           0x1041f0b4        0x0 /home/leon/git/swp-report/iMX6_Platform_SDK/output/mx6sdl/sdk_unit_test/smart_device_rev_a/libsdk_unit_test.a(watchdog_test.o)
 .bss           0x1041f0b4        0x0 /home/leon/git/swp-report/iMX6_Platform_SDK/output/mx6sdl/sdk_unit_test/smart_device_rev_a/libsdk_unit_test.a(pwm_test.o)
 .bss           0x1041f0b4        0x0 /home/leon/git/swp-report/iMX6_Platform_SDK/output/mx6sdl/sdk_unit_test/smart_device_rev_a/libsdk_unit_test.a(hdmi_test.o)
 .bss           0x1041f0b4        0x0 /home/leon/git/swp-report/iMX6_Platform_SDK/output/mx6sdl/sdk_unit_test/smart_device_rev_a/libsdk_unit_test.a(ips_display.o)
 .bss           0x1041f0b4        0x0 /home/leon/git/swp-report/iMX6_Platform_SDK/output/mx6sdl/sdk_unit_test/smart_device_rev_a/libsdk_unit_test.a(ips_test.o)
 .bss           0x1041f0b4        0x0 /home/leon/git/swp-report/iMX6_Platform_SDK/output/mx6sdl/sdk_unit_test/smart_device_rev_a/libsdk_unit_test.a(ipu_image.o)
 .bss           0x1041f0b4        0x0 /home/leon/git/swp-report/iMX6_Platform_SDK/output/mx6sdl/sdk_unit_test/smart_device_rev_a/libsdk_unit_test.a(keypad_test.o)
 .bss           0x1041f0b4        0x0 /home/leon/git/swp-report/iMX6_Platform_SDK/output/mx6sdl/sdk_unit_test/smart_device_rev_a/libsdk_unit_test.a(camera_test.o)
 .bss           0x1041f0b4        0x0 /home/leon/git/swp-report/iMX6_Platform_SDK/output/mx6sdl/sdk_unit_test/smart_device_rev_a/libsdk_unit_test.a(csi_test_mode.o)
 .bss           0x1041f0b4        0x0 /home/leon/git/swp-report/iMX6_Platform_SDK/output/mx6sdl/sdk_unit_test/smart_device_rev_a/libsdk_unit_test.a(sensor_capture.o)
 .bss           0x1041f0b4       0x78 /home/leon/git/swp-report/iMX6_Platform_SDK/output/mx6sdl/sdk_unit_test/smart_device_rev_a/libsdk_unit_test.a(pcie_test_rc.o)
                0x1041f0b4                ep1_resources
 .bss           0x1041f12c        0x0 /home/leon/git/swp-report/iMX6_Platform_SDK/output/mx6sdl/sdk_unit_test/smart_device_rev_a/libsdk_unit_test.a(usb_test.o)
 .bss           0x1041f12c     0x1028 /home/leon/git/swp-report/iMX6_Platform_SDK/output/mx6sdl/sdk_unit_test/smart_device_rev_a/libsdk_unit_test.a(enet_test.o)
 .bss           0x10420154      0x404 /home/leon/git/swp-report/iMX6_Platform_SDK/output/mx6sdl/sdk_unit_test/smart_device_rev_a/libsdk_unit_test.a(spi_test.o)
                0x10420154                dev_spi_nor
 .bss           0x10420558        0x0 /home/leon/git/swp-report/iMX6_Platform_SDK/output/mx6sdl/sdk_unit_test/smart_device_rev_a/libsdk_unit_test.a(accelerometer_test.o)
 .bss           0x10420558       0x24 /home/leon/git/swp-report/iMX6_Platform_SDK/output/mx6sdl/sdk_unit_test/smart_device_rev_a/libsdk_unit_test.a(at24cxx.o)
 .bss           0x1042057c    0x20818 /home/leon/git/swp-report/iMX6_Platform_SDK/output/mx6sdl/sdk_unit_test/smart_device_rev_a/libsdk_unit_test.a(mem_2_mem.o)
 .bss           0x10440d94        0x4 /home/leon/git/swp-report/iMX6_Platform_SDK/output/mx6sdl/sdk_unit_test/smart_device_rev_a/libsdk_unit_test.a(pwm_output.o)
                0x10440d94                g_pwm_test_end
 .bss           0x10440d98        0x0 /home/leon/git/swp-report/iMX6_Platform_SDK/output/mx6sdl/sdk_unit_test/smart_device_rev_a/libsdk_unit_test.a(init_dma_data.o)
 .bss           0x10440d98        0x0 /home/leon/git/swp-report/iMX6_Platform_SDK/output/mx6sdl/sdk_unit_test/smart_device_rev_a/libsdk_unit_test.a(ips_combiner.o)
 .bss           0x10440d98        0x0 /home/leon/git/swp-report/iMX6_Platform_SDK/output/mx6sdl/sdk_unit_test/smart_device_rev_a/libsdk_unit_test.a(ips_csc.o)
 .bss           0x10440d98        0x0 /home/leon/git/swp-report/iMX6_Platform_SDK/output/mx6sdl/sdk_unit_test/smart_device_rev_a/libsdk_unit_test.a(ips_resize.o)
 .bss           0x10440d98        0x0 /home/leon/git/swp-report/iMX6_Platform_SDK/output/mx6sdl/sdk_unit_test/smart_device_rev_a/libsdk_unit_test.a(ips_rotate.o)
 *fill*         0x10440d98      0x268 
 .bss           0x10441000     0x1000 /home/leon/git/swp-report/iMX6_Platform_SDK/output/mx6sdl/sdk_unit_test/smart_device_rev_a/libsdk_unit_test.a(usb0_device_mouse_test.o)
                0x10441000                endpointList
 .bss           0x10442000     0x1000 /home/leon/git/swp-report/iMX6_Platform_SDK/output/mx6sdl/sdk_unit_test/smart_device_rev_a/libsdk_unit_test.a(usb0_host_test.o)
                0x10442000                frame_list
 .bss           0x10443000        0x0 /home/leon/git/swp-report/iMX6_Platform_SDK/output/mx6sdl/sdk_unit_test/smart_device_rev_a/libsdk_unit_test.a(usb0_host_testmodes_test.o)
 .bss           0x10443000      0x400 /home/leon/git/swp-report/iMX6_Platform_SDK/output/mx6sdl/sdk_unit_test/smart_device_rev_a/libsdk_unit_test.a(spi_nor_numonyx.o)
 .bss           0x10443400        0x0 /home/leon/riotboard/arm-2012.09/bin/../arm-none-eabi/lib//libm.a(lib_a-sf_cos.o)
 .bss           0x10443400        0x0 /home/leon/riotboard/arm-2012.09/bin/../arm-none-eabi/lib//libm.a(lib_a-sf_fabs.o)
 .bss           0x10443400        0x0 /home/leon/riotboard/arm-2012.09/bin/../arm-none-eabi/lib//libm.a(lib_a-sf_modf.o)
 .bss           0x10443400        0x0 /home/leon/riotboard/arm-2012.09/bin/../arm-none-eabi/lib//libm.a(lib_a-sf_sin.o)
 .bss           0x10443400        0x0 /home/leon/riotboard/arm-2012.09/bin/../arm-none-eabi/lib//libm.a(lib_a-ef_rem_pio2.o)
 .bss           0x10443400        0x0 /home/leon/riotboard/arm-2012.09/bin/../arm-none-eabi/lib//libm.a(lib_a-kf_cos.o)
 .bss           0x10443400        0x0 /home/leon/riotboard/arm-2012.09/bin/../arm-none-eabi/lib//libm.a(lib_a-kf_rem_pio2.o)
 .bss           0x10443400        0x0 /home/leon/riotboard/arm-2012.09/bin/../arm-none-eabi/lib//libm.a(lib_a-kf_sin.o)
 .bss           0x10443400        0x0 /home/leon/riotboard/arm-2012.09/bin/../arm-none-eabi/lib//libm.a(lib_a-sf_floor.o)
 .bss           0x10443400        0x0 /home/leon/riotboard/arm-2012.09/bin/../arm-none-eabi/lib//libm.a(lib_a-sf_scalbn.o)
 .bss           0x10443400        0x0 /home/leon/riotboard/arm-2012.09/bin/../arm-none-eabi/lib//libm.a(lib_a-sf_copysign.o)
 .bss           0x10443400        0x0 /home/leon/riotboard/arm-2012.09/bin/../arm-none-eabi/lib//libc.a(lib_a-assert.o)
 .bss           0x10443400        0x0 /home/leon/riotboard/arm-2012.09/bin/../arm-none-eabi/lib//libc.a(lib_a-bzero.o)
 .bss           0x10443400        0x0 /home/leon/riotboard/arm-2012.09/bin/../arm-none-eabi/lib//libc.a(lib_a-fflush.o)
 .bss           0x10443400        0x0 /home/leon/riotboard/arm-2012.09/bin/../arm-none-eabi/lib//libc.a(lib_a-findfp.o)
 .bss           0x10443400        0x0 /home/leon/riotboard/arm-2012.09/bin/../arm-none-eabi/lib//libc.a(lib_a-fiprintf.o)
 .bss           0x10443400        0x0 /home/leon/riotboard/arm-2012.09/bin/../arm-none-eabi/lib//libc.a(lib_a-fputc.o)
 .bss           0x10443400        0x0 /home/leon/riotboard/arm-2012.09/bin/../arm-none-eabi/lib//libc.a(lib_a-fputs.o)
 .bss           0x10443400        0x0 /home/leon/riotboard/arm-2012.09/bin/../arm-none-eabi/lib//libc.a(lib_a-freer.o)
 .bss           0x10443400        0x0 /home/leon/riotboard/arm-2012.09/bin/../arm-none-eabi/lib//libc.a(lib_a-fvwrite.o)
 .bss           0x10443400        0x0 /home/leon/riotboard/arm-2012.09/bin/../arm-none-eabi/lib//libc.a(lib_a-fwalk.o)
 .bss           0x10443400        0x0 /home/leon/riotboard/arm-2012.09/bin/../arm-none-eabi/lib//libc.a(lib_a-impure.o)
 .bss           0x10443400        0x0 /home/leon/riotboard/arm-2012.09/bin/../arm-none-eabi/lib//libc.a(lib_a-init.o)
 .bss           0x10443400        0x0 /home/leon/riotboard/arm-2012.09/bin/../arm-none-eabi/lib//libc.a(lib_a-malloc.o)
 .bss           0x10443400       0x34 /home/leon/riotboard/arm-2012.09/bin/../arm-none-eabi/lib//libc.a(lib_a-mallocr.o)
                0x10443400                __malloc_top_pad
                0x10443404                __malloc_current_mallinfo
                0x1044342c                __malloc_max_sbrked_mem
                0x10443430                __malloc_max_total_mem
 .bss           0x10443434        0x0 /home/leon/riotboard/arm-2012.09/bin/../arm-none-eabi/lib//libc.a(lib_a-memchr.o)
 .bss           0x10443434        0x0 /home/leon/riotboard/arm-2012.09/bin/../arm-none-eabi/lib//libc.a(lib_a-memcpy.o)
 .bss           0x10443434        0x0 /home/leon/riotboard/arm-2012.09/bin/../arm-none-eabi/lib//libc.a(lib_a-memmove.o)
 .bss           0x10443434        0x0 /home/leon/riotboard/arm-2012.09/bin/../arm-none-eabi/lib//libc.a(lib_a-memset.o)
 .bss           0x10443434        0x0 /home/leon/riotboard/arm-2012.09/bin/../arm-none-eabi/lib//libc.a(lib_a-mlock.o)
 .bss           0x10443434        0x0 /home/leon/riotboard/arm-2012.09/bin/../arm-none-eabi/lib//libc.a(lib_a-printf.o)
 .bss           0x10443434        0x0 /home/leon/riotboard/arm-2012.09/bin/../arm-none-eabi/lib//libc.a(lib_a-putc.o)
 .bss           0x10443434        0x0 /home/leon/riotboard/arm-2012.09/bin/../arm-none-eabi/lib//libc.a(lib_a-realloc.o)
 .bss           0x10443434        0x0 /home/leon/riotboard/arm-2012.09/bin/../arm-none-eabi/lib//libc.a(lib_a-reallocr.o)
 .bss           0x10443434        0x0 /home/leon/riotboard/arm-2012.09/bin/../arm-none-eabi/lib//libc.a(lib_a-rget.o)
 .bss           0x10443434        0x0 /home/leon/riotboard/arm-2012.09/bin/../arm-none-eabi/lib//libc.a(lib_a-sbrkr.o)
 .bss           0x10443434        0x0 /home/leon/riotboard/arm-2012.09/bin/../arm-none-eabi/lib//libc.a(lib_a-sprintf.o)
 .bss           0x10443434        0x0 /home/leon/riotboard/arm-2012.09/bin/../arm-none-eabi/lib//libc.a(lib_a-stdio.o)
 .bss           0x10443434        0x0 /home/leon/riotboard/arm-2012.09/bin/../arm-none-eabi/lib//libc.a(lib_a-strlen.o)
 .bss           0x10443434        0x0 /home/leon/riotboard/arm-2012.09/bin/../arm-none-eabi/lib//libc.a(lib_a-strncasecmp.o)
 .bss           0x10443434        0x0 /home/leon/riotboard/arm-2012.09/bin/../arm-none-eabi/lib//libc.a(lib_a-svfprintf.o)
 .bss           0x10443434        0x0 /home/leon/riotboard/arm-2012.09/bin/../arm-none-eabi/lib//libc.a(lib_a-vfiprintf.o)
 .bss           0x10443434        0x0 /home/leon/riotboard/arm-2012.09/bin/../arm-none-eabi/lib//libc.a(lib_a-vfprintf.o)
 .bss           0x10443434        0x0 /home/leon/riotboard/arm-2012.09/bin/../arm-none-eabi/lib//libc.a(lib_a-vprintf.o)
 .bss           0x10443434        0x0 /home/leon/riotboard/arm-2012.09/bin/../arm-none-eabi/lib//libc.a(lib_a-wbuf.o)
 .bss           0x10443434        0x0 /home/leon/riotboard/arm-2012.09/bin/../arm-none-eabi/lib//libc.a(lib_a-writer.o)
 .bss           0x10443434        0x0 /home/leon/riotboard/arm-2012.09/bin/../arm-none-eabi/lib//libc.a(lib_a-wsetup.o)
 .bss           0x10443434        0x0 /home/leon/riotboard/arm-2012.09/bin/../arm-none-eabi/lib//libc.a(lib_a-abort.o)
 .bss           0x10443434        0x0 /home/leon/riotboard/arm-2012.09/bin/../arm-none-eabi/lib//libc.a(lib_a-closer.o)
 .bss           0x10443434        0x0 /home/leon/riotboard/arm-2012.09/bin/../arm-none-eabi/lib//libc.a(lib_a-ctype_.o)
 .bss           0x10443434        0x0 /home/leon/riotboard/arm-2012.09/bin/../arm-none-eabi/lib//libc.a(lib_a-dtoa.o)
 .bss           0x10443434        0x0 /home/leon/riotboard/arm-2012.09/bin/../arm-none-eabi/lib//libc.a(lib_a-fclose.o)
 .bss           0x10443434        0x0 /home/leon/riotboard/arm-2012.09/bin/../arm-none-eabi/lib//libc.a(lib_a-fputwc.o)
 .bss           0x10443434        0xc /home/leon/riotboard/arm-2012.09/bin/../arm-none-eabi/lib//libc.a(lib_a-locale.o)
                0x10443434                _PathLocale
                0x10443438                __mlocale_changed
                0x1044343c                __nlocale_changed
 .bss           0x10443440        0x0 /home/leon/riotboard/arm-2012.09/bin/../arm-none-eabi/lib//libc.a(lib_a-lseekr.o)
 .bss           0x10443440        0x0 /home/leon/riotboard/arm-2012.09/bin/../arm-none-eabi/lib//libc.a(lib_a-makebuf.o)
 .bss           0x10443440        0x0 /home/leon/riotboard/arm-2012.09/bin/../arm-none-eabi/lib//libc.a(lib_a-mprec.o)
 .bss           0x10443440        0x0 /home/leon/riotboard/arm-2012.09/bin/../arm-none-eabi/lib//libc.a(lib_a-readr.o)
 .bss           0x10443440        0x0 /home/leon/riotboard/arm-2012.09/bin/../arm-none-eabi/lib//libc.a(lib_a-reent.o)
 .bss           0x10443440        0x0 /home/leon/riotboard/arm-2012.09/bin/../arm-none-eabi/lib//libc.a(lib_a-refill.o)
 .bss           0x10443440        0x0 /home/leon/riotboard/arm-2012.09/bin/../arm-none-eabi/lib//libc.a(lib_a-s_fpclassify.o)
 .bss           0x10443440        0x0 /home/leon/riotboard/arm-2012.09/bin/../arm-none-eabi/lib//libc.a(lib_a-signal.o)
 .bss           0x10443440        0x0 /home/leon/riotboard/arm-2012.09/bin/../arm-none-eabi/lib//libc.a(lib_a-signalr.o)
 .bss           0x10443440        0x0 /home/leon/riotboard/arm-2012.09/bin/../arm-none-eabi/lib//libc.a(lib_a-strcmp.o)
 .bss           0x10443440        0x0 /home/leon/riotboard/arm-2012.09/bin/../arm-none-eabi/lib//libc.a(lib_a-svfiprintf.o)
 .bss           0x10443440        0x0 /home/leon/riotboard/arm-2012.09/bin/../arm-none-eabi/lib//libc.a(lib_a-wcrtomb.o)
 .bss           0x10443440        0x0 /home/leon/riotboard/arm-2012.09/bin/../arm-none-eabi/lib//libc.a(lib_a-wctomb_r.o)
 .bss           0x10443440        0x0 /home/leon/riotboard/arm-2012.09/bin/../arm-none-eabi/lib//libc.a(lib_a-callocr.o)
 .bss           0x10443440        0x0 /home/leon/riotboard/arm-2012.09/bin/../arm-none-eabi/lib//libc.a(lib_a-fstatr.o)
 .bss           0x10443440        0x0 /home/leon/riotboard/arm-2012.09/bin/../arm-none-eabi/lib//libc.a(lib_a-isattyr.o)
 .bss           0x10443440        0x0 /home/leon/riotboard/arm-2012.09/bin/../lib/gcc/arm-none-eabi/4.7.2//libgcc.a(_udivsi3.o)
 .bss           0x10443440        0x0 /home/leon/riotboard/arm-2012.09/bin/../lib/gcc/arm-none-eabi/4.7.2//libgcc.a(_dvmd_tls.o)
 .bss           0x10443440        0x0 /home/leon/riotboard/arm-2012.09/bin/../lib/gcc/arm-none-eabi/4.7.2//libgcc.a(_arm_addsubdf3.o)
 .bss           0x10443440        0x0 /home/leon/riotboard/arm-2012.09/bin/../lib/gcc/arm-none-eabi/4.7.2//libgcc.a(_arm_muldivdf3.o)
 .bss           0x10443440        0x0 /home/leon/riotboard/arm-2012.09/bin/../lib/gcc/arm-none-eabi/4.7.2//libgcc.a(_arm_cmpdf2.o)
 .bss           0x10443440        0x0 /home/leon/riotboard/arm-2012.09/bin/../lib/gcc/arm-none-eabi/4.7.2//libgcc.a(_arm_fixdfsi.o)
 .bss           0x10443440        0x0 /home/leon/riotboard/arm-2012.09/bin/../lib/gcc/arm-none-eabi/4.7.2//libgcc.a(_arm_addsubsf3.o)
 .bss           0x10443440        0x0 /home/leon/riotboard/arm-2012.09/bin/../lib/gcc/arm-none-eabi/4.7.2//libgcc.a(_arm_muldivsf3.o)
 .bss           0x10443440        0x0 /home/leon/riotboard/arm-2012.09/bin/../lib/gcc/arm-none-eabi/4.7.2//libgcc.a(_arm_cmpsf2.o)
 .bss           0x10443440        0x0 /home/leon/riotboard/arm-2012.09/bin/../lib/gcc/arm-none-eabi/4.7.2//libgcc.a(_arm_fixsfsi.o)
 .bss           0x10443440        0x0 /home/leon/riotboard/arm-2012.09/bin/../lib/gcc/arm-none-eabi/4.7.2//libgcc.a(_aeabi_uldivmod.o)
 .bss           0x10443440        0x0 /home/leon/riotboard/arm-2012.09/bin/../lib/gcc/arm-none-eabi/4.7.2//libgcc.a(bpabi.o)
 .bss           0x10443440        0x0 /home/leon/riotboard/arm-2012.09/bin/../lib/gcc/arm-none-eabi/4.7.2//libgcc.a(_divdi3.o)
 .bss           0x10443440        0x0 /home/leon/riotboard/arm-2012.09/bin/../lib/gcc/arm-none-eabi/4.7.2//libgcc.a(_udivdi3.o)
 .bss           0x10443440        0x0 /home/leon/riotboard/arm-2012.09/bin/../lib/gcc/arm-none-eabi/4.7.2//libgcc.a(_clzsi2.o)
 .bss           0x10443440        0x0 /home/leon/git/swp-report/iMX6_Platform_SDK/output/mx6sdl/lib/libsdk.a(profile.o)
 .bss           0x10443440        0x0 /home/leon/git/swp-report/iMX6_Platform_SDK/output/mx6sdl/lib/libsdk.a(armv7_cache.o)
 .bss           0x10443440        0xc /home/leon/git/swp-report/iMX6_Platform_SDK/output/mx6sdl/lib/libsdk.a(runtime_support.o)
                0x10443440                __env
 .bss           0x1044344c        0x0 /home/leon/git/swp-report/iMX6_Platform_SDK/output/mx6sdl/lib/libsdk.a(mma8451.o)
 .bss           0x1044344c        0x0 /home/leon/git/swp-report/iMX6_Platform_SDK/output/mx6sdl/lib/libsdk.a(smd_sensor.o)
 .bss           0x1044344c        0x0 /home/leon/git/swp-report/iMX6_Platform_SDK/output/mx6sdl/lib/libsdk.a(cpu_get_cores.o)
 .bss           0x1044344c       0x20 /home/leon/git/swp-report/iMX6_Platform_SDK/output/mx6sdl/lib/libsdk.a(cpu_multicore.o)
 .bss           0x1044346c        0x0 /home/leon/git/swp-report/iMX6_Platform_SDK/output/mx6sdl/lib/libsdk.a(cpu_workpoint.o)
 *fill*         0x1044346c       0x14 
 .bss           0x10443480     0x5060 /home/leon/git/swp-report/iMX6_Platform_SDK/output/mx6sdl/lib/libsdk.a(enet_drv.o)
 .bss           0x104484e0        0x0 /home/leon/git/swp-report/iMX6_Platform_SDK/output/mx6sdl/lib/libsdk.a(gpio.o)
 .bss           0x104484e0        0x0 /home/leon/git/swp-report/iMX6_Platform_SDK/output/mx6sdl/lib/libsdk.a(imx6sdl_gpio_map.o)
 .bss           0x104484e0        0x0 /home/leon/git/swp-report/iMX6_Platform_SDK/output/mx6sdl/lib/libsdk.a(hdmi_tx.o)
 .bss           0x104484e0        0x0 /home/leon/git/swp-report/iMX6_Platform_SDK/output/mx6sdl/lib/libsdk.a(hdmi_tx_audio.o)
 .bss           0x104484e0        0x0 /home/leon/git/swp-report/iMX6_Platform_SDK/output/mx6sdl/lib/libsdk.a(hdmi_tx_phy.o)
 .bss           0x104484e0        0x0 /home/leon/git/swp-report/iMX6_Platform_SDK/output/mx6sdl/lib/libsdk.a(imx_i2c.o)
 .bss           0x104484e0        0xc /home/leon/git/swp-report/iMX6_Platform_SDK/output/mx6sdl/lib/libsdk.a(imx_i2c_slave.o)
 .bss           0x104484ec        0x0 /home/leon/git/swp-report/iMX6_Platform_SDK/output/mx6sdl/lib/libsdk.a(ips_disp_panel.o)
 .bss           0x104484ec       0x10 /home/leon/git/swp-report/iMX6_Platform_SDK/output/mx6sdl/lib/libsdk.a(ipu_common.o)
                0x104484ec                csi_vdi_direct_path
                0x104484f0                csi_dma_band_mode
 .bss           0x104484fc        0x0 /home/leon/git/swp-report/iMX6_Platform_SDK/output/mx6sdl/lib/libsdk.a(ipu_csi.o)
 .bss           0x104484fc        0x0 /home/leon/git/swp-report/iMX6_Platform_SDK/output/mx6sdl/lib/libsdk.a(ipu_dc.o)
 .bss           0x104484fc        0x0 /home/leon/git/swp-report/iMX6_Platform_SDK/output/mx6sdl/lib/libsdk.a(ipu_di.o)
 .bss           0x104484fc        0x0 /home/leon/git/swp-report/iMX6_Platform_SDK/output/mx6sdl/lib/libsdk.a(ipu_dmfc.o)
 .bss           0x104484fc        0x0 /home/leon/git/swp-report/iMX6_Platform_SDK/output/mx6sdl/lib/libsdk.a(ipu_dp.o)
 .bss           0x104484fc        0x0 /home/leon/git/swp-report/iMX6_Platform_SDK/output/mx6sdl/lib/libsdk.a(ipu_ic.o)
 .bss           0x104484fc        0x0 /home/leon/git/swp-report/iMX6_Platform_SDK/output/mx6sdl/lib/libsdk.a(ipu_idmac.o)
 .bss           0x104484fc        0x0 /home/leon/git/swp-report/iMX6_Platform_SDK/output/mx6sdl/lib/libsdk.a(ipu_vdi.o)
 *fill*         0x104484fc        0x4 
 .bss           0x10448500       0x40 /home/leon/git/swp-report/iMX6_Platform_SDK/output/mx6sdl/lib/libsdk.a(keypad_port.o)
 .bss           0x10448540        0x0 /home/leon/git/swp-report/iMX6_Platform_SDK/output/mx6sdl/lib/libsdk.a(ldb.o)
 .bss           0x10448540        0x0 /home/leon/git/swp-report/iMX6_Platform_SDK/output/mx6sdl/lib/libsdk.a(ocotp.o)
 .bss           0x10448540       0x14 /home/leon/git/swp-report/iMX6_Platform_SDK/output/mx6sdl/lib/libsdk.a(pcie.o)
                0x10448540                pcie_func_clk_setup
                0x10448544                pcie_func_pwr_setup
                0x10448548                pcie_func_card_pwr_setup
                0x1044854c                pcie_func_card_ref_clk_setup
                0x10448550                pcie_func_card_rst
 .bss           0x10448554        0x0 /home/leon/git/swp-report/iMX6_Platform_SDK/output/mx6sdl/lib/libsdk.a(pcie_phy.o)
 .bss           0x10448554        0x0 /home/leon/git/swp-report/iMX6_Platform_SDK/output/mx6sdl/lib/libsdk.a(pcie_prot.o)
 .bss           0x10448554       0xa0 /home/leon/git/swp-report/iMX6_Platform_SDK/output/mx6sdl/lib/libsdk.a(pmu_driver.o)
 .bss           0x104485f4        0x8 /home/leon/git/swp-report/iMX6_Platform_SDK/output/mx6sdl/lib/libsdk.a(pwm.o)
                0x104485f4                pwm_int_test_end
 .bss           0x104485fc       0x10 /home/leon/git/swp-report/iMX6_Platform_SDK/output/mx6sdl/lib/libsdk.a(rtc.o)
 .bss           0x1044860c        0x8 /home/leon/git/swp-report/iMX6_Platform_SDK/output/mx6sdl/lib/libsdk.a(srtc.o)
 .bss           0x10448614       0x88 /home/leon/git/swp-report/iMX6_Platform_SDK/output/mx6sdl/lib/libsdk.a(sdma.o)
 .bss           0x1044869c        0x0 /home/leon/git/swp-report/iMX6_Platform_SDK/output/mx6sdl/lib/libsdk.a(sdma_script_info.o)
 .bss           0x1044869c        0x0 /home/leon/git/swp-report/iMX6_Platform_SDK/output/mx6sdl/lib/libsdk.a(snvs.o)
 .bss           0x1044869c        0x0 /home/leon/git/swp-report/iMX6_Platform_SDK/output/mx6sdl/lib/libsdk.a(ecspi.o)
 .bss           0x1044869c       0x14 /home/leon/git/swp-report/iMX6_Platform_SDK/output/mx6sdl/lib/libsdk.a(tempmon.o)
 .bss           0x104486b0        0x0 /home/leon/git/swp-report/iMX6_Platform_SDK/output/mx6sdl/lib/libsdk.a(gpt.o)
 .bss           0x104486b0        0x0 /home/leon/git/swp-report/iMX6_Platform_SDK/output/mx6sdl/lib/libsdk.a(usb_common.o)
 .bss           0x104486b0        0x0 /home/leon/git/swp-report/iMX6_Platform_SDK/output/mx6sdl/lib/libsdk.a(usbd_drv.o)
 .bss           0x104486b0        0x0 /home/leon/git/swp-report/iMX6_Platform_SDK/output/mx6sdl/lib/libsdk.a(usbh_drv.o)
 .bss           0x104486b0        0x8 /home/leon/git/swp-report/iMX6_Platform_SDK/output/mx6sdl/lib/libsdk.a(usdhc.o)
 .bss           0x104486b8        0x0 /home/leon/git/swp-report/iMX6_Platform_SDK/output/mx6sdl/lib/libsdk.a(usdhc_host.o)
 .bss           0x104486b8      0x214 /home/leon/git/swp-report/iMX6_Platform_SDK/output/mx6sdl/lib/libsdk.a(usdhc_mmc.o)
 .bss           0x104488cc        0x0 /home/leon/git/swp-report/iMX6_Platform_SDK/output/mx6sdl/lib/libsdk.a(usdhc_sd.o)
 .bss           0x104488cc        0x0 /home/leon/git/swp-report/iMX6_Platform_SDK/output/mx6sdl/lib/libsdk.a(spinlock.o)
 .bss           0x104488cc        0x0 /home/leon/git/swp-report/iMX6_Platform_SDK/output/mx6sdl/lib/libsdk.a(spinlock_lock_unlock.o)
 .bss           0x104488cc        0x0 /home/leon/git/swp-report/iMX6_Platform_SDK/output/mx6sdl/lib/libsdk.a(camera_profile.o)
 .bss           0x104488cc        0x0 /home/leon/git/swp-report/iMX6_Platform_SDK/output/mx6sdl/lib/libsdk.a(hdmi_common.o)
 .bss           0x104488cc        0x0 /home/leon/git/swp-report/iMX6_Platform_SDK/output/mx6sdl/lib/libsdk.a(mx6x_usb.o)
 .bss           0x104488cc        0x0 /home/leon/git/swp-report/iMX6_Platform_SDK/output/mx6sdl/lib/libboard_smart_device_rev_a.a(board_audio.o)
 .bss           0x104488cc        0x0 /home/leon/git/swp-report/iMX6_Platform_SDK/output/mx6sdl/lib/libboard_smart_device_rev_a.a(board_camera.o)
 .bss           0x104488cc        0x0 /home/leon/git/swp-report/iMX6_Platform_SDK/output/mx6sdl/lib/libboard_smart_device_rev_a.a(board_display.o)
 .bss           0x104488cc        0x0 /home/leon/git/swp-report/iMX6_Platform_SDK/output/mx6sdl/lib/libboard_smart_device_rev_a.a(board_hdmi.o)
 .bss           0x104488cc        0x0 /home/leon/git/swp-report/iMX6_Platform_SDK/output/mx6sdl/lib/libboard_smart_device_rev_a.a(board_i2c.o)
 .bss           0x104488cc        0x0 /home/leon/git/swp-report/iMX6_Platform_SDK/output/mx6sdl/lib/libboard_smart_device_rev_a.a(board_mipi.o)
 .bss           0x104488cc        0x0 /home/leon/git/swp-report/iMX6_Platform_SDK/output/mx6sdl/lib/libboard_smart_device_rev_a.a(board_network.o)
 .bss           0x104488cc        0x0 /home/leon/git/swp-report/iMX6_Platform_SDK/output/mx6sdl/lib/libboard_smart_device_rev_a.a(board_pcie.o)
 .bss           0x104488cc        0x0 /home/leon/git/swp-report/iMX6_Platform_SDK/output/mx6sdl/lib/libboard_smart_device_rev_a.a(board_usb.o)
 .bss           0x104488cc        0x0 /home/leon/git/swp-report/iMX6_Platform_SDK/output/mx6sdl/lib/libboard_smart_device_rev_a.a(board_usdhc.o)
 .bss           0x104488cc        0x0 /home/leon/git/swp-report/iMX6_Platform_SDK/output/mx6sdl/lib/libboard_smart_device_rev_a.a(ecspi_iomux_config.o)
 .bss           0x104488cc        0x0 /home/leon/git/swp-report/iMX6_Platform_SDK/output/mx6sdl/lib/libboard_smart_device_rev_a.a(i2c_iomux_config.o)
 .bss           0x104488cc        0x0 /home/leon/git/swp-report/iMX6_Platform_SDK/output/mx6sdl/lib/libboard_smart_device_rev_a.a(pwm_iomux_config.o)
 .bss           0x104488cc        0x0 /home/leon/git/swp-report/iMX6_Platform_SDK/output/mx6sdl/lib/libboard_smart_device_rev_a.a(usdhc_iomux_config.o)
 .bss           0x104488cc        0x0 /home/leon/riotboard/arm-2012.09/bin/../arm-none-eabi/lib//libstdc++.a(pure.o)
 .bss           0x104488cc        0x0 /home/leon/riotboard/arm-2012.09/bin/../arm-none-eabi/lib//libstdc++.a(eh_terminate.o)
 .bss           0x104488cc        0x0 /home/leon/riotboard/arm-2012.09/bin/../arm-none-eabi/lib//libstdc++.a(eh_unex_handler.o)
 .bss           0x104488cc        0x0 /home/leon/riotboard/arm-2012.09/bin/../arm-none-eabi/lib//libstdc++.a(eh_call.o)
 .bss           0x104488cc        0x0 /home/leon/riotboard/arm-2012.09/bin/../arm-none-eabi/lib//libstdc++.a(eh_throw.o)
 .bss           0x104488cc        0x0 /home/leon/riotboard/arm-2012.09/bin/../arm-none-eabi/lib//libstdc++.a(eh_arm.o)
 .bss           0x104488cc        0x0 /home/leon/riotboard/arm-2012.09/bin/../arm-none-eabi/lib//libstdc++.a(eh_exception.o)
 .bss           0x104488cc        0x0 /home/leon/riotboard/arm-2012.09/bin/../arm-none-eabi/lib//libstdc++.a(eh_alloc.o)
 .bss._ZL15dependents_used
                0x104488cc        0x4 /home/leon/riotboard/arm-2012.09/bin/../arm-none-eabi/lib//libstdc++.a(eh_alloc.o)
 .bss._ZL17dependents_buffer
                0x104488d0      0x1e0 /home/leon/riotboard/arm-2012.09/bin/../arm-none-eabi/lib//libstdc++.a(eh_alloc.o)
 .bss._ZL14emergency_used
                0x10448ab0        0x4 /home/leon/riotboard/arm-2012.09/bin/../arm-none-eabi/lib//libstdc++.a(eh_alloc.o)
 *fill*         0x10448ab4        0x4 
 .bss._ZL16emergency_buffer
                0x10448ab8      0x800 /home/leon/riotboard/arm-2012.09/bin/../arm-none-eabi/lib//libstdc++.a(eh_alloc.o)
 .bss           0x104492b8        0x0 /home/leon/riotboard/arm-2012.09/bin/../arm-none-eabi/lib//libstdc++.a(eh_globals.o)
 .bss._ZL10eh_globals
                0x104492b8        0xc /home/leon/riotboard/arm-2012.09/bin/../arm-none-eabi/lib//libstdc++.a(eh_globals.o)
 .bss           0x104492c4        0x0 /home/leon/riotboard/arm-2012.09/bin/../arm-none-eabi/lib//libstdc++.a(si_class_type_info.o)
 .bss           0x104492c4        0x0 /home/leon/riotboard/arm-2012.09/bin/../arm-none-eabi/lib//libstdc++.a(eh_personality.o)
 .bss           0x104492c4        0x0 /home/leon/riotboard/arm-2012.09/bin/../arm-none-eabi/lib//libstdc++.a(eh_term_handler.o)
 .bss           0x104492c4        0x0 /home/leon/riotboard/arm-2012.09/bin/../arm-none-eabi/lib//libstdc++.a(eh_catch.o)
 .bss           0x104492c4        0x0 /home/leon/riotboard/arm-2012.09/bin/../arm-none-eabi/lib//libstdc++.a(class_type_info.o)
 .bss           0x104492c4        0x0 /home/leon/riotboard/arm-2012.09/bin/../arm-none-eabi/lib//libstdc++.a(vterminate.o)
 .bss._ZZN9__gnu_cxx27__verbose_terminate_handlerEvE11terminating
                0x104492c4        0x1 /home/leon/riotboard/arm-2012.09/bin/../arm-none-eabi/lib//libstdc++.a(vterminate.o)
 .bss           0x104492c5        0x0 /home/leon/riotboard/arm-2012.09/bin/../arm-none-eabi/lib//libstdc++.a(cp-demangle.o)
 .bss           0x104492c5        0x0 /home/leon/riotboard/arm-2012.09/bin/../arm-none-eabi/lib//libstdc++.a(eh_type.o)
 .bss           0x104492c5        0x0 /home/leon/riotboard/arm-2012.09/bin/../arm-none-eabi/lib//libstdc++.a(del_op.o)
 .bss           0x104492c5        0x0 /home/leon/riotboard/arm-2012.09/bin/../arm-none-eabi/lib//libstdc++.a(tinfo.o)
 .bss           0x104492c5        0x0 /home/leon/riotboard/arm-2012.09/bin/../arm-none-eabi/lib//libc.a(lib_a-fwrite.o)
 .bss           0x104492c5        0x0 /home/leon/riotboard/arm-2012.09/bin/../arm-none-eabi/lib//libc.a(lib_a-memcmp.o)
 .bss           0x104492c5        0x0 /home/leon/riotboard/arm-2012.09/bin/../arm-none-eabi/lib//libc.a(lib_a-strncmp.o)
 .bss           0x104492c5        0x0 /home/leon/riotboard/arm-2012.09/bin/../arm-none-eabi/lib//libc.a(lib_a-syswrite.o)
 .bss           0x104492c5        0x0 /home/leon/riotboard/arm-2012.09/bin/../lib/gcc/arm-none-eabi/4.7.2//libgcc.a(_divsi3.o)
 .bss           0x104492c5        0x0 /home/leon/riotboard/arm-2012.09/bin/../lib/gcc/arm-none-eabi/4.7.2//libgcc.a(unwind-arm.o)
 .bss           0x104492c5        0x0 /home/leon/riotboard/arm-2012.09/bin/../lib/gcc/arm-none-eabi/4.7.2//libgcc.a(libunwind.o)
 .bss           0x104492c5        0x0 /home/leon/riotboard/arm-2012.09/bin/../lib/gcc/arm-none-eabi/4.7.2//libgcc.a(pr-support.o)
 *(COMMON)
 *fill*         0x104492c5        0x3 
 COMMON         0x104492c8        0x4 /home/leon/riotboard/arm-2012.09/bin/../arm-none-eabi/lib//libc.a(lib_a-reent.o)
                0x104492c8                errno
 *(.bss)
                0x104492cc                __bss_end__ = .

.stacks         0x104492cc     0xc000
                0x104492cc                __stacks_start = .
                0x104552cc                . = (. + 0xc000)
 *fill*         0x104492cc     0xc000 
                0x104552cc                __stacks_end = .
                0x104552cc                top_of_stacks = .
                0x104552e0                free_memory_start = ALIGN (0x20)
                0x184552cc                . = (. + 0x8000000)
                0x184552cc                free_memory_end = .
                0x184552cc                _end = .
START GROUP
LOAD /home/leon/git/swp-report/iMX6_Platform_SDK/output/mx6sdl/sdk_unit_test/smart_device_rev_a/obj/apps/common/ivt.o
LOAD /home/leon/git/swp-report/iMX6_Platform_SDK/output/mx6sdl/sdk_unit_test/smart_device_rev_a/obj/apps/common/platform_init.o
LOAD /home/leon/git/swp-report/iMX6_Platform_SDK/output/mx6sdl/sdk_unit_test/smart_device_rev_a/obj/apps/common/print_clock_info.o
LOAD /home/leon/git/swp-report/iMX6_Platform_SDK/output/mx6sdl/sdk_unit_test/smart_device_rev_a/obj/apps/common/print_version.o
LOAD /home/leon/git/swp-report/iMX6_Platform_SDK/output/mx6sdl/sdk_unit_test/smart_device_rev_a/obj/apps/sdk_unit_test/src/all_test.o
LOAD /home/leon/git/swp-report/iMX6_Platform_SDK/output/mx6sdl/sdk_unit_test/smart_device_rev_a/obj/apps/sdk_unit_test/src/unit_test_main.o
LOAD /home/leon/git/swp-report/iMX6_Platform_SDK/output/mx6sdl/lib/libsdk.a
LOAD /home/leon/git/swp-report/iMX6_Platform_SDK/output/mx6sdl/lib/libboard_smart_device_rev_a.a
LOAD /home/leon/git/swp-report/iMX6_Platform_SDK/output/mx6sdl/sdk_unit_test/smart_device_rev_a/libsdk_unit_test.a
LOAD /home/leon/riotboard/arm-2012.09/bin/../arm-none-eabi/lib//libm.a
LOAD /home/leon/riotboard/arm-2012.09/bin/../arm-none-eabi/lib//libstdc++.a
LOAD /home/leon/riotboard/arm-2012.09/bin/../arm-none-eabi/lib//libc.a
LOAD /home/leon/riotboard/arm-2012.09/bin/../lib/gcc/arm-none-eabi/4.7.2//libgcc.a
END GROUP
OUTPUT(/home/leon/git/swp-report/iMX6_Platform_SDK/output/mx6sdl/sdk_unit_test/smart_device_rev_a/sdk_unit_test_ALL.elf elf32-littlearm)

.ARM.attributes
                0x00000000       0x3b
 .ARM.attributes
                0x00000000       0x30 /home/leon/riotboard/arm-2012.09/bin/../lib/gcc/arm-none-eabi/4.7.2//crtbegin.o
 .ARM.attributes
                0x00000030       0x16 /home/leon/riotboard/arm-2012.09/bin/../lib/gcc/arm-none-eabi/4.7.2//crti.o
 .ARM.attributes
                0x00000046       0x30 /home/leon/riotboard/arm-2012.09/bin/../lib/gcc/arm-none-eabi/4.7.2//crtend.o
 .ARM.attributes
                0x00000076       0x18 /home/leon/riotboard/arm-2012.09/bin/../lib/gcc/arm-none-eabi/4.7.2//crtn.o
 .ARM.attributes
                0x0000008e       0x39 /home/leon/git/swp-report/iMX6_Platform_SDK/output/mx6sdl/sdk_unit_test/smart_device_rev_a/obj/apps/common/ivt.o
 .ARM.attributes
                0x000000c7       0x39 /home/leon/git/swp-report/iMX6_Platform_SDK/output/mx6sdl/sdk_unit_test/smart_device_rev_a/obj/apps/common/platform_init.o
 .ARM.attributes
                0x00000100       0x39 /home/leon/git/swp-report/iMX6_Platform_SDK/output/mx6sdl/sdk_unit_test/smart_device_rev_a/obj/apps/common/print_clock_info.o
 .ARM.attributes
                0x00000139       0x39 /home/leon/git/swp-report/iMX6_Platform_SDK/output/mx6sdl/sdk_unit_test/smart_device_rev_a/obj/apps/common/print_version.o
 .ARM.attributes
                0x00000172       0x39 /home/leon/git/swp-report/iMX6_Platform_SDK/output/mx6sdl/sdk_unit_test/smart_device_rev_a/obj/apps/sdk_unit_test/src/all_test.o
 .ARM.attributes
                0x000001ab       0x39 /home/leon/git/swp-report/iMX6_Platform_SDK/output/mx6sdl/sdk_unit_test/smart_device_rev_a/obj/apps/sdk_unit_test/src/unit_test_main.o
 .ARM.attributes
                0x000001e4       0x39 /home/leon/git/swp-report/iMX6_Platform_SDK/output/mx6sdl/lib/libsdk.a(ccm_pll.o)
 .ARM.attributes
                0x0000021d       0x16 /home/leon/git/swp-report/iMX6_Platform_SDK/output/mx6sdl/lib/libsdk.a(cortexA9.o)
 .ARM.attributes
                0x00000233       0x39 /home/leon/git/swp-report/iMX6_Platform_SDK/output/mx6sdl/lib/libsdk.a(gic.o)
 .ARM.attributes
                0x0000026c       0x39 /home/leon/git/swp-report/iMX6_Platform_SDK/output/mx6sdl/lib/libsdk.a(mmu.o)
 .ARM.attributes
                0x000002a5       0x16 /home/leon/git/swp-report/iMX6_Platform_SDK/output/mx6sdl/lib/libsdk.a(startup.o)
 .ARM.attributes
                0x000002bb       0x14 /home/leon/git/swp-report/iMX6_Platform_SDK/output/mx6sdl/lib/libsdk.a(vectors.o)
 .ARM.attributes
                0x000002cf       0x39 /home/leon/git/swp-report/iMX6_Platform_SDK/output/mx6sdl/lib/libsdk.a(menu.o)
 .ARM.attributes
                0x00000308       0x39 /home/leon/git/swp-report/iMX6_Platform_SDK/output/mx6sdl/lib/libsdk.a(sdk_version.o)
 .ARM.attributes
                0x00000341       0x39 /home/leon/git/swp-report/iMX6_Platform_SDK/output/mx6sdl/lib/libsdk.a(system_util.o)
 .ARM.attributes
                0x0000037a       0x39 /home/leon/git/swp-report/iMX6_Platform_SDK/output/mx6sdl/lib/libsdk.a(text_color.o)
 .ARM.attributes
                0x000003b3       0x39 /home/leon/git/swp-report/iMX6_Platform_SDK/output/mx6sdl/lib/libsdk.a(board_id.o)
 .ARM.attributes
                0x000003ec       0x39 /home/leon/git/swp-report/iMX6_Platform_SDK/output/mx6sdl/lib/libsdk.a(timer.o)
 .ARM.attributes
                0x00000425       0x39 /home/leon/git/swp-report/iMX6_Platform_SDK/output/mx6sdl/lib/libsdk.a(imx_uart.o)
 .ARM.attributes
                0x0000045e       0x14 /home/leon/git/swp-report/iMX6_Platform_SDK/output/mx6sdl/lib/libsdk.a(arm_abort.o)
 .ARM.attributes
                0x00000472       0x39 /home/leon/git/swp-report/iMX6_Platform_SDK/output/mx6sdl/lib/libsdk.a(interrupt.o)
 .ARM.attributes
                0x000004ab       0x39 /home/leon/git/swp-report/iMX6_Platform_SDK/output/mx6sdl/lib/libsdk.a(epit.o)
 .ARM.attributes
                0x000004e4       0x39 /home/leon/git/swp-report/iMX6_Platform_SDK/output/mx6sdl/lib/libsdk.a(abort_handler.o)
 .ARM.attributes
                0x0000051d       0x39 /home/leon/git/swp-report/iMX6_Platform_SDK/output/mx6sdl/lib/libboard_smart_device_rev_a.a(board_io_expanders.o)
 .ARM.attributes
                0x00000556       0x39 /home/leon/git/swp-report/iMX6_Platform_SDK/output/mx6sdl/lib/libboard_smart_device_rev_a.a(hardware_modules.o)
 .ARM.attributes
                0x0000058f       0x39 /home/leon/git/swp-report/iMX6_Platform_SDK/output/mx6sdl/lib/libboard_smart_device_rev_a.a(dcd.o)
 .ARM.attributes
                0x000005c8       0x39 /home/leon/git/swp-report/iMX6_Platform_SDK/output/mx6sdl/lib/libboard_smart_device_rev_a.a(uart_iomux_config.o)
 .ARM.attributes
                0x00000601       0x39 /home/leon/git/swp-report/iMX6_Platform_SDK/output/mx6sdl/lib/libboard_smart_device_rev_a.a(iomux_config.o)
 .ARM.attributes
                0x0000063a       0x39 /home/leon/git/swp-report/iMX6_Platform_SDK/output/mx6sdl/lib/libboard_smart_device_rev_a.a(ipu1_iomux_config.o)
 .ARM.attributes
                0x00000673       0x39 /home/leon/git/swp-report/iMX6_Platform_SDK/output/mx6sdl/lib/libboard_smart_device_rev_a.a(kpp_iomux_config.o)
 .ARM.attributes
                0x000006ac       0x39 /home/leon/git/swp-report/iMX6_Platform_SDK/output/mx6sdl/lib/libboard_smart_device_rev_a.a(mmdc_iomux_config.o)
 .ARM.attributes
                0x000006e5       0x39 /home/leon/git/swp-report/iMX6_Platform_SDK/output/mx6sdl/lib/libboard_smart_device_rev_a.a(pwm1_iomux_config.o)
 .ARM.attributes
                0x0000071e       0x39 /home/leon/git/swp-report/iMX6_Platform_SDK/output/mx6sdl/lib/libboard_smart_device_rev_a.a(sjc_iomux_config.o)
 .ARM.attributes
                0x00000757       0x39 /home/leon/git/swp-report/iMX6_Platform_SDK/output/mx6sdl/lib/libboard_smart_device_rev_a.a(uart1_iomux_config.o)
 .ARM.attributes
                0x00000790       0x39 /home/leon/git/swp-report/iMX6_Platform_SDK/output/mx6sdl/lib/libboard_smart_device_rev_a.a(usdhc2_iomux_config.o)
 .ARM.attributes
                0x000007c9       0x39 /home/leon/git/swp-report/iMX6_Platform_SDK/output/mx6sdl/lib/libboard_smart_device_rev_a.a(usdhc3_iomux_config.o)
 .ARM.attributes
                0x00000802       0x39 /home/leon/git/swp-report/iMX6_Platform_SDK/output/mx6sdl/lib/libboard_smart_device_rev_a.a(usdhc4_iomux_config.o)
 .ARM.attributes
                0x0000083b       0x39 /home/leon/git/swp-report/iMX6_Platform_SDK/output/mx6sdl/lib/libboard_smart_device_rev_a.a(audmux_iomux_config.o)
 .ARM.attributes
                0x00000874       0x39 /home/leon/git/swp-report/iMX6_Platform_SDK/output/mx6sdl/lib/libboard_smart_device_rev_a.a(ccm_iomux_config.o)
 .ARM.attributes
                0x000008ad       0x39 /home/leon/git/swp-report/iMX6_Platform_SDK/output/mx6sdl/lib/libboard_smart_device_rev_a.a(ecspi1_iomux_config.o)
 .ARM.attributes
                0x000008e6       0x39 /home/leon/git/swp-report/iMX6_Platform_SDK/output/mx6sdl/lib/libboard_smart_device_rev_a.a(enet_iomux_config.o)
 .ARM.attributes
                0x0000091f       0x39 /home/leon/git/swp-report/iMX6_Platform_SDK/output/mx6sdl/lib/libboard_smart_device_rev_a.a(epdc_iomux_config.o)
 .ARM.attributes
                0x00000958       0x39 /home/leon/git/swp-report/iMX6_Platform_SDK/output/mx6sdl/lib/libboard_smart_device_rev_a.a(flexcan1_iomux_config.o)
 .ARM.attributes
                0x00000991       0x39 /home/leon/git/swp-report/iMX6_Platform_SDK/output/mx6sdl/lib/libboard_smart_device_rev_a.a(gpio1_iomux_config.o)
 .ARM.attributes
                0x000009ca       0x39 /home/leon/git/swp-report/iMX6_Platform_SDK/output/mx6sdl/lib/libboard_smart_device_rev_a.a(gpio2_iomux_config.o)
 .ARM.attributes
                0x00000a03       0x39 /home/leon/git/swp-report/iMX6_Platform_SDK/output/mx6sdl/lib/libboard_smart_device_rev_a.a(gpio3_iomux_config.o)
 .ARM.attributes
                0x00000a3c       0x39 /home/leon/git/swp-report/iMX6_Platform_SDK/output/mx6sdl/lib/libboard_smart_device_rev_a.a(gpio4_iomux_config.o)
 .ARM.attributes
                0x00000a75       0x39 /home/leon/git/swp-report/iMX6_Platform_SDK/output/mx6sdl/lib/libboard_smart_device_rev_a.a(gpio5_iomux_config.o)
 .ARM.attributes
                0x00000aae       0x39 /home/leon/git/swp-report/iMX6_Platform_SDK/output/mx6sdl/lib/libboard_smart_device_rev_a.a(gpio6_iomux_config.o)
 .ARM.attributes
                0x00000ae7       0x39 /home/leon/git/swp-report/iMX6_Platform_SDK/output/mx6sdl/lib/libboard_smart_device_rev_a.a(gpio7_iomux_config.o)
 .ARM.attributes
                0x00000b20       0x39 /home/leon/git/swp-report/iMX6_Platform_SDK/output/mx6sdl/lib/libboard_smart_device_rev_a.a(gps_iomux_config.o)
 .ARM.attributes
                0x00000b59       0x39 /home/leon/git/swp-report/iMX6_Platform_SDK/output/mx6sdl/lib/libboard_smart_device_rev_a.a(i2c1_iomux_config.o)
 .ARM.attributes
                0x00000b92       0x39 /home/leon/git/swp-report/iMX6_Platform_SDK/output/mx6sdl/lib/libboard_smart_device_rev_a.a(i2c2_iomux_config.o)
 .ARM.attributes
                0x00000bcb       0x39 /home/leon/git/swp-report/iMX6_Platform_SDK/output/mx6sdl/lib/libboard_smart_device_rev_a.a(i2c3_iomux_config.o)
 .ARM.attributes
                0x00000c04       0x39 /home/leon/git/swp-report/iMX6_Platform_SDK/output/mx6sdl/sdk_unit_test/smart_device_rev_a/libsdk_unit_test.a(cpu_wp_test.o)
 .ARM.attributes
                0x00000c3d       0x39 /home/leon/git/swp-report/iMX6_Platform_SDK/output/mx6sdl/sdk_unit_test/smart_device_rev_a/libsdk_unit_test.a(multicore_test.o)
 .ARM.attributes
                0x00000c76       0x39 /home/leon/git/swp-report/iMX6_Platform_SDK/output/mx6sdl/sdk_unit_test/smart_device_rev_a/libsdk_unit_test.a(audio_test.o)
 .ARM.attributes
                0x00000caf       0x14 /home/leon/git/swp-report/iMX6_Platform_SDK/output/mx6sdl/sdk_unit_test/smart_device_rev_a/libsdk_unit_test.a(wav_file.o)
 .ARM.attributes
                0x00000cc3       0x39 /home/leon/git/swp-report/iMX6_Platform_SDK/output/mx6sdl/sdk_unit_test/smart_device_rev_a/libsdk_unit_test.a(gic_test.o)
 .ARM.attributes
                0x00000cfc       0x39 /home/leon/git/swp-report/iMX6_Platform_SDK/output/mx6sdl/sdk_unit_test/smart_device_rev_a/libsdk_unit_test.a(ocotp_test.o)
 .ARM.attributes
                0x00000d35       0x39 /home/leon/git/swp-report/iMX6_Platform_SDK/output/mx6sdl/sdk_unit_test/smart_device_rev_a/libsdk_unit_test.a(snvs_rtc_test.o)
 .ARM.attributes
                0x00000d6e       0x39 /home/leon/git/swp-report/iMX6_Platform_SDK/output/mx6sdl/sdk_unit_test/smart_device_rev_a/libsdk_unit_test.a(snvs_srtc_test.o)
 .ARM.attributes
                0x00000da7       0x39 /home/leon/git/swp-report/iMX6_Platform_SDK/output/mx6sdl/sdk_unit_test/smart_device_rev_a/libsdk_unit_test.a(i2c_test.o)
 .ARM.attributes
                0x00000de0       0x39 /home/leon/git/swp-report/iMX6_Platform_SDK/output/mx6sdl/sdk_unit_test/smart_device_rev_a/libsdk_unit_test.a(imx6_i2c_device.o)
 .ARM.attributes
                0x00000e19       0x39 /home/leon/git/swp-report/iMX6_Platform_SDK/output/mx6sdl/sdk_unit_test/smart_device_rev_a/libsdk_unit_test.a(tempmon_test.o)
 .ARM.attributes
                0x00000e52       0x39 /home/leon/git/swp-report/iMX6_Platform_SDK/output/mx6sdl/sdk_unit_test/smart_device_rev_a/libsdk_unit_test.a(sdma_test.o)
 .ARM.attributes
                0x00000e8b       0x39 /home/leon/git/swp-report/iMX6_Platform_SDK/output/mx6sdl/sdk_unit_test/smart_device_rev_a/libsdk_unit_test.a(spi_lpb.o)
 .ARM.attributes
                0x00000ec4       0x39 /home/leon/git/swp-report/iMX6_Platform_SDK/output/mx6sdl/sdk_unit_test/smart_device_rev_a/libsdk_unit_test.a(uart_loopback.o)
 .ARM.attributes
                0x00000efd       0x39 /home/leon/git/swp-report/iMX6_Platform_SDK/output/mx6sdl/sdk_unit_test/smart_device_rev_a/libsdk_unit_test.a(uart_test.o)
 .ARM.attributes
                0x00000f36       0x39 /home/leon/git/swp-report/iMX6_Platform_SDK/output/mx6sdl/sdk_unit_test/smart_device_rev_a/libsdk_unit_test.a(epit_test.o)
 .ARM.attributes
                0x00000f6f       0x39 /home/leon/git/swp-report/iMX6_Platform_SDK/output/mx6sdl/sdk_unit_test/smart_device_rev_a/libsdk_unit_test.a(gpt_test.o)
 .ARM.attributes
                0x00000fa8       0x39 /home/leon/git/swp-report/iMX6_Platform_SDK/output/mx6sdl/sdk_unit_test/smart_device_rev_a/libsdk_unit_test.a(timer_test.o)
 .ARM.attributes
                0x00000fe1       0x39 /home/leon/git/swp-report/iMX6_Platform_SDK/output/mx6sdl/sdk_unit_test/smart_device_rev_a/libsdk_unit_test.a(usdhc_test.o)
 .ARM.attributes
                0x0000101a       0x39 /home/leon/git/swp-report/iMX6_Platform_SDK/output/mx6sdl/sdk_unit_test/smart_device_rev_a/libsdk_unit_test.a(watchdog_test.o)
 .ARM.attributes
                0x00001053       0x39 /home/leon/git/swp-report/iMX6_Platform_SDK/output/mx6sdl/sdk_unit_test/smart_device_rev_a/libsdk_unit_test.a(pwm_test.o)
 .ARM.attributes
                0x0000108c       0x39 /home/leon/git/swp-report/iMX6_Platform_SDK/output/mx6sdl/sdk_unit_test/smart_device_rev_a/libsdk_unit_test.a(hdmi_test.o)
 .ARM.attributes
                0x000010c5       0x39 /home/leon/git/swp-report/iMX6_Platform_SDK/output/mx6sdl/sdk_unit_test/smart_device_rev_a/libsdk_unit_test.a(ips_display.o)
 .ARM.attributes
                0x000010fe       0x39 /home/leon/git/swp-report/iMX6_Platform_SDK/output/mx6sdl/sdk_unit_test/smart_device_rev_a/libsdk_unit_test.a(ips_test.o)
 .ARM.attributes
                0x00001137       0x39 /home/leon/git/swp-report/iMX6_Platform_SDK/output/mx6sdl/sdk_unit_test/smart_device_rev_a/libsdk_unit_test.a(ipu_image.o)
 .ARM.attributes
                0x00001170       0x39 /home/leon/git/swp-report/iMX6_Platform_SDK/output/mx6sdl/sdk_unit_test/smart_device_rev_a/libsdk_unit_test.a(keypad_test.o)
 .ARM.attributes
                0x000011a9       0x39 /home/leon/git/swp-report/iMX6_Platform_SDK/output/mx6sdl/sdk_unit_test/smart_device_rev_a/libsdk_unit_test.a(camera_test.o)
 .ARM.attributes
                0x000011e2       0x39 /home/leon/git/swp-report/iMX6_Platform_SDK/output/mx6sdl/sdk_unit_test/smart_device_rev_a/libsdk_unit_test.a(csi_test_mode.o)
 .ARM.attributes
                0x0000121b       0x39 /home/leon/git/swp-report/iMX6_Platform_SDK/output/mx6sdl/sdk_unit_test/smart_device_rev_a/libsdk_unit_test.a(sensor_capture.o)
 .ARM.attributes
                0x00001254       0x39 /home/leon/git/swp-report/iMX6_Platform_SDK/output/mx6sdl/sdk_unit_test/smart_device_rev_a/libsdk_unit_test.a(pcie_test_rc.o)
 .ARM.attributes
                0x0000128d       0x39 /home/leon/git/swp-report/iMX6_Platform_SDK/output/mx6sdl/sdk_unit_test/smart_device_rev_a/libsdk_unit_test.a(usb_test.o)
 .ARM.attributes
                0x000012c6       0x39 /home/leon/git/swp-report/iMX6_Platform_SDK/output/mx6sdl/sdk_unit_test/smart_device_rev_a/libsdk_unit_test.a(enet_test.o)
 .ARM.attributes
                0x000012ff       0x39 /home/leon/git/swp-report/iMX6_Platform_SDK/output/mx6sdl/sdk_unit_test/smart_device_rev_a/libsdk_unit_test.a(spi_test.o)
 .ARM.attributes
                0x00001338       0x39 /home/leon/git/swp-report/iMX6_Platform_SDK/output/mx6sdl/sdk_unit_test/smart_device_rev_a/libsdk_unit_test.a(accelerometer_test.o)
 .ARM.attributes
                0x00001371       0x39 /home/leon/git/swp-report/iMX6_Platform_SDK/output/mx6sdl/sdk_unit_test/smart_device_rev_a/libsdk_unit_test.a(at24cxx.o)
 .ARM.attributes
                0x000013aa       0x39 /home/leon/git/swp-report/iMX6_Platform_SDK/output/mx6sdl/sdk_unit_test/smart_device_rev_a/libsdk_unit_test.a(mem_2_mem.o)
 .ARM.attributes
                0x000013e3       0x39 /home/leon/git/swp-report/iMX6_Platform_SDK/output/mx6sdl/sdk_unit_test/smart_device_rev_a/libsdk_unit_test.a(pwm_output.o)
 .ARM.attributes
                0x0000141c       0x39 /home/leon/git/swp-report/iMX6_Platform_SDK/output/mx6sdl/sdk_unit_test/smart_device_rev_a/libsdk_unit_test.a(init_dma_data.o)
 .ARM.attributes
                0x00001455       0x39 /home/leon/git/swp-report/iMX6_Platform_SDK/output/mx6sdl/sdk_unit_test/smart_device_rev_a/libsdk_unit_test.a(ips_combiner.o)
 .ARM.attributes
                0x0000148e       0x39 /home/leon/git/swp-report/iMX6_Platform_SDK/output/mx6sdl/sdk_unit_test/smart_device_rev_a/libsdk_unit_test.a(ips_csc.o)
 .ARM.attributes
                0x000014c7       0x39 /home/leon/git/swp-report/iMX6_Platform_SDK/output/mx6sdl/sdk_unit_test/smart_device_rev_a/libsdk_unit_test.a(ips_resize.o)
 .ARM.attributes
                0x00001500       0x39 /home/leon/git/swp-report/iMX6_Platform_SDK/output/mx6sdl/sdk_unit_test/smart_device_rev_a/libsdk_unit_test.a(ips_rotate.o)
 .ARM.attributes
                0x00001539       0x39 /home/leon/git/swp-report/iMX6_Platform_SDK/output/mx6sdl/sdk_unit_test/smart_device_rev_a/libsdk_unit_test.a(usb0_device_mouse_test.o)
 .ARM.attributes
                0x00001572       0x39 /home/leon/git/swp-report/iMX6_Platform_SDK/output/mx6sdl/sdk_unit_test/smart_device_rev_a/libsdk_unit_test.a(usb0_host_test.o)
 .ARM.attributes
                0x000015ab       0x39 /home/leon/git/swp-report/iMX6_Platform_SDK/output/mx6sdl/sdk_unit_test/smart_device_rev_a/libsdk_unit_test.a(usb0_host_testmodes_test.o)
 .ARM.attributes
                0x000015e4       0x39 /home/leon/git/swp-report/iMX6_Platform_SDK/output/mx6sdl/sdk_unit_test/smart_device_rev_a/libsdk_unit_test.a(spi_nor_numonyx.o)
 .ARM.attributes
                0x0000161d       0x30 /home/leon/riotboard/arm-2012.09/bin/../arm-none-eabi/lib//libm.a(lib_a-sf_cos.o)
 .ARM.attributes
                0x0000164d       0x30 /home/leon/riotboard/arm-2012.09/bin/../arm-none-eabi/lib//libm.a(lib_a-sf_fabs.o)
 .ARM.attributes
                0x0000167d       0x30 /home/leon/riotboard/arm-2012.09/bin/../arm-none-eabi/lib//libm.a(lib_a-sf_modf.o)
 .ARM.attributes
                0x000016ad       0x30 /home/leon/riotboard/arm-2012.09/bin/../arm-none-eabi/lib//libm.a(lib_a-sf_sin.o)
 .ARM.attributes
                0x000016dd       0x30 /home/leon/riotboard/arm-2012.09/bin/../arm-none-eabi/lib//libm.a(lib_a-ef_rem_pio2.o)
 .ARM.attributes
                0x0000170d       0x30 /home/leon/riotboard/arm-2012.09/bin/../arm-none-eabi/lib//libm.a(lib_a-kf_cos.o)
 .ARM.attributes
                0x0000173d       0x30 /home/leon/riotboard/arm-2012.09/bin/../arm-none-eabi/lib//libm.a(lib_a-kf_rem_pio2.o)
 .ARM.attributes
                0x0000176d       0x30 /home/leon/riotboard/arm-2012.09/bin/../arm-none-eabi/lib//libm.a(lib_a-kf_sin.o)
 .ARM.attributes
                0x0000179d       0x30 /home/leon/riotboard/arm-2012.09/bin/../arm-none-eabi/lib//libm.a(lib_a-sf_floor.o)
 .ARM.attributes
                0x000017cd       0x30 /home/leon/riotboard/arm-2012.09/bin/../arm-none-eabi/lib//libm.a(lib_a-sf_scalbn.o)
 .ARM.attributes
                0x000017fd       0x30 /home/leon/riotboard/arm-2012.09/bin/../arm-none-eabi/lib//libm.a(lib_a-sf_copysign.o)
 .ARM.attributes
                0x0000182d       0x30 /home/leon/riotboard/arm-2012.09/bin/../arm-none-eabi/lib//libc.a(lib_a-assert.o)
 .ARM.attributes
                0x0000185d       0x30 /home/leon/riotboard/arm-2012.09/bin/../arm-none-eabi/lib//libc.a(lib_a-bzero.o)
 .ARM.attributes
                0x0000188d       0x30 /home/leon/riotboard/arm-2012.09/bin/../arm-none-eabi/lib//libc.a(lib_a-fflush.o)
 .ARM.attributes
                0x000018bd       0x30 /home/leon/riotboard/arm-2012.09/bin/../arm-none-eabi/lib//libc.a(lib_a-findfp.o)
 .ARM.attributes
                0x000018ed       0x30 /home/leon/riotboard/arm-2012.09/bin/../arm-none-eabi/lib//libc.a(lib_a-fiprintf.o)
 .ARM.attributes
                0x0000191d       0x30 /home/leon/riotboard/arm-2012.09/bin/../arm-none-eabi/lib//libc.a(lib_a-fputc.o)
 .ARM.attributes
                0x0000194d       0x30 /home/leon/riotboard/arm-2012.09/bin/../arm-none-eabi/lib//libc.a(lib_a-fputs.o)
 .ARM.attributes
                0x0000197d       0x30 /home/leon/riotboard/arm-2012.09/bin/../arm-none-eabi/lib//libc.a(lib_a-freer.o)
 .ARM.attributes
                0x000019ad       0x30 /home/leon/riotboard/arm-2012.09/bin/../arm-none-eabi/lib//libc.a(lib_a-fvwrite.o)
 .ARM.attributes
                0x000019dd       0x30 /home/leon/riotboard/arm-2012.09/bin/../arm-none-eabi/lib//libc.a(lib_a-fwalk.o)
 .ARM.attributes
                0x00001a0d       0x30 /home/leon/riotboard/arm-2012.09/bin/../arm-none-eabi/lib//libc.a(lib_a-impure.o)
 .ARM.attributes
                0x00001a3d       0x30 /home/leon/riotboard/arm-2012.09/bin/../arm-none-eabi/lib//libc.a(lib_a-init.o)
 .ARM.attributes
                0x00001a6d       0x30 /home/leon/riotboard/arm-2012.09/bin/../arm-none-eabi/lib//libc.a(lib_a-malloc.o)
 .ARM.attributes
                0x00001a9d       0x30 /home/leon/riotboard/arm-2012.09/bin/../arm-none-eabi/lib//libc.a(lib_a-mallocr.o)
 .ARM.attributes
                0x00001acd       0x30 /home/leon/riotboard/arm-2012.09/bin/../arm-none-eabi/lib//libc.a(lib_a-memchr.o)
 .ARM.attributes
                0x00001afd       0x30 /home/leon/riotboard/arm-2012.09/bin/../arm-none-eabi/lib//libc.a(lib_a-memcpy.o)
 .ARM.attributes
                0x00001b2d       0x30 /home/leon/riotboard/arm-2012.09/bin/../arm-none-eabi/lib//libc.a(lib_a-memmove.o)
 .ARM.attributes
                0x00001b5d       0x30 /home/leon/riotboard/arm-2012.09/bin/../arm-none-eabi/lib//libc.a(lib_a-memset.o)
 .ARM.attributes
                0x00001b8d       0x30 /home/leon/riotboard/arm-2012.09/bin/../arm-none-eabi/lib//libc.a(lib_a-mlock.o)
 .ARM.attributes
                0x00001bbd       0x30 /home/leon/riotboard/arm-2012.09/bin/../arm-none-eabi/lib//libc.a(lib_a-printf.o)
 .ARM.attributes
                0x00001bed       0x30 /home/leon/riotboard/arm-2012.09/bin/../arm-none-eabi/lib//libc.a(lib_a-putc.o)
 .ARM.attributes
                0x00001c1d       0x30 /home/leon/riotboard/arm-2012.09/bin/../arm-none-eabi/lib//libc.a(lib_a-realloc.o)
 .ARM.attributes
                0x00001c4d       0x30 /home/leon/riotboard/arm-2012.09/bin/../arm-none-eabi/lib//libc.a(lib_a-reallocr.o)
 .ARM.attributes
                0x00001c7d       0x30 /home/leon/riotboard/arm-2012.09/bin/../arm-none-eabi/lib//libc.a(lib_a-rget.o)
 .ARM.attributes
                0x00001cad       0x30 /home/leon/riotboard/arm-2012.09/bin/../arm-none-eabi/lib//libc.a(lib_a-sbrkr.o)
 .ARM.attributes
                0x00001cdd       0x30 /home/leon/riotboard/arm-2012.09/bin/../arm-none-eabi/lib//libc.a(lib_a-sprintf.o)
 .ARM.attributes
                0x00001d0d       0x30 /home/leon/riotboard/arm-2012.09/bin/../arm-none-eabi/lib//libc.a(lib_a-stdio.o)
 .ARM.attributes
                0x00001d3d       0x30 /home/leon/riotboard/arm-2012.09/bin/../arm-none-eabi/lib//libc.a(lib_a-strlen.o)
 .ARM.attributes
                0x00001d6d       0x30 /home/leon/riotboard/arm-2012.09/bin/../arm-none-eabi/lib//libc.a(lib_a-strncasecmp.o)
 .ARM.attributes
                0x00001d9d       0x30 /home/leon/riotboard/arm-2012.09/bin/../arm-none-eabi/lib//libc.a(lib_a-svfprintf.o)
 .ARM.attributes
                0x00001dcd       0x30 /home/leon/riotboard/arm-2012.09/bin/../arm-none-eabi/lib//libc.a(lib_a-vfiprintf.o)
 .ARM.attributes
                0x00001dfd       0x30 /home/leon/riotboard/arm-2012.09/bin/../arm-none-eabi/lib//libc.a(lib_a-vfprintf.o)
 .ARM.attributes
                0x00001e2d       0x30 /home/leon/riotboard/arm-2012.09/bin/../arm-none-eabi/lib//libc.a(lib_a-vprintf.o)
 .ARM.attributes
                0x00001e5d       0x30 /home/leon/riotboard/arm-2012.09/bin/../arm-none-eabi/lib//libc.a(lib_a-wbuf.o)
 .ARM.attributes
                0x00001e8d       0x30 /home/leon/riotboard/arm-2012.09/bin/../arm-none-eabi/lib//libc.a(lib_a-writer.o)
 .ARM.attributes
                0x00001ebd       0x30 /home/leon/riotboard/arm-2012.09/bin/../arm-none-eabi/lib//libc.a(lib_a-wsetup.o)
 .ARM.attributes
                0x00001eed       0x30 /home/leon/riotboard/arm-2012.09/bin/../arm-none-eabi/lib//libc.a(lib_a-abort.o)
 .ARM.attributes
                0x00001f1d       0x30 /home/leon/riotboard/arm-2012.09/bin/../arm-none-eabi/lib//libc.a(lib_a-closer.o)
 .ARM.attributes
                0x00001f4d       0x30 /home/leon/riotboard/arm-2012.09/bin/../arm-none-eabi/lib//libc.a(lib_a-ctype_.o)
 .ARM.attributes
                0x00001f7d       0x30 /home/leon/riotboard/arm-2012.09/bin/../arm-none-eabi/lib//libc.a(lib_a-dtoa.o)
 .ARM.attributes
                0x00001fad       0x30 /home/leon/riotboard/arm-2012.09/bin/../arm-none-eabi/lib//libc.a(lib_a-fclose.o)
 .ARM.attributes
                0x00001fdd       0x30 /home/leon/riotboard/arm-2012.09/bin/../arm-none-eabi/lib//libc.a(lib_a-fputwc.o)
 .ARM.attributes
                0x0000200d       0x30 /home/leon/riotboard/arm-2012.09/bin/../arm-none-eabi/lib//libc.a(lib_a-locale.o)
 .ARM.attributes
                0x0000203d       0x30 /home/leon/riotboard/arm-2012.09/bin/../arm-none-eabi/lib//libc.a(lib_a-lseekr.o)
 .ARM.attributes
                0x0000206d       0x30 /home/leon/riotboard/arm-2012.09/bin/../arm-none-eabi/lib//libc.a(lib_a-makebuf.o)
 .ARM.attributes
                0x0000209d       0x30 /home/leon/riotboard/arm-2012.09/bin/../arm-none-eabi/lib//libc.a(lib_a-mprec.o)
 .ARM.attributes
                0x000020cd       0x30 /home/leon/riotboard/arm-2012.09/bin/../arm-none-eabi/lib//libc.a(lib_a-readr.o)
 .ARM.attributes
                0x000020fd       0x30 /home/leon/riotboard/arm-2012.09/bin/../arm-none-eabi/lib//libc.a(lib_a-reent.o)
 .ARM.attributes
                0x0000212d       0x30 /home/leon/riotboard/arm-2012.09/bin/../arm-none-eabi/lib//libc.a(lib_a-refill.o)
 .ARM.attributes
                0x0000215d       0x30 /home/leon/riotboard/arm-2012.09/bin/../arm-none-eabi/lib//libc.a(lib_a-s_fpclassify.o)
 .ARM.attributes
                0x0000218d       0x30 /home/leon/riotboard/arm-2012.09/bin/../arm-none-eabi/lib//libc.a(lib_a-signal.o)
 .ARM.attributes
                0x000021bd       0x30 /home/leon/riotboard/arm-2012.09/bin/../arm-none-eabi/lib//libc.a(lib_a-signalr.o)
 .ARM.attributes
                0x000021ed       0x30 /home/leon/riotboard/arm-2012.09/bin/../arm-none-eabi/lib//libc.a(lib_a-strcmp.o)
 .ARM.attributes
                0x0000221d       0x30 /home/leon/riotboard/arm-2012.09/bin/../arm-none-eabi/lib//libc.a(lib_a-svfiprintf.o)
 .ARM.attributes
                0x0000224d       0x30 /home/leon/riotboard/arm-2012.09/bin/../arm-none-eabi/lib//libc.a(lib_a-wcrtomb.o)
 .ARM.attributes
                0x0000227d       0x30 /home/leon/riotboard/arm-2012.09/bin/../arm-none-eabi/lib//libc.a(lib_a-wctomb_r.o)
 .ARM.attributes
                0x000022ad       0x30 /home/leon/riotboard/arm-2012.09/bin/../arm-none-eabi/lib//libc.a(lib_a-callocr.o)
 .ARM.attributes
                0x000022dd       0x30 /home/leon/riotboard/arm-2012.09/bin/../arm-none-eabi/lib//libc.a(lib_a-fstatr.o)
 .ARM.attributes
                0x0000230d       0x30 /home/leon/riotboard/arm-2012.09/bin/../arm-none-eabi/lib//libc.a(lib_a-isattyr.o)
 .ARM.attributes
                0x0000233d       0x18 /home/leon/riotboard/arm-2012.09/bin/../lib/gcc/arm-none-eabi/4.7.2//libgcc.a(_udivsi3.o)
 .ARM.attributes
                0x00002355       0x18 /home/leon/riotboard/arm-2012.09/bin/../lib/gcc/arm-none-eabi/4.7.2//libgcc.a(_dvmd_tls.o)
 .ARM.attributes
                0x0000236d       0x18 /home/leon/riotboard/arm-2012.09/bin/../lib/gcc/arm-none-eabi/4.7.2//libgcc.a(_arm_addsubdf3.o)
 .ARM.attributes
                0x00002385       0x18 /home/leon/riotboard/arm-2012.09/bin/../lib/gcc/arm-none-eabi/4.7.2//libgcc.a(_arm_muldivdf3.o)
 .ARM.attributes
                0x0000239d       0x18 /home/leon/riotboard/arm-2012.09/bin/../lib/gcc/arm-none-eabi/4.7.2//libgcc.a(_arm_cmpdf2.o)
 .ARM.attributes
                0x000023b5       0x18 /home/leon/riotboard/arm-2012.09/bin/../lib/gcc/arm-none-eabi/4.7.2//libgcc.a(_arm_fixdfsi.o)
 .ARM.attributes
                0x000023cd       0x18 /home/leon/riotboard/arm-2012.09/bin/../lib/gcc/arm-none-eabi/4.7.2//libgcc.a(_arm_addsubsf3.o)
 .ARM.attributes
                0x000023e5       0x18 /home/leon/riotboard/arm-2012.09/bin/../lib/gcc/arm-none-eabi/4.7.2//libgcc.a(_arm_muldivsf3.o)
 .ARM.attributes
                0x000023fd       0x18 /home/leon/riotboard/arm-2012.09/bin/../lib/gcc/arm-none-eabi/4.7.2//libgcc.a(_arm_cmpsf2.o)
 .ARM.attributes
                0x00002415       0x18 /home/leon/riotboard/arm-2012.09/bin/../lib/gcc/arm-none-eabi/4.7.2//libgcc.a(_arm_fixsfsi.o)
 .ARM.attributes
                0x0000242d       0x18 /home/leon/riotboard/arm-2012.09/bin/../lib/gcc/arm-none-eabi/4.7.2//libgcc.a(_aeabi_uldivmod.o)
 .ARM.attributes
                0x00002445       0x30 /home/leon/riotboard/arm-2012.09/bin/../lib/gcc/arm-none-eabi/4.7.2//libgcc.a(bpabi.o)
 .ARM.attributes
                0x00002475       0x30 /home/leon/riotboard/arm-2012.09/bin/../lib/gcc/arm-none-eabi/4.7.2//libgcc.a(_divdi3.o)
 .ARM.attributes
                0x000024a5       0x30 /home/leon/riotboard/arm-2012.09/bin/../lib/gcc/arm-none-eabi/4.7.2//libgcc.a(_udivdi3.o)
 .ARM.attributes
                0x000024d5       0x18 /home/leon/riotboard/arm-2012.09/bin/../lib/gcc/arm-none-eabi/4.7.2//libgcc.a(_clzsi2.o)
 .ARM.attributes
                0x000024ed       0x39 /home/leon/git/swp-report/iMX6_Platform_SDK/output/mx6sdl/lib/libsdk.a(profile.o)
 .ARM.attributes
                0x00002526       0x39 /home/leon/git/swp-report/iMX6_Platform_SDK/output/mx6sdl/lib/libsdk.a(armv7_cache.o)
 .ARM.attributes
                0x0000255f       0x39 /home/leon/git/swp-report/iMX6_Platform_SDK/output/mx6sdl/lib/libsdk.a(runtime_support.o)
 .ARM.attributes
                0x00002598       0x39 /home/leon/git/swp-report/iMX6_Platform_SDK/output/mx6sdl/lib/libsdk.a(mma8451.o)
 .ARM.attributes
                0x000025d1       0x39 /home/leon/git/swp-report/iMX6_Platform_SDK/output/mx6sdl/lib/libsdk.a(smd_sensor.o)
 .ARM.attributes
                0x0000260a       0x39 /home/leon/git/swp-report/iMX6_Platform_SDK/output/mx6sdl/lib/libsdk.a(cpu_get_cores.o)
 .ARM.attributes
                0x00002643       0x39 /home/leon/git/swp-report/iMX6_Platform_SDK/output/mx6sdl/lib/libsdk.a(cpu_multicore.o)
 .ARM.attributes
                0x0000267c       0x39 /home/leon/git/swp-report/iMX6_Platform_SDK/output/mx6sdl/lib/libsdk.a(cpu_workpoint.o)
 .ARM.attributes
                0x000026b5       0x39 /home/leon/git/swp-report/iMX6_Platform_SDK/output/mx6sdl/lib/libsdk.a(enet_drv.o)
 .ARM.attributes
                0x000026ee       0x39 /home/leon/git/swp-report/iMX6_Platform_SDK/output/mx6sdl/lib/libsdk.a(gpio.o)
 .ARM.attributes
                0x00002727       0x39 /home/leon/git/swp-report/iMX6_Platform_SDK/output/mx6sdl/lib/libsdk.a(imx6sdl_gpio_map.o)
 .ARM.attributes
                0x00002760       0x39 /home/leon/git/swp-report/iMX6_Platform_SDK/output/mx6sdl/lib/libsdk.a(hdmi_tx.o)
 .ARM.attributes
                0x00002799       0x39 /home/leon/git/swp-report/iMX6_Platform_SDK/output/mx6sdl/lib/libsdk.a(hdmi_tx_audio.o)
 .ARM.attributes
                0x000027d2       0x39 /home/leon/git/swp-report/iMX6_Platform_SDK/output/mx6sdl/lib/libsdk.a(hdmi_tx_phy.o)
 .ARM.attributes
                0x0000280b       0x39 /home/leon/git/swp-report/iMX6_Platform_SDK/output/mx6sdl/lib/libsdk.a(imx_i2c.o)
 .ARM.attributes
                0x00002844       0x39 /home/leon/git/swp-report/iMX6_Platform_SDK/output/mx6sdl/lib/libsdk.a(imx_i2c_slave.o)
 .ARM.attributes
                0x0000287d       0x39 /home/leon/git/swp-report/iMX6_Platform_SDK/output/mx6sdl/lib/libsdk.a(ips_disp_panel.o)
 .ARM.attributes
                0x000028b6       0x39 /home/leon/git/swp-report/iMX6_Platform_SDK/output/mx6sdl/lib/libsdk.a(ipu_common.o)
 .ARM.attributes
                0x000028ef       0x39 /home/leon/git/swp-report/iMX6_Platform_SDK/output/mx6sdl/lib/libsdk.a(ipu_csi.o)
 .ARM.attributes
                0x00002928       0x39 /home/leon/git/swp-report/iMX6_Platform_SDK/output/mx6sdl/lib/libsdk.a(ipu_dc.o)
 .ARM.attributes
                0x00002961       0x39 /home/leon/git/swp-report/iMX6_Platform_SDK/output/mx6sdl/lib/libsdk.a(ipu_di.o)
 .ARM.attributes
                0x0000299a       0x39 /home/leon/git/swp-report/iMX6_Platform_SDK/output/mx6sdl/lib/libsdk.a(ipu_dmfc.o)
 .ARM.attributes
                0x000029d3       0x39 /home/leon/git/swp-report/iMX6_Platform_SDK/output/mx6sdl/lib/libsdk.a(ipu_dp.o)
 .ARM.attributes
                0x00002a0c       0x39 /home/leon/git/swp-report/iMX6_Platform_SDK/output/mx6sdl/lib/libsdk.a(ipu_ic.o)
 .ARM.attributes
                0x00002a45       0x39 /home/leon/git/swp-report/iMX6_Platform_SDK/output/mx6sdl/lib/libsdk.a(ipu_idmac.o)
 .ARM.attributes
                0x00002a7e       0x39 /home/leon/git/swp-report/iMX6_Platform_SDK/output/mx6sdl/lib/libsdk.a(ipu_vdi.o)
 .ARM.attributes
                0x00002ab7       0x39 /home/leon/git/swp-report/iMX6_Platform_SDK/output/mx6sdl/lib/libsdk.a(keypad_port.o)
 .ARM.attributes
                0x00002af0       0x39 /home/leon/git/swp-report/iMX6_Platform_SDK/output/mx6sdl/lib/libsdk.a(ldb.o)
 .ARM.attributes
                0x00002b29       0x39 /home/leon/git/swp-report/iMX6_Platform_SDK/output/mx6sdl/lib/libsdk.a(ocotp.o)
 .ARM.attributes
                0x00002b62       0x39 /home/leon/git/swp-report/iMX6_Platform_SDK/output/mx6sdl/lib/libsdk.a(pcie.o)
 .ARM.attributes
                0x00002b9b       0x39 /home/leon/git/swp-report/iMX6_Platform_SDK/output/mx6sdl/lib/libsdk.a(pcie_phy.o)
 .ARM.attributes
                0x00002bd4       0x39 /home/leon/git/swp-report/iMX6_Platform_SDK/output/mx6sdl/lib/libsdk.a(pcie_prot.o)
 .ARM.attributes
                0x00002c0d       0x39 /home/leon/git/swp-report/iMX6_Platform_SDK/output/mx6sdl/lib/libsdk.a(pmu_driver.o)
 .ARM.attributes
                0x00002c46       0x39 /home/leon/git/swp-report/iMX6_Platform_SDK/output/mx6sdl/lib/libsdk.a(pwm.o)
 .ARM.attributes
                0x00002c7f       0x39 /home/leon/git/swp-report/iMX6_Platform_SDK/output/mx6sdl/lib/libsdk.a(rtc.o)
 .ARM.attributes
                0x00002cb8       0x39 /home/leon/git/swp-report/iMX6_Platform_SDK/output/mx6sdl/lib/libsdk.a(srtc.o)
 .ARM.attributes
                0x00002cf1       0x39 /home/leon/git/swp-report/iMX6_Platform_SDK/output/mx6sdl/lib/libsdk.a(sdma.o)
 .ARM.attributes
                0x00002d2a       0x39 /home/leon/git/swp-report/iMX6_Platform_SDK/output/mx6sdl/lib/libsdk.a(sdma_script_info.o)
 .ARM.attributes
                0x00002d63       0x39 /home/leon/git/swp-report/iMX6_Platform_SDK/output/mx6sdl/lib/libsdk.a(snvs.o)
 .ARM.attributes
                0x00002d9c       0x39 /home/leon/git/swp-report/iMX6_Platform_SDK/output/mx6sdl/lib/libsdk.a(ecspi.o)
 .ARM.attributes
                0x00002dd5       0x39 /home/leon/git/swp-report/iMX6_Platform_SDK/output/mx6sdl/lib/libsdk.a(tempmon.o)
 .ARM.attributes
                0x00002e0e       0x39 /home/leon/git/swp-report/iMX6_Platform_SDK/output/mx6sdl/lib/libsdk.a(gpt.o)
 .ARM.attributes
                0x00002e47       0x39 /home/leon/git/swp-report/iMX6_Platform_SDK/output/mx6sdl/lib/libsdk.a(usb_common.o)
 .ARM.attributes
                0x00002e80       0x39 /home/leon/git/swp-report/iMX6_Platform_SDK/output/mx6sdl/lib/libsdk.a(usbd_drv.o)
 .ARM.attributes
                0x00002eb9       0x39 /home/leon/git/swp-report/iMX6_Platform_SDK/output/mx6sdl/lib/libsdk.a(usbh_drv.o)
 .ARM.attributes
                0x00002ef2       0x39 /home/leon/git/swp-report/iMX6_Platform_SDK/output/mx6sdl/lib/libsdk.a(usdhc.o)
 .ARM.attributes
                0x00002f2b       0x39 /home/leon/git/swp-report/iMX6_Platform_SDK/output/mx6sdl/lib/libsdk.a(usdhc_host.o)
 .ARM.attributes
                0x00002f64       0x39 /home/leon/git/swp-report/iMX6_Platform_SDK/output/mx6sdl/lib/libsdk.a(usdhc_mmc.o)
 .ARM.attributes
                0x00002f9d       0x39 /home/leon/git/swp-report/iMX6_Platform_SDK/output/mx6sdl/lib/libsdk.a(usdhc_sd.o)
 .ARM.attributes
                0x00002fd6       0x39 /home/leon/git/swp-report/iMX6_Platform_SDK/output/mx6sdl/lib/libsdk.a(spinlock.o)
 .ARM.attributes
                0x0000300f       0x16 /home/leon/git/swp-report/iMX6_Platform_SDK/output/mx6sdl/lib/libsdk.a(spinlock_lock_unlock.o)
 .ARM.attributes
                0x00003025       0x39 /home/leon/git/swp-report/iMX6_Platform_SDK/output/mx6sdl/lib/libsdk.a(camera_profile.o)
 .ARM.attributes
                0x0000305e       0x39 /home/leon/git/swp-report/iMX6_Platform_SDK/output/mx6sdl/lib/libsdk.a(hdmi_common.o)
 .ARM.attributes
                0x00003097       0x39 /home/leon/git/swp-report/iMX6_Platform_SDK/output/mx6sdl/lib/libsdk.a(mx6x_usb.o)
 .ARM.attributes
                0x000030d0       0x39 /home/leon/git/swp-report/iMX6_Platform_SDK/output/mx6sdl/lib/libboard_smart_device_rev_a.a(board_audio.o)
 .ARM.attributes
                0x00003109       0x39 /home/leon/git/swp-report/iMX6_Platform_SDK/output/mx6sdl/lib/libboard_smart_device_rev_a.a(board_camera.o)
 .ARM.attributes
                0x00003142       0x39 /home/leon/git/swp-report/iMX6_Platform_SDK/output/mx6sdl/lib/libboard_smart_device_rev_a.a(board_display.o)
 .ARM.attributes
                0x0000317b       0x39 /home/leon/git/swp-report/iMX6_Platform_SDK/output/mx6sdl/lib/libboard_smart_device_rev_a.a(board_hdmi.o)
 .ARM.attributes
                0x000031b4       0x39 /home/leon/git/swp-report/iMX6_Platform_SDK/output/mx6sdl/lib/libboard_smart_device_rev_a.a(board_i2c.o)
 .ARM.attributes
                0x000031ed       0x39 /home/leon/git/swp-report/iMX6_Platform_SDK/output/mx6sdl/lib/libboard_smart_device_rev_a.a(board_mipi.o)
 .ARM.attributes
                0x00003226       0x39 /home/leon/git/swp-report/iMX6_Platform_SDK/output/mx6sdl/lib/libboard_smart_device_rev_a.a(board_network.o)
 .ARM.attributes
                0x0000325f       0x39 /home/leon/git/swp-report/iMX6_Platform_SDK/output/mx6sdl/lib/libboard_smart_device_rev_a.a(board_pcie.o)
 .ARM.attributes
                0x00003298       0x39 /home/leon/git/swp-report/iMX6_Platform_SDK/output/mx6sdl/lib/libboard_smart_device_rev_a.a(board_usb.o)
 .ARM.attributes
                0x000032d1       0x39 /home/leon/git/swp-report/iMX6_Platform_SDK/output/mx6sdl/lib/libboard_smart_device_rev_a.a(board_usdhc.o)
 .ARM.attributes
                0x0000330a       0x39 /home/leon/git/swp-report/iMX6_Platform_SDK/output/mx6sdl/lib/libboard_smart_device_rev_a.a(ecspi_iomux_config.o)
 .ARM.attributes
                0x00003343       0x39 /home/leon/git/swp-report/iMX6_Platform_SDK/output/mx6sdl/lib/libboard_smart_device_rev_a.a(i2c_iomux_config.o)
 .ARM.attributes
                0x0000337c       0x39 /home/leon/git/swp-report/iMX6_Platform_SDK/output/mx6sdl/lib/libboard_smart_device_rev_a.a(pwm_iomux_config.o)
 .ARM.attributes
                0x000033b5       0x39 /home/leon/git/swp-report/iMX6_Platform_SDK/output/mx6sdl/lib/libboard_smart_device_rev_a.a(usdhc_iomux_config.o)
 .ARM.attributes
                0x000033ee       0x30 /home/leon/riotboard/arm-2012.09/bin/../arm-none-eabi/lib//libstdc++.a(pure.o)
 .ARM.attributes
                0x0000341e       0x30 /home/leon/riotboard/arm-2012.09/bin/../arm-none-eabi/lib//libstdc++.a(eh_terminate.o)
 .ARM.attributes
                0x0000344e       0x30 /home/leon/riotboard/arm-2012.09/bin/../arm-none-eabi/lib//libstdc++.a(eh_unex_handler.o)
 .ARM.attributes
                0x0000347e       0x30 /home/leon/riotboard/arm-2012.09/bin/../arm-none-eabi/lib//libstdc++.a(eh_call.o)
 .ARM.attributes
                0x000034ae       0x30 /home/leon/riotboard/arm-2012.09/bin/../arm-none-eabi/lib//libstdc++.a(eh_throw.o)
 .ARM.attributes
                0x000034de       0x30 /home/leon/riotboard/arm-2012.09/bin/../arm-none-eabi/lib//libstdc++.a(eh_arm.o)
 .ARM.attributes
                0x0000350e       0x30 /home/leon/riotboard/arm-2012.09/bin/../arm-none-eabi/lib//libstdc++.a(eh_exception.o)
 .ARM.attributes
                0x0000353e       0x30 /home/leon/riotboard/arm-2012.09/bin/../arm-none-eabi/lib//libstdc++.a(eh_alloc.o)
 .ARM.attributes
                0x0000356e       0x30 /home/leon/riotboard/arm-2012.09/bin/../arm-none-eabi/lib//libstdc++.a(eh_globals.o)
 .ARM.attributes
                0x0000359e       0x30 /home/leon/riotboard/arm-2012.09/bin/../arm-none-eabi/lib//libstdc++.a(si_class_type_info.o)
 .ARM.attributes
                0x000035ce       0x30 /home/leon/riotboard/arm-2012.09/bin/../arm-none-eabi/lib//libstdc++.a(eh_personality.o)
 .ARM.attributes
                0x000035fe       0x30 /home/leon/riotboard/arm-2012.09/bin/../arm-none-eabi/lib//libstdc++.a(eh_term_handler.o)
 .ARM.attributes
                0x0000362e       0x30 /home/leon/riotboard/arm-2012.09/bin/../arm-none-eabi/lib//libstdc++.a(eh_catch.o)
 .ARM.attributes
                0x0000365e       0x30 /home/leon/riotboard/arm-2012.09/bin/../arm-none-eabi/lib//libstdc++.a(class_type_info.o)
 .ARM.attributes
                0x0000368e       0x30 /home/leon/riotboard/arm-2012.09/bin/../arm-none-eabi/lib//libstdc++.a(vterminate.o)
 .ARM.attributes
                0x000036be       0x30 /home/leon/riotboard/arm-2012.09/bin/../arm-none-eabi/lib//libstdc++.a(cp-demangle.o)
 .ARM.attributes
                0x000036ee       0x30 /home/leon/riotboard/arm-2012.09/bin/../arm-none-eabi/lib//libstdc++.a(eh_type.o)
 .ARM.attributes
                0x0000371e       0x30 /home/leon/riotboard/arm-2012.09/bin/../arm-none-eabi/lib//libstdc++.a(del_op.o)
 .ARM.attributes
                0x0000374e       0x30 /home/leon/riotboard/arm-2012.09/bin/../arm-none-eabi/lib//libstdc++.a(tinfo.o)
 .ARM.attributes
                0x0000377e       0x30 /home/leon/riotboard/arm-2012.09/bin/../arm-none-eabi/lib//libc.a(lib_a-fwrite.o)
 .ARM.attributes
                0x000037ae       0x30 /home/leon/riotboard/arm-2012.09/bin/../arm-none-eabi/lib//libc.a(lib_a-memcmp.o)
 .ARM.attributes
                0x000037de       0x30 /home/leon/riotboard/arm-2012.09/bin/../arm-none-eabi/lib//libc.a(lib_a-strncmp.o)
 .ARM.attributes
                0x0000380e       0x30 /home/leon/riotboard/arm-2012.09/bin/../arm-none-eabi/lib//libc.a(lib_a-syswrite.o)
 .ARM.attributes
                0x0000383e       0x18 /home/leon/riotboard/arm-2012.09/bin/../lib/gcc/arm-none-eabi/4.7.2//libgcc.a(_divsi3.o)
 .ARM.attributes
                0x00003856       0x30 /home/leon/riotboard/arm-2012.09/bin/../lib/gcc/arm-none-eabi/4.7.2//libgcc.a(unwind-arm.o)
 .ARM.attributes
                0x00003886       0x1c /home/leon/riotboard/arm-2012.09/bin/../lib/gcc/arm-none-eabi/4.7.2//libgcc.a(libunwind.o)
 .ARM.attributes
                0x000038a2       0x30 /home/leon/riotboard/arm-2012.09/bin/../lib/gcc/arm-none-eabi/4.7.2//libgcc.a(pr-support.o)

.comment        0x00000000       0x30
 .comment       0x00000000       0x30 /home/leon/git/swp-report/iMX6_Platform_SDK/output/mx6sdl/sdk_unit_test/smart_device_rev_a/obj/apps/common/ivt.o
                                 0x31 (size before relaxing)
 .comment       0x00000000       0x31 /home/leon/git/swp-report/iMX6_Platform_SDK/output/mx6sdl/sdk_unit_test/smart_device_rev_a/obj/apps/common/platform_init.o
 .comment       0x00000000       0x31 /home/leon/git/swp-report/iMX6_Platform_SDK/output/mx6sdl/sdk_unit_test/smart_device_rev_a/obj/apps/common/print_clock_info.o
 .comment       0x00000000       0x31 /home/leon/git/swp-report/iMX6_Platform_SDK/output/mx6sdl/sdk_unit_test/smart_device_rev_a/obj/apps/common/print_version.o
 .comment       0x00000000       0x31 /home/leon/git/swp-report/iMX6_Platform_SDK/output/mx6sdl/sdk_unit_test/smart_device_rev_a/obj/apps/sdk_unit_test/src/all_test.o
 .comment       0x00000000       0x31 /home/leon/git/swp-report/iMX6_Platform_SDK/output/mx6sdl/sdk_unit_test/smart_device_rev_a/obj/apps/sdk_unit_test/src/unit_test_main.o
 .comment       0x00000000       0x31 /home/leon/git/swp-report/iMX6_Platform_SDK/output/mx6sdl/lib/libsdk.a(ccm_pll.o)
 .comment       0x00000000       0x31 /home/leon/git/swp-report/iMX6_Platform_SDK/output/mx6sdl/lib/libsdk.a(gic.o)
 .comment       0x00000000       0x31 /home/leon/git/swp-report/iMX6_Platform_SDK/output/mx6sdl/lib/libsdk.a(mmu.o)
 .comment       0x00000000       0x31 /home/leon/git/swp-report/iMX6_Platform_SDK/output/mx6sdl/lib/libsdk.a(menu.o)
 .comment       0x00000000       0x31 /home/leon/git/swp-report/iMX6_Platform_SDK/output/mx6sdl/lib/libsdk.a(sdk_version.o)
 .comment       0x00000000       0x31 /home/leon/git/swp-report/iMX6_Platform_SDK/output/mx6sdl/lib/libsdk.a(system_util.o)
 .comment       0x00000000       0x31 /home/leon/git/swp-report/iMX6_Platform_SDK/output/mx6sdl/lib/libsdk.a(text_color.o)
 .comment       0x00000000       0x31 /home/leon/git/swp-report/iMX6_Platform_SDK/output/mx6sdl/lib/libsdk.a(board_id.o)
 .comment       0x00000000       0x31 /home/leon/git/swp-report/iMX6_Platform_SDK/output/mx6sdl/lib/libsdk.a(timer.o)
 .comment       0x00000000       0x31 /home/leon/git/swp-report/iMX6_Platform_SDK/output/mx6sdl/lib/libsdk.a(imx_uart.o)
 .comment       0x00000000       0x31 /home/leon/git/swp-report/iMX6_Platform_SDK/output/mx6sdl/lib/libsdk.a(interrupt.o)
 .comment       0x00000000       0x31 /home/leon/git/swp-report/iMX6_Platform_SDK/output/mx6sdl/lib/libsdk.a(epit.o)
 .comment       0x00000000       0x31 /home/leon/git/swp-report/iMX6_Platform_SDK/output/mx6sdl/lib/libsdk.a(abort_handler.o)
 .comment       0x00000000       0x31 /home/leon/git/swp-report/iMX6_Platform_SDK/output/mx6sdl/lib/libboard_smart_device_rev_a.a(board_io_expanders.o)
 .comment       0x00000000       0x31 /home/leon/git/swp-report/iMX6_Platform_SDK/output/mx6sdl/lib/libboard_smart_device_rev_a.a(hardware_modules.o)
 .comment       0x00000000       0x31 /home/leon/git/swp-report/iMX6_Platform_SDK/output/mx6sdl/lib/libboard_smart_device_rev_a.a(dcd.o)
 .comment       0x00000000       0x31 /home/leon/git/swp-report/iMX6_Platform_SDK/output/mx6sdl/lib/libboard_smart_device_rev_a.a(uart_iomux_config.o)
 .comment       0x00000000       0x31 /home/leon/git/swp-report/iMX6_Platform_SDK/output/mx6sdl/lib/libboard_smart_device_rev_a.a(iomux_config.o)
 .comment       0x00000000       0x31 /home/leon/git/swp-report/iMX6_Platform_SDK/output/mx6sdl/lib/libboard_smart_device_rev_a.a(ipu1_iomux_config.o)
 .comment       0x00000000       0x31 /home/leon/git/swp-report/iMX6_Platform_SDK/output/mx6sdl/lib/libboard_smart_device_rev_a.a(kpp_iomux_config.o)
 .comment       0x00000000       0x31 /home/leon/git/swp-report/iMX6_Platform_SDK/output/mx6sdl/lib/libboard_smart_device_rev_a.a(mmdc_iomux_config.o)
 .comment       0x00000000       0x31 /home/leon/git/swp-report/iMX6_Platform_SDK/output/mx6sdl/lib/libboard_smart_device_rev_a.a(pwm1_iomux_config.o)
 .comment       0x00000000       0x31 /home/leon/git/swp-report/iMX6_Platform_SDK/output/mx6sdl/lib/libboard_smart_device_rev_a.a(sjc_iomux_config.o)
 .comment       0x00000000       0x31 /home/leon/git/swp-report/iMX6_Platform_SDK/output/mx6sdl/lib/libboard_smart_device_rev_a.a(uart1_iomux_config.o)
 .comment       0x00000000       0x31 /home/leon/git/swp-report/iMX6_Platform_SDK/output/mx6sdl/lib/libboard_smart_device_rev_a.a(usdhc2_iomux_config.o)
 .comment       0x00000000       0x31 /home/leon/git/swp-report/iMX6_Platform_SDK/output/mx6sdl/lib/libboard_smart_device_rev_a.a(usdhc3_iomux_config.o)
 .comment       0x00000000       0x31 /home/leon/git/swp-report/iMX6_Platform_SDK/output/mx6sdl/lib/libboard_smart_device_rev_a.a(usdhc4_iomux_config.o)
 .comment       0x00000000       0x31 /home/leon/git/swp-report/iMX6_Platform_SDK/output/mx6sdl/lib/libboard_smart_device_rev_a.a(audmux_iomux_config.o)
 .comment       0x00000000       0x31 /home/leon/git/swp-report/iMX6_Platform_SDK/output/mx6sdl/lib/libboard_smart_device_rev_a.a(ccm_iomux_config.o)
 .comment       0x00000000       0x31 /home/leon/git/swp-report/iMX6_Platform_SDK/output/mx6sdl/lib/libboard_smart_device_rev_a.a(ecspi1_iomux_config.o)
 .comment       0x00000000       0x31 /home/leon/git/swp-report/iMX6_Platform_SDK/output/mx6sdl/lib/libboard_smart_device_rev_a.a(enet_iomux_config.o)
 .comment       0x00000000       0x31 /home/leon/git/swp-report/iMX6_Platform_SDK/output/mx6sdl/lib/libboard_smart_device_rev_a.a(epdc_iomux_config.o)
 .comment       0x00000000       0x31 /home/leon/git/swp-report/iMX6_Platform_SDK/output/mx6sdl/lib/libboard_smart_device_rev_a.a(flexcan1_iomux_config.o)
 .comment       0x00000000       0x31 /home/leon/git/swp-report/iMX6_Platform_SDK/output/mx6sdl/lib/libboard_smart_device_rev_a.a(gpio1_iomux_config.o)
 .comment       0x00000000       0x31 /home/leon/git/swp-report/iMX6_Platform_SDK/output/mx6sdl/lib/libboard_smart_device_rev_a.a(gpio2_iomux_config.o)
 .comment       0x00000000       0x31 /home/leon/git/swp-report/iMX6_Platform_SDK/output/mx6sdl/lib/libboard_smart_device_rev_a.a(gpio3_iomux_config.o)
 .comment       0x00000000       0x31 /home/leon/git/swp-report/iMX6_Platform_SDK/output/mx6sdl/lib/libboard_smart_device_rev_a.a(gpio4_iomux_config.o)
 .comment       0x00000000       0x31 /home/leon/git/swp-report/iMX6_Platform_SDK/output/mx6sdl/lib/libboard_smart_device_rev_a.a(gpio5_iomux_config.o)
 .comment       0x00000000       0x31 /home/leon/git/swp-report/iMX6_Platform_SDK/output/mx6sdl/lib/libboard_smart_device_rev_a.a(gpio6_iomux_config.o)
 .comment       0x00000000       0x31 /home/leon/git/swp-report/iMX6_Platform_SDK/output/mx6sdl/lib/libboard_smart_device_rev_a.a(gpio7_iomux_config.o)
 .comment       0x00000000       0x31 /home/leon/git/swp-report/iMX6_Platform_SDK/output/mx6sdl/lib/libboard_smart_device_rev_a.a(gps_iomux_config.o)
 .comment       0x00000000       0x31 /home/leon/git/swp-report/iMX6_Platform_SDK/output/mx6sdl/lib/libboard_smart_device_rev_a.a(i2c1_iomux_config.o)
 .comment       0x00000000       0x31 /home/leon/git/swp-report/iMX6_Platform_SDK/output/mx6sdl/lib/libboard_smart_device_rev_a.a(i2c2_iomux_config.o)
 .comment       0x00000000       0x31 /home/leon/git/swp-report/iMX6_Platform_SDK/output/mx6sdl/lib/libboard_smart_device_rev_a.a(i2c3_iomux_config.o)
 .comment       0x00000000       0x31 /home/leon/git/swp-report/iMX6_Platform_SDK/output/mx6sdl/sdk_unit_test/smart_device_rev_a/libsdk_unit_test.a(cpu_wp_test.o)
 .comment       0x00000000       0x31 /home/leon/git/swp-report/iMX6_Platform_SDK/output/mx6sdl/sdk_unit_test/smart_device_rev_a/libsdk_unit_test.a(multicore_test.o)
 .comment       0x00000000       0x31 /home/leon/git/swp-report/iMX6_Platform_SDK/output/mx6sdl/sdk_unit_test/smart_device_rev_a/libsdk_unit_test.a(audio_test.o)
 .comment       0x00000000       0x31 /home/leon/git/swp-report/iMX6_Platform_SDK/output/mx6sdl/sdk_unit_test/smart_device_rev_a/libsdk_unit_test.a(gic_test.o)
 .comment       0x00000000       0x31 /home/leon/git/swp-report/iMX6_Platform_SDK/output/mx6sdl/sdk_unit_test/smart_device_rev_a/libsdk_unit_test.a(ocotp_test.o)
 .comment       0x00000000       0x31 /home/leon/git/swp-report/iMX6_Platform_SDK/output/mx6sdl/sdk_unit_test/smart_device_rev_a/libsdk_unit_test.a(snvs_rtc_test.o)
 .comment       0x00000000       0x31 /home/leon/git/swp-report/iMX6_Platform_SDK/output/mx6sdl/sdk_unit_test/smart_device_rev_a/libsdk_unit_test.a(snvs_srtc_test.o)
 .comment       0x00000000       0x31 /home/leon/git/swp-report/iMX6_Platform_SDK/output/mx6sdl/sdk_unit_test/smart_device_rev_a/libsdk_unit_test.a(i2c_test.o)
 .comment       0x00000000       0x31 /home/leon/git/swp-report/iMX6_Platform_SDK/output/mx6sdl/sdk_unit_test/smart_device_rev_a/libsdk_unit_test.a(imx6_i2c_device.o)
 .comment       0x00000000       0x31 /home/leon/git/swp-report/iMX6_Platform_SDK/output/mx6sdl/sdk_unit_test/smart_device_rev_a/libsdk_unit_test.a(tempmon_test.o)
 .comment       0x00000000       0x31 /home/leon/git/swp-report/iMX6_Platform_SDK/output/mx6sdl/sdk_unit_test/smart_device_rev_a/libsdk_unit_test.a(sdma_test.o)
 .comment       0x00000000       0x31 /home/leon/git/swp-report/iMX6_Platform_SDK/output/mx6sdl/sdk_unit_test/smart_device_rev_a/libsdk_unit_test.a(spi_lpb.o)
 .comment       0x00000000       0x31 /home/leon/git/swp-report/iMX6_Platform_SDK/output/mx6sdl/sdk_unit_test/smart_device_rev_a/libsdk_unit_test.a(uart_loopback.o)
 .comment       0x00000000       0x31 /home/leon/git/swp-report/iMX6_Platform_SDK/output/mx6sdl/sdk_unit_test/smart_device_rev_a/libsdk_unit_test.a(uart_test.o)
 .comment       0x00000000       0x31 /home/leon/git/swp-report/iMX6_Platform_SDK/output/mx6sdl/sdk_unit_test/smart_device_rev_a/libsdk_unit_test.a(epit_test.o)
 .comment       0x00000000       0x31 /home/leon/git/swp-report/iMX6_Platform_SDK/output/mx6sdl/sdk_unit_test/smart_device_rev_a/libsdk_unit_test.a(gpt_test.o)
 .comment       0x00000000       0x31 /home/leon/git/swp-report/iMX6_Platform_SDK/output/mx6sdl/sdk_unit_test/smart_device_rev_a/libsdk_unit_test.a(timer_test.o)
 .comment       0x00000000       0x31 /home/leon/git/swp-report/iMX6_Platform_SDK/output/mx6sdl/sdk_unit_test/smart_device_rev_a/libsdk_unit_test.a(usdhc_test.o)
 .comment       0x00000000       0x31 /home/leon/git/swp-report/iMX6_Platform_SDK/output/mx6sdl/sdk_unit_test/smart_device_rev_a/libsdk_unit_test.a(watchdog_test.o)
 .comment       0x00000000       0x31 /home/leon/git/swp-report/iMX6_Platform_SDK/output/mx6sdl/sdk_unit_test/smart_device_rev_a/libsdk_unit_test.a(pwm_test.o)
 .comment       0x00000000       0x31 /home/leon/git/swp-report/iMX6_Platform_SDK/output/mx6sdl/sdk_unit_test/smart_device_rev_a/libsdk_unit_test.a(hdmi_test.o)
 .comment       0x00000000       0x31 /home/leon/git/swp-report/iMX6_Platform_SDK/output/mx6sdl/sdk_unit_test/smart_device_rev_a/libsdk_unit_test.a(ips_display.o)
 .comment       0x00000000       0x31 /home/leon/git/swp-report/iMX6_Platform_SDK/output/mx6sdl/sdk_unit_test/smart_device_rev_a/libsdk_unit_test.a(ips_test.o)
 .comment       0x00000000       0x31 /home/leon/git/swp-report/iMX6_Platform_SDK/output/mx6sdl/sdk_unit_test/smart_device_rev_a/libsdk_unit_test.a(ipu_image.o)
 .comment       0x00000000       0x31 /home/leon/git/swp-report/iMX6_Platform_SDK/output/mx6sdl/sdk_unit_test/smart_device_rev_a/libsdk_unit_test.a(keypad_test.o)
 .comment       0x00000000       0x31 /home/leon/git/swp-report/iMX6_Platform_SDK/output/mx6sdl/sdk_unit_test/smart_device_rev_a/libsdk_unit_test.a(camera_test.o)
 .comment       0x00000000       0x31 /home/leon/git/swp-report/iMX6_Platform_SDK/output/mx6sdl/sdk_unit_test/smart_device_rev_a/libsdk_unit_test.a(csi_test_mode.o)
 .comment       0x00000000       0x31 /home/leon/git/swp-report/iMX6_Platform_SDK/output/mx6sdl/sdk_unit_test/smart_device_rev_a/libsdk_unit_test.a(sensor_capture.o)
 .comment       0x00000000       0x31 /home/leon/git/swp-report/iMX6_Platform_SDK/output/mx6sdl/sdk_unit_test/smart_device_rev_a/libsdk_unit_test.a(pcie_test_rc.o)
 .comment       0x00000000       0x31 /home/leon/git/swp-report/iMX6_Platform_SDK/output/mx6sdl/sdk_unit_test/smart_device_rev_a/libsdk_unit_test.a(usb_test.o)
 .comment       0x00000000       0x31 /home/leon/git/swp-report/iMX6_Platform_SDK/output/mx6sdl/sdk_unit_test/smart_device_rev_a/libsdk_unit_test.a(enet_test.o)
 .comment       0x00000000       0x31 /home/leon/git/swp-report/iMX6_Platform_SDK/output/mx6sdl/sdk_unit_test/smart_device_rev_a/libsdk_unit_test.a(spi_test.o)
 .comment       0x00000000       0x31 /home/leon/git/swp-report/iMX6_Platform_SDK/output/mx6sdl/sdk_unit_test/smart_device_rev_a/libsdk_unit_test.a(accelerometer_test.o)
 .comment       0x00000000       0x31 /home/leon/git/swp-report/iMX6_Platform_SDK/output/mx6sdl/sdk_unit_test/smart_device_rev_a/libsdk_unit_test.a(at24cxx.o)
 .comment       0x00000000       0x31 /home/leon/git/swp-report/iMX6_Platform_SDK/output/mx6sdl/sdk_unit_test/smart_device_rev_a/libsdk_unit_test.a(mem_2_mem.o)
 .comment       0x00000000       0x31 /home/leon/git/swp-report/iMX6_Platform_SDK/output/mx6sdl/sdk_unit_test/smart_device_rev_a/libsdk_unit_test.a(pwm_output.o)
 .comment       0x00000000       0x31 /home/leon/git/swp-report/iMX6_Platform_SDK/output/mx6sdl/sdk_unit_test/smart_device_rev_a/libsdk_unit_test.a(init_dma_data.o)
 .comment       0x00000000       0x31 /home/leon/git/swp-report/iMX6_Platform_SDK/output/mx6sdl/sdk_unit_test/smart_device_rev_a/libsdk_unit_test.a(ips_combiner.o)
 .comment       0x00000000       0x31 /home/leon/git/swp-report/iMX6_Platform_SDK/output/mx6sdl/sdk_unit_test/smart_device_rev_a/libsdk_unit_test.a(ips_csc.o)
 .comment       0x00000000       0x31 /home/leon/git/swp-report/iMX6_Platform_SDK/output/mx6sdl/sdk_unit_test/smart_device_rev_a/libsdk_unit_test.a(ips_resize.o)
 .comment       0x00000000       0x31 /home/leon/git/swp-report/iMX6_Platform_SDK/output/mx6sdl/sdk_unit_test/smart_device_rev_a/libsdk_unit_test.a(ips_rotate.o)
 .comment       0x00000000       0x31 /home/leon/git/swp-report/iMX6_Platform_SDK/output/mx6sdl/sdk_unit_test/smart_device_rev_a/libsdk_unit_test.a(usb0_device_mouse_test.o)
 .comment       0x00000000       0x31 /home/leon/git/swp-report/iMX6_Platform_SDK/output/mx6sdl/sdk_unit_test/smart_device_rev_a/libsdk_unit_test.a(usb0_host_test.o)
 .comment       0x00000000       0x31 /home/leon/git/swp-report/iMX6_Platform_SDK/output/mx6sdl/sdk_unit_test/smart_device_rev_a/libsdk_unit_test.a(usb0_host_testmodes_test.o)
 .comment       0x00000000       0x31 /home/leon/git/swp-report/iMX6_Platform_SDK/output/mx6sdl/sdk_unit_test/smart_device_rev_a/libsdk_unit_test.a(spi_nor_numonyx.o)
 .comment       0x00000000       0x31 /home/leon/git/swp-report/iMX6_Platform_SDK/output/mx6sdl/lib/libsdk.a(profile.o)
 .comment       0x00000000       0x31 /home/leon/git/swp-report/iMX6_Platform_SDK/output/mx6sdl/lib/libsdk.a(armv7_cache.o)
 .comment       0x00000000       0x31 /home/leon/git/swp-report/iMX6_Platform_SDK/output/mx6sdl/lib/libsdk.a(runtime_support.o)
 .comment       0x00000000       0x31 /home/leon/git/swp-report/iMX6_Platform_SDK/output/mx6sdl/lib/libsdk.a(mma8451.o)
 .comment       0x00000000       0x31 /home/leon/git/swp-report/iMX6_Platform_SDK/output/mx6sdl/lib/libsdk.a(smd_sensor.o)
 .comment       0x00000000       0x31 /home/leon/git/swp-report/iMX6_Platform_SDK/output/mx6sdl/lib/libsdk.a(cpu_get_cores.o)
 .comment       0x00000000       0x31 /home/leon/git/swp-report/iMX6_Platform_SDK/output/mx6sdl/lib/libsdk.a(cpu_multicore.o)
 .comment       0x00000000       0x31 /home/leon/git/swp-report/iMX6_Platform_SDK/output/mx6sdl/lib/libsdk.a(cpu_workpoint.o)
 .comment       0x00000000       0x31 /home/leon/git/swp-report/iMX6_Platform_SDK/output/mx6sdl/lib/libsdk.a(enet_drv.o)
 .comment       0x00000000       0x31 /home/leon/git/swp-report/iMX6_Platform_SDK/output/mx6sdl/lib/libsdk.a(gpio.o)
 .comment       0x00000000       0x31 /home/leon/git/swp-report/iMX6_Platform_SDK/output/mx6sdl/lib/libsdk.a(imx6sdl_gpio_map.o)
 .comment       0x00000000       0x31 /home/leon/git/swp-report/iMX6_Platform_SDK/output/mx6sdl/lib/libsdk.a(hdmi_tx.o)
 .comment       0x00000000       0x31 /home/leon/git/swp-report/iMX6_Platform_SDK/output/mx6sdl/lib/libsdk.a(hdmi_tx_audio.o)
 .comment       0x00000000       0x31 /home/leon/git/swp-report/iMX6_Platform_SDK/output/mx6sdl/lib/libsdk.a(hdmi_tx_phy.o)
 .comment       0x00000000       0x31 /home/leon/git/swp-report/iMX6_Platform_SDK/output/mx6sdl/lib/libsdk.a(imx_i2c.o)
 .comment       0x00000000       0x31 /home/leon/git/swp-report/iMX6_Platform_SDK/output/mx6sdl/lib/libsdk.a(imx_i2c_slave.o)
 .comment       0x00000000       0x31 /home/leon/git/swp-report/iMX6_Platform_SDK/output/mx6sdl/lib/libsdk.a(ips_disp_panel.o)
 .comment       0x00000000       0x31 /home/leon/git/swp-report/iMX6_Platform_SDK/output/mx6sdl/lib/libsdk.a(ipu_common.o)
 .comment       0x00000000       0x31 /home/leon/git/swp-report/iMX6_Platform_SDK/output/mx6sdl/lib/libsdk.a(ipu_csi.o)
 .comment       0x00000000       0x31 /home/leon/git/swp-report/iMX6_Platform_SDK/output/mx6sdl/lib/libsdk.a(ipu_dc.o)
 .comment       0x00000000       0x31 /home/leon/git/swp-report/iMX6_Platform_SDK/output/mx6sdl/lib/libsdk.a(ipu_di.o)
 .comment       0x00000000       0x31 /home/leon/git/swp-report/iMX6_Platform_SDK/output/mx6sdl/lib/libsdk.a(ipu_dmfc.o)
 .comment       0x00000000       0x31 /home/leon/git/swp-report/iMX6_Platform_SDK/output/mx6sdl/lib/libsdk.a(ipu_dp.o)
 .comment       0x00000000       0x31 /home/leon/git/swp-report/iMX6_Platform_SDK/output/mx6sdl/lib/libsdk.a(ipu_ic.o)
 .comment       0x00000000       0x31 /home/leon/git/swp-report/iMX6_Platform_SDK/output/mx6sdl/lib/libsdk.a(ipu_idmac.o)
 .comment       0x00000000       0x31 /home/leon/git/swp-report/iMX6_Platform_SDK/output/mx6sdl/lib/libsdk.a(ipu_vdi.o)
 .comment       0x00000000       0x31 /home/leon/git/swp-report/iMX6_Platform_SDK/output/mx6sdl/lib/libsdk.a(keypad_port.o)
 .comment       0x00000000       0x31 /home/leon/git/swp-report/iMX6_Platform_SDK/output/mx6sdl/lib/libsdk.a(ldb.o)
 .comment       0x00000000       0x31 /home/leon/git/swp-report/iMX6_Platform_SDK/output/mx6sdl/lib/libsdk.a(ocotp.o)
 .comment       0x00000000       0x31 /home/leon/git/swp-report/iMX6_Platform_SDK/output/mx6sdl/lib/libsdk.a(pcie.o)
 .comment       0x00000000       0x31 /home/leon/git/swp-report/iMX6_Platform_SDK/output/mx6sdl/lib/libsdk.a(pcie_phy.o)
 .comment       0x00000000       0x31 /home/leon/git/swp-report/iMX6_Platform_SDK/output/mx6sdl/lib/libsdk.a(pcie_prot.o)
 .comment       0x00000000       0x31 /home/leon/git/swp-report/iMX6_Platform_SDK/output/mx6sdl/lib/libsdk.a(pmu_driver.o)
 .comment       0x00000000       0x31 /home/leon/git/swp-report/iMX6_Platform_SDK/output/mx6sdl/lib/libsdk.a(pwm.o)
 .comment       0x00000000       0x31 /home/leon/git/swp-report/iMX6_Platform_SDK/output/mx6sdl/lib/libsdk.a(rtc.o)
 .comment       0x00000000       0x31 /home/leon/git/swp-report/iMX6_Platform_SDK/output/mx6sdl/lib/libsdk.a(srtc.o)
 .comment       0x00000000       0x31 /home/leon/git/swp-report/iMX6_Platform_SDK/output/mx6sdl/lib/libsdk.a(sdma.o)
 .comment       0x00000000       0x31 /home/leon/git/swp-report/iMX6_Platform_SDK/output/mx6sdl/lib/libsdk.a(sdma_script_info.o)
 .comment       0x00000000       0x31 /home/leon/git/swp-report/iMX6_Platform_SDK/output/mx6sdl/lib/libsdk.a(snvs.o)
 .comment       0x00000000       0x31 /home/leon/git/swp-report/iMX6_Platform_SDK/output/mx6sdl/lib/libsdk.a(ecspi.o)
 .comment       0x00000000       0x31 /home/leon/git/swp-report/iMX6_Platform_SDK/output/mx6sdl/lib/libsdk.a(tempmon.o)
 .comment       0x00000000       0x31 /home/leon/git/swp-report/iMX6_Platform_SDK/output/mx6sdl/lib/libsdk.a(gpt.o)
 .comment       0x00000000       0x31 /home/leon/git/swp-report/iMX6_Platform_SDK/output/mx6sdl/lib/libsdk.a(usb_common.o)
 .comment       0x00000000       0x31 /home/leon/git/swp-report/iMX6_Platform_SDK/output/mx6sdl/lib/libsdk.a(usbd_drv.o)
 .comment       0x00000000       0x31 /home/leon/git/swp-report/iMX6_Platform_SDK/output/mx6sdl/lib/libsdk.a(usbh_drv.o)
 .comment       0x00000000       0x31 /home/leon/git/swp-report/iMX6_Platform_SDK/output/mx6sdl/lib/libsdk.a(usdhc.o)
 .comment       0x00000000       0x31 /home/leon/git/swp-report/iMX6_Platform_SDK/output/mx6sdl/lib/libsdk.a(usdhc_host.o)
 .comment       0x00000000       0x31 /home/leon/git/swp-report/iMX6_Platform_SDK/output/mx6sdl/lib/libsdk.a(usdhc_mmc.o)
 .comment       0x00000000       0x31 /home/leon/git/swp-report/iMX6_Platform_SDK/output/mx6sdl/lib/libsdk.a(usdhc_sd.o)
 .comment       0x00000000       0x31 /home/leon/git/swp-report/iMX6_Platform_SDK/output/mx6sdl/lib/libsdk.a(spinlock.o)
 .comment       0x00000000       0x31 /home/leon/git/swp-report/iMX6_Platform_SDK/output/mx6sdl/lib/libsdk.a(camera_profile.o)
 .comment       0x00000000       0x31 /home/leon/git/swp-report/iMX6_Platform_SDK/output/mx6sdl/lib/libsdk.a(hdmi_common.o)
 .comment       0x00000000       0x31 /home/leon/git/swp-report/iMX6_Platform_SDK/output/mx6sdl/lib/libsdk.a(mx6x_usb.o)
 .comment       0x00000000       0x31 /home/leon/git/swp-report/iMX6_Platform_SDK/output/mx6sdl/lib/libboard_smart_device_rev_a.a(board_audio.o)
 .comment       0x00000000       0x31 /home/leon/git/swp-report/iMX6_Platform_SDK/output/mx6sdl/lib/libboard_smart_device_rev_a.a(board_camera.o)
 .comment       0x00000000       0x31 /home/leon/git/swp-report/iMX6_Platform_SDK/output/mx6sdl/lib/libboard_smart_device_rev_a.a(board_display.o)
 .comment       0x00000000       0x31 /home/leon/git/swp-report/iMX6_Platform_SDK/output/mx6sdl/lib/libboard_smart_device_rev_a.a(board_hdmi.o)
 .comment       0x00000000       0x31 /home/leon/git/swp-report/iMX6_Platform_SDK/output/mx6sdl/lib/libboard_smart_device_rev_a.a(board_i2c.o)
 .comment       0x00000000       0x31 /home/leon/git/swp-report/iMX6_Platform_SDK/output/mx6sdl/lib/libboard_smart_device_rev_a.a(board_mipi.o)
 .comment       0x00000000       0x31 /home/leon/git/swp-report/iMX6_Platform_SDK/output/mx6sdl/lib/libboard_smart_device_rev_a.a(board_network.o)
 .comment       0x00000000       0x31 /home/leon/git/swp-report/iMX6_Platform_SDK/output/mx6sdl/lib/libboard_smart_device_rev_a.a(board_pcie.o)
 .comment       0x00000000       0x31 /home/leon/git/swp-report/iMX6_Platform_SDK/output/mx6sdl/lib/libboard_smart_device_rev_a.a(board_usb.o)
 .comment       0x00000000       0x31 /home/leon/git/swp-report/iMX6_Platform_SDK/output/mx6sdl/lib/libboard_smart_device_rev_a.a(board_usdhc.o)
 .comment       0x00000000       0x31 /home/leon/git/swp-report/iMX6_Platform_SDK/output/mx6sdl/lib/libboard_smart_device_rev_a.a(ecspi_iomux_config.o)
 .comment       0x00000000       0x31 /home/leon/git/swp-report/iMX6_Platform_SDK/output/mx6sdl/lib/libboard_smart_device_rev_a.a(i2c_iomux_config.o)
 .comment       0x00000000       0x31 /home/leon/git/swp-report/iMX6_Platform_SDK/output/mx6sdl/lib/libboard_smart_device_rev_a.a(pwm_iomux_config.o)
 .comment       0x00000000       0x31 /home/leon/git/swp-report/iMX6_Platform_SDK/output/mx6sdl/lib/libboard_smart_device_rev_a.a(usdhc_iomux_config.o)

.debug_info     0x00000000    0x6b125
 .debug_info    0x00000000      0x228 /home/leon/git/swp-report/iMX6_Platform_SDK/output/mx6sdl/sdk_unit_test/smart_device_rev_a/obj/apps/common/ivt.o
 .debug_info    0x00000228      0x198 /home/leon/git/swp-report/iMX6_Platform_SDK/output/mx6sdl/sdk_unit_test/smart_device_rev_a/obj/apps/common/platform_init.o
 .debug_info    0x000003c0      0x17b /home/leon/git/swp-report/iMX6_Platform_SDK/output/mx6sdl/sdk_unit_test/smart_device_rev_a/obj/apps/common/print_clock_info.o
 .debug_info    0x0000053b      0x1bd /home/leon/git/swp-report/iMX6_Platform_SDK/output/mx6sdl/sdk_unit_test/smart_device_rev_a/obj/apps/common/print_version.o
 .debug_info    0x000006f8      0x276 /home/leon/git/swp-report/iMX6_Platform_SDK/output/mx6sdl/sdk_unit_test/smart_device_rev_a/obj/apps/sdk_unit_test/src/all_test.o
 .debug_info    0x0000096e       0x9b /home/leon/git/swp-report/iMX6_Platform_SDK/output/mx6sdl/sdk_unit_test/smart_device_rev_a/obj/apps/sdk_unit_test/src/unit_test_main.o
 .debug_info    0x00000a09     0x1d26 /home/leon/git/swp-report/iMX6_Platform_SDK/output/mx6sdl/lib/libsdk.a(ccm_pll.o)
 .debug_info    0x0000272f      0x7f4 /home/leon/git/swp-report/iMX6_Platform_SDK/output/mx6sdl/lib/libsdk.a(gic.o)
 .debug_info    0x00002f23      0x3e7 /home/leon/git/swp-report/iMX6_Platform_SDK/output/mx6sdl/lib/libsdk.a(mmu.o)
 .debug_info    0x0000330a      0xe7d /home/leon/git/swp-report/iMX6_Platform_SDK/output/mx6sdl/lib/libsdk.a(menu.o)
 .debug_info    0x00004187       0x76 /home/leon/git/swp-report/iMX6_Platform_SDK/output/mx6sdl/lib/libsdk.a(sdk_version.o)
 .debug_info    0x000041fd     0x1536 /home/leon/git/swp-report/iMX6_Platform_SDK/output/mx6sdl/lib/libsdk.a(system_util.o)
 .debug_info    0x00005733      0x298 /home/leon/git/swp-report/iMX6_Platform_SDK/output/mx6sdl/lib/libsdk.a(text_color.o)
 .debug_info    0x000059cb      0x4fe /home/leon/git/swp-report/iMX6_Platform_SDK/output/mx6sdl/lib/libsdk.a(board_id.o)
 .debug_info    0x00005ec9      0x319 /home/leon/git/swp-report/iMX6_Platform_SDK/output/mx6sdl/lib/libsdk.a(timer.o)
 .debug_info    0x000061e2     0x11b6 /home/leon/git/swp-report/iMX6_Platform_SDK/output/mx6sdl/lib/libsdk.a(imx_uart.o)
 .debug_info    0x00007398      0x63b /home/leon/git/swp-report/iMX6_Platform_SDK/output/mx6sdl/lib/libsdk.a(interrupt.o)
 .debug_info    0x000079d3      0x9b7 /home/leon/git/swp-report/iMX6_Platform_SDK/output/mx6sdl/lib/libsdk.a(epit.o)
 .debug_info    0x0000838a      0x234 /home/leon/git/swp-report/iMX6_Platform_SDK/output/mx6sdl/lib/libsdk.a(abort_handler.o)
 .debug_info    0x000085be      0x1f9 /home/leon/git/swp-report/iMX6_Platform_SDK/output/mx6sdl/lib/libboard_smart_device_rev_a.a(board_io_expanders.o)
 .debug_info    0x000087b7       0xa1 /home/leon/git/swp-report/iMX6_Platform_SDK/output/mx6sdl/lib/libboard_smart_device_rev_a.a(hardware_modules.o)
 .debug_info    0x00008858       0xe9 /home/leon/git/swp-report/iMX6_Platform_SDK/output/mx6sdl/lib/libboard_smart_device_rev_a.a(dcd.o)
 .debug_info    0x00008941       0xcf /home/leon/git/swp-report/iMX6_Platform_SDK/output/mx6sdl/lib/libboard_smart_device_rev_a.a(uart_iomux_config.o)
 .debug_info    0x00008a10      0x3a8 /home/leon/git/swp-report/iMX6_Platform_SDK/output/mx6sdl/lib/libboard_smart_device_rev_a.a(iomux_config.o)
 .debug_info    0x00008db8     0x3cf5 /home/leon/git/swp-report/iMX6_Platform_SDK/output/mx6sdl/lib/libboard_smart_device_rev_a.a(ipu1_iomux_config.o)
 .debug_info    0x0000caad     0x1023 /home/leon/git/swp-report/iMX6_Platform_SDK/output/mx6sdl/lib/libboard_smart_device_rev_a.a(kpp_iomux_config.o)
 .debug_info    0x0000dad0     0x3b2b /home/leon/git/swp-report/iMX6_Platform_SDK/output/mx6sdl/lib/libboard_smart_device_rev_a.a(mmdc_iomux_config.o)
 .debug_info    0x000115fb      0x205 /home/leon/git/swp-report/iMX6_Platform_SDK/output/mx6sdl/lib/libboard_smart_device_rev_a.a(pwm1_iomux_config.o)
 .debug_info    0x00011800      0x72b /home/leon/git/swp-report/iMX6_Platform_SDK/output/mx6sdl/lib/libboard_smart_device_rev_a.a(sjc_iomux_config.o)
 .debug_info    0x00011f2b      0x3d9 /home/leon/git/swp-report/iMX6_Platform_SDK/output/mx6sdl/lib/libboard_smart_device_rev_a.a(uart1_iomux_config.o)
 .debug_info    0x00012304     0x1149 /home/leon/git/swp-report/iMX6_Platform_SDK/output/mx6sdl/lib/libboard_smart_device_rev_a.a(usdhc2_iomux_config.o)
 .debug_info    0x0001344d     0x1149 /home/leon/git/swp-report/iMX6_Platform_SDK/output/mx6sdl/lib/libboard_smart_device_rev_a.a(usdhc3_iomux_config.o)
 .debug_info    0x00014596     0x1149 /home/leon/git/swp-report/iMX6_Platform_SDK/output/mx6sdl/lib/libboard_smart_device_rev_a.a(usdhc4_iomux_config.o)
 .debug_info    0x000156df      0x677 /home/leon/git/swp-report/iMX6_Platform_SDK/output/mx6sdl/lib/libboard_smart_device_rev_a.a(audmux_iomux_config.o)
 .debug_info    0x00015d56      0x205 /home/leon/git/swp-report/iMX6_Platform_SDK/output/mx6sdl/lib/libboard_smart_device_rev_a.a(ccm_iomux_config.o)
 .debug_info    0x00015f5b      0x8af /home/leon/git/swp-report/iMX6_Platform_SDK/output/mx6sdl/lib/libboard_smart_device_rev_a.a(ecspi1_iomux_config.o)
 .debug_info    0x0001680a     0x1e0f /home/leon/git/swp-report/iMX6_Platform_SDK/output/mx6sdl/lib/libboard_smart_device_rev_a.a(enet_iomux_config.o)
 .debug_info    0x00018619     0x48f3 /home/leon/git/swp-report/iMX6_Platform_SDK/output/mx6sdl/lib/libboard_smart_device_rev_a.a(epdc_iomux_config.o)
 .debug_info    0x0001cf0c      0x3f5 /home/leon/git/swp-report/iMX6_Platform_SDK/output/mx6sdl/lib/libboard_smart_device_rev_a.a(flexcan1_iomux_config.o)
 .debug_info    0x0001d301     0x1c41 /home/leon/git/swp-report/iMX6_Platform_SDK/output/mx6sdl/lib/libboard_smart_device_rev_a.a(gpio1_iomux_config.o)
 .debug_info    0x0001ef42      0xfef /home/leon/git/swp-report/iMX6_Platform_SDK/output/mx6sdl/lib/libboard_smart_device_rev_a.a(gpio2_iomux_config.o)
 .debug_info    0x0001ff31     0x19b7 /home/leon/git/swp-report/iMX6_Platform_SDK/output/mx6sdl/lib/libboard_smart_device_rev_a.a(gpio3_iomux_config.o)
 .debug_info    0x000218e8      0x6f7 /home/leon/git/swp-report/iMX6_Platform_SDK/output/mx6sdl/lib/libboard_smart_device_rev_a.a(gpio4_iomux_config.o)
 .debug_info    0x00021fdf      0x379 /home/leon/git/swp-report/iMX6_Platform_SDK/output/mx6sdl/lib/libboard_smart_device_rev_a.a(gpio5_iomux_config.o)
 .debug_info    0x00022358      0xe73 /home/leon/git/swp-report/iMX6_Platform_SDK/output/mx6sdl/lib/libboard_smart_device_rev_a.a(gpio6_iomux_config.o)
 .debug_info    0x000231cb      0x551 /home/leon/git/swp-report/iMX6_Platform_SDK/output/mx6sdl/lib/libboard_smart_device_rev_a.a(gpio7_iomux_config.o)
 .debug_info    0x0002371c      0x831 /home/leon/git/swp-report/iMX6_Platform_SDK/output/mx6sdl/lib/libboard_smart_device_rev_a.a(gps_iomux_config.o)
 .debug_info    0x00023f4d      0x447 /home/leon/git/swp-report/iMX6_Platform_SDK/output/mx6sdl/lib/libboard_smart_device_rev_a.a(i2c1_iomux_config.o)
 .debug_info    0x00024394      0x487 /home/leon/git/swp-report/iMX6_Platform_SDK/output/mx6sdl/lib/libboard_smart_device_rev_a.a(i2c2_iomux_config.o)
 .debug_info    0x0002481b      0x487 /home/leon/git/swp-report/iMX6_Platform_SDK/output/mx6sdl/lib/libboard_smart_device_rev_a.a(i2c3_iomux_config.o)
 .debug_info    0x00024ca2      0x23d /home/leon/git/swp-report/iMX6_Platform_SDK/output/mx6sdl/sdk_unit_test/smart_device_rev_a/libsdk_unit_test.a(cpu_wp_test.o)
 .debug_info    0x00024edf      0x585 /home/leon/git/swp-report/iMX6_Platform_SDK/output/mx6sdl/sdk_unit_test/smart_device_rev_a/libsdk_unit_test.a(multicore_test.o)
 .debug_info    0x00025464      0xbea /home/leon/git/swp-report/iMX6_Platform_SDK/output/mx6sdl/sdk_unit_test/smart_device_rev_a/libsdk_unit_test.a(audio_test.o)
 .debug_info    0x0002604e      0x533 /home/leon/git/swp-report/iMX6_Platform_SDK/output/mx6sdl/sdk_unit_test/smart_device_rev_a/libsdk_unit_test.a(gic_test.o)
 .debug_info    0x00026581      0x9be /home/leon/git/swp-report/iMX6_Platform_SDK/output/mx6sdl/sdk_unit_test/smart_device_rev_a/libsdk_unit_test.a(ocotp_test.o)
 .debug_info    0x00026f3f      0xa4f /home/leon/git/swp-report/iMX6_Platform_SDK/output/mx6sdl/sdk_unit_test/smart_device_rev_a/libsdk_unit_test.a(snvs_rtc_test.o)
 .debug_info    0x0002798e      0x9ec /home/leon/git/swp-report/iMX6_Platform_SDK/output/mx6sdl/sdk_unit_test/smart_device_rev_a/libsdk_unit_test.a(snvs_srtc_test.o)
 .debug_info    0x0002837a      0x989 /home/leon/git/swp-report/iMX6_Platform_SDK/output/mx6sdl/sdk_unit_test/smart_device_rev_a/libsdk_unit_test.a(i2c_test.o)
 .debug_info    0x00028d03      0xc3a /home/leon/git/swp-report/iMX6_Platform_SDK/output/mx6sdl/sdk_unit_test/smart_device_rev_a/libsdk_unit_test.a(imx6_i2c_device.o)
 .debug_info    0x0002993d      0xa04 /home/leon/git/swp-report/iMX6_Platform_SDK/output/mx6sdl/sdk_unit_test/smart_device_rev_a/libsdk_unit_test.a(tempmon_test.o)
 .debug_info    0x0002a341      0x9f7 /home/leon/git/swp-report/iMX6_Platform_SDK/output/mx6sdl/sdk_unit_test/smart_device_rev_a/libsdk_unit_test.a(sdma_test.o)
 .debug_info    0x0002ad38      0x4b3 /home/leon/git/swp-report/iMX6_Platform_SDK/output/mx6sdl/sdk_unit_test/smart_device_rev_a/libsdk_unit_test.a(spi_lpb.o)
 .debug_info    0x0002b1eb      0x577 /home/leon/git/swp-report/iMX6_Platform_SDK/output/mx6sdl/sdk_unit_test/smart_device_rev_a/libsdk_unit_test.a(uart_loopback.o)
 .debug_info    0x0002b762      0xad8 /home/leon/git/swp-report/iMX6_Platform_SDK/output/mx6sdl/sdk_unit_test/smart_device_rev_a/libsdk_unit_test.a(uart_test.o)
 .debug_info    0x0002c23a      0xac5 /home/leon/git/swp-report/iMX6_Platform_SDK/output/mx6sdl/sdk_unit_test/smart_device_rev_a/libsdk_unit_test.a(epit_test.o)
 .debug_info    0x0002ccff      0xd60 /home/leon/git/swp-report/iMX6_Platform_SDK/output/mx6sdl/sdk_unit_test/smart_device_rev_a/libsdk_unit_test.a(gpt_test.o)
 .debug_info    0x0002da5f       0xca /home/leon/git/swp-report/iMX6_Platform_SDK/output/mx6sdl/sdk_unit_test/smart_device_rev_a/libsdk_unit_test.a(timer_test.o)
 .debug_info    0x0002db29      0xd3f /home/leon/git/swp-report/iMX6_Platform_SDK/output/mx6sdl/sdk_unit_test/smart_device_rev_a/libsdk_unit_test.a(usdhc_test.o)
 .debug_info    0x0002e868      0xa3d /home/leon/git/swp-report/iMX6_Platform_SDK/output/mx6sdl/sdk_unit_test/smart_device_rev_a/libsdk_unit_test.a(watchdog_test.o)
 .debug_info    0x0002f2a5      0xa45 /home/leon/git/swp-report/iMX6_Platform_SDK/output/mx6sdl/sdk_unit_test/smart_device_rev_a/libsdk_unit_test.a(pwm_test.o)
 .debug_info    0x0002fcea     0x10f1 /home/leon/git/swp-report/iMX6_Platform_SDK/output/mx6sdl/sdk_unit_test/smart_device_rev_a/libsdk_unit_test.a(hdmi_test.o)
 .debug_info    0x00030ddb     0x1059 /home/leon/git/swp-report/iMX6_Platform_SDK/output/mx6sdl/sdk_unit_test/smart_device_rev_a/libsdk_unit_test.a(ips_display.o)
 .debug_info    0x00031e34      0xbfb /home/leon/git/swp-report/iMX6_Platform_SDK/output/mx6sdl/sdk_unit_test/smart_device_rev_a/libsdk_unit_test.a(ips_test.o)
 .debug_info    0x00032a2f      0x50d /home/leon/git/swp-report/iMX6_Platform_SDK/output/mx6sdl/sdk_unit_test/smart_device_rev_a/libsdk_unit_test.a(ipu_image.o)
 .debug_info    0x00032f3c      0xa2b /home/leon/git/swp-report/iMX6_Platform_SDK/output/mx6sdl/sdk_unit_test/smart_device_rev_a/libsdk_unit_test.a(keypad_test.o)
 .debug_info    0x00033967      0xa84 /home/leon/git/swp-report/iMX6_Platform_SDK/output/mx6sdl/sdk_unit_test/smart_device_rev_a/libsdk_unit_test.a(camera_test.o)
 .debug_info    0x000343eb      0xc1b /home/leon/git/swp-report/iMX6_Platform_SDK/output/mx6sdl/sdk_unit_test/smart_device_rev_a/libsdk_unit_test.a(csi_test_mode.o)
 .debug_info    0x00035006      0xdc2 /home/leon/git/swp-report/iMX6_Platform_SDK/output/mx6sdl/sdk_unit_test/smart_device_rev_a/libsdk_unit_test.a(sensor_capture.o)
 .debug_info    0x00035dc8      0xc02 /home/leon/git/swp-report/iMX6_Platform_SDK/output/mx6sdl/sdk_unit_test/smart_device_rev_a/libsdk_unit_test.a(pcie_test_rc.o)
 .debug_info    0x000369ca      0x1bc /home/leon/git/swp-report/iMX6_Platform_SDK/output/mx6sdl/sdk_unit_test/smart_device_rev_a/libsdk_unit_test.a(usb_test.o)
 .debug_info    0x00036b86     0x1d60 /home/leon/git/swp-report/iMX6_Platform_SDK/output/mx6sdl/sdk_unit_test/smart_device_rev_a/libsdk_unit_test.a(enet_test.o)
 .debug_info    0x000388e6      0xbcf /home/leon/git/swp-report/iMX6_Platform_SDK/output/mx6sdl/sdk_unit_test/smart_device_rev_a/libsdk_unit_test.a(spi_test.o)
 .debug_info    0x000394b5      0xaec /home/leon/git/swp-report/iMX6_Platform_SDK/output/mx6sdl/sdk_unit_test/smart_device_rev_a/libsdk_unit_test.a(accelerometer_test.o)
 .debug_info    0x00039fa1      0x2ee /home/leon/git/swp-report/iMX6_Platform_SDK/output/mx6sdl/sdk_unit_test/smart_device_rev_a/libsdk_unit_test.a(at24cxx.o)
 .debug_info    0x0003a28f      0x3ee /home/leon/git/swp-report/iMX6_Platform_SDK/output/mx6sdl/sdk_unit_test/smart_device_rev_a/libsdk_unit_test.a(mem_2_mem.o)
 .debug_info    0x0003a67d      0x243 /home/leon/git/swp-report/iMX6_Platform_SDK/output/mx6sdl/sdk_unit_test/smart_device_rev_a/libsdk_unit_test.a(pwm_output.o)
 .debug_info    0x0003a8c0      0x37c /home/leon/git/swp-report/iMX6_Platform_SDK/output/mx6sdl/sdk_unit_test/smart_device_rev_a/libsdk_unit_test.a(init_dma_data.o)
 .debug_info    0x0003ac3c      0xc2b /home/leon/git/swp-report/iMX6_Platform_SDK/output/mx6sdl/sdk_unit_test/smart_device_rev_a/libsdk_unit_test.a(ips_combiner.o)
 .debug_info    0x0003b867      0xe67 /home/leon/git/swp-report/iMX6_Platform_SDK/output/mx6sdl/sdk_unit_test/smart_device_rev_a/libsdk_unit_test.a(ips_csc.o)
 .debug_info    0x0003c6ce      0xf5b /home/leon/git/swp-report/iMX6_Platform_SDK/output/mx6sdl/sdk_unit_test/smart_device_rev_a/libsdk_unit_test.a(ips_resize.o)
 .debug_info    0x0003d629      0xe27 /home/leon/git/swp-report/iMX6_Platform_SDK/output/mx6sdl/sdk_unit_test/smart_device_rev_a/libsdk_unit_test.a(ips_rotate.o)
 .debug_info    0x0003e450     0x2a82 /home/leon/git/swp-report/iMX6_Platform_SDK/output/mx6sdl/sdk_unit_test/smart_device_rev_a/libsdk_unit_test.a(usb0_device_mouse_test.o)
 .debug_info    0x00040ed2     0x19b5 /home/leon/git/swp-report/iMX6_Platform_SDK/output/mx6sdl/sdk_unit_test/smart_device_rev_a/libsdk_unit_test.a(usb0_host_test.o)
 .debug_info    0x00042887      0x987 /home/leon/git/swp-report/iMX6_Platform_SDK/output/mx6sdl/sdk_unit_test/smart_device_rev_a/libsdk_unit_test.a(usb0_host_testmodes_test.o)
 .debug_info    0x0004320e      0x359 /home/leon/git/swp-report/iMX6_Platform_SDK/output/mx6sdl/sdk_unit_test/smart_device_rev_a/libsdk_unit_test.a(spi_nor_numonyx.o)
 .debug_info    0x00043567       0x6c /home/leon/git/swp-report/iMX6_Platform_SDK/output/mx6sdl/lib/libsdk.a(profile.o)
 .debug_info    0x000435d3      0x4cd /home/leon/git/swp-report/iMX6_Platform_SDK/output/mx6sdl/lib/libsdk.a(armv7_cache.o)
 .debug_info    0x00043aa0      0x804 /home/leon/git/swp-report/iMX6_Platform_SDK/output/mx6sdl/lib/libsdk.a(runtime_support.o)
 .debug_info    0x000442a4      0x470 /home/leon/git/swp-report/iMX6_Platform_SDK/output/mx6sdl/lib/libsdk.a(mma8451.o)
 .debug_info    0x00044714      0x857 /home/leon/git/swp-report/iMX6_Platform_SDK/output/mx6sdl/lib/libsdk.a(smd_sensor.o)
 .debug_info    0x00044f6b      0x141 /home/leon/git/swp-report/iMX6_Platform_SDK/output/mx6sdl/lib/libsdk.a(cpu_get_cores.o)
 .debug_info    0x000450ac      0x421 /home/leon/git/swp-report/iMX6_Platform_SDK/output/mx6sdl/lib/libsdk.a(cpu_multicore.o)
 .debug_info    0x000454cd      0x42c /home/leon/git/swp-report/iMX6_Platform_SDK/output/mx6sdl/lib/libsdk.a(cpu_workpoint.o)
 .debug_info    0x000458f9     0x21ec /home/leon/git/swp-report/iMX6_Platform_SDK/output/mx6sdl/lib/libsdk.a(enet_drv.o)
 .debug_info    0x00047ae5      0x871 /home/leon/git/swp-report/iMX6_Platform_SDK/output/mx6sdl/lib/libsdk.a(gpio.o)
 .debug_info    0x00048356       0x9f /home/leon/git/swp-report/iMX6_Platform_SDK/output/mx6sdl/lib/libsdk.a(imx6sdl_gpio_map.o)
 .debug_info    0x000483f5     0x1f20 /home/leon/git/swp-report/iMX6_Platform_SDK/output/mx6sdl/lib/libsdk.a(hdmi_tx.o)
 .debug_info    0x0004a315      0xf27 /home/leon/git/swp-report/iMX6_Platform_SDK/output/mx6sdl/lib/libsdk.a(hdmi_tx_audio.o)
 .debug_info    0x0004b23c      0xcb3 /home/leon/git/swp-report/iMX6_Platform_SDK/output/mx6sdl/lib/libsdk.a(hdmi_tx_phy.o)
 .debug_info    0x0004beef      0xe21 /home/leon/git/swp-report/iMX6_Platform_SDK/output/mx6sdl/lib/libsdk.a(imx_i2c.o)
 .debug_info    0x0004cd10      0x5ab /home/leon/git/swp-report/iMX6_Platform_SDK/output/mx6sdl/lib/libsdk.a(imx_i2c_slave.o)
 .debug_info    0x0004d2bb      0x698 /home/leon/git/swp-report/iMX6_Platform_SDK/output/mx6sdl/lib/libsdk.a(ips_disp_panel.o)
 .debug_info    0x0004d953      0xba2 /home/leon/git/swp-report/iMX6_Platform_SDK/output/mx6sdl/lib/libsdk.a(ipu_common.o)
 .debug_info    0x0004e4f5      0x33a /home/leon/git/swp-report/iMX6_Platform_SDK/output/mx6sdl/lib/libsdk.a(ipu_csi.o)
 .debug_info    0x0004e82f      0x51a /home/leon/git/swp-report/iMX6_Platform_SDK/output/mx6sdl/lib/libsdk.a(ipu_dc.o)
 .debug_info    0x0004ed49      0x74d /home/leon/git/swp-report/iMX6_Platform_SDK/output/mx6sdl/lib/libsdk.a(ipu_di.o)
 .debug_info    0x0004f496      0x1c6 /home/leon/git/swp-report/iMX6_Platform_SDK/output/mx6sdl/lib/libsdk.a(ipu_dmfc.o)
 .debug_info    0x0004f65c      0x22b /home/leon/git/swp-report/iMX6_Platform_SDK/output/mx6sdl/lib/libsdk.a(ipu_dp.o)
 .debug_info    0x0004f887      0x7df /home/leon/git/swp-report/iMX6_Platform_SDK/output/mx6sdl/lib/libsdk.a(ipu_ic.o)
 .debug_info    0x00050066     0x15fd /home/leon/git/swp-report/iMX6_Platform_SDK/output/mx6sdl/lib/libsdk.a(ipu_idmac.o)
 .debug_info    0x00051663      0x7bd /home/leon/git/swp-report/iMX6_Platform_SDK/output/mx6sdl/lib/libsdk.a(ipu_vdi.o)
 .debug_info    0x00051e20      0x92c /home/leon/git/swp-report/iMX6_Platform_SDK/output/mx6sdl/lib/libsdk.a(keypad_port.o)
 .debug_info    0x0005274c      0x44a /home/leon/git/swp-report/iMX6_Platform_SDK/output/mx6sdl/lib/libsdk.a(ldb.o)
 .debug_info    0x00052b96      0x4c9 /home/leon/git/swp-report/iMX6_Platform_SDK/output/mx6sdl/lib/libsdk.a(ocotp.o)
 .debug_info    0x0005305f      0xaf9 /home/leon/git/swp-report/iMX6_Platform_SDK/output/mx6sdl/lib/libsdk.a(pcie.o)
 .debug_info    0x00053b58      0x262 /home/leon/git/swp-report/iMX6_Platform_SDK/output/mx6sdl/lib/libsdk.a(pcie_phy.o)
 .debug_info    0x00053dba      0x6d0 /home/leon/git/swp-report/iMX6_Platform_SDK/output/mx6sdl/lib/libsdk.a(pcie_prot.o)
 .debug_info    0x0005448a     0x3676 /home/leon/git/swp-report/iMX6_Platform_SDK/output/mx6sdl/lib/libsdk.a(pmu_driver.o)
 .debug_info    0x00057b00      0xb20 /home/leon/git/swp-report/iMX6_Platform_SDK/output/mx6sdl/lib/libsdk.a(pwm.o)
 .debug_info    0x00058620      0x7d6 /home/leon/git/swp-report/iMX6_Platform_SDK/output/mx6sdl/lib/libsdk.a(rtc.o)
 .debug_info    0x00058df6      0x778 /home/leon/git/swp-report/iMX6_Platform_SDK/output/mx6sdl/lib/libsdk.a(srtc.o)
 .debug_info    0x0005956e     0x126a /home/leon/git/swp-report/iMX6_Platform_SDK/output/mx6sdl/lib/libsdk.a(sdma.o)
 .debug_info    0x0005a7d8      0x1de /home/leon/git/swp-report/iMX6_Platform_SDK/output/mx6sdl/lib/libsdk.a(sdma_script_info.o)
 .debug_info    0x0005a9b6      0x6c6 /home/leon/git/swp-report/iMX6_Platform_SDK/output/mx6sdl/lib/libsdk.a(snvs.o)
 .debug_info    0x0005b07c      0x70d /home/leon/git/swp-report/iMX6_Platform_SDK/output/mx6sdl/lib/libsdk.a(ecspi.o)
 .debug_info    0x0005b789      0x86a /home/leon/git/swp-report/iMX6_Platform_SDK/output/mx6sdl/lib/libsdk.a(tempmon.o)
 .debug_info    0x0005bff3      0xca8 /home/leon/git/swp-report/iMX6_Platform_SDK/output/mx6sdl/lib/libsdk.a(gpt.o)
 .debug_info    0x0005cc9b     0x130c /home/leon/git/swp-report/iMX6_Platform_SDK/output/mx6sdl/lib/libsdk.a(usb_common.o)
 .debug_info    0x0005dfa7     0x23a1 /home/leon/git/swp-report/iMX6_Platform_SDK/output/mx6sdl/lib/libsdk.a(usbd_drv.o)
 .debug_info    0x00060348     0x1d3c /home/leon/git/swp-report/iMX6_Platform_SDK/output/mx6sdl/lib/libsdk.a(usbh_drv.o)
 .debug_info    0x00062084      0xf19 /home/leon/git/swp-report/iMX6_Platform_SDK/output/mx6sdl/lib/libsdk.a(usdhc.o)
 .debug_info    0x00062f9d     0x1b51 /home/leon/git/swp-report/iMX6_Platform_SDK/output/mx6sdl/lib/libsdk.a(usdhc_host.o)
 .debug_info    0x00064aee      0x9c7 /home/leon/git/swp-report/iMX6_Platform_SDK/output/mx6sdl/lib/libsdk.a(usdhc_mmc.o)
 .debug_info    0x000654b5      0x680 /home/leon/git/swp-report/iMX6_Platform_SDK/output/mx6sdl/lib/libsdk.a(usdhc_sd.o)
 .debug_info    0x00065b35      0x138 /home/leon/git/swp-report/iMX6_Platform_SDK/output/mx6sdl/lib/libsdk.a(spinlock.o)
 .debug_info    0x00065c6d      0x476 /home/leon/git/swp-report/iMX6_Platform_SDK/output/mx6sdl/lib/libsdk.a(camera_profile.o)
 .debug_info    0x000660e3      0x34b /home/leon/git/swp-report/iMX6_Platform_SDK/output/mx6sdl/lib/libsdk.a(hdmi_common.o)
 .debug_info    0x0006642e      0x5e4 /home/leon/git/swp-report/iMX6_Platform_SDK/output/mx6sdl/lib/libsdk.a(mx6x_usb.o)
 .debug_info    0x00066a12      0x41f /home/leon/git/swp-report/iMX6_Platform_SDK/output/mx6sdl/lib/libboard_smart_device_rev_a.a(board_audio.o)
 .debug_info    0x00066e31     0x17ff /home/leon/git/swp-report/iMX6_Platform_SDK/output/mx6sdl/lib/libboard_smart_device_rev_a.a(board_camera.o)
 .debug_info    0x00068630      0x754 /home/leon/git/swp-report/iMX6_Platform_SDK/output/mx6sdl/lib/libboard_smart_device_rev_a.a(board_display.o)
 .debug_info    0x00068d84      0xb48 /home/leon/git/swp-report/iMX6_Platform_SDK/output/mx6sdl/lib/libboard_smart_device_rev_a.a(board_hdmi.o)
 .debug_info    0x000698cc      0x1d2 /home/leon/git/swp-report/iMX6_Platform_SDK/output/mx6sdl/lib/libboard_smart_device_rev_a.a(board_i2c.o)
 .debug_info    0x00069a9e      0x9ef /home/leon/git/swp-report/iMX6_Platform_SDK/output/mx6sdl/lib/libboard_smart_device_rev_a.a(board_mipi.o)
 .debug_info    0x0006a48d      0x127 /home/leon/git/swp-report/iMX6_Platform_SDK/output/mx6sdl/lib/libboard_smart_device_rev_a.a(board_network.o)
 .debug_info    0x0006a5b4      0x509 /home/leon/git/swp-report/iMX6_Platform_SDK/output/mx6sdl/lib/libboard_smart_device_rev_a.a(board_pcie.o)
 .debug_info    0x0006aabd      0x1cc /home/leon/git/swp-report/iMX6_Platform_SDK/output/mx6sdl/lib/libboard_smart_device_rev_a.a(board_usb.o)
 .debug_info    0x0006ac89      0x160 /home/leon/git/swp-report/iMX6_Platform_SDK/output/mx6sdl/lib/libboard_smart_device_rev_a.a(board_usdhc.o)
 .debug_info    0x0006ade9       0xcf /home/leon/git/swp-report/iMX6_Platform_SDK/output/mx6sdl/lib/libboard_smart_device_rev_a.a(ecspi_iomux_config.o)
 .debug_info    0x0006aeb8       0xcf /home/leon/git/swp-report/iMX6_Platform_SDK/output/mx6sdl/lib/libboard_smart_device_rev_a.a(i2c_iomux_config.o)
 .debug_info    0x0006af87       0xcf /home/leon/git/swp-report/iMX6_Platform_SDK/output/mx6sdl/lib/libboard_smart_device_rev_a.a(pwm_iomux_config.o)
 .debug_info    0x0006b056       0xcf /home/leon/git/swp-report/iMX6_Platform_SDK/output/mx6sdl/lib/libboard_smart_device_rev_a.a(usdhc_iomux_config.o)

.debug_abbrev   0x00000000     0xd804
 .debug_abbrev  0x00000000       0xe6 /home/leon/git/swp-report/iMX6_Platform_SDK/output/mx6sdl/sdk_unit_test/smart_device_rev_a/obj/apps/common/ivt.o
 .debug_abbrev  0x000000e6       0x89 /home/leon/git/swp-report/iMX6_Platform_SDK/output/mx6sdl/sdk_unit_test/smart_device_rev_a/obj/apps/common/platform_init.o
 .debug_abbrev  0x0000016f       0xa1 /home/leon/git/swp-report/iMX6_Platform_SDK/output/mx6sdl/sdk_unit_test/smart_device_rev_a/obj/apps/common/print_clock_info.o
 .debug_abbrev  0x00000210       0xcf /home/leon/git/swp-report/iMX6_Platform_SDK/output/mx6sdl/sdk_unit_test/smart_device_rev_a/obj/apps/common/print_version.o
 .debug_abbrev  0x000002df      0x121 /home/leon/git/swp-report/iMX6_Platform_SDK/output/mx6sdl/sdk_unit_test/smart_device_rev_a/obj/apps/sdk_unit_test/src/all_test.o
 .debug_abbrev  0x00000400       0x44 /home/leon/git/swp-report/iMX6_Platform_SDK/output/mx6sdl/sdk_unit_test/smart_device_rev_a/obj/apps/sdk_unit_test/src/unit_test_main.o
 .debug_abbrev  0x00000444      0x1b1 /home/leon/git/swp-report/iMX6_Platform_SDK/output/mx6sdl/lib/libsdk.a(ccm_pll.o)
 .debug_abbrev  0x000005f5      0x179 /home/leon/git/swp-report/iMX6_Platform_SDK/output/mx6sdl/lib/libsdk.a(gic.o)
 .debug_abbrev  0x0000076e      0x172 /home/leon/git/swp-report/iMX6_Platform_SDK/output/mx6sdl/lib/libsdk.a(mmu.o)
 .debug_abbrev  0x000008e0      0x2b3 /home/leon/git/swp-report/iMX6_Platform_SDK/output/mx6sdl/lib/libsdk.a(menu.o)
 .debug_abbrev  0x00000b93       0x43 /home/leon/git/swp-report/iMX6_Platform_SDK/output/mx6sdl/lib/libsdk.a(sdk_version.o)
 .debug_abbrev  0x00000bd6      0x276 /home/leon/git/swp-report/iMX6_Platform_SDK/output/mx6sdl/lib/libsdk.a(system_util.o)
 .debug_abbrev  0x00000e4c       0xd0 /home/leon/git/swp-report/iMX6_Platform_SDK/output/mx6sdl/lib/libsdk.a(text_color.o)
 .debug_abbrev  0x00000f1c      0x13a /home/leon/git/swp-report/iMX6_Platform_SDK/output/mx6sdl/lib/libsdk.a(board_id.o)
 .debug_abbrev  0x00001056      0x122 /home/leon/git/swp-report/iMX6_Platform_SDK/output/mx6sdl/lib/libsdk.a(timer.o)
 .debug_abbrev  0x00001178      0x1e3 /home/leon/git/swp-report/iMX6_Platform_SDK/output/mx6sdl/lib/libsdk.a(imx_uart.o)
 .debug_abbrev  0x0000135b      0x11a /home/leon/git/swp-report/iMX6_Platform_SDK/output/mx6sdl/lib/libsdk.a(interrupt.o)
 .debug_abbrev  0x00001475      0x194 /home/leon/git/swp-report/iMX6_Platform_SDK/output/mx6sdl/lib/libsdk.a(epit.o)
 .debug_abbrev  0x00001609       0xc8 /home/leon/git/swp-report/iMX6_Platform_SDK/output/mx6sdl/lib/libsdk.a(abort_handler.o)
 .debug_abbrev  0x000016d1       0xb0 /home/leon/git/swp-report/iMX6_Platform_SDK/output/mx6sdl/lib/libboard_smart_device_rev_a.a(board_io_expanders.o)
 .debug_abbrev  0x00001781       0x44 /home/leon/git/swp-report/iMX6_Platform_SDK/output/mx6sdl/lib/libboard_smart_device_rev_a.a(hardware_modules.o)
 .debug_abbrev  0x000017c5       0x75 /home/leon/git/swp-report/iMX6_Platform_SDK/output/mx6sdl/lib/libboard_smart_device_rev_a.a(dcd.o)
 .debug_abbrev  0x0000183a       0x79 /home/leon/git/swp-report/iMX6_Platform_SDK/output/mx6sdl/lib/libboard_smart_device_rev_a.a(uart_iomux_config.o)
 .debug_abbrev  0x000018b3       0x42 /home/leon/git/swp-report/iMX6_Platform_SDK/output/mx6sdl/lib/libboard_smart_device_rev_a.a(iomux_config.o)
 .debug_abbrev  0x000018f5       0xa4 /home/leon/git/swp-report/iMX6_Platform_SDK/output/mx6sdl/lib/libboard_smart_device_rev_a.a(ipu1_iomux_config.o)
 .debug_abbrev  0x00001999       0xf1 /home/leon/git/swp-report/iMX6_Platform_SDK/output/mx6sdl/lib/libboard_smart_device_rev_a.a(kpp_iomux_config.o)
 .debug_abbrev  0x00001a8a      0x106 /home/leon/git/swp-report/iMX6_Platform_SDK/output/mx6sdl/lib/libboard_smart_device_rev_a.a(mmdc_iomux_config.o)
 .debug_abbrev  0x00001b90       0xf1 /home/leon/git/swp-report/iMX6_Platform_SDK/output/mx6sdl/lib/libboard_smart_device_rev_a.a(pwm1_iomux_config.o)
 .debug_abbrev  0x00001c81       0xa4 /home/leon/git/swp-report/iMX6_Platform_SDK/output/mx6sdl/lib/libboard_smart_device_rev_a.a(sjc_iomux_config.o)
 .debug_abbrev  0x00001d25       0xf1 /home/leon/git/swp-report/iMX6_Platform_SDK/output/mx6sdl/lib/libboard_smart_device_rev_a.a(uart1_iomux_config.o)
 .debug_abbrev  0x00001e16       0xf1 /home/leon/git/swp-report/iMX6_Platform_SDK/output/mx6sdl/lib/libboard_smart_device_rev_a.a(usdhc2_iomux_config.o)
 .debug_abbrev  0x00001f07       0xf1 /home/leon/git/swp-report/iMX6_Platform_SDK/output/mx6sdl/lib/libboard_smart_device_rev_a.a(usdhc3_iomux_config.o)
 .debug_abbrev  0x00001ff8       0xf1 /home/leon/git/swp-report/iMX6_Platform_SDK/output/mx6sdl/lib/libboard_smart_device_rev_a.a(usdhc4_iomux_config.o)
 .debug_abbrev  0x000020e9       0xa4 /home/leon/git/swp-report/iMX6_Platform_SDK/output/mx6sdl/lib/libboard_smart_device_rev_a.a(audmux_iomux_config.o)
 .debug_abbrev  0x0000218d       0xf1 /home/leon/git/swp-report/iMX6_Platform_SDK/output/mx6sdl/lib/libboard_smart_device_rev_a.a(ccm_iomux_config.o)
 .debug_abbrev  0x0000227e       0xf1 /home/leon/git/swp-report/iMX6_Platform_SDK/output/mx6sdl/lib/libboard_smart_device_rev_a.a(ecspi1_iomux_config.o)
 .debug_abbrev  0x0000236f       0xf1 /home/leon/git/swp-report/iMX6_Platform_SDK/output/mx6sdl/lib/libboard_smart_device_rev_a.a(enet_iomux_config.o)
 .debug_abbrev  0x00002460      0x106 /home/leon/git/swp-report/iMX6_Platform_SDK/output/mx6sdl/lib/libboard_smart_device_rev_a.a(epdc_iomux_config.o)
 .debug_abbrev  0x00002566       0xf1 /home/leon/git/swp-report/iMX6_Platform_SDK/output/mx6sdl/lib/libboard_smart_device_rev_a.a(flexcan1_iomux_config.o)
 .debug_abbrev  0x00002657       0xf1 /home/leon/git/swp-report/iMX6_Platform_SDK/output/mx6sdl/lib/libboard_smart_device_rev_a.a(gpio1_iomux_config.o)
 .debug_abbrev  0x00002748      0x106 /home/leon/git/swp-report/iMX6_Platform_SDK/output/mx6sdl/lib/libboard_smart_device_rev_a.a(gpio2_iomux_config.o)
 .debug_abbrev  0x0000284e      0x106 /home/leon/git/swp-report/iMX6_Platform_SDK/output/mx6sdl/lib/libboard_smart_device_rev_a.a(gpio3_iomux_config.o)
 .debug_abbrev  0x00002954       0xf1 /home/leon/git/swp-report/iMX6_Platform_SDK/output/mx6sdl/lib/libboard_smart_device_rev_a.a(gpio4_iomux_config.o)
 .debug_abbrev  0x00002a45      0x106 /home/leon/git/swp-report/iMX6_Platform_SDK/output/mx6sdl/lib/libboard_smart_device_rev_a.a(gpio5_iomux_config.o)
 .debug_abbrev  0x00002b4b      0x106 /home/leon/git/swp-report/iMX6_Platform_SDK/output/mx6sdl/lib/libboard_smart_device_rev_a.a(gpio6_iomux_config.o)
 .debug_abbrev  0x00002c51       0xf1 /home/leon/git/swp-report/iMX6_Platform_SDK/output/mx6sdl/lib/libboard_smart_device_rev_a.a(gpio7_iomux_config.o)
 .debug_abbrev  0x00002d42      0x106 /home/leon/git/swp-report/iMX6_Platform_SDK/output/mx6sdl/lib/libboard_smart_device_rev_a.a(gps_iomux_config.o)
 .debug_abbrev  0x00002e48       0xf1 /home/leon/git/swp-report/iMX6_Platform_SDK/output/mx6sdl/lib/libboard_smart_device_rev_a.a(i2c1_iomux_config.o)
 .debug_abbrev  0x00002f39       0xf1 /home/leon/git/swp-report/iMX6_Platform_SDK/output/mx6sdl/lib/libboard_smart_device_rev_a.a(i2c2_iomux_config.o)
 .debug_abbrev  0x0000302a       0xf1 /home/leon/git/swp-report/iMX6_Platform_SDK/output/mx6sdl/lib/libboard_smart_device_rev_a.a(i2c3_iomux_config.o)
 .debug_abbrev  0x0000311b       0xf1 /home/leon/git/swp-report/iMX6_Platform_SDK/output/mx6sdl/sdk_unit_test/smart_device_rev_a/libsdk_unit_test.a(cpu_wp_test.o)
 .debug_abbrev  0x0000320c       0xb7 /home/leon/git/swp-report/iMX6_Platform_SDK/output/mx6sdl/sdk_unit_test/smart_device_rev_a/libsdk_unit_test.a(multicore_test.o)
 .debug_abbrev  0x000032c3      0x1e0 /home/leon/git/swp-report/iMX6_Platform_SDK/output/mx6sdl/sdk_unit_test/smart_device_rev_a/libsdk_unit_test.a(audio_test.o)
 .debug_abbrev  0x000034a3       0x78 /home/leon/git/swp-report/iMX6_Platform_SDK/output/mx6sdl/sdk_unit_test/smart_device_rev_a/libsdk_unit_test.a(gic_test.o)
 .debug_abbrev  0x0000351b      0x191 /home/leon/git/swp-report/iMX6_Platform_SDK/output/mx6sdl/sdk_unit_test/smart_device_rev_a/libsdk_unit_test.a(ocotp_test.o)
 .debug_abbrev  0x000036ac      0x1d4 /home/leon/git/swp-report/iMX6_Platform_SDK/output/mx6sdl/sdk_unit_test/smart_device_rev_a/libsdk_unit_test.a(snvs_rtc_test.o)
 .debug_abbrev  0x00003880      0x1d4 /home/leon/git/swp-report/iMX6_Platform_SDK/output/mx6sdl/sdk_unit_test/smart_device_rev_a/libsdk_unit_test.a(snvs_srtc_test.o)
 .debug_abbrev  0x00003a54      0x182 /home/leon/git/swp-report/iMX6_Platform_SDK/output/mx6sdl/sdk_unit_test/smart_device_rev_a/libsdk_unit_test.a(i2c_test.o)
 .debug_abbrev  0x00003bd6      0x1d4 /home/leon/git/swp-report/iMX6_Platform_SDK/output/mx6sdl/sdk_unit_test/smart_device_rev_a/libsdk_unit_test.a(imx6_i2c_device.o)
 .debug_abbrev  0x00003daa      0x1a7 /home/leon/git/swp-report/iMX6_Platform_SDK/output/mx6sdl/sdk_unit_test/smart_device_rev_a/libsdk_unit_test.a(tempmon_test.o)
 .debug_abbrev  0x00003f51      0x19a /home/leon/git/swp-report/iMX6_Platform_SDK/output/mx6sdl/sdk_unit_test/smart_device_rev_a/libsdk_unit_test.a(sdma_test.o)
 .debug_abbrev  0x000040eb      0x102 /home/leon/git/swp-report/iMX6_Platform_SDK/output/mx6sdl/sdk_unit_test/smart_device_rev_a/libsdk_unit_test.a(spi_lpb.o)
 .debug_abbrev  0x000041ed      0x196 /home/leon/git/swp-report/iMX6_Platform_SDK/output/mx6sdl/sdk_unit_test/smart_device_rev_a/libsdk_unit_test.a(uart_loopback.o)
 .debug_abbrev  0x00004383      0x1db /home/leon/git/swp-report/iMX6_Platform_SDK/output/mx6sdl/sdk_unit_test/smart_device_rev_a/libsdk_unit_test.a(uart_test.o)
 .debug_abbrev  0x0000455e      0x1de /home/leon/git/swp-report/iMX6_Platform_SDK/output/mx6sdl/sdk_unit_test/smart_device_rev_a/libsdk_unit_test.a(epit_test.o)
 .debug_abbrev  0x0000473c      0x275 /home/leon/git/swp-report/iMX6_Platform_SDK/output/mx6sdl/sdk_unit_test/smart_device_rev_a/libsdk_unit_test.a(gpt_test.o)
 .debug_abbrev  0x000049b1       0x5e /home/leon/git/swp-report/iMX6_Platform_SDK/output/mx6sdl/sdk_unit_test/smart_device_rev_a/libsdk_unit_test.a(timer_test.o)
 .debug_abbrev  0x00004a0f      0x243 /home/leon/git/swp-report/iMX6_Platform_SDK/output/mx6sdl/sdk_unit_test/smart_device_rev_a/libsdk_unit_test.a(usdhc_test.o)
 .debug_abbrev  0x00004c52      0x1b0 /home/leon/git/swp-report/iMX6_Platform_SDK/output/mx6sdl/sdk_unit_test/smart_device_rev_a/libsdk_unit_test.a(watchdog_test.o)
 .debug_abbrev  0x00004e02      0x1b2 /home/leon/git/swp-report/iMX6_Platform_SDK/output/mx6sdl/sdk_unit_test/smart_device_rev_a/libsdk_unit_test.a(pwm_test.o)
 .debug_abbrev  0x00004fb4      0x15c /home/leon/git/swp-report/iMX6_Platform_SDK/output/mx6sdl/sdk_unit_test/smart_device_rev_a/libsdk_unit_test.a(hdmi_test.o)
 .debug_abbrev  0x00005110      0x1fe /home/leon/git/swp-report/iMX6_Platform_SDK/output/mx6sdl/sdk_unit_test/smart_device_rev_a/libsdk_unit_test.a(ips_display.o)
 .debug_abbrev  0x0000530e      0x19a /home/leon/git/swp-report/iMX6_Platform_SDK/output/mx6sdl/sdk_unit_test/smart_device_rev_a/libsdk_unit_test.a(ips_test.o)
 .debug_abbrev  0x000054a8      0x10d /home/leon/git/swp-report/iMX6_Platform_SDK/output/mx6sdl/sdk_unit_test/smart_device_rev_a/libsdk_unit_test.a(ipu_image.o)
 .debug_abbrev  0x000055b5      0x18f /home/leon/git/swp-report/iMX6_Platform_SDK/output/mx6sdl/sdk_unit_test/smart_device_rev_a/libsdk_unit_test.a(keypad_test.o)
 .debug_abbrev  0x00005744      0x1d4 /home/leon/git/swp-report/iMX6_Platform_SDK/output/mx6sdl/sdk_unit_test/smart_device_rev_a/libsdk_unit_test.a(camera_test.o)
 .debug_abbrev  0x00005918      0x1c1 /home/leon/git/swp-report/iMX6_Platform_SDK/output/mx6sdl/sdk_unit_test/smart_device_rev_a/libsdk_unit_test.a(csi_test_mode.o)
 .debug_abbrev  0x00005ad9      0x1cc /home/leon/git/swp-report/iMX6_Platform_SDK/output/mx6sdl/sdk_unit_test/smart_device_rev_a/libsdk_unit_test.a(sensor_capture.o)
 .debug_abbrev  0x00005ca5      0x1d0 /home/leon/git/swp-report/iMX6_Platform_SDK/output/mx6sdl/sdk_unit_test/smart_device_rev_a/libsdk_unit_test.a(pcie_test_rc.o)
 .debug_abbrev  0x00005e75       0xc1 /home/leon/git/swp-report/iMX6_Platform_SDK/output/mx6sdl/sdk_unit_test/smart_device_rev_a/libsdk_unit_test.a(usb_test.o)
 .debug_abbrev  0x00005f36      0x216 /home/leon/git/swp-report/iMX6_Platform_SDK/output/mx6sdl/sdk_unit_test/smart_device_rev_a/libsdk_unit_test.a(enet_test.o)
 .debug_abbrev  0x0000614c      0x1f0 /home/leon/git/swp-report/iMX6_Platform_SDK/output/mx6sdl/sdk_unit_test/smart_device_rev_a/libsdk_unit_test.a(spi_test.o)
 .debug_abbrev  0x0000633c      0x1bf /home/leon/git/swp-report/iMX6_Platform_SDK/output/mx6sdl/sdk_unit_test/smart_device_rev_a/libsdk_unit_test.a(accelerometer_test.o)
 .debug_abbrev  0x000064fb      0x124 /home/leon/git/swp-report/iMX6_Platform_SDK/output/mx6sdl/sdk_unit_test/smart_device_rev_a/libsdk_unit_test.a(at24cxx.o)
 .debug_abbrev  0x0000661f       0xe5 /home/leon/git/swp-report/iMX6_Platform_SDK/output/mx6sdl/sdk_unit_test/smart_device_rev_a/libsdk_unit_test.a(mem_2_mem.o)
 .debug_abbrev  0x00006704      0x10b /home/leon/git/swp-report/iMX6_Platform_SDK/output/mx6sdl/sdk_unit_test/smart_device_rev_a/libsdk_unit_test.a(pwm_output.o)
 .debug_abbrev  0x0000680f      0x117 /home/leon/git/swp-report/iMX6_Platform_SDK/output/mx6sdl/sdk_unit_test/smart_device_rev_a/libsdk_unit_test.a(init_dma_data.o)
 .debug_abbrev  0x00006926      0x1bd /home/leon/git/swp-report/iMX6_Platform_SDK/output/mx6sdl/sdk_unit_test/smart_device_rev_a/libsdk_unit_test.a(ips_combiner.o)
 .debug_abbrev  0x00006ae3      0x1d5 /home/leon/git/swp-report/iMX6_Platform_SDK/output/mx6sdl/sdk_unit_test/smart_device_rev_a/libsdk_unit_test.a(ips_csc.o)
 .debug_abbrev  0x00006cb8      0x1ce /home/leon/git/swp-report/iMX6_Platform_SDK/output/mx6sdl/sdk_unit_test/smart_device_rev_a/libsdk_unit_test.a(ips_resize.o)
 .debug_abbrev  0x00006e86      0x1ce /home/leon/git/swp-report/iMX6_Platform_SDK/output/mx6sdl/sdk_unit_test/smart_device_rev_a/libsdk_unit_test.a(ips_rotate.o)
 .debug_abbrev  0x00007054      0x26c /home/leon/git/swp-report/iMX6_Platform_SDK/output/mx6sdl/sdk_unit_test/smart_device_rev_a/libsdk_unit_test.a(usb0_device_mouse_test.o)
 .debug_abbrev  0x000072c0      0x1b7 /home/leon/git/swp-report/iMX6_Platform_SDK/output/mx6sdl/sdk_unit_test/smart_device_rev_a/libsdk_unit_test.a(usb0_host_test.o)
 .debug_abbrev  0x00007477      0x129 /home/leon/git/swp-report/iMX6_Platform_SDK/output/mx6sdl/sdk_unit_test/smart_device_rev_a/libsdk_unit_test.a(usb0_host_testmodes_test.o)
 .debug_abbrev  0x000075a0      0x15b /home/leon/git/swp-report/iMX6_Platform_SDK/output/mx6sdl/sdk_unit_test/smart_device_rev_a/libsdk_unit_test.a(spi_nor_numonyx.o)
 .debug_abbrev  0x000076fb       0x60 /home/leon/git/swp-report/iMX6_Platform_SDK/output/mx6sdl/lib/libsdk.a(profile.o)
 .debug_abbrev  0x0000775b      0x133 /home/leon/git/swp-report/iMX6_Platform_SDK/output/mx6sdl/lib/libsdk.a(armv7_cache.o)
 .debug_abbrev  0x0000788e      0x1e2 /home/leon/git/swp-report/iMX6_Platform_SDK/output/mx6sdl/lib/libsdk.a(runtime_support.o)
 .debug_abbrev  0x00007a70       0xf9 /home/leon/git/swp-report/iMX6_Platform_SDK/output/mx6sdl/lib/libsdk.a(mma8451.o)
 .debug_abbrev  0x00007b69      0x19d /home/leon/git/swp-report/iMX6_Platform_SDK/output/mx6sdl/lib/libsdk.a(smd_sensor.o)
 .debug_abbrev  0x00007d06       0xc5 /home/leon/git/swp-report/iMX6_Platform_SDK/output/mx6sdl/lib/libsdk.a(cpu_get_cores.o)
 .debug_abbrev  0x00007dcb      0x187 /home/leon/git/swp-report/iMX6_Platform_SDK/output/mx6sdl/lib/libsdk.a(cpu_multicore.o)
 .debug_abbrev  0x00007f52      0x15c /home/leon/git/swp-report/iMX6_Platform_SDK/output/mx6sdl/lib/libsdk.a(cpu_workpoint.o)
 .debug_abbrev  0x000080ae      0x2d8 /home/leon/git/swp-report/iMX6_Platform_SDK/output/mx6sdl/lib/libsdk.a(enet_drv.o)
 .debug_abbrev  0x00008386      0x228 /home/leon/git/swp-report/iMX6_Platform_SDK/output/mx6sdl/lib/libsdk.a(gpio.o)
 .debug_abbrev  0x000085ae       0x5b /home/leon/git/swp-report/iMX6_Platform_SDK/output/mx6sdl/lib/libsdk.a(imx6sdl_gpio_map.o)
 .debug_abbrev  0x00008609      0x1af /home/leon/git/swp-report/iMX6_Platform_SDK/output/mx6sdl/lib/libsdk.a(hdmi_tx.o)
 .debug_abbrev  0x000087b8      0x1c1 /home/leon/git/swp-report/iMX6_Platform_SDK/output/mx6sdl/lib/libsdk.a(hdmi_tx_audio.o)
 .debug_abbrev  0x00008979      0x180 /home/leon/git/swp-report/iMX6_Platform_SDK/output/mx6sdl/lib/libsdk.a(hdmi_tx_phy.o)
 .debug_abbrev  0x00008af9      0x2c9 /home/leon/git/swp-report/iMX6_Platform_SDK/output/mx6sdl/lib/libsdk.a(imx_i2c.o)
 .debug_abbrev  0x00008dc2      0x199 /home/leon/git/swp-report/iMX6_Platform_SDK/output/mx6sdl/lib/libsdk.a(imx_i2c_slave.o)
 .debug_abbrev  0x00008f5b      0x1ac /home/leon/git/swp-report/iMX6_Platform_SDK/output/mx6sdl/lib/libsdk.a(ips_disp_panel.o)
 .debug_abbrev  0x00009107      0x212 /home/leon/git/swp-report/iMX6_Platform_SDK/output/mx6sdl/lib/libsdk.a(ipu_common.o)
 .debug_abbrev  0x00009319       0xf9 /home/leon/git/swp-report/iMX6_Platform_SDK/output/mx6sdl/lib/libsdk.a(ipu_csi.o)
 .debug_abbrev  0x00009412      0x164 /home/leon/git/swp-report/iMX6_Platform_SDK/output/mx6sdl/lib/libsdk.a(ipu_dc.o)
 .debug_abbrev  0x00009576      0x1ac /home/leon/git/swp-report/iMX6_Platform_SDK/output/mx6sdl/lib/libsdk.a(ipu_di.o)
 .debug_abbrev  0x00009722       0x8e /home/leon/git/swp-report/iMX6_Platform_SDK/output/mx6sdl/lib/libsdk.a(ipu_dmfc.o)
 .debug_abbrev  0x000097b0       0xc7 /home/leon/git/swp-report/iMX6_Platform_SDK/output/mx6sdl/lib/libsdk.a(ipu_dp.o)
 .debug_abbrev  0x00009877      0x171 /home/leon/git/swp-report/iMX6_Platform_SDK/output/mx6sdl/lib/libsdk.a(ipu_ic.o)
 .debug_abbrev  0x000099e8      0x20c /home/leon/git/swp-report/iMX6_Platform_SDK/output/mx6sdl/lib/libsdk.a(ipu_idmac.o)
 .debug_abbrev  0x00009bf4      0x161 /home/leon/git/swp-report/iMX6_Platform_SDK/output/mx6sdl/lib/libsdk.a(ipu_vdi.o)
 .debug_abbrev  0x00009d55      0x1ca /home/leon/git/swp-report/iMX6_Platform_SDK/output/mx6sdl/lib/libsdk.a(keypad_port.o)
 .debug_abbrev  0x00009f1f      0x144 /home/leon/git/swp-report/iMX6_Platform_SDK/output/mx6sdl/lib/libsdk.a(ldb.o)
 .debug_abbrev  0x0000a063      0x1ae /home/leon/git/swp-report/iMX6_Platform_SDK/output/mx6sdl/lib/libsdk.a(ocotp.o)
 .debug_abbrev  0x0000a211      0x215 /home/leon/git/swp-report/iMX6_Platform_SDK/output/mx6sdl/lib/libsdk.a(pcie.o)
 .debug_abbrev  0x0000a426      0x124 /home/leon/git/swp-report/iMX6_Platform_SDK/output/mx6sdl/lib/libsdk.a(pcie_phy.o)
 .debug_abbrev  0x0000a54a      0x142 /home/leon/git/swp-report/iMX6_Platform_SDK/output/mx6sdl/lib/libsdk.a(pcie_prot.o)
 .debug_abbrev  0x0000a68c      0x52d /home/leon/git/swp-report/iMX6_Platform_SDK/output/mx6sdl/lib/libsdk.a(pmu_driver.o)
 .debug_abbrev  0x0000abb9      0x1f8 /home/leon/git/swp-report/iMX6_Platform_SDK/output/mx6sdl/lib/libsdk.a(pwm.o)
 .debug_abbrev  0x0000adb1      0x162 /home/leon/git/swp-report/iMX6_Platform_SDK/output/mx6sdl/lib/libsdk.a(rtc.o)
 .debug_abbrev  0x0000af13      0x162 /home/leon/git/swp-report/iMX6_Platform_SDK/output/mx6sdl/lib/libsdk.a(srtc.o)
 .debug_abbrev  0x0000b075      0x2f2 /home/leon/git/swp-report/iMX6_Platform_SDK/output/mx6sdl/lib/libsdk.a(sdma.o)
 .debug_abbrev  0x0000b367       0xbd /home/leon/git/swp-report/iMX6_Platform_SDK/output/mx6sdl/lib/libsdk.a(sdma_script_info.o)
 .debug_abbrev  0x0000b424       0xf4 /home/leon/git/swp-report/iMX6_Platform_SDK/output/mx6sdl/lib/libsdk.a(snvs.o)
 .debug_abbrev  0x0000b518      0x1f9 /home/leon/git/swp-report/iMX6_Platform_SDK/output/mx6sdl/lib/libsdk.a(ecspi.o)
 .debug_abbrev  0x0000b711      0x1c9 /home/leon/git/swp-report/iMX6_Platform_SDK/output/mx6sdl/lib/libsdk.a(tempmon.o)
 .debug_abbrev  0x0000b8da      0x1f1 /home/leon/git/swp-report/iMX6_Platform_SDK/output/mx6sdl/lib/libsdk.a(gpt.o)
 .debug_abbrev  0x0000bacb      0x223 /home/leon/git/swp-report/iMX6_Platform_SDK/output/mx6sdl/lib/libsdk.a(usb_common.o)
 .debug_abbrev  0x0000bcee      0x21a /home/leon/git/swp-report/iMX6_Platform_SDK/output/mx6sdl/lib/libsdk.a(usbd_drv.o)
 .debug_abbrev  0x0000bf08      0x1c8 /home/leon/git/swp-report/iMX6_Platform_SDK/output/mx6sdl/lib/libsdk.a(usbh_drv.o)
 .debug_abbrev  0x0000c0d0      0x20c /home/leon/git/swp-report/iMX6_Platform_SDK/output/mx6sdl/lib/libsdk.a(usdhc.o)
 .debug_abbrev  0x0000c2dc      0x296 /home/leon/git/swp-report/iMX6_Platform_SDK/output/mx6sdl/lib/libsdk.a(usdhc_host.o)
 .debug_abbrev  0x0000c572      0x1ac /home/leon/git/swp-report/iMX6_Platform_SDK/output/mx6sdl/lib/libsdk.a(usdhc_mmc.o)
 .debug_abbrev  0x0000c71e      0x143 /home/leon/git/swp-report/iMX6_Platform_SDK/output/mx6sdl/lib/libsdk.a(usdhc_sd.o)
 .debug_abbrev  0x0000c861       0xc9 /home/leon/git/swp-report/iMX6_Platform_SDK/output/mx6sdl/lib/libsdk.a(spinlock.o)
 .debug_abbrev  0x0000c92a       0xab /home/leon/git/swp-report/iMX6_Platform_SDK/output/mx6sdl/lib/libsdk.a(camera_profile.o)
 .debug_abbrev  0x0000c9d5       0xb9 /home/leon/git/swp-report/iMX6_Platform_SDK/output/mx6sdl/lib/libsdk.a(hdmi_common.o)
 .debug_abbrev  0x0000ca8e      0x155 /home/leon/git/swp-report/iMX6_Platform_SDK/output/mx6sdl/lib/libsdk.a(mx6x_usb.o)
 .debug_abbrev  0x0000cbe3      0x109 /home/leon/git/swp-report/iMX6_Platform_SDK/output/mx6sdl/lib/libboard_smart_device_rev_a.a(board_audio.o)
 .debug_abbrev  0x0000ccec      0x18a /home/leon/git/swp-report/iMX6_Platform_SDK/output/mx6sdl/lib/libboard_smart_device_rev_a.a(board_camera.o)
 .debug_abbrev  0x0000ce76      0x187 /home/leon/git/swp-report/iMX6_Platform_SDK/output/mx6sdl/lib/libboard_smart_device_rev_a.a(board_display.o)
 .debug_abbrev  0x0000cffd      0x152 /home/leon/git/swp-report/iMX6_Platform_SDK/output/mx6sdl/lib/libboard_smart_device_rev_a.a(board_hdmi.o)
 .debug_abbrev  0x0000d14f       0x69 /home/leon/git/swp-report/iMX6_Platform_SDK/output/mx6sdl/lib/libboard_smart_device_rev_a.a(board_i2c.o)
 .debug_abbrev  0x0000d1b8      0x141 /home/leon/git/swp-report/iMX6_Platform_SDK/output/mx6sdl/lib/libboard_smart_device_rev_a.a(board_mipi.o)
 .debug_abbrev  0x0000d2f9       0x86 /home/leon/git/swp-report/iMX6_Platform_SDK/output/mx6sdl/lib/libboard_smart_device_rev_a.a(board_network.o)
 .debug_abbrev  0x0000d37f      0x119 /home/leon/git/swp-report/iMX6_Platform_SDK/output/mx6sdl/lib/libboard_smart_device_rev_a.a(board_pcie.o)
 .debug_abbrev  0x0000d498       0xcd /home/leon/git/swp-report/iMX6_Platform_SDK/output/mx6sdl/lib/libboard_smart_device_rev_a.a(board_usb.o)
 .debug_abbrev  0x0000d565       0xbb /home/leon/git/swp-report/iMX6_Platform_SDK/output/mx6sdl/lib/libboard_smart_device_rev_a.a(board_usdhc.o)
 .debug_abbrev  0x0000d620       0x79 /home/leon/git/swp-report/iMX6_Platform_SDK/output/mx6sdl/lib/libboard_smart_device_rev_a.a(ecspi_iomux_config.o)
 .debug_abbrev  0x0000d699       0x79 /home/leon/git/swp-report/iMX6_Platform_SDK/output/mx6sdl/lib/libboard_smart_device_rev_a.a(i2c_iomux_config.o)
 .debug_abbrev  0x0000d712       0x79 /home/leon/git/swp-report/iMX6_Platform_SDK/output/mx6sdl/lib/libboard_smart_device_rev_a.a(pwm_iomux_config.o)
 .debug_abbrev  0x0000d78b       0x79 /home/leon/git/swp-report/iMX6_Platform_SDK/output/mx6sdl/lib/libboard_smart_device_rev_a.a(usdhc_iomux_config.o)

.debug_aranges  0x00000000     0x1530
 .debug_aranges
                0x00000000       0x18 /home/leon/git/swp-report/iMX6_Platform_SDK/output/mx6sdl/sdk_unit_test/smart_device_rev_a/obj/apps/common/ivt.o
 .debug_aranges
                0x00000018       0x20 /home/leon/git/swp-report/iMX6_Platform_SDK/output/mx6sdl/sdk_unit_test/smart_device_rev_a/obj/apps/common/platform_init.o
 .debug_aranges
                0x00000038       0x20 /home/leon/git/swp-report/iMX6_Platform_SDK/output/mx6sdl/sdk_unit_test/smart_device_rev_a/obj/apps/common/print_clock_info.o
 .debug_aranges
                0x00000058       0x20 /home/leon/git/swp-report/iMX6_Platform_SDK/output/mx6sdl/sdk_unit_test/smart_device_rev_a/obj/apps/common/print_version.o
 .debug_aranges
                0x00000078       0x20 /home/leon/git/swp-report/iMX6_Platform_SDK/output/mx6sdl/sdk_unit_test/smart_device_rev_a/obj/apps/sdk_unit_test/src/all_test.o
 .debug_aranges
                0x00000098       0x20 /home/leon/git/swp-report/iMX6_Platform_SDK/output/mx6sdl/sdk_unit_test/smart_device_rev_a/obj/apps/sdk_unit_test/src/unit_test_main.o
 .debug_aranges
                0x000000b8       0x20 /home/leon/git/swp-report/iMX6_Platform_SDK/output/mx6sdl/lib/libsdk.a(ccm_pll.o)
 .debug_aranges
                0x000000d8       0x20 /home/leon/git/swp-report/iMX6_Platform_SDK/output/mx6sdl/lib/libsdk.a(gic.o)
 .debug_aranges
                0x000000f8       0x20 /home/leon/git/swp-report/iMX6_Platform_SDK/output/mx6sdl/lib/libsdk.a(mmu.o)
 .debug_aranges
                0x00000118       0x20 /home/leon/git/swp-report/iMX6_Platform_SDK/output/mx6sdl/lib/libsdk.a(menu.o)
 .debug_aranges
                0x00000138       0x18 /home/leon/git/swp-report/iMX6_Platform_SDK/output/mx6sdl/lib/libsdk.a(sdk_version.o)
 .debug_aranges
                0x00000150       0x20 /home/leon/git/swp-report/iMX6_Platform_SDK/output/mx6sdl/lib/libsdk.a(system_util.o)
 .debug_aranges
                0x00000170       0x20 /home/leon/git/swp-report/iMX6_Platform_SDK/output/mx6sdl/lib/libsdk.a(text_color.o)
 .debug_aranges
                0x00000190       0x20 /home/leon/git/swp-report/iMX6_Platform_SDK/output/mx6sdl/lib/libsdk.a(board_id.o)
 .debug_aranges
                0x000001b0       0x20 /home/leon/git/swp-report/iMX6_Platform_SDK/output/mx6sdl/lib/libsdk.a(timer.o)
 .debug_aranges
                0x000001d0       0x20 /home/leon/git/swp-report/iMX6_Platform_SDK/output/mx6sdl/lib/libsdk.a(imx_uart.o)
 .debug_aranges
                0x000001f0       0x20 /home/leon/git/swp-report/iMX6_Platform_SDK/output/mx6sdl/lib/libsdk.a(interrupt.o)
 .debug_aranges
                0x00000210       0x20 /home/leon/git/swp-report/iMX6_Platform_SDK/output/mx6sdl/lib/libsdk.a(epit.o)
 .debug_aranges
                0x00000230       0x20 /home/leon/git/swp-report/iMX6_Platform_SDK/output/mx6sdl/lib/libsdk.a(abort_handler.o)
 .debug_aranges
                0x00000250       0x20 /home/leon/git/swp-report/iMX6_Platform_SDK/output/mx6sdl/lib/libboard_smart_device_rev_a.a(board_io_expanders.o)
 .debug_aranges
                0x00000270       0x18 /home/leon/git/swp-report/iMX6_Platform_SDK/output/mx6sdl/lib/libboard_smart_device_rev_a.a(hardware_modules.o)
 .debug_aranges
                0x00000288       0x18 /home/leon/git/swp-report/iMX6_Platform_SDK/output/mx6sdl/lib/libboard_smart_device_rev_a.a(dcd.o)
 .debug_aranges
                0x000002a0       0x20 /home/leon/git/swp-report/iMX6_Platform_SDK/output/mx6sdl/lib/libboard_smart_device_rev_a.a(uart_iomux_config.o)
 .debug_aranges
                0x000002c0       0x20 /home/leon/git/swp-report/iMX6_Platform_SDK/output/mx6sdl/lib/libboard_smart_device_rev_a.a(iomux_config.o)
 .debug_aranges
                0x000002e0       0x20 /home/leon/git/swp-report/iMX6_Platform_SDK/output/mx6sdl/lib/libboard_smart_device_rev_a.a(ipu1_iomux_config.o)
 .debug_aranges
                0x00000300       0x20 /home/leon/git/swp-report/iMX6_Platform_SDK/output/mx6sdl/lib/libboard_smart_device_rev_a.a(kpp_iomux_config.o)
 .debug_aranges
                0x00000320       0x20 /home/leon/git/swp-report/iMX6_Platform_SDK/output/mx6sdl/lib/libboard_smart_device_rev_a.a(mmdc_iomux_config.o)
 .debug_aranges
                0x00000340       0x20 /home/leon/git/swp-report/iMX6_Platform_SDK/output/mx6sdl/lib/libboard_smart_device_rev_a.a(pwm1_iomux_config.o)
 .debug_aranges
                0x00000360       0x20 /home/leon/git/swp-report/iMX6_Platform_SDK/output/mx6sdl/lib/libboard_smart_device_rev_a.a(sjc_iomux_config.o)
 .debug_aranges
                0x00000380       0x20 /home/leon/git/swp-report/iMX6_Platform_SDK/output/mx6sdl/lib/libboard_smart_device_rev_a.a(uart1_iomux_config.o)
 .debug_aranges
                0x000003a0       0x20 /home/leon/git/swp-report/iMX6_Platform_SDK/output/mx6sdl/lib/libboard_smart_device_rev_a.a(usdhc2_iomux_config.o)
 .debug_aranges
                0x000003c0       0x20 /home/leon/git/swp-report/iMX6_Platform_SDK/output/mx6sdl/lib/libboard_smart_device_rev_a.a(usdhc3_iomux_config.o)
 .debug_aranges
                0x000003e0       0x20 /home/leon/git/swp-report/iMX6_Platform_SDK/output/mx6sdl/lib/libboard_smart_device_rev_a.a(usdhc4_iomux_config.o)
 .debug_aranges
                0x00000400       0x20 /home/leon/git/swp-report/iMX6_Platform_SDK/output/mx6sdl/lib/libboard_smart_device_rev_a.a(audmux_iomux_config.o)
 .debug_aranges
                0x00000420       0x20 /home/leon/git/swp-report/iMX6_Platform_SDK/output/mx6sdl/lib/libboard_smart_device_rev_a.a(ccm_iomux_config.o)
 .debug_aranges
                0x00000440       0x20 /home/leon/git/swp-report/iMX6_Platform_SDK/output/mx6sdl/lib/libboard_smart_device_rev_a.a(ecspi1_iomux_config.o)
 .debug_aranges
                0x00000460       0x20 /home/leon/git/swp-report/iMX6_Platform_SDK/output/mx6sdl/lib/libboard_smart_device_rev_a.a(enet_iomux_config.o)
 .debug_aranges
                0x00000480       0x20 /home/leon/git/swp-report/iMX6_Platform_SDK/output/mx6sdl/lib/libboard_smart_device_rev_a.a(epdc_iomux_config.o)
 .debug_aranges
                0x000004a0       0x20 /home/leon/git/swp-report/iMX6_Platform_SDK/output/mx6sdl/lib/libboard_smart_device_rev_a.a(flexcan1_iomux_config.o)
 .debug_aranges
                0x000004c0       0x20 /home/leon/git/swp-report/iMX6_Platform_SDK/output/mx6sdl/lib/libboard_smart_device_rev_a.a(gpio1_iomux_config.o)
 .debug_aranges
                0x000004e0       0x20 /home/leon/git/swp-report/iMX6_Platform_SDK/output/mx6sdl/lib/libboard_smart_device_rev_a.a(gpio2_iomux_config.o)
 .debug_aranges
                0x00000500       0x20 /home/leon/git/swp-report/iMX6_Platform_SDK/output/mx6sdl/lib/libboard_smart_device_rev_a.a(gpio3_iomux_config.o)
 .debug_aranges
                0x00000520       0x20 /home/leon/git/swp-report/iMX6_Platform_SDK/output/mx6sdl/lib/libboard_smart_device_rev_a.a(gpio4_iomux_config.o)
 .debug_aranges
                0x00000540       0x20 /home/leon/git/swp-report/iMX6_Platform_SDK/output/mx6sdl/lib/libboard_smart_device_rev_a.a(gpio5_iomux_config.o)
 .debug_aranges
                0x00000560       0x20 /home/leon/git/swp-report/iMX6_Platform_SDK/output/mx6sdl/lib/libboard_smart_device_rev_a.a(gpio6_iomux_config.o)
 .debug_aranges
                0x00000580       0x20 /home/leon/git/swp-report/iMX6_Platform_SDK/output/mx6sdl/lib/libboard_smart_device_rev_a.a(gpio7_iomux_config.o)
 .debug_aranges
                0x000005a0       0x20 /home/leon/git/swp-report/iMX6_Platform_SDK/output/mx6sdl/lib/libboard_smart_device_rev_a.a(gps_iomux_config.o)
 .debug_aranges
                0x000005c0       0x20 /home/leon/git/swp-report/iMX6_Platform_SDK/output/mx6sdl/lib/libboard_smart_device_rev_a.a(i2c1_iomux_config.o)
 .debug_aranges
                0x000005e0       0x20 /home/leon/git/swp-report/iMX6_Platform_SDK/output/mx6sdl/lib/libboard_smart_device_rev_a.a(i2c2_iomux_config.o)
 .debug_aranges
                0x00000600       0x20 /home/leon/git/swp-report/iMX6_Platform_SDK/output/mx6sdl/lib/libboard_smart_device_rev_a.a(i2c3_iomux_config.o)
 .debug_aranges
                0x00000620       0x20 /home/leon/git/swp-report/iMX6_Platform_SDK/output/mx6sdl/sdk_unit_test/smart_device_rev_a/libsdk_unit_test.a(cpu_wp_test.o)
 .debug_aranges
                0x00000640       0x20 /home/leon/git/swp-report/iMX6_Platform_SDK/output/mx6sdl/sdk_unit_test/smart_device_rev_a/libsdk_unit_test.a(multicore_test.o)
 .debug_aranges
                0x00000660       0x20 /home/leon/git/swp-report/iMX6_Platform_SDK/output/mx6sdl/sdk_unit_test/smart_device_rev_a/libsdk_unit_test.a(audio_test.o)
 .debug_aranges
                0x00000680       0x20 /home/leon/git/swp-report/iMX6_Platform_SDK/output/mx6sdl/sdk_unit_test/smart_device_rev_a/libsdk_unit_test.a(gic_test.o)
 .debug_aranges
                0x000006a0       0x20 /home/leon/git/swp-report/iMX6_Platform_SDK/output/mx6sdl/sdk_unit_test/smart_device_rev_a/libsdk_unit_test.a(ocotp_test.o)
 .debug_aranges
                0x000006c0       0x20 /home/leon/git/swp-report/iMX6_Platform_SDK/output/mx6sdl/sdk_unit_test/smart_device_rev_a/libsdk_unit_test.a(snvs_rtc_test.o)
 .debug_aranges
                0x000006e0       0x20 /home/leon/git/swp-report/iMX6_Platform_SDK/output/mx6sdl/sdk_unit_test/smart_device_rev_a/libsdk_unit_test.a(snvs_srtc_test.o)
 .debug_aranges
                0x00000700       0x20 /home/leon/git/swp-report/iMX6_Platform_SDK/output/mx6sdl/sdk_unit_test/smart_device_rev_a/libsdk_unit_test.a(i2c_test.o)
 .debug_aranges
                0x00000720       0x20 /home/leon/git/swp-report/iMX6_Platform_SDK/output/mx6sdl/sdk_unit_test/smart_device_rev_a/libsdk_unit_test.a(imx6_i2c_device.o)
 .debug_aranges
                0x00000740       0x20 /home/leon/git/swp-report/iMX6_Platform_SDK/output/mx6sdl/sdk_unit_test/smart_device_rev_a/libsdk_unit_test.a(tempmon_test.o)
 .debug_aranges
                0x00000760       0x20 /home/leon/git/swp-report/iMX6_Platform_SDK/output/mx6sdl/sdk_unit_test/smart_device_rev_a/libsdk_unit_test.a(sdma_test.o)
 .debug_aranges
                0x00000780       0x20 /home/leon/git/swp-report/iMX6_Platform_SDK/output/mx6sdl/sdk_unit_test/smart_device_rev_a/libsdk_unit_test.a(spi_lpb.o)
 .debug_aranges
                0x000007a0       0x20 /home/leon/git/swp-report/iMX6_Platform_SDK/output/mx6sdl/sdk_unit_test/smart_device_rev_a/libsdk_unit_test.a(uart_loopback.o)
 .debug_aranges
                0x000007c0       0x20 /home/leon/git/swp-report/iMX6_Platform_SDK/output/mx6sdl/sdk_unit_test/smart_device_rev_a/libsdk_unit_test.a(uart_test.o)
 .debug_aranges
                0x000007e0       0x20 /home/leon/git/swp-report/iMX6_Platform_SDK/output/mx6sdl/sdk_unit_test/smart_device_rev_a/libsdk_unit_test.a(epit_test.o)
 .debug_aranges
                0x00000800       0x20 /home/leon/git/swp-report/iMX6_Platform_SDK/output/mx6sdl/sdk_unit_test/smart_device_rev_a/libsdk_unit_test.a(gpt_test.o)
 .debug_aranges
                0x00000820       0x20 /home/leon/git/swp-report/iMX6_Platform_SDK/output/mx6sdl/sdk_unit_test/smart_device_rev_a/libsdk_unit_test.a(timer_test.o)
 .debug_aranges
                0x00000840       0x20 /home/leon/git/swp-report/iMX6_Platform_SDK/output/mx6sdl/sdk_unit_test/smart_device_rev_a/libsdk_unit_test.a(usdhc_test.o)
 .debug_aranges
                0x00000860       0x20 /home/leon/git/swp-report/iMX6_Platform_SDK/output/mx6sdl/sdk_unit_test/smart_device_rev_a/libsdk_unit_test.a(watchdog_test.o)
 .debug_aranges
                0x00000880       0x20 /home/leon/git/swp-report/iMX6_Platform_SDK/output/mx6sdl/sdk_unit_test/smart_device_rev_a/libsdk_unit_test.a(pwm_test.o)
 .debug_aranges
                0x000008a0       0x20 /home/leon/git/swp-report/iMX6_Platform_SDK/output/mx6sdl/sdk_unit_test/smart_device_rev_a/libsdk_unit_test.a(hdmi_test.o)
 .debug_aranges
                0x000008c0       0x20 /home/leon/git/swp-report/iMX6_Platform_SDK/output/mx6sdl/sdk_unit_test/smart_device_rev_a/libsdk_unit_test.a(ips_display.o)
 .debug_aranges
                0x000008e0       0x20 /home/leon/git/swp-report/iMX6_Platform_SDK/output/mx6sdl/sdk_unit_test/smart_device_rev_a/libsdk_unit_test.a(ips_test.o)
 .debug_aranges
                0x00000900       0x20 /home/leon/git/swp-report/iMX6_Platform_SDK/output/mx6sdl/sdk_unit_test/smart_device_rev_a/libsdk_unit_test.a(ipu_image.o)
 .debug_aranges
                0x00000920       0x20 /home/leon/git/swp-report/iMX6_Platform_SDK/output/mx6sdl/sdk_unit_test/smart_device_rev_a/libsdk_unit_test.a(keypad_test.o)
 .debug_aranges
                0x00000940       0x20 /home/leon/git/swp-report/iMX6_Platform_SDK/output/mx6sdl/sdk_unit_test/smart_device_rev_a/libsdk_unit_test.a(camera_test.o)
 .debug_aranges
                0x00000960       0x20 /home/leon/git/swp-report/iMX6_Platform_SDK/output/mx6sdl/sdk_unit_test/smart_device_rev_a/libsdk_unit_test.a(csi_test_mode.o)
 .debug_aranges
                0x00000980       0x20 /home/leon/git/swp-report/iMX6_Platform_SDK/output/mx6sdl/sdk_unit_test/smart_device_rev_a/libsdk_unit_test.a(sensor_capture.o)
 .debug_aranges
                0x000009a0       0x20 /home/leon/git/swp-report/iMX6_Platform_SDK/output/mx6sdl/sdk_unit_test/smart_device_rev_a/libsdk_unit_test.a(pcie_test_rc.o)
 .debug_aranges
                0x000009c0       0x20 /home/leon/git/swp-report/iMX6_Platform_SDK/output/mx6sdl/sdk_unit_test/smart_device_rev_a/libsdk_unit_test.a(usb_test.o)
 .debug_aranges
                0x000009e0       0x20 /home/leon/git/swp-report/iMX6_Platform_SDK/output/mx6sdl/sdk_unit_test/smart_device_rev_a/libsdk_unit_test.a(enet_test.o)
 .debug_aranges
                0x00000a00       0x20 /home/leon/git/swp-report/iMX6_Platform_SDK/output/mx6sdl/sdk_unit_test/smart_device_rev_a/libsdk_unit_test.a(spi_test.o)
 .debug_aranges
                0x00000a20       0x20 /home/leon/git/swp-report/iMX6_Platform_SDK/output/mx6sdl/sdk_unit_test/smart_device_rev_a/libsdk_unit_test.a(accelerometer_test.o)
 .debug_aranges
                0x00000a40       0x20 /home/leon/git/swp-report/iMX6_Platform_SDK/output/mx6sdl/sdk_unit_test/smart_device_rev_a/libsdk_unit_test.a(at24cxx.o)
 .debug_aranges
                0x00000a60       0x20 /home/leon/git/swp-report/iMX6_Platform_SDK/output/mx6sdl/sdk_unit_test/smart_device_rev_a/libsdk_unit_test.a(mem_2_mem.o)
 .debug_aranges
                0x00000a80       0x20 /home/leon/git/swp-report/iMX6_Platform_SDK/output/mx6sdl/sdk_unit_test/smart_device_rev_a/libsdk_unit_test.a(pwm_output.o)
 .debug_aranges
                0x00000aa0       0x20 /home/leon/git/swp-report/iMX6_Platform_SDK/output/mx6sdl/sdk_unit_test/smart_device_rev_a/libsdk_unit_test.a(init_dma_data.o)
 .debug_aranges
                0x00000ac0       0x20 /home/leon/git/swp-report/iMX6_Platform_SDK/output/mx6sdl/sdk_unit_test/smart_device_rev_a/libsdk_unit_test.a(ips_combiner.o)
 .debug_aranges
                0x00000ae0       0x20 /home/leon/git/swp-report/iMX6_Platform_SDK/output/mx6sdl/sdk_unit_test/smart_device_rev_a/libsdk_unit_test.a(ips_csc.o)
 .debug_aranges
                0x00000b00       0x20 /home/leon/git/swp-report/iMX6_Platform_SDK/output/mx6sdl/sdk_unit_test/smart_device_rev_a/libsdk_unit_test.a(ips_resize.o)
 .debug_aranges
                0x00000b20       0x20 /home/leon/git/swp-report/iMX6_Platform_SDK/output/mx6sdl/sdk_unit_test/smart_device_rev_a/libsdk_unit_test.a(ips_rotate.o)
 .debug_aranges
                0x00000b40       0x20 /home/leon/git/swp-report/iMX6_Platform_SDK/output/mx6sdl/sdk_unit_test/smart_device_rev_a/libsdk_unit_test.a(usb0_device_mouse_test.o)
 .debug_aranges
                0x00000b60       0x20 /home/leon/git/swp-report/iMX6_Platform_SDK/output/mx6sdl/sdk_unit_test/smart_device_rev_a/libsdk_unit_test.a(usb0_host_test.o)
 .debug_aranges
                0x00000b80       0x20 /home/leon/git/swp-report/iMX6_Platform_SDK/output/mx6sdl/sdk_unit_test/smart_device_rev_a/libsdk_unit_test.a(usb0_host_testmodes_test.o)
 .debug_aranges
                0x00000ba0       0x20 /home/leon/git/swp-report/iMX6_Platform_SDK/output/mx6sdl/sdk_unit_test/smart_device_rev_a/libsdk_unit_test.a(spi_nor_numonyx.o)
 .debug_aranges
                0x00000bc0       0x20 /home/leon/git/swp-report/iMX6_Platform_SDK/output/mx6sdl/lib/libsdk.a(profile.o)
 .debug_aranges
                0x00000be0       0x20 /home/leon/git/swp-report/iMX6_Platform_SDK/output/mx6sdl/lib/libsdk.a(armv7_cache.o)
 .debug_aranges
                0x00000c00       0x20 /home/leon/git/swp-report/iMX6_Platform_SDK/output/mx6sdl/lib/libsdk.a(runtime_support.o)
 .debug_aranges
                0x00000c20       0x20 /home/leon/git/swp-report/iMX6_Platform_SDK/output/mx6sdl/lib/libsdk.a(mma8451.o)
 .debug_aranges
                0x00000c40       0x20 /home/leon/git/swp-report/iMX6_Platform_SDK/output/mx6sdl/lib/libsdk.a(smd_sensor.o)
 .debug_aranges
                0x00000c60       0x20 /home/leon/git/swp-report/iMX6_Platform_SDK/output/mx6sdl/lib/libsdk.a(cpu_get_cores.o)
 .debug_aranges
                0x00000c80       0x20 /home/leon/git/swp-report/iMX6_Platform_SDK/output/mx6sdl/lib/libsdk.a(cpu_multicore.o)
 .debug_aranges
                0x00000ca0       0x20 /home/leon/git/swp-report/iMX6_Platform_SDK/output/mx6sdl/lib/libsdk.a(cpu_workpoint.o)
 .debug_aranges
                0x00000cc0       0x20 /home/leon/git/swp-report/iMX6_Platform_SDK/output/mx6sdl/lib/libsdk.a(enet_drv.o)
 .debug_aranges
                0x00000ce0       0x20 /home/leon/git/swp-report/iMX6_Platform_SDK/output/mx6sdl/lib/libsdk.a(gpio.o)
 .debug_aranges
                0x00000d00       0x18 /home/leon/git/swp-report/iMX6_Platform_SDK/output/mx6sdl/lib/libsdk.a(imx6sdl_gpio_map.o)
 .debug_aranges
                0x00000d18       0x20 /home/leon/git/swp-report/iMX6_Platform_SDK/output/mx6sdl/lib/libsdk.a(hdmi_tx.o)
 .debug_aranges
                0x00000d38       0x20 /home/leon/git/swp-report/iMX6_Platform_SDK/output/mx6sdl/lib/libsdk.a(hdmi_tx_audio.o)
 .debug_aranges
                0x00000d58       0x20 /home/leon/git/swp-report/iMX6_Platform_SDK/output/mx6sdl/lib/libsdk.a(hdmi_tx_phy.o)
 .debug_aranges
                0x00000d78       0x20 /home/leon/git/swp-report/iMX6_Platform_SDK/output/mx6sdl/lib/libsdk.a(imx_i2c.o)
 .debug_aranges
                0x00000d98       0x20 /home/leon/git/swp-report/iMX6_Platform_SDK/output/mx6sdl/lib/libsdk.a(imx_i2c_slave.o)
 .debug_aranges
                0x00000db8       0x20 /home/leon/git/swp-report/iMX6_Platform_SDK/output/mx6sdl/lib/libsdk.a(ips_disp_panel.o)
 .debug_aranges
                0x00000dd8       0x20 /home/leon/git/swp-report/iMX6_Platform_SDK/output/mx6sdl/lib/libsdk.a(ipu_common.o)
 .debug_aranges
                0x00000df8       0x20 /home/leon/git/swp-report/iMX6_Platform_SDK/output/mx6sdl/lib/libsdk.a(ipu_csi.o)
 .debug_aranges
                0x00000e18       0x20 /home/leon/git/swp-report/iMX6_Platform_SDK/output/mx6sdl/lib/libsdk.a(ipu_dc.o)
 .debug_aranges
                0x00000e38       0x20 /home/leon/git/swp-report/iMX6_Platform_SDK/output/mx6sdl/lib/libsdk.a(ipu_di.o)
 .debug_aranges
                0x00000e58       0x20 /home/leon/git/swp-report/iMX6_Platform_SDK/output/mx6sdl/lib/libsdk.a(ipu_dmfc.o)
 .debug_aranges
                0x00000e78       0x20 /home/leon/git/swp-report/iMX6_Platform_SDK/output/mx6sdl/lib/libsdk.a(ipu_dp.o)
 .debug_aranges
                0x00000e98       0x20 /home/leon/git/swp-report/iMX6_Platform_SDK/output/mx6sdl/lib/libsdk.a(ipu_ic.o)
 .debug_aranges
                0x00000eb8       0x20 /home/leon/git/swp-report/iMX6_Platform_SDK/output/mx6sdl/lib/libsdk.a(ipu_idmac.o)
 .debug_aranges
                0x00000ed8       0x20 /home/leon/git/swp-report/iMX6_Platform_SDK/output/mx6sdl/lib/libsdk.a(ipu_vdi.o)
 .debug_aranges
                0x00000ef8       0x20 /home/leon/git/swp-report/iMX6_Platform_SDK/output/mx6sdl/lib/libsdk.a(keypad_port.o)
 .debug_aranges
                0x00000f18       0x20 /home/leon/git/swp-report/iMX6_Platform_SDK/output/mx6sdl/lib/libsdk.a(ldb.o)
 .debug_aranges
                0x00000f38       0x20 /home/leon/git/swp-report/iMX6_Platform_SDK/output/mx6sdl/lib/libsdk.a(ocotp.o)
 .debug_aranges
                0x00000f58       0x20 /home/leon/git/swp-report/iMX6_Platform_SDK/output/mx6sdl/lib/libsdk.a(pcie.o)
 .debug_aranges
                0x00000f78       0x20 /home/leon/git/swp-report/iMX6_Platform_SDK/output/mx6sdl/lib/libsdk.a(pcie_phy.o)
 .debug_aranges
                0x00000f98       0x20 /home/leon/git/swp-report/iMX6_Platform_SDK/output/mx6sdl/lib/libsdk.a(pcie_prot.o)
 .debug_aranges
                0x00000fb8      0x150 /home/leon/git/swp-report/iMX6_Platform_SDK/output/mx6sdl/lib/libsdk.a(pmu_driver.o)
 .debug_aranges
                0x00001108       0x20 /home/leon/git/swp-report/iMX6_Platform_SDK/output/mx6sdl/lib/libsdk.a(pwm.o)
 .debug_aranges
                0x00001128       0x20 /home/leon/git/swp-report/iMX6_Platform_SDK/output/mx6sdl/lib/libsdk.a(rtc.o)
 .debug_aranges
                0x00001148       0x20 /home/leon/git/swp-report/iMX6_Platform_SDK/output/mx6sdl/lib/libsdk.a(srtc.o)
 .debug_aranges
                0x00001168       0x20 /home/leon/git/swp-report/iMX6_Platform_SDK/output/mx6sdl/lib/libsdk.a(sdma.o)
 .debug_aranges
                0x00001188       0x18 /home/leon/git/swp-report/iMX6_Platform_SDK/output/mx6sdl/lib/libsdk.a(sdma_script_info.o)
 .debug_aranges
                0x000011a0       0x20 /home/leon/git/swp-report/iMX6_Platform_SDK/output/mx6sdl/lib/libsdk.a(snvs.o)
 .debug_aranges
                0x000011c0       0x20 /home/leon/git/swp-report/iMX6_Platform_SDK/output/mx6sdl/lib/libsdk.a(ecspi.o)
 .debug_aranges
                0x000011e0       0x20 /home/leon/git/swp-report/iMX6_Platform_SDK/output/mx6sdl/lib/libsdk.a(tempmon.o)
 .debug_aranges
                0x00001200       0x20 /home/leon/git/swp-report/iMX6_Platform_SDK/output/mx6sdl/lib/libsdk.a(gpt.o)
 .debug_aranges
                0x00001220       0x20 /home/leon/git/swp-report/iMX6_Platform_SDK/output/mx6sdl/lib/libsdk.a(usb_common.o)
 .debug_aranges
                0x00001240       0x20 /home/leon/git/swp-report/iMX6_Platform_SDK/output/mx6sdl/lib/libsdk.a(usbd_drv.o)
 .debug_aranges
                0x00001260       0x20 /home/leon/git/swp-report/iMX6_Platform_SDK/output/mx6sdl/lib/libsdk.a(usbh_drv.o)
 .debug_aranges
                0x00001280       0x20 /home/leon/git/swp-report/iMX6_Platform_SDK/output/mx6sdl/lib/libsdk.a(usdhc.o)
 .debug_aranges
                0x000012a0       0x20 /home/leon/git/swp-report/iMX6_Platform_SDK/output/mx6sdl/lib/libsdk.a(usdhc_host.o)
 .debug_aranges
                0x000012c0       0x20 /home/leon/git/swp-report/iMX6_Platform_SDK/output/mx6sdl/lib/libsdk.a(usdhc_mmc.o)
 .debug_aranges
                0x000012e0       0x20 /home/leon/git/swp-report/iMX6_Platform_SDK/output/mx6sdl/lib/libsdk.a(usdhc_sd.o)
 .debug_aranges
                0x00001300       0x20 /home/leon/git/swp-report/iMX6_Platform_SDK/output/mx6sdl/lib/libsdk.a(spinlock.o)
 .debug_aranges
                0x00001320       0x18 /home/leon/git/swp-report/iMX6_Platform_SDK/output/mx6sdl/lib/libsdk.a(camera_profile.o)
 .debug_aranges
                0x00001338       0x20 /home/leon/git/swp-report/iMX6_Platform_SDK/output/mx6sdl/lib/libsdk.a(hdmi_common.o)
 .debug_aranges
                0x00001358       0x20 /home/leon/git/swp-report/iMX6_Platform_SDK/output/mx6sdl/lib/libsdk.a(mx6x_usb.o)
 .debug_aranges
                0x00001378       0x20 /home/leon/git/swp-report/iMX6_Platform_SDK/output/mx6sdl/lib/libboard_smart_device_rev_a.a(board_audio.o)
 .debug_aranges
                0x00001398       0x20 /home/leon/git/swp-report/iMX6_Platform_SDK/output/mx6sdl/lib/libboard_smart_device_rev_a.a(board_camera.o)
 .debug_aranges
                0x000013b8       0x20 /home/leon/git/swp-report/iMX6_Platform_SDK/output/mx6sdl/lib/libboard_smart_device_rev_a.a(board_display.o)
 .debug_aranges
                0x000013d8       0x20 /home/leon/git/swp-report/iMX6_Platform_SDK/output/mx6sdl/lib/libboard_smart_device_rev_a.a(board_hdmi.o)
 .debug_aranges
                0x000013f8       0x18 /home/leon/git/swp-report/iMX6_Platform_SDK/output/mx6sdl/lib/libboard_smart_device_rev_a.a(board_i2c.o)
 .debug_aranges
                0x00001410       0x20 /home/leon/git/swp-report/iMX6_Platform_SDK/output/mx6sdl/lib/libboard_smart_device_rev_a.a(board_mipi.o)
 .debug_aranges
                0x00001430       0x20 /home/leon/git/swp-report/iMX6_Platform_SDK/output/mx6sdl/lib/libboard_smart_device_rev_a.a(board_network.o)
 .debug_aranges
                0x00001450       0x20 /home/leon/git/swp-report/iMX6_Platform_SDK/output/mx6sdl/lib/libboard_smart_device_rev_a.a(board_pcie.o)
 .debug_aranges
                0x00001470       0x20 /home/leon/git/swp-report/iMX6_Platform_SDK/output/mx6sdl/lib/libboard_smart_device_rev_a.a(board_usb.o)
 .debug_aranges
                0x00001490       0x20 /home/leon/git/swp-report/iMX6_Platform_SDK/output/mx6sdl/lib/libboard_smart_device_rev_a.a(board_usdhc.o)
 .debug_aranges
                0x000014b0       0x20 /home/leon/git/swp-report/iMX6_Platform_SDK/output/mx6sdl/lib/libboard_smart_device_rev_a.a(ecspi_iomux_config.o)
 .debug_aranges
                0x000014d0       0x20 /home/leon/git/swp-report/iMX6_Platform_SDK/output/mx6sdl/lib/libboard_smart_device_rev_a.a(i2c_iomux_config.o)
 .debug_aranges
                0x000014f0       0x20 /home/leon/git/swp-report/iMX6_Platform_SDK/output/mx6sdl/lib/libboard_smart_device_rev_a.a(pwm_iomux_config.o)
 .debug_aranges
                0x00001510       0x20 /home/leon/git/swp-report/iMX6_Platform_SDK/output/mx6sdl/lib/libboard_smart_device_rev_a.a(usdhc_iomux_config.o)

.debug_line     0x00000000    0x1ad65
 .debug_line    0x00000000      0x103 /home/leon/git/swp-report/iMX6_Platform_SDK/output/mx6sdl/sdk_unit_test/smart_device_rev_a/obj/apps/common/ivt.o
 .debug_line    0x00000103      0x1bc /home/leon/git/swp-report/iMX6_Platform_SDK/output/mx6sdl/sdk_unit_test/smart_device_rev_a/obj/apps/common/platform_init.o
 .debug_line    0x000002bf      0x171 /home/leon/git/swp-report/iMX6_Platform_SDK/output/mx6sdl/sdk_unit_test/smart_device_rev_a/obj/apps/common/print_clock_info.o
 .debug_line    0x00000430      0x17f /home/leon/git/swp-report/iMX6_Platform_SDK/output/mx6sdl/sdk_unit_test/smart_device_rev_a/obj/apps/common/print_version.o
 .debug_line    0x000005af       0xc7 /home/leon/git/swp-report/iMX6_Platform_SDK/output/mx6sdl/sdk_unit_test/smart_device_rev_a/obj/apps/sdk_unit_test/src/all_test.o
 .debug_line    0x00000676       0x8a /home/leon/git/swp-report/iMX6_Platform_SDK/output/mx6sdl/sdk_unit_test/smart_device_rev_a/obj/apps/sdk_unit_test/src/unit_test_main.o
 .debug_line    0x00000700      0x26d /home/leon/git/swp-report/iMX6_Platform_SDK/output/mx6sdl/lib/libsdk.a(ccm_pll.o)
 .debug_line    0x0000096d      0x165 /home/leon/git/swp-report/iMX6_Platform_SDK/output/mx6sdl/lib/libsdk.a(gic.o)
 .debug_line    0x00000ad2      0x188 /home/leon/git/swp-report/iMX6_Platform_SDK/output/mx6sdl/lib/libsdk.a(mmu.o)
 .debug_line    0x00000c5a      0x2e0 /home/leon/git/swp-report/iMX6_Platform_SDK/output/mx6sdl/lib/libsdk.a(menu.o)
 .debug_line    0x00000f3a       0x6a /home/leon/git/swp-report/iMX6_Platform_SDK/output/mx6sdl/lib/libsdk.a(sdk_version.o)
 .debug_line    0x00000fa4      0x366 /home/leon/git/swp-report/iMX6_Platform_SDK/output/mx6sdl/lib/libsdk.a(system_util.o)
 .debug_line    0x0000130a       0xf0 /home/leon/git/swp-report/iMX6_Platform_SDK/output/mx6sdl/lib/libsdk.a(text_color.o)
 .debug_line    0x000013fa      0x279 /home/leon/git/swp-report/iMX6_Platform_SDK/output/mx6sdl/lib/libsdk.a(board_id.o)
 .debug_line    0x00001673      0x201 /home/leon/git/swp-report/iMX6_Platform_SDK/output/mx6sdl/lib/libsdk.a(timer.o)
 .debug_line    0x00001874     0x12cc /home/leon/git/swp-report/iMX6_Platform_SDK/output/mx6sdl/lib/libsdk.a(imx_uart.o)
 .debug_line    0x00002b40      0x181 /home/leon/git/swp-report/iMX6_Platform_SDK/output/mx6sdl/lib/libsdk.a(interrupt.o)
 .debug_line    0x00002cc1      0x581 /home/leon/git/swp-report/iMX6_Platform_SDK/output/mx6sdl/lib/libsdk.a(epit.o)
 .debug_line    0x00003242      0x24a /home/leon/git/swp-report/iMX6_Platform_SDK/output/mx6sdl/lib/libsdk.a(abort_handler.o)
 .debug_line    0x0000348c      0x129 /home/leon/git/swp-report/iMX6_Platform_SDK/output/mx6sdl/lib/libboard_smart_device_rev_a.a(board_io_expanders.o)
 .debug_line    0x000035b5       0xc8 /home/leon/git/swp-report/iMX6_Platform_SDK/output/mx6sdl/lib/libboard_smart_device_rev_a.a(hardware_modules.o)
 .debug_line    0x0000367d      0x111 /home/leon/git/swp-report/iMX6_Platform_SDK/output/mx6sdl/lib/libboard_smart_device_rev_a.a(dcd.o)
 .debug_line    0x0000378e       0x9e /home/leon/git/swp-report/iMX6_Platform_SDK/output/mx6sdl/lib/libboard_smart_device_rev_a.a(uart_iomux_config.o)
 .debug_line    0x0000382c       0xfb /home/leon/git/swp-report/iMX6_Platform_SDK/output/mx6sdl/lib/libboard_smart_device_rev_a.a(iomux_config.o)
 .debug_line    0x00003927      0x1eb /home/leon/git/swp-report/iMX6_Platform_SDK/output/mx6sdl/lib/libboard_smart_device_rev_a.a(ipu1_iomux_config.o)
 .debug_line    0x00003b12      0x13a /home/leon/git/swp-report/iMX6_Platform_SDK/output/mx6sdl/lib/libboard_smart_device_rev_a.a(kpp_iomux_config.o)
 .debug_line    0x00003c4c      0x5db /home/leon/git/swp-report/iMX6_Platform_SDK/output/mx6sdl/lib/libboard_smart_device_rev_a.a(mmdc_iomux_config.o)
 .debug_line    0x00004227      0x101 /home/leon/git/swp-report/iMX6_Platform_SDK/output/mx6sdl/lib/libboard_smart_device_rev_a.a(pwm1_iomux_config.o)
 .debug_line    0x00004328      0x10a /home/leon/git/swp-report/iMX6_Platform_SDK/output/mx6sdl/lib/libboard_smart_device_rev_a.a(sjc_iomux_config.o)
 .debug_line    0x00004432      0x10c /home/leon/git/swp-report/iMX6_Platform_SDK/output/mx6sdl/lib/libboard_smart_device_rev_a.a(uart1_iomux_config.o)
 .debug_line    0x0000453e      0x13c /home/leon/git/swp-report/iMX6_Platform_SDK/output/mx6sdl/lib/libboard_smart_device_rev_a.a(usdhc2_iomux_config.o)
 .debug_line    0x0000467a      0x13c /home/leon/git/swp-report/iMX6_Platform_SDK/output/mx6sdl/lib/libboard_smart_device_rev_a.a(usdhc3_iomux_config.o)
 .debug_line    0x000047b6      0x13c /home/leon/git/swp-report/iMX6_Platform_SDK/output/mx6sdl/lib/libboard_smart_device_rev_a.a(usdhc4_iomux_config.o)
 .debug_line    0x000048f2      0x115 /home/leon/git/swp-report/iMX6_Platform_SDK/output/mx6sdl/lib/libboard_smart_device_rev_a.a(audmux_iomux_config.o)
 .debug_line    0x00004a07       0xfe /home/leon/git/swp-report/iMX6_Platform_SDK/output/mx6sdl/lib/libboard_smart_device_rev_a.a(ccm_iomux_config.o)
 .debug_line    0x00004b05      0x11f /home/leon/git/swp-report/iMX6_Platform_SDK/output/mx6sdl/lib/libboard_smart_device_rev_a.a(ecspi1_iomux_config.o)
 .debug_line    0x00004c24      0x19e /home/leon/git/swp-report/iMX6_Platform_SDK/output/mx6sdl/lib/libboard_smart_device_rev_a.a(enet_iomux_config.o)
 .debug_line    0x00004dc2      0x221 /home/leon/git/swp-report/iMX6_Platform_SDK/output/mx6sdl/lib/libboard_smart_device_rev_a.a(epdc_iomux_config.o)
 .debug_line    0x00004fe3      0x10e /home/leon/git/swp-report/iMX6_Platform_SDK/output/mx6sdl/lib/libboard_smart_device_rev_a.a(flexcan1_iomux_config.o)
 .debug_line    0x000050f1      0x162 /home/leon/git/swp-report/iMX6_Platform_SDK/output/mx6sdl/lib/libboard_smart_device_rev_a.a(gpio1_iomux_config.o)
 .debug_line    0x00005253      0x138 /home/leon/git/swp-report/iMX6_Platform_SDK/output/mx6sdl/lib/libboard_smart_device_rev_a.a(gpio2_iomux_config.o)
 .debug_line    0x0000538b      0x162 /home/leon/git/swp-report/iMX6_Platform_SDK/output/mx6sdl/lib/libboard_smart_device_rev_a.a(gpio3_iomux_config.o)
 .debug_line    0x000054ed      0x114 /home/leon/git/swp-report/iMX6_Platform_SDK/output/mx6sdl/lib/libboard_smart_device_rev_a.a(gpio4_iomux_config.o)
 .debug_line    0x00005601      0x108 /home/leon/git/swp-report/iMX6_Platform_SDK/output/mx6sdl/lib/libboard_smart_device_rev_a.a(gpio5_iomux_config.o)
 .debug_line    0x00005709      0x132 /home/leon/git/swp-report/iMX6_Platform_SDK/output/mx6sdl/lib/libboard_smart_device_rev_a.a(gpio6_iomux_config.o)
 .debug_line    0x0000583b      0x10e /home/leon/git/swp-report/iMX6_Platform_SDK/output/mx6sdl/lib/libboard_smart_device_rev_a.a(gpio7_iomux_config.o)
 .debug_line    0x00005949      0x11c /home/leon/git/swp-report/iMX6_Platform_SDK/output/mx6sdl/lib/libboard_smart_device_rev_a.a(gps_iomux_config.o)
 .debug_line    0x00005a65      0x10b /home/leon/git/swp-report/iMX6_Platform_SDK/output/mx6sdl/lib/libboard_smart_device_rev_a.a(i2c1_iomux_config.o)
 .debug_line    0x00005b70      0x10b /home/leon/git/swp-report/iMX6_Platform_SDK/output/mx6sdl/lib/libboard_smart_device_rev_a.a(i2c2_iomux_config.o)
 .debug_line    0x00005c7b      0x10b /home/leon/git/swp-report/iMX6_Platform_SDK/output/mx6sdl/lib/libboard_smart_device_rev_a.a(i2c3_iomux_config.o)
 .debug_line    0x00005d86      0x1f5 /home/leon/git/swp-report/iMX6_Platform_SDK/output/mx6sdl/sdk_unit_test/smart_device_rev_a/libsdk_unit_test.a(cpu_wp_test.o)
 .debug_line    0x00005f7b      0x1a5 /home/leon/git/swp-report/iMX6_Platform_SDK/output/mx6sdl/sdk_unit_test/smart_device_rev_a/libsdk_unit_test.a(multicore_test.o)
 .debug_line    0x00006120      0x1fb /home/leon/git/swp-report/iMX6_Platform_SDK/output/mx6sdl/sdk_unit_test/smart_device_rev_a/libsdk_unit_test.a(audio_test.o)
 .debug_line    0x0000631b      0x126 /home/leon/git/swp-report/iMX6_Platform_SDK/output/mx6sdl/sdk_unit_test/smart_device_rev_a/libsdk_unit_test.a(gic_test.o)
 .debug_line    0x00006441      0x1dc /home/leon/git/swp-report/iMX6_Platform_SDK/output/mx6sdl/sdk_unit_test/smart_device_rev_a/libsdk_unit_test.a(ocotp_test.o)
 .debug_line    0x0000661d      0x1a9 /home/leon/git/swp-report/iMX6_Platform_SDK/output/mx6sdl/sdk_unit_test/smart_device_rev_a/libsdk_unit_test.a(snvs_rtc_test.o)
 .debug_line    0x000067c6      0x18b /home/leon/git/swp-report/iMX6_Platform_SDK/output/mx6sdl/sdk_unit_test/smart_device_rev_a/libsdk_unit_test.a(snvs_srtc_test.o)
 .debug_line    0x00006951      0x176 /home/leon/git/swp-report/iMX6_Platform_SDK/output/mx6sdl/sdk_unit_test/smart_device_rev_a/libsdk_unit_test.a(i2c_test.o)
 .debug_line    0x00006ac7      0x2dd /home/leon/git/swp-report/iMX6_Platform_SDK/output/mx6sdl/sdk_unit_test/smart_device_rev_a/libsdk_unit_test.a(imx6_i2c_device.o)
 .debug_line    0x00006da4      0x181 /home/leon/git/swp-report/iMX6_Platform_SDK/output/mx6sdl/sdk_unit_test/smart_device_rev_a/libsdk_unit_test.a(tempmon_test.o)
 .debug_line    0x00006f25      0x1a6 /home/leon/git/swp-report/iMX6_Platform_SDK/output/mx6sdl/sdk_unit_test/smart_device_rev_a/libsdk_unit_test.a(sdma_test.o)
 .debug_line    0x000070cb      0x217 /home/leon/git/swp-report/iMX6_Platform_SDK/output/mx6sdl/sdk_unit_test/smart_device_rev_a/libsdk_unit_test.a(spi_lpb.o)
 .debug_line    0x000072e2      0x313 /home/leon/git/swp-report/iMX6_Platform_SDK/output/mx6sdl/sdk_unit_test/smart_device_rev_a/libsdk_unit_test.a(uart_loopback.o)
 .debug_line    0x000075f5      0x217 /home/leon/git/swp-report/iMX6_Platform_SDK/output/mx6sdl/sdk_unit_test/smart_device_rev_a/libsdk_unit_test.a(uart_test.o)
 .debug_line    0x0000780c      0x23f /home/leon/git/swp-report/iMX6_Platform_SDK/output/mx6sdl/sdk_unit_test/smart_device_rev_a/libsdk_unit_test.a(epit_test.o)
 .debug_line    0x00007a4b      0x2d4 /home/leon/git/swp-report/iMX6_Platform_SDK/output/mx6sdl/sdk_unit_test/smart_device_rev_a/libsdk_unit_test.a(gpt_test.o)
 .debug_line    0x00007d1f       0xe6 /home/leon/git/swp-report/iMX6_Platform_SDK/output/mx6sdl/sdk_unit_test/smart_device_rev_a/libsdk_unit_test.a(timer_test.o)
 .debug_line    0x00007e05      0x395 /home/leon/git/swp-report/iMX6_Platform_SDK/output/mx6sdl/sdk_unit_test/smart_device_rev_a/libsdk_unit_test.a(usdhc_test.o)
 .debug_line    0x0000819a      0x1eb /home/leon/git/swp-report/iMX6_Platform_SDK/output/mx6sdl/sdk_unit_test/smart_device_rev_a/libsdk_unit_test.a(watchdog_test.o)
 .debug_line    0x00008385      0x1db /home/leon/git/swp-report/iMX6_Platform_SDK/output/mx6sdl/sdk_unit_test/smart_device_rev_a/libsdk_unit_test.a(pwm_test.o)
 .debug_line    0x00008560      0x293 /home/leon/git/swp-report/iMX6_Platform_SDK/output/mx6sdl/sdk_unit_test/smart_device_rev_a/libsdk_unit_test.a(hdmi_test.o)
 .debug_line    0x000087f3      0x401 /home/leon/git/swp-report/iMX6_Platform_SDK/output/mx6sdl/sdk_unit_test/smart_device_rev_a/libsdk_unit_test.a(ips_display.o)
 .debug_line    0x00008bf4      0x1f4 /home/leon/git/swp-report/iMX6_Platform_SDK/output/mx6sdl/sdk_unit_test/smart_device_rev_a/libsdk_unit_test.a(ips_test.o)
 .debug_line    0x00008de8      0x1e5 /home/leon/git/swp-report/iMX6_Platform_SDK/output/mx6sdl/sdk_unit_test/smart_device_rev_a/libsdk_unit_test.a(ipu_image.o)
 .debug_line    0x00008fcd      0x1b2 /home/leon/git/swp-report/iMX6_Platform_SDK/output/mx6sdl/sdk_unit_test/smart_device_rev_a/libsdk_unit_test.a(keypad_test.o)
 .debug_line    0x0000917f      0x1e3 /home/leon/git/swp-report/iMX6_Platform_SDK/output/mx6sdl/sdk_unit_test/smart_device_rev_a/libsdk_unit_test.a(camera_test.o)
 .debug_line    0x00009362      0x28d /home/leon/git/swp-report/iMX6_Platform_SDK/output/mx6sdl/sdk_unit_test/smart_device_rev_a/libsdk_unit_test.a(csi_test_mode.o)
 .debug_line    0x000095ef      0x28c /home/leon/git/swp-report/iMX6_Platform_SDK/output/mx6sdl/sdk_unit_test/smart_device_rev_a/libsdk_unit_test.a(sensor_capture.o)
 .debug_line    0x0000987b      0x25d /home/leon/git/swp-report/iMX6_Platform_SDK/output/mx6sdl/sdk_unit_test/smart_device_rev_a/libsdk_unit_test.a(pcie_test_rc.o)
 .debug_line    0x00009ad8       0xef /home/leon/git/swp-report/iMX6_Platform_SDK/output/mx6sdl/sdk_unit_test/smart_device_rev_a/libsdk_unit_test.a(usb_test.o)
 .debug_line    0x00009bc7      0x283 /home/leon/git/swp-report/iMX6_Platform_SDK/output/mx6sdl/sdk_unit_test/smart_device_rev_a/libsdk_unit_test.a(enet_test.o)
 .debug_line    0x00009e4a      0x243 /home/leon/git/swp-report/iMX6_Platform_SDK/output/mx6sdl/sdk_unit_test/smart_device_rev_a/libsdk_unit_test.a(spi_test.o)
 .debug_line    0x0000a08d      0x2c9 /home/leon/git/swp-report/iMX6_Platform_SDK/output/mx6sdl/sdk_unit_test/smart_device_rev_a/libsdk_unit_test.a(accelerometer_test.o)
 .debug_line    0x0000a356      0x1f5 /home/leon/git/swp-report/iMX6_Platform_SDK/output/mx6sdl/sdk_unit_test/smart_device_rev_a/libsdk_unit_test.a(at24cxx.o)
 .debug_line    0x0000a54b      0x1c4 /home/leon/git/swp-report/iMX6_Platform_SDK/output/mx6sdl/sdk_unit_test/smart_device_rev_a/libsdk_unit_test.a(mem_2_mem.o)
 .debug_line    0x0000a70f      0x19d /home/leon/git/swp-report/iMX6_Platform_SDK/output/mx6sdl/sdk_unit_test/smart_device_rev_a/libsdk_unit_test.a(pwm_output.o)
 .debug_line    0x0000a8ac      0x157 /home/leon/git/swp-report/iMX6_Platform_SDK/output/mx6sdl/sdk_unit_test/smart_device_rev_a/libsdk_unit_test.a(init_dma_data.o)
 .debug_line    0x0000aa03      0x20f /home/leon/git/swp-report/iMX6_Platform_SDK/output/mx6sdl/sdk_unit_test/smart_device_rev_a/libsdk_unit_test.a(ips_combiner.o)
 .debug_line    0x0000ac12      0x21e /home/leon/git/swp-report/iMX6_Platform_SDK/output/mx6sdl/sdk_unit_test/smart_device_rev_a/libsdk_unit_test.a(ips_csc.o)
 .debug_line    0x0000ae30      0x249 /home/leon/git/swp-report/iMX6_Platform_SDK/output/mx6sdl/sdk_unit_test/smart_device_rev_a/libsdk_unit_test.a(ips_resize.o)
 .debug_line    0x0000b079      0x1fd /home/leon/git/swp-report/iMX6_Platform_SDK/output/mx6sdl/sdk_unit_test/smart_device_rev_a/libsdk_unit_test.a(ips_rotate.o)
 .debug_line    0x0000b276      0x619 /home/leon/git/swp-report/iMX6_Platform_SDK/output/mx6sdl/sdk_unit_test/smart_device_rev_a/libsdk_unit_test.a(usb0_device_mouse_test.o)
 .debug_line    0x0000b88f     0x10e0 /home/leon/git/swp-report/iMX6_Platform_SDK/output/mx6sdl/sdk_unit_test/smart_device_rev_a/libsdk_unit_test.a(usb0_host_test.o)
 .debug_line    0x0000c96f      0x4c9 /home/leon/git/swp-report/iMX6_Platform_SDK/output/mx6sdl/sdk_unit_test/smart_device_rev_a/libsdk_unit_test.a(usb0_host_testmodes_test.o)
 .debug_line    0x0000ce38      0x22d /home/leon/git/swp-report/iMX6_Platform_SDK/output/mx6sdl/sdk_unit_test/smart_device_rev_a/libsdk_unit_test.a(spi_nor_numonyx.o)
 .debug_line    0x0000d065       0x86 /home/leon/git/swp-report/iMX6_Platform_SDK/output/mx6sdl/lib/libsdk.a(profile.o)
 .debug_line    0x0000d0eb      0x1aa /home/leon/git/swp-report/iMX6_Platform_SDK/output/mx6sdl/lib/libsdk.a(armv7_cache.o)
 .debug_line    0x0000d295      0x234 /home/leon/git/swp-report/iMX6_Platform_SDK/output/mx6sdl/lib/libsdk.a(runtime_support.o)
 .debug_line    0x0000d4c9      0x22f /home/leon/git/swp-report/iMX6_Platform_SDK/output/mx6sdl/lib/libsdk.a(mma8451.o)
 .debug_line    0x0000d6f8      0x262 /home/leon/git/swp-report/iMX6_Platform_SDK/output/mx6sdl/lib/libsdk.a(smd_sensor.o)
 .debug_line    0x0000d95a      0x1a9 /home/leon/git/swp-report/iMX6_Platform_SDK/output/mx6sdl/lib/libsdk.a(cpu_get_cores.o)
 .debug_line    0x0000db03      0x1d1 /home/leon/git/swp-report/iMX6_Platform_SDK/output/mx6sdl/lib/libsdk.a(cpu_multicore.o)
 .debug_line    0x0000dcd4      0x21a /home/leon/git/swp-report/iMX6_Platform_SDK/output/mx6sdl/lib/libsdk.a(cpu_workpoint.o)
 .debug_line    0x0000deee      0x37a /home/leon/git/swp-report/iMX6_Platform_SDK/output/mx6sdl/lib/libsdk.a(enet_drv.o)
 .debug_line    0x0000e268      0x7bb /home/leon/git/swp-report/iMX6_Platform_SDK/output/mx6sdl/lib/libsdk.a(gpio.o)
 .debug_line    0x0000ea23       0xd0 /home/leon/git/swp-report/iMX6_Platform_SDK/output/mx6sdl/lib/libsdk.a(imx6sdl_gpio_map.o)
 .debug_line    0x0000eaf3      0x2cb /home/leon/git/swp-report/iMX6_Platform_SDK/output/mx6sdl/lib/libsdk.a(hdmi_tx.o)
 .debug_line    0x0000edbe      0x2cc /home/leon/git/swp-report/iMX6_Platform_SDK/output/mx6sdl/lib/libsdk.a(hdmi_tx_audio.o)
 .debug_line    0x0000f08a      0x2eb /home/leon/git/swp-report/iMX6_Platform_SDK/output/mx6sdl/lib/libsdk.a(hdmi_tx_phy.o)
 .debug_line    0x0000f375      0x9c0 /home/leon/git/swp-report/iMX6_Platform_SDK/output/mx6sdl/lib/libsdk.a(imx_i2c.o)
 .debug_line    0x0000fd35      0x577 /home/leon/git/swp-report/iMX6_Platform_SDK/output/mx6sdl/lib/libsdk.a(imx_i2c_slave.o)
 .debug_line    0x000102ac      0x22d /home/leon/git/swp-report/iMX6_Platform_SDK/output/mx6sdl/lib/libsdk.a(ips_disp_panel.o)
 .debug_line    0x000104d9      0x30b /home/leon/git/swp-report/iMX6_Platform_SDK/output/mx6sdl/lib/libsdk.a(ipu_common.o)
 .debug_line    0x000107e4      0x1d0 /home/leon/git/swp-report/iMX6_Platform_SDK/output/mx6sdl/lib/libsdk.a(ipu_csi.o)
 .debug_line    0x000109b4      0x30d /home/leon/git/swp-report/iMX6_Platform_SDK/output/mx6sdl/lib/libsdk.a(ipu_dc.o)
 .debug_line    0x00010cc1      0x243 /home/leon/git/swp-report/iMX6_Platform_SDK/output/mx6sdl/lib/libsdk.a(ipu_di.o)
 .debug_line    0x00010f04      0x14b /home/leon/git/swp-report/iMX6_Platform_SDK/output/mx6sdl/lib/libsdk.a(ipu_dmfc.o)
 .debug_line    0x0001104f      0x17e /home/leon/git/swp-report/iMX6_Platform_SDK/output/mx6sdl/lib/libsdk.a(ipu_dp.o)
 .debug_line    0x000111cd      0x2f5 /home/leon/git/swp-report/iMX6_Platform_SDK/output/mx6sdl/lib/libsdk.a(ipu_ic.o)
 .debug_line    0x000114c2      0x98a /home/leon/git/swp-report/iMX6_Platform_SDK/output/mx6sdl/lib/libsdk.a(ipu_idmac.o)
 .debug_line    0x00011e4c      0x18e /home/leon/git/swp-report/iMX6_Platform_SDK/output/mx6sdl/lib/libsdk.a(ipu_vdi.o)
 .debug_line    0x00011fda      0x28c /home/leon/git/swp-report/iMX6_Platform_SDK/output/mx6sdl/lib/libsdk.a(keypad_port.o)
 .debug_line    0x00012266      0x1df /home/leon/git/swp-report/iMX6_Platform_SDK/output/mx6sdl/lib/libsdk.a(ldb.o)
 .debug_line    0x00012445      0x1ae /home/leon/git/swp-report/iMX6_Platform_SDK/output/mx6sdl/lib/libsdk.a(ocotp.o)
 .debug_line    0x000125f3      0x1f6 /home/leon/git/swp-report/iMX6_Platform_SDK/output/mx6sdl/lib/libsdk.a(pcie.o)
 .debug_line    0x000127e9      0x183 /home/leon/git/swp-report/iMX6_Platform_SDK/output/mx6sdl/lib/libsdk.a(pcie_phy.o)
 .debug_line    0x0001296c      0x197 /home/leon/git/swp-report/iMX6_Platform_SDK/output/mx6sdl/lib/libsdk.a(pcie_prot.o)
 .debug_line    0x00012b03      0x912 /home/leon/git/swp-report/iMX6_Platform_SDK/output/mx6sdl/lib/libsdk.a(pmu_driver.o)
 .debug_line    0x00013415      0x5ee /home/leon/git/swp-report/iMX6_Platform_SDK/output/mx6sdl/lib/libsdk.a(pwm.o)
 .debug_line    0x00013a03      0x255 /home/leon/git/swp-report/iMX6_Platform_SDK/output/mx6sdl/lib/libsdk.a(rtc.o)
 .debug_line    0x00013c58      0x23a /home/leon/git/swp-report/iMX6_Platform_SDK/output/mx6sdl/lib/libsdk.a(srtc.o)
 .debug_line    0x00013e92      0x402 /home/leon/git/swp-report/iMX6_Platform_SDK/output/mx6sdl/lib/libsdk.a(sdma.o)
 .debug_line    0x00014294      0x14a /home/leon/git/swp-report/iMX6_Platform_SDK/output/mx6sdl/lib/libsdk.a(sdma_script_info.o)
 .debug_line    0x000143de      0x1bf /home/leon/git/swp-report/iMX6_Platform_SDK/output/mx6sdl/lib/libsdk.a(snvs.o)
 .debug_line    0x0001459d      0x85b /home/leon/git/swp-report/iMX6_Platform_SDK/output/mx6sdl/lib/libsdk.a(ecspi.o)
 .debug_line    0x00014df8      0x27b /home/leon/git/swp-report/iMX6_Platform_SDK/output/mx6sdl/lib/libsdk.a(tempmon.o)
 .debug_line    0x00015073      0x281 /home/leon/git/swp-report/iMX6_Platform_SDK/output/mx6sdl/lib/libsdk.a(gpt.o)
 .debug_line    0x000152f4      0x2a9 /home/leon/git/swp-report/iMX6_Platform_SDK/output/mx6sdl/lib/libsdk.a(usb_common.o)
 .debug_line    0x0001559d      0xcc5 /home/leon/git/swp-report/iMX6_Platform_SDK/output/mx6sdl/lib/libsdk.a(usbd_drv.o)
 .debug_line    0x00016262     0x1253 /home/leon/git/swp-report/iMX6_Platform_SDK/output/mx6sdl/lib/libsdk.a(usbh_drv.o)
 .debug_line    0x000174b5      0x380 /home/leon/git/swp-report/iMX6_Platform_SDK/output/mx6sdl/lib/libsdk.a(usdhc.o)
 .debug_line    0x00017835     0x14a5 /home/leon/git/swp-report/iMX6_Platform_SDK/output/mx6sdl/lib/libsdk.a(usdhc_host.o)
 .debug_line    0x00018cda      0x348 /home/leon/git/swp-report/iMX6_Platform_SDK/output/mx6sdl/lib/libsdk.a(usdhc_mmc.o)
 .debug_line    0x00019022      0x202 /home/leon/git/swp-report/iMX6_Platform_SDK/output/mx6sdl/lib/libsdk.a(usdhc_sd.o)
 .debug_line    0x00019224      0x11f /home/leon/git/swp-report/iMX6_Platform_SDK/output/mx6sdl/lib/libsdk.a(spinlock.o)
 .debug_line    0x00019343      0x11f /home/leon/git/swp-report/iMX6_Platform_SDK/output/mx6sdl/lib/libsdk.a(camera_profile.o)
 .debug_line    0x00019462      0x59e /home/leon/git/swp-report/iMX6_Platform_SDK/output/mx6sdl/lib/libsdk.a(hdmi_common.o)
 .debug_line    0x00019a00      0x271 /home/leon/git/swp-report/iMX6_Platform_SDK/output/mx6sdl/lib/libsdk.a(mx6x_usb.o)
 .debug_line    0x00019c71      0x17c /home/leon/git/swp-report/iMX6_Platform_SDK/output/mx6sdl/lib/libboard_smart_device_rev_a.a(board_audio.o)
 .debug_line    0x00019ded      0x241 /home/leon/git/swp-report/iMX6_Platform_SDK/output/mx6sdl/lib/libboard_smart_device_rev_a.a(board_camera.o)
 .debug_line    0x0001a02e      0x194 /home/leon/git/swp-report/iMX6_Platform_SDK/output/mx6sdl/lib/libboard_smart_device_rev_a.a(board_display.o)
 .debug_line    0x0001a1c2      0x172 /home/leon/git/swp-report/iMX6_Platform_SDK/output/mx6sdl/lib/libboard_smart_device_rev_a.a(board_hdmi.o)
 .debug_line    0x0001a334      0x10a /home/leon/git/swp-report/iMX6_Platform_SDK/output/mx6sdl/lib/libboard_smart_device_rev_a.a(board_i2c.o)
 .debug_line    0x0001a43e      0x17d /home/leon/git/swp-report/iMX6_Platform_SDK/output/mx6sdl/lib/libboard_smart_device_rev_a.a(board_mipi.o)
 .debug_line    0x0001a5bb       0xd3 /home/leon/git/swp-report/iMX6_Platform_SDK/output/mx6sdl/lib/libboard_smart_device_rev_a.a(board_network.o)
 .debug_line    0x0001a68e      0x209 /home/leon/git/swp-report/iMX6_Platform_SDK/output/mx6sdl/lib/libboard_smart_device_rev_a.a(board_pcie.o)
 .debug_line    0x0001a897      0x121 /home/leon/git/swp-report/iMX6_Platform_SDK/output/mx6sdl/lib/libboard_smart_device_rev_a.a(board_usb.o)
 .debug_line    0x0001a9b8      0x139 /home/leon/git/swp-report/iMX6_Platform_SDK/output/mx6sdl/lib/libboard_smart_device_rev_a.a(board_usdhc.o)
 .debug_line    0x0001aaf1       0x9e /home/leon/git/swp-report/iMX6_Platform_SDK/output/mx6sdl/lib/libboard_smart_device_rev_a.a(ecspi_iomux_config.o)
 .debug_line    0x0001ab8f       0x9c /home/leon/git/swp-report/iMX6_Platform_SDK/output/mx6sdl/lib/libboard_smart_device_rev_a.a(i2c_iomux_config.o)
 .debug_line    0x0001ac2b       0x9c /home/leon/git/swp-report/iMX6_Platform_SDK/output/mx6sdl/lib/libboard_smart_device_rev_a.a(pwm_iomux_config.o)
 .debug_line    0x0001acc7       0x9e /home/leon/git/swp-report/iMX6_Platform_SDK/output/mx6sdl/lib/libboard_smart_device_rev_a.a(usdhc_iomux_config.o)

.debug_str      0x00000000    0x27289
 .debug_str     0x00000000      0x141 /home/leon/git/swp-report/iMX6_Platform_SDK/output/mx6sdl/sdk_unit_test/smart_device_rev_a/obj/apps/common/ivt.o
                                0x1ad (size before relaxing)
 .debug_str     0x00000141      0x1f4 /home/leon/git/swp-report/iMX6_Platform_SDK/output/mx6sdl/sdk_unit_test/smart_device_rev_a/obj/apps/common/platform_init.o
                                0x2a3 (size before relaxing)
 .debug_str     0x00000335      0x170 /home/leon/git/swp-report/iMX6_Platform_SDK/output/mx6sdl/sdk_unit_test/smart_device_rev_a/obj/apps/common/print_clock_info.o
                                0x277 (size before relaxing)
 .debug_str     0x000004a5      0x11a /home/leon/git/swp-report/iMX6_Platform_SDK/output/mx6sdl/sdk_unit_test/smart_device_rev_a/obj/apps/common/print_version.o
                                0x20c (size before relaxing)
 .debug_str     0x000005bf      0x1ee /home/leon/git/swp-report/iMX6_Platform_SDK/output/mx6sdl/sdk_unit_test/smart_device_rev_a/obj/apps/sdk_unit_test/src/all_test.o
                                0x2d1 (size before relaxing)
 .debug_str     0x000007ad       0x54 /home/leon/git/swp-report/iMX6_Platform_SDK/output/mx6sdl/sdk_unit_test/smart_device_rev_a/obj/apps/sdk_unit_test/src/unit_test_main.o
                                0x140 (size before relaxing)
 .debug_str     0x00000801      0xe6f /home/leon/git/swp-report/iMX6_Platform_SDK/output/mx6sdl/lib/libsdk.a(ccm_pll.o)
                               0x109a (size before relaxing)
 .debug_str     0x00001670      0x4e1 /home/leon/git/swp-report/iMX6_Platform_SDK/output/mx6sdl/lib/libsdk.a(gic.o)
                                0x5f2 (size before relaxing)
 .debug_str     0x00001b51      0x1a8 /home/leon/git/swp-report/iMX6_Platform_SDK/output/mx6sdl/lib/libsdk.a(mmu.o)
                                0x35e (size before relaxing)
 .debug_str     0x00001cf9      0x5e9 /home/leon/git/swp-report/iMX6_Platform_SDK/output/mx6sdl/lib/libsdk.a(menu.o)
                                0x85d (size before relaxing)
 .debug_str     0x000022e2       0x4a /home/leon/git/swp-report/iMX6_Platform_SDK/output/mx6sdl/lib/libsdk.a(sdk_version.o)
                                 0x82 (size before relaxing)
 .debug_str     0x0000232c      0x10f /home/leon/git/swp-report/iMX6_Platform_SDK/output/mx6sdl/lib/libsdk.a(system_util.o)
                                0x7ac (size before relaxing)
 .debug_str     0x0000243b      0x19c /home/leon/git/swp-report/iMX6_Platform_SDK/output/mx6sdl/lib/libsdk.a(text_color.o)
                                0x305 (size before relaxing)
 .debug_str     0x000025d7      0x21c /home/leon/git/swp-report/iMX6_Platform_SDK/output/mx6sdl/lib/libsdk.a(board_id.o)
                                0x3d2 (size before relaxing)
 .debug_str     0x000027f3      0x2ba /home/leon/git/swp-report/iMX6_Platform_SDK/output/mx6sdl/lib/libsdk.a(timer.o)
                                0x3f8 (size before relaxing)
 .debug_str     0x00002aad     0x104c /home/leon/git/swp-report/iMX6_Platform_SDK/output/mx6sdl/lib/libsdk.a(imx_uart.o)
                               0x12ee (size before relaxing)
 .debug_str     0x00003af9       0xd7 /home/leon/git/swp-report/iMX6_Platform_SDK/output/mx6sdl/lib/libsdk.a(interrupt.o)
                                0xc85 (size before relaxing)
 .debug_str     0x00003bd0      0x283 /home/leon/git/swp-report/iMX6_Platform_SDK/output/mx6sdl/lib/libsdk.a(epit.o)
                                0xf06 (size before relaxing)
 .debug_str     0x00003e53       0xbc /home/leon/git/swp-report/iMX6_Platform_SDK/output/mx6sdl/lib/libsdk.a(abort_handler.o)
                                0x1a1 (size before relaxing)
 .debug_str     0x00003f0f      0x13d /home/leon/git/swp-report/iMX6_Platform_SDK/output/mx6sdl/lib/libboard_smart_device_rev_a.a(board_io_expanders.o)
                                0x240 (size before relaxing)
 .debug_str     0x0000404c       0x4c /home/leon/git/swp-report/iMX6_Platform_SDK/output/mx6sdl/lib/libboard_smart_device_rev_a.a(hardware_modules.o)
                                0x152 (size before relaxing)
 .debug_str     0x00004098       0xb3 /home/leon/git/swp-report/iMX6_Platform_SDK/output/mx6sdl/lib/libboard_smart_device_rev_a.a(dcd.o)
                                0x162 (size before relaxing)
 .debug_str     0x0000414b       0xca /home/leon/git/swp-report/iMX6_Platform_SDK/output/mx6sdl/lib/libboard_smart_device_rev_a.a(uart_iomux_config.o)
                                0x180 (size before relaxing)
 .debug_str     0x00004215      0x33d /home/leon/git/swp-report/iMX6_Platform_SDK/output/mx6sdl/lib/libboard_smart_device_rev_a.a(iomux_config.o)
                                0x367 (size before relaxing)
 .debug_str     0x00004552     0x27de /home/leon/git/swp-report/iMX6_Platform_SDK/output/mx6sdl/lib/libboard_smart_device_rev_a.a(ipu1_iomux_config.o)
                               0x285f (size before relaxing)
 .debug_str     0x00006d30      0xa08 /home/leon/git/swp-report/iMX6_Platform_SDK/output/mx6sdl/lib/libboard_smart_device_rev_a.a(kpp_iomux_config.o)
                                0xa85 (size before relaxing)
 .debug_str     0x00007738     0x1dee /home/leon/git/swp-report/iMX6_Platform_SDK/output/mx6sdl/lib/libboard_smart_device_rev_a.a(mmdc_iomux_config.o)
                               0x1e61 (size before relaxing)
 .debug_str     0x00009526      0x166 /home/leon/git/swp-report/iMX6_Platform_SDK/output/mx6sdl/lib/libboard_smart_device_rev_a.a(pwm1_iomux_config.o)
                                0x1e3 (size before relaxing)
 .debug_str     0x0000968c      0x334 /home/leon/git/swp-report/iMX6_Platform_SDK/output/mx6sdl/lib/libboard_smart_device_rev_a.a(sjc_iomux_config.o)
                                0x3a3 (size before relaxing)
 .debug_str     0x000099c0      0x2fa /home/leon/git/swp-report/iMX6_Platform_SDK/output/mx6sdl/lib/libboard_smart_device_rev_a.a(uart1_iomux_config.o)
                                0x37d (size before relaxing)
 .debug_str     0x00009cba      0xa6c /home/leon/git/swp-report/iMX6_Platform_SDK/output/mx6sdl/lib/libboard_smart_device_rev_a.a(usdhc2_iomux_config.o)
                                0xaef (size before relaxing)
 .debug_str     0x0000a726      0xa3c /home/leon/git/swp-report/iMX6_Platform_SDK/output/mx6sdl/lib/libboard_smart_device_rev_a.a(usdhc3_iomux_config.o)
                                0xabf (size before relaxing)
 .debug_str     0x0000b162      0xa3c /home/leon/git/swp-report/iMX6_Platform_SDK/output/mx6sdl/lib/libboard_smart_device_rev_a.a(usdhc4_iomux_config.o)
                                0xabf (size before relaxing)
 .debug_str     0x0000bb9e      0x464 /home/leon/git/swp-report/iMX6_Platform_SDK/output/mx6sdl/lib/libboard_smart_device_rev_a.a(audmux_iomux_config.o)
                                0x4e1 (size before relaxing)
 .debug_str     0x0000c002      0x152 /home/leon/git/swp-report/iMX6_Platform_SDK/output/mx6sdl/lib/libboard_smart_device_rev_a.a(ccm_iomux_config.o)
                                0x1cf (size before relaxing)
 .debug_str     0x0000c154      0x60a /home/leon/git/swp-report/iMX6_Platform_SDK/output/mx6sdl/lib/libboard_smart_device_rev_a.a(ecspi1_iomux_config.o)
                                0x68d (size before relaxing)
 .debug_str     0x0000c75e     0x1361 /home/leon/git/swp-report/iMX6_Platform_SDK/output/mx6sdl/lib/libboard_smart_device_rev_a.a(enet_iomux_config.o)
                               0x13f8 (size before relaxing)
 .debug_str     0x0000dabf     0x2dc4 /home/leon/git/swp-report/iMX6_Platform_SDK/output/mx6sdl/lib/libboard_smart_device_rev_a.a(epdc_iomux_config.o)
                               0x2e41 (size before relaxing)
 .debug_str     0x00010883      0x2af /home/leon/git/swp-report/iMX6_Platform_SDK/output/mx6sdl/lib/libboard_smart_device_rev_a.a(flexcan1_iomux_config.o)
                                0x332 (size before relaxing)
 .debug_str     0x00010b32      0xcde /home/leon/git/swp-report/iMX6_Platform_SDK/output/mx6sdl/lib/libboard_smart_device_rev_a.a(gpio1_iomux_config.o)
                               0x10cb (size before relaxing)
 .debug_str     0x00011810      0x544 /home/leon/git/swp-report/iMX6_Platform_SDK/output/mx6sdl/lib/libboard_smart_device_rev_a.a(gpio2_iomux_config.o)
                                0xa5b (size before relaxing)
 .debug_str     0x00011d54      0x262 /home/leon/git/swp-report/iMX6_Platform_SDK/output/mx6sdl/lib/libboard_smart_device_rev_a.a(gpio3_iomux_config.o)
                               0x10d7 (size before relaxing)
 .debug_str     0x00011fb6      0x24a /home/leon/git/swp-report/iMX6_Platform_SDK/output/mx6sdl/lib/libboard_smart_device_rev_a.a(gpio4_iomux_config.o)
                                0x48b (size before relaxing)
 .debug_str     0x00012200      0x162 /home/leon/git/swp-report/iMX6_Platform_SDK/output/mx6sdl/lib/libboard_smart_device_rev_a.a(gpio5_iomux_config.o)
                                0x2d3 (size before relaxing)
 .debug_str     0x00012362      0x7fc /home/leon/git/swp-report/iMX6_Platform_SDK/output/mx6sdl/lib/libboard_smart_device_rev_a.a(gpio6_iomux_config.o)
                                0x961 (size before relaxing)
 .debug_str     0x00012b5e      0x320 /home/leon/git/swp-report/iMX6_Platform_SDK/output/mx6sdl/lib/libboard_smart_device_rev_a.a(gpio7_iomux_config.o)
                                0x39d (size before relaxing)
 .debug_str     0x00012e7e      0x102 /home/leon/git/swp-report/iMX6_Platform_SDK/output/mx6sdl/lib/libboard_smart_device_rev_a.a(gps_iomux_config.o)
                                0x62b (size before relaxing)
 .debug_str     0x00012f80      0x35a /home/leon/git/swp-report/iMX6_Platform_SDK/output/mx6sdl/lib/libboard_smart_device_rev_a.a(i2c1_iomux_config.o)
                                0x3dd (size before relaxing)
 .debug_str     0x000132da      0x336 /home/leon/git/swp-report/iMX6_Platform_SDK/output/mx6sdl/lib/libboard_smart_device_rev_a.a(i2c2_iomux_config.o)
                                0x3b9 (size before relaxing)
 .debug_str     0x00013610      0x31e /home/leon/git/swp-report/iMX6_Platform_SDK/output/mx6sdl/lib/libboard_smart_device_rev_a.a(i2c3_iomux_config.o)
                                0x3a1 (size before relaxing)
 .debug_str     0x0001392e      0x16f /home/leon/git/swp-report/iMX6_Platform_SDK/output/mx6sdl/sdk_unit_test/smart_device_rev_a/libsdk_unit_test.a(cpu_wp_test.o)
                                0x304 (size before relaxing)
 .debug_str     0x00013a9d       0xf8 /home/leon/git/swp-report/iMX6_Platform_SDK/output/mx6sdl/sdk_unit_test/smart_device_rev_a/libsdk_unit_test.a(multicore_test.o)
                                0xcab (size before relaxing)
 .debug_str     0x00013b95      0x218 /home/leon/git/swp-report/iMX6_Platform_SDK/output/mx6sdl/sdk_unit_test/smart_device_rev_a/libsdk_unit_test.a(audio_test.o)
                                0x6a4 (size before relaxing)
 .debug_str     0x00013dad       0xa9 /home/leon/git/swp-report/iMX6_Platform_SDK/output/mx6sdl/sdk_unit_test/smart_device_rev_a/libsdk_unit_test.a(gic_test.o)
                                0xc7d (size before relaxing)
 .debug_str     0x00013e56       0xa3 /home/leon/git/swp-report/iMX6_Platform_SDK/output/mx6sdl/sdk_unit_test/smart_device_rev_a/libsdk_unit_test.a(ocotp_test.o)
                                0x521 (size before relaxing)
 .debug_str     0x00013ef9       0xeb /home/leon/git/swp-report/iMX6_Platform_SDK/output/mx6sdl/sdk_unit_test/smart_device_rev_a/libsdk_unit_test.a(snvs_rtc_test.o)
                                0x585 (size before relaxing)
 .debug_str     0x00013fe4       0x96 /home/leon/git/swp-report/iMX6_Platform_SDK/output/mx6sdl/sdk_unit_test/smart_device_rev_a/libsdk_unit_test.a(snvs_srtc_test.o)
                                0x558 (size before relaxing)
 .debug_str     0x0001407a       0x96 /home/leon/git/swp-report/iMX6_Platform_SDK/output/mx6sdl/sdk_unit_test/smart_device_rev_a/libsdk_unit_test.a(i2c_test.o)
                                0x505 (size before relaxing)
 .debug_str     0x00014110      0x188 /home/leon/git/swp-report/iMX6_Platform_SDK/output/mx6sdl/sdk_unit_test/smart_device_rev_a/libsdk_unit_test.a(imx6_i2c_device.o)
                                0x702 (size before relaxing)
 .debug_str     0x00014298       0xe4 /home/leon/git/swp-report/iMX6_Platform_SDK/output/mx6sdl/sdk_unit_test/smart_device_rev_a/libsdk_unit_test.a(tempmon_test.o)
                                0x556 (size before relaxing)
 .debug_str     0x0001437c       0xb1 /home/leon/git/swp-report/iMX6_Platform_SDK/output/mx6sdl/sdk_unit_test/smart_device_rev_a/libsdk_unit_test.a(sdma_test.o)
                                0x527 (size before relaxing)
 .debug_str     0x0001442d      0x3a9 /home/leon/git/swp-report/iMX6_Platform_SDK/output/mx6sdl/sdk_unit_test/smart_device_rev_a/libsdk_unit_test.a(spi_lpb.o)
                                0x4ee (size before relaxing)
 .debug_str     0x000147d6      0x11c /home/leon/git/swp-report/iMX6_Platform_SDK/output/mx6sdl/sdk_unit_test/smart_device_rev_a/libsdk_unit_test.a(uart_loopback.o)
                                0x5de (size before relaxing)
 .debug_str     0x000148f2      0x100 /home/leon/git/swp-report/iMX6_Platform_SDK/output/mx6sdl/sdk_unit_test/smart_device_rev_a/libsdk_unit_test.a(uart_test.o)
                                0x6aa (size before relaxing)
 .debug_str     0x000149f2       0xe5 /home/leon/git/swp-report/iMX6_Platform_SDK/output/mx6sdl/sdk_unit_test/smart_device_rev_a/libsdk_unit_test.a(epit_test.o)
                                0x66a (size before relaxing)
 .debug_str     0x00014ad7      0x272 /home/leon/git/swp-report/iMX6_Platform_SDK/output/mx6sdl/sdk_unit_test/smart_device_rev_a/libsdk_unit_test.a(gpt_test.o)
                                0x954 (size before relaxing)
 .debug_str     0x00014d49       0x74 /home/leon/git/swp-report/iMX6_Platform_SDK/output/mx6sdl/sdk_unit_test/smart_device_rev_a/libsdk_unit_test.a(timer_test.o)
                                0x16d (size before relaxing)
 .debug_str     0x00014dbd      0x1aa /home/leon/git/swp-report/iMX6_Platform_SDK/output/mx6sdl/sdk_unit_test/smart_device_rev_a/libsdk_unit_test.a(usdhc_test.o)
                                0x6cf (size before relaxing)
 .debug_str     0x00014f67       0xd3 /home/leon/git/swp-report/iMX6_Platform_SDK/output/mx6sdl/sdk_unit_test/smart_device_rev_a/libsdk_unit_test.a(watchdog_test.o)
                                0x552 (size before relaxing)
 .debug_str     0x0001503a       0xbc /home/leon/git/swp-report/iMX6_Platform_SDK/output/mx6sdl/sdk_unit_test/smart_device_rev_a/libsdk_unit_test.a(pwm_test.o)
                                0x5b2 (size before relaxing)
 .debug_str     0x000150f6      0xa40 /home/leon/git/swp-report/iMX6_Platform_SDK/output/mx6sdl/sdk_unit_test/smart_device_rev_a/libsdk_unit_test.a(hdmi_test.o)
                               0x1613 (size before relaxing)
 .debug_str     0x00015b36      0x44c /home/leon/git/swp-report/iMX6_Platform_SDK/output/mx6sdl/sdk_unit_test/smart_device_rev_a/libsdk_unit_test.a(ips_display.o)
                                0x92c (size before relaxing)
 .debug_str     0x00015f82       0x6a /home/leon/git/swp-report/iMX6_Platform_SDK/output/mx6sdl/sdk_unit_test/smart_device_rev_a/libsdk_unit_test.a(ips_test.o)
                                0x673 (size before relaxing)
 .debug_str     0x00015fec      0x113 /home/leon/git/swp-report/iMX6_Platform_SDK/output/mx6sdl/sdk_unit_test/smart_device_rev_a/libsdk_unit_test.a(ipu_image.o)
                                0x33d (size before relaxing)
 .debug_str     0x000160ff       0xe7 /home/leon/git/swp-report/iMX6_Platform_SDK/output/mx6sdl/sdk_unit_test/smart_device_rev_a/libsdk_unit_test.a(keypad_test.o)
                                0x557 (size before relaxing)
 .debug_str     0x000161e6       0xe2 /home/leon/git/swp-report/iMX6_Platform_SDK/output/mx6sdl/sdk_unit_test/smart_device_rev_a/libsdk_unit_test.a(camera_test.o)
                                0x5f7 (size before relaxing)
 .debug_str     0x000162c8       0xee /home/leon/git/swp-report/iMX6_Platform_SDK/output/mx6sdl/sdk_unit_test/smart_device_rev_a/libsdk_unit_test.a(csi_test_mode.o)
                                0x784 (size before relaxing)
 .debug_str     0x000163b6      0x145 /home/leon/git/swp-report/iMX6_Platform_SDK/output/mx6sdl/sdk_unit_test/smart_device_rev_a/libsdk_unit_test.a(sensor_capture.o)
                                0x8a3 (size before relaxing)
 .debug_str     0x000164fb      0x2f0 /home/leon/git/swp-report/iMX6_Platform_SDK/output/mx6sdl/sdk_unit_test/smart_device_rev_a/libsdk_unit_test.a(pcie_test_rc.o)
                                0x782 (size before relaxing)
 .debug_str     0x000167eb      0x165 /home/leon/git/swp-report/iMX6_Platform_SDK/output/mx6sdl/sdk_unit_test/smart_device_rev_a/libsdk_unit_test.a(usb_test.o)
                                0x20e (size before relaxing)
 .debug_str     0x00016950      0xe0e /home/leon/git/swp-report/iMX6_Platform_SDK/output/mx6sdl/sdk_unit_test/smart_device_rev_a/libsdk_unit_test.a(enet_test.o)
                               0x1036 (size before relaxing)
 .debug_str     0x0001775e      0x165 /home/leon/git/swp-report/iMX6_Platform_SDK/output/mx6sdl/sdk_unit_test/smart_device_rev_a/libsdk_unit_test.a(spi_test.o)
                                0x613 (size before relaxing)
 .debug_str     0x000178c3      0x183 /home/leon/git/swp-report/iMX6_Platform_SDK/output/mx6sdl/sdk_unit_test/smart_device_rev_a/libsdk_unit_test.a(accelerometer_test.o)
                                0x642 (size before relaxing)
 .debug_str     0x00017a46       0xac /home/leon/git/swp-report/iMX6_Platform_SDK/output/mx6sdl/sdk_unit_test/smart_device_rev_a/libsdk_unit_test.a(at24cxx.o)
                                0x2df (size before relaxing)
 .debug_str     0x00017af2       0x83 /home/leon/git/swp-report/iMX6_Platform_SDK/output/mx6sdl/sdk_unit_test/smart_device_rev_a/libsdk_unit_test.a(mem_2_mem.o)
                                0x4f5 (size before relaxing)
 .debug_str     0x00017b75      0x156 /home/leon/git/swp-report/iMX6_Platform_SDK/output/mx6sdl/sdk_unit_test/smart_device_rev_a/libsdk_unit_test.a(pwm_output.o)
                                0x289 (size before relaxing)
 .debug_str     0x00017ccb      0x136 /home/leon/git/swp-report/iMX6_Platform_SDK/output/mx6sdl/sdk_unit_test/smart_device_rev_a/libsdk_unit_test.a(init_dma_data.o)
                                0x2b0 (size before relaxing)
 .debug_str     0x00017e01       0x9e /home/leon/git/swp-report/iMX6_Platform_SDK/output/mx6sdl/sdk_unit_test/smart_device_rev_a/libsdk_unit_test.a(ips_combiner.o)
                                0x7ba (size before relaxing)
 .debug_str     0x00017e9f      0x3f5 /home/leon/git/swp-report/iMX6_Platform_SDK/output/mx6sdl/sdk_unit_test/smart_device_rev_a/libsdk_unit_test.a(ips_csc.o)
                                0xb2e (size before relaxing)
 .debug_str     0x00018294       0xde /home/leon/git/swp-report/iMX6_Platform_SDK/output/mx6sdl/sdk_unit_test/smart_device_rev_a/libsdk_unit_test.a(ips_resize.o)
                                0xb5a (size before relaxing)
 .debug_str     0x00018372       0x5e /home/leon/git/swp-report/iMX6_Platform_SDK/output/mx6sdl/sdk_unit_test/smart_device_rev_a/libsdk_unit_test.a(ips_rotate.o)
                                0xaf0 (size before relaxing)
 .debug_str     0x000183d0      0xc3a /home/leon/git/swp-report/iMX6_Platform_SDK/output/mx6sdl/sdk_unit_test/smart_device_rev_a/libsdk_unit_test.a(usb0_device_mouse_test.o)
                               0x121f (size before relaxing)
 .debug_str     0x0001900a      0x466 /home/leon/git/swp-report/iMX6_Platform_SDK/output/mx6sdl/sdk_unit_test/smart_device_rev_a/libsdk_unit_test.a(usb0_host_test.o)
                                0xa0b (size before relaxing)
 .debug_str     0x00019470       0x84 /home/leon/git/swp-report/iMX6_Platform_SDK/output/mx6sdl/sdk_unit_test/smart_device_rev_a/libsdk_unit_test.a(usb0_host_testmodes_test.o)
                                0x370 (size before relaxing)
 .debug_str     0x000194f4      0x138 /home/leon/git/swp-report/iMX6_Platform_SDK/output/mx6sdl/sdk_unit_test/smart_device_rev_a/libsdk_unit_test.a(spi_nor_numonyx.o)
                                0x2af (size before relaxing)
 .debug_str     0x0001962c       0x6a /home/leon/git/swp-report/iMX6_Platform_SDK/output/mx6sdl/lib/libsdk.a(profile.o)
                                 0x8b (size before relaxing)
 .debug_str     0x00019696      0x1e7 /home/leon/git/swp-report/iMX6_Platform_SDK/output/mx6sdl/lib/libsdk.a(armv7_cache.o)
                                0x2aa (size before relaxing)
 .debug_str     0x0001987d      0x204 /home/leon/git/swp-report/iMX6_Platform_SDK/output/mx6sdl/lib/libsdk.a(runtime_support.o)
                                0x3ac (size before relaxing)
 .debug_str     0x00019a81      0x316 /home/leon/git/swp-report/iMX6_Platform_SDK/output/mx6sdl/lib/libsdk.a(mma8451.o)
                                0x4e1 (size before relaxing)
 .debug_str     0x00019d97      0x27b /home/leon/git/swp-report/iMX6_Platform_SDK/output/mx6sdl/lib/libsdk.a(smd_sensor.o)
                                0x524 (size before relaxing)
 .debug_str     0x0001a012      0x118 /home/leon/git/swp-report/iMX6_Platform_SDK/output/mx6sdl/lib/libsdk.a(cpu_get_cores.o)
                                0x20a (size before relaxing)
 .debug_str     0x0001a12a      0x259 /home/leon/git/swp-report/iMX6_Platform_SDK/output/mx6sdl/lib/libsdk.a(cpu_multicore.o)
                                0x39e (size before relaxing)
 .debug_str     0x0001a383      0x461 /home/leon/git/swp-report/iMX6_Platform_SDK/output/mx6sdl/lib/libsdk.a(cpu_workpoint.o)
                                0x627 (size before relaxing)
 .debug_str     0x0001a7e4      0x2b1 /home/leon/git/swp-report/iMX6_Platform_SDK/output/mx6sdl/lib/libsdk.a(enet_drv.o)
                               0x1153 (size before relaxing)
 .debug_str     0x0001aa95      0x37a /home/leon/git/swp-report/iMX6_Platform_SDK/output/mx6sdl/lib/libsdk.a(gpio.o)
                                0x48b (size before relaxing)
 .debug_str     0x0001ae0f       0x54 /home/leon/git/swp-report/iMX6_Platform_SDK/output/mx6sdl/lib/libsdk.a(imx6sdl_gpio_map.o)
                                0x10b (size before relaxing)
 .debug_str     0x0001ae63     0x1b0d /home/leon/git/swp-report/iMX6_Platform_SDK/output/mx6sdl/lib/libsdk.a(hdmi_tx.o)
                               0x1f81 (size before relaxing)
 .debug_str     0x0001c970      0xb79 /home/leon/git/swp-report/iMX6_Platform_SDK/output/mx6sdl/lib/libsdk.a(hdmi_tx_audio.o)
                                0xd5b (size before relaxing)
 .debug_str     0x0001d4e9      0x8d9 /home/leon/git/swp-report/iMX6_Platform_SDK/output/mx6sdl/lib/libsdk.a(hdmi_tx_phy.o)
                                0xa56 (size before relaxing)
 .debug_str     0x0001ddc2      0x2d0 /home/leon/git/swp-report/iMX6_Platform_SDK/output/mx6sdl/lib/libsdk.a(imx_i2c.o)
                               0x1099 (size before relaxing)
 .debug_str     0x0001e092      0x10b /home/leon/git/swp-report/iMX6_Platform_SDK/output/mx6sdl/lib/libsdk.a(imx_i2c_slave.o)
                                0x3e9 (size before relaxing)
 .debug_str     0x0001e19d      0x451 /home/leon/git/swp-report/iMX6_Platform_SDK/output/mx6sdl/lib/libsdk.a(ips_disp_panel.o)
                                0x66a (size before relaxing)
 .debug_str     0x0001e5ee      0x2cc /home/leon/git/swp-report/iMX6_Platform_SDK/output/mx6sdl/lib/libsdk.a(ipu_common.o)
                                0xa48 (size before relaxing)
 .debug_str     0x0001e8ba      0x238 /home/leon/git/swp-report/iMX6_Platform_SDK/output/mx6sdl/lib/libsdk.a(ipu_csi.o)
                                0x430 (size before relaxing)
 .debug_str     0x0001eaf2      0x22e /home/leon/git/swp-report/iMX6_Platform_SDK/output/mx6sdl/lib/libsdk.a(ipu_dc.o)
                                0x442 (size before relaxing)
 .debug_str     0x0001ed20      0x29f /home/leon/git/swp-report/iMX6_Platform_SDK/output/mx6sdl/lib/libsdk.a(ipu_di.o)
                                0x4f1 (size before relaxing)
 .debug_str     0x0001efbf       0x7b /home/leon/git/swp-report/iMX6_Platform_SDK/output/mx6sdl/lib/libsdk.a(ipu_dmfc.o)
                                0x399 (size before relaxing)
 .debug_str     0x0001f03a       0x9e /home/leon/git/swp-report/iMX6_Platform_SDK/output/mx6sdl/lib/libsdk.a(ipu_dp.o)
                                0x1e2 (size before relaxing)
 .debug_str     0x0001f0d8      0x2b2 /home/leon/git/swp-report/iMX6_Platform_SDK/output/mx6sdl/lib/libsdk.a(ipu_ic.o)
                                0x581 (size before relaxing)
 .debug_str     0x0001f38a      0x24a /home/leon/git/swp-report/iMX6_Platform_SDK/output/mx6sdl/lib/libsdk.a(ipu_idmac.o)
                                0x88f (size before relaxing)
 .debug_str     0x0001f5d4      0x293 /home/leon/git/swp-report/iMX6_Platform_SDK/output/mx6sdl/lib/libsdk.a(ipu_vdi.o)
                                0x942 (size before relaxing)
 .debug_str     0x0001f867      0x323 /home/leon/git/swp-report/iMX6_Platform_SDK/output/mx6sdl/lib/libsdk.a(keypad_port.o)
                                0xee3 (size before relaxing)
 .debug_str     0x0001fb8a      0x1a4 /home/leon/git/swp-report/iMX6_Platform_SDK/output/mx6sdl/lib/libsdk.a(ldb.o)
                                0x415 (size before relaxing)
 .debug_str     0x0001fd2e      0x2df /home/leon/git/swp-report/iMX6_Platform_SDK/output/mx6sdl/lib/libsdk.a(ocotp.o)
                                0x3d6 (size before relaxing)
 .debug_str     0x0002000d      0x8d9 /home/leon/git/swp-report/iMX6_Platform_SDK/output/mx6sdl/lib/libsdk.a(pcie.o)
                                0xaa2 (size before relaxing)
 .debug_str     0x000208e6      0x171 /home/leon/git/swp-report/iMX6_Platform_SDK/output/mx6sdl/lib/libsdk.a(pcie_phy.o)
                                0x279 (size before relaxing)
 .debug_str     0x00020a57      0x29c /home/leon/git/swp-report/iMX6_Platform_SDK/output/mx6sdl/lib/libsdk.a(pcie_prot.o)
                                0x4a3 (size before relaxing)
 .debug_str     0x00020cf3     0x1c63 /home/leon/git/swp-report/iMX6_Platform_SDK/output/mx6sdl/lib/libsdk.a(pmu_driver.o)
                               0x2b63 (size before relaxing)
 .debug_str     0x00022956      0x271 /home/leon/git/swp-report/iMX6_Platform_SDK/output/mx6sdl/lib/libsdk.a(pwm.o)
                                0xfb4 (size before relaxing)
 .debug_str     0x00022bc7      0x211 /home/leon/git/swp-report/iMX6_Platform_SDK/output/mx6sdl/lib/libsdk.a(rtc.o)
                                0xe35 (size before relaxing)
 .debug_str     0x00022dd8      0x14f /home/leon/git/swp-report/iMX6_Platform_SDK/output/mx6sdl/lib/libsdk.a(srtc.o)
                                0xd86 (size before relaxing)
 .debug_str     0x00022f27      0x702 /home/leon/git/swp-report/iMX6_Platform_SDK/output/mx6sdl/lib/libsdk.a(sdma.o)
                               0x15e6 (size before relaxing)
 .debug_str     0x00023629       0x5e /home/leon/git/swp-report/iMX6_Platform_SDK/output/mx6sdl/lib/libsdk.a(sdma_script_info.o)
                                0x2dc (size before relaxing)
 .debug_str     0x00023687      0x3fa /home/leon/git/swp-report/iMX6_Platform_SDK/output/mx6sdl/lib/libsdk.a(snvs.o)
                                0x50b (size before relaxing)
 .debug_str     0x00023a81      0x2e1 /home/leon/git/swp-report/iMX6_Platform_SDK/output/mx6sdl/lib/libsdk.a(ecspi.o)
                                0x4a7 (size before relaxing)
 .debug_str     0x00023d62      0x2e3 /home/leon/git/swp-report/iMX6_Platform_SDK/output/mx6sdl/lib/libsdk.a(tempmon.o)
                                0xe8c (size before relaxing)
 .debug_str     0x00024045      0x34d /home/leon/git/swp-report/iMX6_Platform_SDK/output/mx6sdl/lib/libsdk.a(gpt.o)
                               0x111f (size before relaxing)
 .debug_str     0x00024392       0xca /home/leon/git/swp-report/iMX6_Platform_SDK/output/mx6sdl/lib/libsdk.a(usb_common.o)
                                0x79d (size before relaxing)
 .debug_str     0x0002445c      0x4b3 /home/leon/git/swp-report/iMX6_Platform_SDK/output/mx6sdl/lib/libsdk.a(usbd_drv.o)
                                0xef2 (size before relaxing)
 .debug_str     0x0002490f      0x2ef /home/leon/git/swp-report/iMX6_Platform_SDK/output/mx6sdl/lib/libsdk.a(usbh_drv.o)
                                0xaab (size before relaxing)
 .debug_str     0x00024bfe      0x57c /home/leon/git/swp-report/iMX6_Platform_SDK/output/mx6sdl/lib/libsdk.a(usdhc.o)
                               0x1201 (size before relaxing)
 .debug_str     0x0002517a      0xb3c /home/leon/git/swp-report/iMX6_Platform_SDK/output/mx6sdl/lib/libsdk.a(usdhc_host.o)
                                0xfad (size before relaxing)
 .debug_str     0x00025cb6      0x224 /home/leon/git/swp-report/iMX6_Platform_SDK/output/mx6sdl/lib/libsdk.a(usdhc_mmc.o)
                                0x72e (size before relaxing)
 .debug_str     0x00025eda       0xae /home/leon/git/swp-report/iMX6_Platform_SDK/output/mx6sdl/lib/libsdk.a(usdhc_sd.o)
                                0x58d (size before relaxing)
 .debug_str     0x00025f88       0x72 /home/leon/git/swp-report/iMX6_Platform_SDK/output/mx6sdl/lib/libsdk.a(spinlock.o)
                                0x18c (size before relaxing)
 .debug_str     0x00025ffa      0x1c6 /home/leon/git/swp-report/iMX6_Platform_SDK/output/mx6sdl/lib/libsdk.a(camera_profile.o)
                                0x4be (size before relaxing)
 .debug_str     0x000261c0       0xbd /home/leon/git/swp-report/iMX6_Platform_SDK/output/mx6sdl/lib/libsdk.a(hdmi_common.o)
                                0x39d (size before relaxing)
 .debug_str     0x0002627d      0x1b6 /home/leon/git/swp-report/iMX6_Platform_SDK/output/mx6sdl/lib/libsdk.a(mx6x_usb.o)
                                0x3df (size before relaxing)
 .debug_str     0x00026433      0x200 /home/leon/git/swp-report/iMX6_Platform_SDK/output/mx6sdl/lib/libboard_smart_device_rev_a.a(board_audio.o)
                                0x40c (size before relaxing)
 .debug_str     0x00026633      0x220 /home/leon/git/swp-report/iMX6_Platform_SDK/output/mx6sdl/lib/libboard_smart_device_rev_a.a(board_camera.o)
                               0x1166 (size before relaxing)
 .debug_str     0x00026853       0xc1 /home/leon/git/swp-report/iMX6_Platform_SDK/output/mx6sdl/lib/libboard_smart_device_rev_a.a(board_display.o)
                                0x58e (size before relaxing)
 .debug_str     0x00026914      0x247 /home/leon/git/swp-report/iMX6_Platform_SDK/output/mx6sdl/lib/libboard_smart_device_rev_a.a(board_hdmi.o)
                                0x8bf (size before relaxing)
 .debug_str     0x00026b5b      0x154 /home/leon/git/swp-report/iMX6_Platform_SDK/output/mx6sdl/lib/libboard_smart_device_rev_a.a(board_i2c.o)
                                0x29f (size before relaxing)
 .debug_str     0x00026caf      0x108 /home/leon/git/swp-report/iMX6_Platform_SDK/output/mx6sdl/lib/libboard_smart_device_rev_a.a(board_mipi.o)
                                0x6de (size before relaxing)
 .debug_str     0x00026db7       0xa1 /home/leon/git/swp-report/iMX6_Platform_SDK/output/mx6sdl/lib/libboard_smart_device_rev_a.a(board_network.o)
                                0x1d5 (size before relaxing)
 .debug_str     0x00026e58      0x15e /home/leon/git/swp-report/iMX6_Platform_SDK/output/mx6sdl/lib/libboard_smart_device_rev_a.a(board_pcie.o)
                                0x401 (size before relaxing)
 .debug_str     0x00026fb6       0x70 /home/leon/git/swp-report/iMX6_Platform_SDK/output/mx6sdl/lib/libboard_smart_device_rev_a.a(board_usb.o)
                                0x231 (size before relaxing)
 .debug_str     0x00027026       0x83 /home/leon/git/swp-report/iMX6_Platform_SDK/output/mx6sdl/lib/libboard_smart_device_rev_a.a(board_usdhc.o)
                                0x1d1 (size before relaxing)
 .debug_str     0x000270a9       0x7a /home/leon/git/swp-report/iMX6_Platform_SDK/output/mx6sdl/lib/libboard_smart_device_rev_a.a(ecspi_iomux_config.o)
                                0x182 (size before relaxing)
 .debug_str     0x00027123       0x76 /home/leon/git/swp-report/iMX6_Platform_SDK/output/mx6sdl/lib/libboard_smart_device_rev_a.a(i2c_iomux_config.o)
                                0x17e (size before relaxing)
 .debug_str     0x00027199       0x76 /home/leon/git/swp-report/iMX6_Platform_SDK/output/mx6sdl/lib/libboard_smart_device_rev_a.a(pwm_iomux_config.o)
                                0x17e (size before relaxing)
 .debug_str     0x0002720f       0x7a /home/leon/git/swp-report/iMX6_Platform_SDK/output/mx6sdl/lib/libboard_smart_device_rev_a.a(usdhc_iomux_config.o)
                                0x182 (size before relaxing)

.debug_loc      0x00000000     0x9378
 .debug_loc     0x00000000       0x2c /home/leon/git/swp-report/iMX6_Platform_SDK/output/mx6sdl/sdk_unit_test/smart_device_rev_a/obj/apps/common/platform_init.o
 .debug_loc     0x0000002c       0x58 /home/leon/git/swp-report/iMX6_Platform_SDK/output/mx6sdl/sdk_unit_test/smart_device_rev_a/obj/apps/common/print_clock_info.o
 .debug_loc     0x00000084       0x2c /home/leon/git/swp-report/iMX6_Platform_SDK/output/mx6sdl/sdk_unit_test/smart_device_rev_a/obj/apps/common/print_version.o
 .debug_loc     0x000000b0       0x58 /home/leon/git/swp-report/iMX6_Platform_SDK/output/mx6sdl/sdk_unit_test/smart_device_rev_a/obj/apps/sdk_unit_test/src/all_test.o
 .debug_loc     0x00000108       0x2c /home/leon/git/swp-report/iMX6_Platform_SDK/output/mx6sdl/sdk_unit_test/smart_device_rev_a/obj/apps/sdk_unit_test/src/unit_test_main.o
 .debug_loc     0x00000134      0x18c /home/leon/git/swp-report/iMX6_Platform_SDK/output/mx6sdl/lib/libsdk.a(ccm_pll.o)
 .debug_loc     0x000002c0      0x2ec /home/leon/git/swp-report/iMX6_Platform_SDK/output/mx6sdl/lib/libsdk.a(gic.o)
 .debug_loc     0x000005ac       0xdc /home/leon/git/swp-report/iMX6_Platform_SDK/output/mx6sdl/lib/libsdk.a(mmu.o)
 .debug_loc     0x00000688      0x1e4 /home/leon/git/swp-report/iMX6_Platform_SDK/output/mx6sdl/lib/libsdk.a(menu.o)
 .debug_loc     0x0000086c      0x108 /home/leon/git/swp-report/iMX6_Platform_SDK/output/mx6sdl/lib/libsdk.a(system_util.o)
 .debug_loc     0x00000974       0x58 /home/leon/git/swp-report/iMX6_Platform_SDK/output/mx6sdl/lib/libsdk.a(text_color.o)
 .debug_loc     0x000009cc      0x134 /home/leon/git/swp-report/iMX6_Platform_SDK/output/mx6sdl/lib/libsdk.a(board_id.o)
 .debug_loc     0x00000b00       0xb0 /home/leon/git/swp-report/iMX6_Platform_SDK/output/mx6sdl/lib/libsdk.a(timer.o)
 .debug_loc     0x00000bb0      0x134 /home/leon/git/swp-report/iMX6_Platform_SDK/output/mx6sdl/lib/libsdk.a(imx_uart.o)
 .debug_loc     0x00000ce4       0xdc /home/leon/git/swp-report/iMX6_Platform_SDK/output/mx6sdl/lib/libsdk.a(interrupt.o)
 .debug_loc     0x00000dc0      0x160 /home/leon/git/swp-report/iMX6_Platform_SDK/output/mx6sdl/lib/libsdk.a(epit.o)
 .debug_loc     0x00000f20       0x2c /home/leon/git/swp-report/iMX6_Platform_SDK/output/mx6sdl/lib/libsdk.a(abort_handler.o)
 .debug_loc     0x00000f4c       0x58 /home/leon/git/swp-report/iMX6_Platform_SDK/output/mx6sdl/lib/libboard_smart_device_rev_a.a(board_io_expanders.o)
 .debug_loc     0x00000fa4       0x2c /home/leon/git/swp-report/iMX6_Platform_SDK/output/mx6sdl/lib/libboard_smart_device_rev_a.a(uart_iomux_config.o)
 .debug_loc     0x00000fd0      0x70c /home/leon/git/swp-report/iMX6_Platform_SDK/output/mx6sdl/lib/libboard_smart_device_rev_a.a(iomux_config.o)
 .debug_loc     0x000016dc       0x2c /home/leon/git/swp-report/iMX6_Platform_SDK/output/mx6sdl/lib/libboard_smart_device_rev_a.a(ipu1_iomux_config.o)
 .debug_loc     0x00001708       0x2c /home/leon/git/swp-report/iMX6_Platform_SDK/output/mx6sdl/lib/libboard_smart_device_rev_a.a(kpp_iomux_config.o)
 .debug_loc     0x00001734       0x2c /home/leon/git/swp-report/iMX6_Platform_SDK/output/mx6sdl/lib/libboard_smart_device_rev_a.a(mmdc_iomux_config.o)
 .debug_loc     0x00001760       0x2c /home/leon/git/swp-report/iMX6_Platform_SDK/output/mx6sdl/lib/libboard_smart_device_rev_a.a(pwm1_iomux_config.o)
 .debug_loc     0x0000178c       0x2c /home/leon/git/swp-report/iMX6_Platform_SDK/output/mx6sdl/lib/libboard_smart_device_rev_a.a(sjc_iomux_config.o)
 .debug_loc     0x000017b8       0x2c /home/leon/git/swp-report/iMX6_Platform_SDK/output/mx6sdl/lib/libboard_smart_device_rev_a.a(uart1_iomux_config.o)
 .debug_loc     0x000017e4       0x2c /home/leon/git/swp-report/iMX6_Platform_SDK/output/mx6sdl/lib/libboard_smart_device_rev_a.a(usdhc2_iomux_config.o)
 .debug_loc     0x00001810       0x2c /home/leon/git/swp-report/iMX6_Platform_SDK/output/mx6sdl/lib/libboard_smart_device_rev_a.a(usdhc3_iomux_config.o)
 .debug_loc     0x0000183c       0x2c /home/leon/git/swp-report/iMX6_Platform_SDK/output/mx6sdl/lib/libboard_smart_device_rev_a.a(usdhc4_iomux_config.o)
 .debug_loc     0x00001868       0x2c /home/leon/git/swp-report/iMX6_Platform_SDK/output/mx6sdl/lib/libboard_smart_device_rev_a.a(audmux_iomux_config.o)
 .debug_loc     0x00001894       0x2c /home/leon/git/swp-report/iMX6_Platform_SDK/output/mx6sdl/lib/libboard_smart_device_rev_a.a(ccm_iomux_config.o)
 .debug_loc     0x000018c0       0x2c /home/leon/git/swp-report/iMX6_Platform_SDK/output/mx6sdl/lib/libboard_smart_device_rev_a.a(ecspi1_iomux_config.o)
 .debug_loc     0x000018ec       0x2c /home/leon/git/swp-report/iMX6_Platform_SDK/output/mx6sdl/lib/libboard_smart_device_rev_a.a(enet_iomux_config.o)
 .debug_loc     0x00001918       0x2c /home/leon/git/swp-report/iMX6_Platform_SDK/output/mx6sdl/lib/libboard_smart_device_rev_a.a(epdc_iomux_config.o)
 .debug_loc     0x00001944       0x2c /home/leon/git/swp-report/iMX6_Platform_SDK/output/mx6sdl/lib/libboard_smart_device_rev_a.a(flexcan1_iomux_config.o)
 .debug_loc     0x00001970       0x2c /home/leon/git/swp-report/iMX6_Platform_SDK/output/mx6sdl/lib/libboard_smart_device_rev_a.a(gpio1_iomux_config.o)
 .debug_loc     0x0000199c       0x2c /home/leon/git/swp-report/iMX6_Platform_SDK/output/mx6sdl/lib/libboard_smart_device_rev_a.a(gpio2_iomux_config.o)
 .debug_loc     0x000019c8       0x2c /home/leon/git/swp-report/iMX6_Platform_SDK/output/mx6sdl/lib/libboard_smart_device_rev_a.a(gpio3_iomux_config.o)
 .debug_loc     0x000019f4       0x2c /home/leon/git/swp-report/iMX6_Platform_SDK/output/mx6sdl/lib/libboard_smart_device_rev_a.a(gpio4_iomux_config.o)
 .debug_loc     0x00001a20       0x2c /home/leon/git/swp-report/iMX6_Platform_SDK/output/mx6sdl/lib/libboard_smart_device_rev_a.a(gpio5_iomux_config.o)
 .debug_loc     0x00001a4c       0x2c /home/leon/git/swp-report/iMX6_Platform_SDK/output/mx6sdl/lib/libboard_smart_device_rev_a.a(gpio6_iomux_config.o)
 .debug_loc     0x00001a78       0x2c /home/leon/git/swp-report/iMX6_Platform_SDK/output/mx6sdl/lib/libboard_smart_device_rev_a.a(gpio7_iomux_config.o)
 .debug_loc     0x00001aa4       0x2c /home/leon/git/swp-report/iMX6_Platform_SDK/output/mx6sdl/lib/libboard_smart_device_rev_a.a(gps_iomux_config.o)
 .debug_loc     0x00001ad0       0x2c /home/leon/git/swp-report/iMX6_Platform_SDK/output/mx6sdl/lib/libboard_smart_device_rev_a.a(i2c1_iomux_config.o)
 .debug_loc     0x00001afc       0x2c /home/leon/git/swp-report/iMX6_Platform_SDK/output/mx6sdl/lib/libboard_smart_device_rev_a.a(i2c2_iomux_config.o)
 .debug_loc     0x00001b28       0x2c /home/leon/git/swp-report/iMX6_Platform_SDK/output/mx6sdl/lib/libboard_smart_device_rev_a.a(i2c3_iomux_config.o)
 .debug_loc     0x00001b54       0x84 /home/leon/git/swp-report/iMX6_Platform_SDK/output/mx6sdl/sdk_unit_test/smart_device_rev_a/libsdk_unit_test.a(cpu_wp_test.o)
 .debug_loc     0x00001bd8       0x84 /home/leon/git/swp-report/iMX6_Platform_SDK/output/mx6sdl/sdk_unit_test/smart_device_rev_a/libsdk_unit_test.a(multicore_test.o)
 .debug_loc     0x00001c5c       0x2c /home/leon/git/swp-report/iMX6_Platform_SDK/output/mx6sdl/sdk_unit_test/smart_device_rev_a/libsdk_unit_test.a(audio_test.o)
 .debug_loc     0x00001c88       0x58 /home/leon/git/swp-report/iMX6_Platform_SDK/output/mx6sdl/sdk_unit_test/smart_device_rev_a/libsdk_unit_test.a(gic_test.o)
 .debug_loc     0x00001ce0       0x2c /home/leon/git/swp-report/iMX6_Platform_SDK/output/mx6sdl/sdk_unit_test/smart_device_rev_a/libsdk_unit_test.a(ocotp_test.o)
 .debug_loc     0x00001d0c       0xdc /home/leon/git/swp-report/iMX6_Platform_SDK/output/mx6sdl/sdk_unit_test/smart_device_rev_a/libsdk_unit_test.a(snvs_rtc_test.o)
 .debug_loc     0x00001de8       0x84 /home/leon/git/swp-report/iMX6_Platform_SDK/output/mx6sdl/sdk_unit_test/smart_device_rev_a/libsdk_unit_test.a(snvs_srtc_test.o)
 .debug_loc     0x00001e6c       0x2c /home/leon/git/swp-report/iMX6_Platform_SDK/output/mx6sdl/sdk_unit_test/smart_device_rev_a/libsdk_unit_test.a(i2c_test.o)
 .debug_loc     0x00001e98       0x84 /home/leon/git/swp-report/iMX6_Platform_SDK/output/mx6sdl/sdk_unit_test/smart_device_rev_a/libsdk_unit_test.a(imx6_i2c_device.o)
 .debug_loc     0x00001f1c       0x84 /home/leon/git/swp-report/iMX6_Platform_SDK/output/mx6sdl/sdk_unit_test/smart_device_rev_a/libsdk_unit_test.a(tempmon_test.o)
 .debug_loc     0x00001fa0       0x2c /home/leon/git/swp-report/iMX6_Platform_SDK/output/mx6sdl/sdk_unit_test/smart_device_rev_a/libsdk_unit_test.a(sdma_test.o)
 .debug_loc     0x00001fcc       0x84 /home/leon/git/swp-report/iMX6_Platform_SDK/output/mx6sdl/sdk_unit_test/smart_device_rev_a/libsdk_unit_test.a(spi_lpb.o)
 .debug_loc     0x00002050      0x134 /home/leon/git/swp-report/iMX6_Platform_SDK/output/mx6sdl/sdk_unit_test/smart_device_rev_a/libsdk_unit_test.a(uart_loopback.o)
 .debug_loc     0x00002184       0x58 /home/leon/git/swp-report/iMX6_Platform_SDK/output/mx6sdl/sdk_unit_test/smart_device_rev_a/libsdk_unit_test.a(uart_test.o)
 .debug_loc     0x000021dc       0xb0 /home/leon/git/swp-report/iMX6_Platform_SDK/output/mx6sdl/sdk_unit_test/smart_device_rev_a/libsdk_unit_test.a(epit_test.o)
 .debug_loc     0x0000228c       0xb0 /home/leon/git/swp-report/iMX6_Platform_SDK/output/mx6sdl/sdk_unit_test/smart_device_rev_a/libsdk_unit_test.a(gpt_test.o)
 .debug_loc     0x0000233c       0x2c /home/leon/git/swp-report/iMX6_Platform_SDK/output/mx6sdl/sdk_unit_test/smart_device_rev_a/libsdk_unit_test.a(timer_test.o)
 .debug_loc     0x00002368      0x1e4 /home/leon/git/swp-report/iMX6_Platform_SDK/output/mx6sdl/sdk_unit_test/smart_device_rev_a/libsdk_unit_test.a(usdhc_test.o)
 .debug_loc     0x0000254c       0x58 /home/leon/git/swp-report/iMX6_Platform_SDK/output/mx6sdl/sdk_unit_test/smart_device_rev_a/libsdk_unit_test.a(watchdog_test.o)
 .debug_loc     0x000025a4       0x2c /home/leon/git/swp-report/iMX6_Platform_SDK/output/mx6sdl/sdk_unit_test/smart_device_rev_a/libsdk_unit_test.a(pwm_test.o)
 .debug_loc     0x000025d0       0xdc /home/leon/git/swp-report/iMX6_Platform_SDK/output/mx6sdl/sdk_unit_test/smart_device_rev_a/libsdk_unit_test.a(hdmi_test.o)
 .debug_loc     0x000026ac      0x134 /home/leon/git/swp-report/iMX6_Platform_SDK/output/mx6sdl/sdk_unit_test/smart_device_rev_a/libsdk_unit_test.a(ips_display.o)
 .debug_loc     0x000027e0       0x2c /home/leon/git/swp-report/iMX6_Platform_SDK/output/mx6sdl/sdk_unit_test/smart_device_rev_a/libsdk_unit_test.a(ips_test.o)
 .debug_loc     0x0000280c       0xdc /home/leon/git/swp-report/iMX6_Platform_SDK/output/mx6sdl/sdk_unit_test/smart_device_rev_a/libsdk_unit_test.a(ipu_image.o)
 .debug_loc     0x000028e8       0x58 /home/leon/git/swp-report/iMX6_Platform_SDK/output/mx6sdl/sdk_unit_test/smart_device_rev_a/libsdk_unit_test.a(keypad_test.o)
 .debug_loc     0x00002940       0x2c /home/leon/git/swp-report/iMX6_Platform_SDK/output/mx6sdl/sdk_unit_test/smart_device_rev_a/libsdk_unit_test.a(camera_test.o)
 .debug_loc     0x0000296c       0x2c /home/leon/git/swp-report/iMX6_Platform_SDK/output/mx6sdl/sdk_unit_test/smart_device_rev_a/libsdk_unit_test.a(csi_test_mode.o)
 .debug_loc     0x00002998       0x2c /home/leon/git/swp-report/iMX6_Platform_SDK/output/mx6sdl/sdk_unit_test/smart_device_rev_a/libsdk_unit_test.a(sensor_capture.o)
 .debug_loc     0x000029c4       0x2c /home/leon/git/swp-report/iMX6_Platform_SDK/output/mx6sdl/sdk_unit_test/smart_device_rev_a/libsdk_unit_test.a(pcie_test_rc.o)
 .debug_loc     0x000029f0       0x2c /home/leon/git/swp-report/iMX6_Platform_SDK/output/mx6sdl/sdk_unit_test/smart_device_rev_a/libsdk_unit_test.a(usb_test.o)
 .debug_loc     0x00002a1c       0x84 /home/leon/git/swp-report/iMX6_Platform_SDK/output/mx6sdl/sdk_unit_test/smart_device_rev_a/libsdk_unit_test.a(enet_test.o)
 .debug_loc     0x00002aa0       0x58 /home/leon/git/swp-report/iMX6_Platform_SDK/output/mx6sdl/sdk_unit_test/smart_device_rev_a/libsdk_unit_test.a(spi_test.o)
 .debug_loc     0x00002af8       0x2c /home/leon/git/swp-report/iMX6_Platform_SDK/output/mx6sdl/sdk_unit_test/smart_device_rev_a/libsdk_unit_test.a(accelerometer_test.o)
 .debug_loc     0x00002b24       0x84 /home/leon/git/swp-report/iMX6_Platform_SDK/output/mx6sdl/sdk_unit_test/smart_device_rev_a/libsdk_unit_test.a(at24cxx.o)
 .debug_loc     0x00002ba8       0x2c /home/leon/git/swp-report/iMX6_Platform_SDK/output/mx6sdl/sdk_unit_test/smart_device_rev_a/libsdk_unit_test.a(mem_2_mem.o)
 .debug_loc     0x00002bd4       0x58 /home/leon/git/swp-report/iMX6_Platform_SDK/output/mx6sdl/sdk_unit_test/smart_device_rev_a/libsdk_unit_test.a(pwm_output.o)
 .debug_loc     0x00002c2c       0x2c /home/leon/git/swp-report/iMX6_Platform_SDK/output/mx6sdl/sdk_unit_test/smart_device_rev_a/libsdk_unit_test.a(init_dma_data.o)
 .debug_loc     0x00002c58       0x2c /home/leon/git/swp-report/iMX6_Platform_SDK/output/mx6sdl/sdk_unit_test/smart_device_rev_a/libsdk_unit_test.a(ips_combiner.o)
 .debug_loc     0x00002c84       0x2c /home/leon/git/swp-report/iMX6_Platform_SDK/output/mx6sdl/sdk_unit_test/smart_device_rev_a/libsdk_unit_test.a(ips_csc.o)
 .debug_loc     0x00002cb0       0x2c /home/leon/git/swp-report/iMX6_Platform_SDK/output/mx6sdl/sdk_unit_test/smart_device_rev_a/libsdk_unit_test.a(ips_resize.o)
 .debug_loc     0x00002cdc       0x2c /home/leon/git/swp-report/iMX6_Platform_SDK/output/mx6sdl/sdk_unit_test/smart_device_rev_a/libsdk_unit_test.a(ips_rotate.o)
 .debug_loc     0x00002d08       0x84 /home/leon/git/swp-report/iMX6_Platform_SDK/output/mx6sdl/sdk_unit_test/smart_device_rev_a/libsdk_unit_test.a(usb0_device_mouse_test.o)
 .debug_loc     0x00002d8c      0x160 /home/leon/git/swp-report/iMX6_Platform_SDK/output/mx6sdl/sdk_unit_test/smart_device_rev_a/libsdk_unit_test.a(usb0_host_test.o)
 .debug_loc     0x00002eec       0x2c /home/leon/git/swp-report/iMX6_Platform_SDK/output/mx6sdl/sdk_unit_test/smart_device_rev_a/libsdk_unit_test.a(usb0_host_testmodes_test.o)
 .debug_loc     0x00002f18      0x160 /home/leon/git/swp-report/iMX6_Platform_SDK/output/mx6sdl/sdk_unit_test/smart_device_rev_a/libsdk_unit_test.a(spi_nor_numonyx.o)
 .debug_loc     0x00003078       0x58 /home/leon/git/swp-report/iMX6_Platform_SDK/output/mx6sdl/lib/libsdk.a(profile.o)
 .debug_loc     0x000030d0      0x2c0 /home/leon/git/swp-report/iMX6_Platform_SDK/output/mx6sdl/lib/libsdk.a(armv7_cache.o)
 .debug_loc     0x00003390      0x370 /home/leon/git/swp-report/iMX6_Platform_SDK/output/mx6sdl/lib/libsdk.a(runtime_support.o)
 .debug_loc     0x00003700       0xb0 /home/leon/git/swp-report/iMX6_Platform_SDK/output/mx6sdl/lib/libsdk.a(mma8451.o)
 .debug_loc     0x000037b0      0x1b8 /home/leon/git/swp-report/iMX6_Platform_SDK/output/mx6sdl/lib/libsdk.a(smd_sensor.o)
 .debug_loc     0x00003968       0x2c /home/leon/git/swp-report/iMX6_Platform_SDK/output/mx6sdl/lib/libsdk.a(cpu_get_cores.o)
 .debug_loc     0x00003994       0x84 /home/leon/git/swp-report/iMX6_Platform_SDK/output/mx6sdl/lib/libsdk.a(cpu_multicore.o)
 .debug_loc     0x00003a18       0x2c /home/leon/git/swp-report/iMX6_Platform_SDK/output/mx6sdl/lib/libsdk.a(cpu_workpoint.o)
 .debug_loc     0x00003a44      0x344 /home/leon/git/swp-report/iMX6_Platform_SDK/output/mx6sdl/lib/libsdk.a(enet_drv.o)
 .debug_loc     0x00003d88      0x1e4 /home/leon/git/swp-report/iMX6_Platform_SDK/output/mx6sdl/lib/libsdk.a(gpio.o)
 .debug_loc     0x00003f6c      0x1b8 /home/leon/git/swp-report/iMX6_Platform_SDK/output/mx6sdl/lib/libsdk.a(hdmi_tx.o)
 .debug_loc     0x00004124      0x39c /home/leon/git/swp-report/iMX6_Platform_SDK/output/mx6sdl/lib/libsdk.a(hdmi_tx_audio.o)
 .debug_loc     0x000044c0      0x39c /home/leon/git/swp-report/iMX6_Platform_SDK/output/mx6sdl/lib/libsdk.a(hdmi_tx_phy.o)
 .debug_loc     0x0000485c      0x268 /home/leon/git/swp-report/iMX6_Platform_SDK/output/mx6sdl/lib/libsdk.a(imx_i2c.o)
 .debug_loc     0x00004ac4       0x84 /home/leon/git/swp-report/iMX6_Platform_SDK/output/mx6sdl/lib/libsdk.a(imx_i2c_slave.o)
 .debug_loc     0x00004b48      0x2ec /home/leon/git/swp-report/iMX6_Platform_SDK/output/mx6sdl/lib/libsdk.a(ips_disp_panel.o)
 .debug_loc     0x00004e34      0x268 /home/leon/git/swp-report/iMX6_Platform_SDK/output/mx6sdl/lib/libsdk.a(ipu_common.o)
 .debug_loc     0x0000509c      0x108 /home/leon/git/swp-report/iMX6_Platform_SDK/output/mx6sdl/lib/libsdk.a(ipu_csi.o)
 .debug_loc     0x000051a4      0x108 /home/leon/git/swp-report/iMX6_Platform_SDK/output/mx6sdl/lib/libsdk.a(ipu_dc.o)
 .debug_loc     0x000052ac      0x134 /home/leon/git/swp-report/iMX6_Platform_SDK/output/mx6sdl/lib/libsdk.a(ipu_di.o)
 .debug_loc     0x000053e0       0x58 /home/leon/git/swp-report/iMX6_Platform_SDK/output/mx6sdl/lib/libsdk.a(ipu_dmfc.o)
 .debug_loc     0x00005438       0x84 /home/leon/git/swp-report/iMX6_Platform_SDK/output/mx6sdl/lib/libsdk.a(ipu_dp.o)
 .debug_loc     0x000054bc      0x18c /home/leon/git/swp-report/iMX6_Platform_SDK/output/mx6sdl/lib/libsdk.a(ipu_ic.o)
 .debug_loc     0x00005648      0x2ec /home/leon/git/swp-report/iMX6_Platform_SDK/output/mx6sdl/lib/libsdk.a(ipu_idmac.o)
 .debug_loc     0x00005934      0x160 /home/leon/git/swp-report/iMX6_Platform_SDK/output/mx6sdl/lib/libsdk.a(ipu_vdi.o)
 .debug_loc     0x00005a94      0x160 /home/leon/git/swp-report/iMX6_Platform_SDK/output/mx6sdl/lib/libsdk.a(keypad_port.o)
 .debug_loc     0x00005bf4       0x84 /home/leon/git/swp-report/iMX6_Platform_SDK/output/mx6sdl/lib/libsdk.a(ldb.o)
 .debug_loc     0x00005c78      0x134 /home/leon/git/swp-report/iMX6_Platform_SDK/output/mx6sdl/lib/libsdk.a(ocotp.o)
 .debug_loc     0x00005dac       0xdc /home/leon/git/swp-report/iMX6_Platform_SDK/output/mx6sdl/lib/libsdk.a(pcie.o)
 .debug_loc     0x00005e88       0xb0 /home/leon/git/swp-report/iMX6_Platform_SDK/output/mx6sdl/lib/libsdk.a(pcie_phy.o)
 .debug_loc     0x00005f38       0xdc /home/leon/git/swp-report/iMX6_Platform_SDK/output/mx6sdl/lib/libsdk.a(pcie_prot.o)
 .debug_loc     0x00006014      0xf20 /home/leon/git/swp-report/iMX6_Platform_SDK/output/mx6sdl/lib/libsdk.a(pmu_driver.o)
 .debug_loc     0x00006f34      0x160 /home/leon/git/swp-report/iMX6_Platform_SDK/output/mx6sdl/lib/libsdk.a(pwm.o)
 .debug_loc     0x00007094      0x134 /home/leon/git/swp-report/iMX6_Platform_SDK/output/mx6sdl/lib/libsdk.a(rtc.o)
 .debug_loc     0x000071c8       0xdc /home/leon/git/swp-report/iMX6_Platform_SDK/output/mx6sdl/lib/libsdk.a(srtc.o)
 .debug_loc     0x000072a4      0x2c0 /home/leon/git/swp-report/iMX6_Platform_SDK/output/mx6sdl/lib/libsdk.a(sdma.o)
 .debug_loc     0x00007564      0x1e4 /home/leon/git/swp-report/iMX6_Platform_SDK/output/mx6sdl/lib/libsdk.a(snvs.o)
 .debug_loc     0x00007748      0x134 /home/leon/git/swp-report/iMX6_Platform_SDK/output/mx6sdl/lib/libsdk.a(ecspi.o)
 .debug_loc     0x0000787c      0x134 /home/leon/git/swp-report/iMX6_Platform_SDK/output/mx6sdl/lib/libsdk.a(tempmon.o)
 .debug_loc     0x000079b0      0x1b8 /home/leon/git/swp-report/iMX6_Platform_SDK/output/mx6sdl/lib/libsdk.a(gpt.o)
 .debug_loc     0x00007b68       0x84 /home/leon/git/swp-report/iMX6_Platform_SDK/output/mx6sdl/lib/libsdk.a(usb_common.o)
 .debug_loc     0x00007bec      0x18c /home/leon/git/swp-report/iMX6_Platform_SDK/output/mx6sdl/lib/libsdk.a(usbd_drv.o)
 .debug_loc     0x00007d78      0x160 /home/leon/git/swp-report/iMX6_Platform_SDK/output/mx6sdl/lib/libsdk.a(usbh_drv.o)
 .debug_loc     0x00007ed8      0x318 /home/leon/git/swp-report/iMX6_Platform_SDK/output/mx6sdl/lib/libsdk.a(usdhc.o)
 .debug_loc     0x000081f0      0x44c /home/leon/git/swp-report/iMX6_Platform_SDK/output/mx6sdl/lib/libsdk.a(usdhc_host.o)
 .debug_loc     0x0000863c      0x23c /home/leon/git/swp-report/iMX6_Platform_SDK/output/mx6sdl/lib/libsdk.a(usdhc_mmc.o)
 .debug_loc     0x00008878       0xb0 /home/leon/git/swp-report/iMX6_Platform_SDK/output/mx6sdl/lib/libsdk.a(usdhc_sd.o)
 .debug_loc     0x00008928       0x58 /home/leon/git/swp-report/iMX6_Platform_SDK/output/mx6sdl/lib/libsdk.a(spinlock.o)
 .debug_loc     0x00008980       0xdc /home/leon/git/swp-report/iMX6_Platform_SDK/output/mx6sdl/lib/libsdk.a(hdmi_common.o)
 .debug_loc     0x00008a5c       0x58 /home/leon/git/swp-report/iMX6_Platform_SDK/output/mx6sdl/lib/libsdk.a(mx6x_usb.o)
 .debug_loc     0x00008ab4      0x134 /home/leon/git/swp-report/iMX6_Platform_SDK/output/mx6sdl/lib/libboard_smart_device_rev_a.a(board_audio.o)
 .debug_loc     0x00008be8      0x108 /home/leon/git/swp-report/iMX6_Platform_SDK/output/mx6sdl/lib/libboard_smart_device_rev_a.a(board_camera.o)
 .debug_loc     0x00008cf0      0x134 /home/leon/git/swp-report/iMX6_Platform_SDK/output/mx6sdl/lib/libboard_smart_device_rev_a.a(board_display.o)
 .debug_loc     0x00008e24      0x108 /home/leon/git/swp-report/iMX6_Platform_SDK/output/mx6sdl/lib/libboard_smart_device_rev_a.a(board_hdmi.o)
 .debug_loc     0x00008f2c       0xdc /home/leon/git/swp-report/iMX6_Platform_SDK/output/mx6sdl/lib/libboard_smart_device_rev_a.a(board_mipi.o)
 .debug_loc     0x00009008       0xdc /home/leon/git/swp-report/iMX6_Platform_SDK/output/mx6sdl/lib/libboard_smart_device_rev_a.a(board_network.o)
 .debug_loc     0x000090e4       0xdc /home/leon/git/swp-report/iMX6_Platform_SDK/output/mx6sdl/lib/libboard_smart_device_rev_a.a(board_pcie.o)
 .debug_loc     0x000091c0       0x84 /home/leon/git/swp-report/iMX6_Platform_SDK/output/mx6sdl/lib/libboard_smart_device_rev_a.a(board_usb.o)
 .debug_loc     0x00009244       0x84 /home/leon/git/swp-report/iMX6_Platform_SDK/output/mx6sdl/lib/libboard_smart_device_rev_a.a(board_usdhc.o)
 .debug_loc     0x000092c8       0x2c /home/leon/git/swp-report/iMX6_Platform_SDK/output/mx6sdl/lib/libboard_smart_device_rev_a.a(ecspi_iomux_config.o)
 .debug_loc     0x000092f4       0x2c /home/leon/git/swp-report/iMX6_Platform_SDK/output/mx6sdl/lib/libboard_smart_device_rev_a.a(i2c_iomux_config.o)
 .debug_loc     0x00009320       0x2c /home/leon/git/swp-report/iMX6_Platform_SDK/output/mx6sdl/lib/libboard_smart_device_rev_a.a(pwm_iomux_config.o)
 .debug_loc     0x0000934c       0x2c /home/leon/git/swp-report/iMX6_Platform_SDK/output/mx6sdl/lib/libboard_smart_device_rev_a.a(usdhc_iomux_config.o)

.debug_frame    0x00000000     0x99a4
 .debug_frame   0x00000000       0x30 /home/leon/git/swp-report/iMX6_Platform_SDK/output/mx6sdl/sdk_unit_test/smart_device_rev_a/obj/apps/common/platform_init.o
 .debug_frame   0x00000030       0x50 /home/leon/git/swp-report/iMX6_Platform_SDK/output/mx6sdl/sdk_unit_test/smart_device_rev_a/obj/apps/common/print_clock_info.o
 .debug_frame   0x00000080       0x30 /home/leon/git/swp-report/iMX6_Platform_SDK/output/mx6sdl/sdk_unit_test/smart_device_rev_a/obj/apps/common/print_version.o
 .debug_frame   0x000000b0       0x50 /home/leon/git/swp-report/iMX6_Platform_SDK/output/mx6sdl/sdk_unit_test/smart_device_rev_a/obj/apps/sdk_unit_test/src/all_test.o
 .debug_frame   0x00000100       0x30 /home/leon/git/swp-report/iMX6_Platform_SDK/output/mx6sdl/sdk_unit_test/smart_device_rev_a/obj/apps/sdk_unit_test/src/unit_test_main.o
 .debug_frame   0x00000130      0x130 /home/leon/git/swp-report/iMX6_Platform_SDK/output/mx6sdl/lib/libsdk.a(ccm_pll.o)
 .debug_frame   0x00000260      0x230 /home/leon/git/swp-report/iMX6_Platform_SDK/output/mx6sdl/lib/libsdk.a(gic.o)
 .debug_frame   0x00000490       0xb0 /home/leon/git/swp-report/iMX6_Platform_SDK/output/mx6sdl/lib/libsdk.a(mmu.o)
 .debug_frame   0x00000540      0x170 /home/leon/git/swp-report/iMX6_Platform_SDK/output/mx6sdl/lib/libsdk.a(menu.o)
 .debug_frame   0x000006b0       0xe0 /home/leon/git/swp-report/iMX6_Platform_SDK/output/mx6sdl/lib/libsdk.a(system_util.o)
 .debug_frame   0x00000790       0x54 /home/leon/git/swp-report/iMX6_Platform_SDK/output/mx6sdl/lib/libsdk.a(text_color.o)
 .debug_frame   0x000007e4       0xf0 /home/leon/git/swp-report/iMX6_Platform_SDK/output/mx6sdl/lib/libsdk.a(board_id.o)
 .debug_frame   0x000008d4       0x94 /home/leon/git/swp-report/iMX6_Platform_SDK/output/mx6sdl/lib/libsdk.a(timer.o)
 .debug_frame   0x00000968       0xf0 /home/leon/git/swp-report/iMX6_Platform_SDK/output/mx6sdl/lib/libsdk.a(imx_uart.o)
 .debug_frame   0x00000a58       0xb8 /home/leon/git/swp-report/iMX6_Platform_SDK/output/mx6sdl/lib/libsdk.a(interrupt.o)
 .debug_frame   0x00000b10      0x110 /home/leon/git/swp-report/iMX6_Platform_SDK/output/mx6sdl/lib/libsdk.a(epit.o)
 .debug_frame   0x00000c20       0x38 /home/leon/git/swp-report/iMX6_Platform_SDK/output/mx6sdl/lib/libsdk.a(abort_handler.o)
 .debug_frame   0x00000c58       0x50 /home/leon/git/swp-report/iMX6_Platform_SDK/output/mx6sdl/lib/libboard_smart_device_rev_a.a(board_io_expanders.o)
 .debug_frame   0x00000ca8       0x30 /home/leon/git/swp-report/iMX6_Platform_SDK/output/mx6sdl/lib/libboard_smart_device_rev_a.a(uart_iomux_config.o)
 .debug_frame   0x00000cd8      0x530 /home/leon/git/swp-report/iMX6_Platform_SDK/output/mx6sdl/lib/libboard_smart_device_rev_a.a(iomux_config.o)
 .debug_frame   0x00001208       0x30 /home/leon/git/swp-report/iMX6_Platform_SDK/output/mx6sdl/lib/libboard_smart_device_rev_a.a(ipu1_iomux_config.o)
 .debug_frame   0x00001238       0x30 /home/leon/git/swp-report/iMX6_Platform_SDK/output/mx6sdl/lib/libboard_smart_device_rev_a.a(kpp_iomux_config.o)
 .debug_frame   0x00001268       0x30 /home/leon/git/swp-report/iMX6_Platform_SDK/output/mx6sdl/lib/libboard_smart_device_rev_a.a(mmdc_iomux_config.o)
 .debug_frame   0x00001298       0x30 /home/leon/git/swp-report/iMX6_Platform_SDK/output/mx6sdl/lib/libboard_smart_device_rev_a.a(pwm1_iomux_config.o)
 .debug_frame   0x000012c8       0x30 /home/leon/git/swp-report/iMX6_Platform_SDK/output/mx6sdl/lib/libboard_smart_device_rev_a.a(sjc_iomux_config.o)
 .debug_frame   0x000012f8       0x30 /home/leon/git/swp-report/iMX6_Platform_SDK/output/mx6sdl/lib/libboard_smart_device_rev_a.a(uart1_iomux_config.o)
 .debug_frame   0x00001328       0x30 /home/leon/git/swp-report/iMX6_Platform_SDK/output/mx6sdl/lib/libboard_smart_device_rev_a.a(usdhc2_iomux_config.o)
 .debug_frame   0x00001358       0x30 /home/leon/git/swp-report/iMX6_Platform_SDK/output/mx6sdl/lib/libboard_smart_device_rev_a.a(usdhc3_iomux_config.o)
 .debug_frame   0x00001388       0x30 /home/leon/git/swp-report/iMX6_Platform_SDK/output/mx6sdl/lib/libboard_smart_device_rev_a.a(usdhc4_iomux_config.o)
 .debug_frame   0x000013b8       0x30 /home/leon/git/swp-report/iMX6_Platform_SDK/output/mx6sdl/lib/libboard_smart_device_rev_a.a(audmux_iomux_config.o)
 .debug_frame   0x000013e8       0x30 /home/leon/git/swp-report/iMX6_Platform_SDK/output/mx6sdl/lib/libboard_smart_device_rev_a.a(ccm_iomux_config.o)
 .debug_frame   0x00001418       0x30 /home/leon/git/swp-report/iMX6_Platform_SDK/output/mx6sdl/lib/libboard_smart_device_rev_a.a(ecspi1_iomux_config.o)
 .debug_frame   0x00001448       0x30 /home/leon/git/swp-report/iMX6_Platform_SDK/output/mx6sdl/lib/libboard_smart_device_rev_a.a(enet_iomux_config.o)
 .debug_frame   0x00001478       0x30 /home/leon/git/swp-report/iMX6_Platform_SDK/output/mx6sdl/lib/libboard_smart_device_rev_a.a(epdc_iomux_config.o)
 .debug_frame   0x000014a8       0x30 /home/leon/git/swp-report/iMX6_Platform_SDK/output/mx6sdl/lib/libboard_smart_device_rev_a.a(flexcan1_iomux_config.o)
 .debug_frame   0x000014d8       0x30 /home/leon/git/swp-report/iMX6_Platform_SDK/output/mx6sdl/lib/libboard_smart_device_rev_a.a(gpio1_iomux_config.o)
 .debug_frame   0x00001508       0x30 /home/leon/git/swp-report/iMX6_Platform_SDK/output/mx6sdl/lib/libboard_smart_device_rev_a.a(gpio2_iomux_config.o)
 .debug_frame   0x00001538       0x30 /home/leon/git/swp-report/iMX6_Platform_SDK/output/mx6sdl/lib/libboard_smart_device_rev_a.a(gpio3_iomux_config.o)
 .debug_frame   0x00001568       0x30 /home/leon/git/swp-report/iMX6_Platform_SDK/output/mx6sdl/lib/libboard_smart_device_rev_a.a(gpio4_iomux_config.o)
 .debug_frame   0x00001598       0x30 /home/leon/git/swp-report/iMX6_Platform_SDK/output/mx6sdl/lib/libboard_smart_device_rev_a.a(gpio5_iomux_config.o)
 .debug_frame   0x000015c8       0x30 /home/leon/git/swp-report/iMX6_Platform_SDK/output/mx6sdl/lib/libboard_smart_device_rev_a.a(gpio6_iomux_config.o)
 .debug_frame   0x000015f8       0x30 /home/leon/git/swp-report/iMX6_Platform_SDK/output/mx6sdl/lib/libboard_smart_device_rev_a.a(gpio7_iomux_config.o)
 .debug_frame   0x00001628       0x30 /home/leon/git/swp-report/iMX6_Platform_SDK/output/mx6sdl/lib/libboard_smart_device_rev_a.a(gps_iomux_config.o)
 .debug_frame   0x00001658       0x30 /home/leon/git/swp-report/iMX6_Platform_SDK/output/mx6sdl/lib/libboard_smart_device_rev_a.a(i2c1_iomux_config.o)
 .debug_frame   0x00001688       0x30 /home/leon/git/swp-report/iMX6_Platform_SDK/output/mx6sdl/lib/libboard_smart_device_rev_a.a(i2c2_iomux_config.o)
 .debug_frame   0x000016b8       0x30 /home/leon/git/swp-report/iMX6_Platform_SDK/output/mx6sdl/lib/libboard_smart_device_rev_a.a(i2c3_iomux_config.o)
 .debug_frame   0x000016e8       0x70 /home/leon/git/swp-report/iMX6_Platform_SDK/output/mx6sdl/sdk_unit_test/smart_device_rev_a/libsdk_unit_test.a(cpu_wp_test.o)
 .debug_frame   0x00001758       0x70 /home/leon/git/swp-report/iMX6_Platform_SDK/output/mx6sdl/sdk_unit_test/smart_device_rev_a/libsdk_unit_test.a(multicore_test.o)
 .debug_frame   0x000017c8       0x30 /home/leon/git/swp-report/iMX6_Platform_SDK/output/mx6sdl/sdk_unit_test/smart_device_rev_a/libsdk_unit_test.a(audio_test.o)
 .debug_frame   0x000017f8       0x50 /home/leon/git/swp-report/iMX6_Platform_SDK/output/mx6sdl/sdk_unit_test/smart_device_rev_a/libsdk_unit_test.a(gic_test.o)
 .debug_frame   0x00001848       0x30 /home/leon/git/swp-report/iMX6_Platform_SDK/output/mx6sdl/sdk_unit_test/smart_device_rev_a/libsdk_unit_test.a(ocotp_test.o)
 .debug_frame   0x00001878       0xb0 /home/leon/git/swp-report/iMX6_Platform_SDK/output/mx6sdl/sdk_unit_test/smart_device_rev_a/libsdk_unit_test.a(snvs_rtc_test.o)
 .debug_frame   0x00001928       0x70 /home/leon/git/swp-report/iMX6_Platform_SDK/output/mx6sdl/sdk_unit_test/smart_device_rev_a/libsdk_unit_test.a(snvs_srtc_test.o)
 .debug_frame   0x00001998       0x30 /home/leon/git/swp-report/iMX6_Platform_SDK/output/mx6sdl/sdk_unit_test/smart_device_rev_a/libsdk_unit_test.a(i2c_test.o)
 .debug_frame   0x000019c8       0x70 /home/leon/git/swp-report/iMX6_Platform_SDK/output/mx6sdl/sdk_unit_test/smart_device_rev_a/libsdk_unit_test.a(imx6_i2c_device.o)
 .debug_frame   0x00001a38       0x70 /home/leon/git/swp-report/iMX6_Platform_SDK/output/mx6sdl/sdk_unit_test/smart_device_rev_a/libsdk_unit_test.a(tempmon_test.o)
 .debug_frame   0x00001aa8       0x30 /home/leon/git/swp-report/iMX6_Platform_SDK/output/mx6sdl/sdk_unit_test/smart_device_rev_a/libsdk_unit_test.a(sdma_test.o)
 .debug_frame   0x00001ad8       0x70 /home/leon/git/swp-report/iMX6_Platform_SDK/output/mx6sdl/sdk_unit_test/smart_device_rev_a/libsdk_unit_test.a(spi_lpb.o)
 .debug_frame   0x00001b48       0xf0 /home/leon/git/swp-report/iMX6_Platform_SDK/output/mx6sdl/sdk_unit_test/smart_device_rev_a/libsdk_unit_test.a(uart_loopback.o)
 .debug_frame   0x00001c38       0x50 /home/leon/git/swp-report/iMX6_Platform_SDK/output/mx6sdl/sdk_unit_test/smart_device_rev_a/libsdk_unit_test.a(uart_test.o)
 .debug_frame   0x00001c88       0x90 /home/leon/git/swp-report/iMX6_Platform_SDK/output/mx6sdl/sdk_unit_test/smart_device_rev_a/libsdk_unit_test.a(epit_test.o)
 .debug_frame   0x00001d18       0x90 /home/leon/git/swp-report/iMX6_Platform_SDK/output/mx6sdl/sdk_unit_test/smart_device_rev_a/libsdk_unit_test.a(gpt_test.o)
 .debug_frame   0x00001da8       0x38 /home/leon/git/swp-report/iMX6_Platform_SDK/output/mx6sdl/sdk_unit_test/smart_device_rev_a/libsdk_unit_test.a(timer_test.o)
 .debug_frame   0x00001de0      0x170 /home/leon/git/swp-report/iMX6_Platform_SDK/output/mx6sdl/sdk_unit_test/smart_device_rev_a/libsdk_unit_test.a(usdhc_test.o)
 .debug_frame   0x00001f50       0x50 /home/leon/git/swp-report/iMX6_Platform_SDK/output/mx6sdl/sdk_unit_test/smart_device_rev_a/libsdk_unit_test.a(watchdog_test.o)
 .debug_frame   0x00001fa0       0x30 /home/leon/git/swp-report/iMX6_Platform_SDK/output/mx6sdl/sdk_unit_test/smart_device_rev_a/libsdk_unit_test.a(pwm_test.o)
 .debug_frame   0x00001fd0       0xb0 /home/leon/git/swp-report/iMX6_Platform_SDK/output/mx6sdl/sdk_unit_test/smart_device_rev_a/libsdk_unit_test.a(hdmi_test.o)
 .debug_frame   0x00002080       0xf0 /home/leon/git/swp-report/iMX6_Platform_SDK/output/mx6sdl/sdk_unit_test/smart_device_rev_a/libsdk_unit_test.a(ips_display.o)
 .debug_frame   0x00002170       0x30 /home/leon/git/swp-report/iMX6_Platform_SDK/output/mx6sdl/sdk_unit_test/smart_device_rev_a/libsdk_unit_test.a(ips_test.o)
 .debug_frame   0x000021a0       0xb0 /home/leon/git/swp-report/iMX6_Platform_SDK/output/mx6sdl/sdk_unit_test/smart_device_rev_a/libsdk_unit_test.a(ipu_image.o)
 .debug_frame   0x00002250       0x50 /home/leon/git/swp-report/iMX6_Platform_SDK/output/mx6sdl/sdk_unit_test/smart_device_rev_a/libsdk_unit_test.a(keypad_test.o)
 .debug_frame   0x000022a0       0x30 /home/leon/git/swp-report/iMX6_Platform_SDK/output/mx6sdl/sdk_unit_test/smart_device_rev_a/libsdk_unit_test.a(camera_test.o)
 .debug_frame   0x000022d0       0x30 /home/leon/git/swp-report/iMX6_Platform_SDK/output/mx6sdl/sdk_unit_test/smart_device_rev_a/libsdk_unit_test.a(csi_test_mode.o)
 .debug_frame   0x00002300       0x30 /home/leon/git/swp-report/iMX6_Platform_SDK/output/mx6sdl/sdk_unit_test/smart_device_rev_a/libsdk_unit_test.a(sensor_capture.o)
 .debug_frame   0x00002330       0x30 /home/leon/git/swp-report/iMX6_Platform_SDK/output/mx6sdl/sdk_unit_test/smart_device_rev_a/libsdk_unit_test.a(pcie_test_rc.o)
 .debug_frame   0x00002360       0x30 /home/leon/git/swp-report/iMX6_Platform_SDK/output/mx6sdl/sdk_unit_test/smart_device_rev_a/libsdk_unit_test.a(usb_test.o)
 .debug_frame   0x00002390       0x70 /home/leon/git/swp-report/iMX6_Platform_SDK/output/mx6sdl/sdk_unit_test/smart_device_rev_a/libsdk_unit_test.a(enet_test.o)
 .debug_frame   0x00002400       0x50 /home/leon/git/swp-report/iMX6_Platform_SDK/output/mx6sdl/sdk_unit_test/smart_device_rev_a/libsdk_unit_test.a(spi_test.o)
 .debug_frame   0x00002450       0x38 /home/leon/git/swp-report/iMX6_Platform_SDK/output/mx6sdl/sdk_unit_test/smart_device_rev_a/libsdk_unit_test.a(accelerometer_test.o)
 .debug_frame   0x00002488       0x70 /home/leon/git/swp-report/iMX6_Platform_SDK/output/mx6sdl/sdk_unit_test/smart_device_rev_a/libsdk_unit_test.a(at24cxx.o)
 .debug_frame   0x000024f8       0x34 /home/leon/git/swp-report/iMX6_Platform_SDK/output/mx6sdl/sdk_unit_test/smart_device_rev_a/libsdk_unit_test.a(mem_2_mem.o)
 .debug_frame   0x0000252c       0x54 /home/leon/git/swp-report/iMX6_Platform_SDK/output/mx6sdl/sdk_unit_test/smart_device_rev_a/libsdk_unit_test.a(pwm_output.o)
 .debug_frame   0x00002580       0x34 /home/leon/git/swp-report/iMX6_Platform_SDK/output/mx6sdl/sdk_unit_test/smart_device_rev_a/libsdk_unit_test.a(init_dma_data.o)
 .debug_frame   0x000025b4       0x30 /home/leon/git/swp-report/iMX6_Platform_SDK/output/mx6sdl/sdk_unit_test/smart_device_rev_a/libsdk_unit_test.a(ips_combiner.o)
 .debug_frame   0x000025e4       0x30 /home/leon/git/swp-report/iMX6_Platform_SDK/output/mx6sdl/sdk_unit_test/smart_device_rev_a/libsdk_unit_test.a(ips_csc.o)
 .debug_frame   0x00002614       0x34 /home/leon/git/swp-report/iMX6_Platform_SDK/output/mx6sdl/sdk_unit_test/smart_device_rev_a/libsdk_unit_test.a(ips_resize.o)
 .debug_frame   0x00002648       0x30 /home/leon/git/swp-report/iMX6_Platform_SDK/output/mx6sdl/sdk_unit_test/smart_device_rev_a/libsdk_unit_test.a(ips_rotate.o)
 .debug_frame   0x00002678       0x70 /home/leon/git/swp-report/iMX6_Platform_SDK/output/mx6sdl/sdk_unit_test/smart_device_rev_a/libsdk_unit_test.a(usb0_device_mouse_test.o)
 .debug_frame   0x000026e8      0x110 /home/leon/git/swp-report/iMX6_Platform_SDK/output/mx6sdl/sdk_unit_test/smart_device_rev_a/libsdk_unit_test.a(usb0_host_test.o)
 .debug_frame   0x000027f8       0x30 /home/leon/git/swp-report/iMX6_Platform_SDK/output/mx6sdl/sdk_unit_test/smart_device_rev_a/libsdk_unit_test.a(usb0_host_testmodes_test.o)
 .debug_frame   0x00002828      0x110 /home/leon/git/swp-report/iMX6_Platform_SDK/output/mx6sdl/sdk_unit_test/smart_device_rev_a/libsdk_unit_test.a(spi_nor_numonyx.o)
 .debug_frame   0x00002938       0x28 /home/leon/riotboard/arm-2012.09/bin/../arm-none-eabi/lib//libm.a(lib_a-sf_cos.o)
 .debug_frame   0x00002960       0x20 /home/leon/riotboard/arm-2012.09/bin/../arm-none-eabi/lib//libm.a(lib_a-sf_fabs.o)
 .debug_frame   0x00002980       0x28 /home/leon/riotboard/arm-2012.09/bin/../arm-none-eabi/lib//libm.a(lib_a-sf_modf.o)
 .debug_frame   0x000029a8       0x28 /home/leon/riotboard/arm-2012.09/bin/../arm-none-eabi/lib//libm.a(lib_a-sf_sin.o)
 .debug_frame   0x000029d0       0x38 /home/leon/riotboard/arm-2012.09/bin/../arm-none-eabi/lib//libm.a(lib_a-ef_rem_pio2.o)
 .debug_frame   0x00002a08       0x34 /home/leon/riotboard/arm-2012.09/bin/../arm-none-eabi/lib//libm.a(lib_a-kf_cos.o)
 .debug_frame   0x00002a3c       0x3c /home/leon/riotboard/arm-2012.09/bin/../arm-none-eabi/lib//libm.a(lib_a-kf_rem_pio2.o)
 .debug_frame   0x00002a78       0x34 /home/leon/riotboard/arm-2012.09/bin/../arm-none-eabi/lib//libm.a(lib_a-kf_sin.o)
 .debug_frame   0x00002aac       0x30 /home/leon/riotboard/arm-2012.09/bin/../arm-none-eabi/lib//libm.a(lib_a-sf_floor.o)
 .debug_frame   0x00002adc       0x28 /home/leon/riotboard/arm-2012.09/bin/../arm-none-eabi/lib//libm.a(lib_a-sf_scalbn.o)
 .debug_frame   0x00002b04       0x20 /home/leon/riotboard/arm-2012.09/bin/../arm-none-eabi/lib//libm.a(lib_a-sf_copysign.o)
 .debug_frame   0x00002b24       0x40 /home/leon/riotboard/arm-2012.09/bin/../arm-none-eabi/lib//libc.a(lib_a-assert.o)
 .debug_frame   0x00002b64       0x20 /home/leon/riotboard/arm-2012.09/bin/../arm-none-eabi/lib//libc.a(lib_a-bzero.o)
 .debug_frame   0x00002b84       0x48 /home/leon/riotboard/arm-2012.09/bin/../arm-none-eabi/lib//libc.a(lib_a-fflush.o)
 .debug_frame   0x00002bcc      0x134 /home/leon/riotboard/arm-2012.09/bin/../arm-none-eabi/lib//libc.a(lib_a-findfp.o)
 .debug_frame   0x00002d00       0x54 /home/leon/riotboard/arm-2012.09/bin/../arm-none-eabi/lib//libc.a(lib_a-fiprintf.o)
 .debug_frame   0x00002d54       0x48 /home/leon/riotboard/arm-2012.09/bin/../arm-none-eabi/lib//libc.a(lib_a-fputc.o)
 .debug_frame   0x00002d9c       0x3c /home/leon/riotboard/arm-2012.09/bin/../arm-none-eabi/lib//libc.a(lib_a-fputs.o)
 .debug_frame   0x00002dd8       0x50 /home/leon/riotboard/arm-2012.09/bin/../arm-none-eabi/lib//libc.a(lib_a-freer.o)
 .debug_frame   0x00002e28       0x38 /home/leon/riotboard/arm-2012.09/bin/../arm-none-eabi/lib//libc.a(lib_a-fvwrite.o)
 .debug_frame   0x00002e60       0x54 /home/leon/riotboard/arm-2012.09/bin/../arm-none-eabi/lib//libc.a(lib_a-fwalk.o)
 .debug_frame   0x00002eb4       0x2c /home/leon/riotboard/arm-2012.09/bin/../arm-none-eabi/lib//libc.a(lib_a-init.o)
 .debug_frame   0x00002ee0       0x40 /home/leon/riotboard/arm-2012.09/bin/../arm-none-eabi/lib//libc.a(lib_a-malloc.o)
 .debug_frame   0x00002f20       0x38 /home/leon/riotboard/arm-2012.09/bin/../arm-none-eabi/lib//libc.a(lib_a-mallocr.o)
 .debug_frame   0x00002f58       0x2c /home/leon/riotboard/arm-2012.09/bin/../arm-none-eabi/lib//libc.a(lib_a-memchr.o)
 .debug_frame   0x00002f84       0x30 /home/leon/riotboard/arm-2012.09/bin/../arm-none-eabi/lib//libc.a(lib_a-memcpy.o)
 .debug_frame   0x00002fb4       0x2c /home/leon/riotboard/arm-2012.09/bin/../arm-none-eabi/lib//libc.a(lib_a-memmove.o)
 .debug_frame   0x00002fe0       0x28 /home/leon/riotboard/arm-2012.09/bin/../arm-none-eabi/lib//libc.a(lib_a-memset.o)
 .debug_frame   0x00003008       0x30 /home/leon/riotboard/arm-2012.09/bin/../arm-none-eabi/lib//libc.a(lib_a-mlock.o)
 .debug_frame   0x00003038       0x58 /home/leon/riotboard/arm-2012.09/bin/../arm-none-eabi/lib//libc.a(lib_a-printf.o)
 .debug_frame   0x00003090       0x48 /home/leon/riotboard/arm-2012.09/bin/../arm-none-eabi/lib//libc.a(lib_a-putc.o)
 .debug_frame   0x000030d8       0x28 /home/leon/riotboard/arm-2012.09/bin/../arm-none-eabi/lib//libc.a(lib_a-realloc.o)
 .debug_frame   0x00003100       0x38 /home/leon/riotboard/arm-2012.09/bin/../arm-none-eabi/lib//libc.a(lib_a-reallocr.o)
 .debug_frame   0x00003138       0x3c /home/leon/riotboard/arm-2012.09/bin/../arm-none-eabi/lib//libc.a(lib_a-rget.o)
 .debug_frame   0x00003174       0x2c /home/leon/riotboard/arm-2012.09/bin/../arm-none-eabi/lib//libc.a(lib_a-sbrkr.o)
 .debug_frame   0x000031a0       0x5c /home/leon/riotboard/arm-2012.09/bin/../arm-none-eabi/lib//libc.a(lib_a-sprintf.o)
 .debug_frame   0x000031fc       0x88 /home/leon/riotboard/arm-2012.09/bin/../arm-none-eabi/lib//libc.a(lib_a-stdio.o)
 .debug_frame   0x00003284       0x20 /home/leon/riotboard/arm-2012.09/bin/../arm-none-eabi/lib//libc.a(lib_a-strlen.o)
 .debug_frame   0x000032a4       0x28 /home/leon/riotboard/arm-2012.09/bin/../arm-none-eabi/lib//libc.a(lib_a-strncasecmp.o)
 .debug_frame   0x000032cc       0x3c /home/leon/riotboard/arm-2012.09/bin/../arm-none-eabi/lib//libc.a(lib_a-svfprintf.o)
 .debug_frame   0x00003308       0x7c /home/leon/riotboard/arm-2012.09/bin/../arm-none-eabi/lib//libc.a(lib_a-vfiprintf.o)
 .debug_frame   0x00003384       0x58 /home/leon/riotboard/arm-2012.09/bin/../arm-none-eabi/lib//libc.a(lib_a-vfprintf.o)
 .debug_frame   0x000033dc       0x40 /home/leon/riotboard/arm-2012.09/bin/../arm-none-eabi/lib//libc.a(lib_a-vprintf.o)
 .debug_frame   0x0000341c       0x3c /home/leon/riotboard/arm-2012.09/bin/../arm-none-eabi/lib//libc.a(lib_a-wbuf.o)
 .debug_frame   0x00003458       0x2c /home/leon/riotboard/arm-2012.09/bin/../arm-none-eabi/lib//libc.a(lib_a-writer.o)
 .debug_frame   0x00003484       0x2c /home/leon/riotboard/arm-2012.09/bin/../arm-none-eabi/lib//libc.a(lib_a-wsetup.o)
 .debug_frame   0x000034b0       0x28 /home/leon/riotboard/arm-2012.09/bin/../arm-none-eabi/lib//libc.a(lib_a-abort.o)
 .debug_frame   0x000034d8       0x2c /home/leon/riotboard/arm-2012.09/bin/../arm-none-eabi/lib//libc.a(lib_a-closer.o)
 .debug_frame   0x00003504       0x64 /home/leon/riotboard/arm-2012.09/bin/../arm-none-eabi/lib//libc.a(lib_a-dtoa.o)
 .debug_frame   0x00003568       0x3c /home/leon/riotboard/arm-2012.09/bin/../arm-none-eabi/lib//libc.a(lib_a-fclose.o)
 .debug_frame   0x000035a4       0x50 /home/leon/riotboard/arm-2012.09/bin/../arm-none-eabi/lib//libc.a(lib_a-fputwc.o)
 .debug_frame   0x000035f4       0x98 /home/leon/riotboard/arm-2012.09/bin/../arm-none-eabi/lib//libc.a(lib_a-locale.o)
 .debug_frame   0x0000368c       0x2c /home/leon/riotboard/arm-2012.09/bin/../arm-none-eabi/lib//libc.a(lib_a-lseekr.o)
 .debug_frame   0x000036b8       0x30 /home/leon/riotboard/arm-2012.09/bin/../arm-none-eabi/lib//libc.a(lib_a-makebuf.o)
 .debug_frame   0x000036e8      0x220 /home/leon/riotboard/arm-2012.09/bin/../arm-none-eabi/lib//libc.a(lib_a-mprec.o)
 .debug_frame   0x00003908       0x2c /home/leon/riotboard/arm-2012.09/bin/../arm-none-eabi/lib//libc.a(lib_a-readr.o)
 .debug_frame   0x00003934       0x68 /home/leon/riotboard/arm-2012.09/bin/../arm-none-eabi/lib//libc.a(lib_a-reent.o)
 .debug_frame   0x0000399c       0x44 /home/leon/riotboard/arm-2012.09/bin/../arm-none-eabi/lib//libc.a(lib_a-refill.o)
 .debug_frame   0x000039e0       0x20 /home/leon/riotboard/arm-2012.09/bin/../arm-none-eabi/lib//libc.a(lib_a-s_fpclassify.o)
 .debug_frame   0x00003a00       0xc0 /home/leon/riotboard/arm-2012.09/bin/../arm-none-eabi/lib//libc.a(lib_a-signal.o)
 .debug_frame   0x00003ac0       0x44 /home/leon/riotboard/arm-2012.09/bin/../arm-none-eabi/lib//libc.a(lib_a-signalr.o)
 .debug_frame   0x00003b04       0x30 /home/leon/riotboard/arm-2012.09/bin/../arm-none-eabi/lib//libc.a(lib_a-strcmp.o)
 .debug_frame   0x00003b34       0x64 /home/leon/riotboard/arm-2012.09/bin/../arm-none-eabi/lib//libc.a(lib_a-svfiprintf.o)
 .debug_frame   0x00003b98       0x58 /home/leon/riotboard/arm-2012.09/bin/../arm-none-eabi/lib//libc.a(lib_a-wcrtomb.o)
 .debug_frame   0x00003bf0       0x44 /home/leon/riotboard/arm-2012.09/bin/../arm-none-eabi/lib//libc.a(lib_a-wctomb_r.o)
 .debug_frame   0x00003c34       0x28 /home/leon/riotboard/arm-2012.09/bin/../arm-none-eabi/lib//libc.a(lib_a-callocr.o)
 .debug_frame   0x00003c5c       0x2c /home/leon/riotboard/arm-2012.09/bin/../arm-none-eabi/lib//libc.a(lib_a-fstatr.o)
 .debug_frame   0x00003c88       0x2c /home/leon/riotboard/arm-2012.09/bin/../arm-none-eabi/lib//libc.a(lib_a-isattyr.o)
 .debug_frame   0x00003cb4       0x20 /home/leon/riotboard/arm-2012.09/bin/../lib/gcc/arm-none-eabi/4.7.2//libgcc.a(_udivsi3.o)
 .debug_frame   0x00003cd4       0x54 /home/leon/riotboard/arm-2012.09/bin/../lib/gcc/arm-none-eabi/4.7.2//libgcc.a(bpabi.o)
 .debug_frame   0x00003d28       0x38 /home/leon/riotboard/arm-2012.09/bin/../lib/gcc/arm-none-eabi/4.7.2//libgcc.a(_divdi3.o)
 .debug_frame   0x00003d60       0x38 /home/leon/riotboard/arm-2012.09/bin/../lib/gcc/arm-none-eabi/4.7.2//libgcc.a(_udivdi3.o)
 .debug_frame   0x00003d98       0x50 /home/leon/git/swp-report/iMX6_Platform_SDK/output/mx6sdl/lib/libsdk.a(profile.o)
 .debug_frame   0x00003de8      0x210 /home/leon/git/swp-report/iMX6_Platform_SDK/output/mx6sdl/lib/libsdk.a(armv7_cache.o)
 .debug_frame   0x00003ff8      0x290 /home/leon/git/swp-report/iMX6_Platform_SDK/output/mx6sdl/lib/libsdk.a(runtime_support.o)
 .debug_frame   0x00004288       0x90 /home/leon/git/swp-report/iMX6_Platform_SDK/output/mx6sdl/lib/libsdk.a(mma8451.o)
 .debug_frame   0x00004318      0x150 /home/leon/git/swp-report/iMX6_Platform_SDK/output/mx6sdl/lib/libsdk.a(smd_sensor.o)
 .debug_frame   0x00004468       0x30 /home/leon/git/swp-report/iMX6_Platform_SDK/output/mx6sdl/lib/libsdk.a(cpu_get_cores.o)
 .debug_frame   0x00004498       0x70 /home/leon/git/swp-report/iMX6_Platform_SDK/output/mx6sdl/lib/libsdk.a(cpu_multicore.o)
 .debug_frame   0x00004508       0x30 /home/leon/git/swp-report/iMX6_Platform_SDK/output/mx6sdl/lib/libsdk.a(cpu_workpoint.o)
 .debug_frame   0x00004538      0x270 /home/leon/git/swp-report/iMX6_Platform_SDK/output/mx6sdl/lib/libsdk.a(enet_drv.o)
 .debug_frame   0x000047a8      0x178 /home/leon/git/swp-report/iMX6_Platform_SDK/output/mx6sdl/lib/libsdk.a(gpio.o)
 .debug_frame   0x00004920      0x150 /home/leon/git/swp-report/iMX6_Platform_SDK/output/mx6sdl/lib/libsdk.a(hdmi_tx.o)
 .debug_frame   0x00004a70      0x2b0 /home/leon/git/swp-report/iMX6_Platform_SDK/output/mx6sdl/lib/libsdk.a(hdmi_tx_audio.o)
 .debug_frame   0x00004d20      0x2b0 /home/leon/git/swp-report/iMX6_Platform_SDK/output/mx6sdl/lib/libsdk.a(hdmi_tx_phy.o)
 .debug_frame   0x00004fd0      0x1d8 /home/leon/git/swp-report/iMX6_Platform_SDK/output/mx6sdl/lib/libsdk.a(imx_i2c.o)
 .debug_frame   0x000051a8       0x70 /home/leon/git/swp-report/iMX6_Platform_SDK/output/mx6sdl/lib/libsdk.a(imx_i2c_slave.o)
 .debug_frame   0x00005218      0x230 /home/leon/git/swp-report/iMX6_Platform_SDK/output/mx6sdl/lib/libsdk.a(ips_disp_panel.o)
 .debug_frame   0x00005448      0x1d0 /home/leon/git/swp-report/iMX6_Platform_SDK/output/mx6sdl/lib/libsdk.a(ipu_common.o)
 .debug_frame   0x00005618       0xd0 /home/leon/git/swp-report/iMX6_Platform_SDK/output/mx6sdl/lib/libsdk.a(ipu_csi.o)
 .debug_frame   0x000056e8       0xd0 /home/leon/git/swp-report/iMX6_Platform_SDK/output/mx6sdl/lib/libsdk.a(ipu_dc.o)
 .debug_frame   0x000057b8       0xf4 /home/leon/git/swp-report/iMX6_Platform_SDK/output/mx6sdl/lib/libsdk.a(ipu_di.o)
 .debug_frame   0x000058ac       0x50 /home/leon/git/swp-report/iMX6_Platform_SDK/output/mx6sdl/lib/libsdk.a(ipu_dmfc.o)
 .debug_frame   0x000058fc       0x70 /home/leon/git/swp-report/iMX6_Platform_SDK/output/mx6sdl/lib/libsdk.a(ipu_dp.o)
 .debug_frame   0x0000596c      0x130 /home/leon/git/swp-report/iMX6_Platform_SDK/output/mx6sdl/lib/libsdk.a(ipu_ic.o)
 .debug_frame   0x00005a9c      0x230 /home/leon/git/swp-report/iMX6_Platform_SDK/output/mx6sdl/lib/libsdk.a(ipu_idmac.o)
 .debug_frame   0x00005ccc      0x110 /home/leon/git/swp-report/iMX6_Platform_SDK/output/mx6sdl/lib/libsdk.a(ipu_vdi.o)
 .debug_frame   0x00005ddc      0x110 /home/leon/git/swp-report/iMX6_Platform_SDK/output/mx6sdl/lib/libsdk.a(keypad_port.o)
 .debug_frame   0x00005eec       0x70 /home/leon/git/swp-report/iMX6_Platform_SDK/output/mx6sdl/lib/libsdk.a(ldb.o)
 .debug_frame   0x00005f5c       0xf0 /home/leon/git/swp-report/iMX6_Platform_SDK/output/mx6sdl/lib/libsdk.a(ocotp.o)
 .debug_frame   0x0000604c       0xb0 /home/leon/git/swp-report/iMX6_Platform_SDK/output/mx6sdl/lib/libsdk.a(pcie.o)
 .debug_frame   0x000060fc       0x90 /home/leon/git/swp-report/iMX6_Platform_SDK/output/mx6sdl/lib/libsdk.a(pcie_phy.o)
 .debug_frame   0x0000618c       0xb0 /home/leon/git/swp-report/iMX6_Platform_SDK/output/mx6sdl/lib/libsdk.a(pcie_prot.o)
 .debug_frame   0x0000623c      0xb10 /home/leon/git/swp-report/iMX6_Platform_SDK/output/mx6sdl/lib/libsdk.a(pmu_driver.o)
 .debug_frame   0x00006d4c      0x110 /home/leon/git/swp-report/iMX6_Platform_SDK/output/mx6sdl/lib/libsdk.a(pwm.o)
 .debug_frame   0x00006e5c       0xf0 /home/leon/git/swp-report/iMX6_Platform_SDK/output/mx6sdl/lib/libsdk.a(rtc.o)
 .debug_frame   0x00006f4c       0xb0 /home/leon/git/swp-report/iMX6_Platform_SDK/output/mx6sdl/lib/libsdk.a(srtc.o)
 .debug_frame   0x00006ffc      0x210 /home/leon/git/swp-report/iMX6_Platform_SDK/output/mx6sdl/lib/libsdk.a(sdma.o)
 .debug_frame   0x0000720c      0x17c /home/leon/git/swp-report/iMX6_Platform_SDK/output/mx6sdl/lib/libsdk.a(snvs.o)
 .debug_frame   0x00007388       0xf0 /home/leon/git/swp-report/iMX6_Platform_SDK/output/mx6sdl/lib/libsdk.a(ecspi.o)
 .debug_frame   0x00007478       0xf0 /home/leon/git/swp-report/iMX6_Platform_SDK/output/mx6sdl/lib/libsdk.a(tempmon.o)
 .debug_frame   0x00007568      0x150 /home/leon/git/swp-report/iMX6_Platform_SDK/output/mx6sdl/lib/libsdk.a(gpt.o)
 .debug_frame   0x000076b8       0x70 /home/leon/git/swp-report/iMX6_Platform_SDK/output/mx6sdl/lib/libsdk.a(usb_common.o)
 .debug_frame   0x00007728      0x130 /home/leon/git/swp-report/iMX6_Platform_SDK/output/mx6sdl/lib/libsdk.a(usbd_drv.o)
 .debug_frame   0x00007858      0x110 /home/leon/git/swp-report/iMX6_Platform_SDK/output/mx6sdl/lib/libsdk.a(usbh_drv.o)
 .debug_frame   0x00007968      0x250 /home/leon/git/swp-report/iMX6_Platform_SDK/output/mx6sdl/lib/libsdk.a(usdhc.o)
 .debug_frame   0x00007bb8      0x330 /home/leon/git/swp-report/iMX6_Platform_SDK/output/mx6sdl/lib/libsdk.a(usdhc_host.o)
 .debug_frame   0x00007ee8      0x1b0 /home/leon/git/swp-report/iMX6_Platform_SDK/output/mx6sdl/lib/libsdk.a(usdhc_mmc.o)
 .debug_frame   0x00008098       0x90 /home/leon/git/swp-report/iMX6_Platform_SDK/output/mx6sdl/lib/libsdk.a(usdhc_sd.o)
 .debug_frame   0x00008128       0x50 /home/leon/git/swp-report/iMX6_Platform_SDK/output/mx6sdl/lib/libsdk.a(spinlock.o)
 .debug_frame   0x00008178       0xb0 /home/leon/git/swp-report/iMX6_Platform_SDK/output/mx6sdl/lib/libsdk.a(hdmi_common.o)
 .debug_frame   0x00008228       0x50 /home/leon/git/swp-report/iMX6_Platform_SDK/output/mx6sdl/lib/libsdk.a(mx6x_usb.o)
 .debug_frame   0x00008278       0xf0 /home/leon/git/swp-report/iMX6_Platform_SDK/output/mx6sdl/lib/libboard_smart_device_rev_a.a(board_audio.o)
 .debug_frame   0x00008368       0xd0 /home/leon/git/swp-report/iMX6_Platform_SDK/output/mx6sdl/lib/libboard_smart_device_rev_a.a(board_camera.o)
 .debug_frame   0x00008438       0xf0 /home/leon/git/swp-report/iMX6_Platform_SDK/output/mx6sdl/lib/libboard_smart_device_rev_a.a(board_display.o)
 .debug_frame   0x00008528       0xd0 /home/leon/git/swp-report/iMX6_Platform_SDK/output/mx6sdl/lib/libboard_smart_device_rev_a.a(board_hdmi.o)
 .debug_frame   0x000085f8       0xb0 /home/leon/git/swp-report/iMX6_Platform_SDK/output/mx6sdl/lib/libboard_smart_device_rev_a.a(board_mipi.o)
 .debug_frame   0x000086a8       0xb0 /home/leon/git/swp-report/iMX6_Platform_SDK/output/mx6sdl/lib/libboard_smart_device_rev_a.a(board_network.o)
 .debug_frame   0x00008758       0xb0 /home/leon/git/swp-report/iMX6_Platform_SDK/output/mx6sdl/lib/libboard_smart_device_rev_a.a(board_pcie.o)
 .debug_frame   0x00008808       0x70 /home/leon/git/swp-report/iMX6_Platform_SDK/output/mx6sdl/lib/libboard_smart_device_rev_a.a(board_usb.o)
 .debug_frame   0x00008878       0x70 /home/leon/git/swp-report/iMX6_Platform_SDK/output/mx6sdl/lib/libboard_smart_device_rev_a.a(board_usdhc.o)
 .debug_frame   0x000088e8       0x30 /home/leon/git/swp-report/iMX6_Platform_SDK/output/mx6sdl/lib/libboard_smart_device_rev_a.a(ecspi_iomux_config.o)
 .debug_frame   0x00008918       0x30 /home/leon/git/swp-report/iMX6_Platform_SDK/output/mx6sdl/lib/libboard_smart_device_rev_a.a(i2c_iomux_config.o)
 .debug_frame   0x00008948       0x30 /home/leon/git/swp-report/iMX6_Platform_SDK/output/mx6sdl/lib/libboard_smart_device_rev_a.a(pwm_iomux_config.o)
 .debug_frame   0x00008978       0x30 /home/leon/git/swp-report/iMX6_Platform_SDK/output/mx6sdl/lib/libboard_smart_device_rev_a.a(usdhc_iomux_config.o)
 .debug_frame   0x000089a8       0x40 /home/leon/riotboard/arm-2012.09/bin/../arm-none-eabi/lib//libstdc++.a(pure.o)
 .debug_frame   0x000089e8       0x90 /home/leon/riotboard/arm-2012.09/bin/../arm-none-eabi/lib//libstdc++.a(eh_terminate.o)
 .debug_frame   0x00008a78       0x60 /home/leon/riotboard/arm-2012.09/bin/../arm-none-eabi/lib//libstdc++.a(eh_call.o)
 .debug_frame   0x00008ad8       0x5c /home/leon/riotboard/arm-2012.09/bin/../arm-none-eabi/lib//libstdc++.a(eh_throw.o)
 .debug_frame   0x00008b34       0x60 /home/leon/riotboard/arm-2012.09/bin/../arm-none-eabi/lib//libstdc++.a(eh_arm.o)
 .debug_frame   0x00008b94       0xd0 /home/leon/riotboard/arm-2012.09/bin/../arm-none-eabi/lib//libstdc++.a(eh_exception.o)
 .debug_frame   0x00008c64       0x74 /home/leon/riotboard/arm-2012.09/bin/../arm-none-eabi/lib//libstdc++.a(eh_alloc.o)
 .debug_frame   0x00008cd8       0x30 /home/leon/riotboard/arm-2012.09/bin/../arm-none-eabi/lib//libstdc++.a(eh_globals.o)
 .debug_frame   0x00008d08       0xa8 /home/leon/riotboard/arm-2012.09/bin/../arm-none-eabi/lib//libstdc++.a(si_class_type_info.o)
 .debug_frame   0x00008db0       0xa8 /home/leon/riotboard/arm-2012.09/bin/../arm-none-eabi/lib//libstdc++.a(eh_personality.o)
 .debug_frame   0x00008e58       0x68 /home/leon/riotboard/arm-2012.09/bin/../arm-none-eabi/lib//libstdc++.a(eh_catch.o)
 .debug_frame   0x00008ec0       0xc8 /home/leon/riotboard/arm-2012.09/bin/../arm-none-eabi/lib//libstdc++.a(class_type_info.o)
 .debug_frame   0x00008f88       0x30 /home/leon/riotboard/arm-2012.09/bin/../arm-none-eabi/lib//libstdc++.a(vterminate.o)
 .debug_frame   0x00008fb8      0x4b0 /home/leon/riotboard/arm-2012.09/bin/../arm-none-eabi/lib//libstdc++.a(cp-demangle.o)
 .debug_frame   0x00009468       0x28 /home/leon/riotboard/arm-2012.09/bin/../arm-none-eabi/lib//libstdc++.a(eh_type.o)
 .debug_frame   0x00009490       0x28 /home/leon/riotboard/arm-2012.09/bin/../arm-none-eabi/lib//libstdc++.a(del_op.o)
 .debug_frame   0x000094b8       0x90 /home/leon/riotboard/arm-2012.09/bin/../arm-none-eabi/lib//libstdc++.a(tinfo.o)
 .debug_frame   0x00009548       0x50 /home/leon/riotboard/arm-2012.09/bin/../arm-none-eabi/lib//libc.a(lib_a-fwrite.o)
 .debug_frame   0x00009598       0x28 /home/leon/riotboard/arm-2012.09/bin/../arm-none-eabi/lib//libc.a(lib_a-memcmp.o)
 .debug_frame   0x000095c0       0x28 /home/leon/riotboard/arm-2012.09/bin/../arm-none-eabi/lib//libc.a(lib_a-strncmp.o)
 .debug_frame   0x000095e8       0x28 /home/leon/riotboard/arm-2012.09/bin/../arm-none-eabi/lib//libc.a(lib_a-syswrite.o)
 .debug_frame   0x00009610       0x20 /home/leon/riotboard/arm-2012.09/bin/../lib/gcc/arm-none-eabi/4.7.2//libgcc.a(_divsi3.o)
 .debug_frame   0x00009630      0x290 /home/leon/riotboard/arm-2012.09/bin/../lib/gcc/arm-none-eabi/4.7.2//libgcc.a(unwind-arm.o)
 .debug_frame   0x000098c0       0xe4 /home/leon/riotboard/arm-2012.09/bin/../lib/gcc/arm-none-eabi/4.7.2//libgcc.a(pr-support.o)

.debug_ranges   0x00000000      0x188
 .debug_ranges  0x00000000       0x30 /home/leon/git/swp-report/iMX6_Platform_SDK/output/mx6sdl/lib/libsdk.a(menu.o)
 .debug_ranges  0x00000030       0x18 /home/leon/git/swp-report/iMX6_Platform_SDK/output/mx6sdl/lib/libsdk.a(system_util.o)
 .debug_ranges  0x00000048      0x140 /home/leon/git/swp-report/iMX6_Platform_SDK/output/mx6sdl/lib/libsdk.a(pmu_driver.o)

Cross Reference Table

Symbol                                            File
ALL_test                                          /home/leon/git/swp-report/iMX6_Platform_SDK/output/mx6sdl/sdk_unit_test/smart_device_rev_a/obj/apps/sdk_unit_test/src/all_test.o
                                                  /home/leon/git/swp-report/iMX6_Platform_SDK/output/mx6sdl/sdk_unit_test/smart_device_rev_a/obj/apps/sdk_unit_test/src/unit_test_main.o
Audio_ChannelCount                                /home/leon/git/swp-report/iMX6_Platform_SDK/output/mx6sdl/lib/libsdk.a(hdmi_tx_audio.o)
Delay4Reload                                      /home/leon/git/swp-report/iMX6_Platform_SDK/output/mx6sdl/lib/libsdk.a(ocotp.o)
IRQ_HDLR                                          /home/leon/git/swp-report/iMX6_Platform_SDK/output/mx6sdl/lib/libsdk.a(interrupt.o)
                                                  /home/leon/git/swp-report/iMX6_Platform_SDK/output/mx6sdl/lib/libsdk.a(vectors.o)
PLL1_OUTPUT                                       /home/leon/git/swp-report/iMX6_Platform_SDK/output/mx6sdl/lib/libsdk.a(ccm_pll.o)
PLL2_OUTPUT                                       /home/leon/git/swp-report/iMX6_Platform_SDK/output/mx6sdl/lib/libsdk.a(ccm_pll.o)
PLL3_OUTPUT                                       /home/leon/git/swp-report/iMX6_Platform_SDK/output/mx6sdl/lib/libsdk.a(ccm_pll.o)
PLL4_OUTPUT                                       /home/leon/git/swp-report/iMX6_Platform_SDK/output/mx6sdl/lib/libsdk.a(ccm_pll.o)
PLL5_OUTPUT                                       /home/leon/git/swp-report/iMX6_Platform_SDK/output/mx6sdl/lib/libsdk.a(ccm_pll.o)
SGI3_ISR                                          /home/leon/git/swp-report/iMX6_Platform_SDK/output/mx6sdl/sdk_unit_test/smart_device_rev_a/libsdk_unit_test.a(multicore_test.o)
SGTL5000PowerUp_and_clockinit                     /home/leon/git/swp-report/iMX6_Platform_SDK/output/mx6sdl/lib/libboard_smart_device_rev_a.a(board_audio.o)
StartPerfCounter                                  /home/leon/git/swp-report/iMX6_Platform_SDK/output/mx6sdl/lib/libsdk.a(profile.o)
                                                  /home/leon/git/swp-report/iMX6_Platform_SDK/output/mx6sdl/sdk_unit_test/smart_device_rev_a/libsdk_unit_test.a(mem_2_mem.o)
StopPerfCounter                                   /home/leon/git/swp-report/iMX6_Platform_SDK/output/mx6sdl/lib/libsdk.a(profile.o)
                                                  /home/leon/git/swp-report/iMX6_Platform_SDK/output/mx6sdl/sdk_unit_test/smart_device_rev_a/libsdk_unit_test.a(mem_2_mem.o)
_Balloc                                           /home/leon/riotboard/arm-2012.09/bin/../arm-none-eabi/lib//libc.a(lib_a-mprec.o)
                                                  /home/leon/riotboard/arm-2012.09/bin/../arm-none-eabi/lib//libc.a(lib_a-dtoa.o)
_Bfree                                            /home/leon/riotboard/arm-2012.09/bin/../arm-none-eabi/lib//libc.a(lib_a-mprec.o)
                                                  /home/leon/riotboard/arm-2012.09/bin/../arm-none-eabi/lib//libc.a(lib_a-dtoa.o)
_ITM_deregisterTMCloneTable                       /home/leon/riotboard/arm-2012.09/bin/../lib/gcc/arm-none-eabi/4.7.2//crtbegin.o
_ITM_registerTMCloneTable                         /home/leon/riotboard/arm-2012.09/bin/../lib/gcc/arm-none-eabi/4.7.2//crtbegin.o
_Jv_RegisterClasses                               /home/leon/riotboard/arm-2012.09/bin/../lib/gcc/arm-none-eabi/4.7.2//crtbegin.o
_PathLocale                                       /home/leon/riotboard/arm-2012.09/bin/../arm-none-eabi/lib//libc.a(lib_a-locale.o)
_Unwind_Backtrace                                 /home/leon/riotboard/arm-2012.09/bin/../lib/gcc/arm-none-eabi/4.7.2//libgcc.a(libunwind.o)
_Unwind_Complete                                  /home/leon/riotboard/arm-2012.09/bin/../lib/gcc/arm-none-eabi/4.7.2//libgcc.a(unwind-arm.o)
                                                  /home/leon/riotboard/arm-2012.09/bin/../arm-none-eabi/lib//libstdc++.a(eh_catch.o)
_Unwind_DeleteException                           /home/leon/riotboard/arm-2012.09/bin/../lib/gcc/arm-none-eabi/4.7.2//libgcc.a(unwind-arm.o)
                                                  /home/leon/riotboard/arm-2012.09/bin/../arm-none-eabi/lib//libstdc++.a(eh_catch.o)
_Unwind_ForcedUnwind                              /home/leon/riotboard/arm-2012.09/bin/../lib/gcc/arm-none-eabi/4.7.2//libgcc.a(libunwind.o)
_Unwind_GetCFA                                    /home/leon/riotboard/arm-2012.09/bin/../lib/gcc/arm-none-eabi/4.7.2//libgcc.a(unwind-arm.o)
_Unwind_GetDataRelBase                            /home/leon/riotboard/arm-2012.09/bin/../lib/gcc/arm-none-eabi/4.7.2//libgcc.a(pr-support.o)
                                                  /home/leon/riotboard/arm-2012.09/bin/../arm-none-eabi/lib//libstdc++.a(eh_personality.o)
_Unwind_GetLanguageSpecificData                   /home/leon/riotboard/arm-2012.09/bin/../lib/gcc/arm-none-eabi/4.7.2//libgcc.a(pr-support.o)
                                                  /home/leon/riotboard/arm-2012.09/bin/../arm-none-eabi/lib//libstdc++.a(eh_personality.o)
_Unwind_GetRegionStart                            /home/leon/riotboard/arm-2012.09/bin/../lib/gcc/arm-none-eabi/4.7.2//libgcc.a(pr-support.o)
                                                  /home/leon/riotboard/arm-2012.09/bin/../arm-none-eabi/lib//libstdc++.a(eh_personality.o)
_Unwind_GetTextRelBase                            /home/leon/riotboard/arm-2012.09/bin/../lib/gcc/arm-none-eabi/4.7.2//libgcc.a(pr-support.o)
                                                  /home/leon/riotboard/arm-2012.09/bin/../arm-none-eabi/lib//libstdc++.a(eh_personality.o)
_Unwind_RaiseException                            /home/leon/riotboard/arm-2012.09/bin/../lib/gcc/arm-none-eabi/4.7.2//libgcc.a(libunwind.o)
                                                  /home/leon/riotboard/arm-2012.09/bin/../arm-none-eabi/lib//libstdc++.a(eh_throw.o)
_Unwind_Resume                                    /home/leon/riotboard/arm-2012.09/bin/../lib/gcc/arm-none-eabi/4.7.2//libgcc.a(libunwind.o)
                                                  /home/leon/riotboard/arm-2012.09/bin/../arm-none-eabi/lib//libstdc++.a(eh_arm.o)
_Unwind_Resume_or_Rethrow                         /home/leon/riotboard/arm-2012.09/bin/../lib/gcc/arm-none-eabi/4.7.2//libgcc.a(libunwind.o)
                                                  /home/leon/riotboard/arm-2012.09/bin/../arm-none-eabi/lib//libstdc++.a(eh_throw.o)
_Unwind_VRS_Get                                   /home/leon/riotboard/arm-2012.09/bin/../lib/gcc/arm-none-eabi/4.7.2//libgcc.a(unwind-arm.o)
                                                  /home/leon/riotboard/arm-2012.09/bin/../lib/gcc/arm-none-eabi/4.7.2//libgcc.a(pr-support.o)
                                                  /home/leon/riotboard/arm-2012.09/bin/../arm-none-eabi/lib//libstdc++.a(eh_personality.o)
_Unwind_VRS_Pop                                   /home/leon/riotboard/arm-2012.09/bin/../lib/gcc/arm-none-eabi/4.7.2//libgcc.a(unwind-arm.o)
                                                  /home/leon/riotboard/arm-2012.09/bin/../lib/gcc/arm-none-eabi/4.7.2//libgcc.a(pr-support.o)
_Unwind_VRS_Set                                   /home/leon/riotboard/arm-2012.09/bin/../lib/gcc/arm-none-eabi/4.7.2//libgcc.a(unwind-arm.o)
                                                  /home/leon/riotboard/arm-2012.09/bin/../lib/gcc/arm-none-eabi/4.7.2//libgcc.a(pr-support.o)
                                                  /home/leon/riotboard/arm-2012.09/bin/../arm-none-eabi/lib//libstdc++.a(eh_personality.o)
__TMC_END__                                       /home/leon/riotboard/arm-2012.09/bin/../lib/gcc/arm-none-eabi/4.7.2//crtend.o
                                                  /home/leon/riotboard/arm-2012.09/bin/../lib/gcc/arm-none-eabi/4.7.2//crtbegin.o
___Unwind_Backtrace                               /home/leon/riotboard/arm-2012.09/bin/../lib/gcc/arm-none-eabi/4.7.2//libgcc.a(libunwind.o)
___Unwind_ForcedUnwind                            /home/leon/riotboard/arm-2012.09/bin/../lib/gcc/arm-none-eabi/4.7.2//libgcc.a(libunwind.o)
___Unwind_RaiseException                          /home/leon/riotboard/arm-2012.09/bin/../lib/gcc/arm-none-eabi/4.7.2//libgcc.a(libunwind.o)
___Unwind_Resume                                  /home/leon/riotboard/arm-2012.09/bin/../lib/gcc/arm-none-eabi/4.7.2//libgcc.a(libunwind.o)
___Unwind_Resume_or_Rethrow                       /home/leon/riotboard/arm-2012.09/bin/../lib/gcc/arm-none-eabi/4.7.2//libgcc.a(libunwind.o)
__adddf3                                          /home/leon/riotboard/arm-2012.09/bin/../lib/gcc/arm-none-eabi/4.7.2//libgcc.a(_arm_addsubdf3.o)
__addsf3                                          /home/leon/riotboard/arm-2012.09/bin/../lib/gcc/arm-none-eabi/4.7.2//libgcc.a(_arm_addsubsf3.o)
__aeabi_cdcmpeq                                   /home/leon/riotboard/arm-2012.09/bin/../lib/gcc/arm-none-eabi/4.7.2//libgcc.a(_arm_cmpdf2.o)
__aeabi_cdcmple                                   /home/leon/riotboard/arm-2012.09/bin/../lib/gcc/arm-none-eabi/4.7.2//libgcc.a(_arm_cmpdf2.o)
__aeabi_cdrcmple                                  /home/leon/riotboard/arm-2012.09/bin/../lib/gcc/arm-none-eabi/4.7.2//libgcc.a(_arm_cmpdf2.o)
__aeabi_cfcmpeq                                   /home/leon/riotboard/arm-2012.09/bin/../lib/gcc/arm-none-eabi/4.7.2//libgcc.a(_arm_cmpsf2.o)
__aeabi_cfcmple                                   /home/leon/riotboard/arm-2012.09/bin/../lib/gcc/arm-none-eabi/4.7.2//libgcc.a(_arm_cmpsf2.o)
__aeabi_cfrcmple                                  /home/leon/riotboard/arm-2012.09/bin/../lib/gcc/arm-none-eabi/4.7.2//libgcc.a(_arm_cmpsf2.o)
__aeabi_d2iz                                      /home/leon/riotboard/arm-2012.09/bin/../lib/gcc/arm-none-eabi/4.7.2//libgcc.a(_arm_fixdfsi.o)
                                                  /home/leon/riotboard/arm-2012.09/bin/../arm-none-eabi/lib//libc.a(lib_a-dtoa.o)
__aeabi_dadd                                      /home/leon/riotboard/arm-2012.09/bin/../lib/gcc/arm-none-eabi/4.7.2//libgcc.a(_arm_addsubdf3.o)
                                                  /home/leon/riotboard/arm-2012.09/bin/../arm-none-eabi/lib//libc.a(lib_a-dtoa.o)
__aeabi_dcmpeq                                    /home/leon/riotboard/arm-2012.09/bin/../lib/gcc/arm-none-eabi/4.7.2//libgcc.a(_arm_cmpdf2.o)
                                                  /home/leon/riotboard/arm-2012.09/bin/../arm-none-eabi/lib//libc.a(lib_a-dtoa.o)
                                                  /home/leon/riotboard/arm-2012.09/bin/../arm-none-eabi/lib//libc.a(lib_a-vfprintf.o)
                                                  /home/leon/riotboard/arm-2012.09/bin/../arm-none-eabi/lib//libc.a(lib_a-svfprintf.o)
__aeabi_dcmpge                                    /home/leon/riotboard/arm-2012.09/bin/../lib/gcc/arm-none-eabi/4.7.2//libgcc.a(_arm_cmpdf2.o)
                                                  /home/leon/riotboard/arm-2012.09/bin/../arm-none-eabi/lib//libc.a(lib_a-dtoa.o)
__aeabi_dcmpgt                                    /home/leon/riotboard/arm-2012.09/bin/../lib/gcc/arm-none-eabi/4.7.2//libgcc.a(_arm_cmpdf2.o)
                                                  /home/leon/riotboard/arm-2012.09/bin/../arm-none-eabi/lib//libc.a(lib_a-dtoa.o)
__aeabi_dcmple                                    /home/leon/riotboard/arm-2012.09/bin/../lib/gcc/arm-none-eabi/4.7.2//libgcc.a(_arm_cmpdf2.o)
__aeabi_dcmplt                                    /home/leon/riotboard/arm-2012.09/bin/../lib/gcc/arm-none-eabi/4.7.2//libgcc.a(_arm_cmpdf2.o)
                                                  /home/leon/riotboard/arm-2012.09/bin/../arm-none-eabi/lib//libc.a(lib_a-dtoa.o)
                                                  /home/leon/riotboard/arm-2012.09/bin/../arm-none-eabi/lib//libc.a(lib_a-vfprintf.o)
                                                  /home/leon/riotboard/arm-2012.09/bin/../arm-none-eabi/lib//libc.a(lib_a-svfprintf.o)
__aeabi_ddiv                                      /home/leon/riotboard/arm-2012.09/bin/../lib/gcc/arm-none-eabi/4.7.2//libgcc.a(_arm_muldivdf3.o)
                                                  /home/leon/riotboard/arm-2012.09/bin/../arm-none-eabi/lib//libc.a(lib_a-mprec.o)
                                                  /home/leon/riotboard/arm-2012.09/bin/../arm-none-eabi/lib//libc.a(lib_a-dtoa.o)
__aeabi_dmul                                      /home/leon/riotboard/arm-2012.09/bin/../lib/gcc/arm-none-eabi/4.7.2//libgcc.a(_arm_muldivdf3.o)
                                                  /home/leon/riotboard/arm-2012.09/bin/../arm-none-eabi/lib//libc.a(lib_a-mprec.o)
                                                  /home/leon/riotboard/arm-2012.09/bin/../arm-none-eabi/lib//libc.a(lib_a-dtoa.o)
__aeabi_drsub                                     /home/leon/riotboard/arm-2012.09/bin/../lib/gcc/arm-none-eabi/4.7.2//libgcc.a(_arm_addsubdf3.o)
__aeabi_dsub                                      /home/leon/riotboard/arm-2012.09/bin/../lib/gcc/arm-none-eabi/4.7.2//libgcc.a(_arm_addsubdf3.o)
                                                  /home/leon/riotboard/arm-2012.09/bin/../arm-none-eabi/lib//libc.a(lib_a-dtoa.o)
__aeabi_f2d                                       /home/leon/riotboard/arm-2012.09/bin/../lib/gcc/arm-none-eabi/4.7.2//libgcc.a(_arm_addsubdf3.o)
__aeabi_f2iz                                      /home/leon/riotboard/arm-2012.09/bin/../lib/gcc/arm-none-eabi/4.7.2//libgcc.a(_arm_fixsfsi.o)
                                                  /home/leon/riotboard/arm-2012.09/bin/../arm-none-eabi/lib//libm.a(lib_a-kf_sin.o)
                                                  /home/leon/riotboard/arm-2012.09/bin/../arm-none-eabi/lib//libm.a(lib_a-kf_rem_pio2.o)
                                                  /home/leon/riotboard/arm-2012.09/bin/../arm-none-eabi/lib//libm.a(lib_a-kf_cos.o)
                                                  /home/leon/riotboard/arm-2012.09/bin/../arm-none-eabi/lib//libm.a(lib_a-ef_rem_pio2.o)
__aeabi_fadd                                      /home/leon/riotboard/arm-2012.09/bin/../lib/gcc/arm-none-eabi/4.7.2//libgcc.a(_arm_addsubsf3.o)
                                                  /home/leon/riotboard/arm-2012.09/bin/../arm-none-eabi/lib//libm.a(lib_a-sf_scalbn.o)
                                                  /home/leon/riotboard/arm-2012.09/bin/../arm-none-eabi/lib//libm.a(lib_a-sf_floor.o)
                                                  /home/leon/riotboard/arm-2012.09/bin/../arm-none-eabi/lib//libm.a(lib_a-kf_sin.o)
                                                  /home/leon/riotboard/arm-2012.09/bin/../arm-none-eabi/lib//libm.a(lib_a-kf_rem_pio2.o)
                                                  /home/leon/riotboard/arm-2012.09/bin/../arm-none-eabi/lib//libm.a(lib_a-kf_cos.o)
                                                  /home/leon/riotboard/arm-2012.09/bin/../arm-none-eabi/lib//libm.a(lib_a-ef_rem_pio2.o)
__aeabi_fcmpeq                                    /home/leon/riotboard/arm-2012.09/bin/../lib/gcc/arm-none-eabi/4.7.2//libgcc.a(_arm_cmpsf2.o)
                                                  /home/leon/riotboard/arm-2012.09/bin/../arm-none-eabi/lib//libm.a(lib_a-kf_rem_pio2.o)
                                                  /home/leon/riotboard/arm-2012.09/bin/../arm-none-eabi/lib//libm.a(lib_a-ef_rem_pio2.o)
__aeabi_fcmpge                                    /home/leon/riotboard/arm-2012.09/bin/../lib/gcc/arm-none-eabi/4.7.2//libgcc.a(_arm_cmpsf2.o)
                                                  /home/leon/riotboard/arm-2012.09/bin/../arm-none-eabi/lib//libm.a(lib_a-kf_rem_pio2.o)
__aeabi_fcmpgt                                    /home/leon/riotboard/arm-2012.09/bin/../lib/gcc/arm-none-eabi/4.7.2//libgcc.a(_arm_cmpsf2.o)
                                                  /home/leon/riotboard/arm-2012.09/bin/../arm-none-eabi/lib//libm.a(lib_a-sf_floor.o)
__aeabi_fcmple                                    /home/leon/riotboard/arm-2012.09/bin/../lib/gcc/arm-none-eabi/4.7.2//libgcc.a(_arm_cmpsf2.o)
__aeabi_fcmplt                                    /home/leon/riotboard/arm-2012.09/bin/../lib/gcc/arm-none-eabi/4.7.2//libgcc.a(_arm_cmpsf2.o)
__aeabi_fdiv                                      /home/leon/riotboard/arm-2012.09/bin/../lib/gcc/arm-none-eabi/4.7.2//libgcc.a(_arm_muldivsf3.o)
__aeabi_fmul                                      /home/leon/riotboard/arm-2012.09/bin/../lib/gcc/arm-none-eabi/4.7.2//libgcc.a(_arm_muldivsf3.o)
                                                  /home/leon/riotboard/arm-2012.09/bin/../arm-none-eabi/lib//libm.a(lib_a-sf_scalbn.o)
                                                  /home/leon/riotboard/arm-2012.09/bin/../arm-none-eabi/lib//libm.a(lib_a-kf_sin.o)
                                                  /home/leon/riotboard/arm-2012.09/bin/../arm-none-eabi/lib//libm.a(lib_a-kf_rem_pio2.o)
                                                  /home/leon/riotboard/arm-2012.09/bin/../arm-none-eabi/lib//libm.a(lib_a-kf_cos.o)
                                                  /home/leon/riotboard/arm-2012.09/bin/../arm-none-eabi/lib//libm.a(lib_a-ef_rem_pio2.o)
__aeabi_frsub                                     /home/leon/riotboard/arm-2012.09/bin/../lib/gcc/arm-none-eabi/4.7.2//libgcc.a(_arm_addsubsf3.o)
__aeabi_fsub                                      /home/leon/riotboard/arm-2012.09/bin/../lib/gcc/arm-none-eabi/4.7.2//libgcc.a(_arm_addsubsf3.o)
                                                  /home/leon/riotboard/arm-2012.09/bin/../arm-none-eabi/lib//libm.a(lib_a-kf_sin.o)
                                                  /home/leon/riotboard/arm-2012.09/bin/../arm-none-eabi/lib//libm.a(lib_a-kf_rem_pio2.o)
                                                  /home/leon/riotboard/arm-2012.09/bin/../arm-none-eabi/lib//libm.a(lib_a-kf_cos.o)
                                                  /home/leon/riotboard/arm-2012.09/bin/../arm-none-eabi/lib//libm.a(lib_a-ef_rem_pio2.o)
                                                  /home/leon/riotboard/arm-2012.09/bin/../arm-none-eabi/lib//libm.a(lib_a-sf_sin.o)
                                                  /home/leon/riotboard/arm-2012.09/bin/../arm-none-eabi/lib//libm.a(lib_a-sf_modf.o)
                                                  /home/leon/riotboard/arm-2012.09/bin/../arm-none-eabi/lib//libm.a(lib_a-sf_cos.o)
__aeabi_i2d                                       /home/leon/riotboard/arm-2012.09/bin/../lib/gcc/arm-none-eabi/4.7.2//libgcc.a(_arm_addsubdf3.o)
                                                  /home/leon/riotboard/arm-2012.09/bin/../arm-none-eabi/lib//libc.a(lib_a-dtoa.o)
__aeabi_i2f                                       /home/leon/riotboard/arm-2012.09/bin/../lib/gcc/arm-none-eabi/4.7.2//libgcc.a(_arm_addsubsf3.o)
                                                  /home/leon/riotboard/arm-2012.09/bin/../arm-none-eabi/lib//libm.a(lib_a-kf_rem_pio2.o)
                                                  /home/leon/riotboard/arm-2012.09/bin/../arm-none-eabi/lib//libm.a(lib_a-ef_rem_pio2.o)
__aeabi_idiv                                      /home/leon/riotboard/arm-2012.09/bin/../lib/gcc/arm-none-eabi/4.7.2//libgcc.a(_divsi3.o)
                                                  /home/leon/git/swp-report/iMX6_Platform_SDK/output/mx6sdl/lib/libsdk.a(usdhc_host.o)
                                                  /home/leon/git/swp-report/iMX6_Platform_SDK/output/mx6sdl/lib/libsdk.a(ipu_ic.o)
                                                  /home/leon/git/swp-report/iMX6_Platform_SDK/output/mx6sdl/lib/libsdk.a(ipu_common.o)
__aeabi_idiv0                                     /home/leon/riotboard/arm-2012.09/bin/../lib/gcc/arm-none-eabi/4.7.2//libgcc.a(_dvmd_tls.o)
                                                  /home/leon/riotboard/arm-2012.09/bin/../lib/gcc/arm-none-eabi/4.7.2//libgcc.a(_divsi3.o)
                                                  /home/leon/riotboard/arm-2012.09/bin/../lib/gcc/arm-none-eabi/4.7.2//libgcc.a(_udivsi3.o)
__aeabi_idivmod                                   /home/leon/riotboard/arm-2012.09/bin/../lib/gcc/arm-none-eabi/4.7.2//libgcc.a(_divsi3.o)
                                                  /home/leon/git/swp-report/iMX6_Platform_SDK/output/mx6sdl/lib/libsdk.a(usdhc_host.o)
                                                  /home/leon/git/swp-report/iMX6_Platform_SDK/output/mx6sdl/lib/libsdk.a(ipu_common.o)
__aeabi_l2d                                       /home/leon/riotboard/arm-2012.09/bin/../lib/gcc/arm-none-eabi/4.7.2//libgcc.a(_arm_addsubdf3.o)
__aeabi_l2f                                       /home/leon/riotboard/arm-2012.09/bin/../lib/gcc/arm-none-eabi/4.7.2//libgcc.a(_arm_addsubsf3.o)
__aeabi_ldiv0                                     /home/leon/riotboard/arm-2012.09/bin/../lib/gcc/arm-none-eabi/4.7.2//libgcc.a(_dvmd_tls.o)
                                                  /home/leon/riotboard/arm-2012.09/bin/../lib/gcc/arm-none-eabi/4.7.2//libgcc.a(_aeabi_uldivmod.o)
__aeabi_ui2d                                      /home/leon/riotboard/arm-2012.09/bin/../lib/gcc/arm-none-eabi/4.7.2//libgcc.a(_arm_addsubdf3.o)
                                                  /home/leon/riotboard/arm-2012.09/bin/../arm-none-eabi/lib//libc.a(lib_a-dtoa.o)
__aeabi_ui2f                                      /home/leon/riotboard/arm-2012.09/bin/../lib/gcc/arm-none-eabi/4.7.2//libgcc.a(_arm_addsubsf3.o)
__aeabi_uidiv                                     /home/leon/riotboard/arm-2012.09/bin/../lib/gcc/arm-none-eabi/4.7.2//libgcc.a(_udivsi3.o)
                                                  /home/leon/riotboard/arm-2012.09/bin/../arm-none-eabi/lib//libc.a(lib_a-fwrite.o)
                                                  /home/leon/git/swp-report/iMX6_Platform_SDK/output/mx6sdl/lib/libsdk.a(imx_i2c.o)
                                                  /home/leon/riotboard/arm-2012.09/bin/../lib/gcc/arm-none-eabi/4.7.2//libgcc.a(_udivdi3.o)
                                                  /home/leon/riotboard/arm-2012.09/bin/../lib/gcc/arm-none-eabi/4.7.2//libgcc.a(_divdi3.o)
                                                  /home/leon/riotboard/arm-2012.09/bin/../arm-none-eabi/lib//libc.a(lib_a-dtoa.o)
                                                  /home/leon/git/swp-report/iMX6_Platform_SDK/output/mx6sdl/sdk_unit_test/smart_device_rev_a/libsdk_unit_test.a(ips_resize.o)
                                                  /home/leon/git/swp-report/iMX6_Platform_SDK/output/mx6sdl/sdk_unit_test/smart_device_rev_a/libsdk_unit_test.a(gpt_test.o)
                                                  /home/leon/git/swp-report/iMX6_Platform_SDK/output/mx6sdl/lib/libsdk.a(ccm_pll.o)
__aeabi_uidivmod                                  /home/leon/riotboard/arm-2012.09/bin/../lib/gcc/arm-none-eabi/4.7.2//libgcc.a(_udivsi3.o)
                                                  /home/leon/riotboard/arm-2012.09/bin/../lib/gcc/arm-none-eabi/4.7.2//libgcc.a(_udivdi3.o)
                                                  /home/leon/riotboard/arm-2012.09/bin/../lib/gcc/arm-none-eabi/4.7.2//libgcc.a(_divdi3.o)
__aeabi_ul2d                                      /home/leon/riotboard/arm-2012.09/bin/../lib/gcc/arm-none-eabi/4.7.2//libgcc.a(_arm_addsubdf3.o)
__aeabi_ul2f                                      /home/leon/riotboard/arm-2012.09/bin/../lib/gcc/arm-none-eabi/4.7.2//libgcc.a(_arm_addsubsf3.o)
__aeabi_uldivmod                                  /home/leon/riotboard/arm-2012.09/bin/../lib/gcc/arm-none-eabi/4.7.2//libgcc.a(_aeabi_uldivmod.o)
                                                  /home/leon/git/swp-report/iMX6_Platform_SDK/output/mx6sdl/lib/libsdk.a(runtime_support.o)
                                                  /home/leon/riotboard/arm-2012.09/bin/../arm-none-eabi/lib//libc.a(lib_a-svfiprintf.o)
                                                  /home/leon/riotboard/arm-2012.09/bin/../arm-none-eabi/lib//libc.a(lib_a-vfprintf.o)
                                                  /home/leon/riotboard/arm-2012.09/bin/../arm-none-eabi/lib//libc.a(lib_a-vfiprintf.o)
                                                  /home/leon/riotboard/arm-2012.09/bin/../arm-none-eabi/lib//libc.a(lib_a-svfprintf.o)
                                                  /home/leon/git/swp-report/iMX6_Platform_SDK/output/mx6sdl/lib/libsdk.a(timer.o)
__aeabi_unwind_cpp_pr0                            /home/leon/riotboard/arm-2012.09/bin/../lib/gcc/arm-none-eabi/4.7.2//libgcc.a(unwind-arm.o)
                                                  /home/leon/riotboard/arm-2012.09/bin/../lib/gcc/arm-none-eabi/4.7.2//libgcc.a(pr-support.o)
                                                  /home/leon/riotboard/arm-2012.09/bin/../arm-none-eabi/lib//libstdc++.a(class_type_info.o)
                                                  /home/leon/riotboard/arm-2012.09/bin/../arm-none-eabi/lib//libstdc++.a(eh_personality.o)
                                                  /home/leon/riotboard/arm-2012.09/bin/../arm-none-eabi/lib//libstdc++.a(si_class_type_info.o)
                                                  /home/leon/riotboard/arm-2012.09/bin/../arm-none-eabi/lib//libstdc++.a(eh_arm.o)
                                                  /home/leon/riotboard/arm-2012.09/bin/../arm-none-eabi/lib//libstdc++.a(eh_throw.o)
__aeabi_unwind_cpp_pr1                            /home/leon/riotboard/arm-2012.09/bin/../lib/gcc/arm-none-eabi/4.7.2//libgcc.a(unwind-arm.o)
                                                  /home/leon/riotboard/arm-2012.09/bin/../lib/gcc/arm-none-eabi/4.7.2//libgcc.a(pr-support.o)
                                                  /home/leon/riotboard/arm-2012.09/bin/../arm-none-eabi/lib//libstdc++.a(eh_catch.o)
                                                  /home/leon/riotboard/arm-2012.09/bin/../arm-none-eabi/lib//libstdc++.a(eh_personality.o)
                                                  /home/leon/riotboard/arm-2012.09/bin/../arm-none-eabi/lib//libstdc++.a(eh_terminate.o)
                                                  /home/leon/riotboard/arm-2012.09/bin/../arm-none-eabi/lib//libstdc++.a(pure.o)
__aeabi_unwind_cpp_pr2                            /home/leon/riotboard/arm-2012.09/bin/../lib/gcc/arm-none-eabi/4.7.2//libgcc.a(unwind-arm.o)
__any_on                                          /home/leon/riotboard/arm-2012.09/bin/../arm-none-eabi/lib//libc.a(lib_a-mprec.o)
__ascii_wctomb                                    /home/leon/riotboard/arm-2012.09/bin/../arm-none-eabi/lib//libc.a(lib_a-wctomb_r.o)
__assert                                          /home/leon/riotboard/arm-2012.09/bin/../arm-none-eabi/lib//libc.a(lib_a-assert.o)
__assert_func                                     /home/leon/riotboard/arm-2012.09/bin/../arm-none-eabi/lib//libc.a(lib_a-assert.o)
                                                  /home/leon/git/swp-report/iMX6_Platform_SDK/output/mx6sdl/lib/libboard_smart_device_rev_a.a(usdhc_iomux_config.o)
                                                  /home/leon/git/swp-report/iMX6_Platform_SDK/output/mx6sdl/lib/libboard_smart_device_rev_a.a(pwm_iomux_config.o)
                                                  /home/leon/git/swp-report/iMX6_Platform_SDK/output/mx6sdl/lib/libboard_smart_device_rev_a.a(i2c_iomux_config.o)
                                                  /home/leon/git/swp-report/iMX6_Platform_SDK/output/mx6sdl/lib/libboard_smart_device_rev_a.a(ecspi_iomux_config.o)
                                                  /home/leon/git/swp-report/iMX6_Platform_SDK/output/mx6sdl/lib/libsdk.a(cpu_multicore.o)
                                                  /home/leon/git/swp-report/iMX6_Platform_SDK/output/mx6sdl/lib/libboard_smart_device_rev_a.a(uart_iomux_config.o)
                                                  /home/leon/git/swp-report/iMX6_Platform_SDK/output/mx6sdl/lib/libsdk.a(gic.o)
__b2d                                             /home/leon/riotboard/arm-2012.09/bin/../arm-none-eabi/lib//libc.a(lib_a-mprec.o)
__bss_end__                                       /home/leon/git/swp-report/iMX6_Platform_SDK/output/mx6sdl/lib/libsdk.a(startup.o)
__bss_start__                                     /home/leon/git/swp-report/iMX6_Platform_SDK/output/mx6sdl/lib/libsdk.a(startup.o)
__clzsi2                                          /home/leon/riotboard/arm-2012.09/bin/../lib/gcc/arm-none-eabi/4.7.2//libgcc.a(_clzsi2.o)
                                                  /home/leon/riotboard/arm-2012.09/bin/../lib/gcc/arm-none-eabi/4.7.2//libgcc.a(_udivdi3.o)
                                                  /home/leon/riotboard/arm-2012.09/bin/../lib/gcc/arm-none-eabi/4.7.2//libgcc.a(_divdi3.o)
__cmpdf2                                          /home/leon/riotboard/arm-2012.09/bin/../lib/gcc/arm-none-eabi/4.7.2//libgcc.a(_arm_cmpdf2.o)
__cmpsf2                                          /home/leon/riotboard/arm-2012.09/bin/../lib/gcc/arm-none-eabi/4.7.2//libgcc.a(_arm_cmpsf2.o)
__copybits                                        /home/leon/riotboard/arm-2012.09/bin/../arm-none-eabi/lib//libc.a(lib_a-mprec.o)
__ctype_ptr__                                     /home/leon/riotboard/arm-2012.09/bin/../arm-none-eabi/lib//libc.a(lib_a-ctype_.o)
                                                  /home/leon/riotboard/arm-2012.09/bin/../arm-none-eabi/lib//libc.a(lib_a-strncasecmp.o)
__cxa_allocate_dependent_exception                /home/leon/riotboard/arm-2012.09/bin/../arm-none-eabi/lib//libstdc++.a(eh_alloc.o)
__cxa_allocate_exception                          /home/leon/riotboard/arm-2012.09/bin/../arm-none-eabi/lib//libstdc++.a(eh_alloc.o)
                                                  /home/leon/riotboard/arm-2012.09/bin/../arm-none-eabi/lib//libstdc++.a(eh_call.o)
__cxa_begin_catch                                 /home/leon/riotboard/arm-2012.09/bin/../arm-none-eabi/lib//libstdc++.a(eh_catch.o)
                                                  /home/leon/riotboard/arm-2012.09/bin/../arm-none-eabi/lib//libstdc++.a(vterminate.o)
                                                  /home/leon/riotboard/arm-2012.09/bin/../arm-none-eabi/lib//libstdc++.a(eh_personality.o)
                                                  /home/leon/riotboard/arm-2012.09/bin/../arm-none-eabi/lib//libstdc++.a(eh_throw.o)
                                                  /home/leon/riotboard/arm-2012.09/bin/../arm-none-eabi/lib//libstdc++.a(eh_call.o)
                                                  /home/leon/riotboard/arm-2012.09/bin/../arm-none-eabi/lib//libstdc++.a(eh_terminate.o)
__cxa_begin_cleanup                               /home/leon/riotboard/arm-2012.09/bin/../arm-none-eabi/lib//libstdc++.a(eh_arm.o)
                                                  /home/leon/riotboard/arm-2012.09/bin/../lib/gcc/arm-none-eabi/4.7.2//libgcc.a(unwind-arm.o)
                                                  /home/leon/riotboard/arm-2012.09/bin/../arm-none-eabi/lib//libstdc++.a(eh_personality.o)
__cxa_call_terminate                              /home/leon/riotboard/arm-2012.09/bin/../arm-none-eabi/lib//libstdc++.a(eh_call.o)
                                                  /home/leon/riotboard/arm-2012.09/bin/../arm-none-eabi/lib//libstdc++.a(eh_personality.o)
__cxa_call_unexpected                             /home/leon/riotboard/arm-2012.09/bin/../arm-none-eabi/lib//libstdc++.a(eh_call.o)
                                                  /home/leon/riotboard/arm-2012.09/bin/../lib/gcc/arm-none-eabi/4.7.2//libgcc.a(unwind-arm.o)
                                                  /home/leon/riotboard/arm-2012.09/bin/../arm-none-eabi/lib//libstdc++.a(eh_catch.o)
                                                  /home/leon/riotboard/arm-2012.09/bin/../arm-none-eabi/lib//libstdc++.a(eh_terminate.o)
__cxa_current_exception_type                      /home/leon/riotboard/arm-2012.09/bin/../arm-none-eabi/lib//libstdc++.a(eh_type.o)
                                                  /home/leon/riotboard/arm-2012.09/bin/../arm-none-eabi/lib//libstdc++.a(vterminate.o)
__cxa_deleted_virtual                             /home/leon/riotboard/arm-2012.09/bin/../arm-none-eabi/lib//libstdc++.a(pure.o)
__cxa_demangle                                    /home/leon/riotboard/arm-2012.09/bin/../arm-none-eabi/lib//libstdc++.a(cp-demangle.o)
                                                  /home/leon/riotboard/arm-2012.09/bin/../arm-none-eabi/lib//libstdc++.a(vterminate.o)
__cxa_end_catch                                   /home/leon/riotboard/arm-2012.09/bin/../arm-none-eabi/lib//libstdc++.a(eh_catch.o)
                                                  /home/leon/riotboard/arm-2012.09/bin/../arm-none-eabi/lib//libstdc++.a(vterminate.o)
                                                  /home/leon/riotboard/arm-2012.09/bin/../arm-none-eabi/lib//libstdc++.a(eh_call.o)
                                                  /home/leon/riotboard/arm-2012.09/bin/../arm-none-eabi/lib//libstdc++.a(eh_terminate.o)
__cxa_end_cleanup                                 /home/leon/riotboard/arm-2012.09/bin/../arm-none-eabi/lib//libstdc++.a(eh_arm.o)
                                                  /home/leon/riotboard/arm-2012.09/bin/../arm-none-eabi/lib//libstdc++.a(vterminate.o)
                                                  /home/leon/riotboard/arm-2012.09/bin/../arm-none-eabi/lib//libstdc++.a(eh_catch.o)
                                                  /home/leon/riotboard/arm-2012.09/bin/../arm-none-eabi/lib//libstdc++.a(eh_call.o)
                                                  /home/leon/riotboard/arm-2012.09/bin/../arm-none-eabi/lib//libstdc++.a(eh_terminate.o)
__cxa_free_dependent_exception                    /home/leon/riotboard/arm-2012.09/bin/../arm-none-eabi/lib//libstdc++.a(eh_alloc.o)
__cxa_free_exception                              /home/leon/riotboard/arm-2012.09/bin/../arm-none-eabi/lib//libstdc++.a(eh_alloc.o)
                                                  /home/leon/riotboard/arm-2012.09/bin/../arm-none-eabi/lib//libstdc++.a(eh_throw.o)
__cxa_get_exception_ptr                           /home/leon/riotboard/arm-2012.09/bin/../arm-none-eabi/lib//libstdc++.a(eh_catch.o)
__cxa_get_globals                                 /home/leon/riotboard/arm-2012.09/bin/../arm-none-eabi/lib//libstdc++.a(eh_globals.o)
                                                  /home/leon/riotboard/arm-2012.09/bin/../arm-none-eabi/lib//libstdc++.a(eh_type.o)
                                                  /home/leon/riotboard/arm-2012.09/bin/../arm-none-eabi/lib//libstdc++.a(eh_catch.o)
                                                  /home/leon/riotboard/arm-2012.09/bin/../arm-none-eabi/lib//libstdc++.a(eh_alloc.o)
                                                  /home/leon/riotboard/arm-2012.09/bin/../arm-none-eabi/lib//libstdc++.a(eh_arm.o)
                                                  /home/leon/riotboard/arm-2012.09/bin/../arm-none-eabi/lib//libstdc++.a(eh_throw.o)
__cxa_get_globals_fast                            /home/leon/riotboard/arm-2012.09/bin/../arm-none-eabi/lib//libstdc++.a(eh_globals.o)
                                                  /home/leon/riotboard/arm-2012.09/bin/../arm-none-eabi/lib//libstdc++.a(eh_catch.o)
                                                  /home/leon/riotboard/arm-2012.09/bin/../arm-none-eabi/lib//libstdc++.a(eh_call.o)
__cxa_pure_virtual                                /home/leon/riotboard/arm-2012.09/bin/../arm-none-eabi/lib//libstdc++.a(pure.o)
                                                  /home/leon/riotboard/arm-2012.09/bin/../arm-none-eabi/lib//libstdc++.a(eh_exception.o)
                                                  /home/leon/git/swp-report/iMX6_Platform_SDK/output/mx6sdl/lib/libsdk.a(pmu_driver.o)
__cxa_rethrow                                     /home/leon/riotboard/arm-2012.09/bin/../arm-none-eabi/lib//libstdc++.a(eh_throw.o)
                                                  /home/leon/riotboard/arm-2012.09/bin/../arm-none-eabi/lib//libstdc++.a(vterminate.o)
                                                  /home/leon/riotboard/arm-2012.09/bin/../arm-none-eabi/lib//libstdc++.a(eh_call.o)
__cxa_throw                                       /home/leon/riotboard/arm-2012.09/bin/../arm-none-eabi/lib//libstdc++.a(eh_throw.o)
                                                  /home/leon/riotboard/arm-2012.09/bin/../arm-none-eabi/lib//libstdc++.a(eh_call.o)
__cxa_type_match                                  /home/leon/riotboard/arm-2012.09/bin/../arm-none-eabi/lib//libstdc++.a(eh_arm.o)
                                                  /home/leon/riotboard/arm-2012.09/bin/../lib/gcc/arm-none-eabi/4.7.2//libgcc.a(unwind-arm.o)
                                                  /home/leon/riotboard/arm-2012.09/bin/../arm-none-eabi/lib//libstdc++.a(eh_personality.o)
                                                  /home/leon/riotboard/arm-2012.09/bin/../arm-none-eabi/lib//libstdc++.a(eh_call.o)
__cxxabiv1::__class_type_info::__do_catch(std::type_info const*, void**, unsigned int) const /home/leon/riotboard/arm-2012.09/bin/../arm-none-eabi/lib//libstdc++.a(class_type_info.o)
                                                  /home/leon/riotboard/arm-2012.09/bin/../arm-none-eabi/lib//libstdc++.a(si_class_type_info.o)
__cxxabiv1::__class_type_info::__do_dyncast(int, __cxxabiv1::__class_type_info::__sub_kind, __cxxabiv1::__class_type_info const*, void const*, __cxxabiv1::__class_type_info const*, void const*, __cxxabiv1::__class_type_info::__dyncast_result&) const /home/leon/riotboard/arm-2012.09/bin/../arm-none-eabi/lib//libstdc++.a(class_type_info.o)
__cxxabiv1::__class_type_info::__do_find_public_src(int, void const*, __cxxabiv1::__class_type_info const*, void const*) const /home/leon/riotboard/arm-2012.09/bin/../arm-none-eabi/lib//libstdc++.a(class_type_info.o)
__cxxabiv1::__class_type_info::__do_upcast(__cxxabiv1::__class_type_info const*, void const*, __cxxabiv1::__class_type_info::__upcast_result&) const /home/leon/riotboard/arm-2012.09/bin/../arm-none-eabi/lib//libstdc++.a(class_type_info.o)
                                                  /home/leon/riotboard/arm-2012.09/bin/../arm-none-eabi/lib//libstdc++.a(si_class_type_info.o)
__cxxabiv1::__class_type_info::__do_upcast(__cxxabiv1::__class_type_info const*, void**) const /home/leon/riotboard/arm-2012.09/bin/../arm-none-eabi/lib//libstdc++.a(class_type_info.o)
                                                  /home/leon/riotboard/arm-2012.09/bin/../arm-none-eabi/lib//libstdc++.a(si_class_type_info.o)
__cxxabiv1::__class_type_info::~__class_type_info() /home/leon/riotboard/arm-2012.09/bin/../arm-none-eabi/lib//libstdc++.a(class_type_info.o)
__cxxabiv1::__class_type_info::~__class_type_info() /home/leon/riotboard/arm-2012.09/bin/../arm-none-eabi/lib//libstdc++.a(class_type_info.o)
                                                  /home/leon/riotboard/arm-2012.09/bin/../arm-none-eabi/lib//libstdc++.a(si_class_type_info.o)
__cxxabiv1::__class_type_info::~__class_type_info() /home/leon/riotboard/arm-2012.09/bin/../arm-none-eabi/lib//libstdc++.a(class_type_info.o)
__cxxabiv1::__forced_unwind::~__forced_unwind()   /home/leon/riotboard/arm-2012.09/bin/../arm-none-eabi/lib//libstdc++.a(eh_exception.o)
__cxxabiv1::__forced_unwind::~__forced_unwind()   /home/leon/riotboard/arm-2012.09/bin/../arm-none-eabi/lib//libstdc++.a(eh_exception.o)
__cxxabiv1::__forced_unwind::~__forced_unwind()   /home/leon/riotboard/arm-2012.09/bin/../arm-none-eabi/lib//libstdc++.a(eh_exception.o)
__cxxabiv1::__foreign_exception::~__foreign_exception() /home/leon/riotboard/arm-2012.09/bin/../arm-none-eabi/lib//libstdc++.a(eh_exception.o)
__cxxabiv1::__foreign_exception::~__foreign_exception() /home/leon/riotboard/arm-2012.09/bin/../arm-none-eabi/lib//libstdc++.a(eh_exception.o)
__cxxabiv1::__foreign_exception::~__foreign_exception() /home/leon/riotboard/arm-2012.09/bin/../arm-none-eabi/lib//libstdc++.a(eh_exception.o)
__cxxabiv1::__si_class_type_info::__do_dyncast(int, __cxxabiv1::__class_type_info::__sub_kind, __cxxabiv1::__class_type_info const*, void const*, __cxxabiv1::__class_type_info const*, void const*, __cxxabiv1::__class_type_info::__dyncast_result&) const /home/leon/riotboard/arm-2012.09/bin/../arm-none-eabi/lib//libstdc++.a(si_class_type_info.o)
__cxxabiv1::__si_class_type_info::__do_find_public_src(int, void const*, __cxxabiv1::__class_type_info const*, void const*) const /home/leon/riotboard/arm-2012.09/bin/../arm-none-eabi/lib//libstdc++.a(si_class_type_info.o)
__cxxabiv1::__si_class_type_info::__do_upcast(__cxxabiv1::__class_type_info const*, void const*, __cxxabiv1::__class_type_info::__upcast_result&) const /home/leon/riotboard/arm-2012.09/bin/../arm-none-eabi/lib//libstdc++.a(si_class_type_info.o)
__cxxabiv1::__si_class_type_info::~__si_class_type_info() /home/leon/riotboard/arm-2012.09/bin/../arm-none-eabi/lib//libstdc++.a(si_class_type_info.o)
__cxxabiv1::__si_class_type_info::~__si_class_type_info() /home/leon/riotboard/arm-2012.09/bin/../arm-none-eabi/lib//libstdc++.a(si_class_type_info.o)
__cxxabiv1::__si_class_type_info::~__si_class_type_info() /home/leon/riotboard/arm-2012.09/bin/../arm-none-eabi/lib//libstdc++.a(si_class_type_info.o)
__cxxabiv1::__terminate(void (*)())               /home/leon/riotboard/arm-2012.09/bin/../arm-none-eabi/lib//libstdc++.a(eh_terminate.o)
                                                  /home/leon/riotboard/arm-2012.09/bin/../arm-none-eabi/lib//libstdc++.a(eh_throw.o)
                                                  /home/leon/riotboard/arm-2012.09/bin/../arm-none-eabi/lib//libstdc++.a(eh_call.o)
__cxxabiv1::__terminate_handler                   /home/leon/riotboard/arm-2012.09/bin/../arm-none-eabi/lib//libstdc++.a(eh_term_handler.o)
                                                  /home/leon/riotboard/arm-2012.09/bin/../arm-none-eabi/lib//libstdc++.a(eh_throw.o)
                                                  /home/leon/riotboard/arm-2012.09/bin/../arm-none-eabi/lib//libstdc++.a(eh_terminate.o)
__cxxabiv1::__unexpected(void (*)())              /home/leon/riotboard/arm-2012.09/bin/../arm-none-eabi/lib//libstdc++.a(eh_terminate.o)
                                                  /home/leon/riotboard/arm-2012.09/bin/../arm-none-eabi/lib//libstdc++.a(eh_call.o)
__cxxabiv1::__unexpected_handler                  /home/leon/riotboard/arm-2012.09/bin/../arm-none-eabi/lib//libstdc++.a(eh_unex_handler.o)
                                                  /home/leon/riotboard/arm-2012.09/bin/../arm-none-eabi/lib//libstdc++.a(eh_throw.o)
                                                  /home/leon/riotboard/arm-2012.09/bin/../arm-none-eabi/lib//libstdc++.a(eh_terminate.o)
__d2b                                             /home/leon/riotboard/arm-2012.09/bin/../arm-none-eabi/lib//libc.a(lib_a-mprec.o)
                                                  /home/leon/riotboard/arm-2012.09/bin/../arm-none-eabi/lib//libc.a(lib_a-dtoa.o)
__deregister_frame_info                           /home/leon/riotboard/arm-2012.09/bin/../lib/gcc/arm-none-eabi/4.7.2//crtbegin.o
__divdf3                                          /home/leon/riotboard/arm-2012.09/bin/../lib/gcc/arm-none-eabi/4.7.2//libgcc.a(_arm_muldivdf3.o)
__divdi3                                          /home/leon/riotboard/arm-2012.09/bin/../lib/gcc/arm-none-eabi/4.7.2//libgcc.a(_divdi3.o)
                                                  /home/leon/riotboard/arm-2012.09/bin/../lib/gcc/arm-none-eabi/4.7.2//libgcc.a(bpabi.o)
__divsf3                                          /home/leon/riotboard/arm-2012.09/bin/../lib/gcc/arm-none-eabi/4.7.2//libgcc.a(_arm_muldivsf3.o)
__divsi3                                          /home/leon/riotboard/arm-2012.09/bin/../lib/gcc/arm-none-eabi/4.7.2//libgcc.a(_divsi3.o)
__dso_handle                                      /home/leon/riotboard/arm-2012.09/bin/../lib/gcc/arm-none-eabi/4.7.2//crtbegin.o
__env                                             /home/leon/git/swp-report/iMX6_Platform_SDK/output/mx6sdl/lib/libsdk.a(runtime_support.o)
__eqdf2                                           /home/leon/riotboard/arm-2012.09/bin/../lib/gcc/arm-none-eabi/4.7.2//libgcc.a(_arm_cmpdf2.o)
__eqsf2                                           /home/leon/riotboard/arm-2012.09/bin/../lib/gcc/arm-none-eabi/4.7.2//libgcc.a(_arm_cmpsf2.o)
__exidx_end                                       /home/leon/riotboard/arm-2012.09/bin/../lib/gcc/arm-none-eabi/4.7.2//libgcc.a(unwind-arm.o)
__exidx_start                                     /home/leon/riotboard/arm-2012.09/bin/../lib/gcc/arm-none-eabi/4.7.2//libgcc.a(unwind-arm.o)
__extendsfdf2                                     /home/leon/riotboard/arm-2012.09/bin/../lib/gcc/arm-none-eabi/4.7.2//libgcc.a(_arm_addsubdf3.o)
__fixdfsi                                         /home/leon/riotboard/arm-2012.09/bin/../lib/gcc/arm-none-eabi/4.7.2//libgcc.a(_arm_fixdfsi.o)
__fixsfsi                                         /home/leon/riotboard/arm-2012.09/bin/../lib/gcc/arm-none-eabi/4.7.2//libgcc.a(_arm_fixsfsi.o)
__floatdidf                                       /home/leon/riotboard/arm-2012.09/bin/../lib/gcc/arm-none-eabi/4.7.2//libgcc.a(_arm_addsubdf3.o)
__floatdisf                                       /home/leon/riotboard/arm-2012.09/bin/../lib/gcc/arm-none-eabi/4.7.2//libgcc.a(_arm_addsubsf3.o)
__floatsidf                                       /home/leon/riotboard/arm-2012.09/bin/../lib/gcc/arm-none-eabi/4.7.2//libgcc.a(_arm_addsubdf3.o)
__floatsisf                                       /home/leon/riotboard/arm-2012.09/bin/../lib/gcc/arm-none-eabi/4.7.2//libgcc.a(_arm_addsubsf3.o)
__floatundidf                                     /home/leon/riotboard/arm-2012.09/bin/../lib/gcc/arm-none-eabi/4.7.2//libgcc.a(_arm_addsubdf3.o)
__floatundisf                                     /home/leon/riotboard/arm-2012.09/bin/../lib/gcc/arm-none-eabi/4.7.2//libgcc.a(_arm_addsubsf3.o)
__floatunsidf                                     /home/leon/riotboard/arm-2012.09/bin/../lib/gcc/arm-none-eabi/4.7.2//libgcc.a(_arm_addsubdf3.o)
__floatunsisf                                     /home/leon/riotboard/arm-2012.09/bin/../lib/gcc/arm-none-eabi/4.7.2//libgcc.a(_arm_addsubsf3.o)
__fp_lock_all                                     /home/leon/riotboard/arm-2012.09/bin/../arm-none-eabi/lib//libc.a(lib_a-findfp.o)
__fp_unlock_all                                   /home/leon/riotboard/arm-2012.09/bin/../arm-none-eabi/lib//libc.a(lib_a-findfp.o)
__fpclassifyd                                     /home/leon/riotboard/arm-2012.09/bin/../arm-none-eabi/lib//libc.a(lib_a-s_fpclassify.o)
                                                  /home/leon/riotboard/arm-2012.09/bin/../arm-none-eabi/lib//libc.a(lib_a-vfprintf.o)
                                                  /home/leon/riotboard/arm-2012.09/bin/../arm-none-eabi/lib//libc.a(lib_a-svfprintf.o)
__gcclibcxx_demangle_callback                     /home/leon/riotboard/arm-2012.09/bin/../arm-none-eabi/lib//libstdc++.a(cp-demangle.o)
__gedf2                                           /home/leon/riotboard/arm-2012.09/bin/../lib/gcc/arm-none-eabi/4.7.2//libgcc.a(_arm_cmpdf2.o)
__gesf2                                           /home/leon/riotboard/arm-2012.09/bin/../lib/gcc/arm-none-eabi/4.7.2//libgcc.a(_arm_cmpsf2.o)
__gnu_Unwind_Backtrace                            /home/leon/riotboard/arm-2012.09/bin/../lib/gcc/arm-none-eabi/4.7.2//libgcc.a(unwind-arm.o)
                                                  /home/leon/riotboard/arm-2012.09/bin/../lib/gcc/arm-none-eabi/4.7.2//libgcc.a(libunwind.o)
__gnu_Unwind_Find_exidx                           /home/leon/riotboard/arm-2012.09/bin/../lib/gcc/arm-none-eabi/4.7.2//libgcc.a(unwind-arm.o)
__gnu_Unwind_ForcedUnwind                         /home/leon/riotboard/arm-2012.09/bin/../lib/gcc/arm-none-eabi/4.7.2//libgcc.a(unwind-arm.o)
                                                  /home/leon/riotboard/arm-2012.09/bin/../lib/gcc/arm-none-eabi/4.7.2//libgcc.a(libunwind.o)
__gnu_Unwind_RaiseException                       /home/leon/riotboard/arm-2012.09/bin/../lib/gcc/arm-none-eabi/4.7.2//libgcc.a(unwind-arm.o)
                                                  /home/leon/riotboard/arm-2012.09/bin/../lib/gcc/arm-none-eabi/4.7.2//libgcc.a(libunwind.o)
__gnu_Unwind_Restore_VFP                          /home/leon/riotboard/arm-2012.09/bin/../lib/gcc/arm-none-eabi/4.7.2//libgcc.a(libunwind.o)
                                                  /home/leon/riotboard/arm-2012.09/bin/../lib/gcc/arm-none-eabi/4.7.2//libgcc.a(unwind-arm.o)
__gnu_Unwind_Restore_VFP_D                        /home/leon/riotboard/arm-2012.09/bin/../lib/gcc/arm-none-eabi/4.7.2//libgcc.a(libunwind.o)
                                                  /home/leon/riotboard/arm-2012.09/bin/../lib/gcc/arm-none-eabi/4.7.2//libgcc.a(unwind-arm.o)
__gnu_Unwind_Restore_VFP_D_16_to_31               /home/leon/riotboard/arm-2012.09/bin/../lib/gcc/arm-none-eabi/4.7.2//libgcc.a(libunwind.o)
                                                  /home/leon/riotboard/arm-2012.09/bin/../lib/gcc/arm-none-eabi/4.7.2//libgcc.a(unwind-arm.o)
__gnu_Unwind_Restore_WMMXC                        /home/leon/riotboard/arm-2012.09/bin/../lib/gcc/arm-none-eabi/4.7.2//libgcc.a(libunwind.o)
                                                  /home/leon/riotboard/arm-2012.09/bin/../lib/gcc/arm-none-eabi/4.7.2//libgcc.a(unwind-arm.o)
__gnu_Unwind_Restore_WMMXD                        /home/leon/riotboard/arm-2012.09/bin/../lib/gcc/arm-none-eabi/4.7.2//libgcc.a(libunwind.o)
                                                  /home/leon/riotboard/arm-2012.09/bin/../lib/gcc/arm-none-eabi/4.7.2//libgcc.a(unwind-arm.o)
__gnu_Unwind_Resume                               /home/leon/riotboard/arm-2012.09/bin/../lib/gcc/arm-none-eabi/4.7.2//libgcc.a(unwind-arm.o)
                                                  /home/leon/riotboard/arm-2012.09/bin/../lib/gcc/arm-none-eabi/4.7.2//libgcc.a(libunwind.o)
__gnu_Unwind_Resume_or_Rethrow                    /home/leon/riotboard/arm-2012.09/bin/../lib/gcc/arm-none-eabi/4.7.2//libgcc.a(unwind-arm.o)
                                                  /home/leon/riotboard/arm-2012.09/bin/../lib/gcc/arm-none-eabi/4.7.2//libgcc.a(libunwind.o)
__gnu_Unwind_Save_VFP                             /home/leon/riotboard/arm-2012.09/bin/../lib/gcc/arm-none-eabi/4.7.2//libgcc.a(libunwind.o)
                                                  /home/leon/riotboard/arm-2012.09/bin/../lib/gcc/arm-none-eabi/4.7.2//libgcc.a(unwind-arm.o)
__gnu_Unwind_Save_VFP_D                           /home/leon/riotboard/arm-2012.09/bin/../lib/gcc/arm-none-eabi/4.7.2//libgcc.a(libunwind.o)
                                                  /home/leon/riotboard/arm-2012.09/bin/../lib/gcc/arm-none-eabi/4.7.2//libgcc.a(unwind-arm.o)
__gnu_Unwind_Save_VFP_D_16_to_31                  /home/leon/riotboard/arm-2012.09/bin/../lib/gcc/arm-none-eabi/4.7.2//libgcc.a(libunwind.o)
                                                  /home/leon/riotboard/arm-2012.09/bin/../lib/gcc/arm-none-eabi/4.7.2//libgcc.a(unwind-arm.o)
__gnu_Unwind_Save_WMMXC                           /home/leon/riotboard/arm-2012.09/bin/../lib/gcc/arm-none-eabi/4.7.2//libgcc.a(libunwind.o)
                                                  /home/leon/riotboard/arm-2012.09/bin/../lib/gcc/arm-none-eabi/4.7.2//libgcc.a(unwind-arm.o)
__gnu_Unwind_Save_WMMXD                           /home/leon/riotboard/arm-2012.09/bin/../lib/gcc/arm-none-eabi/4.7.2//libgcc.a(libunwind.o)
                                                  /home/leon/riotboard/arm-2012.09/bin/../lib/gcc/arm-none-eabi/4.7.2//libgcc.a(unwind-arm.o)
__gnu_cxx::__verbose_terminate_handler()          /home/leon/riotboard/arm-2012.09/bin/../arm-none-eabi/lib//libstdc++.a(vterminate.o)
                                                  /home/leon/riotboard/arm-2012.09/bin/../arm-none-eabi/lib//libstdc++.a(eh_term_handler.o)
__gnu_end_cleanup                                 /home/leon/riotboard/arm-2012.09/bin/../arm-none-eabi/lib//libstdc++.a(eh_arm.o)
__gnu_ldivmod_helper                              /home/leon/riotboard/arm-2012.09/bin/../lib/gcc/arm-none-eabi/4.7.2//libgcc.a(bpabi.o)
__gnu_uldivmod_helper                             /home/leon/riotboard/arm-2012.09/bin/../lib/gcc/arm-none-eabi/4.7.2//libgcc.a(bpabi.o)
                                                  /home/leon/riotboard/arm-2012.09/bin/../lib/gcc/arm-none-eabi/4.7.2//libgcc.a(_aeabi_uldivmod.o)
__gnu_unwind_execute                              /home/leon/riotboard/arm-2012.09/bin/../lib/gcc/arm-none-eabi/4.7.2//libgcc.a(pr-support.o)
                                                  /home/leon/riotboard/arm-2012.09/bin/../lib/gcc/arm-none-eabi/4.7.2//libgcc.a(unwind-arm.o)
__gnu_unwind_frame                                /home/leon/riotboard/arm-2012.09/bin/../lib/gcc/arm-none-eabi/4.7.2//libgcc.a(pr-support.o)
                                                  /home/leon/riotboard/arm-2012.09/bin/../arm-none-eabi/lib//libstdc++.a(eh_personality.o)
__gtdf2                                           /home/leon/riotboard/arm-2012.09/bin/../lib/gcc/arm-none-eabi/4.7.2//libgcc.a(_arm_cmpdf2.o)
__gtsf2                                           /home/leon/riotboard/arm-2012.09/bin/../lib/gcc/arm-none-eabi/4.7.2//libgcc.a(_arm_cmpsf2.o)
__gxx_personality_v0                              /home/leon/riotboard/arm-2012.09/bin/../arm-none-eabi/lib//libstdc++.a(eh_personality.o)
                                                  /home/leon/riotboard/arm-2012.09/bin/../arm-none-eabi/lib//libstdc++.a(vterminate.o)
                                                  /home/leon/riotboard/arm-2012.09/bin/../arm-none-eabi/lib//libstdc++.a(eh_catch.o)
                                                  /home/leon/riotboard/arm-2012.09/bin/../arm-none-eabi/lib//libstdc++.a(eh_call.o)
                                                  /home/leon/riotboard/arm-2012.09/bin/../arm-none-eabi/lib//libstdc++.a(eh_terminate.o)
__hab_data                                        /home/leon/git/swp-report/iMX6_Platform_SDK/output/mx6sdl/sdk_unit_test/smart_device_rev_a/obj/apps/common/ivt.o
__hi0bits                                         /home/leon/riotboard/arm-2012.09/bin/../arm-none-eabi/lib//libc.a(lib_a-mprec.o)
                                                  /home/leon/riotboard/arm-2012.09/bin/../arm-none-eabi/lib//libc.a(lib_a-dtoa.o)
__i2b                                             /home/leon/riotboard/arm-2012.09/bin/../arm-none-eabi/lib//libc.a(lib_a-mprec.o)
                                                  /home/leon/riotboard/arm-2012.09/bin/../arm-none-eabi/lib//libc.a(lib_a-dtoa.o)
__ieee754_rem_pio2f                               /home/leon/riotboard/arm-2012.09/bin/../arm-none-eabi/lib//libm.a(lib_a-ef_rem_pio2.o)
                                                  /home/leon/riotboard/arm-2012.09/bin/../arm-none-eabi/lib//libm.a(lib_a-sf_sin.o)
                                                  /home/leon/riotboard/arm-2012.09/bin/../arm-none-eabi/lib//libm.a(lib_a-sf_cos.o)
__init_array_end                                  /home/leon/riotboard/arm-2012.09/bin/../arm-none-eabi/lib//libc.a(lib_a-init.o)
__init_array_start                                /home/leon/riotboard/arm-2012.09/bin/../arm-none-eabi/lib//libc.a(lib_a-init.o)
__kernel_cosf                                     /home/leon/riotboard/arm-2012.09/bin/../arm-none-eabi/lib//libm.a(lib_a-kf_cos.o)
                                                  /home/leon/riotboard/arm-2012.09/bin/../arm-none-eabi/lib//libm.a(lib_a-sf_sin.o)
                                                  /home/leon/riotboard/arm-2012.09/bin/../arm-none-eabi/lib//libm.a(lib_a-sf_cos.o)
__kernel_rem_pio2f                                /home/leon/riotboard/arm-2012.09/bin/../arm-none-eabi/lib//libm.a(lib_a-kf_rem_pio2.o)
                                                  /home/leon/riotboard/arm-2012.09/bin/../arm-none-eabi/lib//libm.a(lib_a-ef_rem_pio2.o)
__kernel_sinf                                     /home/leon/riotboard/arm-2012.09/bin/../arm-none-eabi/lib//libm.a(lib_a-kf_sin.o)
                                                  /home/leon/riotboard/arm-2012.09/bin/../arm-none-eabi/lib//libm.a(lib_a-sf_sin.o)
                                                  /home/leon/riotboard/arm-2012.09/bin/../arm-none-eabi/lib//libm.a(lib_a-sf_cos.o)
__l1_page_table_start                             /home/leon/git/swp-report/iMX6_Platform_SDK/output/mx6sdl/lib/libsdk.a(mmu.o)
__ledf2                                           /home/leon/riotboard/arm-2012.09/bin/../lib/gcc/arm-none-eabi/4.7.2//libgcc.a(_arm_cmpdf2.o)
__lesf2                                           /home/leon/riotboard/arm-2012.09/bin/../lib/gcc/arm-none-eabi/4.7.2//libgcc.a(_arm_cmpsf2.o)
__libc_init_array                                 /home/leon/riotboard/arm-2012.09/bin/../arm-none-eabi/lib//libc.a(lib_a-init.o)
                                                  /home/leon/git/swp-report/iMX6_Platform_SDK/output/mx6sdl/lib/libsdk.a(startup.o)
__lo0bits                                         /home/leon/riotboard/arm-2012.09/bin/../arm-none-eabi/lib//libc.a(lib_a-mprec.o)
__locale_charset                                  /home/leon/riotboard/arm-2012.09/bin/../arm-none-eabi/lib//libc.a(lib_a-locale.o)
                                                  /home/leon/riotboard/arm-2012.09/bin/../arm-none-eabi/lib//libc.a(lib_a-wctomb_r.o)
                                                  /home/leon/riotboard/arm-2012.09/bin/../arm-none-eabi/lib//libc.a(lib_a-wcrtomb.o)
__locale_cjk_lang                                 /home/leon/riotboard/arm-2012.09/bin/../arm-none-eabi/lib//libc.a(lib_a-locale.o)
__locale_mb_cur_max                               /home/leon/riotboard/arm-2012.09/bin/../arm-none-eabi/lib//libc.a(lib_a-locale.o)
                                                  /home/leon/riotboard/arm-2012.09/bin/../arm-none-eabi/lib//libc.a(lib_a-fputwc.o)
__locale_msgcharset                               /home/leon/riotboard/arm-2012.09/bin/../arm-none-eabi/lib//libc.a(lib_a-locale.o)
__lshift                                          /home/leon/riotboard/arm-2012.09/bin/../arm-none-eabi/lib//libc.a(lib_a-mprec.o)
                                                  /home/leon/riotboard/arm-2012.09/bin/../arm-none-eabi/lib//libc.a(lib_a-dtoa.o)
__ltdf2                                           /home/leon/riotboard/arm-2012.09/bin/../lib/gcc/arm-none-eabi/4.7.2//libgcc.a(_arm_cmpdf2.o)
__ltsf2                                           /home/leon/riotboard/arm-2012.09/bin/../lib/gcc/arm-none-eabi/4.7.2//libgcc.a(_arm_cmpsf2.o)
__malloc_av_                                      /home/leon/riotboard/arm-2012.09/bin/../arm-none-eabi/lib//libc.a(lib_a-mallocr.o)
                                                  /home/leon/riotboard/arm-2012.09/bin/../arm-none-eabi/lib//libc.a(lib_a-reallocr.o)
                                                  /home/leon/riotboard/arm-2012.09/bin/../arm-none-eabi/lib//libc.a(lib_a-freer.o)
__malloc_current_mallinfo                         /home/leon/riotboard/arm-2012.09/bin/../arm-none-eabi/lib//libc.a(lib_a-mallocr.o)
                                                  /home/leon/riotboard/arm-2012.09/bin/../arm-none-eabi/lib//libc.a(lib_a-freer.o)
__malloc_lock                                     /home/leon/riotboard/arm-2012.09/bin/../arm-none-eabi/lib//libc.a(lib_a-mlock.o)
                                                  /home/leon/riotboard/arm-2012.09/bin/../arm-none-eabi/lib//libc.a(lib_a-reallocr.o)
                                                  /home/leon/riotboard/arm-2012.09/bin/../arm-none-eabi/lib//libc.a(lib_a-mallocr.o)
                                                  /home/leon/riotboard/arm-2012.09/bin/../arm-none-eabi/lib//libc.a(lib_a-freer.o)
__malloc_max_sbrked_mem                           /home/leon/riotboard/arm-2012.09/bin/../arm-none-eabi/lib//libc.a(lib_a-mallocr.o)
__malloc_max_total_mem                            /home/leon/riotboard/arm-2012.09/bin/../arm-none-eabi/lib//libc.a(lib_a-mallocr.o)
__malloc_sbrk_base                                /home/leon/riotboard/arm-2012.09/bin/../arm-none-eabi/lib//libc.a(lib_a-mallocr.o)
                                                  /home/leon/riotboard/arm-2012.09/bin/../arm-none-eabi/lib//libc.a(lib_a-freer.o)
__malloc_top_pad                                  /home/leon/riotboard/arm-2012.09/bin/../arm-none-eabi/lib//libc.a(lib_a-mallocr.o)
                                                  /home/leon/riotboard/arm-2012.09/bin/../arm-none-eabi/lib//libc.a(lib_a-freer.o)
__malloc_trim_threshold                           /home/leon/riotboard/arm-2012.09/bin/../arm-none-eabi/lib//libc.a(lib_a-mallocr.o)
                                                  /home/leon/riotboard/arm-2012.09/bin/../arm-none-eabi/lib//libc.a(lib_a-freer.o)
__malloc_unlock                                   /home/leon/riotboard/arm-2012.09/bin/../arm-none-eabi/lib//libc.a(lib_a-mlock.o)
                                                  /home/leon/riotboard/arm-2012.09/bin/../arm-none-eabi/lib//libc.a(lib_a-reallocr.o)
                                                  /home/leon/riotboard/arm-2012.09/bin/../arm-none-eabi/lib//libc.a(lib_a-mallocr.o)
                                                  /home/leon/riotboard/arm-2012.09/bin/../arm-none-eabi/lib//libc.a(lib_a-freer.o)
__mb_cur_max                                      /home/leon/riotboard/arm-2012.09/bin/../arm-none-eabi/lib//libc.a(lib_a-locale.o)
__mcmp                                            /home/leon/riotboard/arm-2012.09/bin/../arm-none-eabi/lib//libc.a(lib_a-mprec.o)
                                                  /home/leon/riotboard/arm-2012.09/bin/../arm-none-eabi/lib//libc.a(lib_a-dtoa.o)
__mdiff                                           /home/leon/riotboard/arm-2012.09/bin/../arm-none-eabi/lib//libc.a(lib_a-mprec.o)
                                                  /home/leon/riotboard/arm-2012.09/bin/../arm-none-eabi/lib//libc.a(lib_a-dtoa.o)
__mlocale_changed                                 /home/leon/riotboard/arm-2012.09/bin/../arm-none-eabi/lib//libc.a(lib_a-locale.o)
__mprec_bigtens                                   /home/leon/riotboard/arm-2012.09/bin/../arm-none-eabi/lib//libc.a(lib_a-mprec.o)
                                                  /home/leon/riotboard/arm-2012.09/bin/../arm-none-eabi/lib//libc.a(lib_a-dtoa.o)
__mprec_tens                                      /home/leon/riotboard/arm-2012.09/bin/../arm-none-eabi/lib//libc.a(lib_a-mprec.o)
                                                  /home/leon/riotboard/arm-2012.09/bin/../arm-none-eabi/lib//libc.a(lib_a-dtoa.o)
__mprec_tinytens                                  /home/leon/riotboard/arm-2012.09/bin/../arm-none-eabi/lib//libc.a(lib_a-mprec.o)
__muldf3                                          /home/leon/riotboard/arm-2012.09/bin/../lib/gcc/arm-none-eabi/4.7.2//libgcc.a(_arm_muldivdf3.o)
__mulsf3                                          /home/leon/riotboard/arm-2012.09/bin/../lib/gcc/arm-none-eabi/4.7.2//libgcc.a(_arm_muldivsf3.o)
__multadd                                         /home/leon/riotboard/arm-2012.09/bin/../arm-none-eabi/lib//libc.a(lib_a-mprec.o)
                                                  /home/leon/riotboard/arm-2012.09/bin/../arm-none-eabi/lib//libc.a(lib_a-dtoa.o)
__multiply                                        /home/leon/riotboard/arm-2012.09/bin/../arm-none-eabi/lib//libc.a(lib_a-mprec.o)
                                                  /home/leon/riotboard/arm-2012.09/bin/../arm-none-eabi/lib//libc.a(lib_a-dtoa.o)
__nedf2                                           /home/leon/riotboard/arm-2012.09/bin/../lib/gcc/arm-none-eabi/4.7.2//libgcc.a(_arm_cmpdf2.o)
__nesf2                                           /home/leon/riotboard/arm-2012.09/bin/../lib/gcc/arm-none-eabi/4.7.2//libgcc.a(_arm_cmpsf2.o)
__nlocale_changed                                 /home/leon/riotboard/arm-2012.09/bin/../arm-none-eabi/lib//libc.a(lib_a-locale.o)
__pow5mult                                        /home/leon/riotboard/arm-2012.09/bin/../arm-none-eabi/lib//libc.a(lib_a-mprec.o)
                                                  /home/leon/riotboard/arm-2012.09/bin/../arm-none-eabi/lib//libc.a(lib_a-dtoa.o)
__preinit_array_end                               /home/leon/riotboard/arm-2012.09/bin/../arm-none-eabi/lib//libc.a(lib_a-init.o)
__preinit_array_start                             /home/leon/riotboard/arm-2012.09/bin/../arm-none-eabi/lib//libc.a(lib_a-init.o)
__ram_vectors_end                                 /home/leon/git/swp-report/iMX6_Platform_SDK/output/mx6sdl/lib/libsdk.a(startup.o)
__ram_vectors_start                               /home/leon/git/swp-report/iMX6_Platform_SDK/output/mx6sdl/lib/libsdk.a(startup.o)
__ratio                                           /home/leon/riotboard/arm-2012.09/bin/../arm-none-eabi/lib//libc.a(lib_a-mprec.o)
__register_frame_info                             /home/leon/riotboard/arm-2012.09/bin/../lib/gcc/arm-none-eabi/4.7.2//crtbegin.o
__restore_core_regs                               /home/leon/riotboard/arm-2012.09/bin/../lib/gcc/arm-none-eabi/4.7.2//libgcc.a(libunwind.o)
__s2b                                             /home/leon/riotboard/arm-2012.09/bin/../arm-none-eabi/lib//libc.a(lib_a-mprec.o)
__sclose                                          /home/leon/riotboard/arm-2012.09/bin/../arm-none-eabi/lib//libc.a(lib_a-stdio.o)
                                                  /home/leon/riotboard/arm-2012.09/bin/../arm-none-eabi/lib//libc.a(lib_a-findfp.o)
__seofread                                        /home/leon/riotboard/arm-2012.09/bin/../arm-none-eabi/lib//libc.a(lib_a-stdio.o)
__sfmoreglue                                      /home/leon/riotboard/arm-2012.09/bin/../arm-none-eabi/lib//libc.a(lib_a-findfp.o)
__sfp                                             /home/leon/riotboard/arm-2012.09/bin/../arm-none-eabi/lib//libc.a(lib_a-findfp.o)
__sfp_lock_acquire                                /home/leon/riotboard/arm-2012.09/bin/../arm-none-eabi/lib//libc.a(lib_a-findfp.o)
                                                  /home/leon/riotboard/arm-2012.09/bin/../arm-none-eabi/lib//libc.a(lib_a-fclose.o)
                                                  /home/leon/riotboard/arm-2012.09/bin/../arm-none-eabi/lib//libc.a(lib_a-fwalk.o)
__sfp_lock_release                                /home/leon/riotboard/arm-2012.09/bin/../arm-none-eabi/lib//libc.a(lib_a-findfp.o)
                                                  /home/leon/riotboard/arm-2012.09/bin/../arm-none-eabi/lib//libc.a(lib_a-fclose.o)
                                                  /home/leon/riotboard/arm-2012.09/bin/../arm-none-eabi/lib//libc.a(lib_a-fwalk.o)
__sfvwrite_r                                      /home/leon/riotboard/arm-2012.09/bin/../arm-none-eabi/lib//libc.a(lib_a-fvwrite.o)
                                                  /home/leon/riotboard/arm-2012.09/bin/../arm-none-eabi/lib//libc.a(lib_a-fwrite.o)
                                                  /home/leon/riotboard/arm-2012.09/bin/../arm-none-eabi/lib//libc.a(lib_a-vfiprintf.o)
                                                  /home/leon/riotboard/arm-2012.09/bin/../arm-none-eabi/lib//libc.a(lib_a-fputs.o)
__sigtramp                                        /home/leon/riotboard/arm-2012.09/bin/../arm-none-eabi/lib//libc.a(lib_a-signal.o)
__sigtramp_r                                      /home/leon/riotboard/arm-2012.09/bin/../arm-none-eabi/lib//libc.a(lib_a-signal.o)
__sinit                                           /home/leon/riotboard/arm-2012.09/bin/../arm-none-eabi/lib//libc.a(lib_a-findfp.o)
                                                  /home/leon/riotboard/arm-2012.09/bin/../arm-none-eabi/lib//libc.a(lib_a-fwrite.o)
                                                  /home/leon/riotboard/arm-2012.09/bin/../arm-none-eabi/lib//libc.a(lib_a-refill.o)
                                                  /home/leon/riotboard/arm-2012.09/bin/../arm-none-eabi/lib//libc.a(lib_a-fputwc.o)
                                                  /home/leon/riotboard/arm-2012.09/bin/../arm-none-eabi/lib//libc.a(lib_a-fclose.o)
                                                  /home/leon/riotboard/arm-2012.09/bin/../arm-none-eabi/lib//libc.a(lib_a-wsetup.o)
                                                  /home/leon/riotboard/arm-2012.09/bin/../arm-none-eabi/lib//libc.a(lib_a-wbuf.o)
                                                  /home/leon/riotboard/arm-2012.09/bin/../arm-none-eabi/lib//libc.a(lib_a-vfprintf.o)
                                                  /home/leon/riotboard/arm-2012.09/bin/../arm-none-eabi/lib//libc.a(lib_a-vfiprintf.o)
                                                  /home/leon/riotboard/arm-2012.09/bin/../arm-none-eabi/lib//libc.a(lib_a-rget.o)
                                                  /home/leon/riotboard/arm-2012.09/bin/../arm-none-eabi/lib//libc.a(lib_a-putc.o)
                                                  /home/leon/riotboard/arm-2012.09/bin/../arm-none-eabi/lib//libc.a(lib_a-fputs.o)
                                                  /home/leon/riotboard/arm-2012.09/bin/../arm-none-eabi/lib//libc.a(lib_a-fputc.o)
                                                  /home/leon/riotboard/arm-2012.09/bin/../arm-none-eabi/lib//libc.a(lib_a-fflush.o)
__sinit_lock_acquire                              /home/leon/riotboard/arm-2012.09/bin/../arm-none-eabi/lib//libc.a(lib_a-findfp.o)
__sinit_lock_release                              /home/leon/riotboard/arm-2012.09/bin/../arm-none-eabi/lib//libc.a(lib_a-findfp.o)
__smakebuf_r                                      /home/leon/riotboard/arm-2012.09/bin/../arm-none-eabi/lib//libc.a(lib_a-makebuf.o)
                                                  /home/leon/riotboard/arm-2012.09/bin/../arm-none-eabi/lib//libc.a(lib_a-refill.o)
                                                  /home/leon/riotboard/arm-2012.09/bin/../arm-none-eabi/lib//libc.a(lib_a-wsetup.o)
__sprint_r                                        /home/leon/riotboard/arm-2012.09/bin/../arm-none-eabi/lib//libc.a(lib_a-vfiprintf.o)
                                                  /home/leon/riotboard/arm-2012.09/bin/../arm-none-eabi/lib//libc.a(lib_a-vfprintf.o)
__sread                                           /home/leon/riotboard/arm-2012.09/bin/../arm-none-eabi/lib//libc.a(lib_a-stdio.o)
                                                  /home/leon/riotboard/arm-2012.09/bin/../arm-none-eabi/lib//libc.a(lib_a-findfp.o)
__srefill_r                                       /home/leon/riotboard/arm-2012.09/bin/../arm-none-eabi/lib//libc.a(lib_a-refill.o)
                                                  /home/leon/riotboard/arm-2012.09/bin/../arm-none-eabi/lib//libc.a(lib_a-rget.o)
__srget                                           /home/leon/riotboard/arm-2012.09/bin/../arm-none-eabi/lib//libc.a(lib_a-rget.o)
__srget_r                                         /home/leon/riotboard/arm-2012.09/bin/../arm-none-eabi/lib//libc.a(lib_a-rget.o)
                                                  /home/leon/git/swp-report/iMX6_Platform_SDK/output/mx6sdl/lib/libsdk.a(usb_common.o)
                                                  /home/leon/git/swp-report/iMX6_Platform_SDK/output/mx6sdl/sdk_unit_test/smart_device_rev_a/libsdk_unit_test.a(usb0_device_mouse_test.o)
                                                  /home/leon/git/swp-report/iMX6_Platform_SDK/output/mx6sdl/sdk_unit_test/smart_device_rev_a/libsdk_unit_test.a(ips_rotate.o)
                                                  /home/leon/git/swp-report/iMX6_Platform_SDK/output/mx6sdl/sdk_unit_test/smart_device_rev_a/libsdk_unit_test.a(ips_resize.o)
                                                  /home/leon/git/swp-report/iMX6_Platform_SDK/output/mx6sdl/sdk_unit_test/smart_device_rev_a/libsdk_unit_test.a(ips_csc.o)
                                                  /home/leon/git/swp-report/iMX6_Platform_SDK/output/mx6sdl/sdk_unit_test/smart_device_rev_a/libsdk_unit_test.a(ips_combiner.o)
                                                  /home/leon/git/swp-report/iMX6_Platform_SDK/output/mx6sdl/sdk_unit_test/smart_device_rev_a/libsdk_unit_test.a(accelerometer_test.o)
                                                  /home/leon/git/swp-report/iMX6_Platform_SDK/output/mx6sdl/sdk_unit_test/smart_device_rev_a/libsdk_unit_test.a(spi_test.o)
                                                  /home/leon/git/swp-report/iMX6_Platform_SDK/output/mx6sdl/sdk_unit_test/smart_device_rev_a/libsdk_unit_test.a(pcie_test_rc.o)
                                                  /home/leon/git/swp-report/iMX6_Platform_SDK/output/mx6sdl/sdk_unit_test/smart_device_rev_a/libsdk_unit_test.a(sensor_capture.o)
                                                  /home/leon/git/swp-report/iMX6_Platform_SDK/output/mx6sdl/sdk_unit_test/smart_device_rev_a/libsdk_unit_test.a(csi_test_mode.o)
                                                  /home/leon/git/swp-report/iMX6_Platform_SDK/output/mx6sdl/sdk_unit_test/smart_device_rev_a/libsdk_unit_test.a(camera_test.o)
                                                  /home/leon/git/swp-report/iMX6_Platform_SDK/output/mx6sdl/sdk_unit_test/smart_device_rev_a/libsdk_unit_test.a(keypad_test.o)
                                                  /home/leon/git/swp-report/iMX6_Platform_SDK/output/mx6sdl/sdk_unit_test/smart_device_rev_a/libsdk_unit_test.a(ips_test.o)
                                                  /home/leon/git/swp-report/iMX6_Platform_SDK/output/mx6sdl/sdk_unit_test/smart_device_rev_a/libsdk_unit_test.a(ips_display.o)
                                                  /home/leon/git/swp-report/iMX6_Platform_SDK/output/mx6sdl/sdk_unit_test/smart_device_rev_a/libsdk_unit_test.a(pwm_test.o)
                                                  /home/leon/git/swp-report/iMX6_Platform_SDK/output/mx6sdl/sdk_unit_test/smart_device_rev_a/libsdk_unit_test.a(watchdog_test.o)
                                                  /home/leon/git/swp-report/iMX6_Platform_SDK/output/mx6sdl/sdk_unit_test/smart_device_rev_a/libsdk_unit_test.a(usdhc_test.o)
                                                  /home/leon/git/swp-report/iMX6_Platform_SDK/output/mx6sdl/sdk_unit_test/smart_device_rev_a/libsdk_unit_test.a(gpt_test.o)
                                                  /home/leon/git/swp-report/iMX6_Platform_SDK/output/mx6sdl/sdk_unit_test/smart_device_rev_a/libsdk_unit_test.a(epit_test.o)
                                                  /home/leon/git/swp-report/iMX6_Platform_SDK/output/mx6sdl/sdk_unit_test/smart_device_rev_a/libsdk_unit_test.a(uart_test.o)
                                                  /home/leon/git/swp-report/iMX6_Platform_SDK/output/mx6sdl/sdk_unit_test/smart_device_rev_a/libsdk_unit_test.a(sdma_test.o)
                                                  /home/leon/git/swp-report/iMX6_Platform_SDK/output/mx6sdl/sdk_unit_test/smart_device_rev_a/libsdk_unit_test.a(tempmon_test.o)
                                                  /home/leon/git/swp-report/iMX6_Platform_SDK/output/mx6sdl/sdk_unit_test/smart_device_rev_a/libsdk_unit_test.a(imx6_i2c_device.o)
                                                  /home/leon/git/swp-report/iMX6_Platform_SDK/output/mx6sdl/sdk_unit_test/smart_device_rev_a/libsdk_unit_test.a(i2c_test.o)
                                                  /home/leon/git/swp-report/iMX6_Platform_SDK/output/mx6sdl/sdk_unit_test/smart_device_rev_a/libsdk_unit_test.a(snvs_srtc_test.o)
                                                  /home/leon/git/swp-report/iMX6_Platform_SDK/output/mx6sdl/sdk_unit_test/smart_device_rev_a/libsdk_unit_test.a(snvs_rtc_test.o)
                                                  /home/leon/git/swp-report/iMX6_Platform_SDK/output/mx6sdl/sdk_unit_test/smart_device_rev_a/libsdk_unit_test.a(ocotp_test.o)
                                                  /home/leon/git/swp-report/iMX6_Platform_SDK/output/mx6sdl/sdk_unit_test/smart_device_rev_a/libsdk_unit_test.a(audio_test.o)
                                                  /home/leon/git/swp-report/iMX6_Platform_SDK/output/mx6sdl/lib/libsdk.a(system_util.o)
                                                  /home/leon/git/swp-report/iMX6_Platform_SDK/output/mx6sdl/lib/libsdk.a(menu.o)
__sseek                                           /home/leon/riotboard/arm-2012.09/bin/../arm-none-eabi/lib//libc.a(lib_a-stdio.o)
                                                  /home/leon/riotboard/arm-2012.09/bin/../arm-none-eabi/lib//libc.a(lib_a-makebuf.o)
                                                  /home/leon/riotboard/arm-2012.09/bin/../arm-none-eabi/lib//libc.a(lib_a-findfp.o)
__ssprint_r                                       /home/leon/riotboard/arm-2012.09/bin/../arm-none-eabi/lib//libc.a(lib_a-svfiprintf.o)
                                                  /home/leon/riotboard/arm-2012.09/bin/../arm-none-eabi/lib//libc.a(lib_a-svfprintf.o)
__stacks_start                                    /home/leon/git/swp-report/iMX6_Platform_SDK/output/mx6sdl/lib/libsdk.a(startup.o)
__start_boot_data                                 /home/leon/git/swp-report/iMX6_Platform_SDK/output/mx6sdl/sdk_unit_test/smart_device_rev_a/obj/apps/common/ivt.o
__subdf3                                          /home/leon/riotboard/arm-2012.09/bin/../lib/gcc/arm-none-eabi/4.7.2//libgcc.a(_arm_addsubdf3.o)
__subsf3                                          /home/leon/riotboard/arm-2012.09/bin/../lib/gcc/arm-none-eabi/4.7.2//libgcc.a(_arm_addsubsf3.o)
__swbuf                                           /home/leon/riotboard/arm-2012.09/bin/../arm-none-eabi/lib//libc.a(lib_a-wbuf.o)
__swbuf_r                                         /home/leon/riotboard/arm-2012.09/bin/../arm-none-eabi/lib//libc.a(lib_a-wbuf.o)
                                                  /home/leon/riotboard/arm-2012.09/bin/../arm-none-eabi/lib//libc.a(lib_a-fputwc.o)
                                                  /home/leon/riotboard/arm-2012.09/bin/../arm-none-eabi/lib//libc.a(lib_a-putc.o)
__swrite                                          /home/leon/riotboard/arm-2012.09/bin/../arm-none-eabi/lib//libc.a(lib_a-stdio.o)
                                                  /home/leon/riotboard/arm-2012.09/bin/../arm-none-eabi/lib//libc.a(lib_a-findfp.o)
__swsetup_r                                       /home/leon/riotboard/arm-2012.09/bin/../arm-none-eabi/lib//libc.a(lib_a-wsetup.o)
                                                  /home/leon/riotboard/arm-2012.09/bin/../arm-none-eabi/lib//libc.a(lib_a-wbuf.o)
                                                  /home/leon/riotboard/arm-2012.09/bin/../arm-none-eabi/lib//libc.a(lib_a-vfprintf.o)
                                                  /home/leon/riotboard/arm-2012.09/bin/../arm-none-eabi/lib//libc.a(lib_a-vfiprintf.o)
                                                  /home/leon/riotboard/arm-2012.09/bin/../arm-none-eabi/lib//libc.a(lib_a-fvwrite.o)
__udivdi3                                         /home/leon/riotboard/arm-2012.09/bin/../lib/gcc/arm-none-eabi/4.7.2//libgcc.a(_udivdi3.o)
                                                  /home/leon/riotboard/arm-2012.09/bin/../lib/gcc/arm-none-eabi/4.7.2//libgcc.a(bpabi.o)
__udivsi3                                         /home/leon/riotboard/arm-2012.09/bin/../lib/gcc/arm-none-eabi/4.7.2//libgcc.a(_udivsi3.o)
__ulp                                             /home/leon/riotboard/arm-2012.09/bin/../arm-none-eabi/lib//libc.a(lib_a-mprec.o)
__wctomb                                          /home/leon/riotboard/arm-2012.09/bin/../arm-none-eabi/lib//libc.a(lib_a-wctomb_r.o)
                                                  /home/leon/riotboard/arm-2012.09/bin/../arm-none-eabi/lib//libc.a(lib_a-wcrtomb.o)
_calloc_r                                         /home/leon/riotboard/arm-2012.09/bin/../arm-none-eabi/lib//libc.a(lib_a-callocr.o)
                                                  /home/leon/riotboard/arm-2012.09/bin/../arm-none-eabi/lib//libc.a(lib_a-mprec.o)
_cleanup                                          /home/leon/riotboard/arm-2012.09/bin/../arm-none-eabi/lib//libc.a(lib_a-findfp.o)
_cleanup_r                                        /home/leon/riotboard/arm-2012.09/bin/../arm-none-eabi/lib//libc.a(lib_a-findfp.o)
                                                  /home/leon/riotboard/arm-2012.09/bin/../arm-none-eabi/lib//libc.a(lib_a-makebuf.o)
_close                                            /home/leon/git/swp-report/iMX6_Platform_SDK/output/mx6sdl/lib/libsdk.a(runtime_support.o)
                                                  /home/leon/riotboard/arm-2012.09/bin/../arm-none-eabi/lib//libc.a(lib_a-closer.o)
_close_r                                          /home/leon/riotboard/arm-2012.09/bin/../arm-none-eabi/lib//libc.a(lib_a-closer.o)
                                                  /home/leon/riotboard/arm-2012.09/bin/../arm-none-eabi/lib//libc.a(lib_a-stdio.o)
_ctype_                                           /home/leon/riotboard/arm-2012.09/bin/../arm-none-eabi/lib//libc.a(lib_a-ctype_.o)
_dtoa_r                                           /home/leon/riotboard/arm-2012.09/bin/../arm-none-eabi/lib//libc.a(lib_a-dtoa.o)
                                                  /home/leon/riotboard/arm-2012.09/bin/../arm-none-eabi/lib//libc.a(lib_a-vfprintf.o)
                                                  /home/leon/riotboard/arm-2012.09/bin/../arm-none-eabi/lib//libc.a(lib_a-svfprintf.o)
_execve                                           /home/leon/git/swp-report/iMX6_Platform_SDK/output/mx6sdl/lib/libsdk.a(runtime_support.o)
_exit                                             /home/leon/git/swp-report/iMX6_Platform_SDK/output/mx6sdl/lib/libsdk.a(runtime_support.o)
                                                  /home/leon/riotboard/arm-2012.09/bin/../arm-none-eabi/lib//libc.a(lib_a-abort.o)
_fclose_r                                         /home/leon/riotboard/arm-2012.09/bin/../arm-none-eabi/lib//libc.a(lib_a-fclose.o)
_fflush_r                                         /home/leon/riotboard/arm-2012.09/bin/../arm-none-eabi/lib//libc.a(lib_a-fflush.o)
                                                  /home/leon/riotboard/arm-2012.09/bin/../arm-none-eabi/lib//libc.a(lib_a-refill.o)
                                                  /home/leon/riotboard/arm-2012.09/bin/../arm-none-eabi/lib//libc.a(lib_a-fclose.o)
                                                  /home/leon/riotboard/arm-2012.09/bin/../arm-none-eabi/lib//libc.a(lib_a-wbuf.o)
                                                  /home/leon/riotboard/arm-2012.09/bin/../arm-none-eabi/lib//libc.a(lib_a-vfprintf.o)
                                                  /home/leon/riotboard/arm-2012.09/bin/../arm-none-eabi/lib//libc.a(lib_a-vfiprintf.o)
                                                  /home/leon/riotboard/arm-2012.09/bin/../arm-none-eabi/lib//libc.a(lib_a-fvwrite.o)
_fini                                             /home/leon/riotboard/arm-2012.09/bin/../lib/gcc/arm-none-eabi/4.7.2//crti.o
_fiprintf_r                                       /home/leon/riotboard/arm-2012.09/bin/../arm-none-eabi/lib//libc.a(lib_a-fiprintf.o)
_fork                                             /home/leon/git/swp-report/iMX6_Platform_SDK/output/mx6sdl/lib/libsdk.a(runtime_support.o)
_fputc_r                                          /home/leon/riotboard/arm-2012.09/bin/../arm-none-eabi/lib//libc.a(lib_a-fputc.o)
_fputs_r                                          /home/leon/riotboard/arm-2012.09/bin/../arm-none-eabi/lib//libc.a(lib_a-fputs.o)
_fputwc_r                                         /home/leon/riotboard/arm-2012.09/bin/../arm-none-eabi/lib//libc.a(lib_a-fputwc.o)
                                                  /home/leon/riotboard/arm-2012.09/bin/../arm-none-eabi/lib//libc.a(lib_a-vfiprintf.o)
_free_r                                           /home/leon/riotboard/arm-2012.09/bin/../arm-none-eabi/lib//libc.a(lib_a-freer.o)
                                                  /home/leon/riotboard/arm-2012.09/bin/../arm-none-eabi/lib//libc.a(lib_a-svfiprintf.o)
                                                  /home/leon/riotboard/arm-2012.09/bin/../arm-none-eabi/lib//libc.a(lib_a-refill.o)
                                                  /home/leon/riotboard/arm-2012.09/bin/../arm-none-eabi/lib//libc.a(lib_a-reent.o)
                                                  /home/leon/riotboard/arm-2012.09/bin/../arm-none-eabi/lib//libc.a(lib_a-fclose.o)
                                                  /home/leon/riotboard/arm-2012.09/bin/../arm-none-eabi/lib//libc.a(lib_a-wsetup.o)
                                                  /home/leon/riotboard/arm-2012.09/bin/../arm-none-eabi/lib//libc.a(lib_a-reallocr.o)
                                                  /home/leon/riotboard/arm-2012.09/bin/../arm-none-eabi/lib//libc.a(lib_a-mallocr.o)
                                                  /home/leon/riotboard/arm-2012.09/bin/../arm-none-eabi/lib//libc.a(lib_a-malloc.o)
                                                  /home/leon/riotboard/arm-2012.09/bin/../arm-none-eabi/lib//libc.a(lib_a-fvwrite.o)
                                                  /home/leon/riotboard/arm-2012.09/bin/../arm-none-eabi/lib//libc.a(lib_a-fflush.o)
_fstat                                            /home/leon/git/swp-report/iMX6_Platform_SDK/output/mx6sdl/lib/libsdk.a(runtime_support.o)
                                                  /home/leon/riotboard/arm-2012.09/bin/../arm-none-eabi/lib//libc.a(lib_a-fstatr.o)
_fstat_r                                          /home/leon/riotboard/arm-2012.09/bin/../arm-none-eabi/lib//libc.a(lib_a-fstatr.o)
                                                  /home/leon/riotboard/arm-2012.09/bin/../arm-none-eabi/lib//libc.a(lib_a-makebuf.o)
_fwalk                                            /home/leon/riotboard/arm-2012.09/bin/../arm-none-eabi/lib//libc.a(lib_a-fwalk.o)
                                                  /home/leon/riotboard/arm-2012.09/bin/../arm-none-eabi/lib//libc.a(lib_a-refill.o)
                                                  /home/leon/riotboard/arm-2012.09/bin/../arm-none-eabi/lib//libc.a(lib_a-findfp.o)
_fwalk_reent                                      /home/leon/riotboard/arm-2012.09/bin/../arm-none-eabi/lib//libc.a(lib_a-fwalk.o)
                                                  /home/leon/riotboard/arm-2012.09/bin/../arm-none-eabi/lib//libc.a(lib_a-fflush.o)
_fwrite_r                                         /home/leon/riotboard/arm-2012.09/bin/../arm-none-eabi/lib//libc.a(lib_a-fwrite.o)
_getpid                                           /home/leon/git/swp-report/iMX6_Platform_SDK/output/mx6sdl/lib/libsdk.a(runtime_support.o)
                                                  /home/leon/riotboard/arm-2012.09/bin/../arm-none-eabi/lib//libc.a(lib_a-signalr.o)
_getpid_r                                         /home/leon/riotboard/arm-2012.09/bin/../arm-none-eabi/lib//libc.a(lib_a-signalr.o)
                                                  /home/leon/riotboard/arm-2012.09/bin/../arm-none-eabi/lib//libc.a(lib_a-signal.o)
_gettimeofday                                     /home/leon/git/swp-report/iMX6_Platform_SDK/output/mx6sdl/lib/libsdk.a(runtime_support.o)
_global_impure_ptr                                /home/leon/riotboard/arm-2012.09/bin/../arm-none-eabi/lib//libc.a(lib_a-impure.o)
                                                  /home/leon/riotboard/arm-2012.09/bin/../arm-none-eabi/lib//libc.a(lib_a-refill.o)
                                                  /home/leon/riotboard/arm-2012.09/bin/../arm-none-eabi/lib//libc.a(lib_a-findfp.o)
                                                  /home/leon/riotboard/arm-2012.09/bin/../arm-none-eabi/lib//libc.a(lib_a-fflush.o)
_image_size                                       /home/leon/git/swp-report/iMX6_Platform_SDK/output/mx6sdl/sdk_unit_test/smart_device_rev_a/obj/apps/common/ivt.o
_impure_ptr                                       /home/leon/riotboard/arm-2012.09/bin/../arm-none-eabi/lib//libc.a(lib_a-impure.o)
                                                  /home/leon/riotboard/arm-2012.09/bin/../arm-none-eabi/lib//libc.a(lib_a-syswrite.o)
                                                  /home/leon/riotboard/arm-2012.09/bin/../arm-none-eabi/lib//libc.a(lib_a-fwrite.o)
                                                  /home/leon/riotboard/arm-2012.09/bin/../arm-none-eabi/lib//libstdc++.a(vterminate.o)
                                                  /home/leon/git/swp-report/iMX6_Platform_SDK/output/mx6sdl/lib/libsdk.a(usb_common.o)
                                                  /home/leon/riotboard/arm-2012.09/bin/../arm-none-eabi/lib//libc.a(lib_a-wcrtomb.o)
                                                  /home/leon/riotboard/arm-2012.09/bin/../arm-none-eabi/lib//libc.a(lib_a-signal.o)
                                                  /home/leon/riotboard/arm-2012.09/bin/../arm-none-eabi/lib//libc.a(lib_a-reent.o)
                                                  /home/leon/riotboard/arm-2012.09/bin/../arm-none-eabi/lib//libc.a(lib_a-locale.o)
                                                  /home/leon/riotboard/arm-2012.09/bin/../arm-none-eabi/lib//libc.a(lib_a-fputwc.o)
                                                  /home/leon/riotboard/arm-2012.09/bin/../arm-none-eabi/lib//libc.a(lib_a-fclose.o)
                                                  /home/leon/riotboard/arm-2012.09/bin/../arm-none-eabi/lib//libc.a(lib_a-wsetup.o)
                                                  /home/leon/riotboard/arm-2012.09/bin/../arm-none-eabi/lib//libc.a(lib_a-wbuf.o)
                                                  /home/leon/riotboard/arm-2012.09/bin/../arm-none-eabi/lib//libc.a(lib_a-vprintf.o)
                                                  /home/leon/riotboard/arm-2012.09/bin/../arm-none-eabi/lib//libc.a(lib_a-vfprintf.o)
                                                  /home/leon/riotboard/arm-2012.09/bin/../arm-none-eabi/lib//libc.a(lib_a-vfiprintf.o)
                                                  /home/leon/riotboard/arm-2012.09/bin/../arm-none-eabi/lib//libc.a(lib_a-sprintf.o)
                                                  /home/leon/riotboard/arm-2012.09/bin/../arm-none-eabi/lib//libc.a(lib_a-rget.o)
                                                  /home/leon/riotboard/arm-2012.09/bin/../arm-none-eabi/lib//libc.a(lib_a-realloc.o)
                                                  /home/leon/riotboard/arm-2012.09/bin/../arm-none-eabi/lib//libc.a(lib_a-putc.o)
                                                  /home/leon/riotboard/arm-2012.09/bin/../arm-none-eabi/lib//libc.a(lib_a-printf.o)
                                                  /home/leon/riotboard/arm-2012.09/bin/../arm-none-eabi/lib//libc.a(lib_a-malloc.o)
                                                  /home/leon/riotboard/arm-2012.09/bin/../arm-none-eabi/lib//libc.a(lib_a-fputs.o)
                                                  /home/leon/riotboard/arm-2012.09/bin/../arm-none-eabi/lib//libc.a(lib_a-fputc.o)
                                                  /home/leon/riotboard/arm-2012.09/bin/../arm-none-eabi/lib//libc.a(lib_a-fiprintf.o)
                                                  /home/leon/riotboard/arm-2012.09/bin/../arm-none-eabi/lib//libc.a(lib_a-findfp.o)
                                                  /home/leon/riotboard/arm-2012.09/bin/../arm-none-eabi/lib//libc.a(lib_a-fflush.o)
                                                  /home/leon/riotboard/arm-2012.09/bin/../arm-none-eabi/lib//libc.a(lib_a-assert.o)
                                                  /home/leon/git/swp-report/iMX6_Platform_SDK/output/mx6sdl/sdk_unit_test/smart_device_rev_a/libsdk_unit_test.a(usb0_device_mouse_test.o)
                                                  /home/leon/git/swp-report/iMX6_Platform_SDK/output/mx6sdl/sdk_unit_test/smart_device_rev_a/libsdk_unit_test.a(ips_rotate.o)
                                                  /home/leon/git/swp-report/iMX6_Platform_SDK/output/mx6sdl/sdk_unit_test/smart_device_rev_a/libsdk_unit_test.a(ips_resize.o)
                                                  /home/leon/git/swp-report/iMX6_Platform_SDK/output/mx6sdl/sdk_unit_test/smart_device_rev_a/libsdk_unit_test.a(ips_csc.o)
                                                  /home/leon/git/swp-report/iMX6_Platform_SDK/output/mx6sdl/sdk_unit_test/smart_device_rev_a/libsdk_unit_test.a(ips_combiner.o)
                                                  /home/leon/git/swp-report/iMX6_Platform_SDK/output/mx6sdl/sdk_unit_test/smart_device_rev_a/libsdk_unit_test.a(accelerometer_test.o)
                                                  /home/leon/git/swp-report/iMX6_Platform_SDK/output/mx6sdl/sdk_unit_test/smart_device_rev_a/libsdk_unit_test.a(spi_test.o)
                                                  /home/leon/git/swp-report/iMX6_Platform_SDK/output/mx6sdl/sdk_unit_test/smart_device_rev_a/libsdk_unit_test.a(pcie_test_rc.o)
                                                  /home/leon/git/swp-report/iMX6_Platform_SDK/output/mx6sdl/sdk_unit_test/smart_device_rev_a/libsdk_unit_test.a(sensor_capture.o)
                                                  /home/leon/git/swp-report/iMX6_Platform_SDK/output/mx6sdl/sdk_unit_test/smart_device_rev_a/libsdk_unit_test.a(csi_test_mode.o)
                                                  /home/leon/git/swp-report/iMX6_Platform_SDK/output/mx6sdl/sdk_unit_test/smart_device_rev_a/libsdk_unit_test.a(camera_test.o)
                                                  /home/leon/git/swp-report/iMX6_Platform_SDK/output/mx6sdl/sdk_unit_test/smart_device_rev_a/libsdk_unit_test.a(keypad_test.o)
                                                  /home/leon/git/swp-report/iMX6_Platform_SDK/output/mx6sdl/sdk_unit_test/smart_device_rev_a/libsdk_unit_test.a(ips_test.o)
                                                  /home/leon/git/swp-report/iMX6_Platform_SDK/output/mx6sdl/sdk_unit_test/smart_device_rev_a/libsdk_unit_test.a(ips_display.o)
                                                  /home/leon/git/swp-report/iMX6_Platform_SDK/output/mx6sdl/sdk_unit_test/smart_device_rev_a/libsdk_unit_test.a(pwm_test.o)
                                                  /home/leon/git/swp-report/iMX6_Platform_SDK/output/mx6sdl/sdk_unit_test/smart_device_rev_a/libsdk_unit_test.a(watchdog_test.o)
                                                  /home/leon/git/swp-report/iMX6_Platform_SDK/output/mx6sdl/sdk_unit_test/smart_device_rev_a/libsdk_unit_test.a(usdhc_test.o)
                                                  /home/leon/git/swp-report/iMX6_Platform_SDK/output/mx6sdl/sdk_unit_test/smart_device_rev_a/libsdk_unit_test.a(gpt_test.o)
                                                  /home/leon/git/swp-report/iMX6_Platform_SDK/output/mx6sdl/sdk_unit_test/smart_device_rev_a/libsdk_unit_test.a(epit_test.o)
                                                  /home/leon/git/swp-report/iMX6_Platform_SDK/output/mx6sdl/sdk_unit_test/smart_device_rev_a/libsdk_unit_test.a(uart_test.o)
                                                  /home/leon/git/swp-report/iMX6_Platform_SDK/output/mx6sdl/sdk_unit_test/smart_device_rev_a/libsdk_unit_test.a(sdma_test.o)
                                                  /home/leon/git/swp-report/iMX6_Platform_SDK/output/mx6sdl/sdk_unit_test/smart_device_rev_a/libsdk_unit_test.a(tempmon_test.o)
                                                  /home/leon/git/swp-report/iMX6_Platform_SDK/output/mx6sdl/sdk_unit_test/smart_device_rev_a/libsdk_unit_test.a(imx6_i2c_device.o)
                                                  /home/leon/git/swp-report/iMX6_Platform_SDK/output/mx6sdl/sdk_unit_test/smart_device_rev_a/libsdk_unit_test.a(i2c_test.o)
                                                  /home/leon/git/swp-report/iMX6_Platform_SDK/output/mx6sdl/sdk_unit_test/smart_device_rev_a/libsdk_unit_test.a(snvs_srtc_test.o)
                                                  /home/leon/git/swp-report/iMX6_Platform_SDK/output/mx6sdl/sdk_unit_test/smart_device_rev_a/libsdk_unit_test.a(snvs_rtc_test.o)
                                                  /home/leon/git/swp-report/iMX6_Platform_SDK/output/mx6sdl/sdk_unit_test/smart_device_rev_a/libsdk_unit_test.a(ocotp_test.o)
                                                  /home/leon/git/swp-report/iMX6_Platform_SDK/output/mx6sdl/sdk_unit_test/smart_device_rev_a/libsdk_unit_test.a(audio_test.o)
                                                  /home/leon/git/swp-report/iMX6_Platform_SDK/output/mx6sdl/lib/libsdk.a(system_util.o)
                                                  /home/leon/git/swp-report/iMX6_Platform_SDK/output/mx6sdl/lib/libsdk.a(menu.o)
_init                                             /home/leon/riotboard/arm-2012.09/bin/../lib/gcc/arm-none-eabi/4.7.2//crti.o
                                                  /home/leon/riotboard/arm-2012.09/bin/../arm-none-eabi/lib//libc.a(lib_a-init.o)
_init_signal                                      /home/leon/riotboard/arm-2012.09/bin/../arm-none-eabi/lib//libc.a(lib_a-signal.o)
_init_signal_r                                    /home/leon/riotboard/arm-2012.09/bin/../arm-none-eabi/lib//libc.a(lib_a-signal.o)
_isatty                                           /home/leon/git/swp-report/iMX6_Platform_SDK/output/mx6sdl/lib/libsdk.a(runtime_support.o)
                                                  /home/leon/riotboard/arm-2012.09/bin/../arm-none-eabi/lib//libc.a(lib_a-isattyr.o)
_isatty_r                                         /home/leon/riotboard/arm-2012.09/bin/../arm-none-eabi/lib//libc.a(lib_a-isattyr.o)
                                                  /home/leon/riotboard/arm-2012.09/bin/../arm-none-eabi/lib//libc.a(lib_a-makebuf.o)
_kill                                             /home/leon/git/swp-report/iMX6_Platform_SDK/output/mx6sdl/lib/libsdk.a(runtime_support.o)
                                                  /home/leon/riotboard/arm-2012.09/bin/../arm-none-eabi/lib//libc.a(lib_a-signalr.o)
_kill_r                                           /home/leon/riotboard/arm-2012.09/bin/../arm-none-eabi/lib//libc.a(lib_a-signalr.o)
                                                  /home/leon/riotboard/arm-2012.09/bin/../arm-none-eabi/lib//libc.a(lib_a-signal.o)
_link                                             /home/leon/git/swp-report/iMX6_Platform_SDK/output/mx6sdl/lib/libsdk.a(runtime_support.o)
_localeconv_r                                     /home/leon/riotboard/arm-2012.09/bin/../arm-none-eabi/lib//libc.a(lib_a-locale.o)
                                                  /home/leon/riotboard/arm-2012.09/bin/../arm-none-eabi/lib//libc.a(lib_a-vfprintf.o)
                                                  /home/leon/riotboard/arm-2012.09/bin/../arm-none-eabi/lib//libc.a(lib_a-svfprintf.o)
_lseek                                            /home/leon/git/swp-report/iMX6_Platform_SDK/output/mx6sdl/lib/libsdk.a(runtime_support.o)
                                                  /home/leon/riotboard/arm-2012.09/bin/../arm-none-eabi/lib//libc.a(lib_a-lseekr.o)
_lseek_r                                          /home/leon/riotboard/arm-2012.09/bin/../arm-none-eabi/lib//libc.a(lib_a-lseekr.o)
                                                  /home/leon/riotboard/arm-2012.09/bin/../arm-none-eabi/lib//libc.a(lib_a-stdio.o)
_malloc_r                                         /home/leon/riotboard/arm-2012.09/bin/../arm-none-eabi/lib//libc.a(lib_a-mallocr.o)
                                                  /home/leon/riotboard/arm-2012.09/bin/../arm-none-eabi/lib//libc.a(lib_a-callocr.o)
                                                  /home/leon/riotboard/arm-2012.09/bin/../arm-none-eabi/lib//libc.a(lib_a-svfiprintf.o)
                                                  /home/leon/riotboard/arm-2012.09/bin/../arm-none-eabi/lib//libc.a(lib_a-signal.o)
                                                  /home/leon/riotboard/arm-2012.09/bin/../arm-none-eabi/lib//libc.a(lib_a-makebuf.o)
                                                  /home/leon/riotboard/arm-2012.09/bin/../arm-none-eabi/lib//libc.a(lib_a-svfprintf.o)
                                                  /home/leon/riotboard/arm-2012.09/bin/../arm-none-eabi/lib//libc.a(lib_a-reallocr.o)
                                                  /home/leon/riotboard/arm-2012.09/bin/../arm-none-eabi/lib//libc.a(lib_a-malloc.o)
                                                  /home/leon/riotboard/arm-2012.09/bin/../arm-none-eabi/lib//libc.a(lib_a-fvwrite.o)
                                                  /home/leon/riotboard/arm-2012.09/bin/../arm-none-eabi/lib//libc.a(lib_a-findfp.o)
_malloc_trim_r                                    /home/leon/riotboard/arm-2012.09/bin/../arm-none-eabi/lib//libc.a(lib_a-freer.o)
_mprec_log10                                      /home/leon/riotboard/arm-2012.09/bin/../arm-none-eabi/lib//libc.a(lib_a-mprec.o)
_open                                             /home/leon/git/swp-report/iMX6_Platform_SDK/output/mx6sdl/lib/libsdk.a(runtime_support.o)
_printf_r                                         /home/leon/riotboard/arm-2012.09/bin/../arm-none-eabi/lib//libc.a(lib_a-printf.o)
_putc_r                                           /home/leon/riotboard/arm-2012.09/bin/../arm-none-eabi/lib//libc.a(lib_a-putc.o)
                                                  /home/leon/riotboard/arm-2012.09/bin/../arm-none-eabi/lib//libc.a(lib_a-fputc.o)
_raise_r                                          /home/leon/riotboard/arm-2012.09/bin/../arm-none-eabi/lib//libc.a(lib_a-signal.o)
_raw_puts                                         /home/leon/git/swp-report/iMX6_Platform_SDK/output/mx6sdl/lib/libsdk.a(runtime_support.o)
_read                                             /home/leon/git/swp-report/iMX6_Platform_SDK/output/mx6sdl/lib/libsdk.a(runtime_support.o)
                                                  /home/leon/riotboard/arm-2012.09/bin/../arm-none-eabi/lib//libc.a(lib_a-readr.o)
_read_r                                           /home/leon/riotboard/arm-2012.09/bin/../arm-none-eabi/lib//libc.a(lib_a-readr.o)
                                                  /home/leon/riotboard/arm-2012.09/bin/../arm-none-eabi/lib//libc.a(lib_a-stdio.o)
_realloc_r                                        /home/leon/riotboard/arm-2012.09/bin/../arm-none-eabi/lib//libc.a(lib_a-reallocr.o)
                                                  /home/leon/riotboard/arm-2012.09/bin/../arm-none-eabi/lib//libc.a(lib_a-svfiprintf.o)
                                                  /home/leon/riotboard/arm-2012.09/bin/../arm-none-eabi/lib//libc.a(lib_a-realloc.o)
                                                  /home/leon/riotboard/arm-2012.09/bin/../arm-none-eabi/lib//libc.a(lib_a-fvwrite.o)
_reclaim_reent                                    /home/leon/riotboard/arm-2012.09/bin/../arm-none-eabi/lib//libc.a(lib_a-reent.o)
_sbrk                                             /home/leon/git/swp-report/iMX6_Platform_SDK/output/mx6sdl/lib/libsdk.a(runtime_support.o)
                                                  /home/leon/riotboard/arm-2012.09/bin/../arm-none-eabi/lib//libc.a(lib_a-sbrkr.o)
_sbrk_r                                           /home/leon/riotboard/arm-2012.09/bin/../arm-none-eabi/lib//libc.a(lib_a-sbrkr.o)
                                                  /home/leon/riotboard/arm-2012.09/bin/../arm-none-eabi/lib//libc.a(lib_a-mallocr.o)
                                                  /home/leon/riotboard/arm-2012.09/bin/../arm-none-eabi/lib//libc.a(lib_a-freer.o)
_setlocale_r                                      /home/leon/riotboard/arm-2012.09/bin/../arm-none-eabi/lib//libc.a(lib_a-locale.o)
_signal_r                                         /home/leon/riotboard/arm-2012.09/bin/../arm-none-eabi/lib//libc.a(lib_a-signal.o)
_sprintf_r                                        /home/leon/riotboard/arm-2012.09/bin/../arm-none-eabi/lib//libc.a(lib_a-sprintf.o)
_start                                            /home/leon/git/swp-report/iMX6_Platform_SDK/output/mx6sdl/lib/libsdk.a(startup.o)
                                                  /home/leon/git/swp-report/iMX6_Platform_SDK/output/mx6sdl/lib/libsdk.a(cpu_multicore.o)
                                                  /home/leon/git/swp-report/iMX6_Platform_SDK/output/mx6sdl/lib/libsdk.a(vectors.o)
                                                  /home/leon/git/swp-report/iMX6_Platform_SDK/output/mx6sdl/sdk_unit_test/smart_device_rev_a/obj/apps/common/ivt.o
_start_image_add                                  /home/leon/git/swp-report/iMX6_Platform_SDK/output/mx6sdl/sdk_unit_test/smart_device_rev_a/obj/apps/common/ivt.o
_stat                                             /home/leon/git/swp-report/iMX6_Platform_SDK/output/mx6sdl/lib/libsdk.a(runtime_support.o)
_svfiprintf_r                                     /home/leon/riotboard/arm-2012.09/bin/../arm-none-eabi/lib//libc.a(lib_a-svfiprintf.o)
_svfprintf_r                                      /home/leon/riotboard/arm-2012.09/bin/../arm-none-eabi/lib//libc.a(lib_a-svfprintf.o)
                                                  /home/leon/riotboard/arm-2012.09/bin/../arm-none-eabi/lib//libc.a(lib_a-sprintf.o)
_sys_exit                                         /home/leon/git/swp-report/iMX6_Platform_SDK/output/mx6sdl/lib/libsdk.a(system_util.o)
                                                  /home/leon/git/swp-report/iMX6_Platform_SDK/output/mx6sdl/lib/libsdk.a(runtime_support.o)
                                                  /home/leon/git/swp-report/iMX6_Platform_SDK/output/mx6sdl/lib/libsdk.a(startup.o)
_times                                            /home/leon/git/swp-report/iMX6_Platform_SDK/output/mx6sdl/lib/libsdk.a(runtime_support.o)
_unlink                                           /home/leon/git/swp-report/iMX6_Platform_SDK/output/mx6sdl/lib/libsdk.a(runtime_support.o)
_vfiprintf_r                                      /home/leon/riotboard/arm-2012.09/bin/../arm-none-eabi/lib//libc.a(lib_a-vfiprintf.o)
                                                  /home/leon/riotboard/arm-2012.09/bin/../arm-none-eabi/lib//libc.a(lib_a-fiprintf.o)
_vfprintf_r                                       /home/leon/riotboard/arm-2012.09/bin/../arm-none-eabi/lib//libc.a(lib_a-vfprintf.o)
                                                  /home/leon/riotboard/arm-2012.09/bin/../arm-none-eabi/lib//libc.a(lib_a-vprintf.o)
                                                  /home/leon/riotboard/arm-2012.09/bin/../arm-none-eabi/lib//libc.a(lib_a-printf.o)
_vprintf_r                                        /home/leon/riotboard/arm-2012.09/bin/../arm-none-eabi/lib//libc.a(lib_a-vprintf.o)
_wait                                             /home/leon/git/swp-report/iMX6_Platform_SDK/output/mx6sdl/lib/libsdk.a(runtime_support.o)
_wcrtomb_r                                        /home/leon/riotboard/arm-2012.09/bin/../arm-none-eabi/lib//libc.a(lib_a-wcrtomb.o)
                                                  /home/leon/riotboard/arm-2012.09/bin/../arm-none-eabi/lib//libc.a(lib_a-fputwc.o)
_wctomb_r                                         /home/leon/riotboard/arm-2012.09/bin/../arm-none-eabi/lib//libc.a(lib_a-wctomb_r.o)
_wrapup_reent                                     /home/leon/riotboard/arm-2012.09/bin/../arm-none-eabi/lib//libc.a(lib_a-reent.o)
_write                                            /home/leon/git/swp-report/iMX6_Platform_SDK/output/mx6sdl/lib/libsdk.a(runtime_support.o)
                                                  /home/leon/riotboard/arm-2012.09/bin/../arm-none-eabi/lib//libc.a(lib_a-writer.o)
_write_r                                          /home/leon/riotboard/arm-2012.09/bin/../arm-none-eabi/lib//libc.a(lib_a-writer.o)
                                                  /home/leon/riotboard/arm-2012.09/bin/../arm-none-eabi/lib//libc.a(lib_a-syswrite.o)
                                                  /home/leon/riotboard/arm-2012.09/bin/../arm-none-eabi/lib//libc.a(lib_a-stdio.o)
abort                                             /home/leon/riotboard/arm-2012.09/bin/../arm-none-eabi/lib//libc.a(lib_a-abort.o)
                                                  /home/leon/riotboard/arm-2012.09/bin/../lib/gcc/arm-none-eabi/4.7.2//libgcc.a(pr-support.o)
                                                  /home/leon/riotboard/arm-2012.09/bin/../lib/gcc/arm-none-eabi/4.7.2//libgcc.a(unwind-arm.o)
                                                  /home/leon/riotboard/arm-2012.09/bin/../arm-none-eabi/lib//libstdc++.a(vterminate.o)
                                                  /home/leon/riotboard/arm-2012.09/bin/../arm-none-eabi/lib//libstdc++.a(eh_personality.o)
                                                  /home/leon/riotboard/arm-2012.09/bin/../arm-none-eabi/lib//libstdc++.a(eh_terminate.o)
                                                  /home/leon/git/swp-report/iMX6_Platform_SDK/output/mx6sdl/lib/libsdk.a(runtime_support.o)
                                                  /home/leon/riotboard/arm-2012.09/bin/../arm-none-eabi/lib//libc.a(lib_a-assert.o)
accelerometer_test                                /home/leon/git/swp-report/iMX6_Platform_SDK/output/mx6sdl/sdk_unit_test/smart_device_rev_a/libsdk_unit_test.a(accelerometer_test.o)
                                                  /home/leon/git/swp-report/iMX6_Platform_SDK/output/mx6sdl/sdk_unit_test/smart_device_rev_a/obj/apps/sdk_unit_test/src/all_test.o
arm_branch_prediction_disable                     /home/leon/git/swp-report/iMX6_Platform_SDK/output/mx6sdl/lib/libsdk.a(cortexA9.o)
arm_branch_prediction_enable                      /home/leon/git/swp-report/iMX6_Platform_SDK/output/mx6sdl/lib/libsdk.a(cortexA9.o)
arm_branch_target_cache_invalidate                /home/leon/git/swp-report/iMX6_Platform_SDK/output/mx6sdl/lib/libsdk.a(cortexA9.o)
arm_branch_target_cache_invalidate_is             /home/leon/git/swp-report/iMX6_Platform_SDK/output/mx6sdl/lib/libsdk.a(cortexA9.o)
arm_dcache_disable                                /home/leon/git/swp-report/iMX6_Platform_SDK/output/mx6sdl/lib/libsdk.a(armv7_cache.o)
                                                  /home/leon/git/swp-report/iMX6_Platform_SDK/output/mx6sdl/sdk_unit_test/smart_device_rev_a/libsdk_unit_test.a(cpu_wp_test.o)
arm_dcache_enable                                 /home/leon/git/swp-report/iMX6_Platform_SDK/output/mx6sdl/lib/libsdk.a(armv7_cache.o)
arm_dcache_flush                                  /home/leon/git/swp-report/iMX6_Platform_SDK/output/mx6sdl/lib/libsdk.a(armv7_cache.o)
                                                  /home/leon/git/swp-report/iMX6_Platform_SDK/output/mx6sdl/sdk_unit_test/smart_device_rev_a/libsdk_unit_test.a(cpu_wp_test.o)
arm_dcache_flush_line                             /home/leon/git/swp-report/iMX6_Platform_SDK/output/mx6sdl/lib/libsdk.a(armv7_cache.o)
arm_dcache_flush_mlines                           /home/leon/git/swp-report/iMX6_Platform_SDK/output/mx6sdl/lib/libsdk.a(armv7_cache.o)
                                                  /home/leon/git/swp-report/iMX6_Platform_SDK/output/mx6sdl/lib/libsdk.a(usdhc.o)
arm_dcache_invalidate                             /home/leon/git/swp-report/iMX6_Platform_SDK/output/mx6sdl/lib/libsdk.a(armv7_cache.o)
                                                  /home/leon/git/swp-report/iMX6_Platform_SDK/output/mx6sdl/sdk_unit_test/smart_device_rev_a/libsdk_unit_test.a(cpu_wp_test.o)
arm_dcache_invalidate_line                        /home/leon/git/swp-report/iMX6_Platform_SDK/output/mx6sdl/lib/libsdk.a(armv7_cache.o)
arm_dcache_invalidate_mlines                      /home/leon/git/swp-report/iMX6_Platform_SDK/output/mx6sdl/lib/libsdk.a(armv7_cache.o)
                                                  /home/leon/git/swp-report/iMX6_Platform_SDK/output/mx6sdl/lib/libsdk.a(usdhc.o)
arm_dcache_state_query                            /home/leon/git/swp-report/iMX6_Platform_SDK/output/mx6sdl/lib/libsdk.a(armv7_cache.o)
                                                  /home/leon/git/swp-report/iMX6_Platform_SDK/output/mx6sdl/lib/libsdk.a(usdhc.o)
                                                  /home/leon/git/swp-report/iMX6_Platform_SDK/output/mx6sdl/sdk_unit_test/smart_device_rev_a/libsdk_unit_test.a(cpu_wp_test.o)
arm_icache_disable                                /home/leon/git/swp-report/iMX6_Platform_SDK/output/mx6sdl/lib/libsdk.a(armv7_cache.o)
arm_icache_enable                                 /home/leon/git/swp-report/iMX6_Platform_SDK/output/mx6sdl/lib/libsdk.a(armv7_cache.o)
arm_icache_invalidate                             /home/leon/git/swp-report/iMX6_Platform_SDK/output/mx6sdl/lib/libsdk.a(armv7_cache.o)
arm_icache_invalidate_is                          /home/leon/git/swp-report/iMX6_Platform_SDK/output/mx6sdl/lib/libsdk.a(armv7_cache.o)
arm_icache_invalidate_line                        /home/leon/git/swp-report/iMX6_Platform_SDK/output/mx6sdl/lib/libsdk.a(armv7_cache.o)
arm_icache_invalidate_mlines                      /home/leon/git/swp-report/iMX6_Platform_SDK/output/mx6sdl/lib/libsdk.a(armv7_cache.o)
arm_icache_state_query                            /home/leon/git/swp-report/iMX6_Platform_SDK/output/mx6sdl/lib/libsdk.a(armv7_cache.o)
arm_iomux_config                                  /home/leon/git/swp-report/iMX6_Platform_SDK/output/mx6sdl/lib/libboard_smart_device_rev_a.a(iomux_config.o)
arm_set_interrupt_state                           /home/leon/git/swp-report/iMX6_Platform_SDK/output/mx6sdl/lib/libsdk.a(cortexA9.o)
                                                  /home/leon/git/swp-report/iMX6_Platform_SDK/output/mx6sdl/sdk_unit_test/smart_device_rev_a/obj/apps/common/platform_init.o
arm_unified_tlb_invalidate                        /home/leon/git/swp-report/iMX6_Platform_SDK/output/mx6sdl/lib/libsdk.a(cortexA9.o)
                                                  /home/leon/git/swp-report/iMX6_Platform_SDK/output/mx6sdl/lib/libsdk.a(mmu.o)
arm_unified_tlb_invalidate_is                     /home/leon/git/swp-report/iMX6_Platform_SDK/output/mx6sdl/lib/libsdk.a(cortexA9.o)
asrc_iomux_config                                 /home/leon/git/swp-report/iMX6_Platform_SDK/output/mx6sdl/lib/libboard_smart_device_rev_a.a(iomux_config.o)
audio_ComputeCTS                                  /home/leon/git/swp-report/iMX6_Platform_SDK/output/mx6sdl/lib/libsdk.a(hdmi_tx_audio.o)
audio_ComputeN                                    /home/leon/git/swp-report/iMX6_Platform_SDK/output/mx6sdl/lib/libsdk.a(hdmi_tx_audio.o)
audio_Configure                                   /home/leon/git/swp-report/iMX6_Platform_SDK/output/mx6sdl/lib/libsdk.a(hdmi_tx_audio.o)
                                                  /home/leon/git/swp-report/iMX6_Platform_SDK/output/mx6sdl/sdk_unit_test/smart_device_rev_a/libsdk_unit_test.a(hdmi_test.o)
audio_Configure_DMA                               /home/leon/git/swp-report/iMX6_Platform_SDK/output/mx6sdl/lib/libsdk.a(hdmi_tx_audio.o)
                                                  /home/leon/git/swp-report/iMX6_Platform_SDK/output/mx6sdl/sdk_unit_test/smart_device_rev_a/libsdk_unit_test.a(hdmi_test.o)
audio_DMA_BurstMode                               /home/leon/git/swp-report/iMX6_Platform_SDK/output/mx6sdl/lib/libsdk.a(hdmi_tx_audio.o)
audio_DMA_IncrType                                /home/leon/git/swp-report/iMX6_Platform_SDK/output/mx6sdl/lib/libsdk.a(hdmi_tx_audio.o)
audio_DMA_InterruptMask                           /home/leon/git/swp-report/iMX6_Platform_SDK/output/mx6sdl/lib/libsdk.a(hdmi_tx_audio.o)
audio_DMA_InterruptPolarity                       /home/leon/git/swp-report/iMX6_Platform_SDK/output/mx6sdl/lib/libsdk.a(hdmi_tx_audio.o)
audio_DMA_LockEnable                              /home/leon/git/swp-report/iMX6_Platform_SDK/output/mx6sdl/lib/libsdk.a(hdmi_tx_audio.o)
audio_DMA_ResetFIFO                               /home/leon/git/swp-report/iMX6_Platform_SDK/output/mx6sdl/lib/libsdk.a(hdmi_tx_audio.o)
audio_DMA_SetCONF1                                /home/leon/git/swp-report/iMX6_Platform_SDK/output/mx6sdl/lib/libsdk.a(hdmi_tx_audio.o)
audio_DMA_Start                                   /home/leon/git/swp-report/iMX6_Platform_SDK/output/mx6sdl/lib/libsdk.a(hdmi_tx_audio.o)
audio_DMA_StartAddr                               /home/leon/git/swp-report/iMX6_Platform_SDK/output/mx6sdl/lib/libsdk.a(hdmi_tx_audio.o)
audio_DMA_StopAddr                                /home/leon/git/swp-report/iMX6_Platform_SDK/output/mx6sdl/lib/libsdk.a(hdmi_tx_audio.o)
audio_DMA_Threshold                               /home/leon/git/swp-report/iMX6_Platform_SDK/output/mx6sdl/lib/libsdk.a(hdmi_tx_audio.o)
audio_PacketLayout                                /home/leon/git/swp-report/iMX6_Platform_SDK/output/mx6sdl/lib/libsdk.a(hdmi_tx_audio.o)
audio_clk_CTS                                     /home/leon/git/swp-report/iMX6_Platform_SDK/output/mx6sdl/lib/libsdk.a(hdmi_tx_audio.o)
audio_clk_N                                       /home/leon/git/swp-report/iMX6_Platform_SDK/output/mx6sdl/lib/libsdk.a(hdmi_tx_audio.o)
audio_clock_config                                /home/leon/git/swp-report/iMX6_Platform_SDK/output/mx6sdl/lib/libboard_smart_device_rev_a.a(board_audio.o)
audio_codec_power_on                              /home/leon/git/swp-report/iMX6_Platform_SDK/output/mx6sdl/lib/libboard_smart_device_rev_a.a(board_audio.o)
                                                  /home/leon/git/swp-report/iMX6_Platform_SDK/output/mx6sdl/lib/libsdk.a(smd_sensor.o)
audio_info_config                                 /home/leon/git/swp-report/iMX6_Platform_SDK/output/mx6sdl/lib/libsdk.a(hdmi_tx_audio.o)
audio_test                                        /home/leon/git/swp-report/iMX6_Platform_SDK/output/mx6sdl/sdk_unit_test/smart_device_rev_a/libsdk_unit_test.a(audio_test.o)
                                                  /home/leon/git/swp-report/iMX6_Platform_SDK/output/mx6sdl/sdk_unit_test/smart_device_rev_a/obj/apps/sdk_unit_test/src/all_test.o
audmux_iomux_config                               /home/leon/git/swp-report/iMX6_Platform_SDK/output/mx6sdl/lib/libboard_smart_device_rev_a.a(audmux_iomux_config.o)
                                                  /home/leon/git/swp-report/iMX6_Platform_SDK/output/mx6sdl/lib/libboard_smart_device_rev_a.a(iomux_config.o)
bd                                                /home/leon/git/swp-report/iMX6_Platform_SDK/output/mx6sdl/sdk_unit_test/smart_device_rev_a/obj/apps/common/ivt.o
board_description                                 /home/leon/git/swp-report/iMX6_Platform_SDK/output/mx6sdl/lib/libsdk.a(board_id.o)
board_ioexpander_init                             /home/leon/git/swp-report/iMX6_Platform_SDK/output/mx6sdl/lib/libboard_smart_device_rev_a.a(board_io_expanders.o)
                                                  /home/leon/git/swp-report/iMX6_Platform_SDK/output/mx6sdl/sdk_unit_test/smart_device_rev_a/obj/apps/common/platform_init.o
board_ioexpander_iomux_config                     /home/leon/git/swp-report/iMX6_Platform_SDK/output/mx6sdl/lib/libboard_smart_device_rev_a.a(board_io_expanders.o)
board_name                                        /home/leon/git/swp-report/iMX6_Platform_SDK/output/mx6sdl/lib/libsdk.a(board_id.o)
                                                  /home/leon/git/swp-report/iMX6_Platform_SDK/output/mx6sdl/sdk_unit_test/smart_device_rev_a/obj/apps/common/print_version.o
board_revision                                    /home/leon/git/swp-report/iMX6_Platform_SDK/output/mx6sdl/lib/libsdk.a(board_id.o)
                                                  /home/leon/git/swp-report/iMX6_Platform_SDK/output/mx6sdl/sdk_unit_test/smart_device_rev_a/obj/apps/common/print_version.o
bzero                                             /home/leon/riotboard/arm-2012.09/bin/../arm-none-eabi/lib//libc.a(lib_a-bzero.o)
                                                  /home/leon/git/swp-report/iMX6_Platform_SDK/output/mx6sdl/lib/libsdk.a(mmu.o)
camera_ipu1_iomux_config                          /home/leon/git/swp-report/iMX6_Platform_SDK/output/mx6sdl/lib/libboard_smart_device_rev_a.a(board_camera.o)
camera_power_on                                   /home/leon/git/swp-report/iMX6_Platform_SDK/output/mx6sdl/lib/libboard_smart_device_rev_a.a(board_camera.o)
                                                  /home/leon/git/swp-report/iMX6_Platform_SDK/output/mx6sdl/lib/libsdk.a(smd_sensor.o)
camera_strobeflash_off                            /home/leon/git/swp-report/iMX6_Platform_SDK/output/mx6sdl/lib/libsdk.a(smd_sensor.o)
camera_strobeflash_on                             /home/leon/git/swp-report/iMX6_Platform_SDK/output/mx6sdl/lib/libsdk.a(smd_sensor.o)
camera_test                                       /home/leon/git/swp-report/iMX6_Platform_SDK/output/mx6sdl/sdk_unit_test/smart_device_rev_a/libsdk_unit_test.a(camera_test.o)
                                                  /home/leon/git/swp-report/iMX6_Platform_SDK/output/mx6sdl/sdk_unit_test/smart_device_rev_a/obj/apps/sdk_unit_test/src/all_test.o
card_cmd_config                                   /home/leon/git/swp-report/iMX6_Platform_SDK/output/mx6sdl/lib/libsdk.a(usdhc.o)
                                                  /home/leon/git/swp-report/iMX6_Platform_SDK/output/mx6sdl/lib/libsdk.a(usdhc_sd.o)
                                                  /home/leon/git/swp-report/iMX6_Platform_SDK/output/mx6sdl/lib/libsdk.a(usdhc_mmc.o)
card_data_read                                    /home/leon/git/swp-report/iMX6_Platform_SDK/output/mx6sdl/lib/libsdk.a(usdhc.o)
                                                  /home/leon/git/swp-report/iMX6_Platform_SDK/output/mx6sdl/sdk_unit_test/smart_device_rev_a/libsdk_unit_test.a(usdhc_test.o)
card_data_write                                   /home/leon/git/swp-report/iMX6_Platform_SDK/output/mx6sdl/lib/libsdk.a(usdhc.o)
                                                  /home/leon/git/swp-report/iMX6_Platform_SDK/output/mx6sdl/sdk_unit_test/smart_device_rev_a/libsdk_unit_test.a(usdhc_test.o)
card_detect_test_en                               /home/leon/git/swp-report/iMX6_Platform_SDK/output/mx6sdl/lib/libsdk.a(usdhc.o)
card_emmc_init                                    /home/leon/git/swp-report/iMX6_Platform_SDK/output/mx6sdl/lib/libsdk.a(usdhc.o)
                                                  /home/leon/git/swp-report/iMX6_Platform_SDK/output/mx6sdl/sdk_unit_test/smart_device_rev_a/libsdk_unit_test.a(usdhc_test.o)
card_enter_trans                                  /home/leon/git/swp-report/iMX6_Platform_SDK/output/mx6sdl/lib/libsdk.a(usdhc.o)
                                                  /home/leon/git/swp-report/iMX6_Platform_SDK/output/mx6sdl/lib/libsdk.a(usdhc_sd.o)
                                                  /home/leon/git/swp-report/iMX6_Platform_SDK/output/mx6sdl/lib/libsdk.a(usdhc_mmc.o)
card_get_cid                                      /home/leon/git/swp-report/iMX6_Platform_SDK/output/mx6sdl/lib/libsdk.a(usdhc.o)
                                                  /home/leon/git/swp-report/iMX6_Platform_SDK/output/mx6sdl/lib/libsdk.a(usdhc_sd.o)
                                                  /home/leon/git/swp-report/iMX6_Platform_SDK/output/mx6sdl/lib/libsdk.a(usdhc_mmc.o)
card_get_port                                     /home/leon/git/swp-report/iMX6_Platform_SDK/output/mx6sdl/lib/libsdk.a(usdhc.o)
                                                  /home/leon/git/swp-report/iMX6_Platform_SDK/output/mx6sdl/lib/libsdk.a(usdhc_sd.o)
                                                  /home/leon/git/swp-report/iMX6_Platform_SDK/output/mx6sdl/lib/libsdk.a(usdhc_mmc.o)
                                                  /home/leon/git/swp-report/iMX6_Platform_SDK/output/mx6sdl/lib/libsdk.a(usdhc_host.o)
card_init                                         /home/leon/git/swp-report/iMX6_Platform_SDK/output/mx6sdl/lib/libsdk.a(usdhc.o)
                                                  /home/leon/git/swp-report/iMX6_Platform_SDK/output/mx6sdl/sdk_unit_test/smart_device_rev_a/libsdk_unit_test.a(usdhc_test.o)
card_set_blklen                                   /home/leon/git/swp-report/iMX6_Platform_SDK/output/mx6sdl/lib/libsdk.a(usdhc.o)
card_trans_status                                 /home/leon/git/swp-report/iMX6_Platform_SDK/output/mx6sdl/lib/libsdk.a(usdhc.o)
                                                  /home/leon/git/swp-report/iMX6_Platform_SDK/output/mx6sdl/lib/libsdk.a(usdhc_mmc.o)
card_wait_xfer_done                               /home/leon/git/swp-report/iMX6_Platform_SDK/output/mx6sdl/lib/libsdk.a(usdhc.o)
card_xfer_result                                  /home/leon/git/swp-report/iMX6_Platform_SDK/output/mx6sdl/lib/libsdk.a(usdhc.o)
                                                  /home/leon/git/swp-report/iMX6_Platform_SDK/output/mx6sdl/sdk_unit_test/smart_device_rev_a/libsdk_unit_test.a(usdhc_test.o)
ccm_ccgr_config                                   /home/leon/git/swp-report/iMX6_Platform_SDK/output/mx6sdl/lib/libsdk.a(ccm_pll.o)
ccm_enter_low_power                               /home/leon/git/swp-report/iMX6_Platform_SDK/output/mx6sdl/lib/libsdk.a(ccm_pll.o)
ccm_init                                          /home/leon/git/swp-report/iMX6_Platform_SDK/output/mx6sdl/lib/libsdk.a(ccm_pll.o)
                                                  /home/leon/git/swp-report/iMX6_Platform_SDK/output/mx6sdl/sdk_unit_test/smart_device_rev_a/obj/apps/common/platform_init.o
ccm_iomux_config                                  /home/leon/git/swp-report/iMX6_Platform_SDK/output/mx6sdl/lib/libboard_smart_device_rev_a.a(ccm_iomux_config.o)
                                                  /home/leon/git/swp-report/iMX6_Platform_SDK/output/mx6sdl/lib/libboard_smart_device_rev_a.a(board_audio.o)
                                                  /home/leon/git/swp-report/iMX6_Platform_SDK/output/mx6sdl/lib/libboard_smart_device_rev_a.a(iomux_config.o)
ccm_set_lpm_wakeup_source                         /home/leon/git/swp-report/iMX6_Platform_SDK/output/mx6sdl/lib/libsdk.a(ccm_pll.o)
chip_name                                         /home/leon/git/swp-report/iMX6_Platform_SDK/output/mx6sdl/lib/libsdk.a(board_id.o)
                                                  /home/leon/git/swp-report/iMX6_Platform_SDK/output/mx6sdl/sdk_unit_test/smart_device_rev_a/obj/apps/common/print_version.o
chip_revision                                     /home/leon/git/swp-report/iMX6_Platform_SDK/output/mx6sdl/lib/libsdk.a(board_id.o)
                                                  /home/leon/git/swp-report/iMX6_Platform_SDK/output/mx6sdl/sdk_unit_test/smart_device_rev_a/obj/apps/common/print_version.o
cleanup_glue                                      /home/leon/riotboard/arm-2012.09/bin/../arm-none-eabi/lib//libc.a(lib_a-reent.o)
clock_gating_config                               /home/leon/git/swp-report/iMX6_Platform_SDK/output/mx6sdl/lib/libsdk.a(ccm_pll.o)
                                                  /home/leon/git/swp-report/iMX6_Platform_SDK/output/mx6sdl/lib/libboard_smart_device_rev_a.a(board_audio.o)
                                                  /home/leon/git/swp-report/iMX6_Platform_SDK/output/mx6sdl/lib/libsdk.a(gpt.o)
                                                  /home/leon/git/swp-report/iMX6_Platform_SDK/output/mx6sdl/lib/libsdk.a(ecspi.o)
                                                  /home/leon/git/swp-report/iMX6_Platform_SDK/output/mx6sdl/lib/libsdk.a(imx_i2c.o)
                                                  /home/leon/git/swp-report/iMX6_Platform_SDK/output/mx6sdl/lib/libsdk.a(epit.o)
                                                  /home/leon/git/swp-report/iMX6_Platform_SDK/output/mx6sdl/lib/libsdk.a(imx_uart.o)
common_abort_handler                              /home/leon/git/swp-report/iMX6_Platform_SDK/output/mx6sdl/lib/libsdk.a(arm_abort.o)
compute_alarm                                     /home/leon/git/swp-report/iMX6_Platform_SDK/output/mx6sdl/lib/libsdk.a(tempmon.o)
compute_temp                                      /home/leon/git/swp-report/iMX6_Platform_SDK/output/mx6sdl/lib/libsdk.a(tempmon.o)
copysignf                                         /home/leon/riotboard/arm-2012.09/bin/../arm-none-eabi/lib//libm.a(lib_a-sf_copysign.o)
                                                  /home/leon/riotboard/arm-2012.09/bin/../arm-none-eabi/lib//libm.a(lib_a-sf_scalbn.o)
cosf                                              /home/leon/riotboard/arm-2012.09/bin/../arm-none-eabi/lib//libm.a(lib_a-sf_cos.o)
                                                  /home/leon/git/swp-report/iMX6_Platform_SDK/output/mx6sdl/sdk_unit_test/smart_device_rev_a/libsdk_unit_test.a(usb0_device_mouse_test.o)
cpu_disable                                       /home/leon/git/swp-report/iMX6_Platform_SDK/output/mx6sdl/lib/libsdk.a(cpu_multicore.o)
                                                  /home/leon/git/swp-report/iMX6_Platform_SDK/output/mx6sdl/sdk_unit_test/smart_device_rev_a/libsdk_unit_test.a(multicore_test.o)
cpu_get_cores                                     /home/leon/git/swp-report/iMX6_Platform_SDK/output/mx6sdl/lib/libsdk.a(cpu_get_cores.o)
                                                  /home/leon/git/swp-report/iMX6_Platform_SDK/output/mx6sdl/lib/libsdk.a(cpu_multicore.o)
                                                  /home/leon/git/swp-report/iMX6_Platform_SDK/output/mx6sdl/sdk_unit_test/smart_device_rev_a/libsdk_unit_test.a(multicore_test.o)
cpu_get_current                                   /home/leon/git/swp-report/iMX6_Platform_SDK/output/mx6sdl/lib/libsdk.a(cortexA9.o)
                                                  /home/leon/git/swp-report/iMX6_Platform_SDK/output/mx6sdl/lib/libsdk.a(spinlock_lock_unlock.o)
                                                  /home/leon/git/swp-report/iMX6_Platform_SDK/output/mx6sdl/lib/libsdk.a(cpu_multicore.o)
                                                  /home/leon/git/swp-report/iMX6_Platform_SDK/output/mx6sdl/sdk_unit_test/smart_device_rev_a/libsdk_unit_test.a(multicore_test.o)
cpu_start_secondary                               /home/leon/git/swp-report/iMX6_Platform_SDK/output/mx6sdl/lib/libsdk.a(cpu_multicore.o)
                                                  /home/leon/git/swp-report/iMX6_Platform_SDK/output/mx6sdl/sdk_unit_test/smart_device_rev_a/libsdk_unit_test.a(multicore_test.o)
cpu_workpoint_set                                 /home/leon/git/swp-report/iMX6_Platform_SDK/output/mx6sdl/lib/libsdk.a(cpu_workpoint.o)
                                                  /home/leon/git/swp-report/iMX6_Platform_SDK/output/mx6sdl/sdk_unit_test/smart_device_rev_a/libsdk_unit_test.a(cpu_wp_test.o)
cpu_wp_test                                       /home/leon/git/swp-report/iMX6_Platform_SDK/output/mx6sdl/sdk_unit_test/smart_device_rev_a/libsdk_unit_test.a(cpu_wp_test.o)
                                                  /home/leon/git/swp-report/iMX6_Platform_SDK/output/mx6sdl/sdk_unit_test/smart_device_rev_a/obj/apps/sdk_unit_test/src/all_test.o
csi_dma_band_mode                                 /home/leon/git/swp-report/iMX6_Platform_SDK/output/mx6sdl/lib/libsdk.a(ipu_common.o)
                                                  /home/leon/git/swp-report/iMX6_Platform_SDK/output/mx6sdl/sdk_unit_test/smart_device_rev_a/libsdk_unit_test.a(csi_test_mode.o)
                                                  /home/leon/git/swp-report/iMX6_Platform_SDK/output/mx6sdl/sdk_unit_test/smart_device_rev_a/libsdk_unit_test.a(camera_test.o)
csi_port0_iomux_config                            /home/leon/git/swp-report/iMX6_Platform_SDK/output/mx6sdl/lib/libboard_smart_device_rev_a.a(board_camera.o)
                                                  /home/leon/git/swp-report/iMX6_Platform_SDK/output/mx6sdl/lib/libsdk.a(smd_sensor.o)
csi_test_mode                                     /home/leon/git/swp-report/iMX6_Platform_SDK/output/mx6sdl/sdk_unit_test/smart_device_rev_a/libsdk_unit_test.a(csi_test_mode.o)
                                                  /home/leon/git/swp-report/iMX6_Platform_SDK/output/mx6sdl/sdk_unit_test/smart_device_rev_a/libsdk_unit_test.a(camera_test.o)
csi_vdi_direct_path                               /home/leon/git/swp-report/iMX6_Platform_SDK/output/mx6sdl/lib/libsdk.a(ipu_common.o)
                                                  /home/leon/git/swp-report/iMX6_Platform_SDK/output/mx6sdl/lib/libsdk.a(ipu_idmac.o)
                                                  /home/leon/git/swp-report/iMX6_Platform_SDK/output/mx6sdl/lib/libsdk.a(ipu_csi.o)
data_abort_handler                                /home/leon/git/swp-report/iMX6_Platform_SDK/output/mx6sdl/lib/libsdk.a(arm_abort.o)
                                                  /home/leon/git/swp-report/iMX6_Platform_SDK/output/mx6sdl/lib/libsdk.a(vectors.o)
dcic1_iomux_config                                /home/leon/git/swp-report/iMX6_Platform_SDK/output/mx6sdl/lib/libboard_smart_device_rev_a.a(iomux_config.o)
dcic2_iomux_config                                /home/leon/git/swp-report/iMX6_Platform_SDK/output/mx6sdl/lib/libboard_smart_device_rev_a.a(iomux_config.o)
default_interrupt_routine                         /home/leon/git/swp-report/iMX6_Platform_SDK/output/mx6sdl/lib/libsdk.a(interrupt.o)
dev_spi_nor                                       /home/leon/git/swp-report/iMX6_Platform_SDK/output/mx6sdl/sdk_unit_test/smart_device_rev_a/libsdk_unit_test.a(spi_test.o)
                                                  /home/leon/git/swp-report/iMX6_Platform_SDK/output/mx6sdl/sdk_unit_test/smart_device_rev_a/libsdk_unit_test.a(spi_nor_numonyx.o)
disable_L1_cache                                  /home/leon/git/swp-report/iMX6_Platform_SDK/output/mx6sdl/lib/libsdk.a(cortexA9.o)
disable_interrupt                                 /home/leon/git/swp-report/iMX6_Platform_SDK/output/mx6sdl/lib/libsdk.a(interrupt.o)
                                                  /home/leon/git/swp-report/iMX6_Platform_SDK/output/mx6sdl/lib/libsdk.a(usdhc.o)
                                                  /home/leon/git/swp-report/iMX6_Platform_SDK/output/mx6sdl/lib/libsdk.a(gpt.o)
                                                  /home/leon/git/swp-report/iMX6_Platform_SDK/output/mx6sdl/lib/libsdk.a(tempmon.o)
                                                  /home/leon/git/swp-report/iMX6_Platform_SDK/output/mx6sdl/lib/libsdk.a(srtc.o)
                                                  /home/leon/git/swp-report/iMX6_Platform_SDK/output/mx6sdl/lib/libsdk.a(rtc.o)
                                                  /home/leon/git/swp-report/iMX6_Platform_SDK/output/mx6sdl/lib/libsdk.a(pwm.o)
                                                  /home/leon/git/swp-report/iMX6_Platform_SDK/output/mx6sdl/lib/libsdk.a(keypad_port.o)
                                                  /home/leon/git/swp-report/iMX6_Platform_SDK/output/mx6sdl/lib/libsdk.a(imx_i2c.o)
                                                  /home/leon/git/swp-report/iMX6_Platform_SDK/output/mx6sdl/sdk_unit_test/smart_device_rev_a/libsdk_unit_test.a(hdmi_test.o)
                                                  /home/leon/git/swp-report/iMX6_Platform_SDK/output/mx6sdl/lib/libsdk.a(epit.o)
                                                  /home/leon/git/swp-report/iMX6_Platform_SDK/output/mx6sdl/lib/libsdk.a(imx_uart.o)
disable_para_panel                                /home/leon/git/swp-report/iMX6_Platform_SDK/output/mx6sdl/lib/libboard_smart_device_rev_a.a(board_display.o)
disable_strict_align_check                        /home/leon/git/swp-report/iMX6_Platform_SDK/output/mx6sdl/lib/libsdk.a(cortexA9.o)
                                                  /home/leon/git/swp-report/iMX6_Platform_SDK/output/mx6sdl/sdk_unit_test/smart_device_rev_a/obj/apps/common/platform_init.o
disp_dev_list                                     /home/leon/git/swp-report/iMX6_Platform_SDK/output/mx6sdl/lib/libsdk.a(ips_disp_panel.o)
dump_regs                                         /home/leon/git/swp-report/iMX6_Platform_SDK/output/mx6sdl/lib/libsdk.a(abort_handler.o)
                                                  /home/leon/git/swp-report/iMX6_Platform_SDK/output/mx6sdl/lib/libsdk.a(arm_abort.o)
ecspi1_iomux_config                               /home/leon/git/swp-report/iMX6_Platform_SDK/output/mx6sdl/lib/libboard_smart_device_rev_a.a(ecspi1_iomux_config.o)
                                                  /home/leon/git/swp-report/iMX6_Platform_SDK/output/mx6sdl/lib/libboard_smart_device_rev_a.a(ecspi_iomux_config.o)
                                                  /home/leon/git/swp-report/iMX6_Platform_SDK/output/mx6sdl/lib/libboard_smart_device_rev_a.a(iomux_config.o)
ecspi2_iomux_config                               /home/leon/git/swp-report/iMX6_Platform_SDK/output/mx6sdl/lib/libboard_smart_device_rev_a.a(iomux_config.o)
                                                  /home/leon/git/swp-report/iMX6_Platform_SDK/output/mx6sdl/lib/libboard_smart_device_rev_a.a(ecspi_iomux_config.o)
ecspi3_iomux_config                               /home/leon/git/swp-report/iMX6_Platform_SDK/output/mx6sdl/lib/libboard_smart_device_rev_a.a(iomux_config.o)
                                                  /home/leon/git/swp-report/iMX6_Platform_SDK/output/mx6sdl/lib/libboard_smart_device_rev_a.a(ecspi_iomux_config.o)
ecspi4_iomux_config                               /home/leon/git/swp-report/iMX6_Platform_SDK/output/mx6sdl/lib/libboard_smart_device_rev_a.a(iomux_config.o)
                                                  /home/leon/git/swp-report/iMX6_Platform_SDK/output/mx6sdl/lib/libboard_smart_device_rev_a.a(ecspi_iomux_config.o)
ecspi_app_test                                    /home/leon/git/swp-report/iMX6_Platform_SDK/output/mx6sdl/sdk_unit_test/smart_device_rev_a/libsdk_unit_test.a(spi_lpb.o)
ecspi_close                                       /home/leon/git/swp-report/iMX6_Platform_SDK/output/mx6sdl/lib/libsdk.a(ecspi.o)
                                                  /home/leon/git/swp-report/iMX6_Platform_SDK/output/mx6sdl/sdk_unit_test/smart_device_rev_a/libsdk_unit_test.a(spi_test.o)
ecspi_configure                                   /home/leon/git/swp-report/iMX6_Platform_SDK/output/mx6sdl/lib/libsdk.a(ecspi.o)
                                                  /home/leon/git/swp-report/iMX6_Platform_SDK/output/mx6sdl/sdk_unit_test/smart_device_rev_a/libsdk_unit_test.a(spi_test.o)
ecspi_iomux_config                                /home/leon/git/swp-report/iMX6_Platform_SDK/output/mx6sdl/lib/libboard_smart_device_rev_a.a(ecspi_iomux_config.o)
                                                  /home/leon/git/swp-report/iMX6_Platform_SDK/output/mx6sdl/lib/libsdk.a(ecspi.o)
ecspi_open                                        /home/leon/git/swp-report/iMX6_Platform_SDK/output/mx6sdl/lib/libsdk.a(ecspi.o)
                                                  /home/leon/git/swp-report/iMX6_Platform_SDK/output/mx6sdl/sdk_unit_test/smart_device_rev_a/libsdk_unit_test.a(spi_test.o)
ecspi_shp_test                                    /home/leon/git/swp-report/iMX6_Platform_SDK/output/mx6sdl/sdk_unit_test/smart_device_rev_a/libsdk_unit_test.a(spi_lpb.o)
                                                  /home/leon/git/swp-report/iMX6_Platform_SDK/output/mx6sdl/sdk_unit_test/smart_device_rev_a/libsdk_unit_test.a(sdma_test.o)
ecspi_xfer                                        /home/leon/git/swp-report/iMX6_Platform_SDK/output/mx6sdl/lib/libsdk.a(ecspi.o)
                                                  /home/leon/git/swp-report/iMX6_Platform_SDK/output/mx6sdl/sdk_unit_test/smart_device_rev_a/libsdk_unit_test.a(spi_nor_numonyx.o)
eim_iomux_config                                  /home/leon/git/swp-report/iMX6_Platform_SDK/output/mx6sdl/lib/libboard_smart_device_rev_a.a(iomux_config.o)
emmc_init                                         /home/leon/git/swp-report/iMX6_Platform_SDK/output/mx6sdl/lib/libsdk.a(usdhc_mmc.o)
                                                  /home/leon/git/swp-report/iMX6_Platform_SDK/output/mx6sdl/lib/libsdk.a(usdhc.o)
emmc_print_cfg_info                               /home/leon/git/swp-report/iMX6_Platform_SDK/output/mx6sdl/lib/libsdk.a(usdhc_mmc.o)
                                                  /home/leon/git/swp-report/iMX6_Platform_SDK/output/mx6sdl/sdk_unit_test/smart_device_rev_a/libsdk_unit_test.a(usdhc_test.o)
emuerateDevice                                    /home/leon/git/swp-report/iMX6_Platform_SDK/output/mx6sdl/sdk_unit_test/smart_device_rev_a/libsdk_unit_test.a(usb0_host_test.o)
enable_interrupt                                  /home/leon/git/swp-report/iMX6_Platform_SDK/output/mx6sdl/lib/libsdk.a(interrupt.o)
                                                  /home/leon/git/swp-report/iMX6_Platform_SDK/output/mx6sdl/lib/libsdk.a(usdhc.o)
                                                  /home/leon/git/swp-report/iMX6_Platform_SDK/output/mx6sdl/lib/libsdk.a(gpt.o)
                                                  /home/leon/git/swp-report/iMX6_Platform_SDK/output/mx6sdl/lib/libsdk.a(tempmon.o)
                                                  /home/leon/git/swp-report/iMX6_Platform_SDK/output/mx6sdl/lib/libsdk.a(sdma.o)
                                                  /home/leon/git/swp-report/iMX6_Platform_SDK/output/mx6sdl/lib/libsdk.a(srtc.o)
                                                  /home/leon/git/swp-report/iMX6_Platform_SDK/output/mx6sdl/lib/libsdk.a(rtc.o)
                                                  /home/leon/git/swp-report/iMX6_Platform_SDK/output/mx6sdl/lib/libsdk.a(pwm.o)
                                                  /home/leon/git/swp-report/iMX6_Platform_SDK/output/mx6sdl/lib/libsdk.a(keypad_port.o)
                                                  /home/leon/git/swp-report/iMX6_Platform_SDK/output/mx6sdl/lib/libsdk.a(ipu_common.o)
                                                  /home/leon/git/swp-report/iMX6_Platform_SDK/output/mx6sdl/lib/libsdk.a(imx_i2c.o)
                                                  /home/leon/git/swp-report/iMX6_Platform_SDK/output/mx6sdl/sdk_unit_test/smart_device_rev_a/libsdk_unit_test.a(hdmi_test.o)
                                                  /home/leon/git/swp-report/iMX6_Platform_SDK/output/mx6sdl/sdk_unit_test/smart_device_rev_a/libsdk_unit_test.a(gic_test.o)
                                                  /home/leon/git/swp-report/iMX6_Platform_SDK/output/mx6sdl/lib/libsdk.a(epit.o)
                                                  /home/leon/git/swp-report/iMX6_Platform_SDK/output/mx6sdl/lib/libsdk.a(imx_uart.o)
enable_neon_fpu                                   /home/leon/git/swp-report/iMX6_Platform_SDK/output/mx6sdl/lib/libsdk.a(cortexA9.o)
                                                  /home/leon/git/swp-report/iMX6_Platform_SDK/output/mx6sdl/sdk_unit_test/smart_device_rev_a/obj/apps/common/platform_init.o
endpointList                                      /home/leon/git/swp-report/iMX6_Platform_SDK/output/mx6sdl/sdk_unit_test/smart_device_rev_a/libsdk_unit_test.a(usb0_device_mouse_test.o)
enet_iomux_config                                 /home/leon/git/swp-report/iMX6_Platform_SDK/output/mx6sdl/lib/libboard_smart_device_rev_a.a(enet_iomux_config.o)
                                                  /home/leon/git/swp-report/iMX6_Platform_SDK/output/mx6sdl/lib/libboard_smart_device_rev_a.a(board_network.o)
                                                  /home/leon/git/swp-report/iMX6_Platform_SDK/output/mx6sdl/lib/libboard_smart_device_rev_a.a(iomux_config.o)
enet_phy_rework_ar8031                            /home/leon/git/swp-report/iMX6_Platform_SDK/output/mx6sdl/lib/libsdk.a(enet_drv.o)
enet_phy_rework_ksz9021                           /home/leon/git/swp-report/iMX6_Platform_SDK/output/mx6sdl/lib/libsdk.a(enet_drv.o)
enet_test                                         /home/leon/git/swp-report/iMX6_Platform_SDK/output/mx6sdl/sdk_unit_test/smart_device_rev_a/libsdk_unit_test.a(enet_test.o)
                                                  /home/leon/git/swp-report/iMX6_Platform_SDK/output/mx6sdl/sdk_unit_test/smart_device_rev_a/obj/apps/sdk_unit_test/src/all_test.o
environ                                           /home/leon/git/swp-report/iMX6_Platform_SDK/output/mx6sdl/lib/libsdk.a(runtime_support.o)
ep1_resources                                     /home/leon/git/swp-report/iMX6_Platform_SDK/output/mx6sdl/sdk_unit_test/smart_device_rev_a/libsdk_unit_test.a(pcie_test_rc.o)
epdc_clock_setting                                /home/leon/git/swp-report/iMX6_Platform_SDK/output/mx6sdl/lib/libboard_smart_device_rev_a.a(board_display.o)
epdc_iomux_config                                 /home/leon/git/swp-report/iMX6_Platform_SDK/output/mx6sdl/lib/libboard_smart_device_rev_a.a(epdc_iomux_config.o)
                                                  /home/leon/git/swp-report/iMX6_Platform_SDK/output/mx6sdl/lib/libboard_smart_device_rev_a.a(iomux_config.o)
epdc_power_supply                                 /home/leon/git/swp-report/iMX6_Platform_SDK/output/mx6sdl/lib/libboard_smart_device_rev_a.a(board_display.o)
epit1_iomux_config                                /home/leon/git/swp-report/iMX6_Platform_SDK/output/mx6sdl/lib/libboard_smart_device_rev_a.a(iomux_config.o)
epit2_iomux_config                                /home/leon/git/swp-report/iMX6_Platform_SDK/output/mx6sdl/lib/libboard_smart_device_rev_a.a(iomux_config.o)
epit_counter_disable                              /home/leon/git/swp-report/iMX6_Platform_SDK/output/mx6sdl/lib/libsdk.a(epit.o)
                                                  /home/leon/git/swp-report/iMX6_Platform_SDK/output/mx6sdl/sdk_unit_test/smart_device_rev_a/libsdk_unit_test.a(epit_test.o)
                                                  /home/leon/git/swp-report/iMX6_Platform_SDK/output/mx6sdl/sdk_unit_test/smart_device_rev_a/libsdk_unit_test.a(cpu_wp_test.o)
                                                  /home/leon/git/swp-report/iMX6_Platform_SDK/output/mx6sdl/lib/libsdk.a(timer.o)
epit_counter_enable                               /home/leon/git/swp-report/iMX6_Platform_SDK/output/mx6sdl/lib/libsdk.a(epit.o)
                                                  /home/leon/git/swp-report/iMX6_Platform_SDK/output/mx6sdl/sdk_unit_test/smart_device_rev_a/libsdk_unit_test.a(epit_test.o)
                                                  /home/leon/git/swp-report/iMX6_Platform_SDK/output/mx6sdl/sdk_unit_test/smart_device_rev_a/libsdk_unit_test.a(cpu_wp_test.o)
                                                  /home/leon/git/swp-report/iMX6_Platform_SDK/output/mx6sdl/lib/libsdk.a(timer.o)
epit_get_compare_event                            /home/leon/git/swp-report/iMX6_Platform_SDK/output/mx6sdl/lib/libsdk.a(epit.o)
                                                  /home/leon/git/swp-report/iMX6_Platform_SDK/output/mx6sdl/sdk_unit_test/smart_device_rev_a/libsdk_unit_test.a(epit_test.o)
                                                  /home/leon/git/swp-report/iMX6_Platform_SDK/output/mx6sdl/lib/libsdk.a(timer.o)
epit_get_counter_value                            /home/leon/git/swp-report/iMX6_Platform_SDK/output/mx6sdl/lib/libsdk.a(epit.o)
                                                  /home/leon/git/swp-report/iMX6_Platform_SDK/output/mx6sdl/sdk_unit_test/smart_device_rev_a/libsdk_unit_test.a(cpu_wp_test.o)
epit_init                                         /home/leon/git/swp-report/iMX6_Platform_SDK/output/mx6sdl/lib/libsdk.a(epit.o)
                                                  /home/leon/git/swp-report/iMX6_Platform_SDK/output/mx6sdl/sdk_unit_test/smart_device_rev_a/libsdk_unit_test.a(epit_test.o)
                                                  /home/leon/git/swp-report/iMX6_Platform_SDK/output/mx6sdl/sdk_unit_test/smart_device_rev_a/libsdk_unit_test.a(cpu_wp_test.o)
                                                  /home/leon/git/swp-report/iMX6_Platform_SDK/output/mx6sdl/lib/libsdk.a(timer.o)
epit_reload_counter                               /home/leon/git/swp-report/iMX6_Platform_SDK/output/mx6sdl/lib/libsdk.a(epit.o)
epit_set_compare_event                            /home/leon/git/swp-report/iMX6_Platform_SDK/output/mx6sdl/lib/libsdk.a(epit.o)
epit_setup_interrupt                              /home/leon/git/swp-report/iMX6_Platform_SDK/output/mx6sdl/lib/libsdk.a(epit.o)
                                                  /home/leon/git/swp-report/iMX6_Platform_SDK/output/mx6sdl/sdk_unit_test/smart_device_rev_a/libsdk_unit_test.a(epit_test.o)
                                                  /home/leon/git/swp-report/iMX6_Platform_SDK/output/mx6sdl/sdk_unit_test/smart_device_rev_a/libsdk_unit_test.a(cpu_wp_test.o)
epit_test                                         /home/leon/git/swp-report/iMX6_Platform_SDK/output/mx6sdl/sdk_unit_test/smart_device_rev_a/libsdk_unit_test.a(epit_test.o)
                                                  /home/leon/git/swp-report/iMX6_Platform_SDK/output/mx6sdl/sdk_unit_test/smart_device_rev_a/obj/apps/sdk_unit_test/src/all_test.o
errno                                             /home/leon/git/swp-report/iMX6_Platform_SDK/output/mx6sdl/lib/libsdk.a(runtime_support.o)
                                                  /home/leon/riotboard/arm-2012.09/bin/../arm-none-eabi/lib//libc.a(lib_a-isattyr.o)
                                                  /home/leon/riotboard/arm-2012.09/bin/../arm-none-eabi/lib//libc.a(lib_a-fstatr.o)
                                                  /home/leon/riotboard/arm-2012.09/bin/../arm-none-eabi/lib//libc.a(lib_a-signalr.o)
                                                  /home/leon/riotboard/arm-2012.09/bin/../arm-none-eabi/lib//libc.a(lib_a-reent.o)
                                                  /home/leon/riotboard/arm-2012.09/bin/../arm-none-eabi/lib//libc.a(lib_a-readr.o)
                                                  /home/leon/riotboard/arm-2012.09/bin/../arm-none-eabi/lib//libc.a(lib_a-lseekr.o)
                                                  /home/leon/riotboard/arm-2012.09/bin/../arm-none-eabi/lib//libc.a(lib_a-closer.o)
                                                  /home/leon/riotboard/arm-2012.09/bin/../arm-none-eabi/lib//libc.a(lib_a-writer.o)
                                                  /home/leon/riotboard/arm-2012.09/bin/../arm-none-eabi/lib//libc.a(lib_a-sbrkr.o)
esai_clk_sel_gate_on                              /home/leon/git/swp-report/iMX6_Platform_SDK/output/mx6sdl/lib/libboard_smart_device_rev_a.a(board_audio.o)
esai_codec_power_on                               /home/leon/git/swp-report/iMX6_Platform_SDK/output/mx6sdl/lib/libboard_smart_device_rev_a.a(board_audio.o)
esai_iomux_config                                 /home/leon/git/swp-report/iMX6_Platform_SDK/output/mx6sdl/lib/libboard_smart_device_rev_a.a(iomux_config.o)
exception_handler                                 /home/leon/git/swp-report/iMX6_Platform_SDK/output/mx6sdl/lib/libsdk.a(vectors.o)
ext_hdmi_transmitter_power_on                     /home/leon/git/swp-report/iMX6_Platform_SDK/output/mx6sdl/lib/libboard_smart_device_rev_a.a(board_hdmi.o)
                                                  /home/leon/git/swp-report/iMX6_Platform_SDK/output/mx6sdl/lib/libsdk.a(ips_disp_panel.o)
fabsf                                             /home/leon/riotboard/arm-2012.09/bin/../arm-none-eabi/lib//libm.a(lib_a-sf_fabs.o)
                                                  /home/leon/riotboard/arm-2012.09/bin/../arm-none-eabi/lib//libm.a(lib_a-ef_rem_pio2.o)
                                                  /home/leon/git/swp-report/iMX6_Platform_SDK/output/mx6sdl/sdk_unit_test/smart_device_rev_a/libsdk_unit_test.a(accelerometer_test.o)
fclose                                            /home/leon/riotboard/arm-2012.09/bin/../arm-none-eabi/lib//libc.a(lib_a-fclose.o)
                                                  /home/leon/riotboard/arm-2012.09/bin/../arm-none-eabi/lib//libc.a(lib_a-findfp.o)
fflush                                            /home/leon/riotboard/arm-2012.09/bin/../arm-none-eabi/lib//libc.a(lib_a-fflush.o)
                                                  /home/leon/riotboard/arm-2012.09/bin/../arm-none-eabi/lib//libc.a(lib_a-refill.o)
                                                  /home/leon/git/swp-report/iMX6_Platform_SDK/output/mx6sdl/sdk_unit_test/smart_device_rev_a/libsdk_unit_test.a(accelerometer_test.o)
fillBuffer                                        /home/leon/git/swp-report/iMX6_Platform_SDK/output/mx6sdl/sdk_unit_test/smart_device_rev_a/libsdk_unit_test.a(usb0_device_mouse_test.o)
fiprintf                                          /home/leon/riotboard/arm-2012.09/bin/../arm-none-eabi/lib//libc.a(lib_a-fiprintf.o)
                                                  /home/leon/riotboard/arm-2012.09/bin/../arm-none-eabi/lib//libc.a(lib_a-assert.o)
flexcan1_iomux_config                             /home/leon/git/swp-report/iMX6_Platform_SDK/output/mx6sdl/lib/libboard_smart_device_rev_a.a(flexcan1_iomux_config.o)
                                                  /home/leon/git/swp-report/iMX6_Platform_SDK/output/mx6sdl/lib/libboard_smart_device_rev_a.a(iomux_config.o)
flexcan2_iomux_config                             /home/leon/git/swp-report/iMX6_Platform_SDK/output/mx6sdl/lib/libboard_smart_device_rev_a.a(iomux_config.o)
floorf                                            /home/leon/riotboard/arm-2012.09/bin/../arm-none-eabi/lib//libm.a(lib_a-sf_floor.o)
                                                  /home/leon/riotboard/arm-2012.09/bin/../arm-none-eabi/lib//libm.a(lib_a-kf_rem_pio2.o)
fputc                                             /home/leon/riotboard/arm-2012.09/bin/../arm-none-eabi/lib//libc.a(lib_a-fputc.o)
                                                  /home/leon/riotboard/arm-2012.09/bin/../arm-none-eabi/lib//libstdc++.a(vterminate.o)
                                                  /home/leon/git/swp-report/iMX6_Platform_SDK/output/mx6sdl/lib/libsdk.a(system_util.o)
                                                  /home/leon/git/swp-report/iMX6_Platform_SDK/output/mx6sdl/lib/libsdk.a(menu.o)
fputs                                             /home/leon/riotboard/arm-2012.09/bin/../arm-none-eabi/lib//libc.a(lib_a-fputs.o)
                                                  /home/leon/riotboard/arm-2012.09/bin/../arm-none-eabi/lib//libstdc++.a(vterminate.o)
                                                  /home/leon/git/swp-report/iMX6_Platform_SDK/output/mx6sdl/sdk_unit_test/smart_device_rev_a/libsdk_unit_test.a(accelerometer_test.o)
fputwc                                            /home/leon/riotboard/arm-2012.09/bin/../arm-none-eabi/lib//libc.a(lib_a-fputwc.o)
frame_list                                        /home/leon/git/swp-report/iMX6_Platform_SDK/output/mx6sdl/sdk_unit_test/smart_device_rev_a/libsdk_unit_test.a(usb0_host_test.o)
free                                              /home/leon/riotboard/arm-2012.09/bin/../arm-none-eabi/lib//libc.a(lib_a-malloc.o)
                                                  /home/leon/riotboard/arm-2012.09/bin/../arm-none-eabi/lib//libstdc++.a(del_op.o)
                                                  /home/leon/riotboard/arm-2012.09/bin/../arm-none-eabi/lib//libstdc++.a(cp-demangle.o)
                                                  /home/leon/riotboard/arm-2012.09/bin/../arm-none-eabi/lib//libstdc++.a(vterminate.o)
                                                  /home/leon/riotboard/arm-2012.09/bin/../arm-none-eabi/lib//libstdc++.a(eh_alloc.o)
                                                  /home/leon/git/swp-report/iMX6_Platform_SDK/output/mx6sdl/lib/libsdk.a(usbh_drv.o)
                                                  /home/leon/git/swp-report/iMX6_Platform_SDK/output/mx6sdl/lib/libsdk.a(usbd_drv.o)
                                                  /home/leon/git/swp-report/iMX6_Platform_SDK/output/mx6sdl/sdk_unit_test/smart_device_rev_a/libsdk_unit_test.a(usb0_host_test.o)
                                                  /home/leon/git/swp-report/iMX6_Platform_SDK/output/mx6sdl/sdk_unit_test/smart_device_rev_a/libsdk_unit_test.a(audio_test.o)
free_memory_end                                   /home/leon/git/swp-report/iMX6_Platform_SDK/output/mx6sdl/lib/libsdk.a(runtime_support.o)
free_memory_start                                 /home/leon/git/swp-report/iMX6_Platform_SDK/output/mx6sdl/lib/libsdk.a(runtime_support.o)
fwrite                                            /home/leon/riotboard/arm-2012.09/bin/../arm-none-eabi/lib//libc.a(lib_a-fwrite.o)
                                                  /home/leon/riotboard/arm-2012.09/bin/../arm-none-eabi/lib//libstdc++.a(vterminate.o)
gAudio_sample                                     /home/leon/git/swp-report/iMX6_Platform_SDK/output/mx6sdl/sdk_unit_test/smart_device_rev_a/libsdk_unit_test.a(init_dma_data.o)
gImage_foretext                                   /home/leon/git/swp-report/iMX6_Platform_SDK/output/mx6sdl/sdk_unit_test/smart_device_rev_a/libsdk_unit_test.a(ipu_image.o)
g_TextAttributeBlink                              /home/leon/git/swp-report/iMX6_Platform_SDK/output/mx6sdl/lib/libsdk.a(text_color.o)
g_TextAttributeBold                               /home/leon/git/swp-report/iMX6_Platform_SDK/output/mx6sdl/lib/libsdk.a(text_color.o)
                                                  /home/leon/git/swp-report/iMX6_Platform_SDK/output/mx6sdl/lib/libsdk.a(system_util.o)
                                                  /home/leon/git/swp-report/iMX6_Platform_SDK/output/mx6sdl/lib/libsdk.a(menu.o)
g_TextAttributeDefault                            /home/leon/git/swp-report/iMX6_Platform_SDK/output/mx6sdl/lib/libsdk.a(text_color.o)
                                                  /home/leon/git/swp-report/iMX6_Platform_SDK/output/mx6sdl/lib/libsdk.a(menu.o)
g_TextAttributeDim                                /home/leon/git/swp-report/iMX6_Platform_SDK/output/mx6sdl/lib/libsdk.a(text_color.o)
g_TextAttributeHidden                             /home/leon/git/swp-report/iMX6_Platform_SDK/output/mx6sdl/lib/libsdk.a(text_color.o)
g_TextAttributeReverse                            /home/leon/git/swp-report/iMX6_Platform_SDK/output/mx6sdl/lib/libsdk.a(text_color.o)
g_TextAttributeUnderline                          /home/leon/git/swp-report/iMX6_Platform_SDK/output/mx6sdl/lib/libsdk.a(text_color.o)
g_TextColorBlack                                  /home/leon/git/swp-report/iMX6_Platform_SDK/output/mx6sdl/lib/libsdk.a(text_color.o)
g_TextColorBlue                                   /home/leon/git/swp-report/iMX6_Platform_SDK/output/mx6sdl/lib/libsdk.a(text_color.o)
                                                  /home/leon/git/swp-report/iMX6_Platform_SDK/output/mx6sdl/lib/libsdk.a(menu.o)
g_TextColorCyan                                   /home/leon/git/swp-report/iMX6_Platform_SDK/output/mx6sdl/lib/libsdk.a(text_color.o)
g_TextColorGray                                   /home/leon/git/swp-report/iMX6_Platform_SDK/output/mx6sdl/lib/libsdk.a(text_color.o)
g_TextColorGreen                                  /home/leon/git/swp-report/iMX6_Platform_SDK/output/mx6sdl/lib/libsdk.a(text_color.o)
g_TextColorLightBlue                              /home/leon/git/swp-report/iMX6_Platform_SDK/output/mx6sdl/lib/libsdk.a(text_color.o)
g_TextColorMagenta                                /home/leon/git/swp-report/iMX6_Platform_SDK/output/mx6sdl/lib/libsdk.a(text_color.o)
                                                  /home/leon/git/swp-report/iMX6_Platform_SDK/output/mx6sdl/lib/libsdk.a(menu.o)
g_TextColorOrange                                 /home/leon/git/swp-report/iMX6_Platform_SDK/output/mx6sdl/lib/libsdk.a(text_color.o)
g_TextColorPurple                                 /home/leon/git/swp-report/iMX6_Platform_SDK/output/mx6sdl/lib/libsdk.a(text_color.o)
g_TextColorRed                                    /home/leon/git/swp-report/iMX6_Platform_SDK/output/mx6sdl/lib/libsdk.a(text_color.o)
                                                  /home/leon/git/swp-report/iMX6_Platform_SDK/output/mx6sdl/lib/libsdk.a(system_util.o)
                                                  /home/leon/git/swp-report/iMX6_Platform_SDK/output/mx6sdl/lib/libsdk.a(menu.o)
g_TextColorWhite                                  /home/leon/git/swp-report/iMX6_Platform_SDK/output/mx6sdl/lib/libsdk.a(text_color.o)
g_TextColorYellow                                 /home/leon/git/swp-report/iMX6_Platform_SDK/output/mx6sdl/lib/libsdk.a(text_color.o)
                                                  /home/leon/git/swp-report/iMX6_Platform_SDK/output/mx6sdl/lib/libsdk.a(menu.o)
g_adv7180_i2c_device                              /home/leon/git/swp-report/iMX6_Platform_SDK/output/mx6sdl/lib/libboard_smart_device_rev_a.a(board_i2c.o)
g_at24cx_i2c_device                               /home/leon/git/swp-report/iMX6_Platform_SDK/output/mx6sdl/lib/libboard_smart_device_rev_a.a(board_i2c.o)
                                                  /home/leon/git/swp-report/iMX6_Platform_SDK/output/mx6sdl/sdk_unit_test/smart_device_rev_a/libsdk_unit_test.a(at24cxx.o)
g_camera_i2c_port                                 /home/leon/git/swp-report/iMX6_Platform_SDK/output/mx6sdl/lib/libboard_smart_device_rev_a.a(board_camera.o)
                                                  /home/leon/git/swp-report/iMX6_Platform_SDK/output/mx6sdl/lib/libsdk.a(smd_sensor.o)
g_camera_modes                                    /home/leon/git/swp-report/iMX6_Platform_SDK/output/mx6sdl/lib/libsdk.a(camera_profile.o)
g_camera_profiles                                 /home/leon/git/swp-report/iMX6_Platform_SDK/output/mx6sdl/lib/libsdk.a(camera_profile.o)
                                                  /home/leon/git/swp-report/iMX6_Platform_SDK/output/mx6sdl/lib/libsdk.a(smd_sensor.o)
g_camera_test_name                                /home/leon/git/swp-report/iMX6_Platform_SDK/output/mx6sdl/sdk_unit_test/smart_device_rev_a/libsdk_unit_test.a(camera_test.o)
g_cs42888_i2c_device                              /home/leon/git/swp-report/iMX6_Platform_SDK/output/mx6sdl/lib/libboard_smart_device_rev_a.a(board_i2c.o)
g_debug_uart_port                                 /home/leon/git/swp-report/iMX6_Platform_SDK/output/mx6sdl/lib/libboard_smart_device_rev_a.a(hardware_modules.o)
                                                  /home/leon/git/swp-report/iMX6_Platform_SDK/output/mx6sdl/lib/libsdk.a(runtime_support.o)
                                                  /home/leon/git/swp-report/iMX6_Platform_SDK/output/mx6sdl/sdk_unit_test/smart_device_rev_a/libsdk_unit_test.a(csi_test_mode.o)
                                                  /home/leon/git/swp-report/iMX6_Platform_SDK/output/mx6sdl/lib/libsdk.a(system_util.o)
                                                  /home/leon/git/swp-report/iMX6_Platform_SDK/output/mx6sdl/sdk_unit_test/smart_device_rev_a/obj/apps/common/print_clock_info.o
                                                  /home/leon/git/swp-report/iMX6_Platform_SDK/output/mx6sdl/sdk_unit_test/smart_device_rev_a/obj/apps/common/platform_init.o
g_interrupt_handlers                              /home/leon/git/swp-report/iMX6_Platform_SDK/output/mx6sdl/lib/libsdk.a(interrupt.o)
g_microsecondTimerMultiple                        /home/leon/git/swp-report/iMX6_Platform_SDK/output/mx6sdl/lib/libsdk.a(timer.o)
g_mma8451_i2c_device                              /home/leon/git/swp-report/iMX6_Platform_SDK/output/mx6sdl/lib/libboard_smart_device_rev_a.a(board_i2c.o)
                                                  /home/leon/git/swp-report/iMX6_Platform_SDK/output/mx6sdl/sdk_unit_test/smart_device_rev_a/libsdk_unit_test.a(accelerometer_test.o)
g_mt9p111_af_firmware                             /home/leon/git/swp-report/iMX6_Platform_SDK/output/mx6sdl/lib/libsdk.a(camera_profile.o)
g_mt9p111_af_ready                                /home/leon/git/swp-report/iMX6_Platform_SDK/output/mx6sdl/lib/libsdk.a(camera_profile.o)
g_mt9p111_af_trigger                              /home/leon/git/swp-report/iMX6_Platform_SDK/output/mx6sdl/lib/libsdk.a(camera_profile.o)
g_mt9p111_mode_vga_640_480_30fps                  /home/leon/git/swp-report/iMX6_Platform_SDK/output/mx6sdl/lib/libsdk.a(camera_profile.o)
g_mt9p111_sensor_detection                        /home/leon/git/swp-report/iMX6_Platform_SDK/output/mx6sdl/lib/libsdk.a(camera_profile.o)
g_os81050_i2c_device                              /home/leon/git/swp-report/iMX6_Platform_SDK/output/mx6sdl/lib/libboard_smart_device_rev_a.a(board_i2c.o)
g_ov3640_mode_vga_640_480_30fps                   /home/leon/git/swp-report/iMX6_Platform_SDK/output/mx6sdl/lib/libsdk.a(camera_profile.o)
g_ov3640_sensor_detection                         /home/leon/git/swp-report/iMX6_Platform_SDK/output/mx6sdl/lib/libsdk.a(camera_profile.o)
g_ov5640_mode_vga_640_480_30fps                   /home/leon/git/swp-report/iMX6_Platform_SDK/output/mx6sdl/lib/libsdk.a(camera_profile.o)
g_ov5640_sensor_detection                         /home/leon/git/swp-report/iMX6_Platform_SDK/output/mx6sdl/lib/libsdk.a(camera_profile.o)
g_ov5642_af_firmware                              /home/leon/git/swp-report/iMX6_Platform_SDK/output/mx6sdl/lib/libsdk.a(camera_profile.o)
g_ov5642_af_ready                                 /home/leon/git/swp-report/iMX6_Platform_SDK/output/mx6sdl/lib/libsdk.a(camera_profile.o)
g_ov5642_af_trigger                               /home/leon/git/swp-report/iMX6_Platform_SDK/output/mx6sdl/lib/libsdk.a(camera_profile.o)
g_ov5642_mode_vga_640_480_30fps                   /home/leon/git/swp-report/iMX6_Platform_SDK/output/mx6sdl/lib/libsdk.a(camera_profile.o)
g_ov5642_sensor_detection                         /home/leon/git/swp-report/iMX6_Platform_SDK/output/mx6sdl/lib/libsdk.a(camera_profile.o)
g_p1003_tsc_i2c_device                            /home/leon/git/swp-report/iMX6_Platform_SDK/output/mx6sdl/lib/libboard_smart_device_rev_a.a(board_i2c.o)
g_pmic_da9053_i2c_device                          /home/leon/git/swp-report/iMX6_Platform_SDK/output/mx6sdl/lib/libboard_smart_device_rev_a.a(board_i2c.o)
g_pmic_ltc3589_i2c_device                         /home/leon/git/swp-report/iMX6_Platform_SDK/output/mx6sdl/lib/libboard_smart_device_rev_a.a(board_i2c.o)
g_pmic_max17135_i2c_device                        /home/leon/git/swp-report/iMX6_Platform_SDK/output/mx6sdl/lib/libboard_smart_device_rev_a.a(board_i2c.o)
g_pmic_pf0100_i2c_device                          /home/leon/git/swp-report/iMX6_Platform_SDK/output/mx6sdl/lib/libboard_smart_device_rev_a.a(board_i2c.o)
g_pwm_test_end                                    /home/leon/git/swp-report/iMX6_Platform_SDK/output/mx6sdl/sdk_unit_test/smart_device_rev_a/libsdk_unit_test.a(pwm_output.o)
                                                  /home/leon/git/swp-report/iMX6_Platform_SDK/output/mx6sdl/lib/libsdk.a(pwm.o)
g_sgtl5000_i2c_device                             /home/leon/git/swp-report/iMX6_Platform_SDK/output/mx6sdl/lib/libboard_smart_device_rev_a.a(board_i2c.o)
g_si476x_i2c_device                               /home/leon/git/swp-report/iMX6_Platform_SDK/output/mx6sdl/lib/libboard_smart_device_rev_a.a(board_i2c.o)
g_system_timer_port                               /home/leon/git/swp-report/iMX6_Platform_SDK/output/mx6sdl/lib/libboard_smart_device_rev_a.a(hardware_modules.o)
                                                  /home/leon/git/swp-report/iMX6_Platform_SDK/output/mx6sdl/lib/libsdk.a(timer.o)
g_uart_test_name                                  /home/leon/git/swp-report/iMX6_Platform_SDK/output/mx6sdl/sdk_unit_test/smart_device_rev_a/libsdk_unit_test.a(uart_test.o)
g_vectNum                                         /home/leon/git/swp-report/iMX6_Platform_SDK/output/mx6sdl/lib/libsdk.a(interrupt.o)
g_wm8958_i2c_device                               /home/leon/git/swp-report/iMX6_Platform_SDK/output/mx6sdl/lib/libboard_smart_device_rev_a.a(board_i2c.o)
g_wm8962_i2c_device                               /home/leon/git/swp-report/iMX6_Platform_SDK/output/mx6sdl/lib/libboard_smart_device_rev_a.a(board_i2c.o)
get_arm_private_peripheral_base                   /home/leon/git/swp-report/iMX6_Platform_SDK/output/mx6sdl/lib/libsdk.a(cortexA9.o)
                                                  /home/leon/git/swp-report/iMX6_Platform_SDK/output/mx6sdl/lib/libsdk.a(gic.o)
get_board_id                                      /home/leon/git/swp-report/iMX6_Platform_SDK/output/mx6sdl/lib/libsdk.a(board_id.o)
                                                  /home/leon/git/swp-report/iMX6_Platform_SDK/output/mx6sdl/sdk_unit_test/smart_device_rev_a/obj/apps/common/print_version.o
get_color_supported                               /home/leon/git/swp-report/iMX6_Platform_SDK/output/mx6sdl/lib/libsdk.a(text_color.o)
get_input_hex                                     /home/leon/git/swp-report/iMX6_Platform_SDK/output/mx6sdl/lib/libsdk.a(system_util.o)
                                                  /home/leon/git/swp-report/iMX6_Platform_SDK/output/mx6sdl/sdk_unit_test/smart_device_rev_a/libsdk_unit_test.a(ocotp_test.o)
get_main_clock                                    /home/leon/git/swp-report/iMX6_Platform_SDK/output/mx6sdl/lib/libsdk.a(ccm_pll.o)
                                                  /home/leon/git/swp-report/iMX6_Platform_SDK/output/mx6sdl/lib/libsdk.a(pwm.o)
                                                  /home/leon/git/swp-report/iMX6_Platform_SDK/output/mx6sdl/lib/libsdk.a(imx_i2c.o)
                                                  /home/leon/git/swp-report/iMX6_Platform_SDK/output/mx6sdl/lib/libsdk.a(enet_drv.o)
                                                  /home/leon/git/swp-report/iMX6_Platform_SDK/output/mx6sdl/sdk_unit_test/smart_device_rev_a/libsdk_unit_test.a(mem_2_mem.o)
                                                  /home/leon/git/swp-report/iMX6_Platform_SDK/output/mx6sdl/sdk_unit_test/smart_device_rev_a/libsdk_unit_test.a(gpt_test.o)
                                                  /home/leon/git/swp-report/iMX6_Platform_SDK/output/mx6sdl/sdk_unit_test/smart_device_rev_a/libsdk_unit_test.a(epit_test.o)
                                                  /home/leon/git/swp-report/iMX6_Platform_SDK/output/mx6sdl/sdk_unit_test/smart_device_rev_a/libsdk_unit_test.a(cpu_wp_test.o)
                                                  /home/leon/git/swp-report/iMX6_Platform_SDK/output/mx6sdl/lib/libsdk.a(timer.o)
                                                  /home/leon/git/swp-report/iMX6_Platform_SDK/output/mx6sdl/sdk_unit_test/smart_device_rev_a/obj/apps/common/print_clock_info.o
get_menu_item                                     /home/leon/git/swp-report/iMX6_Platform_SDK/output/mx6sdl/lib/libsdk.a(usb_common.o)
                                                  /home/leon/git/swp-report/iMX6_Platform_SDK/output/mx6sdl/sdk_unit_test/smart_device_rev_a/libsdk_unit_test.a(usb0_host_testmodes_test.o)
                                                  /home/leon/git/swp-report/iMX6_Platform_SDK/output/mx6sdl/sdk_unit_test/smart_device_rev_a/libsdk_unit_test.a(usb_test.o)
get_panel_by_id                                   /home/leon/git/swp-report/iMX6_Platform_SDK/output/mx6sdl/lib/libsdk.a(ips_disp_panel.o)
get_peri_clock                                    /home/leon/git/swp-report/iMX6_Platform_SDK/output/mx6sdl/lib/libsdk.a(ccm_pll.o)
                                                  /home/leon/git/swp-report/iMX6_Platform_SDK/output/mx6sdl/lib/libsdk.a(imx_uart.o)
                                                  /home/leon/git/swp-report/iMX6_Platform_SDK/output/mx6sdl/sdk_unit_test/smart_device_rev_a/obj/apps/common/print_clock_info.o
gicTestDone                                       /home/leon/git/swp-report/iMX6_Platform_SDK/output/mx6sdl/sdk_unit_test/smart_device_rev_a/libsdk_unit_test.a(gic_test.o)
gic_cpu_enable                                    /home/leon/git/swp-report/iMX6_Platform_SDK/output/mx6sdl/lib/libsdk.a(gic.o)
gic_enable                                        /home/leon/git/swp-report/iMX6_Platform_SDK/output/mx6sdl/lib/libsdk.a(gic.o)
gic_enable_irq                                    /home/leon/git/swp-report/iMX6_Platform_SDK/output/mx6sdl/lib/libsdk.a(gic.o)
                                                  /home/leon/git/swp-report/iMX6_Platform_SDK/output/mx6sdl/lib/libsdk.a(interrupt.o)
gic_init                                          /home/leon/git/swp-report/iMX6_Platform_SDK/output/mx6sdl/lib/libsdk.a(gic.o)
                                                  /home/leon/git/swp-report/iMX6_Platform_SDK/output/mx6sdl/sdk_unit_test/smart_device_rev_a/obj/apps/common/platform_init.o
gic_init_cpu                                      /home/leon/git/swp-report/iMX6_Platform_SDK/output/mx6sdl/lib/libsdk.a(gic.o)
                                                  /home/leon/git/swp-report/iMX6_Platform_SDK/output/mx6sdl/sdk_unit_test/smart_device_rev_a/libsdk_unit_test.a(multicore_test.o)
gic_read_irq_ack                                  /home/leon/git/swp-report/iMX6_Platform_SDK/output/mx6sdl/lib/libsdk.a(gic.o)
                                                  /home/leon/git/swp-report/iMX6_Platform_SDK/output/mx6sdl/lib/libsdk.a(interrupt.o)
gic_send_sgi                                      /home/leon/git/swp-report/iMX6_Platform_SDK/output/mx6sdl/lib/libsdk.a(gic.o)
                                                  /home/leon/git/swp-report/iMX6_Platform_SDK/output/mx6sdl/sdk_unit_test/smart_device_rev_a/libsdk_unit_test.a(gic_test.o)
                                                  /home/leon/git/swp-report/iMX6_Platform_SDK/output/mx6sdl/sdk_unit_test/smart_device_rev_a/libsdk_unit_test.a(multicore_test.o)
gic_set_cpu_priority_mask                         /home/leon/git/swp-report/iMX6_Platform_SDK/output/mx6sdl/lib/libsdk.a(gic.o)
gic_set_cpu_target                                /home/leon/git/swp-report/iMX6_Platform_SDK/output/mx6sdl/lib/libsdk.a(gic.o)
                                                  /home/leon/git/swp-report/iMX6_Platform_SDK/output/mx6sdl/lib/libsdk.a(interrupt.o)
gic_set_irq_priority                              /home/leon/git/swp-report/iMX6_Platform_SDK/output/mx6sdl/lib/libsdk.a(gic.o)
                                                  /home/leon/git/swp-report/iMX6_Platform_SDK/output/mx6sdl/lib/libsdk.a(interrupt.o)
gic_set_irq_security                              /home/leon/git/swp-report/iMX6_Platform_SDK/output/mx6sdl/lib/libsdk.a(gic.o)
                                                  /home/leon/git/swp-report/iMX6_Platform_SDK/output/mx6sdl/lib/libsdk.a(interrupt.o)
gic_sgi_test_handler                              /home/leon/git/swp-report/iMX6_Platform_SDK/output/mx6sdl/sdk_unit_test/smart_device_rev_a/libsdk_unit_test.a(gic_test.o)
gic_test                                          /home/leon/git/swp-report/iMX6_Platform_SDK/output/mx6sdl/sdk_unit_test/smart_device_rev_a/libsdk_unit_test.a(gic_test.o)
                                                  /home/leon/git/swp-report/iMX6_Platform_SDK/output/mx6sdl/sdk_unit_test/smart_device_rev_a/obj/apps/sdk_unit_test/src/all_test.o
gic_write_end_of_irq                              /home/leon/git/swp-report/iMX6_Platform_SDK/output/mx6sdl/lib/libsdk.a(gic.o)
                                                  /home/leon/git/swp-report/iMX6_Platform_SDK/output/mx6sdl/lib/libsdk.a(interrupt.o)
gpio1_iomux_config                                /home/leon/git/swp-report/iMX6_Platform_SDK/output/mx6sdl/lib/libboard_smart_device_rev_a.a(gpio1_iomux_config.o)
                                                  /home/leon/git/swp-report/iMX6_Platform_SDK/output/mx6sdl/lib/libboard_smart_device_rev_a.a(iomux_config.o)
gpio2_iomux_config                                /home/leon/git/swp-report/iMX6_Platform_SDK/output/mx6sdl/lib/libboard_smart_device_rev_a.a(gpio2_iomux_config.o)
                                                  /home/leon/git/swp-report/iMX6_Platform_SDK/output/mx6sdl/lib/libboard_smart_device_rev_a.a(iomux_config.o)
gpio3_iomux_config                                /home/leon/git/swp-report/iMX6_Platform_SDK/output/mx6sdl/lib/libboard_smart_device_rev_a.a(gpio3_iomux_config.o)
                                                  /home/leon/git/swp-report/iMX6_Platform_SDK/output/mx6sdl/lib/libboard_smart_device_rev_a.a(iomux_config.o)
gpio4_iomux_config                                /home/leon/git/swp-report/iMX6_Platform_SDK/output/mx6sdl/lib/libboard_smart_device_rev_a.a(gpio4_iomux_config.o)
                                                  /home/leon/git/swp-report/iMX6_Platform_SDK/output/mx6sdl/lib/libboard_smart_device_rev_a.a(iomux_config.o)
gpio5_iomux_config                                /home/leon/git/swp-report/iMX6_Platform_SDK/output/mx6sdl/lib/libboard_smart_device_rev_a.a(gpio5_iomux_config.o)
                                                  /home/leon/git/swp-report/iMX6_Platform_SDK/output/mx6sdl/lib/libboard_smart_device_rev_a.a(iomux_config.o)
gpio6_iomux_config                                /home/leon/git/swp-report/iMX6_Platform_SDK/output/mx6sdl/lib/libboard_smart_device_rev_a.a(gpio6_iomux_config.o)
                                                  /home/leon/git/swp-report/iMX6_Platform_SDK/output/mx6sdl/lib/libboard_smart_device_rev_a.a(iomux_config.o)
gpio7_iomux_config                                /home/leon/git/swp-report/iMX6_Platform_SDK/output/mx6sdl/lib/libboard_smart_device_rev_a.a(gpio7_iomux_config.o)
                                                  /home/leon/git/swp-report/iMX6_Platform_SDK/output/mx6sdl/lib/libboard_smart_device_rev_a.a(iomux_config.o)
gpio_clear_interrupt                              /home/leon/git/swp-report/iMX6_Platform_SDK/output/mx6sdl/lib/libsdk.a(gpio.o)
gpio_get_direction                                /home/leon/git/swp-report/iMX6_Platform_SDK/output/mx6sdl/lib/libsdk.a(gpio.o)
gpio_get_interrupt_status                         /home/leon/git/swp-report/iMX6_Platform_SDK/output/mx6sdl/lib/libsdk.a(gpio.o)
gpio_get_level                                    /home/leon/git/swp-report/iMX6_Platform_SDK/output/mx6sdl/lib/libsdk.a(gpio.o)
                                                  /home/leon/git/swp-report/iMX6_Platform_SDK/output/mx6sdl/lib/libboard_smart_device_rev_a.a(board_usdhc.o)
gpio_get_port_count                               /home/leon/git/swp-report/iMX6_Platform_SDK/output/mx6sdl/lib/libsdk.a(gpio.o)
gpio_set_direction                                /home/leon/git/swp-report/iMX6_Platform_SDK/output/mx6sdl/lib/libsdk.a(gpio.o)
                                                  /home/leon/git/swp-report/iMX6_Platform_SDK/output/mx6sdl/lib/libboard_smart_device_rev_a.a(board_usb.o)
                                                  /home/leon/git/swp-report/iMX6_Platform_SDK/output/mx6sdl/lib/libboard_smart_device_rev_a.a(board_pcie.o)
                                                  /home/leon/git/swp-report/iMX6_Platform_SDK/output/mx6sdl/lib/libboard_smart_device_rev_a.a(board_network.o)
                                                  /home/leon/git/swp-report/iMX6_Platform_SDK/output/mx6sdl/lib/libboard_smart_device_rev_a.a(board_mipi.o)
                                                  /home/leon/git/swp-report/iMX6_Platform_SDK/output/mx6sdl/lib/libboard_smart_device_rev_a.a(board_display.o)
                                                  /home/leon/git/swp-report/iMX6_Platform_SDK/output/mx6sdl/lib/libboard_smart_device_rev_a.a(board_camera.o)
                                                  /home/leon/git/swp-report/iMX6_Platform_SDK/output/mx6sdl/lib/libboard_smart_device_rev_a.a(board_audio.o)
                                                  /home/leon/git/swp-report/iMX6_Platform_SDK/output/mx6sdl/sdk_unit_test/smart_device_rev_a/libsdk_unit_test.a(accelerometer_test.o)
gpio_set_gpio                                     /home/leon/git/swp-report/iMX6_Platform_SDK/output/mx6sdl/lib/libsdk.a(gpio.o)
                                                  /home/leon/git/swp-report/iMX6_Platform_SDK/output/mx6sdl/lib/libboard_smart_device_rev_a.a(board_usb.o)
                                                  /home/leon/git/swp-report/iMX6_Platform_SDK/output/mx6sdl/lib/libboard_smart_device_rev_a.a(board_pcie.o)
                                                  /home/leon/git/swp-report/iMX6_Platform_SDK/output/mx6sdl/lib/libboard_smart_device_rev_a.a(board_mipi.o)
                                                  /home/leon/git/swp-report/iMX6_Platform_SDK/output/mx6sdl/lib/libboard_smart_device_rev_a.a(board_display.o)
                                                  /home/leon/git/swp-report/iMX6_Platform_SDK/output/mx6sdl/lib/libboard_smart_device_rev_a.a(board_audio.o)
                                                  /home/leon/git/swp-report/iMX6_Platform_SDK/output/mx6sdl/sdk_unit_test/smart_device_rev_a/libsdk_unit_test.a(accelerometer_test.o)
gpio_set_interrupt_config                         /home/leon/git/swp-report/iMX6_Platform_SDK/output/mx6sdl/lib/libsdk.a(gpio.o)
gpio_set_interrupt_mask                           /home/leon/git/swp-report/iMX6_Platform_SDK/output/mx6sdl/lib/libsdk.a(gpio.o)
gpio_set_level                                    /home/leon/git/swp-report/iMX6_Platform_SDK/output/mx6sdl/lib/libsdk.a(gpio.o)
                                                  /home/leon/git/swp-report/iMX6_Platform_SDK/output/mx6sdl/lib/libboard_smart_device_rev_a.a(board_usb.o)
                                                  /home/leon/git/swp-report/iMX6_Platform_SDK/output/mx6sdl/lib/libboard_smart_device_rev_a.a(board_pcie.o)
                                                  /home/leon/git/swp-report/iMX6_Platform_SDK/output/mx6sdl/lib/libboard_smart_device_rev_a.a(board_network.o)
                                                  /home/leon/git/swp-report/iMX6_Platform_SDK/output/mx6sdl/lib/libboard_smart_device_rev_a.a(board_mipi.o)
                                                  /home/leon/git/swp-report/iMX6_Platform_SDK/output/mx6sdl/lib/libboard_smart_device_rev_a.a(board_display.o)
                                                  /home/leon/git/swp-report/iMX6_Platform_SDK/output/mx6sdl/lib/libboard_smart_device_rev_a.a(board_camera.o)
                                                  /home/leon/git/swp-report/iMX6_Platform_SDK/output/mx6sdl/lib/libboard_smart_device_rev_a.a(board_audio.o)
                                                  /home/leon/git/swp-report/iMX6_Platform_SDK/output/mx6sdl/sdk_unit_test/smart_device_rev_a/libsdk_unit_test.a(accelerometer_test.o)
gpmi_iomux_config                                 /home/leon/git/swp-report/iMX6_Platform_SDK/output/mx6sdl/lib/libboard_smart_device_rev_a.a(iomux_config.o)
gps_iomux_config                                  /home/leon/git/swp-report/iMX6_Platform_SDK/output/mx6sdl/lib/libboard_smart_device_rev_a.a(gps_iomux_config.o)
                                                  /home/leon/git/swp-report/iMX6_Platform_SDK/output/mx6sdl/lib/libboard_smart_device_rev_a.a(iomux_config.o)
gpt_counter_disable                               /home/leon/git/swp-report/iMX6_Platform_SDK/output/mx6sdl/lib/libsdk.a(gpt.o)
                                                  /home/leon/git/swp-report/iMX6_Platform_SDK/output/mx6sdl/sdk_unit_test/smart_device_rev_a/libsdk_unit_test.a(gpt_test.o)
gpt_counter_enable                                /home/leon/git/swp-report/iMX6_Platform_SDK/output/mx6sdl/lib/libsdk.a(gpt.o)
                                                  /home/leon/git/swp-report/iMX6_Platform_SDK/output/mx6sdl/sdk_unit_test/smart_device_rev_a/libsdk_unit_test.a(gpt_test.o)
gpt_get_capture_event                             /home/leon/git/swp-report/iMX6_Platform_SDK/output/mx6sdl/lib/libsdk.a(gpt.o)
                                                  /home/leon/git/swp-report/iMX6_Platform_SDK/output/mx6sdl/sdk_unit_test/smart_device_rev_a/libsdk_unit_test.a(gpt_test.o)
gpt_get_compare_event                             /home/leon/git/swp-report/iMX6_Platform_SDK/output/mx6sdl/lib/libsdk.a(gpt.o)
                                                  /home/leon/git/swp-report/iMX6_Platform_SDK/output/mx6sdl/sdk_unit_test/smart_device_rev_a/libsdk_unit_test.a(gpt_test.o)
gpt_get_rollover_event                            /home/leon/git/swp-report/iMX6_Platform_SDK/output/mx6sdl/lib/libsdk.a(gpt.o)
                                                  /home/leon/git/swp-report/iMX6_Platform_SDK/output/mx6sdl/sdk_unit_test/smart_device_rev_a/libsdk_unit_test.a(gpt_test.o)
gpt_in_capture_test                               /home/leon/git/swp-report/iMX6_Platform_SDK/output/mx6sdl/sdk_unit_test/smart_device_rev_a/libsdk_unit_test.a(gpt_test.o)
gpt_init                                          /home/leon/git/swp-report/iMX6_Platform_SDK/output/mx6sdl/lib/libsdk.a(gpt.o)
                                                  /home/leon/git/swp-report/iMX6_Platform_SDK/output/mx6sdl/sdk_unit_test/smart_device_rev_a/libsdk_unit_test.a(gpt_test.o)
gpt_interrupt_routine                             /home/leon/git/swp-report/iMX6_Platform_SDK/output/mx6sdl/sdk_unit_test/smart_device_rev_a/libsdk_unit_test.a(gpt_test.o)
gpt_iomux_config                                  /home/leon/git/swp-report/iMX6_Platform_SDK/output/mx6sdl/lib/libboard_smart_device_rev_a.a(iomux_config.o)
gpt_out_compare_test                              /home/leon/git/swp-report/iMX6_Platform_SDK/output/mx6sdl/sdk_unit_test/smart_device_rev_a/libsdk_unit_test.a(gpt_test.o)
gpt_set_capture_event                             /home/leon/git/swp-report/iMX6_Platform_SDK/output/mx6sdl/lib/libsdk.a(gpt.o)
                                                  /home/leon/git/swp-report/iMX6_Platform_SDK/output/mx6sdl/sdk_unit_test/smart_device_rev_a/libsdk_unit_test.a(gpt_test.o)
gpt_set_compare_event                             /home/leon/git/swp-report/iMX6_Platform_SDK/output/mx6sdl/lib/libsdk.a(gpt.o)
                                                  /home/leon/git/swp-report/iMX6_Platform_SDK/output/mx6sdl/sdk_unit_test/smart_device_rev_a/libsdk_unit_test.a(gpt_test.o)
gpt_setup_interrupt                               /home/leon/git/swp-report/iMX6_Platform_SDK/output/mx6sdl/lib/libsdk.a(gpt.o)
                                                  /home/leon/git/swp-report/iMX6_Platform_SDK/output/mx6sdl/sdk_unit_test/smart_device_rev_a/libsdk_unit_test.a(gpt_test.o)
gpt_test                                          /home/leon/git/swp-report/iMX6_Platform_SDK/output/mx6sdl/sdk_unit_test/smart_device_rev_a/libsdk_unit_test.a(gpt_test.o)
                                                  /home/leon/git/swp-report/iMX6_Platform_SDK/output/mx6sdl/sdk_unit_test/smart_device_rev_a/obj/apps/sdk_unit_test/src/all_test.o
gpu_clock_config                                  /home/leon/git/swp-report/iMX6_Platform_SDK/output/mx6sdl/lib/libsdk.a(ccm_pll.o)
hal_delay_us                                      /home/leon/git/swp-report/iMX6_Platform_SDK/output/mx6sdl/lib/libsdk.a(timer.o)
                                                  /home/leon/git/swp-report/iMX6_Platform_SDK/output/mx6sdl/lib/libboard_smart_device_rev_a.a(board_pcie.o)
                                                  /home/leon/git/swp-report/iMX6_Platform_SDK/output/mx6sdl/lib/libboard_smart_device_rev_a.a(board_network.o)
                                                  /home/leon/git/swp-report/iMX6_Platform_SDK/output/mx6sdl/lib/libboard_smart_device_rev_a.a(board_mipi.o)
                                                  /home/leon/git/swp-report/iMX6_Platform_SDK/output/mx6sdl/lib/libboard_smart_device_rev_a.a(board_display.o)
                                                  /home/leon/git/swp-report/iMX6_Platform_SDK/output/mx6sdl/lib/libboard_smart_device_rev_a.a(board_camera.o)
                                                  /home/leon/git/swp-report/iMX6_Platform_SDK/output/mx6sdl/lib/libsdk.a(usdhc_sd.o)
                                                  /home/leon/git/swp-report/iMX6_Platform_SDK/output/mx6sdl/lib/libsdk.a(usdhc_mmc.o)
                                                  /home/leon/git/swp-report/iMX6_Platform_SDK/output/mx6sdl/lib/libsdk.a(usdhc_host.o)
                                                  /home/leon/git/swp-report/iMX6_Platform_SDK/output/mx6sdl/lib/libsdk.a(ecspi.o)
                                                  /home/leon/git/swp-report/iMX6_Platform_SDK/output/mx6sdl/lib/libsdk.a(pcie.o)
                                                  /home/leon/git/swp-report/iMX6_Platform_SDK/output/mx6sdl/lib/libsdk.a(keypad_port.o)
                                                  /home/leon/git/swp-report/iMX6_Platform_SDK/output/mx6sdl/lib/libsdk.a(ipu_common.o)
                                                  /home/leon/git/swp-report/iMX6_Platform_SDK/output/mx6sdl/lib/libsdk.a(hdmi_tx_phy.o)
                                                  /home/leon/git/swp-report/iMX6_Platform_SDK/output/mx6sdl/lib/libsdk.a(enet_drv.o)
                                                  /home/leon/git/swp-report/iMX6_Platform_SDK/output/mx6sdl/lib/libsdk.a(smd_sensor.o)
                                                  /home/leon/git/swp-report/iMX6_Platform_SDK/output/mx6sdl/sdk_unit_test/smart_device_rev_a/libsdk_unit_test.a(spi_nor_numonyx.o)
                                                  /home/leon/git/swp-report/iMX6_Platform_SDK/output/mx6sdl/sdk_unit_test/smart_device_rev_a/libsdk_unit_test.a(at24cxx.o)
                                                  /home/leon/git/swp-report/iMX6_Platform_SDK/output/mx6sdl/sdk_unit_test/smart_device_rev_a/libsdk_unit_test.a(accelerometer_test.o)
                                                  /home/leon/git/swp-report/iMX6_Platform_SDK/output/mx6sdl/sdk_unit_test/smart_device_rev_a/libsdk_unit_test.a(enet_test.o)
                                                  /home/leon/git/swp-report/iMX6_Platform_SDK/output/mx6sdl/sdk_unit_test/smart_device_rev_a/libsdk_unit_test.a(csi_test_mode.o)
                                                  /home/leon/git/swp-report/iMX6_Platform_SDK/output/mx6sdl/sdk_unit_test/smart_device_rev_a/libsdk_unit_test.a(keypad_test.o)
                                                  /home/leon/git/swp-report/iMX6_Platform_SDK/output/mx6sdl/sdk_unit_test/smart_device_rev_a/libsdk_unit_test.a(hdmi_test.o)
                                                  /home/leon/git/swp-report/iMX6_Platform_SDK/output/mx6sdl/sdk_unit_test/smart_device_rev_a/libsdk_unit_test.a(timer_test.o)
                                                  /home/leon/git/swp-report/iMX6_Platform_SDK/output/mx6sdl/sdk_unit_test/smart_device_rev_a/libsdk_unit_test.a(gpt_test.o)
                                                  /home/leon/git/swp-report/iMX6_Platform_SDK/output/mx6sdl/sdk_unit_test/smart_device_rev_a/libsdk_unit_test.a(epit_test.o)
                                                  /home/leon/git/swp-report/iMX6_Platform_SDK/output/mx6sdl/sdk_unit_test/smart_device_rev_a/libsdk_unit_test.a(cpu_wp_test.o)
hdmi_1080P60_video_output                         /home/leon/git/swp-report/iMX6_Platform_SDK/output/mx6sdl/sdk_unit_test/smart_device_rev_a/libsdk_unit_test.a(hdmi_test.o)
hdmi_720P60_video_output                          /home/leon/git/swp-report/iMX6_Platform_SDK/output/mx6sdl/sdk_unit_test/smart_device_rev_a/libsdk_unit_test.a(hdmi_test.o)
hdmi_audio_mute                                   /home/leon/git/swp-report/iMX6_Platform_SDK/output/mx6sdl/lib/libsdk.a(hdmi_tx_audio.o)
                                                  /home/leon/git/swp-report/iMX6_Platform_SDK/output/mx6sdl/sdk_unit_test/smart_device_rev_a/libsdk_unit_test.a(hdmi_test.o)
hdmi_av_frame_composer                            /home/leon/git/swp-report/iMX6_Platform_SDK/output/mx6sdl/lib/libsdk.a(hdmi_tx.o)
                                                  /home/leon/git/swp-report/iMX6_Platform_SDK/output/mx6sdl/sdk_unit_test/smart_device_rev_a/libsdk_unit_test.a(hdmi_test.o)
hdmi_clock_set                                    /home/leon/git/swp-report/iMX6_Platform_SDK/output/mx6sdl/lib/libboard_smart_device_rev_a.a(board_hdmi.o)
                                                  /home/leon/git/swp-report/iMX6_Platform_SDK/output/mx6sdl/lib/libsdk.a(ips_disp_panel.o)
hdmi_config_force_video                           /home/leon/git/swp-report/iMX6_Platform_SDK/output/mx6sdl/lib/libsdk.a(hdmi_tx.o)
hdmi_config_forced_pixels                         /home/leon/git/swp-report/iMX6_Platform_SDK/output/mx6sdl/lib/libsdk.a(hdmi_tx.o)
hdmi_config_input_source                          /home/leon/git/swp-report/iMX6_Platform_SDK/output/mx6sdl/lib/libsdk.a(hdmi_tx.o)
                                                  /home/leon/git/swp-report/iMX6_Platform_SDK/output/mx6sdl/sdk_unit_test/smart_device_rev_a/libsdk_unit_test.a(hdmi_test.o)
hdmi_iomux_config                                 /home/leon/git/swp-report/iMX6_Platform_SDK/output/mx6sdl/lib/libboard_smart_device_rev_a.a(iomux_config.o)
hdmi_pgm_iomux                                    /home/leon/git/swp-report/iMX6_Platform_SDK/output/mx6sdl/lib/libboard_smart_device_rev_a.a(board_hdmi.o)
                                                  /home/leon/git/swp-report/iMX6_Platform_SDK/output/mx6sdl/lib/libsdk.a(ips_disp_panel.o)
hdmi_phy_init                                     /home/leon/git/swp-report/iMX6_Platform_SDK/output/mx6sdl/lib/libsdk.a(hdmi_tx_phy.o)
                                                  /home/leon/git/swp-report/iMX6_Platform_SDK/output/mx6sdl/sdk_unit_test/smart_device_rev_a/libsdk_unit_test.a(hdmi_test.o)
hdmi_phy_int_mask                                 /home/leon/git/swp-report/iMX6_Platform_SDK/output/mx6sdl/lib/libsdk.a(hdmi_tx_phy.o)
hdmi_set_video_mode                               /home/leon/git/swp-report/iMX6_Platform_SDK/output/mx6sdl/lib/libsdk.a(hdmi_common.o)
                                                  /home/leon/git/swp-report/iMX6_Platform_SDK/output/mx6sdl/lib/libsdk.a(hdmi_tx.o)
hdmi_test                                         /home/leon/git/swp-report/iMX6_Platform_SDK/output/mx6sdl/sdk_unit_test/smart_device_rev_a/libsdk_unit_test.a(hdmi_test.o)
                                                  /home/leon/git/swp-report/iMX6_Platform_SDK/output/mx6sdl/sdk_unit_test/smart_device_rev_a/obj/apps/sdk_unit_test/src/all_test.o
hdmi_tx_ISR                                       /home/leon/git/swp-report/iMX6_Platform_SDK/output/mx6sdl/sdk_unit_test/smart_device_rev_a/libsdk_unit_test.a(hdmi_test.o)
hdmi_tx_cec_pgm_iomux                             /home/leon/git/swp-report/iMX6_Platform_SDK/output/mx6sdl/lib/libboard_smart_device_rev_a.a(board_hdmi.o)
hdmi_tx_ddc_pgm_iomux                             /home/leon/git/swp-report/iMX6_Platform_SDK/output/mx6sdl/lib/libboard_smart_device_rev_a.a(board_hdmi.o)
hdmi_tx_hdcp_config                               /home/leon/git/swp-report/iMX6_Platform_SDK/output/mx6sdl/lib/libsdk.a(hdmi_tx.o)
                                                  /home/leon/git/swp-report/iMX6_Platform_SDK/output/mx6sdl/sdk_unit_test/smart_device_rev_a/libsdk_unit_test.a(hdmi_test.o)
hdmi_tx_phydtb_pgm_iomux                          /home/leon/git/swp-report/iMX6_Platform_SDK/output/mx6sdl/lib/libboard_smart_device_rev_a.a(board_hdmi.o)
hdmi_video_csc                                    /home/leon/git/swp-report/iMX6_Platform_SDK/output/mx6sdl/lib/libsdk.a(hdmi_tx.o)
                                                  /home/leon/git/swp-report/iMX6_Platform_SDK/output/mx6sdl/sdk_unit_test/smart_device_rev_a/libsdk_unit_test.a(hdmi_test.o)
hdmi_video_packetize                              /home/leon/git/swp-report/iMX6_Platform_SDK/output/mx6sdl/lib/libsdk.a(hdmi_tx.o)
                                                  /home/leon/git/swp-report/iMX6_Platform_SDK/output/mx6sdl/sdk_unit_test/smart_device_rev_a/libsdk_unit_test.a(hdmi_test.o)
hdmi_video_sample                                 /home/leon/git/swp-report/iMX6_Platform_SDK/output/mx6sdl/lib/libsdk.a(hdmi_tx.o)
                                                  /home/leon/git/swp-report/iMX6_Platform_SDK/output/mx6sdl/sdk_unit_test/smart_device_rev_a/libsdk_unit_test.a(hdmi_test.o)
hid_device_enum                                   /home/leon/git/swp-report/iMX6_Platform_SDK/output/mx6sdl/sdk_unit_test/smart_device_rev_a/libsdk_unit_test.a(usb0_device_mouse_test.o)
host_cfg_block                                    /home/leon/git/swp-report/iMX6_Platform_SDK/output/mx6sdl/lib/libsdk.a(usdhc_host.o)
                                                  /home/leon/git/swp-report/iMX6_Platform_SDK/output/mx6sdl/lib/libsdk.a(usdhc_mmc.o)
                                                  /home/leon/git/swp-report/iMX6_Platform_SDK/output/mx6sdl/lib/libsdk.a(usdhc.o)
host_cfg_clock                                    /home/leon/git/swp-report/iMX6_Platform_SDK/output/mx6sdl/lib/libsdk.a(usdhc_host.o)
                                                  /home/leon/git/swp-report/iMX6_Platform_SDK/output/mx6sdl/lib/libsdk.a(usdhc_sd.o)
                                                  /home/leon/git/swp-report/iMX6_Platform_SDK/output/mx6sdl/lib/libsdk.a(usdhc_mmc.o)
                                                  /home/leon/git/swp-report/iMX6_Platform_SDK/output/mx6sdl/lib/libsdk.a(usdhc.o)
host_clear_fifo                                   /home/leon/git/swp-report/iMX6_Platform_SDK/output/mx6sdl/lib/libsdk.a(usdhc_host.o)
                                                  /home/leon/git/swp-report/iMX6_Platform_SDK/output/mx6sdl/lib/libsdk.a(usdhc.o)
host_data_read                                    /home/leon/git/swp-report/iMX6_Platform_SDK/output/mx6sdl/lib/libsdk.a(usdhc_host.o)
                                                  /home/leon/git/swp-report/iMX6_Platform_SDK/output/mx6sdl/lib/libsdk.a(usdhc_mmc.o)
                                                  /home/leon/git/swp-report/iMX6_Platform_SDK/output/mx6sdl/lib/libsdk.a(usdhc.o)
host_data_write                                   /home/leon/git/swp-report/iMX6_Platform_SDK/output/mx6sdl/lib/libsdk.a(usdhc_host.o)
                                                  /home/leon/git/swp-report/iMX6_Platform_SDK/output/mx6sdl/lib/libsdk.a(usdhc.o)
host_init                                         /home/leon/git/swp-report/iMX6_Platform_SDK/output/mx6sdl/lib/libsdk.a(usdhc_host.o)
                                                  /home/leon/git/swp-report/iMX6_Platform_SDK/output/mx6sdl/lib/libsdk.a(usdhc.o)
host_init_active                                  /home/leon/git/swp-report/iMX6_Platform_SDK/output/mx6sdl/lib/libsdk.a(usdhc_host.o)
                                                  /home/leon/git/swp-report/iMX6_Platform_SDK/output/mx6sdl/lib/libsdk.a(usdhc.o)
host_read_response                                /home/leon/git/swp-report/iMX6_Platform_SDK/output/mx6sdl/lib/libsdk.a(usdhc_host.o)
                                                  /home/leon/git/swp-report/iMX6_Platform_SDK/output/mx6sdl/lib/libsdk.a(usdhc_sd.o)
                                                  /home/leon/git/swp-report/iMX6_Platform_SDK/output/mx6sdl/lib/libsdk.a(usdhc_mmc.o)
                                                  /home/leon/git/swp-report/iMX6_Platform_SDK/output/mx6sdl/lib/libsdk.a(usdhc.o)
host_reset                                        /home/leon/git/swp-report/iMX6_Platform_SDK/output/mx6sdl/lib/libsdk.a(usdhc_host.o)
                                                  /home/leon/git/swp-report/iMX6_Platform_SDK/output/mx6sdl/lib/libsdk.a(usdhc.o)
host_send_cmd                                     /home/leon/git/swp-report/iMX6_Platform_SDK/output/mx6sdl/lib/libsdk.a(usdhc_host.o)
                                                  /home/leon/git/swp-report/iMX6_Platform_SDK/output/mx6sdl/lib/libsdk.a(usdhc_sd.o)
                                                  /home/leon/git/swp-report/iMX6_Platform_SDK/output/mx6sdl/lib/libsdk.a(usdhc_mmc.o)
                                                  /home/leon/git/swp-report/iMX6_Platform_SDK/output/mx6sdl/lib/libsdk.a(usdhc.o)
host_set_bus_width                                /home/leon/git/swp-report/iMX6_Platform_SDK/output/mx6sdl/lib/libsdk.a(usdhc_host.o)
                                                  /home/leon/git/swp-report/iMX6_Platform_SDK/output/mx6sdl/lib/libsdk.a(usdhc_sd.o)
                                                  /home/leon/git/swp-report/iMX6_Platform_SDK/output/mx6sdl/lib/libsdk.a(usdhc_mmc.o)
host_setup_adma                                   /home/leon/git/swp-report/iMX6_Platform_SDK/output/mx6sdl/lib/libsdk.a(usdhc_host.o)
                                                  /home/leon/git/swp-report/iMX6_Platform_SDK/output/mx6sdl/lib/libsdk.a(usdhc.o)
i2c1_iomux_config                                 /home/leon/git/swp-report/iMX6_Platform_SDK/output/mx6sdl/lib/libboard_smart_device_rev_a.a(i2c1_iomux_config.o)
                                                  /home/leon/git/swp-report/iMX6_Platform_SDK/output/mx6sdl/lib/libboard_smart_device_rev_a.a(i2c_iomux_config.o)
                                                  /home/leon/git/swp-report/iMX6_Platform_SDK/output/mx6sdl/lib/libboard_smart_device_rev_a.a(iomux_config.o)
i2c2_iomux_config                                 /home/leon/git/swp-report/iMX6_Platform_SDK/output/mx6sdl/lib/libboard_smart_device_rev_a.a(i2c2_iomux_config.o)
                                                  /home/leon/git/swp-report/iMX6_Platform_SDK/output/mx6sdl/lib/libboard_smart_device_rev_a.a(i2c_iomux_config.o)
                                                  /home/leon/git/swp-report/iMX6_Platform_SDK/output/mx6sdl/lib/libboard_smart_device_rev_a.a(iomux_config.o)
i2c3_iomux_config                                 /home/leon/git/swp-report/iMX6_Platform_SDK/output/mx6sdl/lib/libboard_smart_device_rev_a.a(i2c3_iomux_config.o)
                                                  /home/leon/git/swp-report/iMX6_Platform_SDK/output/mx6sdl/lib/libboard_smart_device_rev_a.a(i2c_iomux_config.o)
                                                  /home/leon/git/swp-report/iMX6_Platform_SDK/output/mx6sdl/lib/libboard_smart_device_rev_a.a(iomux_config.o)
i2c4_iomux_config                                 /home/leon/git/swp-report/iMX6_Platform_SDK/output/mx6sdl/lib/libboard_smart_device_rev_a.a(iomux_config.o)
                                                  /home/leon/git/swp-report/iMX6_Platform_SDK/output/mx6sdl/lib/libboard_smart_device_rev_a.a(i2c_iomux_config.o)
i2c_eeprom_at24cxx_test                           /home/leon/git/swp-report/iMX6_Platform_SDK/output/mx6sdl/sdk_unit_test/smart_device_rev_a/libsdk_unit_test.a(at24cxx.o)
                                                  /home/leon/git/swp-report/iMX6_Platform_SDK/output/mx6sdl/sdk_unit_test/smart_device_rev_a/libsdk_unit_test.a(i2c_test.o)
i2c_get_request_instance                          /home/leon/git/swp-report/iMX6_Platform_SDK/output/mx6sdl/lib/libsdk.a(imx_i2c.o)
                                                  /home/leon/git/swp-report/iMX6_Platform_SDK/output/mx6sdl/lib/libsdk.a(imx_i2c_slave.o)
i2c_imx6_slave_test                               /home/leon/git/swp-report/iMX6_Platform_SDK/output/mx6sdl/sdk_unit_test/smart_device_rev_a/libsdk_unit_test.a(imx6_i2c_device.o)
                                                  /home/leon/git/swp-report/iMX6_Platform_SDK/output/mx6sdl/sdk_unit_test/smart_device_rev_a/libsdk_unit_test.a(i2c_test.o)
i2c_init                                          /home/leon/git/swp-report/iMX6_Platform_SDK/output/mx6sdl/lib/libsdk.a(imx_i2c.o)
                                                  /home/leon/git/swp-report/iMX6_Platform_SDK/output/mx6sdl/lib/libsdk.a(smd_sensor.o)
                                                  /home/leon/git/swp-report/iMX6_Platform_SDK/output/mx6sdl/lib/libsdk.a(mma8451.o)
                                                  /home/leon/git/swp-report/iMX6_Platform_SDK/output/mx6sdl/sdk_unit_test/smart_device_rev_a/libsdk_unit_test.a(at24cxx.o)
                                                  /home/leon/git/swp-report/iMX6_Platform_SDK/output/mx6sdl/sdk_unit_test/smart_device_rev_a/libsdk_unit_test.a(imx6_i2c_device.o)
i2c_iomux_config                                  /home/leon/git/swp-report/iMX6_Platform_SDK/output/mx6sdl/lib/libboard_smart_device_rev_a.a(i2c_iomux_config.o)
                                                  /home/leon/git/swp-report/iMX6_Platform_SDK/output/mx6sdl/lib/libsdk.a(imx_i2c.o)
i2c_read                                          /home/leon/git/swp-report/iMX6_Platform_SDK/output/mx6sdl/lib/libsdk.a(imx_i2c.o)
                                                  /home/leon/git/swp-report/iMX6_Platform_SDK/output/mx6sdl/lib/libsdk.a(mma8451.o)
                                                  /home/leon/git/swp-report/iMX6_Platform_SDK/output/mx6sdl/sdk_unit_test/smart_device_rev_a/libsdk_unit_test.a(at24cxx.o)
i2c_setup_interrupt                               /home/leon/git/swp-report/iMX6_Platform_SDK/output/mx6sdl/lib/libsdk.a(imx_i2c.o)
                                                  /home/leon/git/swp-report/iMX6_Platform_SDK/output/mx6sdl/lib/libsdk.a(imx_i2c_slave.o)
i2c_slave_handler                                 /home/leon/git/swp-report/iMX6_Platform_SDK/output/mx6sdl/lib/libsdk.a(imx_i2c_slave.o)
i2c_slave_interrupt_routine                       /home/leon/git/swp-report/iMX6_Platform_SDK/output/mx6sdl/lib/libsdk.a(imx_i2c_slave.o)
i2c_slave_xfer                                    /home/leon/git/swp-report/iMX6_Platform_SDK/output/mx6sdl/lib/libsdk.a(imx_i2c_slave.o)
                                                  /home/leon/git/swp-report/iMX6_Platform_SDK/output/mx6sdl/sdk_unit_test/smart_device_rev_a/libsdk_unit_test.a(imx6_i2c_device.o)
i2c_test                                          /home/leon/git/swp-report/iMX6_Platform_SDK/output/mx6sdl/sdk_unit_test/smart_device_rev_a/libsdk_unit_test.a(i2c_test.o)
                                                  /home/leon/git/swp-report/iMX6_Platform_SDK/output/mx6sdl/sdk_unit_test/smart_device_rev_a/obj/apps/sdk_unit_test/src/all_test.o
i2c_write                                         /home/leon/git/swp-report/iMX6_Platform_SDK/output/mx6sdl/lib/libsdk.a(imx_i2c.o)
                                                  /home/leon/git/swp-report/iMX6_Platform_SDK/output/mx6sdl/lib/libsdk.a(mma8451.o)
                                                  /home/leon/git/swp-report/iMX6_Platform_SDK/output/mx6sdl/sdk_unit_test/smart_device_rev_a/libsdk_unit_test.a(at24cxx.o)
i2c_xfer                                          /home/leon/git/swp-report/iMX6_Platform_SDK/output/mx6sdl/lib/libsdk.a(imx_i2c.o)
                                                  /home/leon/git/swp-report/iMX6_Platform_SDK/output/mx6sdl/lib/libsdk.a(smd_sensor.o)
imx6_slave_receive                                /home/leon/git/swp-report/iMX6_Platform_SDK/output/mx6sdl/sdk_unit_test/smart_device_rev_a/libsdk_unit_test.a(imx6_i2c_device.o)
imx6_slave_transmit                               /home/leon/git/swp-report/iMX6_Platform_SDK/output/mx6sdl/sdk_unit_test/smart_device_rev_a/libsdk_unit_test.a(imx6_i2c_device.o)
imx_KSZ9021RN_reset                               /home/leon/git/swp-report/iMX6_Platform_SDK/output/mx6sdl/lib/libboard_smart_device_rev_a.a(board_network.o)
imx_ar8031_iomux                                  /home/leon/git/swp-report/iMX6_Platform_SDK/output/mx6sdl/lib/libboard_smart_device_rev_a.a(board_network.o)
imx_ar8031_reset                                  /home/leon/git/swp-report/iMX6_Platform_SDK/output/mx6sdl/lib/libboard_smart_device_rev_a.a(board_network.o)
imx_enet_get_phy_status                           /home/leon/git/swp-report/iMX6_Platform_SDK/output/mx6sdl/lib/libsdk.a(enet_drv.o)
imx_enet_init                                     /home/leon/git/swp-report/iMX6_Platform_SDK/output/mx6sdl/lib/libsdk.a(enet_drv.o)
                                                  /home/leon/git/swp-report/iMX6_Platform_SDK/output/mx6sdl/sdk_unit_test/smart_device_rev_a/libsdk_unit_test.a(enet_test.o)
imx_enet_iomux                                    /home/leon/git/swp-report/iMX6_Platform_SDK/output/mx6sdl/lib/libboard_smart_device_rev_a.a(board_network.o)
                                                  /home/leon/git/swp-report/iMX6_Platform_SDK/output/mx6sdl/sdk_unit_test/smart_device_rev_a/libsdk_unit_test.a(enet_test.o)
imx_enet_isolate_phy                              /home/leon/git/swp-report/iMX6_Platform_SDK/output/mx6sdl/lib/libsdk.a(enet_drv.o)
imx_enet_mii_read                                 /home/leon/git/swp-report/iMX6_Platform_SDK/output/mx6sdl/lib/libsdk.a(enet_drv.o)
imx_enet_mii_type                                 /home/leon/git/swp-report/iMX6_Platform_SDK/output/mx6sdl/lib/libsdk.a(enet_drv.o)
                                                  /home/leon/git/swp-report/iMX6_Platform_SDK/output/mx6sdl/sdk_unit_test/smart_device_rev_a/libsdk_unit_test.a(enet_test.o)
imx_enet_mii_write                                /home/leon/git/swp-report/iMX6_Platform_SDK/output/mx6sdl/lib/libsdk.a(enet_drv.o)
imx_enet_phy_enable_external_loopback             /home/leon/git/swp-report/iMX6_Platform_SDK/output/mx6sdl/lib/libsdk.a(enet_drv.o)
                                                  /home/leon/git/swp-report/iMX6_Platform_SDK/output/mx6sdl/sdk_unit_test/smart_device_rev_a/libsdk_unit_test.a(enet_test.o)
imx_enet_phy_init                                 /home/leon/git/swp-report/iMX6_Platform_SDK/output/mx6sdl/lib/libsdk.a(enet_drv.o)
                                                  /home/leon/git/swp-report/iMX6_Platform_SDK/output/mx6sdl/sdk_unit_test/smart_device_rev_a/libsdk_unit_test.a(enet_test.o)
imx_enet_phy_reset                                /home/leon/git/swp-report/iMX6_Platform_SDK/output/mx6sdl/lib/libboard_smart_device_rev_a.a(board_network.o)
                                                  /home/leon/git/swp-report/iMX6_Platform_SDK/output/mx6sdl/sdk_unit_test/smart_device_rev_a/libsdk_unit_test.a(enet_test.o)
imx_enet_poll                                     /home/leon/git/swp-report/iMX6_Platform_SDK/output/mx6sdl/lib/libsdk.a(enet_drv.o)
                                                  /home/leon/git/swp-report/iMX6_Platform_SDK/output/mx6sdl/sdk_unit_test/smart_device_rev_a/libsdk_unit_test.a(enet_test.o)
imx_enet_recv                                     /home/leon/git/swp-report/iMX6_Platform_SDK/output/mx6sdl/lib/libsdk.a(enet_drv.o)
                                                  /home/leon/git/swp-report/iMX6_Platform_SDK/output/mx6sdl/sdk_unit_test/smart_device_rev_a/libsdk_unit_test.a(enet_test.o)
imx_enet_send                                     /home/leon/git/swp-report/iMX6_Platform_SDK/output/mx6sdl/lib/libsdk.a(enet_drv.o)
                                                  /home/leon/git/swp-report/iMX6_Platform_SDK/output/mx6sdl/sdk_unit_test/smart_device_rev_a/libsdk_unit_test.a(enet_test.o)
imx_enet_start                                    /home/leon/git/swp-report/iMX6_Platform_SDK/output/mx6sdl/lib/libsdk.a(enet_drv.o)
                                                  /home/leon/git/swp-report/iMX6_Platform_SDK/output/mx6sdl/sdk_unit_test/smart_device_rev_a/libsdk_unit_test.a(enet_test.o)
imx_enet_stop                                     /home/leon/git/swp-report/iMX6_Platform_SDK/output/mx6sdl/lib/libsdk.a(enet_drv.o)
                                                  /home/leon/git/swp-report/iMX6_Platform_SDK/output/mx6sdl/sdk_unit_test/smart_device_rev_a/libsdk_unit_test.a(enet_test.o)
imx_enet_unisolate_phy                            /home/leon/git/swp-report/iMX6_Platform_SDK/output/mx6sdl/lib/libsdk.a(enet_drv.o)
init_dma_data                                     /home/leon/git/swp-report/iMX6_Platform_SDK/output/mx6sdl/sdk_unit_test/smart_device_rev_a/libsdk_unit_test.a(init_dma_data.o)
                                                  /home/leon/git/swp-report/iMX6_Platform_SDK/output/mx6sdl/sdk_unit_test/smart_device_rev_a/libsdk_unit_test.a(hdmi_test.o)
init_hdmi_interrupt                               /home/leon/git/swp-report/iMX6_Platform_SDK/output/mx6sdl/sdk_unit_test/smart_device_rev_a/libsdk_unit_test.a(hdmi_test.o)
input_dcd                                         /home/leon/git/swp-report/iMX6_Platform_SDK/output/mx6sdl/lib/libboard_smart_device_rev_a.a(dcd.o)
input_dcd_hdr                                     /home/leon/git/swp-report/iMX6_Platform_SDK/output/mx6sdl/lib/libboard_smart_device_rev_a.a(dcd.o)
                                                  /home/leon/git/swp-report/iMX6_Platform_SDK/output/mx6sdl/sdk_unit_test/smart_device_rev_a/obj/apps/common/ivt.o
input_dcd_wrt_cmd                                 /home/leon/git/swp-report/iMX6_Platform_SDK/output/mx6sdl/lib/libboard_smart_device_rev_a.a(dcd.o)
input_ivt                                         /home/leon/git/swp-report/iMX6_Platform_SDK/output/mx6sdl/sdk_unit_test/smart_device_rev_a/obj/apps/common/ivt.o
iomux_config                                      /home/leon/git/swp-report/iMX6_Platform_SDK/output/mx6sdl/lib/libboard_smart_device_rev_a.a(iomux_config.o)
ips_combiner_test                                 /home/leon/git/swp-report/iMX6_Platform_SDK/output/mx6sdl/sdk_unit_test/smart_device_rev_a/libsdk_unit_test.a(ips_combiner.o)
                                                  /home/leon/git/swp-report/iMX6_Platform_SDK/output/mx6sdl/sdk_unit_test/smart_device_rev_a/libsdk_unit_test.a(ips_test.o)
ips_csc_test                                      /home/leon/git/swp-report/iMX6_Platform_SDK/output/mx6sdl/sdk_unit_test/smart_device_rev_a/libsdk_unit_test.a(ips_csc.o)
                                                  /home/leon/git/swp-report/iMX6_Platform_SDK/output/mx6sdl/sdk_unit_test/smart_device_rev_a/libsdk_unit_test.a(ips_test.o)
ips_deinterlace_proc                              /home/leon/git/swp-report/iMX6_Platform_SDK/output/mx6sdl/lib/libsdk.a(ipu_vdi.o)
                                                  /home/leon/git/swp-report/iMX6_Platform_SDK/output/mx6sdl/lib/libsdk.a(ipu_common.o)
ips_display_test                                  /home/leon/git/swp-report/iMX6_Platform_SDK/output/mx6sdl/sdk_unit_test/smart_device_rev_a/libsdk_unit_test.a(ips_display.o)
                                                  /home/leon/git/swp-report/iMX6_Platform_SDK/output/mx6sdl/sdk_unit_test/smart_device_rev_a/libsdk_unit_test.a(ips_test.o)
ips_ext_hdmi_transmitter_1080P60_stream           /home/leon/git/swp-report/iMX6_Platform_SDK/output/mx6sdl/sdk_unit_test/smart_device_rev_a/libsdk_unit_test.a(ips_display.o)
ips_hannstar_xga_yuv_stream                       /home/leon/git/swp-report/iMX6_Platform_SDK/output/mx6sdl/sdk_unit_test/smart_device_rev_a/libsdk_unit_test.a(ips_display.o)
ips_hdmi_1080P60_stream                           /home/leon/git/swp-report/iMX6_Platform_SDK/output/mx6sdl/sdk_unit_test/smart_device_rev_a/libsdk_unit_test.a(ips_display.o)
                                                  /home/leon/git/swp-report/iMX6_Platform_SDK/output/mx6sdl/sdk_unit_test/smart_device_rev_a/libsdk_unit_test.a(hdmi_test.o)
ips_hdmi_720P60_stream                            /home/leon/git/swp-report/iMX6_Platform_SDK/output/mx6sdl/sdk_unit_test/smart_device_rev_a/libsdk_unit_test.a(ips_display.o)
                                                  /home/leon/git/swp-report/iMX6_Platform_SDK/output/mx6sdl/sdk_unit_test/smart_device_rev_a/libsdk_unit_test.a(hdmi_test.o)
ips_hdmi_stream                                   /home/leon/git/swp-report/iMX6_Platform_SDK/output/mx6sdl/sdk_unit_test/smart_device_rev_a/libsdk_unit_test.a(ips_display.o)
                                                  /home/leon/git/swp-report/iMX6_Platform_SDK/output/mx6sdl/sdk_unit_test/smart_device_rev_a/libsdk_unit_test.a(hdmi_test.o)
ips_mipi_wvga_rgb_stream                          /home/leon/git/swp-report/iMX6_Platform_SDK/output/mx6sdl/sdk_unit_test/smart_device_rev_a/libsdk_unit_test.a(ips_display.o)
ips_resize_test                                   /home/leon/git/swp-report/iMX6_Platform_SDK/output/mx6sdl/sdk_unit_test/smart_device_rev_a/libsdk_unit_test.a(ips_resize.o)
                                                  /home/leon/git/swp-report/iMX6_Platform_SDK/output/mx6sdl/sdk_unit_test/smart_device_rev_a/libsdk_unit_test.a(ips_test.o)
ips_rotate_test                                   /home/leon/git/swp-report/iMX6_Platform_SDK/output/mx6sdl/sdk_unit_test/smart_device_rev_a/libsdk_unit_test.a(ips_rotate.o)
                                                  /home/leon/git/swp-report/iMX6_Platform_SDK/output/mx6sdl/sdk_unit_test/smart_device_rev_a/libsdk_unit_test.a(ips_test.o)
ipu1_ch0_eobnd_isr                                /home/leon/git/swp-report/iMX6_Platform_SDK/output/mx6sdl/lib/libsdk.a(ipu_common.o)
ipu1_iomux_config                                 /home/leon/git/swp-report/iMX6_Platform_SDK/output/mx6sdl/lib/libboard_smart_device_rev_a.a(ipu1_iomux_config.o)
                                                  /home/leon/git/swp-report/iMX6_Platform_SDK/output/mx6sdl/lib/libboard_smart_device_rev_a.a(board_hdmi.o)
                                                  /home/leon/git/swp-report/iMX6_Platform_SDK/output/mx6sdl/lib/libsdk.a(ips_disp_panel.o)
                                                  /home/leon/git/swp-report/iMX6_Platform_SDK/output/mx6sdl/sdk_unit_test/smart_device_rev_a/libsdk_unit_test.a(sensor_capture.o)
                                                  /home/leon/git/swp-report/iMX6_Platform_SDK/output/mx6sdl/sdk_unit_test/smart_device_rev_a/libsdk_unit_test.a(csi_test_mode.o)
                                                  /home/leon/git/swp-report/iMX6_Platform_SDK/output/mx6sdl/sdk_unit_test/smart_device_rev_a/libsdk_unit_test.a(ips_test.o)
                                                  /home/leon/git/swp-report/iMX6_Platform_SDK/output/mx6sdl/lib/libboard_smart_device_rev_a.a(iomux_config.o)
ipu_capture_disp_link                             /home/leon/git/swp-report/iMX6_Platform_SDK/output/mx6sdl/lib/libsdk.a(ipu_csi.o)
                                                  /home/leon/git/swp-report/iMX6_Platform_SDK/output/mx6sdl/lib/libsdk.a(ipu_common.o)
ipu_capture_setup                                 /home/leon/git/swp-report/iMX6_Platform_SDK/output/mx6sdl/lib/libsdk.a(ipu_common.o)
                                                  /home/leon/git/swp-report/iMX6_Platform_SDK/output/mx6sdl/sdk_unit_test/smart_device_rev_a/libsdk_unit_test.a(sensor_capture.o)
                                                  /home/leon/git/swp-report/iMX6_Platform_SDK/output/mx6sdl/sdk_unit_test/smart_device_rev_a/libsdk_unit_test.a(csi_test_mode.o)
ipu_capture_streamoff                             /home/leon/git/swp-report/iMX6_Platform_SDK/output/mx6sdl/lib/libsdk.a(ipu_common.o)
                                                  /home/leon/git/swp-report/iMX6_Platform_SDK/output/mx6sdl/sdk_unit_test/smart_device_rev_a/libsdk_unit_test.a(sensor_capture.o)
                                                  /home/leon/git/swp-report/iMX6_Platform_SDK/output/mx6sdl/sdk_unit_test/smart_device_rev_a/libsdk_unit_test.a(csi_test_mode.o)
ipu_ch0_eobnd_interrupt_register                  /home/leon/git/swp-report/iMX6_Platform_SDK/output/mx6sdl/lib/libsdk.a(ipu_common.o)
ipu_channel_buf_not_ready                         /home/leon/git/swp-report/iMX6_Platform_SDK/output/mx6sdl/lib/libsdk.a(ipu_idmac.o)
ipu_channel_buf_ready                             /home/leon/git/swp-report/iMX6_Platform_SDK/output/mx6sdl/lib/libsdk.a(ipu_idmac.o)
                                                  /home/leon/git/swp-report/iMX6_Platform_SDK/output/mx6sdl/lib/libsdk.a(ipu_vdi.o)
                                                  /home/leon/git/swp-report/iMX6_Platform_SDK/output/mx6sdl/lib/libsdk.a(ipu_common.o)
                                                  /home/leon/git/swp-report/iMX6_Platform_SDK/output/mx6sdl/sdk_unit_test/smart_device_rev_a/libsdk_unit_test.a(ips_rotate.o)
                                                  /home/leon/git/swp-report/iMX6_Platform_SDK/output/mx6sdl/sdk_unit_test/smart_device_rev_a/libsdk_unit_test.a(ips_resize.o)
                                                  /home/leon/git/swp-report/iMX6_Platform_SDK/output/mx6sdl/sdk_unit_test/smart_device_rev_a/libsdk_unit_test.a(ips_csc.o)
ipu_cpmem_mod_field                               /home/leon/git/swp-report/iMX6_Platform_SDK/output/mx6sdl/lib/libsdk.a(ipu_idmac.o)
                                                  /home/leon/git/swp-report/iMX6_Platform_SDK/output/mx6sdl/sdk_unit_test/smart_device_rev_a/libsdk_unit_test.a(ips_display.o)
ipu_cpmem_read_field                              /home/leon/git/swp-report/iMX6_Platform_SDK/output/mx6sdl/lib/libsdk.a(ipu_idmac.o)
ipu_cpmem_set_field                               /home/leon/git/swp-report/iMX6_Platform_SDK/output/mx6sdl/lib/libsdk.a(ipu_idmac.o)
                                                  /home/leon/git/swp-report/iMX6_Platform_SDK/output/mx6sdl/lib/libsdk.a(ipu_common.o)
ipu_csi_config                                    /home/leon/git/swp-report/iMX6_Platform_SDK/output/mx6sdl/lib/libsdk.a(ipu_csi.o)
                                                  /home/leon/git/swp-report/iMX6_Platform_SDK/output/mx6sdl/lib/libsdk.a(ipu_common.o)
ipu_csi_test_mode_color                           /home/leon/git/swp-report/iMX6_Platform_SDK/output/mx6sdl/lib/libsdk.a(ipu_csi.o)
                                                  /home/leon/git/swp-report/iMX6_Platform_SDK/output/mx6sdl/sdk_unit_test/smart_device_rev_a/libsdk_unit_test.a(csi_test_mode.o)
ipu_dc_config                                     /home/leon/git/swp-report/iMX6_Platform_SDK/output/mx6sdl/lib/libsdk.a(ipu_dc.o)
                                                  /home/leon/git/swp-report/iMX6_Platform_SDK/output/mx6sdl/lib/libsdk.a(ipu_common.o)
ipu_dc_display_config                             /home/leon/git/swp-report/iMX6_Platform_SDK/output/mx6sdl/lib/libsdk.a(ipu_dc.o)
ipu_dc_map                                        /home/leon/git/swp-report/iMX6_Platform_SDK/output/mx6sdl/lib/libsdk.a(ipu_dc.o)
ipu_dc_microcode_config                           /home/leon/git/swp-report/iMX6_Platform_SDK/output/mx6sdl/lib/libsdk.a(ipu_dc.o)
ipu_dc_microcode_event                            /home/leon/git/swp-report/iMX6_Platform_SDK/output/mx6sdl/lib/libsdk.a(ipu_dc.o)
ipu_dc_write_channel_config                       /home/leon/git/swp-report/iMX6_Platform_SDK/output/mx6sdl/lib/libsdk.a(ipu_dc.o)
ipu_deinterlace_3_fields                          /home/leon/git/swp-report/iMX6_Platform_SDK/output/mx6sdl/lib/libsdk.a(ipu_vdi.o)
ipu_deinterlace_idmac_config                      /home/leon/git/swp-report/iMX6_Platform_SDK/output/mx6sdl/lib/libsdk.a(ipu_idmac.o)
                                                  /home/leon/git/swp-report/iMX6_Platform_SDK/output/mx6sdl/lib/libsdk.a(ipu_vdi.o)
ipu_di_bsclk_gen                                  /home/leon/git/swp-report/iMX6_Platform_SDK/output/mx6sdl/lib/libsdk.a(ipu_di.o)
ipu_di_config                                     /home/leon/git/swp-report/iMX6_Platform_SDK/output/mx6sdl/lib/libsdk.a(ipu_di.o)
                                                  /home/leon/git/swp-report/iMX6_Platform_SDK/output/mx6sdl/lib/libsdk.a(ipu_common.o)
ipu_di_interface_set                              /home/leon/git/swp-report/iMX6_Platform_SDK/output/mx6sdl/lib/libsdk.a(ipu_di.o)
ipu_di_pointer_config                             /home/leon/git/swp-report/iMX6_Platform_SDK/output/mx6sdl/lib/libsdk.a(ipu_di.o)
ipu_di_screen_set                                 /home/leon/git/swp-report/iMX6_Platform_SDK/output/mx6sdl/lib/libsdk.a(ipu_di.o)
ipu_di_sync_config                                /home/leon/git/swp-report/iMX6_Platform_SDK/output/mx6sdl/lib/libsdk.a(ipu_di.o)
ipu_di_waveform_config                            /home/leon/git/swp-report/iMX6_Platform_SDK/output/mx6sdl/lib/libsdk.a(ipu_di.o)
ipu_disable_csi                                   /home/leon/git/swp-report/iMX6_Platform_SDK/output/mx6sdl/lib/libsdk.a(ipu_csi.o)
                                                  /home/leon/git/swp-report/iMX6_Platform_SDK/output/mx6sdl/lib/libsdk.a(ipu_common.o)
ipu_disable_display                               /home/leon/git/swp-report/iMX6_Platform_SDK/output/mx6sdl/lib/libsdk.a(ipu_common.o)
ipu_disable_smfc                                  /home/leon/git/swp-report/iMX6_Platform_SDK/output/mx6sdl/lib/libsdk.a(ipu_csi.o)
                                                  /home/leon/git/swp-report/iMX6_Platform_SDK/output/mx6sdl/lib/libsdk.a(ipu_common.o)
ipu_disp_bg_idmac_config                          /home/leon/git/swp-report/iMX6_Platform_SDK/output/mx6sdl/lib/libsdk.a(ipu_idmac.o)
                                                  /home/leon/git/swp-report/iMX6_Platform_SDK/output/mx6sdl/lib/libsdk.a(ipu_common.o)
ipu_disp_fg_idmac_config                          /home/leon/git/swp-report/iMX6_Platform_SDK/output/mx6sdl/lib/libsdk.a(ipu_idmac.o)
                                                  /home/leon/git/swp-report/iMX6_Platform_SDK/output/mx6sdl/lib/libsdk.a(ipu_common.o)
ipu_display_setup                                 /home/leon/git/swp-report/iMX6_Platform_SDK/output/mx6sdl/lib/libsdk.a(ipu_common.o)
                                                  /home/leon/git/swp-report/iMX6_Platform_SDK/output/mx6sdl/sdk_unit_test/smart_device_rev_a/libsdk_unit_test.a(ips_rotate.o)
                                                  /home/leon/git/swp-report/iMX6_Platform_SDK/output/mx6sdl/sdk_unit_test/smart_device_rev_a/libsdk_unit_test.a(ips_resize.o)
                                                  /home/leon/git/swp-report/iMX6_Platform_SDK/output/mx6sdl/sdk_unit_test/smart_device_rev_a/libsdk_unit_test.a(ips_csc.o)
                                                  /home/leon/git/swp-report/iMX6_Platform_SDK/output/mx6sdl/sdk_unit_test/smart_device_rev_a/libsdk_unit_test.a(ips_display.o)
ipu_dma_update_buffer                             /home/leon/git/swp-report/iMX6_Platform_SDK/output/mx6sdl/lib/libsdk.a(ipu_idmac.o)
ipu_dmfc_alloc                                    /home/leon/git/swp-report/iMX6_Platform_SDK/output/mx6sdl/lib/libsdk.a(ipu_dmfc.o)
                                                  /home/leon/git/swp-report/iMX6_Platform_SDK/output/mx6sdl/sdk_unit_test/smart_device_rev_a/libsdk_unit_test.a(ips_display.o)
ipu_dmfc_config                                   /home/leon/git/swp-report/iMX6_Platform_SDK/output/mx6sdl/lib/libsdk.a(ipu_dmfc.o)
                                                  /home/leon/git/swp-report/iMX6_Platform_SDK/output/mx6sdl/lib/libsdk.a(ipu_common.o)
ipu_dp_config                                     /home/leon/git/swp-report/iMX6_Platform_SDK/output/mx6sdl/lib/libsdk.a(ipu_dp.o)
                                                  /home/leon/git/swp-report/iMX6_Platform_SDK/output/mx6sdl/lib/libsdk.a(ipu_common.o)
                                                  /home/leon/git/swp-report/iMX6_Platform_SDK/output/mx6sdl/sdk_unit_test/smart_device_rev_a/libsdk_unit_test.a(ips_combiner.o)
ipu_dp_csc_config                                 /home/leon/git/swp-report/iMX6_Platform_SDK/output/mx6sdl/lib/libsdk.a(ipu_dp.o)
ipu_dp_fg_config                                  /home/leon/git/swp-report/iMX6_Platform_SDK/output/mx6sdl/lib/libsdk.a(ipu_dp.o)
ipu_dual_display_setup                            /home/leon/git/swp-report/iMX6_Platform_SDK/output/mx6sdl/lib/libsdk.a(ipu_common.o)
                                                  /home/leon/git/swp-report/iMX6_Platform_SDK/output/mx6sdl/sdk_unit_test/smart_device_rev_a/libsdk_unit_test.a(ips_combiner.o)
ipu_enable_display                                /home/leon/git/swp-report/iMX6_Platform_SDK/output/mx6sdl/lib/libsdk.a(ipu_common.o)
                                                  /home/leon/git/swp-report/iMX6_Platform_SDK/output/mx6sdl/sdk_unit_test/smart_device_rev_a/libsdk_unit_test.a(ips_rotate.o)
                                                  /home/leon/git/swp-report/iMX6_Platform_SDK/output/mx6sdl/sdk_unit_test/smart_device_rev_a/libsdk_unit_test.a(ips_resize.o)
                                                  /home/leon/git/swp-report/iMX6_Platform_SDK/output/mx6sdl/sdk_unit_test/smart_device_rev_a/libsdk_unit_test.a(ips_csc.o)
                                                  /home/leon/git/swp-report/iMX6_Platform_SDK/output/mx6sdl/sdk_unit_test/smart_device_rev_a/libsdk_unit_test.a(ips_combiner.o)
                                                  /home/leon/git/swp-report/iMX6_Platform_SDK/output/mx6sdl/sdk_unit_test/smart_device_rev_a/libsdk_unit_test.a(sensor_capture.o)
                                                  /home/leon/git/swp-report/iMX6_Platform_SDK/output/mx6sdl/sdk_unit_test/smart_device_rev_a/libsdk_unit_test.a(csi_test_mode.o)
                                                  /home/leon/git/swp-report/iMX6_Platform_SDK/output/mx6sdl/sdk_unit_test/smart_device_rev_a/libsdk_unit_test.a(ips_display.o)
ipu_general_idmac_config                          /home/leon/git/swp-report/iMX6_Platform_SDK/output/mx6sdl/lib/libsdk.a(ipu_idmac.o)
                                                  /home/leon/git/swp-report/iMX6_Platform_SDK/output/mx6sdl/lib/libsdk.a(ipu_common.o)
ipu_hsp_clk_config                                /home/leon/git/swp-report/iMX6_Platform_SDK/output/mx6sdl/lib/libsdk.a(ccm_pll.o)
ipu_ic_calc_resize_coeffs                         /home/leon/git/swp-report/iMX6_Platform_SDK/output/mx6sdl/lib/libsdk.a(ipu_ic.o)
ipu_ic_combine_config                             /home/leon/git/swp-report/iMX6_Platform_SDK/output/mx6sdl/lib/libsdk.a(ipu_ic.o)
ipu_ic_config_resize_rate                         /home/leon/git/swp-report/iMX6_Platform_SDK/output/mx6sdl/lib/libsdk.a(ipu_ic.o)
ipu_ic_csc_config                                 /home/leon/git/swp-report/iMX6_Platform_SDK/output/mx6sdl/lib/libsdk.a(ipu_ic.o)
                                                  /home/leon/git/swp-report/iMX6_Platform_SDK/output/mx6sdl/sdk_unit_test/smart_device_rev_a/libsdk_unit_test.a(ips_csc.o)
ipu_ic_deinterlace_config                         /home/leon/git/swp-report/iMX6_Platform_SDK/output/mx6sdl/lib/libsdk.a(ipu_ic.o)
                                                  /home/leon/git/swp-report/iMX6_Platform_SDK/output/mx6sdl/lib/libsdk.a(ipu_vdi.o)
ipu_ic_enable                                     /home/leon/git/swp-report/iMX6_Platform_SDK/output/mx6sdl/lib/libsdk.a(ipu_ic.o)
                                                  /home/leon/git/swp-report/iMX6_Platform_SDK/output/mx6sdl/lib/libsdk.a(ipu_vdi.o)
                                                  /home/leon/git/swp-report/iMX6_Platform_SDK/output/mx6sdl/sdk_unit_test/smart_device_rev_a/libsdk_unit_test.a(ips_rotate.o)
                                                  /home/leon/git/swp-report/iMX6_Platform_SDK/output/mx6sdl/sdk_unit_test/smart_device_rev_a/libsdk_unit_test.a(ips_resize.o)
                                                  /home/leon/git/swp-report/iMX6_Platform_SDK/output/mx6sdl/sdk_unit_test/smart_device_rev_a/libsdk_unit_test.a(ips_csc.o)
ipu_ic_resize_config                              /home/leon/git/swp-report/iMX6_Platform_SDK/output/mx6sdl/lib/libsdk.a(ipu_ic.o)
                                                  /home/leon/git/swp-report/iMX6_Platform_SDK/output/mx6sdl/sdk_unit_test/smart_device_rev_a/libsdk_unit_test.a(ips_resize.o)
                                                  /home/leon/git/swp-report/iMX6_Platform_SDK/output/mx6sdl/sdk_unit_test/smart_device_rev_a/libsdk_unit_test.a(ips_csc.o)
ipu_ic_rotation_config                            /home/leon/git/swp-report/iMX6_Platform_SDK/output/mx6sdl/lib/libsdk.a(ipu_ic.o)
                                                  /home/leon/git/swp-report/iMX6_Platform_SDK/output/mx6sdl/sdk_unit_test/smart_device_rev_a/libsdk_unit_test.a(ips_rotate.o)
                                                  /home/leon/git/swp-report/iMX6_Platform_SDK/output/mx6sdl/sdk_unit_test/smart_device_rev_a/libsdk_unit_test.a(ips_resize.o)
ipu_ic_task_enable                                /home/leon/git/swp-report/iMX6_Platform_SDK/output/mx6sdl/lib/libsdk.a(ipu_ic.o)
                                                  /home/leon/git/swp-report/iMX6_Platform_SDK/output/mx6sdl/lib/libsdk.a(ipu_vdi.o)
                                                  /home/leon/git/swp-report/iMX6_Platform_SDK/output/mx6sdl/sdk_unit_test/smart_device_rev_a/libsdk_unit_test.a(ips_rotate.o)
                                                  /home/leon/git/swp-report/iMX6_Platform_SDK/output/mx6sdl/sdk_unit_test/smart_device_rev_a/libsdk_unit_test.a(ips_resize.o)
                                                  /home/leon/git/swp-report/iMX6_Platform_SDK/output/mx6sdl/sdk_unit_test/smart_device_rev_a/libsdk_unit_test.a(ips_csc.o)
ipu_idma_pixel_format_config                      /home/leon/git/swp-report/iMX6_Platform_SDK/output/mx6sdl/lib/libsdk.a(ipu_idmac.o)
ipu_idmac_chan_cur_buff                           /home/leon/git/swp-report/iMX6_Platform_SDK/output/mx6sdl/lib/libsdk.a(ipu_idmac.o)
ipu_idmac_channel_busy                            /home/leon/git/swp-report/iMX6_Platform_SDK/output/mx6sdl/lib/libsdk.a(ipu_idmac.o)
                                                  /home/leon/git/swp-report/iMX6_Platform_SDK/output/mx6sdl/lib/libsdk.a(ipu_vdi.o)
                                                  /home/leon/git/swp-report/iMX6_Platform_SDK/output/mx6sdl/sdk_unit_test/smart_device_rev_a/libsdk_unit_test.a(ips_rotate.o)
                                                  /home/leon/git/swp-report/iMX6_Platform_SDK/output/mx6sdl/sdk_unit_test/smart_device_rev_a/libsdk_unit_test.a(ips_resize.o)
                                                  /home/leon/git/swp-report/iMX6_Platform_SDK/output/mx6sdl/sdk_unit_test/smart_device_rev_a/libsdk_unit_test.a(ips_csc.o)
ipu_idmac_channel_enable                          /home/leon/git/swp-report/iMX6_Platform_SDK/output/mx6sdl/lib/libsdk.a(ipu_idmac.o)
                                                  /home/leon/git/swp-report/iMX6_Platform_SDK/output/mx6sdl/lib/libsdk.a(ipu_common.o)
                                                  /home/leon/git/swp-report/iMX6_Platform_SDK/output/mx6sdl/sdk_unit_test/smart_device_rev_a/libsdk_unit_test.a(ips_csc.o)
ipu_idmac_channel_mode_sel                        /home/leon/git/swp-report/iMX6_Platform_SDK/output/mx6sdl/lib/libsdk.a(ipu_idmac.o)
ipu_mipi_csi2_setup                               /home/leon/git/swp-report/iMX6_Platform_SDK/output/mx6sdl/lib/libsdk.a(ipu_common.o)
ipu_read                                          /home/leon/git/swp-report/iMX6_Platform_SDK/output/mx6sdl/lib/libsdk.a(ipu_common.o)
                                                  /home/leon/git/swp-report/iMX6_Platform_SDK/output/mx6sdl/lib/libsdk.a(ipu_vdi.o)
ipu_resize_idmac_config                           /home/leon/git/swp-report/iMX6_Platform_SDK/output/mx6sdl/lib/libsdk.a(ipu_idmac.o)
                                                  /home/leon/git/swp-report/iMX6_Platform_SDK/output/mx6sdl/sdk_unit_test/smart_device_rev_a/libsdk_unit_test.a(ips_resize.o)
                                                  /home/leon/git/swp-report/iMX6_Platform_SDK/output/mx6sdl/sdk_unit_test/smart_device_rev_a/libsdk_unit_test.a(ips_csc.o)
ipu_rotate_idmac_config                           /home/leon/git/swp-report/iMX6_Platform_SDK/output/mx6sdl/lib/libsdk.a(ipu_idmac.o)
                                                  /home/leon/git/swp-report/iMX6_Platform_SDK/output/mx6sdl/sdk_unit_test/smart_device_rev_a/libsdk_unit_test.a(ips_rotate.o)
                                                  /home/leon/git/swp-report/iMX6_Platform_SDK/output/mx6sdl/sdk_unit_test/smart_device_rev_a/libsdk_unit_test.a(ips_resize.o)
ipu_smfc_fifo_allocate                            /home/leon/git/swp-report/iMX6_Platform_SDK/output/mx6sdl/lib/libsdk.a(ipu_csi.o)
                                                  /home/leon/git/swp-report/iMX6_Platform_SDK/output/mx6sdl/lib/libsdk.a(ipu_common.o)
ipu_sw_reset                                      /home/leon/git/swp-report/iMX6_Platform_SDK/output/mx6sdl/lib/libsdk.a(ipu_common.o)
                                                  /home/leon/git/swp-report/iMX6_Platform_SDK/output/mx6sdl/sdk_unit_test/smart_device_rev_a/libsdk_unit_test.a(ips_resize.o)
                                                  /home/leon/git/swp-report/iMX6_Platform_SDK/output/mx6sdl/sdk_unit_test/smart_device_rev_a/libsdk_unit_test.a(ips_csc.o)
                                                  /home/leon/git/swp-report/iMX6_Platform_SDK/output/mx6sdl/sdk_unit_test/smart_device_rev_a/libsdk_unit_test.a(ips_combiner.o)
                                                  /home/leon/git/swp-report/iMX6_Platform_SDK/output/mx6sdl/sdk_unit_test/smart_device_rev_a/libsdk_unit_test.a(sensor_capture.o)
                                                  /home/leon/git/swp-report/iMX6_Platform_SDK/output/mx6sdl/sdk_unit_test/smart_device_rev_a/libsdk_unit_test.a(csi_test_mode.o)
                                                  /home/leon/git/swp-report/iMX6_Platform_SDK/output/mx6sdl/sdk_unit_test/smart_device_rev_a/libsdk_unit_test.a(ips_display.o)
ipu_test                                          /home/leon/git/swp-report/iMX6_Platform_SDK/output/mx6sdl/sdk_unit_test/smart_device_rev_a/libsdk_unit_test.a(ips_test.o)
                                                  /home/leon/git/swp-report/iMX6_Platform_SDK/output/mx6sdl/sdk_unit_test/smart_device_rev_a/obj/apps/sdk_unit_test/src/all_test.o
ipu_vdi_init                                      /home/leon/git/swp-report/iMX6_Platform_SDK/output/mx6sdl/lib/libsdk.a(ipu_vdi.o)
ipu_vdi_set_motion                                /home/leon/git/swp-report/iMX6_Platform_SDK/output/mx6sdl/lib/libsdk.a(ipu_vdi.o)
ipu_vdi_set_top_field_man                         /home/leon/git/swp-report/iMX6_Platform_SDK/output/mx6sdl/lib/libsdk.a(ipu_vdi.o)
ipu_vdi_uninit                                    /home/leon/git/swp-report/iMX6_Platform_SDK/output/mx6sdl/lib/libsdk.a(ipu_vdi.o)
ipu_write                                         /home/leon/git/swp-report/iMX6_Platform_SDK/output/mx6sdl/lib/libsdk.a(ipu_common.o)
                                                  /home/leon/git/swp-report/iMX6_Platform_SDK/output/mx6sdl/lib/libsdk.a(ipu_vdi.o)
ipu_write_field                                   /home/leon/git/swp-report/iMX6_Platform_SDK/output/mx6sdl/lib/libsdk.a(ipu_common.o)
                                                  /home/leon/git/swp-report/iMX6_Platform_SDK/output/mx6sdl/lib/libsdk.a(ipu_vdi.o)
                                                  /home/leon/git/swp-report/iMX6_Platform_SDK/output/mx6sdl/lib/libsdk.a(ipu_idmac.o)
                                                  /home/leon/git/swp-report/iMX6_Platform_SDK/output/mx6sdl/lib/libsdk.a(ipu_ic.o)
                                                  /home/leon/git/swp-report/iMX6_Platform_SDK/output/mx6sdl/lib/libsdk.a(ipu_dp.o)
                                                  /home/leon/git/swp-report/iMX6_Platform_SDK/output/mx6sdl/lib/libsdk.a(ipu_dmfc.o)
                                                  /home/leon/git/swp-report/iMX6_Platform_SDK/output/mx6sdl/lib/libsdk.a(ipu_di.o)
                                                  /home/leon/git/swp-report/iMX6_Platform_SDK/output/mx6sdl/lib/libsdk.a(ipu_dc.o)
                                                  /home/leon/git/swp-report/iMX6_Platform_SDK/output/mx6sdl/lib/libsdk.a(ipu_csi.o)
isColorSpaceConversion                            /home/leon/git/swp-report/iMX6_Platform_SDK/output/mx6sdl/lib/libsdk.a(hdmi_common.o)
                                                  /home/leon/git/swp-report/iMX6_Platform_SDK/output/mx6sdl/lib/libsdk.a(hdmi_tx.o)
isColorSpaceDecimation                            /home/leon/git/swp-report/iMX6_Platform_SDK/output/mx6sdl/lib/libsdk.a(hdmi_common.o)
                                                  /home/leon/git/swp-report/iMX6_Platform_SDK/output/mx6sdl/lib/libsdk.a(hdmi_tx.o)
isColorSpaceInterpolation                         /home/leon/git/swp-report/iMX6_Platform_SDK/output/mx6sdl/lib/libsdk.a(hdmi_common.o)
                                                  /home/leon/git/swp-report/iMX6_Platform_SDK/output/mx6sdl/lib/libsdk.a(hdmi_tx.o)
isPixelRepetition                                 /home/leon/git/swp-report/iMX6_Platform_SDK/output/mx6sdl/lib/libsdk.a(hdmi_common.o)
isTestDone                                        /home/leon/git/swp-report/iMX6_Platform_SDK/output/mx6sdl/sdk_unit_test/smart_device_rev_a/libsdk_unit_test.a(multicore_test.o)
is_color_supported                                /home/leon/git/swp-report/iMX6_Platform_SDK/output/mx6sdl/lib/libsdk.a(text_color.o)
is_input_char                                     /home/leon/git/swp-report/iMX6_Platform_SDK/output/mx6sdl/lib/libsdk.a(system_util.o)
                                                  /home/leon/git/swp-report/iMX6_Platform_SDK/output/mx6sdl/sdk_unit_test/smart_device_rev_a/libsdk_unit_test.a(enet_test.o)
                                                  /home/leon/git/swp-report/iMX6_Platform_SDK/output/mx6sdl/sdk_unit_test/smart_device_rev_a/libsdk_unit_test.a(sensor_capture.o)
jump_to_sdp                                       /home/leon/git/swp-report/iMX6_Platform_SDK/output/mx6sdl/lib/libsdk.a(system_util.o)
k_gpio_mux_registers                              /home/leon/git/swp-report/iMX6_Platform_SDK/output/mx6sdl/lib/libsdk.a(imx6sdl_gpio_map.o)
                                                  /home/leon/git/swp-report/iMX6_Platform_SDK/output/mx6sdl/lib/libsdk.a(gpio.o)
k_mainMenu                                        /home/leon/git/swp-report/iMX6_Platform_SDK/output/mx6sdl/sdk_unit_test/smart_device_rev_a/obj/apps/sdk_unit_test/src/all_test.o
k_menuItems                                       /home/leon/git/swp-report/iMX6_Platform_SDK/output/mx6sdl/sdk_unit_test/smart_device_rev_a/obj/apps/sdk_unit_test/src/all_test.o
k_sdk_copyright                                   /home/leon/git/swp-report/iMX6_Platform_SDK/output/mx6sdl/lib/libsdk.a(sdk_version.o)
                                                  /home/leon/git/swp-report/iMX6_Platform_SDK/output/mx6sdl/sdk_unit_test/smart_device_rev_a/obj/apps/common/print_version.o
k_sdk_version                                     /home/leon/git/swp-report/iMX6_Platform_SDK/output/mx6sdl/lib/libsdk.a(sdk_version.o)
                                                  /home/leon/git/swp-report/iMX6_Platform_SDK/output/mx6sdl/sdk_unit_test/smart_device_rev_a/obj/apps/common/print_version.o
keypad_test                                       /home/leon/git/swp-report/iMX6_Platform_SDK/output/mx6sdl/sdk_unit_test/smart_device_rev_a/libsdk_unit_test.a(keypad_test.o)
                                                  /home/leon/git/swp-report/iMX6_Platform_SDK/output/mx6sdl/sdk_unit_test/smart_device_rev_a/obj/apps/sdk_unit_test/src/all_test.o
kpp_close                                         /home/leon/git/swp-report/iMX6_Platform_SDK/output/mx6sdl/lib/libsdk.a(keypad_port.o)
                                                  /home/leon/git/swp-report/iMX6_Platform_SDK/output/mx6sdl/sdk_unit_test/smart_device_rev_a/libsdk_unit_test.a(keypad_test.o)
kpp_get_keypad_state                              /home/leon/git/swp-report/iMX6_Platform_SDK/output/mx6sdl/lib/libsdk.a(keypad_port.o)
                                                  /home/leon/git/swp-report/iMX6_Platform_SDK/output/mx6sdl/sdk_unit_test/smart_device_rev_a/libsdk_unit_test.a(keypad_test.o)
kpp_interrupt_routine                             /home/leon/git/swp-report/iMX6_Platform_SDK/output/mx6sdl/lib/libsdk.a(keypad_port.o)
kpp_iomux_config                                  /home/leon/git/swp-report/iMX6_Platform_SDK/output/mx6sdl/lib/libboard_smart_device_rev_a.a(kpp_iomux_config.o)
                                                  /home/leon/git/swp-report/iMX6_Platform_SDK/output/mx6sdl/lib/libsdk.a(keypad_port.o)
                                                  /home/leon/git/swp-report/iMX6_Platform_SDK/output/mx6sdl/lib/libboard_smart_device_rev_a.a(iomux_config.o)
kpp_open                                          /home/leon/git/swp-report/iMX6_Platform_SDK/output/mx6sdl/lib/libsdk.a(keypad_port.o)
                                                  /home/leon/git/swp-report/iMX6_Platform_SDK/output/mx6sdl/sdk_unit_test/smart_device_rev_a/libsdk_unit_test.a(keypad_test.o)
kpp_scan_matrix                                   /home/leon/git/swp-report/iMX6_Platform_SDK/output/mx6sdl/lib/libsdk.a(keypad_port.o)
kpp_setup_interrupt                               /home/leon/git/swp-report/iMX6_Platform_SDK/output/mx6sdl/lib/libsdk.a(keypad_port.o)
kpp_wait_for_release_state                        /home/leon/git/swp-report/iMX6_Platform_SDK/output/mx6sdl/lib/libsdk.a(keypad_port.o)
                                                  /home/leon/git/swp-report/iMX6_Platform_SDK/output/mx6sdl/sdk_unit_test/smart_device_rev_a/libsdk_unit_test.a(keypad_test.o)
lcd_iomux_config                                  /home/leon/git/swp-report/iMX6_Platform_SDK/output/mx6sdl/lib/libboard_smart_device_rev_a.a(iomux_config.o)
ldb_clock_config                                  /home/leon/git/swp-report/iMX6_Platform_SDK/output/mx6sdl/lib/libboard_smart_device_rev_a.a(board_display.o)
                                                  /home/leon/git/swp-report/iMX6_Platform_SDK/output/mx6sdl/lib/libsdk.a(ips_disp_panel.o)
ldb_config                                        /home/leon/git/swp-report/iMX6_Platform_SDK/output/mx6sdl/lib/libsdk.a(ldb.o)
                                                  /home/leon/git/swp-report/iMX6_Platform_SDK/output/mx6sdl/lib/libsdk.a(ips_disp_panel.o)
ldb_iomux_config                                  /home/leon/git/swp-report/iMX6_Platform_SDK/output/mx6sdl/lib/libboard_smart_device_rev_a.a(iomux_config.o)
                                                  /home/leon/git/swp-report/iMX6_Platform_SDK/output/mx6sdl/lib/libsdk.a(ips_disp_panel.o)
ldb_set_vs_polarity                               /home/leon/git/swp-report/iMX6_Platform_SDK/output/mx6sdl/lib/libsdk.a(ldb.o)
list_panel                                        /home/leon/git/swp-report/iMX6_Platform_SDK/output/mx6sdl/lib/libsdk.a(ips_disp_panel.o)
load_centralized_image                            /home/leon/git/swp-report/iMX6_Platform_SDK/output/mx6sdl/sdk_unit_test/smart_device_rev_a/libsdk_unit_test.a(ipu_image.o)
                                                  /home/leon/git/swp-report/iMX6_Platform_SDK/output/mx6sdl/sdk_unit_test/smart_device_rev_a/libsdk_unit_test.a(ips_rotate.o)
                                                  /home/leon/git/swp-report/iMX6_Platform_SDK/output/mx6sdl/sdk_unit_test/smart_device_rev_a/libsdk_unit_test.a(ips_combiner.o)
                                                  /home/leon/git/swp-report/iMX6_Platform_SDK/output/mx6sdl/sdk_unit_test/smart_device_rev_a/libsdk_unit_test.a(ips_display.o)
load_foreground_image                             /home/leon/git/swp-report/iMX6_Platform_SDK/output/mx6sdl/sdk_unit_test/smart_device_rev_a/libsdk_unit_test.a(ipu_image.o)
                                                  /home/leon/git/swp-report/iMX6_Platform_SDK/output/mx6sdl/sdk_unit_test/smart_device_rev_a/libsdk_unit_test.a(ips_combiner.o)
load_horiz_image                                  /home/leon/git/swp-report/iMX6_Platform_SDK/output/mx6sdl/sdk_unit_test/smart_device_rev_a/libsdk_unit_test.a(ipu_image.o)
                                                  /home/leon/git/swp-report/iMX6_Platform_SDK/output/mx6sdl/sdk_unit_test/smart_device_rev_a/libsdk_unit_test.a(ips_csc.o)
load_vert_image                                   /home/leon/git/swp-report/iMX6_Platform_SDK/output/mx6sdl/sdk_unit_test/smart_device_rev_a/libsdk_unit_test.a(ipu_image.o)
localeconv                                        /home/leon/riotboard/arm-2012.09/bin/../arm-none-eabi/lib//libc.a(lib_a-locale.o)
lvds_power_on                                     /home/leon/git/swp-report/iMX6_Platform_SDK/output/mx6sdl/lib/libboard_smart_device_rev_a.a(board_display.o)
                                                  /home/leon/git/swp-report/iMX6_Platform_SDK/output/mx6sdl/lib/libsdk.a(ips_disp_panel.o)
main                                              /home/leon/git/swp-report/iMX6_Platform_SDK/output/mx6sdl/sdk_unit_test/smart_device_rev_a/obj/apps/sdk_unit_test/src/unit_test_main.o
                                                  /home/leon/git/swp-report/iMX6_Platform_SDK/output/mx6sdl/lib/libsdk.a(startup.o)
malloc                                            /home/leon/riotboard/arm-2012.09/bin/../arm-none-eabi/lib//libc.a(lib_a-malloc.o)
                                                  /home/leon/riotboard/arm-2012.09/bin/../arm-none-eabi/lib//libstdc++.a(eh_alloc.o)
                                                  /home/leon/git/swp-report/iMX6_Platform_SDK/output/mx6sdl/lib/libsdk.a(usbh_drv.o)
                                                  /home/leon/git/swp-report/iMX6_Platform_SDK/output/mx6sdl/lib/libsdk.a(usbd_drv.o)
                                                  /home/leon/git/swp-report/iMX6_Platform_SDK/output/mx6sdl/sdk_unit_test/smart_device_rev_a/libsdk_unit_test.a(usb0_host_test.o)
                                                  /home/leon/git/swp-report/iMX6_Platform_SDK/output/mx6sdl/sdk_unit_test/smart_device_rev_a/libsdk_unit_test.a(usb0_device_mouse_test.o)
                                                  /home/leon/git/swp-report/iMX6_Platform_SDK/output/mx6sdl/sdk_unit_test/smart_device_rev_a/libsdk_unit_test.a(audio_test.o)
                                                  /home/leon/git/swp-report/iMX6_Platform_SDK/output/mx6sdl/lib/libsdk.a(system_util.o)
max7310_i2c_req_array                             /home/leon/git/swp-report/iMX6_Platform_SDK/output/mx6sdl/lib/libboard_smart_device_rev_a.a(board_io_expanders.o)
mem_2_mem_test                                    /home/leon/git/swp-report/iMX6_Platform_SDK/output/mx6sdl/sdk_unit_test/smart_device_rev_a/libsdk_unit_test.a(mem_2_mem.o)
                                                  /home/leon/git/swp-report/iMX6_Platform_SDK/output/mx6sdl/sdk_unit_test/smart_device_rev_a/libsdk_unit_test.a(sdma_test.o)
memchr                                            /home/leon/riotboard/arm-2012.09/bin/../arm-none-eabi/lib//libc.a(lib_a-memchr.o)
                                                  /home/leon/riotboard/arm-2012.09/bin/../arm-none-eabi/lib//libc.a(lib_a-svfiprintf.o)
                                                  /home/leon/riotboard/arm-2012.09/bin/../arm-none-eabi/lib//libc.a(lib_a-vfprintf.o)
                                                  /home/leon/riotboard/arm-2012.09/bin/../arm-none-eabi/lib//libc.a(lib_a-vfiprintf.o)
                                                  /home/leon/riotboard/arm-2012.09/bin/../arm-none-eabi/lib//libc.a(lib_a-svfprintf.o)
                                                  /home/leon/riotboard/arm-2012.09/bin/../arm-none-eabi/lib//libc.a(lib_a-fvwrite.o)
memcmp                                            /home/leon/riotboard/arm-2012.09/bin/../arm-none-eabi/lib//libc.a(lib_a-memcmp.o)
                                                  /home/leon/riotboard/arm-2012.09/bin/../arm-none-eabi/lib//libstdc++.a(cp-demangle.o)
memcpy                                            /home/leon/riotboard/arm-2012.09/bin/../arm-none-eabi/lib//libc.a(lib_a-memcpy.o)
                                                  /home/leon/riotboard/arm-2012.09/bin/../lib/gcc/arm-none-eabi/4.7.2//libgcc.a(unwind-arm.o)
                                                  /home/leon/riotboard/arm-2012.09/bin/../arm-none-eabi/lib//libstdc++.a(cp-demangle.o)
                                                  /home/leon/git/swp-report/iMX6_Platform_SDK/output/mx6sdl/lib/libsdk.a(usbd_drv.o)
                                                  /home/leon/git/swp-report/iMX6_Platform_SDK/output/mx6sdl/lib/libsdk.a(keypad_port.o)
                                                  /home/leon/git/swp-report/iMX6_Platform_SDK/output/mx6sdl/lib/libsdk.a(ipu_common.o)
                                                  /home/leon/git/swp-report/iMX6_Platform_SDK/output/mx6sdl/lib/libsdk.a(enet_drv.o)
                                                  /home/leon/riotboard/arm-2012.09/bin/../arm-none-eabi/lib//libc.a(lib_a-svfiprintf.o)
                                                  /home/leon/riotboard/arm-2012.09/bin/../arm-none-eabi/lib//libc.a(lib_a-mprec.o)
                                                  /home/leon/riotboard/arm-2012.09/bin/../arm-none-eabi/lib//libc.a(lib_a-dtoa.o)
                                                  /home/leon/riotboard/arm-2012.09/bin/../arm-none-eabi/lib//libc.a(lib_a-fvwrite.o)
                                                  /home/leon/git/swp-report/iMX6_Platform_SDK/output/mx6sdl/sdk_unit_test/smart_device_rev_a/libsdk_unit_test.a(usb0_device_mouse_test.o)
                                                  /home/leon/git/swp-report/iMX6_Platform_SDK/output/mx6sdl/sdk_unit_test/smart_device_rev_a/libsdk_unit_test.a(ips_rotate.o)
                                                  /home/leon/git/swp-report/iMX6_Platform_SDK/output/mx6sdl/sdk_unit_test/smart_device_rev_a/libsdk_unit_test.a(ips_resize.o)
                                                  /home/leon/git/swp-report/iMX6_Platform_SDK/output/mx6sdl/sdk_unit_test/smart_device_rev_a/libsdk_unit_test.a(ips_csc.o)
                                                  /home/leon/git/swp-report/iMX6_Platform_SDK/output/mx6sdl/sdk_unit_test/smart_device_rev_a/libsdk_unit_test.a(pwm_output.o)
                                                  /home/leon/git/swp-report/iMX6_Platform_SDK/output/mx6sdl/sdk_unit_test/smart_device_rev_a/libsdk_unit_test.a(enet_test.o)
                                                  /home/leon/git/swp-report/iMX6_Platform_SDK/output/mx6sdl/sdk_unit_test/smart_device_rev_a/libsdk_unit_test.a(ipu_image.o)
                                                  /home/leon/git/swp-report/iMX6_Platform_SDK/output/mx6sdl/lib/libsdk.a(menu.o)
memcpy_perf_record                                /home/leon/git/swp-report/iMX6_Platform_SDK/output/mx6sdl/sdk_unit_test/smart_device_rev_a/libsdk_unit_test.a(cpu_wp_test.o)
memmove                                           /home/leon/riotboard/arm-2012.09/bin/../arm-none-eabi/lib//libc.a(lib_a-memmove.o)
                                                  /home/leon/riotboard/arm-2012.09/bin/../arm-none-eabi/lib//libc.a(lib_a-svfiprintf.o)
                                                  /home/leon/riotboard/arm-2012.09/bin/../arm-none-eabi/lib//libc.a(lib_a-reallocr.o)
                                                  /home/leon/riotboard/arm-2012.09/bin/../arm-none-eabi/lib//libc.a(lib_a-fvwrite.o)
memset                                            /home/leon/riotboard/arm-2012.09/bin/../arm-none-eabi/lib//libc.a(lib_a-memset.o)
                                                  /home/leon/riotboard/arm-2012.09/bin/../arm-none-eabi/lib//libstdc++.a(eh_alloc.o)
                                                  /home/leon/git/swp-report/iMX6_Platform_SDK/output/mx6sdl/lib/libsdk.a(pmu_driver.o)
                                                  /home/leon/git/swp-report/iMX6_Platform_SDK/output/mx6sdl/lib/libsdk.a(keypad_port.o)
                                                  /home/leon/git/swp-report/iMX6_Platform_SDK/output/mx6sdl/lib/libsdk.a(ipu_vdi.o)
                                                  /home/leon/git/swp-report/iMX6_Platform_SDK/output/mx6sdl/lib/libsdk.a(ipu_idmac.o)
                                                  /home/leon/git/swp-report/iMX6_Platform_SDK/output/mx6sdl/lib/libsdk.a(ipu_di.o)
                                                  /home/leon/git/swp-report/iMX6_Platform_SDK/output/mx6sdl/lib/libsdk.a(ipu_common.o)
                                                  /home/leon/git/swp-report/iMX6_Platform_SDK/output/mx6sdl/lib/libsdk.a(mma8451.o)
                                                  /home/leon/riotboard/arm-2012.09/bin/../arm-none-eabi/lib//libc.a(lib_a-callocr.o)
                                                  /home/leon/riotboard/arm-2012.09/bin/../arm-none-eabi/lib//libc.a(lib_a-findfp.o)
                                                  /home/leon/git/swp-report/iMX6_Platform_SDK/output/mx6sdl/sdk_unit_test/smart_device_rev_a/libsdk_unit_test.a(spi_nor_numonyx.o)
                                                  /home/leon/git/swp-report/iMX6_Platform_SDK/output/mx6sdl/sdk_unit_test/smart_device_rev_a/libsdk_unit_test.a(ips_rotate.o)
                                                  /home/leon/git/swp-report/iMX6_Platform_SDK/output/mx6sdl/sdk_unit_test/smart_device_rev_a/libsdk_unit_test.a(ips_resize.o)
                                                  /home/leon/git/swp-report/iMX6_Platform_SDK/output/mx6sdl/sdk_unit_test/smart_device_rev_a/libsdk_unit_test.a(ips_csc.o)
                                                  /home/leon/git/swp-report/iMX6_Platform_SDK/output/mx6sdl/sdk_unit_test/smart_device_rev_a/libsdk_unit_test.a(mem_2_mem.o)
                                                  /home/leon/git/swp-report/iMX6_Platform_SDK/output/mx6sdl/sdk_unit_test/smart_device_rev_a/libsdk_unit_test.a(accelerometer_test.o)
                                                  /home/leon/git/swp-report/iMX6_Platform_SDK/output/mx6sdl/sdk_unit_test/smart_device_rev_a/libsdk_unit_test.a(spi_test.o)
                                                  /home/leon/git/swp-report/iMX6_Platform_SDK/output/mx6sdl/sdk_unit_test/smart_device_rev_a/libsdk_unit_test.a(enet_test.o)
                                                  /home/leon/git/swp-report/iMX6_Platform_SDK/output/mx6sdl/sdk_unit_test/smart_device_rev_a/libsdk_unit_test.a(ipu_image.o)
                                                  /home/leon/git/swp-report/iMX6_Platform_SDK/output/mx6sdl/sdk_unit_test/smart_device_rev_a/libsdk_unit_test.a(ips_display.o)
                                                  /home/leon/git/swp-report/iMX6_Platform_SDK/output/mx6sdl/sdk_unit_test/smart_device_rev_a/libsdk_unit_test.a(hdmi_test.o)
                                                  /home/leon/git/swp-report/iMX6_Platform_SDK/output/mx6sdl/sdk_unit_test/smart_device_rev_a/libsdk_unit_test.a(usdhc_test.o)
                                                  /home/leon/git/swp-report/iMX6_Platform_SDK/output/mx6sdl/sdk_unit_test/smart_device_rev_a/libsdk_unit_test.a(uart_loopback.o)
                                                  /home/leon/git/swp-report/iMX6_Platform_SDK/output/mx6sdl/sdk_unit_test/smart_device_rev_a/libsdk_unit_test.a(spi_lpb.o)
                                                  /home/leon/git/swp-report/iMX6_Platform_SDK/output/mx6sdl/sdk_unit_test/smart_device_rev_a/libsdk_unit_test.a(imx6_i2c_device.o)
                                                  /home/leon/git/swp-report/iMX6_Platform_SDK/output/mx6sdl/lib/libsdk.a(board_id.o)
                                                  /home/leon/git/swp-report/iMX6_Platform_SDK/output/mx6sdl/lib/libsdk.a(menu.o)
                                                  /home/leon/git/swp-report/iMX6_Platform_SDK/output/mx6sdl/sdk_unit_test/smart_device_rev_a/obj/apps/common/print_version.o
menu_append_menuitems                             /home/leon/git/swp-report/iMX6_Platform_SDK/output/mx6sdl/lib/libsdk.a(menu.o)
menu_get_indent                                   /home/leon/git/swp-report/iMX6_Platform_SDK/output/mx6sdl/lib/libsdk.a(menu.o)
                                                  /home/leon/git/swp-report/iMX6_Platform_SDK/output/mx6sdl/lib/libsdk.a(usdhc.o)
                                                  /home/leon/git/swp-report/iMX6_Platform_SDK/output/mx6sdl/sdk_unit_test/smart_device_rev_a/libsdk_unit_test.a(usdhc_test.o)
                                                  /home/leon/git/swp-report/iMX6_Platform_SDK/output/mx6sdl/sdk_unit_test/smart_device_rev_a/libsdk_unit_test.a(uart_test.o)
menu_present                                      /home/leon/git/swp-report/iMX6_Platform_SDK/output/mx6sdl/lib/libsdk.a(menu.o)
                                                  /home/leon/git/swp-report/iMX6_Platform_SDK/output/mx6sdl/sdk_unit_test/smart_device_rev_a/obj/apps/sdk_unit_test/src/all_test.o
menu_print_menuitem                               /home/leon/git/swp-report/iMX6_Platform_SDK/output/mx6sdl/lib/libsdk.a(menu.o)
menuitem_cmd_exitmenu                             /home/leon/git/swp-report/iMX6_Platform_SDK/output/mx6sdl/lib/libsdk.a(menu.o)
                                                  /home/leon/git/swp-report/iMX6_Platform_SDK/output/mx6sdl/sdk_unit_test/smart_device_rev_a/obj/apps/sdk_unit_test/src/all_test.o
menuitem_cmd_showmenu                             /home/leon/git/swp-report/iMX6_Platform_SDK/output/mx6sdl/lib/libsdk.a(menu.o)
microseconds_test                                 /home/leon/git/swp-report/iMX6_Platform_SDK/output/mx6sdl/sdk_unit_test/smart_device_rev_a/libsdk_unit_test.a(timer_test.o)
                                                  /home/leon/git/swp-report/iMX6_Platform_SDK/output/mx6sdl/sdk_unit_test/smart_device_rev_a/obj/apps/sdk_unit_test/src/all_test.o
mipi_backlight_en                                 /home/leon/git/swp-report/iMX6_Platform_SDK/output/mx6sdl/lib/libboard_smart_device_rev_a.a(board_mipi.o)
                                                  /home/leon/git/swp-report/iMX6_Platform_SDK/output/mx6sdl/lib/libsdk.a(ips_disp_panel.o)
mipi_cam_power_on                                 /home/leon/git/swp-report/iMX6_Platform_SDK/output/mx6sdl/lib/libboard_smart_device_rev_a.a(board_mipi.o)
mipi_clock_set                                    /home/leon/git/swp-report/iMX6_Platform_SDK/output/mx6sdl/lib/libboard_smart_device_rev_a.a(board_mipi.o)
                                                  /home/leon/git/swp-report/iMX6_Platform_SDK/output/mx6sdl/lib/libsdk.a(ips_disp_panel.o)
mipi_csi2_clock_set                               /home/leon/git/swp-report/iMX6_Platform_SDK/output/mx6sdl/lib/libboard_smart_device_rev_a.a(board_mipi.o)
mipi_csi_iomux_config                             /home/leon/git/swp-report/iMX6_Platform_SDK/output/mx6sdl/lib/libboard_smart_device_rev_a.a(iomux_config.o)
mipi_display_reset                                /home/leon/git/swp-report/iMX6_Platform_SDK/output/mx6sdl/lib/libboard_smart_device_rev_a.a(board_mipi.o)
                                                  /home/leon/git/swp-report/iMX6_Platform_SDK/output/mx6sdl/lib/libsdk.a(ips_disp_panel.o)
mipi_dsi_iomux_config                             /home/leon/git/swp-report/iMX6_Platform_SDK/output/mx6sdl/lib/libboard_smart_device_rev_a.a(iomux_config.o)
mipi_hsi_iomux_config                             /home/leon/git/swp-report/iMX6_Platform_SDK/output/mx6sdl/lib/libboard_smart_device_rev_a.a(iomux_config.o)
mlb_iomux_config                                  /home/leon/git/swp-report/iMX6_Platform_SDK/output/mx6sdl/lib/libboard_smart_device_rev_a.a(iomux_config.o)
mma8451_get_acceleration                          /home/leon/git/swp-report/iMX6_Platform_SDK/output/mx6sdl/lib/libsdk.a(mma8451.o)
                                                  /home/leon/git/swp-report/iMX6_Platform_SDK/output/mx6sdl/sdk_unit_test/smart_device_rev_a/libsdk_unit_test.a(accelerometer_test.o)
mma8451_init                                      /home/leon/git/swp-report/iMX6_Platform_SDK/output/mx6sdl/lib/libsdk.a(mma8451.o)
                                                  /home/leon/git/swp-report/iMX6_Platform_SDK/output/mx6sdl/sdk_unit_test/smart_device_rev_a/libsdk_unit_test.a(accelerometer_test.o)
mma8451_read_register                             /home/leon/git/swp-report/iMX6_Platform_SDK/output/mx6sdl/lib/libsdk.a(mma8451.o)
mma8451_write_register                            /home/leon/git/swp-report/iMX6_Platform_SDK/output/mx6sdl/lib/libsdk.a(mma8451.o)
mmc_init                                          /home/leon/git/swp-report/iMX6_Platform_SDK/output/mx6sdl/lib/libsdk.a(usdhc_mmc.o)
                                                  /home/leon/git/swp-report/iMX6_Platform_SDK/output/mx6sdl/lib/libsdk.a(usdhc.o)
mmc_sd_test                                       /home/leon/git/swp-report/iMX6_Platform_SDK/output/mx6sdl/sdk_unit_test/smart_device_rev_a/libsdk_unit_test.a(usdhc_test.o)
mmc_set_boot_ack                                  /home/leon/git/swp-report/iMX6_Platform_SDK/output/mx6sdl/lib/libsdk.a(usdhc_mmc.o)
                                                  /home/leon/git/swp-report/iMX6_Platform_SDK/output/mx6sdl/sdk_unit_test/smart_device_rev_a/libsdk_unit_test.a(usdhc_test.o)
mmc_set_boot_bus_width                            /home/leon/git/swp-report/iMX6_Platform_SDK/output/mx6sdl/lib/libsdk.a(usdhc_mmc.o)
                                                  /home/leon/git/swp-report/iMX6_Platform_SDK/output/mx6sdl/sdk_unit_test/smart_device_rev_a/libsdk_unit_test.a(usdhc_test.o)
mmc_set_boot_partition                            /home/leon/git/swp-report/iMX6_Platform_SDK/output/mx6sdl/lib/libsdk.a(usdhc_mmc.o)
                                                  /home/leon/git/swp-report/iMX6_Platform_SDK/output/mx6sdl/sdk_unit_test/smart_device_rev_a/libsdk_unit_test.a(usdhc_test.o)
mmc_voltage_validation                            /home/leon/git/swp-report/iMX6_Platform_SDK/output/mx6sdl/lib/libsdk.a(usdhc_mmc.o)
                                                  /home/leon/git/swp-report/iMX6_Platform_SDK/output/mx6sdl/lib/libsdk.a(usdhc.o)
mmdc_iomux_config                                 /home/leon/git/swp-report/iMX6_Platform_SDK/output/mx6sdl/lib/libboard_smart_device_rev_a.a(mmdc_iomux_config.o)
                                                  /home/leon/git/swp-report/iMX6_Platform_SDK/output/mx6sdl/lib/libboard_smart_device_rev_a.a(iomux_config.o)
mmu_disable                                       /home/leon/git/swp-report/iMX6_Platform_SDK/output/mx6sdl/lib/libsdk.a(mmu.o)
                                                  /home/leon/git/swp-report/iMX6_Platform_SDK/output/mx6sdl/sdk_unit_test/smart_device_rev_a/libsdk_unit_test.a(cpu_wp_test.o)
mmu_enable                                        /home/leon/git/swp-report/iMX6_Platform_SDK/output/mx6sdl/lib/libsdk.a(mmu.o)
mmu_init                                          /home/leon/git/swp-report/iMX6_Platform_SDK/output/mx6sdl/lib/libsdk.a(mmu.o)
                                                  /home/leon/git/swp-report/iMX6_Platform_SDK/output/mx6sdl/sdk_unit_test/smart_device_rev_a/obj/apps/common/platform_init.o
mmu_map_l1_range                                  /home/leon/git/swp-report/iMX6_Platform_SDK/output/mx6sdl/lib/libsdk.a(mmu.o)
                                                  /home/leon/git/swp-report/iMX6_Platform_SDK/output/mx6sdl/sdk_unit_test/smart_device_rev_a/obj/apps/common/platform_init.o
mmu_virtual_to_physical                           /home/leon/git/swp-report/iMX6_Platform_SDK/output/mx6sdl/lib/libsdk.a(mmu.o)
modff                                             /home/leon/riotboard/arm-2012.09/bin/../arm-none-eabi/lib//libm.a(lib_a-sf_modf.o)
                                                  /home/leon/git/swp-report/iMX6_Platform_SDK/output/mx6sdl/sdk_unit_test/smart_device_rev_a/libsdk_unit_test.a(accelerometer_test.o)
multicore_entry                                   /home/leon/git/swp-report/iMX6_Platform_SDK/output/mx6sdl/sdk_unit_test/smart_device_rev_a/libsdk_unit_test.a(multicore_test.o)
multicore_test                                    /home/leon/git/swp-report/iMX6_Platform_SDK/output/mx6sdl/sdk_unit_test/smart_device_rev_a/libsdk_unit_test.a(multicore_test.o)
                                                  /home/leon/git/swp-report/iMX6_Platform_SDK/output/mx6sdl/sdk_unit_test/smart_device_rev_a/obj/apps/sdk_unit_test/src/all_test.o
multiple_key_press_test                           /home/leon/git/swp-report/iMX6_Platform_SDK/output/mx6sdl/sdk_unit_test/smart_device_rev_a/libsdk_unit_test.a(keypad_test.o)
my_memcpy                                         /home/leon/git/swp-report/iMX6_Platform_SDK/output/mx6sdl/sdk_unit_test/smart_device_rev_a/libsdk_unit_test.a(cpu_wp_test.o)
mybkpt                                            /home/leon/git/swp-report/iMX6_Platform_SDK/output/mx6sdl/lib/libsdk.a(system_util.o)
need_csc                                          /home/leon/git/swp-report/iMX6_Platform_SDK/output/mx6sdl/lib/libsdk.a(ipu_common.o)
num_of_panels                                     /home/leon/git/swp-report/iMX6_Platform_SDK/output/mx6sdl/lib/libsdk.a(ips_disp_panel.o)
ocotp_fuse_blow_row                               /home/leon/git/swp-report/iMX6_Platform_SDK/output/mx6sdl/lib/libsdk.a(ocotp.o)
                                                  /home/leon/git/swp-report/iMX6_Platform_SDK/output/mx6sdl/sdk_unit_test/smart_device_rev_a/libsdk_unit_test.a(ocotp_test.o)
ocotp_reload_otp_shadow_registers                 /home/leon/git/swp-report/iMX6_Platform_SDK/output/mx6sdl/lib/libsdk.a(ocotp.o)
ocotp_sense_fuse                                  /home/leon/git/swp-report/iMX6_Platform_SDK/output/mx6sdl/lib/libsdk.a(ocotp.o)
                                                  /home/leon/git/swp-report/iMX6_Platform_SDK/output/mx6sdl/sdk_unit_test/smart_device_rev_a/libsdk_unit_test.a(ocotp_test.o)
ocotp_test                                        /home/leon/git/swp-report/iMX6_Platform_SDK/output/mx6sdl/sdk_unit_test/smart_device_rev_a/libsdk_unit_test.a(ocotp_test.o)
                                                  /home/leon/git/swp-report/iMX6_Platform_SDK/output/mx6sdl/sdk_unit_test/smart_device_rev_a/obj/apps/sdk_unit_test/src/all_test.o
one_time_tick_callback                            /home/leon/git/swp-report/iMX6_Platform_SDK/output/mx6sdl/sdk_unit_test/smart_device_rev_a/libsdk_unit_test.a(snvs_rtc_test.o)
one_time_timer_test                               /home/leon/git/swp-report/iMX6_Platform_SDK/output/mx6sdl/sdk_unit_test/smart_device_rev_a/libsdk_unit_test.a(snvs_rtc_test.o)
operator delete(void*)                            /home/leon/riotboard/arm-2012.09/bin/../arm-none-eabi/lib//libstdc++.a(del_op.o)
                                                  /home/leon/riotboard/arm-2012.09/bin/../arm-none-eabi/lib//libstdc++.a(tinfo.o)
                                                  /home/leon/riotboard/arm-2012.09/bin/../arm-none-eabi/lib//libstdc++.a(class_type_info.o)
                                                  /home/leon/riotboard/arm-2012.09/bin/../arm-none-eabi/lib//libstdc++.a(si_class_type_info.o)
                                                  /home/leon/riotboard/arm-2012.09/bin/../arm-none-eabi/lib//libstdc++.a(eh_exception.o)
operator new(unsigned int, void*)                 /home/leon/git/swp-report/iMX6_Platform_SDK/output/mx6sdl/lib/libsdk.a(pmu_driver.o)
ov5642_strobe_on                                  /home/leon/git/swp-report/iMX6_Platform_SDK/output/mx6sdl/lib/libsdk.a(smd_sensor.o)
over_temp_callback                                /home/leon/git/swp-report/iMX6_Platform_SDK/output/mx6sdl/sdk_unit_test/smart_device_rev_a/libsdk_unit_test.a(tempmon_test.o)
pcie_card_pwr_setup                               /home/leon/git/swp-report/iMX6_Platform_SDK/output/mx6sdl/lib/libboard_smart_device_rev_a.a(board_pcie.o)
                                                  /home/leon/git/swp-report/iMX6_Platform_SDK/output/mx6sdl/sdk_unit_test/smart_device_rev_a/libsdk_unit_test.a(pcie_test_rc.o)
pcie_card_rst                                     /home/leon/git/swp-report/iMX6_Platform_SDK/output/mx6sdl/lib/libboard_smart_device_rev_a.a(board_pcie.o)
                                                  /home/leon/git/swp-report/iMX6_Platform_SDK/output/mx6sdl/sdk_unit_test/smart_device_rev_a/libsdk_unit_test.a(pcie_test_rc.o)
pcie_cfg_ep_bar                                   /home/leon/git/swp-report/iMX6_Platform_SDK/output/mx6sdl/lib/libsdk.a(pcie_prot.o)
                                                  /home/leon/git/swp-report/iMX6_Platform_SDK/output/mx6sdl/sdk_unit_test/smart_device_rev_a/libsdk_unit_test.a(pcie_test_rc.o)
pcie_clk_setup                                    /home/leon/git/swp-report/iMX6_Platform_SDK/output/mx6sdl/lib/libboard_smart_device_rev_a.a(board_pcie.o)
                                                  /home/leon/git/swp-report/iMX6_Platform_SDK/output/mx6sdl/sdk_unit_test/smart_device_rev_a/libsdk_unit_test.a(pcie_test_rc.o)
pcie_dump_cfg_header                              /home/leon/git/swp-report/iMX6_Platform_SDK/output/mx6sdl/lib/libsdk.a(pcie_prot.o)
                                                  /home/leon/git/swp-report/iMX6_Platform_SDK/output/mx6sdl/sdk_unit_test/smart_device_rev_a/libsdk_unit_test.a(pcie_test_rc.o)
pcie_enable_extrn_100mhz_clk                      /home/leon/git/swp-report/iMX6_Platform_SDK/output/mx6sdl/lib/libboard_smart_device_rev_a.a(board_pcie.o)
                                                  /home/leon/git/swp-report/iMX6_Platform_SDK/output/mx6sdl/sdk_unit_test/smart_device_rev_a/libsdk_unit_test.a(pcie_test_rc.o)
pcie_enable_extrn_125mhz_clk                      /home/leon/git/swp-report/iMX6_Platform_SDK/output/mx6sdl/lib/libboard_smart_device_rev_a.a(board_pcie.o)
pcie_enum_resources                               /home/leon/git/swp-report/iMX6_Platform_SDK/output/mx6sdl/lib/libsdk.a(pcie_prot.o)
                                                  /home/leon/git/swp-report/iMX6_Platform_SDK/output/mx6sdl/sdk_unit_test/smart_device_rev_a/libsdk_unit_test.a(pcie_test_rc.o)
pcie_func_card_pwr_setup                          /home/leon/git/swp-report/iMX6_Platform_SDK/output/mx6sdl/lib/libsdk.a(pcie.o)
                                                  /home/leon/git/swp-report/iMX6_Platform_SDK/output/mx6sdl/sdk_unit_test/smart_device_rev_a/libsdk_unit_test.a(pcie_test_rc.o)
pcie_func_card_ref_clk_setup                      /home/leon/git/swp-report/iMX6_Platform_SDK/output/mx6sdl/lib/libsdk.a(pcie.o)
                                                  /home/leon/git/swp-report/iMX6_Platform_SDK/output/mx6sdl/sdk_unit_test/smart_device_rev_a/libsdk_unit_test.a(pcie_test_rc.o)
pcie_func_card_rst                                /home/leon/git/swp-report/iMX6_Platform_SDK/output/mx6sdl/lib/libsdk.a(pcie.o)
                                                  /home/leon/git/swp-report/iMX6_Platform_SDK/output/mx6sdl/sdk_unit_test/smart_device_rev_a/libsdk_unit_test.a(pcie_test_rc.o)
pcie_func_clk_setup                               /home/leon/git/swp-report/iMX6_Platform_SDK/output/mx6sdl/lib/libsdk.a(pcie.o)
                                                  /home/leon/git/swp-report/iMX6_Platform_SDK/output/mx6sdl/sdk_unit_test/smart_device_rev_a/libsdk_unit_test.a(pcie_test_rc.o)
pcie_func_pwr_setup                               /home/leon/git/swp-report/iMX6_Platform_SDK/output/mx6sdl/lib/libsdk.a(pcie.o)
pcie_init                                         /home/leon/git/swp-report/iMX6_Platform_SDK/output/mx6sdl/lib/libsdk.a(pcie.o)
                                                  /home/leon/git/swp-report/iMX6_Platform_SDK/output/mx6sdl/sdk_unit_test/smart_device_rev_a/libsdk_unit_test.a(pcie_test_rc.o)
pcie_iomux_config                                 /home/leon/git/swp-report/iMX6_Platform_SDK/output/mx6sdl/lib/libboard_smart_device_rev_a.a(iomux_config.o)
pcie_map_space                                    /home/leon/git/swp-report/iMX6_Platform_SDK/output/mx6sdl/lib/libsdk.a(pcie.o)
                                                  /home/leon/git/swp-report/iMX6_Platform_SDK/output/mx6sdl/sdk_unit_test/smart_device_rev_a/libsdk_unit_test.a(pcie_test_rc.o)
pcie_phy_cr_read                                  /home/leon/git/swp-report/iMX6_Platform_SDK/output/mx6sdl/lib/libsdk.a(pcie_phy.o)
                                                  /home/leon/git/swp-report/iMX6_Platform_SDK/output/mx6sdl/lib/libsdk.a(pcie.o)
pcie_phy_cr_write                                 /home/leon/git/swp-report/iMX6_Platform_SDK/output/mx6sdl/lib/libsdk.a(pcie_phy.o)
                                                  /home/leon/git/swp-report/iMX6_Platform_SDK/output/mx6sdl/lib/libsdk.a(pcie.o)
pcie_test                                         /home/leon/git/swp-report/iMX6_Platform_SDK/output/mx6sdl/sdk_unit_test/smart_device_rev_a/libsdk_unit_test.a(pcie_test_rc.o)
                                                  /home/leon/git/swp-report/iMX6_Platform_SDK/output/mx6sdl/sdk_unit_test/smart_device_rev_a/obj/apps/sdk_unit_test/src/all_test.o
pcm_music                                         /home/leon/git/swp-report/iMX6_Platform_SDK/output/mx6sdl/sdk_unit_test/smart_device_rev_a/libsdk_unit_test.a(audio_test.o)
pcm_para                                          /home/leon/git/swp-report/iMX6_Platform_SDK/output/mx6sdl/sdk_unit_test/smart_device_rev_a/libsdk_unit_test.a(audio_test.o)
periodic_tick_callback                            /home/leon/git/swp-report/iMX6_Platform_SDK/output/mx6sdl/sdk_unit_test/smart_device_rev_a/libsdk_unit_test.a(snvs_rtc_test.o)
periodic_timer_test                               /home/leon/git/swp-report/iMX6_Platform_SDK/output/mx6sdl/sdk_unit_test/smart_device_rev_a/libsdk_unit_test.a(snvs_rtc_test.o)
platform_init                                     /home/leon/git/swp-report/iMX6_Platform_SDK/output/mx6sdl/sdk_unit_test/smart_device_rev_a/obj/apps/common/platform_init.o
                                                  /home/leon/git/swp-report/iMX6_Platform_SDK/output/mx6sdl/sdk_unit_test/smart_device_rev_a/obj/apps/sdk_unit_test/src/unit_test_main.o
pmu::AnalogRegulator::AnalogRegulator(_hw_pmu_reg_1p1 volatile&) /home/leon/git/swp-report/iMX6_Platform_SDK/output/mx6sdl/lib/libsdk.a(pmu_driver.o)
pmu::AnalogRegulator::AnalogRegulator(_hw_pmu_reg_1p1 volatile&) /home/leon/git/swp-report/iMX6_Platform_SDK/output/mx6sdl/lib/libsdk.a(pmu_driver.o)
pmu::AnalogRegulator::AnalogRegulator<_hw_pmu_reg_2p5>(_hw_pmu_reg_2p5 volatile&) /home/leon/git/swp-report/iMX6_Platform_SDK/output/mx6sdl/lib/libsdk.a(pmu_driver.o)
pmu::AnalogRegulator::AnalogRegulator<_hw_pmu_reg_2p5>(_hw_pmu_reg_2p5 volatile&) /home/leon/git/swp-report/iMX6_Platform_SDK/output/mx6sdl/lib/libsdk.a(pmu_driver.o)
pmu::AnalogRegulator::AnalogRegulator<_hw_pmu_reg_3p0>(_hw_pmu_reg_3p0 volatile&) /home/leon/git/swp-report/iMX6_Platform_SDK/output/mx6sdl/lib/libsdk.a(pmu_driver.o)
pmu::AnalogRegulator::AnalogRegulator<_hw_pmu_reg_3p0>(_hw_pmu_reg_3p0 volatile&) /home/leon/git/swp-report/iMX6_Platform_SDK/output/mx6sdl/lib/libsdk.a(pmu_driver.o)
pmu::AnalogRegulator::getBrownoutMillivolts() const /home/leon/git/swp-report/iMX6_Platform_SDK/output/mx6sdl/lib/libsdk.a(pmu_driver.o)
pmu::AnalogRegulator::getOutputMillivolts() const /home/leon/git/swp-report/iMX6_Platform_SDK/output/mx6sdl/lib/libsdk.a(pmu_driver.o)
pmu::AnalogRegulator::getProperty(_pmu_regulator_properties, void*) /home/leon/git/swp-report/iMX6_Platform_SDK/output/mx6sdl/lib/libsdk.a(pmu_driver.o)
pmu::AnalogRegulator::isBrownoutDetectEnabled() const /home/leon/git/swp-report/iMX6_Platform_SDK/output/mx6sdl/lib/libsdk.a(pmu_driver.o)
pmu::AnalogRegulator::isEnabled() const           /home/leon/git/swp-report/iMX6_Platform_SDK/output/mx6sdl/lib/libsdk.a(pmu_driver.o)
pmu::AnalogRegulator::setBrownoutDetectIsEnabled(bool) /home/leon/git/swp-report/iMX6_Platform_SDK/output/mx6sdl/lib/libsdk.a(pmu_driver.o)
pmu::AnalogRegulator::setBrownoutMillivolts(unsigned long) /home/leon/git/swp-report/iMX6_Platform_SDK/output/mx6sdl/lib/libsdk.a(pmu_driver.o)
pmu::AnalogRegulator::setIsEnabled(bool)          /home/leon/git/swp-report/iMX6_Platform_SDK/output/mx6sdl/lib/libsdk.a(pmu_driver.o)
pmu::AnalogRegulator::setOutputMillivolts(unsigned long) /home/leon/git/swp-report/iMX6_Platform_SDK/output/mx6sdl/lib/libsdk.a(pmu_driver.o)
pmu::AnalogRegulator::setProperty(_pmu_regulator_properties, void const*) /home/leon/git/swp-report/iMX6_Platform_SDK/output/mx6sdl/lib/libsdk.a(pmu_driver.o)
pmu::DigitalRegulator::DigitalRegulator()         /home/leon/git/swp-report/iMX6_Platform_SDK/output/mx6sdl/lib/libsdk.a(pmu_driver.o)
pmu::DigitalRegulator::DigitalRegulator()         /home/leon/git/swp-report/iMX6_Platform_SDK/output/mx6sdl/lib/libsdk.a(pmu_driver.o)
pmu::DigitalRegulator::getBrownoutMillivolts() const /home/leon/git/swp-report/iMX6_Platform_SDK/output/mx6sdl/lib/libsdk.a(pmu_driver.o)
pmu::DigitalRegulator::getOutputMillivolts() const /home/leon/git/swp-report/iMX6_Platform_SDK/output/mx6sdl/lib/libsdk.a(pmu_driver.o)
pmu::DigitalRegulator::getProperty(_pmu_regulator_properties, void*) /home/leon/git/swp-report/iMX6_Platform_SDK/output/mx6sdl/lib/libsdk.a(pmu_driver.o)
pmu::DigitalRegulator::isBypassed() const         /home/leon/git/swp-report/iMX6_Platform_SDK/output/mx6sdl/lib/libsdk.a(pmu_driver.o)
pmu::DigitalRegulator::isEnabled() const          /home/leon/git/swp-report/iMX6_Platform_SDK/output/mx6sdl/lib/libsdk.a(pmu_driver.o)
pmu::DigitalRegulator::setBrownoutMillivolts(unsigned long) /home/leon/git/swp-report/iMX6_Platform_SDK/output/mx6sdl/lib/libsdk.a(pmu_driver.o)
pmu::DigitalRegulator::setIsBypassed(bool)        /home/leon/git/swp-report/iMX6_Platform_SDK/output/mx6sdl/lib/libsdk.a(pmu_driver.o)
pmu::DigitalRegulator::setIsEnabled(bool)         /home/leon/git/swp-report/iMX6_Platform_SDK/output/mx6sdl/lib/libsdk.a(pmu_driver.o)
pmu::DigitalRegulator::setOutputMillivolts(unsigned long) /home/leon/git/swp-report/iMX6_Platform_SDK/output/mx6sdl/lib/libsdk.a(pmu_driver.o)
pmu::DigitalRegulator::setProperty(_pmu_regulator_properties, void const*) /home/leon/git/swp-report/iMX6_Platform_SDK/output/mx6sdl/lib/libsdk.a(pmu_driver.o)
pmu::LDO1p1Regulator::LDO1p1Regulator()           /home/leon/git/swp-report/iMX6_Platform_SDK/output/mx6sdl/lib/libsdk.a(pmu_driver.o)
pmu::LDO1p1Regulator::LDO1p1Regulator()           /home/leon/git/swp-report/iMX6_Platform_SDK/output/mx6sdl/lib/libsdk.a(pmu_driver.o)
pmu::LDO1p1Regulator::getOutputMillivolts() const /home/leon/git/swp-report/iMX6_Platform_SDK/output/mx6sdl/lib/libsdk.a(pmu_driver.o)
pmu::LDO1p1Regulator::getProperty(_pmu_regulator_properties, void*) /home/leon/git/swp-report/iMX6_Platform_SDK/output/mx6sdl/lib/libsdk.a(pmu_driver.o)
pmu::LDO1p1Regulator::isInBrownout() const        /home/leon/git/swp-report/iMX6_Platform_SDK/output/mx6sdl/lib/libsdk.a(pmu_driver.o)
pmu::LDO1p1Regulator::isOK() const                /home/leon/git/swp-report/iMX6_Platform_SDK/output/mx6sdl/lib/libsdk.a(pmu_driver.o)
pmu::LDO1p1Regulator::setOutputMillivolts(unsigned long) /home/leon/git/swp-report/iMX6_Platform_SDK/output/mx6sdl/lib/libsdk.a(pmu_driver.o)
pmu::LDO2p5Regulator::LDO2p5Regulator()           /home/leon/git/swp-report/iMX6_Platform_SDK/output/mx6sdl/lib/libsdk.a(pmu_driver.o)
pmu::LDO2p5Regulator::LDO2p5Regulator()           /home/leon/git/swp-report/iMX6_Platform_SDK/output/mx6sdl/lib/libsdk.a(pmu_driver.o)
pmu::LDO2p5Regulator::isInBrownout() const        /home/leon/git/swp-report/iMX6_Platform_SDK/output/mx6sdl/lib/libsdk.a(pmu_driver.o)
pmu::LDO2p5Regulator::isOK() const                /home/leon/git/swp-report/iMX6_Platform_SDK/output/mx6sdl/lib/libsdk.a(pmu_driver.o)
pmu::LDO3p0Regulator::LDO3p0Regulator()           /home/leon/git/swp-report/iMX6_Platform_SDK/output/mx6sdl/lib/libsdk.a(pmu_driver.o)
pmu::LDO3p0Regulator::LDO3p0Regulator()           /home/leon/git/swp-report/iMX6_Platform_SDK/output/mx6sdl/lib/libsdk.a(pmu_driver.o)
pmu::LDO3p0Regulator::getProperty(_pmu_regulator_properties, void*) /home/leon/git/swp-report/iMX6_Platform_SDK/output/mx6sdl/lib/libsdk.a(pmu_driver.o)
pmu::LDO3p0Regulator::isInBrownout() const        /home/leon/git/swp-report/iMX6_Platform_SDK/output/mx6sdl/lib/libsdk.a(pmu_driver.o)
pmu::LDO3p0Regulator::isOK() const                /home/leon/git/swp-report/iMX6_Platform_SDK/output/mx6sdl/lib/libsdk.a(pmu_driver.o)
pmu::LDO3p0Regulator::setProperty(_pmu_regulator_properties, void const*) /home/leon/git/swp-report/iMX6_Platform_SDK/output/mx6sdl/lib/libsdk.a(pmu_driver.o)
pmu::LDOARMRegulator::LDOARMRegulator()           /home/leon/git/swp-report/iMX6_Platform_SDK/output/mx6sdl/lib/libsdk.a(pmu_driver.o)
pmu::LDOARMRegulator::LDOARMRegulator()           /home/leon/git/swp-report/iMX6_Platform_SDK/output/mx6sdl/lib/libsdk.a(pmu_driver.o)
pmu::LDOARMRegulator::getBrownout() const         /home/leon/git/swp-report/iMX6_Platform_SDK/output/mx6sdl/lib/libsdk.a(pmu_driver.o)
pmu::LDOARMRegulator::getRampRate() const         /home/leon/git/swp-report/iMX6_Platform_SDK/output/mx6sdl/lib/libsdk.a(pmu_driver.o)
pmu::LDOARMRegulator::getTrigger() const          /home/leon/git/swp-report/iMX6_Platform_SDK/output/mx6sdl/lib/libsdk.a(pmu_driver.o)
pmu::LDOARMRegulator::isBrownoutDetectEnabled() const /home/leon/git/swp-report/iMX6_Platform_SDK/output/mx6sdl/lib/libsdk.a(pmu_driver.o)
pmu::LDOARMRegulator::isInBrownout() const        /home/leon/git/swp-report/iMX6_Platform_SDK/output/mx6sdl/lib/libsdk.a(pmu_driver.o)
pmu::LDOARMRegulator::isOK() const                /home/leon/git/swp-report/iMX6_Platform_SDK/output/mx6sdl/lib/libsdk.a(pmu_driver.o)
pmu::LDOARMRegulator::setBrownout(unsigned long)  /home/leon/git/swp-report/iMX6_Platform_SDK/output/mx6sdl/lib/libsdk.a(pmu_driver.o)
pmu::LDOARMRegulator::setBrownoutDetectIsEnabled(bool) /home/leon/git/swp-report/iMX6_Platform_SDK/output/mx6sdl/lib/libsdk.a(pmu_driver.o)
pmu::LDOARMRegulator::setRampRate(unsigned long)  /home/leon/git/swp-report/iMX6_Platform_SDK/output/mx6sdl/lib/libsdk.a(pmu_driver.o)
pmu::LDOARMRegulator::setTrigger(unsigned long)   /home/leon/git/swp-report/iMX6_Platform_SDK/output/mx6sdl/lib/libsdk.a(pmu_driver.o)
pmu::LDOGraphicsRegulator::LDOGraphicsRegulator() /home/leon/git/swp-report/iMX6_Platform_SDK/output/mx6sdl/lib/libsdk.a(pmu_driver.o)
pmu::LDOGraphicsRegulator::LDOGraphicsRegulator() /home/leon/git/swp-report/iMX6_Platform_SDK/output/mx6sdl/lib/libsdk.a(pmu_driver.o)
pmu::LDOGraphicsRegulator::getBrownout() const    /home/leon/git/swp-report/iMX6_Platform_SDK/output/mx6sdl/lib/libsdk.a(pmu_driver.o)
pmu::LDOGraphicsRegulator::getRampRate() const    /home/leon/git/swp-report/iMX6_Platform_SDK/output/mx6sdl/lib/libsdk.a(pmu_driver.o)
pmu::LDOGraphicsRegulator::getTrigger() const     /home/leon/git/swp-report/iMX6_Platform_SDK/output/mx6sdl/lib/libsdk.a(pmu_driver.o)
pmu::LDOGraphicsRegulator::isBrownoutDetectEnabled() const /home/leon/git/swp-report/iMX6_Platform_SDK/output/mx6sdl/lib/libsdk.a(pmu_driver.o)
pmu::LDOGraphicsRegulator::isInBrownout() const   /home/leon/git/swp-report/iMX6_Platform_SDK/output/mx6sdl/lib/libsdk.a(pmu_driver.o)
pmu::LDOGraphicsRegulator::isOK() const           /home/leon/git/swp-report/iMX6_Platform_SDK/output/mx6sdl/lib/libsdk.a(pmu_driver.o)
pmu::LDOGraphicsRegulator::setBrownout(unsigned long) /home/leon/git/swp-report/iMX6_Platform_SDK/output/mx6sdl/lib/libsdk.a(pmu_driver.o)
pmu::LDOGraphicsRegulator::setBrownoutDetectIsEnabled(bool) /home/leon/git/swp-report/iMX6_Platform_SDK/output/mx6sdl/lib/libsdk.a(pmu_driver.o)
pmu::LDOGraphicsRegulator::setRampRate(unsigned long) /home/leon/git/swp-report/iMX6_Platform_SDK/output/mx6sdl/lib/libsdk.a(pmu_driver.o)
pmu::LDOGraphicsRegulator::setTrigger(unsigned long) /home/leon/git/swp-report/iMX6_Platform_SDK/output/mx6sdl/lib/libsdk.a(pmu_driver.o)
pmu::LDOSoCRegulator::LDOSoCRegulator()           /home/leon/git/swp-report/iMX6_Platform_SDK/output/mx6sdl/lib/libsdk.a(pmu_driver.o)
pmu::LDOSoCRegulator::LDOSoCRegulator()           /home/leon/git/swp-report/iMX6_Platform_SDK/output/mx6sdl/lib/libsdk.a(pmu_driver.o)
pmu::LDOSoCRegulator::getBrownout() const         /home/leon/git/swp-report/iMX6_Platform_SDK/output/mx6sdl/lib/libsdk.a(pmu_driver.o)
pmu::LDOSoCRegulator::getRampRate() const         /home/leon/git/swp-report/iMX6_Platform_SDK/output/mx6sdl/lib/libsdk.a(pmu_driver.o)
pmu::LDOSoCRegulator::getTrigger() const          /home/leon/git/swp-report/iMX6_Platform_SDK/output/mx6sdl/lib/libsdk.a(pmu_driver.o)
pmu::LDOSoCRegulator::isBrownoutDetectEnabled() const /home/leon/git/swp-report/iMX6_Platform_SDK/output/mx6sdl/lib/libsdk.a(pmu_driver.o)
pmu::LDOSoCRegulator::isInBrownout() const        /home/leon/git/swp-report/iMX6_Platform_SDK/output/mx6sdl/lib/libsdk.a(pmu_driver.o)
pmu::LDOSoCRegulator::isOK() const                /home/leon/git/swp-report/iMX6_Platform_SDK/output/mx6sdl/lib/libsdk.a(pmu_driver.o)
pmu::LDOSoCRegulator::setBrownout(unsigned long)  /home/leon/git/swp-report/iMX6_Platform_SDK/output/mx6sdl/lib/libsdk.a(pmu_driver.o)
pmu::LDOSoCRegulator::setBrownoutDetectIsEnabled(bool) /home/leon/git/swp-report/iMX6_Platform_SDK/output/mx6sdl/lib/libsdk.a(pmu_driver.o)
pmu::LDOSoCRegulator::setRampRate(unsigned long)  /home/leon/git/swp-report/iMX6_Platform_SDK/output/mx6sdl/lib/libsdk.a(pmu_driver.o)
pmu::LDOSoCRegulator::setTrigger(unsigned long)   /home/leon/git/swp-report/iMX6_Platform_SDK/output/mx6sdl/lib/libsdk.a(pmu_driver.o)
pmu::Regulator::Regulator()                       /home/leon/git/swp-report/iMX6_Platform_SDK/output/mx6sdl/lib/libsdk.a(pmu_driver.o)
pmu::Regulator::Regulator()                       /home/leon/git/swp-report/iMX6_Platform_SDK/output/mx6sdl/lib/libsdk.a(pmu_driver.o)
pmu::Regulator::getBrownoutHandler()              /home/leon/git/swp-report/iMX6_Platform_SDK/output/mx6sdl/lib/libsdk.a(pmu_driver.o)
pmu::Regulator::getProperty(_pmu_regulator_properties, void*) /home/leon/git/swp-report/iMX6_Platform_SDK/output/mx6sdl/lib/libsdk.a(pmu_driver.o)
pmu::Regulator::setBrownoutHandler(void (*)(_pmu_regs)) /home/leon/git/swp-report/iMX6_Platform_SDK/output/mx6sdl/lib/libsdk.a(pmu_driver.o)
pmu::Regulator::setProperty(_pmu_regulator_properties, void const*) /home/leon/git/swp-report/iMX6_Platform_SDK/output/mx6sdl/lib/libsdk.a(pmu_driver.o)
pmu::Regulator::setVoltageRange(unsigned long, unsigned long, unsigned long) /home/leon/git/swp-report/iMX6_Platform_SDK/output/mx6sdl/lib/libsdk.a(pmu_driver.o)
pmu::_pmu_info::_pmu_info()                       /home/leon/git/swp-report/iMX6_Platform_SDK/output/mx6sdl/lib/libsdk.a(pmu_driver.o)
pmu::_pmu_info::_pmu_info()                       /home/leon/git/swp-report/iMX6_Platform_SDK/output/mx6sdl/lib/libsdk.a(pmu_driver.o)
pmu_get_property                                  /home/leon/git/swp-report/iMX6_Platform_SDK/output/mx6sdl/lib/libsdk.a(pmu_driver.o)
pmu_init                                          /home/leon/git/swp-report/iMX6_Platform_SDK/output/mx6sdl/lib/libsdk.a(pmu_driver.o)
                                                  /home/leon/git/swp-report/iMX6_Platform_SDK/output/mx6sdl/lib/libsdk.a(cpu_workpoint.o)
pmu_iomux_config                                  /home/leon/git/swp-report/iMX6_Platform_SDK/output/mx6sdl/lib/libboard_smart_device_rev_a.a(iomux_config.o)
pmu_set_property                                  /home/leon/git/swp-report/iMX6_Platform_SDK/output/mx6sdl/lib/libsdk.a(pmu_driver.o)
                                                  /home/leon/git/swp-report/iMX6_Platform_SDK/output/mx6sdl/lib/libsdk.a(cpu_workpoint.o)
preamble_filter_set                               /home/leon/git/swp-report/iMX6_Platform_SDK/output/mx6sdl/lib/libsdk.a(hdmi_tx.o)
prefetch_abort_handler                            /home/leon/git/swp-report/iMX6_Platform_SDK/output/mx6sdl/lib/libsdk.a(arm_abort.o)
                                                  /home/leon/git/swp-report/iMX6_Platform_SDK/output/mx6sdl/lib/libsdk.a(vectors.o)
print_current_temp                                /home/leon/git/swp-report/iMX6_Platform_SDK/output/mx6sdl/sdk_unit_test/smart_device_rev_a/libsdk_unit_test.a(tempmon_test.o)
print_version                                     /home/leon/git/swp-report/iMX6_Platform_SDK/output/mx6sdl/sdk_unit_test/smart_device_rev_a/obj/apps/common/print_version.o
                                                  /home/leon/git/swp-report/iMX6_Platform_SDK/output/mx6sdl/sdk_unit_test/smart_device_rev_a/obj/apps/sdk_unit_test/src/unit_test_main.o
printf                                            /home/leon/riotboard/arm-2012.09/bin/../arm-none-eabi/lib//libc.a(lib_a-printf.o)
                                                  /home/leon/git/swp-report/iMX6_Platform_SDK/output/mx6sdl/lib/libboard_smart_device_rev_a.a(board_hdmi.o)
                                                  /home/leon/git/swp-report/iMX6_Platform_SDK/output/mx6sdl/lib/libboard_smart_device_rev_a.a(board_display.o)
                                                  /home/leon/git/swp-report/iMX6_Platform_SDK/output/mx6sdl/lib/libsdk.a(hdmi_common.o)
                                                  /home/leon/git/swp-report/iMX6_Platform_SDK/output/mx6sdl/lib/libsdk.a(usdhc_sd.o)
                                                  /home/leon/git/swp-report/iMX6_Platform_SDK/output/mx6sdl/lib/libsdk.a(usdhc_mmc.o)
                                                  /home/leon/git/swp-report/iMX6_Platform_SDK/output/mx6sdl/lib/libsdk.a(usdhc_host.o)
                                                  /home/leon/git/swp-report/iMX6_Platform_SDK/output/mx6sdl/lib/libsdk.a(usdhc.o)
                                                  /home/leon/git/swp-report/iMX6_Platform_SDK/output/mx6sdl/lib/libsdk.a(usbh_drv.o)
                                                  /home/leon/git/swp-report/iMX6_Platform_SDK/output/mx6sdl/lib/libsdk.a(usbd_drv.o)
                                                  /home/leon/git/swp-report/iMX6_Platform_SDK/output/mx6sdl/lib/libsdk.a(usb_common.o)
                                                  /home/leon/git/swp-report/iMX6_Platform_SDK/output/mx6sdl/lib/libsdk.a(ecspi.o)
                                                  /home/leon/git/swp-report/iMX6_Platform_SDK/output/mx6sdl/lib/libsdk.a(sdma.o)
                                                  /home/leon/git/swp-report/iMX6_Platform_SDK/output/mx6sdl/lib/libsdk.a(pwm.o)
                                                  /home/leon/git/swp-report/iMX6_Platform_SDK/output/mx6sdl/lib/libsdk.a(pcie_prot.o)
                                                  /home/leon/git/swp-report/iMX6_Platform_SDK/output/mx6sdl/lib/libsdk.a(pcie.o)
                                                  /home/leon/git/swp-report/iMX6_Platform_SDK/output/mx6sdl/lib/libsdk.a(ldb.o)
                                                  /home/leon/git/swp-report/iMX6_Platform_SDK/output/mx6sdl/lib/libsdk.a(ipu_idmac.o)
                                                  /home/leon/git/swp-report/iMX6_Platform_SDK/output/mx6sdl/lib/libsdk.a(ipu_ic.o)
                                                  /home/leon/git/swp-report/iMX6_Platform_SDK/output/mx6sdl/lib/libsdk.a(ipu_di.o)
                                                  /home/leon/git/swp-report/iMX6_Platform_SDK/output/mx6sdl/lib/libsdk.a(ipu_dc.o)
                                                  /home/leon/git/swp-report/iMX6_Platform_SDK/output/mx6sdl/lib/libsdk.a(ipu_csi.o)
                                                  /home/leon/git/swp-report/iMX6_Platform_SDK/output/mx6sdl/lib/libsdk.a(ipu_common.o)
                                                  /home/leon/git/swp-report/iMX6_Platform_SDK/output/mx6sdl/lib/libsdk.a(ips_disp_panel.o)
                                                  /home/leon/git/swp-report/iMX6_Platform_SDK/output/mx6sdl/lib/libsdk.a(imx_i2c_slave.o)
                                                  /home/leon/git/swp-report/iMX6_Platform_SDK/output/mx6sdl/lib/libsdk.a(hdmi_tx_phy.o)
                                                  /home/leon/git/swp-report/iMX6_Platform_SDK/output/mx6sdl/lib/libsdk.a(hdmi_tx_audio.o)
                                                  /home/leon/git/swp-report/iMX6_Platform_SDK/output/mx6sdl/lib/libsdk.a(hdmi_tx.o)
                                                  /home/leon/git/swp-report/iMX6_Platform_SDK/output/mx6sdl/lib/libsdk.a(gpio.o)
                                                  /home/leon/git/swp-report/iMX6_Platform_SDK/output/mx6sdl/lib/libsdk.a(enet_drv.o)
                                                  /home/leon/git/swp-report/iMX6_Platform_SDK/output/mx6sdl/lib/libsdk.a(cpu_workpoint.o)
                                                  /home/leon/git/swp-report/iMX6_Platform_SDK/output/mx6sdl/lib/libsdk.a(smd_sensor.o)
                                                  /home/leon/git/swp-report/iMX6_Platform_SDK/output/mx6sdl/lib/libsdk.a(mma8451.o)
                                                  /home/leon/git/swp-report/iMX6_Platform_SDK/output/mx6sdl/sdk_unit_test/smart_device_rev_a/libsdk_unit_test.a(spi_nor_numonyx.o)
                                                  /home/leon/git/swp-report/iMX6_Platform_SDK/output/mx6sdl/sdk_unit_test/smart_device_rev_a/libsdk_unit_test.a(usb0_host_testmodes_test.o)
                                                  /home/leon/git/swp-report/iMX6_Platform_SDK/output/mx6sdl/sdk_unit_test/smart_device_rev_a/libsdk_unit_test.a(usb0_host_test.o)
                                                  /home/leon/git/swp-report/iMX6_Platform_SDK/output/mx6sdl/sdk_unit_test/smart_device_rev_a/libsdk_unit_test.a(usb0_device_mouse_test.o)
                                                  /home/leon/git/swp-report/iMX6_Platform_SDK/output/mx6sdl/sdk_unit_test/smart_device_rev_a/libsdk_unit_test.a(ips_rotate.o)
                                                  /home/leon/git/swp-report/iMX6_Platform_SDK/output/mx6sdl/sdk_unit_test/smart_device_rev_a/libsdk_unit_test.a(ips_resize.o)
                                                  /home/leon/git/swp-report/iMX6_Platform_SDK/output/mx6sdl/sdk_unit_test/smart_device_rev_a/libsdk_unit_test.a(ips_csc.o)
                                                  /home/leon/git/swp-report/iMX6_Platform_SDK/output/mx6sdl/sdk_unit_test/smart_device_rev_a/libsdk_unit_test.a(ips_combiner.o)
                                                  /home/leon/git/swp-report/iMX6_Platform_SDK/output/mx6sdl/sdk_unit_test/smart_device_rev_a/libsdk_unit_test.a(init_dma_data.o)
                                                  /home/leon/git/swp-report/iMX6_Platform_SDK/output/mx6sdl/sdk_unit_test/smart_device_rev_a/libsdk_unit_test.a(pwm_output.o)
                                                  /home/leon/git/swp-report/iMX6_Platform_SDK/output/mx6sdl/sdk_unit_test/smart_device_rev_a/libsdk_unit_test.a(mem_2_mem.o)
                                                  /home/leon/git/swp-report/iMX6_Platform_SDK/output/mx6sdl/sdk_unit_test/smart_device_rev_a/libsdk_unit_test.a(at24cxx.o)
                                                  /home/leon/git/swp-report/iMX6_Platform_SDK/output/mx6sdl/sdk_unit_test/smart_device_rev_a/libsdk_unit_test.a(accelerometer_test.o)
                                                  /home/leon/git/swp-report/iMX6_Platform_SDK/output/mx6sdl/sdk_unit_test/smart_device_rev_a/libsdk_unit_test.a(spi_test.o)
                                                  /home/leon/git/swp-report/iMX6_Platform_SDK/output/mx6sdl/sdk_unit_test/smart_device_rev_a/libsdk_unit_test.a(enet_test.o)
                                                  /home/leon/git/swp-report/iMX6_Platform_SDK/output/mx6sdl/sdk_unit_test/smart_device_rev_a/libsdk_unit_test.a(usb_test.o)
                                                  /home/leon/git/swp-report/iMX6_Platform_SDK/output/mx6sdl/sdk_unit_test/smart_device_rev_a/libsdk_unit_test.a(pcie_test_rc.o)
                                                  /home/leon/git/swp-report/iMX6_Platform_SDK/output/mx6sdl/sdk_unit_test/smart_device_rev_a/libsdk_unit_test.a(sensor_capture.o)
                                                  /home/leon/git/swp-report/iMX6_Platform_SDK/output/mx6sdl/sdk_unit_test/smart_device_rev_a/libsdk_unit_test.a(csi_test_mode.o)
                                                  /home/leon/git/swp-report/iMX6_Platform_SDK/output/mx6sdl/sdk_unit_test/smart_device_rev_a/libsdk_unit_test.a(camera_test.o)
                                                  /home/leon/git/swp-report/iMX6_Platform_SDK/output/mx6sdl/sdk_unit_test/smart_device_rev_a/libsdk_unit_test.a(keypad_test.o)
                                                  /home/leon/git/swp-report/iMX6_Platform_SDK/output/mx6sdl/sdk_unit_test/smart_device_rev_a/libsdk_unit_test.a(ips_test.o)
                                                  /home/leon/git/swp-report/iMX6_Platform_SDK/output/mx6sdl/sdk_unit_test/smart_device_rev_a/libsdk_unit_test.a(ips_display.o)
                                                  /home/leon/git/swp-report/iMX6_Platform_SDK/output/mx6sdl/sdk_unit_test/smart_device_rev_a/libsdk_unit_test.a(hdmi_test.o)
                                                  /home/leon/git/swp-report/iMX6_Platform_SDK/output/mx6sdl/sdk_unit_test/smart_device_rev_a/libsdk_unit_test.a(pwm_test.o)
                                                  /home/leon/git/swp-report/iMX6_Platform_SDK/output/mx6sdl/sdk_unit_test/smart_device_rev_a/libsdk_unit_test.a(watchdog_test.o)
                                                  /home/leon/git/swp-report/iMX6_Platform_SDK/output/mx6sdl/sdk_unit_test/smart_device_rev_a/libsdk_unit_test.a(usdhc_test.o)
                                                  /home/leon/git/swp-report/iMX6_Platform_SDK/output/mx6sdl/sdk_unit_test/smart_device_rev_a/libsdk_unit_test.a(timer_test.o)
                                                  /home/leon/git/swp-report/iMX6_Platform_SDK/output/mx6sdl/sdk_unit_test/smart_device_rev_a/libsdk_unit_test.a(gpt_test.o)
                                                  /home/leon/git/swp-report/iMX6_Platform_SDK/output/mx6sdl/sdk_unit_test/smart_device_rev_a/libsdk_unit_test.a(epit_test.o)
                                                  /home/leon/git/swp-report/iMX6_Platform_SDK/output/mx6sdl/sdk_unit_test/smart_device_rev_a/libsdk_unit_test.a(uart_test.o)
                                                  /home/leon/git/swp-report/iMX6_Platform_SDK/output/mx6sdl/sdk_unit_test/smart_device_rev_a/libsdk_unit_test.a(uart_loopback.o)
                                                  /home/leon/git/swp-report/iMX6_Platform_SDK/output/mx6sdl/sdk_unit_test/smart_device_rev_a/libsdk_unit_test.a(spi_lpb.o)
                                                  /home/leon/git/swp-report/iMX6_Platform_SDK/output/mx6sdl/sdk_unit_test/smart_device_rev_a/libsdk_unit_test.a(sdma_test.o)
                                                  /home/leon/git/swp-report/iMX6_Platform_SDK/output/mx6sdl/sdk_unit_test/smart_device_rev_a/libsdk_unit_test.a(tempmon_test.o)
                                                  /home/leon/git/swp-report/iMX6_Platform_SDK/output/mx6sdl/sdk_unit_test/smart_device_rev_a/libsdk_unit_test.a(imx6_i2c_device.o)
                                                  /home/leon/git/swp-report/iMX6_Platform_SDK/output/mx6sdl/sdk_unit_test/smart_device_rev_a/libsdk_unit_test.a(i2c_test.o)
                                                  /home/leon/git/swp-report/iMX6_Platform_SDK/output/mx6sdl/sdk_unit_test/smart_device_rev_a/libsdk_unit_test.a(snvs_srtc_test.o)
                                                  /home/leon/git/swp-report/iMX6_Platform_SDK/output/mx6sdl/sdk_unit_test/smart_device_rev_a/libsdk_unit_test.a(snvs_rtc_test.o)
                                                  /home/leon/git/swp-report/iMX6_Platform_SDK/output/mx6sdl/sdk_unit_test/smart_device_rev_a/libsdk_unit_test.a(ocotp_test.o)
                                                  /home/leon/git/swp-report/iMX6_Platform_SDK/output/mx6sdl/sdk_unit_test/smart_device_rev_a/libsdk_unit_test.a(gic_test.o)
                                                  /home/leon/git/swp-report/iMX6_Platform_SDK/output/mx6sdl/sdk_unit_test/smart_device_rev_a/libsdk_unit_test.a(audio_test.o)
                                                  /home/leon/git/swp-report/iMX6_Platform_SDK/output/mx6sdl/sdk_unit_test/smart_device_rev_a/libsdk_unit_test.a(multicore_test.o)
                                                  /home/leon/git/swp-report/iMX6_Platform_SDK/output/mx6sdl/sdk_unit_test/smart_device_rev_a/libsdk_unit_test.a(cpu_wp_test.o)
                                                  /home/leon/git/swp-report/iMX6_Platform_SDK/output/mx6sdl/lib/libsdk.a(abort_handler.o)
                                                  /home/leon/git/swp-report/iMX6_Platform_SDK/output/mx6sdl/lib/libsdk.a(interrupt.o)
                                                  /home/leon/git/swp-report/iMX6_Platform_SDK/output/mx6sdl/lib/libsdk.a(board_id.o)
                                                  /home/leon/git/swp-report/iMX6_Platform_SDK/output/mx6sdl/lib/libsdk.a(text_color.o)
                                                  /home/leon/git/swp-report/iMX6_Platform_SDK/output/mx6sdl/lib/libsdk.a(system_util.o)
                                                  /home/leon/git/swp-report/iMX6_Platform_SDK/output/mx6sdl/lib/libsdk.a(menu.o)
                                                  /home/leon/git/swp-report/iMX6_Platform_SDK/output/mx6sdl/sdk_unit_test/smart_device_rev_a/obj/apps/common/print_version.o
                                                  /home/leon/git/swp-report/iMX6_Platform_SDK/output/mx6sdl/sdk_unit_test/smart_device_rev_a/obj/apps/common/print_clock_info.o
printf_color                                      /home/leon/git/swp-report/iMX6_Platform_SDK/output/mx6sdl/lib/libsdk.a(text_color.o)
                                                  /home/leon/git/swp-report/iMX6_Platform_SDK/output/mx6sdl/lib/libsdk.a(system_util.o)
                                                  /home/leon/git/swp-report/iMX6_Platform_SDK/output/mx6sdl/lib/libsdk.a(menu.o)
putc                                              /home/leon/riotboard/arm-2012.09/bin/../arm-none-eabi/lib//libc.a(lib_a-putc.o)
pwm1_iomux_config                                 /home/leon/git/swp-report/iMX6_Platform_SDK/output/mx6sdl/lib/libboard_smart_device_rev_a.a(pwm1_iomux_config.o)
                                                  /home/leon/git/swp-report/iMX6_Platform_SDK/output/mx6sdl/lib/libboard_smart_device_rev_a.a(pwm_iomux_config.o)
                                                  /home/leon/git/swp-report/iMX6_Platform_SDK/output/mx6sdl/lib/libboard_smart_device_rev_a.a(iomux_config.o)
pwm2_iomux_config                                 /home/leon/git/swp-report/iMX6_Platform_SDK/output/mx6sdl/lib/libboard_smart_device_rev_a.a(iomux_config.o)
                                                  /home/leon/git/swp-report/iMX6_Platform_SDK/output/mx6sdl/lib/libboard_smart_device_rev_a.a(pwm_iomux_config.o)
pwm3_iomux_config                                 /home/leon/git/swp-report/iMX6_Platform_SDK/output/mx6sdl/lib/libboard_smart_device_rev_a.a(iomux_config.o)
                                                  /home/leon/git/swp-report/iMX6_Platform_SDK/output/mx6sdl/lib/libboard_smart_device_rev_a.a(pwm_iomux_config.o)
pwm4_iomux_config                                 /home/leon/git/swp-report/iMX6_Platform_SDK/output/mx6sdl/lib/libboard_smart_device_rev_a.a(iomux_config.o)
                                                  /home/leon/git/swp-report/iMX6_Platform_SDK/output/mx6sdl/lib/libboard_smart_device_rev_a.a(pwm_iomux_config.o)
pwm_clear_int_status                              /home/leon/git/swp-report/iMX6_Platform_SDK/output/mx6sdl/lib/libsdk.a(pwm.o)
pwm_disable                                       /home/leon/git/swp-report/iMX6_Platform_SDK/output/mx6sdl/lib/libsdk.a(pwm.o)
                                                  /home/leon/git/swp-report/iMX6_Platform_SDK/output/mx6sdl/sdk_unit_test/smart_device_rev_a/libsdk_unit_test.a(pwm_output.o)
pwm_enable                                        /home/leon/git/swp-report/iMX6_Platform_SDK/output/mx6sdl/lib/libsdk.a(pwm.o)
                                                  /home/leon/git/swp-report/iMX6_Platform_SDK/output/mx6sdl/sdk_unit_test/smart_device_rev_a/libsdk_unit_test.a(pwm_output.o)
pwm_free_interrupt                                /home/leon/git/swp-report/iMX6_Platform_SDK/output/mx6sdl/lib/libsdk.a(pwm.o)
pwm_get_clock_freq                                /home/leon/git/swp-report/iMX6_Platform_SDK/output/mx6sdl/lib/libsdk.a(pwm.o)
                                                  /home/leon/git/swp-report/iMX6_Platform_SDK/output/mx6sdl/sdk_unit_test/smart_device_rev_a/libsdk_unit_test.a(pwm_output.o)
pwm_init                                          /home/leon/git/swp-report/iMX6_Platform_SDK/output/mx6sdl/lib/libsdk.a(pwm.o)
                                                  /home/leon/git/swp-report/iMX6_Platform_SDK/output/mx6sdl/sdk_unit_test/smart_device_rev_a/libsdk_unit_test.a(pwm_output.o)
pwm_int_test_end                                  /home/leon/git/swp-report/iMX6_Platform_SDK/output/mx6sdl/lib/libsdk.a(pwm.o)
pwm_iomux_config                                  /home/leon/git/swp-report/iMX6_Platform_SDK/output/mx6sdl/lib/libboard_smart_device_rev_a.a(pwm_iomux_config.o)
                                                  /home/leon/git/swp-report/iMX6_Platform_SDK/output/mx6sdl/sdk_unit_test/smart_device_rev_a/libsdk_unit_test.a(pwm_output.o)
pwm_isr_test_end                                  /home/leon/git/swp-report/iMX6_Platform_SDK/output/mx6sdl/lib/libsdk.a(pwm.o)
pwm_output_test                                   /home/leon/git/swp-report/iMX6_Platform_SDK/output/mx6sdl/sdk_unit_test/smart_device_rev_a/libsdk_unit_test.a(pwm_output.o)
                                                  /home/leon/git/swp-report/iMX6_Platform_SDK/output/mx6sdl/sdk_unit_test/smart_device_rev_a/libsdk_unit_test.a(pwm_test.o)
pwm_setup_interrupt                               /home/leon/git/swp-report/iMX6_Platform_SDK/output/mx6sdl/lib/libsdk.a(pwm.o)
pwm_test                                          /home/leon/git/swp-report/iMX6_Platform_SDK/output/mx6sdl/sdk_unit_test/smart_device_rev_a/libsdk_unit_test.a(pwm_test.o)
                                                  /home/leon/git/swp-report/iMX6_Platform_SDK/output/mx6sdl/sdk_unit_test/smart_device_rev_a/obj/apps/sdk_unit_test/src/all_test.o
qf_Descriptor                                     /home/leon/git/swp-report/iMX6_Platform_SDK/output/mx6sdl/sdk_unit_test/smart_device_rev_a/libsdk_unit_test.a(usb0_device_mouse_test.o)
raise                                             /home/leon/riotboard/arm-2012.09/bin/../arm-none-eabi/lib//libc.a(lib_a-signal.o)
                                                  /home/leon/riotboard/arm-2012.09/bin/../arm-none-eabi/lib//libc.a(lib_a-abort.o)
read_input_string                                 /home/leon/git/swp-report/iMX6_Platform_SDK/output/mx6sdl/lib/libsdk.a(system_util.o)
read_int                                          /home/leon/git/swp-report/iMX6_Platform_SDK/output/mx6sdl/lib/libsdk.a(system_util.o)
                                                  /home/leon/git/swp-report/iMX6_Platform_SDK/output/mx6sdl/sdk_unit_test/smart_device_rev_a/libsdk_unit_test.a(pwm_output.o)
                                                  /home/leon/git/swp-report/iMX6_Platform_SDK/output/mx6sdl/sdk_unit_test/smart_device_rev_a/libsdk_unit_test.a(tempmon_test.o)
read_usdhc_adma_mode                              /home/leon/git/swp-report/iMX6_Platform_SDK/output/mx6sdl/lib/libsdk.a(usdhc.o)
                                                  /home/leon/git/swp-report/iMX6_Platform_SDK/output/mx6sdl/lib/libsdk.a(usdhc_host.o)
read_usdhc_intr_mode                              /home/leon/git/swp-report/iMX6_Platform_SDK/output/mx6sdl/lib/libsdk.a(usdhc.o)
                                                  /home/leon/git/swp-report/iMX6_Platform_SDK/output/mx6sdl/lib/libsdk.a(usdhc_host.o)
                                                  /home/leon/git/swp-report/iMX6_Platform_SDK/output/mx6sdl/sdk_unit_test/smart_device_rev_a/libsdk_unit_test.a(usdhc_test.o)
realloc                                           /home/leon/riotboard/arm-2012.09/bin/../arm-none-eabi/lib//libc.a(lib_a-realloc.o)
                                                  /home/leon/riotboard/arm-2012.09/bin/../arm-none-eabi/lib//libstdc++.a(cp-demangle.o)
                                                  /home/leon/git/swp-report/iMX6_Platform_SDK/output/mx6sdl/lib/libsdk.a(system_util.o)
register_interrupt_routine                        /home/leon/git/swp-report/iMX6_Platform_SDK/output/mx6sdl/lib/libsdk.a(interrupt.o)
                                                  /home/leon/git/swp-report/iMX6_Platform_SDK/output/mx6sdl/lib/libsdk.a(usdhc.o)
                                                  /home/leon/git/swp-report/iMX6_Platform_SDK/output/mx6sdl/lib/libsdk.a(gpt.o)
                                                  /home/leon/git/swp-report/iMX6_Platform_SDK/output/mx6sdl/lib/libsdk.a(tempmon.o)
                                                  /home/leon/git/swp-report/iMX6_Platform_SDK/output/mx6sdl/lib/libsdk.a(sdma.o)
                                                  /home/leon/git/swp-report/iMX6_Platform_SDK/output/mx6sdl/lib/libsdk.a(srtc.o)
                                                  /home/leon/git/swp-report/iMX6_Platform_SDK/output/mx6sdl/lib/libsdk.a(rtc.o)
                                                  /home/leon/git/swp-report/iMX6_Platform_SDK/output/mx6sdl/lib/libsdk.a(pwm.o)
                                                  /home/leon/git/swp-report/iMX6_Platform_SDK/output/mx6sdl/lib/libsdk.a(pmu_driver.o)
                                                  /home/leon/git/swp-report/iMX6_Platform_SDK/output/mx6sdl/lib/libsdk.a(keypad_port.o)
                                                  /home/leon/git/swp-report/iMX6_Platform_SDK/output/mx6sdl/lib/libsdk.a(ipu_common.o)
                                                  /home/leon/git/swp-report/iMX6_Platform_SDK/output/mx6sdl/lib/libsdk.a(imx_i2c.o)
                                                  /home/leon/git/swp-report/iMX6_Platform_SDK/output/mx6sdl/sdk_unit_test/smart_device_rev_a/libsdk_unit_test.a(hdmi_test.o)
                                                  /home/leon/git/swp-report/iMX6_Platform_SDK/output/mx6sdl/sdk_unit_test/smart_device_rev_a/libsdk_unit_test.a(gic_test.o)
                                                  /home/leon/git/swp-report/iMX6_Platform_SDK/output/mx6sdl/sdk_unit_test/smart_device_rev_a/libsdk_unit_test.a(multicore_test.o)
                                                  /home/leon/git/swp-report/iMX6_Platform_SDK/output/mx6sdl/lib/libsdk.a(epit.o)
                                                  /home/leon/git/swp-report/iMX6_Platform_SDK/output/mx6sdl/lib/libsdk.a(imx_uart.o)
res_num                                           /home/leon/git/swp-report/iMX6_Platform_SDK/output/mx6sdl/sdk_unit_test/smart_device_rev_a/libsdk_unit_test.a(pcie_test_rc.o)
reset_usb_hub                                     /home/leon/git/swp-report/iMX6_Platform_SDK/output/mx6sdl/lib/libboard_smart_device_rev_a.a(board_usb.o)
restore_core_regs                                 /home/leon/riotboard/arm-2012.09/bin/../lib/gcc/arm-none-eabi/4.7.2//libgcc.a(libunwind.o)
                                                  /home/leon/riotboard/arm-2012.09/bin/../lib/gcc/arm-none-eabi/4.7.2//libgcc.a(unwind-arm.o)
rtc_deinit                                        /home/leon/git/swp-report/iMX6_Platform_SDK/output/mx6sdl/lib/libsdk.a(rtc.o)
                                                  /home/leon/git/swp-report/iMX6_Platform_SDK/output/mx6sdl/sdk_unit_test/smart_device_rev_a/libsdk_unit_test.a(snvs_rtc_test.o)
rtc_disable_periodic_timer                        /home/leon/git/swp-report/iMX6_Platform_SDK/output/mx6sdl/lib/libsdk.a(rtc.o)
rtc_init                                          /home/leon/git/swp-report/iMX6_Platform_SDK/output/mx6sdl/lib/libsdk.a(rtc.o)
                                                  /home/leon/git/swp-report/iMX6_Platform_SDK/output/mx6sdl/sdk_unit_test/smart_device_rev_a/libsdk_unit_test.a(snvs_rtc_test.o)
rtc_setup_onetime_timer                           /home/leon/git/swp-report/iMX6_Platform_SDK/output/mx6sdl/lib/libsdk.a(rtc.o)
                                                  /home/leon/git/swp-report/iMX6_Platform_SDK/output/mx6sdl/sdk_unit_test/smart_device_rev_a/libsdk_unit_test.a(snvs_rtc_test.o)
rtc_setup_periodic_timer                          /home/leon/git/swp-report/iMX6_Platform_SDK/output/mx6sdl/lib/libsdk.a(rtc.o)
                                                  /home/leon/git/swp-report/iMX6_Platform_SDK/output/mx6sdl/sdk_unit_test/smart_device_rev_a/libsdk_unit_test.a(snvs_rtc_test.o)
run_test                                          /home/leon/git/swp-report/iMX6_Platform_SDK/output/mx6sdl/sdk_unit_test/smart_device_rev_a/obj/apps/sdk_unit_test/src/all_test.o
scalbnf                                           /home/leon/riotboard/arm-2012.09/bin/../arm-none-eabi/lib//libm.a(lib_a-sf_scalbn.o)
                                                  /home/leon/riotboard/arm-2012.09/bin/../arm-none-eabi/lib//libm.a(lib_a-kf_rem_pio2.o)
script_info                                       /home/leon/git/swp-report/iMX6_Platform_SDK/output/mx6sdl/lib/libsdk.a(sdma_script_info.o)
                                                  /home/leon/git/swp-report/iMX6_Platform_SDK/output/mx6sdl/lib/libsdk.a(sdma.o)
scu_disable_maintenance_broadcast                 /home/leon/git/swp-report/iMX6_Platform_SDK/output/mx6sdl/lib/libsdk.a(cortexA9.o)
scu_enable                                        /home/leon/git/swp-report/iMX6_Platform_SDK/output/mx6sdl/lib/libsdk.a(cortexA9.o)
scu_enable_maintenance_broadcast                  /home/leon/git/swp-report/iMX6_Platform_SDK/output/mx6sdl/lib/libsdk.a(cortexA9.o)
scu_get_cpus_in_smp                               /home/leon/git/swp-report/iMX6_Platform_SDK/output/mx6sdl/lib/libsdk.a(cortexA9.o)
scu_join_smp                                      /home/leon/git/swp-report/iMX6_Platform_SDK/output/mx6sdl/lib/libsdk.a(cortexA9.o)
scu_leave_smp                                     /home/leon/git/swp-report/iMX6_Platform_SDK/output/mx6sdl/lib/libsdk.a(cortexA9.o)
scu_secure_invalidate                             /home/leon/git/swp-report/iMX6_Platform_SDK/output/mx6sdl/lib/libsdk.a(cortexA9.o)
sd_if_cmd_arg                                     /home/leon/git/swp-report/iMX6_Platform_SDK/output/mx6sdl/lib/libsdk.a(usdhc_sd.o)
sd_init                                           /home/leon/git/swp-report/iMX6_Platform_SDK/output/mx6sdl/lib/libsdk.a(usdhc_sd.o)
                                                  /home/leon/git/swp-report/iMX6_Platform_SDK/output/mx6sdl/lib/libsdk.a(usdhc.o)
sd_ocr_value                                      /home/leon/git/swp-report/iMX6_Platform_SDK/output/mx6sdl/lib/libsdk.a(usdhc_sd.o)
sd_voltage_validation                             /home/leon/git/swp-report/iMX6_Platform_SDK/output/mx6sdl/lib/libsdk.a(usdhc_sd.o)
                                                  /home/leon/git/swp-report/iMX6_Platform_SDK/output/mx6sdl/lib/libsdk.a(usdhc.o)
sdma_channel_isr_attach                           /home/leon/git/swp-report/iMX6_Platform_SDK/output/mx6sdl/lib/libsdk.a(sdma.o)
                                                  /home/leon/git/swp-report/iMX6_Platform_SDK/output/mx6sdl/sdk_unit_test/smart_device_rev_a/libsdk_unit_test.a(uart_loopback.o)
sdma_channel_release                              /home/leon/git/swp-report/iMX6_Platform_SDK/output/mx6sdl/lib/libsdk.a(sdma.o)
                                                  /home/leon/git/swp-report/iMX6_Platform_SDK/output/mx6sdl/sdk_unit_test/smart_device_rev_a/libsdk_unit_test.a(mem_2_mem.o)
                                                  /home/leon/git/swp-report/iMX6_Platform_SDK/output/mx6sdl/sdk_unit_test/smart_device_rev_a/libsdk_unit_test.a(uart_loopback.o)
                                                  /home/leon/git/swp-report/iMX6_Platform_SDK/output/mx6sdl/sdk_unit_test/smart_device_rev_a/libsdk_unit_test.a(spi_lpb.o)
sdma_channel_request                              /home/leon/git/swp-report/iMX6_Platform_SDK/output/mx6sdl/lib/libsdk.a(sdma.o)
                                                  /home/leon/git/swp-report/iMX6_Platform_SDK/output/mx6sdl/sdk_unit_test/smart_device_rev_a/libsdk_unit_test.a(mem_2_mem.o)
                                                  /home/leon/git/swp-report/iMX6_Platform_SDK/output/mx6sdl/sdk_unit_test/smart_device_rev_a/libsdk_unit_test.a(uart_loopback.o)
                                                  /home/leon/git/swp-report/iMX6_Platform_SDK/output/mx6sdl/sdk_unit_test/smart_device_rev_a/libsdk_unit_test.a(spi_lpb.o)
sdma_channel_start                                /home/leon/git/swp-report/iMX6_Platform_SDK/output/mx6sdl/lib/libsdk.a(sdma.o)
                                                  /home/leon/git/swp-report/iMX6_Platform_SDK/output/mx6sdl/sdk_unit_test/smart_device_rev_a/libsdk_unit_test.a(mem_2_mem.o)
                                                  /home/leon/git/swp-report/iMX6_Platform_SDK/output/mx6sdl/sdk_unit_test/smart_device_rev_a/libsdk_unit_test.a(uart_loopback.o)
                                                  /home/leon/git/swp-report/iMX6_Platform_SDK/output/mx6sdl/sdk_unit_test/smart_device_rev_a/libsdk_unit_test.a(spi_lpb.o)
sdma_channel_status                               /home/leon/git/swp-report/iMX6_Platform_SDK/output/mx6sdl/lib/libsdk.a(sdma.o)
                                                  /home/leon/git/swp-report/iMX6_Platform_SDK/output/mx6sdl/sdk_unit_test/smart_device_rev_a/libsdk_unit_test.a(mem_2_mem.o)
                                                  /home/leon/git/swp-report/iMX6_Platform_SDK/output/mx6sdl/sdk_unit_test/smart_device_rev_a/libsdk_unit_test.a(uart_loopback.o)
                                                  /home/leon/git/swp-report/iMX6_Platform_SDK/output/mx6sdl/sdk_unit_test/smart_device_rev_a/libsdk_unit_test.a(spi_lpb.o)
sdma_channel_stop                                 /home/leon/git/swp-report/iMX6_Platform_SDK/output/mx6sdl/lib/libsdk.a(sdma.o)
                                                  /home/leon/git/swp-report/iMX6_Platform_SDK/output/mx6sdl/sdk_unit_test/smart_device_rev_a/libsdk_unit_test.a(mem_2_mem.o)
                                                  /home/leon/git/swp-report/iMX6_Platform_SDK/output/mx6sdl/sdk_unit_test/smart_device_rev_a/libsdk_unit_test.a(uart_loopback.o)
                                                  /home/leon/git/swp-report/iMX6_Platform_SDK/output/mx6sdl/sdk_unit_test/smart_device_rev_a/libsdk_unit_test.a(spi_lpb.o)
sdma_deinit                                       /home/leon/git/swp-report/iMX6_Platform_SDK/output/mx6sdl/lib/libsdk.a(sdma.o)
                                                  /home/leon/git/swp-report/iMX6_Platform_SDK/output/mx6sdl/sdk_unit_test/smart_device_rev_a/libsdk_unit_test.a(mem_2_mem.o)
                                                  /home/leon/git/swp-report/iMX6_Platform_SDK/output/mx6sdl/sdk_unit_test/smart_device_rev_a/libsdk_unit_test.a(uart_loopback.o)
                                                  /home/leon/git/swp-report/iMX6_Platform_SDK/output/mx6sdl/sdk_unit_test/smart_device_rev_a/libsdk_unit_test.a(spi_lpb.o)
sdma_init                                         /home/leon/git/swp-report/iMX6_Platform_SDK/output/mx6sdl/lib/libsdk.a(sdma.o)
                                                  /home/leon/git/swp-report/iMX6_Platform_SDK/output/mx6sdl/sdk_unit_test/smart_device_rev_a/libsdk_unit_test.a(mem_2_mem.o)
                                                  /home/leon/git/swp-report/iMX6_Platform_SDK/output/mx6sdl/sdk_unit_test/smart_device_rev_a/libsdk_unit_test.a(uart_loopback.o)
                                                  /home/leon/git/swp-report/iMX6_Platform_SDK/output/mx6sdl/sdk_unit_test/smart_device_rev_a/libsdk_unit_test.a(spi_lpb.o)
sdma_iomux_config                                 /home/leon/git/swp-report/iMX6_Platform_SDK/output/mx6sdl/lib/libboard_smart_device_rev_a.a(iomux_config.o)
sdma_lookup_script                                /home/leon/git/swp-report/iMX6_Platform_SDK/output/mx6sdl/lib/libsdk.a(sdma.o)
                                                  /home/leon/git/swp-report/iMX6_Platform_SDK/output/mx6sdl/sdk_unit_test/smart_device_rev_a/libsdk_unit_test.a(mem_2_mem.o)
                                                  /home/leon/git/swp-report/iMX6_Platform_SDK/output/mx6sdl/sdk_unit_test/smart_device_rev_a/libsdk_unit_test.a(uart_loopback.o)
                                                  /home/leon/git/swp-report/iMX6_Platform_SDK/output/mx6sdl/sdk_unit_test/smart_device_rev_a/libsdk_unit_test.a(spi_lpb.o)
sdma_setup_interrupt                              /home/leon/git/swp-report/iMX6_Platform_SDK/output/mx6sdl/lib/libsdk.a(sdma.o)
                                                  /home/leon/git/swp-report/iMX6_Platform_SDK/output/mx6sdl/sdk_unit_test/smart_device_rev_a/libsdk_unit_test.a(uart_loopback.o)
sdma_test                                         /home/leon/git/swp-report/iMX6_Platform_SDK/output/mx6sdl/sdk_unit_test/smart_device_rev_a/libsdk_unit_test.a(sdma_test.o)
                                                  /home/leon/git/swp-report/iMX6_Platform_SDK/output/mx6sdl/sdk_unit_test/smart_device_rev_a/obj/apps/sdk_unit_test/src/all_test.o
search_panel                                      /home/leon/git/swp-report/iMX6_Platform_SDK/output/mx6sdl/lib/libsdk.a(ips_disp_panel.o)
                                                  /home/leon/git/swp-report/iMX6_Platform_SDK/output/mx6sdl/sdk_unit_test/smart_device_rev_a/libsdk_unit_test.a(sensor_capture.o)
                                                  /home/leon/git/swp-report/iMX6_Platform_SDK/output/mx6sdl/sdk_unit_test/smart_device_rev_a/libsdk_unit_test.a(csi_test_mode.o)
                                                  /home/leon/git/swp-report/iMX6_Platform_SDK/output/mx6sdl/sdk_unit_test/smart_device_rev_a/libsdk_unit_test.a(ips_test.o)
                                                  /home/leon/git/swp-report/iMX6_Platform_SDK/output/mx6sdl/sdk_unit_test/smart_device_rev_a/libsdk_unit_test.a(ips_display.o)
sensor_af_trigger                                 /home/leon/git/swp-report/iMX6_Platform_SDK/output/mx6sdl/lib/libsdk.a(smd_sensor.o)
                                                  /home/leon/git/swp-report/iMX6_Platform_SDK/output/mx6sdl/sdk_unit_test/smart_device_rev_a/libsdk_unit_test.a(sensor_capture.o)
sensor_autofocus_init                             /home/leon/git/swp-report/iMX6_Platform_SDK/output/mx6sdl/lib/libsdk.a(smd_sensor.o)
                                                  /home/leon/git/swp-report/iMX6_Platform_SDK/output/mx6sdl/sdk_unit_test/smart_device_rev_a/libsdk_unit_test.a(sensor_capture.o)
sensor_capture                                    /home/leon/git/swp-report/iMX6_Platform_SDK/output/mx6sdl/sdk_unit_test/smart_device_rev_a/libsdk_unit_test.a(sensor_capture.o)
                                                  /home/leon/git/swp-report/iMX6_Platform_SDK/output/mx6sdl/sdk_unit_test/smart_device_rev_a/libsdk_unit_test.a(camera_test.o)
sensor_clock_setting                              /home/leon/git/swp-report/iMX6_Platform_SDK/output/mx6sdl/lib/libboard_smart_device_rev_a.a(board_camera.o)
                                                  /home/leon/git/swp-report/iMX6_Platform_SDK/output/mx6sdl/lib/libsdk.a(smd_sensor.o)
sensor_config                                     /home/leon/git/swp-report/iMX6_Platform_SDK/output/mx6sdl/lib/libsdk.a(smd_sensor.o)
                                                  /home/leon/git/swp-report/iMX6_Platform_SDK/output/mx6sdl/sdk_unit_test/smart_device_rev_a/libsdk_unit_test.a(sensor_capture.o)
sensor_init                                       /home/leon/git/swp-report/iMX6_Platform_SDK/output/mx6sdl/lib/libsdk.a(smd_sensor.o)
sensor_reset                                      /home/leon/git/swp-report/iMX6_Platform_SDK/output/mx6sdl/lib/libboard_smart_device_rev_a.a(board_camera.o)
                                                  /home/leon/git/swp-report/iMX6_Platform_SDK/output/mx6sdl/lib/libsdk.a(smd_sensor.o)
sensor_search                                     /home/leon/git/swp-report/iMX6_Platform_SDK/output/mx6sdl/lib/libsdk.a(smd_sensor.o)
                                                  /home/leon/git/swp-report/iMX6_Platform_SDK/output/mx6sdl/sdk_unit_test/smart_device_rev_a/libsdk_unit_test.a(sensor_capture.o)
sensor_standby                                    /home/leon/git/swp-report/iMX6_Platform_SDK/output/mx6sdl/lib/libboard_smart_device_rev_a.a(board_camera.o)
                                                  /home/leon/git/swp-report/iMX6_Platform_SDK/output/mx6sdl/sdk_unit_test/smart_device_rev_a/libsdk_unit_test.a(sensor_capture.o)
set_background_margin                             /home/leon/git/swp-report/iMX6_Platform_SDK/output/mx6sdl/sdk_unit_test/smart_device_rev_a/libsdk_unit_test.a(ipu_image.o)
                                                  /home/leon/git/swp-report/iMX6_Platform_SDK/output/mx6sdl/sdk_unit_test/smart_device_rev_a/libsdk_unit_test.a(ips_resize.o)
set_card_access_mode                              /home/leon/git/swp-report/iMX6_Platform_SDK/output/mx6sdl/lib/libsdk.a(usdhc.o)
                                                  /home/leon/git/swp-report/iMX6_Platform_SDK/output/mx6sdl/sdk_unit_test/smart_device_rev_a/libsdk_unit_test.a(usdhc_test.o)
setlocale                                         /home/leon/riotboard/arm-2012.09/bin/../arm-none-eabi/lib//libc.a(lib_a-locale.o)
show_board_id                                     /home/leon/git/swp-report/iMX6_Platform_SDK/output/mx6sdl/lib/libsdk.a(board_id.o)
show_ddr_config                                   /home/leon/git/swp-report/iMX6_Platform_SDK/output/mx6sdl/sdk_unit_test/smart_device_rev_a/obj/apps/common/print_clock_info.o
                                                  /home/leon/git/swp-report/iMX6_Platform_SDK/output/mx6sdl/sdk_unit_test/smart_device_rev_a/obj/apps/sdk_unit_test/src/unit_test_main.o
show_freq                                         /home/leon/git/swp-report/iMX6_Platform_SDK/output/mx6sdl/sdk_unit_test/smart_device_rev_a/obj/apps/common/print_clock_info.o
                                                  /home/leon/git/swp-report/iMX6_Platform_SDK/output/mx6sdl/sdk_unit_test/smart_device_rev_a/obj/apps/sdk_unit_test/src/unit_test_main.o
signal                                            /home/leon/riotboard/arm-2012.09/bin/../arm-none-eabi/lib//libc.a(lib_a-signal.o)
sinf                                              /home/leon/riotboard/arm-2012.09/bin/../arm-none-eabi/lib//libm.a(lib_a-sf_sin.o)
                                                  /home/leon/git/swp-report/iMX6_Platform_SDK/output/mx6sdl/sdk_unit_test/smart_device_rev_a/libsdk_unit_test.a(usb0_device_mouse_test.o)
sjc_iomux_config                                  /home/leon/git/swp-report/iMX6_Platform_SDK/output/mx6sdl/lib/libboard_smart_device_rev_a.a(sjc_iomux_config.o)
                                                  /home/leon/git/swp-report/iMX6_Platform_SDK/output/mx6sdl/lib/libboard_smart_device_rev_a.a(iomux_config.o)
snvs_deinit                                       /home/leon/git/swp-report/iMX6_Platform_SDK/output/mx6sdl/lib/libsdk.a(snvs.o)
                                                  /home/leon/git/swp-report/iMX6_Platform_SDK/output/mx6sdl/lib/libsdk.a(srtc.o)
                                                  /home/leon/git/swp-report/iMX6_Platform_SDK/output/mx6sdl/lib/libsdk.a(rtc.o)
snvs_init                                         /home/leon/git/swp-report/iMX6_Platform_SDK/output/mx6sdl/lib/libsdk.a(snvs.o)
                                                  /home/leon/git/swp-report/iMX6_Platform_SDK/output/mx6sdl/lib/libsdk.a(srtc.o)
                                                  /home/leon/git/swp-report/iMX6_Platform_SDK/output/mx6sdl/lib/libsdk.a(rtc.o)
snvs_iomux_config                                 /home/leon/git/swp-report/iMX6_Platform_SDK/output/mx6sdl/lib/libboard_smart_device_rev_a.a(iomux_config.o)
snvs_rtc_alarm                                    /home/leon/git/swp-report/iMX6_Platform_SDK/output/mx6sdl/lib/libsdk.a(snvs.o)
                                                  /home/leon/git/swp-report/iMX6_Platform_SDK/output/mx6sdl/lib/libsdk.a(rtc.o)
snvs_rtc_counter                                  /home/leon/git/swp-report/iMX6_Platform_SDK/output/mx6sdl/lib/libsdk.a(snvs.o)
                                                  /home/leon/git/swp-report/iMX6_Platform_SDK/output/mx6sdl/lib/libsdk.a(rtc.o)
snvs_rtc_interrupt_handler                        /home/leon/git/swp-report/iMX6_Platform_SDK/output/mx6sdl/lib/libsdk.a(rtc.o)
snvs_rtc_periodic_interrupt                       /home/leon/git/swp-report/iMX6_Platform_SDK/output/mx6sdl/lib/libsdk.a(snvs.o)
                                                  /home/leon/git/swp-report/iMX6_Platform_SDK/output/mx6sdl/lib/libsdk.a(rtc.o)
snvs_rtc_set_alarm_timeout                        /home/leon/git/swp-report/iMX6_Platform_SDK/output/mx6sdl/lib/libsdk.a(snvs.o)
                                                  /home/leon/git/swp-report/iMX6_Platform_SDK/output/mx6sdl/lib/libsdk.a(rtc.o)
snvs_rtc_set_counter                              /home/leon/git/swp-report/iMX6_Platform_SDK/output/mx6sdl/lib/libsdk.a(snvs.o)
                                                  /home/leon/git/swp-report/iMX6_Platform_SDK/output/mx6sdl/lib/libsdk.a(rtc.o)
snvs_rtc_setup_interrupt                          /home/leon/git/swp-report/iMX6_Platform_SDK/output/mx6sdl/lib/libsdk.a(rtc.o)
snvs_rtc_test                                     /home/leon/git/swp-report/iMX6_Platform_SDK/output/mx6sdl/sdk_unit_test/smart_device_rev_a/libsdk_unit_test.a(snvs_rtc_test.o)
                                                  /home/leon/git/swp-report/iMX6_Platform_SDK/output/mx6sdl/sdk_unit_test/smart_device_rev_a/obj/apps/sdk_unit_test/src/all_test.o
snvs_srtc_alarm                                   /home/leon/git/swp-report/iMX6_Platform_SDK/output/mx6sdl/lib/libsdk.a(snvs.o)
                                                  /home/leon/git/swp-report/iMX6_Platform_SDK/output/mx6sdl/lib/libsdk.a(srtc.o)
snvs_srtc_counter                                 /home/leon/git/swp-report/iMX6_Platform_SDK/output/mx6sdl/lib/libsdk.a(snvs.o)
                                                  /home/leon/git/swp-report/iMX6_Platform_SDK/output/mx6sdl/lib/libsdk.a(srtc.o)
snvs_srtc_interrupt_handler                       /home/leon/git/swp-report/iMX6_Platform_SDK/output/mx6sdl/lib/libsdk.a(srtc.o)
snvs_srtc_set_alarm_timeout                       /home/leon/git/swp-report/iMX6_Platform_SDK/output/mx6sdl/lib/libsdk.a(snvs.o)
                                                  /home/leon/git/swp-report/iMX6_Platform_SDK/output/mx6sdl/lib/libsdk.a(srtc.o)
snvs_srtc_set_counter                             /home/leon/git/swp-report/iMX6_Platform_SDK/output/mx6sdl/lib/libsdk.a(snvs.o)
                                                  /home/leon/git/swp-report/iMX6_Platform_SDK/output/mx6sdl/lib/libsdk.a(srtc.o)
snvs_srtc_setup_interrupt                         /home/leon/git/swp-report/iMX6_Platform_SDK/output/mx6sdl/lib/libsdk.a(srtc.o)
snvs_srtc_test                                    /home/leon/git/swp-report/iMX6_Platform_SDK/output/mx6sdl/sdk_unit_test/smart_device_rev_a/libsdk_unit_test.a(snvs_srtc_test.o)
                                                  /home/leon/git/swp-report/iMX6_Platform_SDK/output/mx6sdl/sdk_unit_test/smart_device_rev_a/obj/apps/sdk_unit_test/src/all_test.o
spdif_clk_cfg                                     /home/leon/git/swp-report/iMX6_Platform_SDK/output/mx6sdl/lib/libboard_smart_device_rev_a.a(board_audio.o)
spdif_get_tx_clk_freq                             /home/leon/git/swp-report/iMX6_Platform_SDK/output/mx6sdl/lib/libboard_smart_device_rev_a.a(board_audio.o)
spdif_iomux_config                                /home/leon/git/swp-report/iMX6_Platform_SDK/output/mx6sdl/lib/libboard_smart_device_rev_a.a(iomux_config.o)
spi_nor_erase_numonyx                             /home/leon/git/swp-report/iMX6_Platform_SDK/output/mx6sdl/sdk_unit_test/smart_device_rev_a/libsdk_unit_test.a(spi_nor_numonyx.o)
                                                  /home/leon/git/swp-report/iMX6_Platform_SDK/output/mx6sdl/sdk_unit_test/smart_device_rev_a/libsdk_unit_test.a(spi_test.o)
spi_nor_query_numonyx                             /home/leon/git/swp-report/iMX6_Platform_SDK/output/mx6sdl/sdk_unit_test/smart_device_rev_a/libsdk_unit_test.a(spi_nor_numonyx.o)
                                                  /home/leon/git/swp-report/iMX6_Platform_SDK/output/mx6sdl/sdk_unit_test/smart_device_rev_a/libsdk_unit_test.a(spi_test.o)
spi_nor_read_numonyx                              /home/leon/git/swp-report/iMX6_Platform_SDK/output/mx6sdl/sdk_unit_test/smart_device_rev_a/libsdk_unit_test.a(spi_nor_numonyx.o)
                                                  /home/leon/git/swp-report/iMX6_Platform_SDK/output/mx6sdl/sdk_unit_test/smart_device_rev_a/libsdk_unit_test.a(spi_test.o)
spi_nor_write_numonyx                             /home/leon/git/swp-report/iMX6_Platform_SDK/output/mx6sdl/sdk_unit_test/smart_device_rev_a/libsdk_unit_test.a(spi_nor_numonyx.o)
                                                  /home/leon/git/swp-report/iMX6_Platform_SDK/output/mx6sdl/sdk_unit_test/smart_device_rev_a/libsdk_unit_test.a(spi_test.o)
spi_test                                          /home/leon/git/swp-report/iMX6_Platform_SDK/output/mx6sdl/sdk_unit_test/smart_device_rev_a/libsdk_unit_test.a(spi_test.o)
                                                  /home/leon/git/swp-report/iMX6_Platform_SDK/output/mx6sdl/sdk_unit_test/smart_device_rev_a/obj/apps/sdk_unit_test/src/all_test.o
spinlock_init                                     /home/leon/git/swp-report/iMX6_Platform_SDK/output/mx6sdl/lib/libsdk.a(spinlock.o)
                                                  /home/leon/git/swp-report/iMX6_Platform_SDK/output/mx6sdl/lib/libsdk.a(keypad_port.o)
spinlock_is_locked                                /home/leon/git/swp-report/iMX6_Platform_SDK/output/mx6sdl/lib/libsdk.a(spinlock.o)
spinlock_lock                                     /home/leon/git/swp-report/iMX6_Platform_SDK/output/mx6sdl/lib/libsdk.a(spinlock_lock_unlock.o)
                                                  /home/leon/git/swp-report/iMX6_Platform_SDK/output/mx6sdl/lib/libsdk.a(keypad_port.o)
spinlock_unlock                                   /home/leon/git/swp-report/iMX6_Platform_SDK/output/mx6sdl/lib/libsdk.a(spinlock_lock_unlock.o)
                                                  /home/leon/git/swp-report/iMX6_Platform_SDK/output/mx6sdl/lib/libsdk.a(keypad_port.o)
sprintf                                           /home/leon/riotboard/arm-2012.09/bin/../arm-none-eabi/lib//libc.a(lib_a-sprintf.o)
                                                  /home/leon/riotboard/arm-2012.09/bin/../arm-none-eabi/lib//libstdc++.a(cp-demangle.o)
                                                  /home/leon/git/swp-report/iMX6_Platform_SDK/output/mx6sdl/sdk_unit_test/smart_device_rev_a/libsdk_unit_test.a(accelerometer_test.o)
                                                  /home/leon/git/swp-report/iMX6_Platform_SDK/output/mx6sdl/lib/libsdk.a(board_id.o)
src_iomux_config                                  /home/leon/git/swp-report/iMX6_Platform_SDK/output/mx6sdl/lib/libboard_smart_device_rev_a.a(iomux_config.o)
srtc_deinit                                       /home/leon/git/swp-report/iMX6_Platform_SDK/output/mx6sdl/lib/libsdk.a(srtc.o)
                                                  /home/leon/git/swp-report/iMX6_Platform_SDK/output/mx6sdl/sdk_unit_test/smart_device_rev_a/libsdk_unit_test.a(snvs_srtc_test.o)
srtc_init                                         /home/leon/git/swp-report/iMX6_Platform_SDK/output/mx6sdl/lib/libsdk.a(srtc.o)
                                                  /home/leon/git/swp-report/iMX6_Platform_SDK/output/mx6sdl/sdk_unit_test/smart_device_rev_a/libsdk_unit_test.a(snvs_srtc_test.o)
srtc_one_time_tick_callback                       /home/leon/git/swp-report/iMX6_Platform_SDK/output/mx6sdl/sdk_unit_test/smart_device_rev_a/libsdk_unit_test.a(snvs_srtc_test.o)
srtc_one_time_timer_test                          /home/leon/git/swp-report/iMX6_Platform_SDK/output/mx6sdl/sdk_unit_test/smart_device_rev_a/libsdk_unit_test.a(snvs_srtc_test.o)
srtc_setup_onetime_timer                          /home/leon/git/swp-report/iMX6_Platform_SDK/output/mx6sdl/lib/libsdk.a(srtc.o)
                                                  /home/leon/git/swp-report/iMX6_Platform_SDK/output/mx6sdl/sdk_unit_test/smart_device_rev_a/libsdk_unit_test.a(snvs_srtc_test.o)
std::bad_exception::what() const                  /home/leon/riotboard/arm-2012.09/bin/../arm-none-eabi/lib//libstdc++.a(eh_exception.o)
std::bad_exception::~bad_exception()              /home/leon/riotboard/arm-2012.09/bin/../arm-none-eabi/lib//libstdc++.a(eh_exception.o)
std::bad_exception::~bad_exception()              /home/leon/riotboard/arm-2012.09/bin/../arm-none-eabi/lib//libstdc++.a(eh_exception.o)
                                                  /home/leon/riotboard/arm-2012.09/bin/../arm-none-eabi/lib//libstdc++.a(eh_call.o)
std::bad_exception::~bad_exception()              /home/leon/riotboard/arm-2012.09/bin/../arm-none-eabi/lib//libstdc++.a(eh_exception.o)
std::exception::what() const                      /home/leon/riotboard/arm-2012.09/bin/../arm-none-eabi/lib//libstdc++.a(eh_exception.o)
std::exception::~exception()                      /home/leon/riotboard/arm-2012.09/bin/../arm-none-eabi/lib//libstdc++.a(eh_exception.o)
std::exception::~exception()                      /home/leon/riotboard/arm-2012.09/bin/../arm-none-eabi/lib//libstdc++.a(eh_exception.o)
std::exception::~exception()                      /home/leon/riotboard/arm-2012.09/bin/../arm-none-eabi/lib//libstdc++.a(eh_exception.o)
std::set_terminate(void (*)())                    /home/leon/riotboard/arm-2012.09/bin/../arm-none-eabi/lib//libstdc++.a(eh_terminate.o)
std::set_unexpected(void (*)())                   /home/leon/riotboard/arm-2012.09/bin/../arm-none-eabi/lib//libstdc++.a(eh_terminate.o)
std::terminate()                                  /home/leon/riotboard/arm-2012.09/bin/../arm-none-eabi/lib//libstdc++.a(eh_terminate.o)
                                                  /home/leon/riotboard/arm-2012.09/bin/../arm-none-eabi/lib//libstdc++.a(eh_catch.o)
                                                  /home/leon/riotboard/arm-2012.09/bin/../arm-none-eabi/lib//libstdc++.a(eh_personality.o)
                                                  /home/leon/riotboard/arm-2012.09/bin/../arm-none-eabi/lib//libstdc++.a(eh_alloc.o)
                                                  /home/leon/riotboard/arm-2012.09/bin/../arm-none-eabi/lib//libstdc++.a(eh_arm.o)
                                                  /home/leon/riotboard/arm-2012.09/bin/../arm-none-eabi/lib//libstdc++.a(eh_throw.o)
                                                  /home/leon/riotboard/arm-2012.09/bin/../arm-none-eabi/lib//libstdc++.a(eh_call.o)
                                                  /home/leon/riotboard/arm-2012.09/bin/../arm-none-eabi/lib//libstdc++.a(eh_unex_handler.o)
                                                  /home/leon/riotboard/arm-2012.09/bin/../arm-none-eabi/lib//libstdc++.a(pure.o)
std::type_info::__do_catch(std::type_info const*, void**, unsigned int) const /home/leon/riotboard/arm-2012.09/bin/../arm-none-eabi/lib//libstdc++.a(tinfo.o)
std::type_info::__do_upcast(__cxxabiv1::__class_type_info const*, void**) const /home/leon/riotboard/arm-2012.09/bin/../arm-none-eabi/lib//libstdc++.a(tinfo.o)
std::type_info::__is_function_p() const           /home/leon/riotboard/arm-2012.09/bin/../arm-none-eabi/lib//libstdc++.a(tinfo.o)
                                                  /home/leon/riotboard/arm-2012.09/bin/../arm-none-eabi/lib//libstdc++.a(class_type_info.o)
                                                  /home/leon/riotboard/arm-2012.09/bin/../arm-none-eabi/lib//libstdc++.a(si_class_type_info.o)
std::type_info::__is_pointer_p() const            /home/leon/riotboard/arm-2012.09/bin/../arm-none-eabi/lib//libstdc++.a(tinfo.o)
                                                  /home/leon/riotboard/arm-2012.09/bin/../arm-none-eabi/lib//libstdc++.a(class_type_info.o)
                                                  /home/leon/riotboard/arm-2012.09/bin/../arm-none-eabi/lib//libstdc++.a(si_class_type_info.o)
std::type_info::operator==(std::type_info const&) const /home/leon/riotboard/arm-2012.09/bin/../arm-none-eabi/lib//libstdc++.a(tinfo.o)
                                                  /home/leon/riotboard/arm-2012.09/bin/../arm-none-eabi/lib//libstdc++.a(class_type_info.o)
                                                  /home/leon/riotboard/arm-2012.09/bin/../arm-none-eabi/lib//libstdc++.a(si_class_type_info.o)
std::type_info::~type_info()                      /home/leon/riotboard/arm-2012.09/bin/../arm-none-eabi/lib//libstdc++.a(tinfo.o)
std::type_info::~type_info()                      /home/leon/riotboard/arm-2012.09/bin/../arm-none-eabi/lib//libstdc++.a(tinfo.o)
std::type_info::~type_info()                      /home/leon/riotboard/arm-2012.09/bin/../arm-none-eabi/lib//libstdc++.a(tinfo.o)
                                                  /home/leon/riotboard/arm-2012.09/bin/../arm-none-eabi/lib//libstdc++.a(class_type_info.o)
std::uncaught_exception()                         /home/leon/riotboard/arm-2012.09/bin/../arm-none-eabi/lib//libstdc++.a(eh_catch.o)
std::unexpected()                                 /home/leon/riotboard/arm-2012.09/bin/../arm-none-eabi/lib//libstdc++.a(eh_terminate.o)
                                                  /home/leon/riotboard/arm-2012.09/bin/../arm-none-eabi/lib//libstdc++.a(eh_personality.o)
                                                  /home/leon/riotboard/arm-2012.09/bin/../arm-none-eabi/lib//libstdc++.a(eh_call.o)
strcmp                                            /home/leon/riotboard/arm-2012.09/bin/../arm-none-eabi/lib//libc.a(lib_a-strcmp.o)
                                                  /home/leon/riotboard/arm-2012.09/bin/../arm-none-eabi/lib//libstdc++.a(tinfo.o)
                                                  /home/leon/riotboard/arm-2012.09/bin/../arm-none-eabi/lib//libstdc++.a(cp-demangle.o)
                                                  /home/leon/git/swp-report/iMX6_Platform_SDK/output/mx6sdl/lib/libboard_smart_device_rev_a.a(board_display.o)
                                                  /home/leon/git/swp-report/iMX6_Platform_SDK/output/mx6sdl/lib/libsdk.a(ipu_ic.o)
                                                  /home/leon/git/swp-report/iMX6_Platform_SDK/output/mx6sdl/lib/libsdk.a(ips_disp_panel.o)
                                                  /home/leon/riotboard/arm-2012.09/bin/../arm-none-eabi/lib//libc.a(lib_a-locale.o)
strlen                                            /home/leon/riotboard/arm-2012.09/bin/../arm-none-eabi/lib//libc.a(lib_a-strlen.o)
                                                  /home/leon/riotboard/arm-2012.09/bin/../arm-none-eabi/lib//libstdc++.a(cp-demangle.o)
                                                  /home/leon/git/swp-report/iMX6_Platform_SDK/output/mx6sdl/lib/libsdk.a(runtime_support.o)
                                                  /home/leon/riotboard/arm-2012.09/bin/../arm-none-eabi/lib//libc.a(lib_a-svfiprintf.o)
                                                  /home/leon/riotboard/arm-2012.09/bin/../arm-none-eabi/lib//libc.a(lib_a-vfprintf.o)
                                                  /home/leon/riotboard/arm-2012.09/bin/../arm-none-eabi/lib//libc.a(lib_a-vfiprintf.o)
                                                  /home/leon/riotboard/arm-2012.09/bin/../arm-none-eabi/lib//libc.a(lib_a-svfprintf.o)
                                                  /home/leon/riotboard/arm-2012.09/bin/../arm-none-eabi/lib//libc.a(lib_a-fputs.o)
                                                  /home/leon/git/swp-report/iMX6_Platform_SDK/output/mx6sdl/sdk_unit_test/smart_device_rev_a/libsdk_unit_test.a(accelerometer_test.o)
                                                  /home/leon/git/swp-report/iMX6_Platform_SDK/output/mx6sdl/lib/libsdk.a(menu.o)
strncasecmp                                       /home/leon/riotboard/arm-2012.09/bin/../arm-none-eabi/lib//libc.a(lib_a-strncasecmp.o)
                                                  /home/leon/git/swp-report/iMX6_Platform_SDK/output/mx6sdl/lib/libsdk.a(menu.o)
strncmp                                           /home/leon/riotboard/arm-2012.09/bin/../arm-none-eabi/lib//libc.a(lib_a-strncmp.o)
                                                  /home/leon/riotboard/arm-2012.09/bin/../arm-none-eabi/lib//libstdc++.a(cp-demangle.o)
swap32                                            /home/leon/git/swp-report/iMX6_Platform_SDK/output/mx6sdl/lib/libsdk.a(usb_common.o)
system_time_init                                  /home/leon/git/swp-report/iMX6_Platform_SDK/output/mx6sdl/lib/libsdk.a(timer.o)
                                                  /home/leon/git/swp-report/iMX6_Platform_SDK/output/mx6sdl/sdk_unit_test/smart_device_rev_a/obj/apps/common/platform_init.o
tempmon_disable_alarm                             /home/leon/git/swp-report/iMX6_Platform_SDK/output/mx6sdl/lib/libsdk.a(tempmon.o)
                                                  /home/leon/git/swp-report/iMX6_Platform_SDK/output/mx6sdl/sdk_unit_test/smart_device_rev_a/libsdk_unit_test.a(tempmon_test.o)
tempmon_get_temp                                  /home/leon/git/swp-report/iMX6_Platform_SDK/output/mx6sdl/lib/libsdk.a(tempmon.o)
                                                  /home/leon/git/swp-report/iMX6_Platform_SDK/output/mx6sdl/sdk_unit_test/smart_device_rev_a/libsdk_unit_test.a(tempmon_test.o)
tempmon_init                                      /home/leon/git/swp-report/iMX6_Platform_SDK/output/mx6sdl/lib/libsdk.a(tempmon.o)
                                                  /home/leon/git/swp-report/iMX6_Platform_SDK/output/mx6sdl/sdk_unit_test/smart_device_rev_a/libsdk_unit_test.a(tempmon_test.o)
tempmon_set_alarm                                 /home/leon/git/swp-report/iMX6_Platform_SDK/output/mx6sdl/lib/libsdk.a(tempmon.o)
                                                  /home/leon/git/swp-report/iMX6_Platform_SDK/output/mx6sdl/sdk_unit_test/smart_device_rev_a/libsdk_unit_test.a(tempmon_test.o)
tempmon_test                                      /home/leon/git/swp-report/iMX6_Platform_SDK/output/mx6sdl/sdk_unit_test/smart_device_rev_a/libsdk_unit_test.a(tempmon_test.o)
                                                  /home/leon/git/swp-report/iMX6_Platform_SDK/output/mx6sdl/sdk_unit_test/smart_device_rev_a/obj/apps/sdk_unit_test/src/all_test.o
tftlcd_backlight_en                               /home/leon/git/swp-report/iMX6_Platform_SDK/output/mx6sdl/lib/libboard_smart_device_rev_a.a(board_display.o)
                                                  /home/leon/git/swp-report/iMX6_Platform_SDK/output/mx6sdl/lib/libsdk.a(ips_disp_panel.o)
tftlcd_reset                                      /home/leon/git/swp-report/iMX6_Platform_SDK/output/mx6sdl/lib/libboard_smart_device_rev_a.a(board_display.o)
                                                  /home/leon/git/swp-report/iMX6_Platform_SDK/output/mx6sdl/lib/libsdk.a(ips_disp_panel.o)
time_get_microseconds                             /home/leon/git/swp-report/iMX6_Platform_SDK/output/mx6sdl/lib/libsdk.a(timer.o)
                                                  /home/leon/git/swp-report/iMX6_Platform_SDK/output/mx6sdl/lib/libsdk.a(runtime_support.o)
                                                  /home/leon/git/swp-report/iMX6_Platform_SDK/output/mx6sdl/sdk_unit_test/smart_device_rev_a/libsdk_unit_test.a(timer_test.o)
top_of_stacks                                     /home/leon/git/swp-report/iMX6_Platform_SDK/output/mx6sdl/lib/libsdk.a(startup.o)
trans_done                                        /home/leon/git/swp-report/iMX6_Platform_SDK/output/mx6sdl/sdk_unit_test/smart_device_rev_a/libsdk_unit_test.a(uart_loopback.o)
typeinfo for __cxxabiv1::__class_type_info        /home/leon/riotboard/arm-2012.09/bin/../arm-none-eabi/lib//libstdc++.a(class_type_info.o)
                                                  /home/leon/riotboard/arm-2012.09/bin/../arm-none-eabi/lib//libstdc++.a(si_class_type_info.o)
typeinfo for __cxxabiv1::__forced_unwind          /home/leon/riotboard/arm-2012.09/bin/../arm-none-eabi/lib//libstdc++.a(eh_exception.o)
                                                  /home/leon/riotboard/arm-2012.09/bin/../arm-none-eabi/lib//libstdc++.a(eh_arm.o)
typeinfo for __cxxabiv1::__foreign_exception      /home/leon/riotboard/arm-2012.09/bin/../arm-none-eabi/lib//libstdc++.a(eh_exception.o)
                                                  /home/leon/riotboard/arm-2012.09/bin/../arm-none-eabi/lib//libstdc++.a(eh_arm.o)
typeinfo for __cxxabiv1::__si_class_type_info     /home/leon/riotboard/arm-2012.09/bin/../arm-none-eabi/lib//libstdc++.a(si_class_type_info.o)
typeinfo for std::bad_exception                   /home/leon/riotboard/arm-2012.09/bin/../arm-none-eabi/lib//libstdc++.a(eh_exception.o)
                                                  /home/leon/riotboard/arm-2012.09/bin/../arm-none-eabi/lib//libstdc++.a(eh_call.o)
typeinfo for std::exception                       /home/leon/riotboard/arm-2012.09/bin/../arm-none-eabi/lib//libstdc++.a(eh_exception.o)
                                                  /home/leon/riotboard/arm-2012.09/bin/../arm-none-eabi/lib//libstdc++.a(vterminate.o)
typeinfo for std::type_info                       /home/leon/riotboard/arm-2012.09/bin/../arm-none-eabi/lib//libstdc++.a(tinfo.o)
                                                  /home/leon/riotboard/arm-2012.09/bin/../arm-none-eabi/lib//libstdc++.a(class_type_info.o)
typeinfo name for __cxxabiv1::__class_type_info   /home/leon/riotboard/arm-2012.09/bin/../arm-none-eabi/lib//libstdc++.a(class_type_info.o)
typeinfo name for __cxxabiv1::__forced_unwind     /home/leon/riotboard/arm-2012.09/bin/../arm-none-eabi/lib//libstdc++.a(eh_exception.o)
typeinfo name for __cxxabiv1::__foreign_exception /home/leon/riotboard/arm-2012.09/bin/../arm-none-eabi/lib//libstdc++.a(eh_exception.o)
typeinfo name for __cxxabiv1::__si_class_type_info /home/leon/riotboard/arm-2012.09/bin/../arm-none-eabi/lib//libstdc++.a(si_class_type_info.o)
typeinfo name for std::bad_exception              /home/leon/riotboard/arm-2012.09/bin/../arm-none-eabi/lib//libstdc++.a(eh_exception.o)
typeinfo name for std::exception                  /home/leon/riotboard/arm-2012.09/bin/../arm-none-eabi/lib//libstdc++.a(eh_exception.o)
typeinfo name for std::type_info                  /home/leon/riotboard/arm-2012.09/bin/../arm-none-eabi/lib//libstdc++.a(tinfo.o)
uart1_iomux_config                                /home/leon/git/swp-report/iMX6_Platform_SDK/output/mx6sdl/lib/libboard_smart_device_rev_a.a(uart1_iomux_config.o)
                                                  /home/leon/git/swp-report/iMX6_Platform_SDK/output/mx6sdl/lib/libboard_smart_device_rev_a.a(iomux_config.o)
                                                  /home/leon/git/swp-report/iMX6_Platform_SDK/output/mx6sdl/lib/libboard_smart_device_rev_a.a(uart_iomux_config.o)
uart2_iomux_config                                /home/leon/git/swp-report/iMX6_Platform_SDK/output/mx6sdl/lib/libboard_smart_device_rev_a.a(iomux_config.o)
                                                  /home/leon/git/swp-report/iMX6_Platform_SDK/output/mx6sdl/lib/libboard_smart_device_rev_a.a(uart_iomux_config.o)
uart3_iomux_config                                /home/leon/git/swp-report/iMX6_Platform_SDK/output/mx6sdl/lib/libboard_smart_device_rev_a.a(iomux_config.o)
                                                  /home/leon/git/swp-report/iMX6_Platform_SDK/output/mx6sdl/lib/libboard_smart_device_rev_a.a(uart_iomux_config.o)
uart4_iomux_config                                /home/leon/git/swp-report/iMX6_Platform_SDK/output/mx6sdl/lib/libboard_smart_device_rev_a.a(iomux_config.o)
                                                  /home/leon/git/swp-report/iMX6_Platform_SDK/output/mx6sdl/lib/libboard_smart_device_rev_a.a(uart_iomux_config.o)
uart5_iomux_config                                /home/leon/git/swp-report/iMX6_Platform_SDK/output/mx6sdl/lib/libboard_smart_device_rev_a.a(iomux_config.o)
                                                  /home/leon/git/swp-report/iMX6_Platform_SDK/output/mx6sdl/lib/libboard_smart_device_rev_a.a(uart_iomux_config.o)
uart5_trans_isr                                   /home/leon/git/swp-report/iMX6_Platform_SDK/output/mx6sdl/sdk_unit_test/smart_device_rev_a/libsdk_unit_test.a(uart_loopback.o)
uart_app_interrupt_test                           /home/leon/git/swp-report/iMX6_Platform_SDK/output/mx6sdl/sdk_unit_test/smart_device_rev_a/libsdk_unit_test.a(uart_loopback.o)
                                                  /home/leon/git/swp-report/iMX6_Platform_SDK/output/mx6sdl/sdk_unit_test/smart_device_rev_a/libsdk_unit_test.a(sdma_test.o)
uart_app_test                                     /home/leon/git/swp-report/iMX6_Platform_SDK/output/mx6sdl/sdk_unit_test/smart_device_rev_a/libsdk_unit_test.a(uart_loopback.o)
                                                  /home/leon/git/swp-report/iMX6_Platform_SDK/output/mx6sdl/sdk_unit_test/smart_device_rev_a/libsdk_unit_test.a(sdma_test.o)
uart_get_reffreq                                  /home/leon/git/swp-report/iMX6_Platform_SDK/output/mx6sdl/lib/libsdk.a(imx_uart.o)
uart_getchar                                      /home/leon/git/swp-report/iMX6_Platform_SDK/output/mx6sdl/lib/libsdk.a(imx_uart.o)
                                                  /home/leon/git/swp-report/iMX6_Platform_SDK/output/mx6sdl/lib/libsdk.a(runtime_support.o)
                                                  /home/leon/git/swp-report/iMX6_Platform_SDK/output/mx6sdl/sdk_unit_test/smart_device_rev_a/libsdk_unit_test.a(csi_test_mode.o)
                                                  /home/leon/git/swp-report/iMX6_Platform_SDK/output/mx6sdl/sdk_unit_test/smart_device_rev_a/libsdk_unit_test.a(uart_test.o)
                                                  /home/leon/git/swp-report/iMX6_Platform_SDK/output/mx6sdl/lib/libsdk.a(system_util.o)
                                                  /home/leon/git/swp-report/iMX6_Platform_SDK/output/mx6sdl/sdk_unit_test/smart_device_rev_a/obj/apps/common/platform_init.o
uart_init                                         /home/leon/git/swp-report/iMX6_Platform_SDK/output/mx6sdl/lib/libsdk.a(imx_uart.o)
                                                  /home/leon/git/swp-report/iMX6_Platform_SDK/output/mx6sdl/sdk_unit_test/smart_device_rev_a/libsdk_unit_test.a(uart_test.o)
                                                  /home/leon/git/swp-report/iMX6_Platform_SDK/output/mx6sdl/sdk_unit_test/smart_device_rev_a/libsdk_unit_test.a(uart_loopback.o)
                                                  /home/leon/git/swp-report/iMX6_Platform_SDK/output/mx6sdl/sdk_unit_test/smart_device_rev_a/obj/apps/common/platform_init.o
uart_interrupt_handler                            /home/leon/git/swp-report/iMX6_Platform_SDK/output/mx6sdl/sdk_unit_test/smart_device_rev_a/libsdk_unit_test.a(uart_test.o)
uart_iomux_config                                 /home/leon/git/swp-report/iMX6_Platform_SDK/output/mx6sdl/lib/libboard_smart_device_rev_a.a(uart_iomux_config.o)
                                                  /home/leon/git/swp-report/iMX6_Platform_SDK/output/mx6sdl/lib/libsdk.a(imx_uart.o)
uart_putchar                                      /home/leon/git/swp-report/iMX6_Platform_SDK/output/mx6sdl/lib/libsdk.a(imx_uart.o)
                                                  /home/leon/git/swp-report/iMX6_Platform_SDK/output/mx6sdl/lib/libsdk.a(runtime_support.o)
                                                  /home/leon/git/swp-report/iMX6_Platform_SDK/output/mx6sdl/sdk_unit_test/smart_device_rev_a/libsdk_unit_test.a(uart_test.o)
uart_set_FIFO_mode                                /home/leon/git/swp-report/iMX6_Platform_SDK/output/mx6sdl/lib/libsdk.a(imx_uart.o)
                                                  /home/leon/git/swp-report/iMX6_Platform_SDK/output/mx6sdl/sdk_unit_test/smart_device_rev_a/libsdk_unit_test.a(uart_test.o)
                                                  /home/leon/git/swp-report/iMX6_Platform_SDK/output/mx6sdl/sdk_unit_test/smart_device_rev_a/libsdk_unit_test.a(uart_loopback.o)
uart_set_loopback_mode                            /home/leon/git/swp-report/iMX6_Platform_SDK/output/mx6sdl/lib/libsdk.a(imx_uart.o)
                                                  /home/leon/git/swp-report/iMX6_Platform_SDK/output/mx6sdl/sdk_unit_test/smart_device_rev_a/libsdk_unit_test.a(uart_test.o)
                                                  /home/leon/git/swp-report/iMX6_Platform_SDK/output/mx6sdl/sdk_unit_test/smart_device_rev_a/libsdk_unit_test.a(uart_loopback.o)
uart_setup_interrupt                              /home/leon/git/swp-report/iMX6_Platform_SDK/output/mx6sdl/lib/libsdk.a(imx_uart.o)
                                                  /home/leon/git/swp-report/iMX6_Platform_SDK/output/mx6sdl/sdk_unit_test/smart_device_rev_a/libsdk_unit_test.a(uart_test.o)
uart_shp_test                                     /home/leon/git/swp-report/iMX6_Platform_SDK/output/mx6sdl/sdk_unit_test/smart_device_rev_a/libsdk_unit_test.a(uart_loopback.o)
uart_test                                         /home/leon/git/swp-report/iMX6_Platform_SDK/output/mx6sdl/sdk_unit_test/smart_device_rev_a/libsdk_unit_test.a(uart_test.o)
                                                  /home/leon/git/swp-report/iMX6_Platform_SDK/output/mx6sdl/sdk_unit_test/smart_device_rev_a/obj/apps/sdk_unit_test/src/all_test.o
update_csc_coeffs                                 /home/leon/git/swp-report/iMX6_Platform_SDK/output/mx6sdl/lib/libsdk.a(hdmi_tx.o)
usb0_device_mouse_test                            /home/leon/git/swp-report/iMX6_Platform_SDK/output/mx6sdl/sdk_unit_test/smart_device_rev_a/libsdk_unit_test.a(usb0_device_mouse_test.o)
                                                  /home/leon/git/swp-report/iMX6_Platform_SDK/output/mx6sdl/sdk_unit_test/smart_device_rev_a/libsdk_unit_test.a(usb_test.o)
usb0_host_test                                    /home/leon/git/swp-report/iMX6_Platform_SDK/output/mx6sdl/sdk_unit_test/smart_device_rev_a/libsdk_unit_test.a(usb0_host_test.o)
                                                  /home/leon/git/swp-report/iMX6_Platform_SDK/output/mx6sdl/sdk_unit_test/smart_device_rev_a/libsdk_unit_test.a(usb_test.o)
usb0_host_testmodes_test                          /home/leon/git/swp-report/iMX6_Platform_SDK/output/mx6sdl/sdk_unit_test/smart_device_rev_a/libsdk_unit_test.a(usb0_host_testmodes_test.o)
                                                  /home/leon/git/swp-report/iMX6_Platform_SDK/output/mx6sdl/sdk_unit_test/smart_device_rev_a/libsdk_unit_test.a(usb_test.o)
usbDisableVbus                                    /home/leon/git/swp-report/iMX6_Platform_SDK/output/mx6sdl/lib/libboard_smart_device_rev_a.a(board_usb.o)
                                                  /home/leon/git/swp-report/iMX6_Platform_SDK/output/mx6sdl/lib/libsdk.a(usbd_drv.o)
usbEnableClocks                                   /home/leon/git/swp-report/iMX6_Platform_SDK/output/mx6sdl/lib/libsdk.a(mx6x_usb.o)
                                                  /home/leon/git/swp-report/iMX6_Platform_SDK/output/mx6sdl/lib/libsdk.a(usbh_drv.o)
                                                  /home/leon/git/swp-report/iMX6_Platform_SDK/output/mx6sdl/lib/libsdk.a(usbd_drv.o)
usbEnableTransceiver                              /home/leon/git/swp-report/iMX6_Platform_SDK/output/mx6sdl/lib/libsdk.a(mx6x_usb.o)
                                                  /home/leon/git/swp-report/iMX6_Platform_SDK/output/mx6sdl/lib/libsdk.a(usbh_drv.o)
                                                  /home/leon/git/swp-report/iMX6_Platform_SDK/output/mx6sdl/lib/libsdk.a(usbd_drv.o)
usbEnableVbus                                     /home/leon/git/swp-report/iMX6_Platform_SDK/output/mx6sdl/lib/libboard_smart_device_rev_a.a(board_usb.o)
                                                  /home/leon/git/swp-report/iMX6_Platform_SDK/output/mx6sdl/lib/libsdk.a(usbh_drv.o)
usb_get_port_speed                                /home/leon/git/swp-report/iMX6_Platform_SDK/output/mx6sdl/lib/libsdk.a(usb_common.o)
                                                  /home/leon/git/swp-report/iMX6_Platform_SDK/output/mx6sdl/lib/libsdk.a(usbd_drv.o)
                                                  /home/leon/git/swp-report/iMX6_Platform_SDK/output/mx6sdl/sdk_unit_test/smart_device_rev_a/libsdk_unit_test.a(usb0_host_test.o)
                                                  /home/leon/git/swp-report/iMX6_Platform_SDK/output/mx6sdl/sdk_unit_test/smart_device_rev_a/libsdk_unit_test.a(usb0_device_mouse_test.o)
usb_iomux_config                                  /home/leon/git/swp-report/iMX6_Platform_SDK/output/mx6sdl/lib/libboard_smart_device_rev_a.a(iomux_config.o)
usb_test                                          /home/leon/git/swp-report/iMX6_Platform_SDK/output/mx6sdl/sdk_unit_test/smart_device_rev_a/libsdk_unit_test.a(usb_test.o)
                                                  /home/leon/git/swp-report/iMX6_Platform_SDK/output/mx6sdl/sdk_unit_test/smart_device_rev_a/obj/apps/sdk_unit_test/src/all_test.o
usbd_add_dtd                                      /home/leon/git/swp-report/iMX6_Platform_SDK/output/mx6sdl/lib/libsdk.a(usbd_drv.o)
                                                  /home/leon/git/swp-report/iMX6_Platform_SDK/output/mx6sdl/sdk_unit_test/smart_device_rev_a/libsdk_unit_test.a(usb0_device_mouse_test.o)
usbd_bus_reset                                    /home/leon/git/swp-report/iMX6_Platform_SDK/output/mx6sdl/lib/libsdk.a(usbd_drv.o)
                                                  /home/leon/git/swp-report/iMX6_Platform_SDK/output/mx6sdl/sdk_unit_test/smart_device_rev_a/libsdk_unit_test.a(usb0_device_mouse_test.o)
usbd_device_init                                  /home/leon/git/swp-report/iMX6_Platform_SDK/output/mx6sdl/lib/libsdk.a(usbd_drv.o)
                                                  /home/leon/git/swp-report/iMX6_Platform_SDK/output/mx6sdl/sdk_unit_test/smart_device_rev_a/libsdk_unit_test.a(usb0_device_mouse_test.o)
usbd_device_send_control_packet                   /home/leon/git/swp-report/iMX6_Platform_SDK/output/mx6sdl/lib/libsdk.a(usbd_drv.o)
                                                  /home/leon/git/swp-report/iMX6_Platform_SDK/output/mx6sdl/sdk_unit_test/smart_device_rev_a/libsdk_unit_test.a(usb0_device_mouse_test.o)
usbd_device_send_zero_len_packet                  /home/leon/git/swp-report/iMX6_Platform_SDK/output/mx6sdl/lib/libsdk.a(usbd_drv.o)
                                                  /home/leon/git/swp-report/iMX6_Platform_SDK/output/mx6sdl/sdk_unit_test/smart_device_rev_a/libsdk_unit_test.a(usb0_device_mouse_test.o)
usbd_dtd_init                                     /home/leon/git/swp-report/iMX6_Platform_SDK/output/mx6sdl/lib/libsdk.a(usbd_drv.o)
                                                  /home/leon/git/swp-report/iMX6_Platform_SDK/output/mx6sdl/sdk_unit_test/smart_device_rev_a/libsdk_unit_test.a(usb0_device_mouse_test.o)
usbd_endpoint_qh_init                             /home/leon/git/swp-report/iMX6_Platform_SDK/output/mx6sdl/lib/libsdk.a(usbd_drv.o)
                                                  /home/leon/git/swp-report/iMX6_Platform_SDK/output/mx6sdl/sdk_unit_test/smart_device_rev_a/libsdk_unit_test.a(usb0_device_mouse_test.o)
usbd_get_setup_packet                             /home/leon/git/swp-report/iMX6_Platform_SDK/output/mx6sdl/lib/libsdk.a(usbd_drv.o)
                                                  /home/leon/git/swp-report/iMX6_Platform_SDK/output/mx6sdl/sdk_unit_test/smart_device_rev_a/libsdk_unit_test.a(usb0_device_mouse_test.o)
usbd_reclaim_dtd                                  /home/leon/git/swp-report/iMX6_Platform_SDK/output/mx6sdl/lib/libsdk.a(usbd_drv.o)
                                                  /home/leon/git/swp-report/iMX6_Platform_SDK/output/mx6sdl/sdk_unit_test/smart_device_rev_a/libsdk_unit_test.a(usb0_device_mouse_test.o)
usbh_bus_reset                                    /home/leon/git/swp-report/iMX6_Platform_SDK/output/mx6sdl/lib/libsdk.a(usbh_drv.o)
                                                  /home/leon/git/swp-report/iMX6_Platform_SDK/output/mx6sdl/sdk_unit_test/smart_device_rev_a/libsdk_unit_test.a(usb0_host_test.o)
usbh_disable_Periodic_list                        /home/leon/git/swp-report/iMX6_Platform_SDK/output/mx6sdl/lib/libsdk.a(usbh_drv.o)
usbh_disable_asynchronous_schedule                /home/leon/git/swp-report/iMX6_Platform_SDK/output/mx6sdl/lib/libsdk.a(usbh_drv.o)
                                                  /home/leon/git/swp-report/iMX6_Platform_SDK/output/mx6sdl/sdk_unit_test/smart_device_rev_a/libsdk_unit_test.a(usb0_host_test.o)
usbh_enable_asynchronous_schedule                 /home/leon/git/swp-report/iMX6_Platform_SDK/output/mx6sdl/lib/libsdk.a(usbh_drv.o)
                                                  /home/leon/git/swp-report/iMX6_Platform_SDK/output/mx6sdl/sdk_unit_test/smart_device_rev_a/libsdk_unit_test.a(usb0_host_test.o)
usbh_get_config_desc                              /home/leon/git/swp-report/iMX6_Platform_SDK/output/mx6sdl/sdk_unit_test/smart_device_rev_a/libsdk_unit_test.a(usb0_host_test.o)
usbh_get_dev_desc                                 /home/leon/git/swp-report/iMX6_Platform_SDK/output/mx6sdl/sdk_unit_test/smart_device_rev_a/libsdk_unit_test.a(usb0_host_test.o)
usbh_get_interface_desc                           /home/leon/git/swp-report/iMX6_Platform_SDK/output/mx6sdl/sdk_unit_test/smart_device_rev_a/libsdk_unit_test.a(usb0_host_test.o)
usbh_get_report_desc                              /home/leon/git/swp-report/iMX6_Platform_SDK/output/mx6sdl/sdk_unit_test/smart_device_rev_a/libsdk_unit_test.a(usb0_host_test.o)
usbh_init                                         /home/leon/git/swp-report/iMX6_Platform_SDK/output/mx6sdl/lib/libsdk.a(usbh_drv.o)
                                                  /home/leon/git/swp-report/iMX6_Platform_SDK/output/mx6sdl/sdk_unit_test/smart_device_rev_a/libsdk_unit_test.a(usb0_host_testmodes_test.o)
                                                  /home/leon/git/swp-report/iMX6_Platform_SDK/output/mx6sdl/sdk_unit_test/smart_device_rev_a/libsdk_unit_test.a(usb0_host_test.o)
usbh_periodic_schedule_init                       /home/leon/git/swp-report/iMX6_Platform_SDK/output/mx6sdl/lib/libsdk.a(usbh_drv.o)
                                                  /home/leon/git/swp-report/iMX6_Platform_SDK/output/mx6sdl/sdk_unit_test/smart_device_rev_a/libsdk_unit_test.a(usb0_host_test.o)
usbh_qh_init                                      /home/leon/git/swp-report/iMX6_Platform_SDK/output/mx6sdl/lib/libsdk.a(usbh_drv.o)
                                                  /home/leon/git/swp-report/iMX6_Platform_SDK/output/mx6sdl/sdk_unit_test/smart_device_rev_a/libsdk_unit_test.a(usb0_host_test.o)
usbh_qtd_init                                     /home/leon/git/swp-report/iMX6_Platform_SDK/output/mx6sdl/lib/libsdk.a(usbh_drv.o)
                                                  /home/leon/git/swp-report/iMX6_Platform_SDK/output/mx6sdl/sdk_unit_test/smart_device_rev_a/libsdk_unit_test.a(usb0_host_test.o)
usbh_set_configuration                            /home/leon/git/swp-report/iMX6_Platform_SDK/output/mx6sdl/sdk_unit_test/smart_device_rev_a/libsdk_unit_test.a(usb0_host_test.o)
usbh_set_device_address                           /home/leon/git/swp-report/iMX6_Platform_SDK/output/mx6sdl/sdk_unit_test/smart_device_rev_a/libsdk_unit_test.a(usb0_host_test.o)
usdhc1_iomux_config                               /home/leon/git/swp-report/iMX6_Platform_SDK/output/mx6sdl/lib/libboard_smart_device_rev_a.a(iomux_config.o)
                                                  /home/leon/git/swp-report/iMX6_Platform_SDK/output/mx6sdl/lib/libboard_smart_device_rev_a.a(usdhc_iomux_config.o)
usdhc1_isr                                        /home/leon/git/swp-report/iMX6_Platform_SDK/output/mx6sdl/lib/libsdk.a(usdhc_host.o)
                                                  /home/leon/git/swp-report/iMX6_Platform_SDK/output/mx6sdl/lib/libsdk.a(usdhc.o)
usdhc2_iomux_config                               /home/leon/git/swp-report/iMX6_Platform_SDK/output/mx6sdl/lib/libboard_smart_device_rev_a.a(usdhc2_iomux_config.o)
                                                  /home/leon/git/swp-report/iMX6_Platform_SDK/output/mx6sdl/lib/libboard_smart_device_rev_a.a(usdhc_iomux_config.o)
                                                  /home/leon/git/swp-report/iMX6_Platform_SDK/output/mx6sdl/lib/libboard_smart_device_rev_a.a(iomux_config.o)
usdhc2_isr                                        /home/leon/git/swp-report/iMX6_Platform_SDK/output/mx6sdl/lib/libsdk.a(usdhc_host.o)
                                                  /home/leon/git/swp-report/iMX6_Platform_SDK/output/mx6sdl/lib/libsdk.a(usdhc.o)
usdhc3_iomux_config                               /home/leon/git/swp-report/iMX6_Platform_SDK/output/mx6sdl/lib/libboard_smart_device_rev_a.a(usdhc3_iomux_config.o)
                                                  /home/leon/git/swp-report/iMX6_Platform_SDK/output/mx6sdl/lib/libboard_smart_device_rev_a.a(usdhc_iomux_config.o)
                                                  /home/leon/git/swp-report/iMX6_Platform_SDK/output/mx6sdl/lib/libboard_smart_device_rev_a.a(iomux_config.o)
usdhc3_isr                                        /home/leon/git/swp-report/iMX6_Platform_SDK/output/mx6sdl/lib/libsdk.a(usdhc_host.o)
                                                  /home/leon/git/swp-report/iMX6_Platform_SDK/output/mx6sdl/lib/libsdk.a(usdhc.o)
usdhc4_iomux_config                               /home/leon/git/swp-report/iMX6_Platform_SDK/output/mx6sdl/lib/libboard_smart_device_rev_a.a(usdhc4_iomux_config.o)
                                                  /home/leon/git/swp-report/iMX6_Platform_SDK/output/mx6sdl/lib/libboard_smart_device_rev_a.a(usdhc_iomux_config.o)
                                                  /home/leon/git/swp-report/iMX6_Platform_SDK/output/mx6sdl/lib/libboard_smart_device_rev_a.a(iomux_config.o)
usdhc4_isr                                        /home/leon/git/swp-report/iMX6_Platform_SDK/output/mx6sdl/lib/libsdk.a(usdhc_host.o)
                                                  /home/leon/git/swp-report/iMX6_Platform_SDK/output/mx6sdl/lib/libsdk.a(usdhc.o)
usdhc_card_detected                               /home/leon/git/swp-report/iMX6_Platform_SDK/output/mx6sdl/lib/libboard_smart_device_rev_a.a(board_usdhc.o)
                                                  /home/leon/git/swp-report/iMX6_Platform_SDK/output/mx6sdl/lib/libsdk.a(usdhc.o)
usdhc_device                                      /home/leon/git/swp-report/iMX6_Platform_SDK/output/mx6sdl/lib/libsdk.a(usdhc.o)
                                                  /home/leon/git/swp-report/iMX6_Platform_SDK/output/mx6sdl/lib/libsdk.a(usdhc_sd.o)
                                                  /home/leon/git/swp-report/iMX6_Platform_SDK/output/mx6sdl/lib/libsdk.a(usdhc_mmc.o)
                                                  /home/leon/git/swp-report/iMX6_Platform_SDK/output/mx6sdl/lib/libsdk.a(usdhc_host.o)
usdhc_gpio_config                                 /home/leon/git/swp-report/iMX6_Platform_SDK/output/mx6sdl/lib/libboard_smart_device_rev_a.a(board_usdhc.o)
                                                  /home/leon/git/swp-report/iMX6_Platform_SDK/output/mx6sdl/lib/libsdk.a(usdhc_host.o)
usdhc_iomux_config                                /home/leon/git/swp-report/iMX6_Platform_SDK/output/mx6sdl/lib/libboard_smart_device_rev_a.a(usdhc_iomux_config.o)
                                                  /home/leon/git/swp-report/iMX6_Platform_SDK/output/mx6sdl/lib/libsdk.a(usdhc_host.o)
usdhc_test                                        /home/leon/git/swp-report/iMX6_Platform_SDK/output/mx6sdl/sdk_unit_test/smart_device_rev_a/libsdk_unit_test.a(usdhc_test.o)
                                                  /home/leon/git/swp-report/iMX6_Platform_SDK/output/mx6sdl/sdk_unit_test/smart_device_rev_a/obj/apps/sdk_unit_test/src/all_test.o
usdhc_write_protected                             /home/leon/git/swp-report/iMX6_Platform_SDK/output/mx6sdl/lib/libboard_smart_device_rev_a.a(board_usdhc.o)
                                                  /home/leon/git/swp-report/iMX6_Platform_SDK/output/mx6sdl/lib/libsdk.a(usdhc.o)
vectors                                           /home/leon/git/swp-report/iMX6_Platform_SDK/output/mx6sdl/lib/libsdk.a(vectors.o)
                                                  /home/leon/git/swp-report/iMX6_Platform_SDK/output/mx6sdl/lib/libsdk.a(startup.o)
vfiprintf                                         /home/leon/riotboard/arm-2012.09/bin/../arm-none-eabi/lib//libc.a(lib_a-vfiprintf.o)
vfprintf                                          /home/leon/riotboard/arm-2012.09/bin/../arm-none-eabi/lib//libc.a(lib_a-vfprintf.o)
vprintf                                           /home/leon/riotboard/arm-2012.09/bin/../arm-none-eabi/lib//libc.a(lib_a-vprintf.o)
                                                  /home/leon/git/swp-report/iMX6_Platform_SDK/output/mx6sdl/lib/libsdk.a(imx_i2c.o)
                                                  /home/leon/git/swp-report/iMX6_Platform_SDK/output/mx6sdl/lib/libsdk.a(gpio.o)
                                                  /home/leon/git/swp-report/iMX6_Platform_SDK/output/mx6sdl/lib/libsdk.a(text_color.o)
vtable for __cxxabiv1::__class_type_info          /home/leon/riotboard/arm-2012.09/bin/../arm-none-eabi/lib//libstdc++.a(class_type_info.o)
                                                  /home/leon/riotboard/arm-2012.09/bin/../arm-none-eabi/lib//libstdc++.a(tinfo.o)
                                                  /home/leon/riotboard/arm-2012.09/bin/../arm-none-eabi/lib//libstdc++.a(eh_exception.o)
vtable for __cxxabiv1::__forced_unwind            /home/leon/riotboard/arm-2012.09/bin/../arm-none-eabi/lib//libstdc++.a(eh_exception.o)
vtable for __cxxabiv1::__foreign_exception        /home/leon/riotboard/arm-2012.09/bin/../arm-none-eabi/lib//libstdc++.a(eh_exception.o)
vtable for __cxxabiv1::__si_class_type_info       /home/leon/riotboard/arm-2012.09/bin/../arm-none-eabi/lib//libstdc++.a(si_class_type_info.o)
                                                  /home/leon/riotboard/arm-2012.09/bin/../arm-none-eabi/lib//libstdc++.a(class_type_info.o)
                                                  /home/leon/riotboard/arm-2012.09/bin/../arm-none-eabi/lib//libstdc++.a(eh_exception.o)
vtable for pmu::AnalogRegulator                   /home/leon/git/swp-report/iMX6_Platform_SDK/output/mx6sdl/lib/libsdk.a(pmu_driver.o)
vtable for pmu::DigitalRegulator                  /home/leon/git/swp-report/iMX6_Platform_SDK/output/mx6sdl/lib/libsdk.a(pmu_driver.o)
vtable for pmu::LDO1p1Regulator                   /home/leon/git/swp-report/iMX6_Platform_SDK/output/mx6sdl/lib/libsdk.a(pmu_driver.o)
vtable for pmu::LDO2p5Regulator                   /home/leon/git/swp-report/iMX6_Platform_SDK/output/mx6sdl/lib/libsdk.a(pmu_driver.o)
vtable for pmu::LDO3p0Regulator                   /home/leon/git/swp-report/iMX6_Platform_SDK/output/mx6sdl/lib/libsdk.a(pmu_driver.o)
vtable for pmu::LDOARMRegulator                   /home/leon/git/swp-report/iMX6_Platform_SDK/output/mx6sdl/lib/libsdk.a(pmu_driver.o)
vtable for pmu::LDOGraphicsRegulator              /home/leon/git/swp-report/iMX6_Platform_SDK/output/mx6sdl/lib/libsdk.a(pmu_driver.o)
vtable for pmu::LDOSoCRegulator                   /home/leon/git/swp-report/iMX6_Platform_SDK/output/mx6sdl/lib/libsdk.a(pmu_driver.o)
vtable for pmu::Regulator                         /home/leon/git/swp-report/iMX6_Platform_SDK/output/mx6sdl/lib/libsdk.a(pmu_driver.o)
vtable for std::bad_exception                     /home/leon/riotboard/arm-2012.09/bin/../arm-none-eabi/lib//libstdc++.a(eh_exception.o)
                                                  /home/leon/riotboard/arm-2012.09/bin/../arm-none-eabi/lib//libstdc++.a(eh_call.o)
vtable for std::exception                         /home/leon/riotboard/arm-2012.09/bin/../arm-none-eabi/lib//libstdc++.a(eh_exception.o)
vtable for std::type_info                         /home/leon/riotboard/arm-2012.09/bin/../arm-none-eabi/lib//libstdc++.a(tinfo.o)
wavefile_end                                      /home/leon/git/swp-report/iMX6_Platform_SDK/output/mx6sdl/sdk_unit_test/smart_device_rev_a/libsdk_unit_test.a(wav_file.o)
                                                  /home/leon/git/swp-report/iMX6_Platform_SDK/output/mx6sdl/sdk_unit_test/smart_device_rev_a/libsdk_unit_test.a(audio_test.o)
wavefile_start                                    /home/leon/git/swp-report/iMX6_Platform_SDK/output/mx6sdl/sdk_unit_test/smart_device_rev_a/libsdk_unit_test.a(wav_file.o)
                                                  /home/leon/git/swp-report/iMX6_Platform_SDK/output/mx6sdl/sdk_unit_test/smart_device_rev_a/libsdk_unit_test.a(audio_test.o)
wcrtomb                                           /home/leon/riotboard/arm-2012.09/bin/../arm-none-eabi/lib//libc.a(lib_a-wcrtomb.o)
wdog1_iomux_config                                /home/leon/git/swp-report/iMX6_Platform_SDK/output/mx6sdl/lib/libboard_smart_device_rev_a.a(iomux_config.o)
wdog2_iomux_config                                /home/leon/git/swp-report/iMX6_Platform_SDK/output/mx6sdl/lib/libboard_smart_device_rev_a.a(iomux_config.o)
wdog_test                                         /home/leon/git/swp-report/iMX6_Platform_SDK/output/mx6sdl/sdk_unit_test/smart_device_rev_a/libsdk_unit_test.a(watchdog_test.o)
                                                  /home/leon/git/swp-report/iMX6_Platform_SDK/output/mx6sdl/sdk_unit_test/smart_device_rev_a/obj/apps/sdk_unit_test/src/all_test.o
write                                             /home/leon/riotboard/arm-2012.09/bin/../arm-none-eabi/lib//libc.a(lib_a-syswrite.o)
                                                  /home/leon/riotboard/arm-2012.09/bin/../arm-none-eabi/lib//libstdc++.a(pure.o)
write_protect_test_en                             /home/leon/git/swp-report/iMX6_Platform_SDK/output/mx6sdl/lib/libsdk.a(usdhc.o)
xtalosc_iomux_config                              /home/leon/git/swp-report/iMX6_Platform_SDK/output/mx6sdl/lib/libboard_smart_device_rev_a.a(iomux_config.o)
