Archive member included because of file (symbol)

/home/leon/git/swp-report/iMX6_Platform_SDK/output/mx6sl/lib/libsdk.a(ccm_pll.o)
                              /home/leon/git/swp-report/iMX6_Platform_SDK/output/mx6sl/ping/evk_rev_a/obj/apps/common/platform_init.o (ccm_init)
/home/leon/git/swp-report/iMX6_Platform_SDK/output/mx6sl/lib/libsdk.a(cortexA9.o)
                              /home/leon/git/swp-report/iMX6_Platform_SDK/output/mx6sl/ping/evk_rev_a/obj/apps/common/platform_init.o (arm_set_interrupt_state)
/home/leon/git/swp-report/iMX6_Platform_SDK/output/mx6sl/lib/libsdk.a(gic.o)
                              /home/leon/git/swp-report/iMX6_Platform_SDK/output/mx6sl/ping/evk_rev_a/obj/apps/common/platform_init.o (gic_init)
/home/leon/git/swp-report/iMX6_Platform_SDK/output/mx6sl/lib/libsdk.a(mmu.o)
                              /home/leon/git/swp-report/iMX6_Platform_SDK/output/mx6sl/ping/evk_rev_a/obj/apps/common/platform_init.o (mmu_init)
/home/leon/git/swp-report/iMX6_Platform_SDK/output/mx6sl/lib/libsdk.a(startup.o)
                              (_start)
/home/leon/git/swp-report/iMX6_Platform_SDK/output/mx6sl/lib/libsdk.a(vectors.o)
                              /home/leon/git/swp-report/iMX6_Platform_SDK/output/mx6sl/lib/libsdk.a(startup.o) (vectors)
/home/leon/git/swp-report/iMX6_Platform_SDK/output/mx6sl/lib/libsdk.a(system_util.o)
                              /home/leon/git/swp-report/iMX6_Platform_SDK/output/mx6sl/lib/libsdk.a(startup.o) (_sys_exit)
/home/leon/git/swp-report/iMX6_Platform_SDK/output/mx6sl/lib/libsdk.a(text_color.o)
                              /home/leon/git/swp-report/iMX6_Platform_SDK/output/mx6sl/lib/libsdk.a(system_util.o) (g_TextAttributeBold)
/home/leon/git/swp-report/iMX6_Platform_SDK/output/mx6sl/lib/libsdk.a(fec_drv.o)
                              /home/leon/git/swp-report/iMX6_Platform_SDK/output/mx6sl/ping/evk_rev_a/obj/apps/ping/src/ping_main.o (imx_fec_get_phy_status)
/home/leon/git/swp-report/iMX6_Platform_SDK/output/mx6sl/lib/libsdk.a(timer.o)
                              /home/leon/git/swp-report/iMX6_Platform_SDK/output/mx6sl/ping/evk_rev_a/obj/apps/ping/src/ping_main.o (hal_delay_us)
/home/leon/git/swp-report/iMX6_Platform_SDK/output/mx6sl/lib/libsdk.a(imx_uart.o)
                              /home/leon/git/swp-report/iMX6_Platform_SDK/output/mx6sl/ping/evk_rev_a/obj/apps/common/platform_init.o (uart_getchar)
/home/leon/git/swp-report/iMX6_Platform_SDK/output/mx6sl/lib/libsdk.a(arm_abort.o)
                              /home/leon/git/swp-report/iMX6_Platform_SDK/output/mx6sl/lib/libsdk.a(vectors.o) (data_abort_handler)
/home/leon/git/swp-report/iMX6_Platform_SDK/output/mx6sl/lib/libsdk.a(interrupt.o)
                              /home/leon/git/swp-report/iMX6_Platform_SDK/output/mx6sl/lib/libsdk.a(vectors.o) (IRQ_HDLR)
/home/leon/git/swp-report/iMX6_Platform_SDK/output/mx6sl/lib/libsdk.a(epit.o)
                              /home/leon/git/swp-report/iMX6_Platform_SDK/output/mx6sl/lib/libsdk.a(timer.o) (epit_get_compare_event)
/home/leon/git/swp-report/iMX6_Platform_SDK/output/mx6sl/lib/libsdk.a(abort_handler.o)
                              /home/leon/git/swp-report/iMX6_Platform_SDK/output/mx6sl/lib/libsdk.a(arm_abort.o) (dump_regs)
/home/leon/git/swp-report/iMX6_Platform_SDK/output/mx6sl/lib/libboard_evk_rev_a.a(board_io_expanders.o)
                              /home/leon/git/swp-report/iMX6_Platform_SDK/output/mx6sl/ping/evk_rev_a/obj/apps/common/platform_init.o (board_ioexpander_init)
/home/leon/git/swp-report/iMX6_Platform_SDK/output/mx6sl/lib/libboard_evk_rev_a.a(dcd.o)
                              /home/leon/git/swp-report/iMX6_Platform_SDK/output/mx6sl/ping/evk_rev_a/obj/apps/common/ivt.o (input_dcd_hdr)
/home/leon/git/swp-report/iMX6_Platform_SDK/output/mx6sl/lib/libboard_evk_rev_a.a(hardware_modules.o)
                              /home/leon/git/swp-report/iMX6_Platform_SDK/output/mx6sl/ping/evk_rev_a/obj/apps/common/platform_init.o (g_debug_uart_port)
/home/leon/git/swp-report/iMX6_Platform_SDK/output/mx6sl/lib/libboard_evk_rev_a.a(uart_iomux_config.o)
                              /home/leon/git/swp-report/iMX6_Platform_SDK/output/mx6sl/lib/libsdk.a(imx_uart.o) (uart_iomux_config)
/home/leon/git/swp-report/iMX6_Platform_SDK/output/mx6sl/lib/libboard_evk_rev_a.a(iomux_config.o)
                              /home/leon/git/swp-report/iMX6_Platform_SDK/output/mx6sl/lib/libboard_evk_rev_a.a(uart_iomux_config.o) (uart2_iomux_config)
/home/leon/git/swp-report/iMX6_Platform_SDK/output/mx6sl/lib/libboard_evk_rev_a.a(kpp_iomux_config.o)
                              /home/leon/git/swp-report/iMX6_Platform_SDK/output/mx6sl/lib/libboard_evk_rev_a.a(iomux_config.o) (kpp_iomux_config)
/home/leon/git/swp-report/iMX6_Platform_SDK/output/mx6sl/lib/libboard_evk_rev_a.a(lcd_iomux_config.o)
                              /home/leon/git/swp-report/iMX6_Platform_SDK/output/mx6sl/lib/libboard_evk_rev_a.a(iomux_config.o) (lcd_iomux_config)
/home/leon/git/swp-report/iMX6_Platform_SDK/output/mx6sl/lib/libboard_evk_rev_a.a(mmdc_iomux_config.o)
                              /home/leon/git/swp-report/iMX6_Platform_SDK/output/mx6sl/lib/libboard_evk_rev_a.a(iomux_config.o) (mmdc_iomux_config)
/home/leon/git/swp-report/iMX6_Platform_SDK/output/mx6sl/lib/libboard_evk_rev_a.a(pwm1_iomux_config.o)
                              /home/leon/git/swp-report/iMX6_Platform_SDK/output/mx6sl/lib/libboard_evk_rev_a.a(iomux_config.o) (pwm1_iomux_config)
/home/leon/git/swp-report/iMX6_Platform_SDK/output/mx6sl/lib/libboard_evk_rev_a.a(sjc_iomux_config.o)
                              /home/leon/git/swp-report/iMX6_Platform_SDK/output/mx6sl/lib/libboard_evk_rev_a.a(iomux_config.o) (sjc_iomux_config)
/home/leon/git/swp-report/iMX6_Platform_SDK/output/mx6sl/lib/libboard_evk_rev_a.a(spdc_iomux_config.o)
                              /home/leon/git/swp-report/iMX6_Platform_SDK/output/mx6sl/lib/libboard_evk_rev_a.a(iomux_config.o) (spdc_iomux_config)
/home/leon/git/swp-report/iMX6_Platform_SDK/output/mx6sl/lib/libboard_evk_rev_a.a(uart1_iomux_config.o)
                              /home/leon/git/swp-report/iMX6_Platform_SDK/output/mx6sl/lib/libboard_evk_rev_a.a(uart_iomux_config.o) (uart1_iomux_config)
/home/leon/git/swp-report/iMX6_Platform_SDK/output/mx6sl/lib/libboard_evk_rev_a.a(usb_iomux_config.o)
                              /home/leon/git/swp-report/iMX6_Platform_SDK/output/mx6sl/lib/libboard_evk_rev_a.a(iomux_config.o) (usb_iomux_config)
/home/leon/git/swp-report/iMX6_Platform_SDK/output/mx6sl/lib/libboard_evk_rev_a.a(usdhc1_iomux_config.o)
                              /home/leon/git/swp-report/iMX6_Platform_SDK/output/mx6sl/lib/libboard_evk_rev_a.a(iomux_config.o) (usdhc1_iomux_config)
/home/leon/git/swp-report/iMX6_Platform_SDK/output/mx6sl/lib/libboard_evk_rev_a.a(usdhc2_iomux_config.o)
                              /home/leon/git/swp-report/iMX6_Platform_SDK/output/mx6sl/lib/libboard_evk_rev_a.a(iomux_config.o) (usdhc2_iomux_config)
/home/leon/git/swp-report/iMX6_Platform_SDK/output/mx6sl/lib/libboard_evk_rev_a.a(usdhc3_iomux_config.o)
                              /home/leon/git/swp-report/iMX6_Platform_SDK/output/mx6sl/lib/libboard_evk_rev_a.a(iomux_config.o) (usdhc3_iomux_config)
/home/leon/git/swp-report/iMX6_Platform_SDK/output/mx6sl/lib/libboard_evk_rev_a.a(wdog1_iomux_config.o)
                              /home/leon/git/swp-report/iMX6_Platform_SDK/output/mx6sl/lib/libboard_evk_rev_a.a(iomux_config.o) (wdog1_iomux_config)
/home/leon/git/swp-report/iMX6_Platform_SDK/output/mx6sl/lib/libboard_evk_rev_a.a(audmux_iomux_config.o)
                              /home/leon/git/swp-report/iMX6_Platform_SDK/output/mx6sl/lib/libboard_evk_rev_a.a(iomux_config.o) (audmux_iomux_config)
/home/leon/git/swp-report/iMX6_Platform_SDK/output/mx6sl/lib/libboard_evk_rev_a.a(csi_iomux_config.o)
                              /home/leon/git/swp-report/iMX6_Platform_SDK/output/mx6sl/lib/libboard_evk_rev_a.a(iomux_config.o) (csi_iomux_config)
/home/leon/git/swp-report/iMX6_Platform_SDK/output/mx6sl/lib/libboard_evk_rev_a.a(ecspi1_iomux_config.o)
                              /home/leon/git/swp-report/iMX6_Platform_SDK/output/mx6sl/lib/libboard_evk_rev_a.a(iomux_config.o) (ecspi1_iomux_config)
/home/leon/git/swp-report/iMX6_Platform_SDK/output/mx6sl/lib/libboard_evk_rev_a.a(ecspi2_iomux_config.o)
                              /home/leon/git/swp-report/iMX6_Platform_SDK/output/mx6sl/lib/libboard_evk_rev_a.a(iomux_config.o) (ecspi2_iomux_config)
/home/leon/git/swp-report/iMX6_Platform_SDK/output/mx6sl/lib/libboard_evk_rev_a.a(epdc_iomux_config.o)
                              /home/leon/git/swp-report/iMX6_Platform_SDK/output/mx6sl/lib/libboard_evk_rev_a.a(iomux_config.o) (epdc_iomux_config)
/home/leon/git/swp-report/iMX6_Platform_SDK/output/mx6sl/lib/libboard_evk_rev_a.a(fec_iomux_config.o)
                              /home/leon/git/swp-report/iMX6_Platform_SDK/output/mx6sl/lib/libboard_evk_rev_a.a(iomux_config.o) (fec_iomux_config)
/home/leon/git/swp-report/iMX6_Platform_SDK/output/mx6sl/lib/libboard_evk_rev_a.a(gpio1_iomux_config.o)
                              /home/leon/git/swp-report/iMX6_Platform_SDK/output/mx6sl/lib/libboard_evk_rev_a.a(iomux_config.o) (gpio1_iomux_config)
/home/leon/git/swp-report/iMX6_Platform_SDK/output/mx6sl/lib/libboard_evk_rev_a.a(gpio4_iomux_config.o)
                              /home/leon/git/swp-report/iMX6_Platform_SDK/output/mx6sl/lib/libboard_evk_rev_a.a(iomux_config.o) (gpio4_iomux_config)
/home/leon/git/swp-report/iMX6_Platform_SDK/output/mx6sl/lib/libboard_evk_rev_a.a(i2c1_iomux_config.o)
                              /home/leon/git/swp-report/iMX6_Platform_SDK/output/mx6sl/lib/libboard_evk_rev_a.a(iomux_config.o) (i2c1_iomux_config)
/home/leon/git/swp-report/iMX6_Platform_SDK/output/mx6sl/lib/libboard_evk_rev_a.a(i2c2_iomux_config.o)
                              /home/leon/git/swp-report/iMX6_Platform_SDK/output/mx6sl/lib/libboard_evk_rev_a.a(iomux_config.o) (i2c2_iomux_config)
/home/leon/git/swp-report/iMX6_Platform_SDK/output/mx6sl/lib/libboard_evk_rev_a.a(i2c3_iomux_config.o)
                              /home/leon/git/swp-report/iMX6_Platform_SDK/output/mx6sl/lib/libboard_evk_rev_a.a(iomux_config.o) (i2c3_iomux_config)
/home/leon/git/swp-report/iMX6_Platform_SDK/output/mx6sl/lib/liblwip.a(def.o)
                              /home/leon/git/swp-report/iMX6_Platform_SDK/output/mx6sl/ping/evk_rev_a/obj/apps/ping/src/ping.o (lwip_htons)
/home/leon/git/swp-report/iMX6_Platform_SDK/output/mx6sl/lib/liblwip.a(dhcp.o)
                              /home/leon/git/swp-report/iMX6_Platform_SDK/output/mx6sl/ping/evk_rev_a/obj/apps/ping/src/ping_main.o (dhcp_start)
/home/leon/git/swp-report/iMX6_Platform_SDK/output/mx6sl/lib/liblwip.a(dns.o)
                              /home/leon/git/swp-report/iMX6_Platform_SDK/output/mx6sl/ping/evk_rev_a/obj/apps/ping/src/ping_main.o (dns_init)
/home/leon/git/swp-report/iMX6_Platform_SDK/output/mx6sl/lib/liblwip.a(inet_chksum.o)
                              /home/leon/git/swp-report/iMX6_Platform_SDK/output/mx6sl/ping/evk_rev_a/obj/apps/ping/src/ping.o (inet_chksum)
/home/leon/git/swp-report/iMX6_Platform_SDK/output/mx6sl/lib/liblwip.a(init.o)
                              /home/leon/git/swp-report/iMX6_Platform_SDK/output/mx6sl/ping/evk_rev_a/obj/apps/ping/src/ping_main.o (lwip_init)
/home/leon/git/swp-report/iMX6_Platform_SDK/output/mx6sl/lib/liblwip.a(autoip.o)
                              /home/leon/git/swp-report/iMX6_Platform_SDK/output/mx6sl/lib/liblwip.a(dhcp.o) (autoip_start)
/home/leon/git/swp-report/iMX6_Platform_SDK/output/mx6sl/lib/liblwip.a(igmp.o)
                              /home/leon/git/swp-report/iMX6_Platform_SDK/output/mx6sl/lib/liblwip.a(init.o) (igmp_init)
/home/leon/git/swp-report/iMX6_Platform_SDK/output/mx6sl/lib/liblwip.a(ip4.o)
                              /home/leon/git/swp-report/iMX6_Platform_SDK/output/mx6sl/lib/liblwip.a(igmp.o) (ip_output_if_opt)
/home/leon/git/swp-report/iMX6_Platform_SDK/output/mx6sl/lib/liblwip.a(ip4_addr.o)
                              /home/leon/git/swp-report/iMX6_Platform_SDK/output/mx6sl/ping/evk_rev_a/obj/apps/ping/src/ping.o (ip_addr_any)
/home/leon/git/swp-report/iMX6_Platform_SDK/output/mx6sl/lib/liblwip.a(memp.o)
                              /home/leon/git/swp-report/iMX6_Platform_SDK/output/mx6sl/lib/liblwip.a(igmp.o) (memp_sizes)
/home/leon/git/swp-report/iMX6_Platform_SDK/output/mx6sl/lib/liblwip.a(netif.o)
                              /home/leon/git/swp-report/iMX6_Platform_SDK/output/mx6sl/lib/liblwip.a(dhcp.o) (netif_list)
/home/leon/git/swp-report/iMX6_Platform_SDK/output/mx6sl/lib/liblwip.a(pbuf.o)
                              /home/leon/git/swp-report/iMX6_Platform_SDK/output/mx6sl/ping/evk_rev_a/obj/apps/ping/src/ping.o (pbuf_alloc)
/home/leon/git/swp-report/iMX6_Platform_SDK/output/mx6sl/lib/liblwip.a(raw.o)
                              /home/leon/git/swp-report/iMX6_Platform_SDK/output/mx6sl/lib/liblwip.a(ip4.o) (raw_input)
/home/leon/git/swp-report/iMX6_Platform_SDK/output/mx6sl/lib/liblwip.a(mib2.o)
                              /home/leon/git/swp-report/iMX6_Platform_SDK/output/mx6sl/lib/liblwip.a(netif.o) (snmp_get_sysuptime)
/home/leon/git/swp-report/iMX6_Platform_SDK/output/mx6sl/lib/liblwip.a(mib_structs.o)
                              /home/leon/git/swp-report/iMX6_Platform_SDK/output/mx6sl/lib/liblwip.a(mib2.o) (snmp_ifindextonetif)
/home/leon/git/swp-report/iMX6_Platform_SDK/output/mx6sl/lib/liblwip.a(msg_in.o)
                              /home/leon/git/swp-report/iMX6_Platform_SDK/output/mx6sl/lib/liblwip.a(init.o) (snmp_init)
/home/leon/git/swp-report/iMX6_Platform_SDK/output/mx6sl/lib/liblwip.a(msg_out.o)
                              /home/leon/git/swp-report/iMX6_Platform_SDK/output/mx6sl/lib/liblwip.a(msg_in.o) (trap_msg)
/home/leon/git/swp-report/iMX6_Platform_SDK/output/mx6sl/lib/liblwip.a(stats.o)
                              /home/leon/git/swp-report/iMX6_Platform_SDK/output/mx6sl/lib/liblwip.a(igmp.o) (lwip_stats)
/home/leon/git/swp-report/iMX6_Platform_SDK/output/mx6sl/lib/liblwip.a(tcp_in.o)
                              /home/leon/git/swp-report/iMX6_Platform_SDK/output/mx6sl/lib/liblwip.a(ip4.o) (tcp_input)
/home/leon/git/swp-report/iMX6_Platform_SDK/output/mx6sl/lib/liblwip.a(tcp.o)
                              /home/leon/git/swp-report/iMX6_Platform_SDK/output/mx6sl/lib/liblwip.a(tcp_in.o) (tcp_ticks)
/home/leon/git/swp-report/iMX6_Platform_SDK/output/mx6sl/lib/liblwip.a(tcp_out.o)
                              /home/leon/git/swp-report/iMX6_Platform_SDK/output/mx6sl/lib/liblwip.a(tcp.o) (tcp_send_fin)
/home/leon/git/swp-report/iMX6_Platform_SDK/output/mx6sl/lib/liblwip.a(timers.o)
                              /home/leon/git/swp-report/iMX6_Platform_SDK/output/mx6sl/ping/evk_rev_a/obj/apps/ping/src/ping.o (sys_timeout)
/home/leon/git/swp-report/iMX6_Platform_SDK/output/mx6sl/lib/liblwip.a(udp.o)
                              /home/leon/git/swp-report/iMX6_Platform_SDK/output/mx6sl/lib/liblwip.a(mib2.o) (udp_pcbs)
/home/leon/git/swp-report/iMX6_Platform_SDK/output/mx6sl/lib/liblwip.a(etharp.o)
                              /home/leon/git/swp-report/iMX6_Platform_SDK/output/mx6sl/lib/liblwip.a(autoip.o) (ethbroadcast)
/home/leon/git/swp-report/iMX6_Platform_SDK/output/mx6sl/lib/liblwip.a(mx6_ethernetif.o)
                              /home/leon/git/swp-report/iMX6_Platform_SDK/output/mx6sl/ping/evk_rev_a/obj/apps/ping/src/ping_main.o (g_en0)
/home/leon/git/swp-report/iMX6_Platform_SDK/output/mx6sl/lib/liblwip.a(mx6_lwip.o)
                              /home/leon/git/swp-report/iMX6_Platform_SDK/output/mx6sl/ping/evk_rev_a/obj/apps/ping/src/ping_main.o (check_and_update_ms_timer)
/home/leon/git/swp-report/iMX6_Platform_SDK/output/mx6sl/lib/liblwip.a(sys_arch.o)
                              /home/leon/git/swp-report/iMX6_Platform_SDK/output/mx6sl/ping/evk_rev_a/obj/apps/ping/src/ping.o (sys_now)
/home/leon/git/swp-report/iMX6_Platform_SDK/output/mx6sl/lib/liblwip.a(icmp.o)
                              /home/leon/git/swp-report/iMX6_Platform_SDK/output/mx6sl/lib/liblwip.a(ip4.o) (icmp_input)
/home/leon/git/swp-report/iMX6_Platform_SDK/output/mx6sl/lib/liblwip.a(asn1_dec.o)
                              /home/leon/git/swp-report/iMX6_Platform_SDK/output/mx6sl/lib/liblwip.a(msg_in.o) (snmp_asn1_dec_type)
/home/leon/git/swp-report/iMX6_Platform_SDK/output/mx6sl/lib/liblwip.a(asn1_enc.o)
                              /home/leon/git/swp-report/iMX6_Platform_SDK/output/mx6sl/lib/liblwip.a(msg_out.o) (snmp_asn1_enc_length_cnt)
/home/leon/riotboard/arm-2012.09/bin/../arm-none-eabi/lib//libc.a(lib_a-abort.o)
                              /home/leon/git/swp-report/iMX6_Platform_SDK/output/mx6sl/ping/evk_rev_a/obj/apps/ping/src/ping.o (abort)
/home/leon/riotboard/arm-2012.09/bin/../arm-none-eabi/lib//libc.a(lib_a-assert.o)
                              /home/leon/git/swp-report/iMX6_Platform_SDK/output/mx6sl/lib/libsdk.a(gic.o) (__assert_func)
/home/leon/riotboard/arm-2012.09/bin/../arm-none-eabi/lib//libc.a(lib_a-bzero.o)
                              /home/leon/git/swp-report/iMX6_Platform_SDK/output/mx6sl/lib/libsdk.a(mmu.o) (bzero)
/home/leon/riotboard/arm-2012.09/bin/../arm-none-eabi/lib//libc.a(lib_a-fflush.o)
                              /home/leon/git/swp-report/iMX6_Platform_SDK/output/mx6sl/ping/evk_rev_a/obj/apps/ping/src/ping.o (fflush)
/home/leon/riotboard/arm-2012.09/bin/../arm-none-eabi/lib//libc.a(lib_a-findfp.o)
                              /home/leon/riotboard/arm-2012.09/bin/../arm-none-eabi/lib//libc.a(lib_a-fflush.o) (__sinit)
/home/leon/riotboard/arm-2012.09/bin/../arm-none-eabi/lib//libc.a(lib_a-fiprintf.o)
                              /home/leon/riotboard/arm-2012.09/bin/../arm-none-eabi/lib//libc.a(lib_a-assert.o) (fiprintf)
/home/leon/riotboard/arm-2012.09/bin/../arm-none-eabi/lib//libc.a(lib_a-fputc.o)
                              /home/leon/git/swp-report/iMX6_Platform_SDK/output/mx6sl/lib/libsdk.a(system_util.o) (fputc)
/home/leon/riotboard/arm-2012.09/bin/../arm-none-eabi/lib//libc.a(lib_a-freer.o)
                              /home/leon/riotboard/arm-2012.09/bin/../arm-none-eabi/lib//libc.a(lib_a-fflush.o) (_free_r)
/home/leon/riotboard/arm-2012.09/bin/../arm-none-eabi/lib//libc.a(lib_a-fwalk.o)
                              /home/leon/riotboard/arm-2012.09/bin/../arm-none-eabi/lib//libc.a(lib_a-findfp.o) (_fwalk)
/home/leon/riotboard/arm-2012.09/bin/../arm-none-eabi/lib//libc.a(lib_a-impure.o)
                              /home/leon/riotboard/arm-2012.09/bin/../arm-none-eabi/lib//libc.a(lib_a-fflush.o) (_global_impure_ptr)
/home/leon/riotboard/arm-2012.09/bin/../arm-none-eabi/lib//libc.a(lib_a-init.o)
                              /home/leon/git/swp-report/iMX6_Platform_SDK/output/mx6sl/lib/libsdk.a(startup.o) (__libc_init_array)
/home/leon/riotboard/arm-2012.09/bin/../arm-none-eabi/lib//libc.a(lib_a-malloc.o)
                              /home/leon/git/swp-report/iMX6_Platform_SDK/output/mx6sl/lib/libsdk.a(system_util.o) (malloc)
/home/leon/riotboard/arm-2012.09/bin/../arm-none-eabi/lib//libc.a(lib_a-mallocr.o)
                              /home/leon/riotboard/arm-2012.09/bin/../arm-none-eabi/lib//libc.a(lib_a-findfp.o) (_malloc_r)
/home/leon/riotboard/arm-2012.09/bin/../arm-none-eabi/lib//libc.a(lib_a-memcmp.o)
                              /home/leon/git/swp-report/iMX6_Platform_SDK/output/mx6sl/lib/liblwip.a(autoip.o) (memcmp)
/home/leon/riotboard/arm-2012.09/bin/../arm-none-eabi/lib//libc.a(lib_a-memcpy.o)
                              /home/leon/git/swp-report/iMX6_Platform_SDK/output/mx6sl/lib/libsdk.a(fec_drv.o) (memcpy)
/home/leon/riotboard/arm-2012.09/bin/../arm-none-eabi/lib//libc.a(lib_a-memset.o)
                              /home/leon/git/swp-report/iMX6_Platform_SDK/output/mx6sl/lib/liblwip.a(dhcp.o) (memset)
/home/leon/riotboard/arm-2012.09/bin/../arm-none-eabi/lib//libc.a(lib_a-mlock.o)
                              /home/leon/riotboard/arm-2012.09/bin/../arm-none-eabi/lib//libc.a(lib_a-freer.o) (__malloc_lock)
/home/leon/riotboard/arm-2012.09/bin/../arm-none-eabi/lib//libc.a(lib_a-printf.o)
                              /home/leon/git/swp-report/iMX6_Platform_SDK/output/mx6sl/ping/evk_rev_a/obj/apps/ping/src/ping.o (printf)
/home/leon/riotboard/arm-2012.09/bin/../arm-none-eabi/lib//libc.a(lib_a-putc.o)
                              /home/leon/riotboard/arm-2012.09/bin/../arm-none-eabi/lib//libc.a(lib_a-fputc.o) (_putc_r)
/home/leon/riotboard/arm-2012.09/bin/../arm-none-eabi/lib//libc.a(lib_a-rand.o)
                              /home/leon/git/swp-report/iMX6_Platform_SDK/output/mx6sl/lib/liblwip.a(dhcp.o) (rand)
/home/leon/riotboard/arm-2012.09/bin/../arm-none-eabi/lib//libc.a(lib_a-realloc.o)
                              /home/leon/git/swp-report/iMX6_Platform_SDK/output/mx6sl/lib/libsdk.a(system_util.o) (realloc)
/home/leon/riotboard/arm-2012.09/bin/../arm-none-eabi/lib//libc.a(lib_a-reallocr.o)
                              /home/leon/riotboard/arm-2012.09/bin/../arm-none-eabi/lib//libc.a(lib_a-realloc.o) (_realloc_r)
/home/leon/riotboard/arm-2012.09/bin/../arm-none-eabi/lib//libc.a(lib_a-rget.o)
                              /home/leon/git/swp-report/iMX6_Platform_SDK/output/mx6sl/lib/libsdk.a(system_util.o) (__srget_r)
/home/leon/riotboard/arm-2012.09/bin/../arm-none-eabi/lib//libc.a(lib_a-sbrkr.o)
                              /home/leon/riotboard/arm-2012.09/bin/../arm-none-eabi/lib//libc.a(lib_a-freer.o) (_sbrk_r)
/home/leon/riotboard/arm-2012.09/bin/../arm-none-eabi/lib//libc.a(lib_a-signal.o)
                              /home/leon/riotboard/arm-2012.09/bin/../arm-none-eabi/lib//libc.a(lib_a-abort.o) (raise)
/home/leon/riotboard/arm-2012.09/bin/../arm-none-eabi/lib//libc.a(lib_a-signalr.o)
                              /home/leon/riotboard/arm-2012.09/bin/../arm-none-eabi/lib//libc.a(lib_a-signal.o) (_kill_r)
/home/leon/riotboard/arm-2012.09/bin/../arm-none-eabi/lib//libc.a(lib_a-stdio.o)
                              /home/leon/riotboard/arm-2012.09/bin/../arm-none-eabi/lib//libc.a(lib_a-findfp.o) (__sread)
/home/leon/riotboard/arm-2012.09/bin/../arm-none-eabi/lib//libc.a(lib_a-strcmp.o)
                              /home/leon/git/swp-report/iMX6_Platform_SDK/output/mx6sl/lib/liblwip.a(dns.o) (strcmp)
/home/leon/riotboard/arm-2012.09/bin/../arm-none-eabi/lib//libc.a(lib_a-strlen.o)
                              /home/leon/git/swp-report/iMX6_Platform_SDK/output/mx6sl/lib/liblwip.a(dhcp.o) (strlen)
/home/leon/riotboard/arm-2012.09/bin/../arm-none-eabi/lib//libc.a(lib_a-strncmp.o)
                              /home/leon/git/swp-report/iMX6_Platform_SDK/output/mx6sl/lib/liblwip.a(msg_in.o) (strncmp)
/home/leon/riotboard/arm-2012.09/bin/../arm-none-eabi/lib//libc.a(lib_a-vfiprintf.o)
                              /home/leon/riotboard/arm-2012.09/bin/../arm-none-eabi/lib//libc.a(lib_a-fiprintf.o) (_vfiprintf_r)
/home/leon/riotboard/arm-2012.09/bin/../arm-none-eabi/lib//libc.a(lib_a-vfprintf.o)
                              /home/leon/riotboard/arm-2012.09/bin/../arm-none-eabi/lib//libc.a(lib_a-printf.o) (_vfprintf_r)
/home/leon/riotboard/arm-2012.09/bin/../arm-none-eabi/lib//libc.a(lib_a-vprintf.o)
                              /home/leon/git/swp-report/iMX6_Platform_SDK/output/mx6sl/lib/libsdk.a(text_color.o) (vprintf)
/home/leon/riotboard/arm-2012.09/bin/../arm-none-eabi/lib//libc.a(lib_a-wbuf.o)
                              /home/leon/riotboard/arm-2012.09/bin/../arm-none-eabi/lib//libc.a(lib_a-putc.o) (__swbuf_r)
/home/leon/riotboard/arm-2012.09/bin/../arm-none-eabi/lib//libc.a(lib_a-writer.o)
                              /home/leon/riotboard/arm-2012.09/bin/../arm-none-eabi/lib//libc.a(lib_a-stdio.o) (_write_r)
/home/leon/riotboard/arm-2012.09/bin/../arm-none-eabi/lib//libc.a(lib_a-wsetup.o)
                              /home/leon/riotboard/arm-2012.09/bin/../arm-none-eabi/lib//libc.a(lib_a-vfiprintf.o) (__swsetup_r)
/home/leon/riotboard/arm-2012.09/bin/../arm-none-eabi/lib//libc.a(lib_a-closer.o)
                              /home/leon/riotboard/arm-2012.09/bin/../arm-none-eabi/lib//libc.a(lib_a-stdio.o) (_close_r)
/home/leon/riotboard/arm-2012.09/bin/../arm-none-eabi/lib//libc.a(lib_a-dtoa.o)
                              /home/leon/riotboard/arm-2012.09/bin/../arm-none-eabi/lib//libc.a(lib_a-vfprintf.o) (_dtoa_r)
/home/leon/riotboard/arm-2012.09/bin/../arm-none-eabi/lib//libc.a(lib_a-fclose.o)
                              /home/leon/riotboard/arm-2012.09/bin/../arm-none-eabi/lib//libc.a(lib_a-findfp.o) (fclose)
/home/leon/riotboard/arm-2012.09/bin/../arm-none-eabi/lib//libc.a(lib_a-fputwc.o)
                              /home/leon/riotboard/arm-2012.09/bin/../arm-none-eabi/lib//libc.a(lib_a-vfiprintf.o) (_fputwc_r)
/home/leon/riotboard/arm-2012.09/bin/../arm-none-eabi/lib//libc.a(lib_a-fvwrite.o)
                              /home/leon/riotboard/arm-2012.09/bin/../arm-none-eabi/lib//libc.a(lib_a-vfiprintf.o) (__sfvwrite_r)
/home/leon/riotboard/arm-2012.09/bin/../arm-none-eabi/lib//libc.a(lib_a-locale.o)
                              /home/leon/riotboard/arm-2012.09/bin/../arm-none-eabi/lib//libc.a(lib_a-fputwc.o) (__locale_mb_cur_max)
/home/leon/riotboard/arm-2012.09/bin/../arm-none-eabi/lib//libc.a(lib_a-lseekr.o)
                              /home/leon/riotboard/arm-2012.09/bin/../arm-none-eabi/lib//libc.a(lib_a-stdio.o) (_lseek_r)
/home/leon/riotboard/arm-2012.09/bin/../arm-none-eabi/lib//libc.a(lib_a-makebuf.o)
                              /home/leon/riotboard/arm-2012.09/bin/../arm-none-eabi/lib//libc.a(lib_a-wsetup.o) (__smakebuf_r)
/home/leon/riotboard/arm-2012.09/bin/../arm-none-eabi/lib//libc.a(lib_a-memchr.o)
                              /home/leon/riotboard/arm-2012.09/bin/../arm-none-eabi/lib//libc.a(lib_a-vfiprintf.o) (memchr)
/home/leon/riotboard/arm-2012.09/bin/../arm-none-eabi/lib//libc.a(lib_a-memmove.o)
                              /home/leon/riotboard/arm-2012.09/bin/../arm-none-eabi/lib//libc.a(lib_a-reallocr.o) (memmove)
/home/leon/riotboard/arm-2012.09/bin/../arm-none-eabi/lib//libc.a(lib_a-mprec.o)
                              /home/leon/riotboard/arm-2012.09/bin/../arm-none-eabi/lib//libc.a(lib_a-dtoa.o) (_Balloc)
/home/leon/riotboard/arm-2012.09/bin/../arm-none-eabi/lib//libc.a(lib_a-readr.o)
                              /home/leon/riotboard/arm-2012.09/bin/../arm-none-eabi/lib//libc.a(lib_a-stdio.o) (_read_r)
/home/leon/riotboard/arm-2012.09/bin/../arm-none-eabi/lib//libc.a(lib_a-reent.o)
                              /home/leon/riotboard/arm-2012.09/bin/../arm-none-eabi/lib//libc.a(lib_a-sbrkr.o) (errno)
/home/leon/riotboard/arm-2012.09/bin/../arm-none-eabi/lib//libc.a(lib_a-refill.o)
                              /home/leon/riotboard/arm-2012.09/bin/../arm-none-eabi/lib//libc.a(lib_a-rget.o) (__srefill_r)
/home/leon/riotboard/arm-2012.09/bin/../arm-none-eabi/lib//libc.a(lib_a-s_fpclassify.o)
                              /home/leon/riotboard/arm-2012.09/bin/../arm-none-eabi/lib//libc.a(lib_a-vfprintf.o) (__fpclassifyd)
/home/leon/riotboard/arm-2012.09/bin/../arm-none-eabi/lib//libc.a(lib_a-wcrtomb.o)
                              /home/leon/riotboard/arm-2012.09/bin/../arm-none-eabi/lib//libc.a(lib_a-fputwc.o) (_wcrtomb_r)
/home/leon/riotboard/arm-2012.09/bin/../arm-none-eabi/lib//libc.a(lib_a-wctomb_r.o)
                              /home/leon/riotboard/arm-2012.09/bin/../arm-none-eabi/lib//libc.a(lib_a-wcrtomb.o) (__wctomb)
/home/leon/riotboard/arm-2012.09/bin/../arm-none-eabi/lib//libc.a(lib_a-callocr.o)
                              /home/leon/riotboard/arm-2012.09/bin/../arm-none-eabi/lib//libc.a(lib_a-mprec.o) (_calloc_r)
/home/leon/riotboard/arm-2012.09/bin/../arm-none-eabi/lib//libc.a(lib_a-fstatr.o)
                              /home/leon/riotboard/arm-2012.09/bin/../arm-none-eabi/lib//libc.a(lib_a-makebuf.o) (_fstat_r)
/home/leon/riotboard/arm-2012.09/bin/../arm-none-eabi/lib//libc.a(lib_a-isattyr.o)
                              /home/leon/riotboard/arm-2012.09/bin/../arm-none-eabi/lib//libc.a(lib_a-makebuf.o) (_isatty_r)
/home/leon/riotboard/arm-2012.09/bin/../lib/gcc/arm-none-eabi/4.7.2//libgcc.a(_udivsi3.o)
                              /home/leon/git/swp-report/iMX6_Platform_SDK/output/mx6sl/lib/libsdk.a(ccm_pll.o) (__aeabi_uidiv)
/home/leon/riotboard/arm-2012.09/bin/../lib/gcc/arm-none-eabi/4.7.2//libgcc.a(_divsi3.o)
                              /home/leon/git/swp-report/iMX6_Platform_SDK/output/mx6sl/lib/liblwip.a(tcp_in.o) (__aeabi_idiv)
/home/leon/riotboard/arm-2012.09/bin/../lib/gcc/arm-none-eabi/4.7.2//libgcc.a(_dvmd_tls.o)
                              /home/leon/riotboard/arm-2012.09/bin/../lib/gcc/arm-none-eabi/4.7.2//libgcc.a(_udivsi3.o) (__aeabi_idiv0)
/home/leon/riotboard/arm-2012.09/bin/../lib/gcc/arm-none-eabi/4.7.2//libgcc.a(_arm_addsubdf3.o)
                              /home/leon/riotboard/arm-2012.09/bin/../arm-none-eabi/lib//libc.a(lib_a-dtoa.o) (__aeabi_dsub)
/home/leon/riotboard/arm-2012.09/bin/../lib/gcc/arm-none-eabi/4.7.2//libgcc.a(_arm_muldivdf3.o)
                              /home/leon/riotboard/arm-2012.09/bin/../arm-none-eabi/lib//libc.a(lib_a-dtoa.o) (__aeabi_dmul)
/home/leon/riotboard/arm-2012.09/bin/../lib/gcc/arm-none-eabi/4.7.2//libgcc.a(_arm_cmpdf2.o)
                              /home/leon/riotboard/arm-2012.09/bin/../arm-none-eabi/lib//libc.a(lib_a-vfprintf.o) (__aeabi_dcmpeq)
/home/leon/riotboard/arm-2012.09/bin/../lib/gcc/arm-none-eabi/4.7.2//libgcc.a(_arm_fixdfsi.o)
                              /home/leon/riotboard/arm-2012.09/bin/../arm-none-eabi/lib//libc.a(lib_a-dtoa.o) (__aeabi_d2iz)
/home/leon/riotboard/arm-2012.09/bin/../lib/gcc/arm-none-eabi/4.7.2//libgcc.a(_aeabi_uldivmod.o)
                              /home/leon/git/swp-report/iMX6_Platform_SDK/output/mx6sl/lib/libsdk.a(timer.o) (__aeabi_uldivmod)
/home/leon/riotboard/arm-2012.09/bin/../lib/gcc/arm-none-eabi/4.7.2//libgcc.a(bpabi.o)
                              /home/leon/riotboard/arm-2012.09/bin/../lib/gcc/arm-none-eabi/4.7.2//libgcc.a(_aeabi_uldivmod.o) (__gnu_uldivmod_helper)
/home/leon/riotboard/arm-2012.09/bin/../lib/gcc/arm-none-eabi/4.7.2//libgcc.a(_divdi3.o)
                              /home/leon/riotboard/arm-2012.09/bin/../lib/gcc/arm-none-eabi/4.7.2//libgcc.a(bpabi.o) (__divdi3)
/home/leon/riotboard/arm-2012.09/bin/../lib/gcc/arm-none-eabi/4.7.2//libgcc.a(_udivdi3.o)
                              /home/leon/riotboard/arm-2012.09/bin/../lib/gcc/arm-none-eabi/4.7.2//libgcc.a(bpabi.o) (__udivdi3)
/home/leon/riotboard/arm-2012.09/bin/../lib/gcc/arm-none-eabi/4.7.2//libgcc.a(_clzsi2.o)
                              /home/leon/riotboard/arm-2012.09/bin/../lib/gcc/arm-none-eabi/4.7.2//libgcc.a(_divdi3.o) (__clzsi2)
/home/leon/git/swp-report/iMX6_Platform_SDK/output/mx6sl/lib/libsdk.a(runtime_support.o)
                              /home/leon/riotboard/arm-2012.09/bin/../arm-none-eabi/lib//libc.a(lib_a-isattyr.o) (_isatty)
/home/leon/git/swp-report/iMX6_Platform_SDK/output/mx6sl/lib/libsdk.a(gpio.o)
                              /home/leon/git/swp-report/iMX6_Platform_SDK/output/mx6sl/lib/liblwip.a(mx6_ethernetif.o) (gpio_set_direction)
/home/leon/git/swp-report/iMX6_Platform_SDK/output/mx6sl/lib/libsdk.a(imx6sl_gpio_map.o)
                              /home/leon/git/swp-report/iMX6_Platform_SDK/output/mx6sl/lib/libsdk.a(gpio.o) (k_gpio_mux_registers)

Allocating common symbols
Common symbol       size              file

errno               0x4               /home/leon/riotboard/arm-2012.09/bin/../arm-none-eabi/lib//libc.a(lib_a-reent.o)

Memory Configuration

Name             Origin             Length             Attributes
OCRAM            0x00900000         0x00020000         xrw
DDR              0x80000000         0x40000000         xrw
*default*        0x00000000         0xffffffff

Linker script and memory map

LOAD /home/leon/riotboard/arm-2012.09/bin/../lib/gcc/arm-none-eabi/4.7.2//crtbegin.o
LOAD /home/leon/riotboard/arm-2012.09/bin/../lib/gcc/arm-none-eabi/4.7.2//crti.o
LOAD /home/leon/riotboard/arm-2012.09/bin/../lib/gcc/arm-none-eabi/4.7.2//crtend.o
LOAD /home/leon/riotboard/arm-2012.09/bin/../lib/gcc/arm-none-eabi/4.7.2//crtn.o

.l1_page_table  0x00900000     0x4000
                0x00900000                __l1_page_table_start = .
                0x00904000                . = (. + 0x4000)
 *fill*         0x00900000     0x4000 

.heap.ocram     0x00904000    0x1bfb8
                0x00904000                __heap_ocram_start = .
                0x0091ffb8                . = (. + 0x1bfb8)
 *fill*         0x00904000    0x1bfb8 
                0x0091ffb8                __heap_ocram_end = .

.ram_vectors    0x0091ffb8       0x48
                0x0091ffb8                __ram_vectors_start = .
                0x00920000                . = (. + 0x48)
 *fill*         0x0091ffb8       0x48 
                0x00920000                __ram_vectors_end = .
                0x80000000                _start_image_add = ORIGIN (DDR)

.ivt            0x80000000      0x420
                0x80000400                . = (. + 0x400)
 *fill*         0x80000000      0x400 
 *(.ivt)
 .ivt           0x80000400       0x20 /home/leon/git/swp-report/iMX6_Platform_SDK/output/mx6sl/ping/evk_rev_a/obj/apps/common/ivt.o
                0x80000400                input_ivt

.boot_data      0x80000420        0xc
                0x80000420                __start_boot_data = .
 *(.boot_data)
 .boot_data     0x80000420        0xc /home/leon/git/swp-report/iMX6_Platform_SDK/output/mx6sl/ping/evk_rev_a/obj/apps/common/ivt.o
                0x80000420                bd

.dcd_hdr        0x80000430        0x4
                0x80000430                __start_dcd = .
 *(.dcd_hdr)
 .dcd_hdr       0x80000430        0x4 /home/leon/git/swp-report/iMX6_Platform_SDK/output/mx6sl/lib/libboard_evk_rev_a.a(dcd.o)
                0x80000430                input_dcd_hdr

.dcd_wrt_cmd    0x80000434        0x4
 *(.dcd_wrt_cmd)
 .dcd_wrt_cmd   0x80000434        0x4 /home/leon/git/swp-report/iMX6_Platform_SDK/output/mx6sl/lib/libboard_evk_rev_a.a(dcd.o)
                0x80000434                input_dcd_wrt_cmd

.dcd_data       0x80000438      0x240
 *(.dcd_data)
 .dcd_data      0x80000438      0x240 /home/leon/git/swp-report/iMX6_Platform_SDK/output/mx6sl/lib/libboard_evk_rev_a.a(dcd.o)
                0x80000438                input_dcd

.text           0x80000678    0x41d3c
 CREATE_OBJECT_SYMBOLS
 *(.startup)
 .startup       0x80000678      0x138 /home/leon/git/swp-report/iMX6_Platform_SDK/output/mx6sl/lib/libsdk.a(startup.o)
                0x80000678                _start
 *(.text .text.* .gnu.linkonce.t.*)
 .text          0x800007b0      0x128 /home/leon/riotboard/arm-2012.09/bin/../lib/gcc/arm-none-eabi/4.7.2//crtbegin.o
 .text          0x800008d8        0x0 /home/leon/riotboard/arm-2012.09/bin/../lib/gcc/arm-none-eabi/4.7.2//crti.o
 .text          0x800008d8        0x0 /home/leon/riotboard/arm-2012.09/bin/../lib/gcc/arm-none-eabi/4.7.2//crtend.o
 .text          0x800008d8        0x0 /home/leon/riotboard/arm-2012.09/bin/../lib/gcc/arm-none-eabi/4.7.2//crtn.o
 .text          0x800008d8        0x0 /home/leon/git/swp-report/iMX6_Platform_SDK/output/mx6sl/ping/evk_rev_a/obj/apps/common/ivt.o
 .text          0x800008d8       0x98 /home/leon/git/swp-report/iMX6_Platform_SDK/output/mx6sl/ping/evk_rev_a/obj/apps/common/platform_init.o
                0x800008d8                platform_init
 .text          0x80000970      0x6f4 /home/leon/git/swp-report/iMX6_Platform_SDK/output/mx6sl/ping/evk_rev_a/obj/apps/ping/src/ping.o
                0x80000f18                ping_send_now
                0x80000fc8                ping_send_to
                0x80001050                ping_init
 .text          0x80001064      0x514 /home/leon/git/swp-report/iMX6_Platform_SDK/output/mx6sl/ping/evk_rev_a/obj/apps/ping/src/ping_main.o
                0x80001064                netif_status_callback
                0x80001114                netif_link_status_callback
                0x80001180                init_lwip
                0x800012c0                dns_found
                0x80001350                get_target_address
                0x800013dc                ping_received
                0x80001464                run
                0x8000155c                main
 .text          0x80001578      0x968 /home/leon/git/swp-report/iMX6_Platform_SDK/output/mx6sl/lib/libsdk.a(ccm_pll.o)
                0x80001578                ccm_init
                0x8000169c                get_main_clock
                0x80001868                get_peri_clock
                0x80001948                ccm_ccgr_config
                0x800019b0                clock_gating_config
                0x80001d7c                ccm_set_lpm_wakeup_source
                0x80001e70                ccm_enter_low_power
 .text          0x80001ee0      0x164 /home/leon/git/swp-report/iMX6_Platform_SDK/output/mx6sl/lib/libsdk.a(cortexA9.o)
                0x80001ee0                arm_set_interrupt_state
                0x80001f04                cpu_get_current
                0x80001f10                enable_neon_fpu
                0x80001f2c                disable_strict_align_check
                0x80001f40                disable_L1_cache
                0x80001f60                get_arm_private_peripheral_base
                0x80001f68                arm_unified_tlb_invalidate
                0x80001f78                arm_unified_tlb_invalidate_is
                0x80001f88                arm_branch_prediction_enable
                0x80001f98                arm_branch_prediction_disable
                0x80001fa8                arm_branch_target_cache_invalidate
                0x80001fb4                arm_branch_target_cache_invalidate_is
                0x80001fc0                scu_enable
                0x80001fd4                scu_join_smp
                0x80001fe4                scu_leave_smp
                0x80001ff4                scu_get_cpus_in_smp
                0x80002008                scu_enable_maintenance_broadcast
                0x80002018                scu_disable_maintenance_broadcast
                0x80002028                scu_secure_invalidate
 .text          0x80002044      0x5e0 /home/leon/git/swp-report/iMX6_Platform_SDK/output/mx6sl/lib/libsdk.a(gic.o)
                0x80002128                gic_enable
                0x80002188                gic_set_irq_security
                0x80002230                gic_enable_irq
                0x800022ac                gic_set_irq_priority
                0x800022f4                gic_set_cpu_target
                0x80002400                gic_send_sgi
                0x80002454                gic_cpu_enable
                0x800024b4                gic_set_cpu_priority_mask
                0x800024e8                gic_read_irq_ack
                0x80002514                gic_write_end_of_irq
                0x80002544                gic_init
                0x800025e8                gic_init_cpu
 .text          0x80002624      0x460 /home/leon/git/swp-report/iMX6_Platform_SDK/output/mx6sl/lib/libsdk.a(mmu.o)
                0x80002624                mmu_enable
                0x8000265c                mmu_disable
                0x80002690                mmu_init
                0x800027ac                mmu_map_l1_range
                0x800029c4                mmu_virtual_to_physical
 .text          0x80002a84        0x0 /home/leon/git/swp-report/iMX6_Platform_SDK/output/mx6sl/lib/libsdk.a(startup.o)
 .text          0x80002a84        0x4 /home/leon/git/swp-report/iMX6_Platform_SDK/output/mx6sl/lib/libsdk.a(vectors.o)
                0x80002a84                exception_handler
 .text.vectors  0x80002a88       0x48 /home/leon/git/swp-report/iMX6_Platform_SDK/output/mx6sl/lib/libsdk.a(vectors.o)
                0x80002a88                vectors
 .text          0x80002ad0      0x914 /home/leon/git/swp-report/iMX6_Platform_SDK/output/mx6sl/lib/libsdk.a(system_util.o)
                0x80002ad0                _sys_exit
                0x80002aec                mybkpt
                0x80002af4                is_input_char
                0x80002c74                read_input_string
                0x80002f5c                get_input_hex
                0x800031dc                read_int
                0x80003340                jump_to_sdp
 .text          0x800033e4       0xe0 /home/leon/git/swp-report/iMX6_Platform_SDK/output/mx6sl/lib/libsdk.a(text_color.o)
                0x800033e4                printf_color
                0x80003480                get_color_supported
 .text          0x800034c4     0x10d4 /home/leon/git/swp-report/iMX6_Platform_SDK/output/mx6sl/lib/libsdk.a(fec_drv.o)
                0x800034c4                imx_fec_mii_read
                0x800035d4                imx_fec_mii_write
                0x80003aa8                imx_fec_phy_init
                0x80003c1c                imx_fec_get_phy_status
                0x80003d4c                imx_fec_poll
                0x80003e44                imx_fec_send
                0x80003f5c                imx_fec_recv
                0x80004138                imx_fec_init
                0x8000428c                imx_fec_start
                0x8000431c                imx_fec_stop
                0x80004360                imx_fec_isolate_phy
                0x80004404                imx_fec_unisolate_phy
                0x800044cc                imx_fec_mii_type
 .text          0x80004598      0x290 /home/leon/git/swp-report/iMX6_Platform_SDK/output/mx6sl/lib/libsdk.a(timer.o)
                0x80004598                hal_delay_us
                0x80004608                system_time_init
                0x80004768                time_get_microseconds
 .text          0x80004828     0x2820 /home/leon/git/swp-report/iMX6_Platform_SDK/output/mx6sl/lib/libsdk.a(imx_uart.o)
                0x80004828                uart_get_reffreq
                0x80004924                uart_putchar
                0x80004a74                uart_getchar
                0x80004bd4                uart_set_FIFO_mode
                0x80005700                uart_set_loopback_mode
                0x80005954                uart_setup_interrupt
                0x80005a20                uart_init
 .text          0x80007048       0x98 /home/leon/git/swp-report/iMX6_Platform_SDK/output/mx6sl/lib/libsdk.a(arm_abort.o)
                0x80007048                common_abort_handler
                0x800070a8                data_abort_handler
                0x800070c0                prefetch_abort_handler
 .text          0x800070e0      0x1bc /home/leon/git/swp-report/iMX6_Platform_SDK/output/mx6sl/lib/libsdk.a(interrupt.o)
                0x800070e0                IRQ_HDLR
                0x800071a8                disable_interrupt
                0x800071e4                enable_interrupt
                0x8000723c                register_interrupt_routine
                0x80007270                default_interrupt_routine
 .text          0x8000729c      0x8e0 /home/leon/git/swp-report/iMX6_Platform_SDK/output/mx6sl/lib/libsdk.a(epit.o)
                0x8000729c                epit_reload_counter
                0x800072fc                epit_get_counter_value
                0x80007358                epit_set_compare_event
                0x800073b8                epit_get_compare_event
                0x800074b0                epit_counter_disable
                0x80007674                epit_counter_enable
                0x800078d0                epit_setup_interrupt
                0x80007960                epit_init
 .text          0x80007b7c      0x4bc /home/leon/git/swp-report/iMX6_Platform_SDK/output/mx6sl/lib/libsdk.a(abort_handler.o)
                0x80007b7c                dump_regs
 .text          0x80008038       0x10 /home/leon/git/swp-report/iMX6_Platform_SDK/output/mx6sl/lib/libboard_evk_rev_a.a(board_io_expanders.o)
                0x80008038                board_ioexpander_init
 .text          0x80008048        0x0 /home/leon/git/swp-report/iMX6_Platform_SDK/output/mx6sl/lib/libboard_evk_rev_a.a(dcd.o)
 .text          0x80008048        0x0 /home/leon/git/swp-report/iMX6_Platform_SDK/output/mx6sl/lib/libboard_evk_rev_a.a(hardware_modules.o)
 .text          0x80008048       0x90 /home/leon/git/swp-report/iMX6_Platform_SDK/output/mx6sl/lib/libboard_evk_rev_a.a(uart_iomux_config.o)
                0x80008048                uart_iomux_config
 .text          0x800080d8      0x20c /home/leon/git/swp-report/iMX6_Platform_SDK/output/mx6sl/lib/libboard_evk_rev_a.a(iomux_config.o)
                0x800080d8                iomux_config
                0x80008144                arm_iomux_config
                0x80008154                ccm_iomux_config
                0x80008164                ecspi3_iomux_config
                0x80008174                ecspi4_iomux_config
                0x80008184                eim_iomux_config
                0x80008194                epit1_iomux_config
                0x800081a4                epit2_iomux_config
                0x800081b4                gpio2_iomux_config
                0x800081c4                gpio3_iomux_config
                0x800081d4                gpio5_iomux_config
                0x800081e4                gpt_iomux_config
                0x800081f4                pmu_iomux_config
                0x80008204                pwm2_iomux_config
                0x80008214                pwm3_iomux_config
                0x80008224                pwm4_iomux_config
                0x80008234                sdma_iomux_config
                0x80008244                snvs_iomux_config
                0x80008254                spdif_iomux_config
                0x80008264                src_iomux_config
                0x80008274                uart2_iomux_config
                0x80008284                uart3_iomux_config
                0x80008294                uart4_iomux_config
                0x800082a4                uart5_iomux_config
                0x800082b4                usdhc4_iomux_config
                0x800082c4                wdog2_iomux_config
                0x800082d4                xtalosc_iomux_config
 .text          0x800082e4      0x1b0 /home/leon/git/swp-report/iMX6_Platform_SDK/output/mx6sl/lib/libboard_evk_rev_a.a(kpp_iomux_config.o)
                0x800082e4                kpp_iomux_config
 .text          0x80008494      0x5b4 /home/leon/git/swp-report/iMX6_Platform_SDK/output/mx6sl/lib/libboard_evk_rev_a.a(lcd_iomux_config.o)
                0x80008494                lcd_iomux_config
 .text          0x80008a48     0x1644 /home/leon/git/swp-report/iMX6_Platform_SDK/output/mx6sl/lib/libboard_evk_rev_a.a(mmdc_iomux_config.o)
                0x80008a48                mmdc_iomux_config
 .text          0x8000a08c       0x34 /home/leon/git/swp-report/iMX6_Platform_SDK/output/mx6sl/lib/libboard_evk_rev_a.a(pwm1_iomux_config.o)
                0x8000a08c                pwm1_iomux_config
 .text          0x8000a0c0       0x70 /home/leon/git/swp-report/iMX6_Platform_SDK/output/mx6sl/lib/libboard_evk_rev_a.a(sjc_iomux_config.o)
                0x8000a0c0                sjc_iomux_config
 .text          0x8000a130      0x250 /home/leon/git/swp-report/iMX6_Platform_SDK/output/mx6sl/lib/libboard_evk_rev_a.a(spdc_iomux_config.o)
                0x8000a130                spdc_iomux_config
 .text          0x8000a380       0x78 /home/leon/git/swp-report/iMX6_Platform_SDK/output/mx6sl/lib/libboard_evk_rev_a.a(uart1_iomux_config.o)
                0x8000a380                uart1_iomux_config
 .text          0x8000a3f8       0xc0 /home/leon/git/swp-report/iMX6_Platform_SDK/output/mx6sl/lib/libboard_evk_rev_a.a(usb_iomux_config.o)
                0x8000a3f8                usb_iomux_config
 .text          0x8000a4b8      0x1e0 /home/leon/git/swp-report/iMX6_Platform_SDK/output/mx6sl/lib/libboard_evk_rev_a.a(usdhc1_iomux_config.o)
                0x8000a4b8                usdhc1_iomux_config
 .text          0x8000a698      0x174 /home/leon/git/swp-report/iMX6_Platform_SDK/output/mx6sl/lib/libboard_evk_rev_a.a(usdhc2_iomux_config.o)
                0x8000a698                usdhc2_iomux_config
 .text          0x8000a80c      0x11c /home/leon/git/swp-report/iMX6_Platform_SDK/output/mx6sl/lib/libboard_evk_rev_a.a(usdhc3_iomux_config.o)
                0x8000a80c                usdhc3_iomux_config
 .text          0x8000a928       0x34 /home/leon/git/swp-report/iMX6_Platform_SDK/output/mx6sl/lib/libboard_evk_rev_a.a(wdog1_iomux_config.o)
                0x8000a928                wdog1_iomux_config
 .text          0x8000a95c      0x10c /home/leon/git/swp-report/iMX6_Platform_SDK/output/mx6sl/lib/libboard_evk_rev_a.a(audmux_iomux_config.o)
                0x8000a95c                audmux_iomux_config
 .text          0x8000aa68      0x320 /home/leon/git/swp-report/iMX6_Platform_SDK/output/mx6sl/lib/libboard_evk_rev_a.a(csi_iomux_config.o)
                0x8000aa68                csi_iomux_config
 .text          0x8000ad88       0xe0 /home/leon/git/swp-report/iMX6_Platform_SDK/output/mx6sl/lib/libboard_evk_rev_a.a(ecspi1_iomux_config.o)
                0x8000ad88                ecspi1_iomux_config
 .text          0x8000ae68       0xe0 /home/leon/git/swp-report/iMX6_Platform_SDK/output/mx6sl/lib/libboard_evk_rev_a.a(ecspi2_iomux_config.o)
                0x8000ae68                ecspi2_iomux_config
 .text          0x8000af48      0x5d0 /home/leon/git/swp-report/iMX6_Platform_SDK/output/mx6sl/lib/libboard_evk_rev_a.a(epdc_iomux_config.o)
                0x8000af48                epdc_iomux_config
 .text          0x8000b518      0x1dc /home/leon/git/swp-report/iMX6_Platform_SDK/output/mx6sl/lib/libboard_evk_rev_a.a(fec_iomux_config.o)
                0x8000b518                fec_iomux_config
 .text          0x8000b6f4       0x10 /home/leon/git/swp-report/iMX6_Platform_SDK/output/mx6sl/lib/libboard_evk_rev_a.a(gpio1_iomux_config.o)
                0x8000b6f4                gpio1_iomux_config
 .text          0x8000b704       0x10 /home/leon/git/swp-report/iMX6_Platform_SDK/output/mx6sl/lib/libboard_evk_rev_a.a(gpio4_iomux_config.o)
                0x8000b704                gpio4_iomux_config
 .text          0x8000b714       0x78 /home/leon/git/swp-report/iMX6_Platform_SDK/output/mx6sl/lib/libboard_evk_rev_a.a(i2c1_iomux_config.o)
                0x8000b714                i2c1_iomux_config
 .text          0x8000b78c       0x78 /home/leon/git/swp-report/iMX6_Platform_SDK/output/mx6sl/lib/libboard_evk_rev_a.a(i2c2_iomux_config.o)
                0x8000b78c                i2c2_iomux_config
 .text          0x8000b804       0x70 /home/leon/git/swp-report/iMX6_Platform_SDK/output/mx6sl/lib/libboard_evk_rev_a.a(i2c3_iomux_config.o)
                0x8000b804                i2c3_iomux_config
 .text          0x8000b874      0x100 /home/leon/git/swp-report/iMX6_Platform_SDK/output/mx6sl/lib/liblwip.a(def.o)
                0x8000b874                lwip_htons
                0x8000b8c0                lwip_ntohs
                0x8000b8f4                lwip_htonl
                0x8000b948                lwip_ntohl
 .text          0x8000b974     0x3aa8 /home/leon/git/swp-report/iMX6_Platform_SDK/output/mx6sl/lib/liblwip.a(dhcp.o)
                0x8000bda0                dhcp_coarse_tmr
                0x8000be80                dhcp_fine_tmr
                0x8000c3f4                dhcp_set_struct
                0x8000c4dc                dhcp_cleanup
                0x8000c55c                dhcp_start
                0x8000c820                dhcp_inform
                0x8000c9f4                dhcp_network_changed
                0x8000cad4                dhcp_arp_reply
                0x8000d244                dhcp_renew
                0x8000d75c                dhcp_release
                0x8000d978                dhcp_stop
 .text          0x8000f41c     0x10d0 /home/leon/git/swp-report/iMX6_Platform_SDK/output/mx6sl/lib/liblwip.a(dns.o)
                0x8000f41c                dns_init
                0x8000f4f4                dns_setserver
                0x8000f578                dns_getserver
                0x8000f5c8                dns_tmr
                0x8001040c                dns_gethostbyname
 .text          0x800104ec      0x864 /home/leon/git/swp-report/iMX6_Platform_SDK/output/mx6sl/lib/liblwip.a(inet_chksum.o)
                0x800104ec                lwip_standard_chksum
                0x800107f8                inet_chksum_pseudo
                0x80010afc                inet_chksum_pseudo_partial
                0x80010be8                inet_chksum
                0x80010c2c                inet_chksum_pbuf
 .text          0x80010d50       0x30 /home/leon/git/swp-report/iMX6_Platform_SDK/output/mx6sl/lib/liblwip.a(init.o)
                0x80010d50                lwip_init
 .text          0x80010d80      0xcc0 /home/leon/git/swp-report/iMX6_Platform_SDK/output/mx6sl/lib/liblwip.a(autoip.o)
                0x80010d80                autoip_set_struct
                0x8001123c                autoip_start
                0x800114c8                autoip_network_changed
                0x80011518                autoip_stop
                0x80011558                autoip_tmr
                0x800118a0                autoip_arp_reply
 .text          0x80011a40     0x11b0 /home/leon/git/swp-report/iMX6_Platform_SDK/output/mx6sl/lib/liblwip.a(igmp.o)
                0x80011a40                igmp_init
                0x80011a78                igmp_dump_group_list
                0x80011abc                igmp_start
                0x80011b5c                igmp_stop
                0x80011c58                igmp_report_groups
                0x80011cc0                igmp_lookfor_group
                0x80011f1c                igmp_input
                0x80012328                igmp_joingroup
                0x8001252c                igmp_leavegroup
                0x80012718                igmp_tmr
 .text          0x80012bf0     0x11e4 /home/leon/git/swp-report/iMX6_Platform_SDK/output/mx6sl/lib/liblwip.a(ip4.o)
                0x80012bf0                ip_route
                0x80012ce4                ip_input
                0x80013480                ip_output_if
                0x800134ec                ip_output_if_opt
                0x80013c04                ip_output
                0x80013cdc                ip_output_hinted
 .text          0x80013dd4      0x7dc /home/leon/git/swp-report/iMX6_Platform_SDK/output/mx6sl/lib/liblwip.a(ip4_addr.o)
                0x80013dd4                ip4_addr_isbroadcast
                0x80013eb0                ip4_addr_netmask_valid
                0x80013f58                ipaddr_addr
                0x80013fa0                ipaddr_aton
                0x8001436c                ipaddr_ntoa
                0x800143a4                ipaddr_ntoa_r
 .text          0x800145b0        0x0 /home/leon/git/swp-report/iMX6_Platform_SDK/output/mx6sl/lib/liblwip.a(memp.o)
 .text          0x800145b0      0xdd8 /home/leon/git/swp-report/iMX6_Platform_SDK/output/mx6sl/lib/liblwip.a(netif.o)
                0x800145b0                netif_init
                0x800145c0                netif_add
                0x80014784                netif_set_addr
                0x800147d0                netif_remove
                0x80014900                netif_find
                0x800149c8                netif_set_ipaddr
                0x80014b5c                netif_set_gw
                0x80014ba0                netif_set_netmask
                0x80014bfc                netif_set_default
                0x80014c50                netif_set_up
                0x80014d30                netif_set_down
                0x80014dc4                netif_set_status_callback
                0x80014dfc                netif_set_link_up
                0x80014ef0                netif_set_link_down
                0x80014f58                netif_set_link_callback
                0x80014f90                netif_loop_output
                0x8001518c                netif_poll
                0x8001533c                netif_poll_all
 .text          0x80015388     0x1b34 /home/leon/git/swp-report/iMX6_Platform_SDK/output/mx6sl/lib/liblwip.a(pbuf.o)
                0x80015388                pbuf_free_ooseq
                0x8001542c                pbuf_alloc
                0x800159e4                pbuf_realloc
                0x80015c5c                pbuf_header
                0x80015e7c                pbuf_free
                0x80016058                pbuf_clen
                0x800160ac                pbuf_ref
                0x800160ec                pbuf_cat
                0x80016244                pbuf_chain
                0x80016278                pbuf_dechain
                0x800163b8                pbuf_copy
                0x800166e0                pbuf_copy_partial
                0x800168ac                pbuf_take
                0x80016aa8                pbuf_coalesce
                0x80016b74                pbuf_get_at
                0x80016c2c                pbuf_memcmp
                0x80016d58                pbuf_memfind
                0x80016e1c                pbuf_strstr
 .text          0x80016ebc      0x5e4 /home/leon/git/swp-report/iMX6_Platform_SDK/output/mx6sl/lib/liblwip.a(raw.o)
                0x80016ebc                raw_input
                0x80017038                raw_bind
                0x80017088                raw_connect
                0x800170d8                raw_recv
                0x80017114                raw_sendto
                0x8001730c                raw_send
                0x8001734c                raw_remove
                0x80017408                raw_new
 .text          0x800174a0     0x5eb4 /home/leon/git/swp-report/iMX6_Platform_SDK/output/mx6sl/lib/liblwip.a(mib2.o)
                0x80017514                objectidncpy
                0x80017588                snmp_set_sysdesr
                0x800175d4                snmp_get_sysobjid_ptr
                0x80017600                snmp_set_sysobjid
                0x80017640                snmp_inc_sysuptime
                0x8001766c                snmp_add_sysuptime
                0x800176a8                snmp_get_sysuptime
                0x800176fc                snmp_set_syscontact
                0x80017748                snmp_set_sysname
                0x80017794                snmp_set_syslocation
                0x800177e0                snmp_add_ifinoctets
                0x80017818                snmp_inc_ifinucastpkts
                0x80017848                snmp_inc_ifinnucastpkts
                0x80017878                snmp_inc_ifindiscards
                0x800178a8                snmp_add_ifoutoctets
                0x800178e0                snmp_inc_ifoutucastpkts
                0x80017910                snmp_inc_ifoutnucastpkts
                0x80017940                snmp_inc_ifoutdiscards
                0x80017970                snmp_inc_iflist
                0x800179c8                snmp_dec_iflist
                0x80017a18                snmp_insert_arpidx_tree
                0x80017c38                snmp_delete_arpidx_tree
                0x80017ee8                snmp_inc_ipinreceives
                0x80017f14                snmp_inc_ipinhdrerrors
                0x80017f40                snmp_inc_ipinaddrerrors
                0x80017f6c                snmp_inc_ipforwdatagrams
                0x80017f98                snmp_inc_ipinunknownprotos
                0x80017fc4                snmp_inc_ipindiscards
                0x80017ff0                snmp_inc_ipindelivers
                0x8001801c                snmp_inc_ipoutrequests
                0x80018048                snmp_inc_ipoutdiscards
                0x80018074                snmp_inc_ipoutnoroutes
                0x800180a0                snmp_inc_ipreasmreqds
                0x800180cc                snmp_inc_ipreasmoks
                0x800180f8                snmp_inc_ipreasmfails
                0x80018124                snmp_inc_ipfragoks
                0x80018150                snmp_inc_ipfragfails
                0x8001817c                snmp_inc_ipfragcreates
                0x800181a8                snmp_inc_iproutingdiscards
                0x800181d4                snmp_insert_ipaddridx_tree
                0x80018364                snmp_delete_ipaddridx_tree
                0x800185d8                snmp_insert_iprteidx_tree
                0x80018794                snmp_delete_iprteidx_tree
                0x80018a34                snmp_inc_icmpinmsgs
                0x80018a60                snmp_inc_icmpinerrors
                0x80018a8c                snmp_inc_icmpindestunreachs
                0x80018ab8                snmp_inc_icmpintimeexcds
                0x80018ae4                snmp_inc_icmpinparmprobs
                0x80018b10                snmp_inc_icmpinsrcquenchs
                0x80018b3c                snmp_inc_icmpinredirects
                0x80018b68                snmp_inc_icmpinechos
                0x80018b94                snmp_inc_icmpinechoreps
                0x80018bc0                snmp_inc_icmpintimestamps
                0x80018bec                snmp_inc_icmpintimestampreps
                0x80018c18                snmp_inc_icmpinaddrmasks
                0x80018c44                snmp_inc_icmpinaddrmaskreps
                0x80018c70                snmp_inc_icmpoutmsgs
                0x80018c9c                snmp_inc_icmpouterrors
                0x80018cc8                snmp_inc_icmpoutdestunreachs
                0x80018cf4                snmp_inc_icmpouttimeexcds
                0x80018d20                snmp_inc_icmpoutparmprobs
                0x80018d4c                snmp_inc_icmpoutsrcquenchs
                0x80018d78                snmp_inc_icmpoutredirects
                0x80018da4                snmp_inc_icmpoutechos
                0x80018dd0                snmp_inc_icmpoutechoreps
                0x80018dfc                snmp_inc_icmpouttimestamps
                0x80018e28                snmp_inc_icmpouttimestampreps
                0x80018e54                snmp_inc_icmpoutaddrmasks
                0x80018e80                snmp_inc_icmpoutaddrmaskreps
                0x80018eac                snmp_inc_tcpactiveopens
                0x80018ed8                snmp_inc_tcppassiveopens
                0x80018f04                snmp_inc_tcpattemptfails
                0x80018f30                snmp_inc_tcpestabresets
                0x80018f5c                snmp_inc_tcpinsegs
                0x80018f88                snmp_inc_tcpoutsegs
                0x80018fb4                snmp_inc_tcpretranssegs
                0x80018fe0                snmp_inc_tcpinerrs
                0x8001900c                snmp_inc_tcpoutrsts
                0x80019038                snmp_inc_udpindatagrams
                0x80019064                snmp_inc_udpnoports
                0x80019090                snmp_inc_udpinerrors
                0x800190bc                snmp_inc_udpoutdatagrams
                0x800190e8                snmp_insert_udpidx_tree
                0x80019280                snmp_delete_udpidx_tree
                0x80019578                snmp_inc_snmpinpkts
                0x800195a4                snmp_inc_snmpoutpkts
                0x800195d0                snmp_inc_snmpinbadversions
                0x800195fc                snmp_inc_snmpinbadcommunitynames
                0x80019628                snmp_inc_snmpinbadcommunityuses
                0x80019654                snmp_inc_snmpinasnparseerrs
                0x80019680                snmp_inc_snmpintoobigs
                0x800196ac                snmp_inc_snmpinnosuchnames
                0x800196d8                snmp_inc_snmpinbadvalues
                0x80019704                snmp_inc_snmpinreadonlys
                0x80019730                snmp_inc_snmpingenerrs
                0x8001975c                snmp_add_snmpintotalreqvars
                0x8001979c                snmp_add_snmpintotalsetvars
                0x800197dc                snmp_inc_snmpingetrequests
                0x80019808                snmp_inc_snmpingetnexts
                0x80019834                snmp_inc_snmpinsetrequests
                0x80019860                snmp_inc_snmpingetresponses
                0x8001988c                snmp_inc_snmpintraps
                0x800198b8                snmp_inc_snmpouttoobigs
                0x800198e4                snmp_inc_snmpoutnosuchnames
                0x80019910                snmp_inc_snmpoutbadvalues
                0x8001993c                snmp_inc_snmpoutgenerrs
                0x80019968                snmp_inc_snmpoutgetrequests
                0x80019994                snmp_inc_snmpoutgetnexts
                0x800199c0                snmp_inc_snmpoutsetrequests
                0x800199ec                snmp_inc_snmpoutgetresponses
                0x80019a18                snmp_inc_snmpouttraps
                0x80019a44                snmp_get_snmpgrpid_ptr
                0x80019a70                snmp_set_snmpenableauthentraps
                0x80019aa8                snmp_get_snmpenableauthentraps
                0x80019adc                noleafs_get_object_def
                0x80019b10                noleafs_get_value
                0x80019b38                noleafs_set_test
                0x80019b68                noleafs_set_value
 .text          0x8001d354     0x1e68 /home/leon/git/swp-report/iMX6_Platform_SDK/output/mx6sl/lib/liblwip.a(mib_structs.o)
                0x8001d4a8                snmp_ifindextonetif
                0x8001d530                snmp_netiftoifindex
                0x8001d5b0                snmp_oidtoip
                0x8001d62c                snmp_iptooid
                0x8001d6a8                snmp_mib_ln_alloc
                0x8001d720                snmp_mib_ln_free
                0x8001d744                snmp_mib_lrn_alloc
                0x8001d804                snmp_mib_lrn_free
                0x8001d828                snmp_mib_node_insert
                0x8001db00                snmp_mib_node_find
                0x8001dc34                snmp_mib_node_delete
                0x8001ddd8                snmp_search_tree
                0x8001e2c4                snmp_expand_tree
                0x8001effc                snmp_iso_prefix_tst
                0x8001f088                snmp_iso_prefix_expand
 .text          0x8001f1bc     0x3030 /home/leon/git/swp-report/iMX6_Platform_SDK/output/mx6sl/lib/liblwip.a(msg_in.o)
                0x8001f1bc                snmp_init
                0x800209b4                snmp_msg_event
                0x80021dc8                snmp_varbind_alloc
                0x80021ffc                snmp_varbind_free
                0x80022060                snmp_varbind_list_free
                0x800220d8                snmp_varbind_tail_add
                0x80022168                snmp_varbind_tail_remove
 .text          0x800221ec     0x1bcc /home/leon/git/swp-report/iMX6_Platform_SDK/output/mx6sl/lib/liblwip.a(msg_out.o)
                0x800221ec                snmp_trap_dst_enable
                0x80022244                snmp_trap_dst_ip_set
                0x800222a0                snmp_send_response
                0x800224b4                snmp_send_trap
                0x800226fc                snmp_coldstart_trap
                0x8002274c                snmp_authfail_trap
 .text          0x80023db8      0x6c8 /home/leon/git/swp-report/iMX6_Platform_SDK/output/mx6sl/lib/liblwip.a(stats.o)
                0x80023db8                stats_init
                0x80023e80                stats_display_proto
                0x80023fd0                stats_display_igmp
                0x80024150                stats_display_mem
                0x800241e0                stats_display_memp
                0x80024264                stats_display_sys
                0x80024364                stats_display
 .text          0x80024480     0x4af8 /home/leon/git/swp-report/iMX6_Platform_SDK/output/mx6sl/lib/liblwip.a(tcp_in.o)
                0x80024480                tcp_input
 .text          0x80028f78     0x2ee0 /home/leon/git/swp-report/iMX6_Platform_SDK/output/mx6sl/lib/liblwip.a(tcp.o)
                0x80028f78                tcp_init
                0x80028f88                tcp_tmr
                0x80029470                tcp_close
                0x800294c8                tcp_shutdown
                0x800295d0                tcp_abandon
                0x80029794                tcp_abort
                0x800297bc                tcp_bind
                0x80029a14                tcp_listen_with_backlog
                0x80029d10                tcp_update_rcv_ann_wnd
                0x80029e3c                tcp_recved
                0x8002a078                tcp_connect
                0x8002a4f4                tcp_slowtmr
                0x8002aedc                tcp_fasttmr
                0x8002b008                tcp_process_refused_data
                0x8002b174                tcp_segs_free
                0x8002b1bc                tcp_seg_free
                0x8002b20c                tcp_setprio
                0x8002b23c                tcp_seg_copy
                0x8002b2ac                tcp_recv_null
                0x8002b4cc                tcp_alloc
                0x8002b720                tcp_new
                0x8002b740                tcp_arg
                0x8002b76c                tcp_recv
                0x8002b7d4                tcp_sent
                0x8002b83c                tcp_err
                0x8002b8a4                tcp_accept
                0x8002b8d0                tcp_poll
                0x8002b94c                tcp_pcb_purge
                0x8002bb54                tcp_pcb_remove
                0x8002bd58                tcp_next_iss
                0x8002bda0                tcp_eff_send_mss_impl
                0x8002be24                tcp_debug_state_str
 .text          0x8002be58     0x2e6c /home/leon/git/swp-report/iMX6_Platform_SDK/output/mx6sl/lib/liblwip.a(tcp_out.o)
                0x8002c118                tcp_send_fin
                0x8002c814                tcp_write
                0x8002d338                tcp_enqueue_flags
                0x8002d79c                tcp_send_empty_ack
                0x8002d8cc                tcp_output
                0x8002e310                tcp_rst_impl
                0x8002e5e8                tcp_rexmit_rto
                0x8002e6a0                tcp_rexmit
                0x8002e804                tcp_rexmit_fast
                0x8002e918                tcp_keepalive
                0x8002ea30                tcp_zero_window_probe
 .text          0x8002ecc4      0x724 /home/leon/git/swp-report/iMX6_Platform_SDK/output/mx6sl/lib/liblwip.a(timers.o)
                0x8002ed34                tcp_timer_needed
                0x8002eedc                sys_timeouts_init
                0x8002ef78                sys_timeout
                0x8002f18c                sys_untimeout
                0x8002f2a0                sys_check_timeouts
                0x8002f3c4                sys_restart_timeouts
 .text          0x8002f3e8     0x1294 /home/leon/git/swp-report/iMX6_Platform_SDK/output/mx6sl/lib/liblwip.a(udp.o)
                0x8002f3e8                udp_init
                0x8002f4e8                udp_input
                0x8002fd00                udp_send
                0x8002fd44                udp_sendto
                0x8002fdf8                udp_sendto_if
                0x800301c0                udp_bind
                0x800303a4                udp_connect
                0x800304d0                udp_disconnect
                0x8003051c                udp_recv
                0x80030558                udp_remove
                0x8003061c                udp_new
 .text          0x8003067c     0x2750 /home/leon/git/swp-report/iMX6_Platform_SDK/output/mx6sl/lib/liblwip.a(etharp.o)
                0x80030a58                etharp_tmr
                0x80031530                etharp_cleanup_netif
                0x800315f0                etharp_find_addr
                0x80031df0                etharp_output
                0x80032254                etharp_query
                0x800327f4                etharp_raw
                0x80032ae4                etharp_request
                0x80032b5c                ethernet_input
 .text          0x80032dcc      0x660 /home/leon/git/swp-report/iMX6_Platform_SDK/output/mx6sl/lib/liblwip.a(mx6_ethernetif.o)
                0x80032dcc                enet_set_mac
                0x80032dfc                imx_fec_setup
                0x80032e60                init_fec
                0x8003329c                enet_poll_for_packet
                0x800332e8                enet_init
 .text          0x8003342c      0x188 /home/leon/git/swp-report/iMX6_Platform_SDK/output/mx6sl/lib/liblwip.a(mx6_lwip.o)
                0x8003342c                mx6_init_lwip
                0x80033458                check_and_update_ms_timer
                0x800334d0                mx6_run_lwip
 .text          0x800335b4       0x40 /home/leon/git/swp-report/iMX6_Platform_SDK/output/mx6sl/lib/liblwip.a(sys_arch.o)
                0x800335b4                sys_now
 .text          0x800335f4      0x8a8 /home/leon/git/swp-report/iMX6_Platform_SDK/output/mx6sl/lib/liblwip.a(icmp.o)
                0x800335f4                icmp_input
                0x80033c84                icmp_dest_unreach
 .text          0x80033e9c      0xfa0 /home/leon/git/swp-report/iMX6_Platform_SDK/output/mx6sl/lib/liblwip.a(asn1_dec.o)
                0x80033e9c                snmp_asn1_dec_type
                0x80033f5c                snmp_asn1_dec_length
                0x80034324                snmp_asn1_dec_u32t
                0x80034588                snmp_asn1_dec_s32t
                0x80034800                snmp_asn1_dec_oid
                0x80034cac                snmp_asn1_dec_raw
 .text          0x80034e3c      0xdb0 /home/leon/git/swp-report/iMX6_Platform_SDK/output/mx6sl/lib/liblwip.a(asn1_enc.o)
                0x80034e3c                snmp_asn1_enc_length_cnt
                0x80034ea4                snmp_asn1_enc_u32t_cnt
                0x80034f4c                snmp_asn1_enc_s32t_cnt
                0x80034ff0                snmp_asn1_enc_oid_cnt
                0x800350d4                snmp_asn1_enc_type
                0x80035190                snmp_asn1_enc_length
                0x800353c0                snmp_asn1_enc_u32t
                0x800355b4                snmp_asn1_enc_s32t
                0x80035718                snmp_asn1_enc_oid
                0x80035a7c                snmp_asn1_enc_raw
 .text          0x80035bec       0x14 /home/leon/riotboard/arm-2012.09/bin/../arm-none-eabi/lib//libc.a(lib_a-abort.o)
                0x80035bec                abort
 .text          0x80035c00       0x68 /home/leon/riotboard/arm-2012.09/bin/../arm-none-eabi/lib//libc.a(lib_a-assert.o)
                0x80035c00                __assert_func
                0x80035c58                __assert
 .text          0x80035c68       0x20 /home/leon/riotboard/arm-2012.09/bin/../arm-none-eabi/lib//libc.a(lib_a-bzero.o)
                0x80035c68                bzero
 .text          0x80035c88      0x26c /home/leon/riotboard/arm-2012.09/bin/../arm-none-eabi/lib//libc.a(lib_a-fflush.o)
                0x80035c88                _fflush_r
                0x80035eb4                fflush
 .text          0x80035ef4      0x2c4 /home/leon/riotboard/arm-2012.09/bin/../arm-none-eabi/lib//libc.a(lib_a-findfp.o)
                0x80035f04                _cleanup_r
                0x80035f98                __sfmoreglue
                0x80035fe0                _cleanup
                0x80035ff0                __sinit
                0x80036068                __sfp
                0x80036160                __sfp_lock_acquire
                0x80036164                __sfp_lock_release
                0x80036168                __sinit_lock_acquire
                0x8003616c                __sinit_lock_release
                0x80036170                __fp_lock_all
                0x80036194                __fp_unlock_all
 .text          0x800361b8       0x70 /home/leon/riotboard/arm-2012.09/bin/../arm-none-eabi/lib//libc.a(lib_a-fiprintf.o)
                0x800361b8                _fiprintf_r
                0x800361e8                fiprintf
 .text          0x80036228       0x94 /home/leon/riotboard/arm-2012.09/bin/../arm-none-eabi/lib//libc.a(lib_a-fputc.o)
                0x80036228                _fputc_r
                0x8003626c                fputc
 .text          0x800362bc      0x368 /home/leon/riotboard/arm-2012.09/bin/../arm-none-eabi/lib//libc.a(lib_a-freer.o)
                0x800362bc                _malloc_trim_r
                0x800363b8                _free_r
 .text          0x80036624      0x114 /home/leon/riotboard/arm-2012.09/bin/../arm-none-eabi/lib//libc.a(lib_a-fwalk.o)
                0x80036624                _fwalk
                0x800366ac                _fwalk_reent
 .text          0x80036738        0x0 /home/leon/riotboard/arm-2012.09/bin/../arm-none-eabi/lib//libc.a(lib_a-impure.o)
 .text          0x80036738       0x88 /home/leon/riotboard/arm-2012.09/bin/../arm-none-eabi/lib//libc.a(lib_a-init.o)
                0x80036738                __libc_init_array
 .text          0x800367c0       0x40 /home/leon/riotboard/arm-2012.09/bin/../arm-none-eabi/lib//libc.a(lib_a-malloc.o)
                0x800367c0                malloc
                0x800367e0                free
 .text          0x80036800      0x71c /home/leon/riotboard/arm-2012.09/bin/../arm-none-eabi/lib//libc.a(lib_a-mallocr.o)
                0x80036800                _malloc_r
 .text          0x80036f1c       0xb4 /home/leon/riotboard/arm-2012.09/bin/../arm-none-eabi/lib//libc.a(lib_a-memcmp.o)
                0x80036f1c                memcmp
 .text          0x80036fd0      0x20c /home/leon/riotboard/arm-2012.09/bin/../arm-none-eabi/lib//libc.a(lib_a-memcpy.o)
                0x80036fd0                memcpy
 .text          0x800371dc      0x134 /home/leon/riotboard/arm-2012.09/bin/../arm-none-eabi/lib//libc.a(lib_a-memset.o)
                0x800371dc                memset
 .text          0x80037310        0x8 /home/leon/riotboard/arm-2012.09/bin/../arm-none-eabi/lib//libc.a(lib_a-mlock.o)
                0x80037310                __malloc_lock
                0x80037314                __malloc_unlock
 .text          0x80037318       0x74 /home/leon/riotboard/arm-2012.09/bin/../arm-none-eabi/lib//libc.a(lib_a-printf.o)
                0x80037318                _printf_r
                0x8003734c                printf
 .text          0x8003738c      0x170 /home/leon/riotboard/arm-2012.09/bin/../arm-none-eabi/lib//libc.a(lib_a-putc.o)
                0x8003738c                _putc_r
                0x8003743c                putc
 .text          0x800374fc       0x78 /home/leon/riotboard/arm-2012.09/bin/../arm-none-eabi/lib//libc.a(lib_a-rand.o)
                0x800374fc                srand
                0x80037518                rand
 .text          0x80037574       0x28 /home/leon/riotboard/arm-2012.09/bin/../arm-none-eabi/lib//libc.a(lib_a-realloc.o)
                0x80037574                realloc
 .text          0x8003759c      0x574 /home/leon/riotboard/arm-2012.09/bin/../arm-none-eabi/lib//libc.a(lib_a-reallocr.o)
                0x8003759c                _realloc_r
 .text          0x80037b10       0x6c /home/leon/riotboard/arm-2012.09/bin/../arm-none-eabi/lib//libc.a(lib_a-rget.o)
                0x80037b10                __srget_r
                0x80037b68                __srget
 .text          0x80037b7c       0x40 /home/leon/riotboard/arm-2012.09/bin/../arm-none-eabi/lib//libc.a(lib_a-sbrkr.o)
                0x80037b7c                _sbrk_r
 .text          0x80037bbc      0x24c /home/leon/riotboard/arm-2012.09/bin/../arm-none-eabi/lib//libc.a(lib_a-signal.o)
                0x80037bbc                _init_signal_r
                0x80037c1c                _signal_r
                0x80037c88                _raise_r
                0x80037d20                __sigtramp_r
                0x80037db4                raise
                0x80037dc8                signal
                0x80037de4                _init_signal
                0x80037df4                __sigtramp
 .text          0x80037e08       0x50 /home/leon/riotboard/arm-2012.09/bin/../arm-none-eabi/lib//libc.a(lib_a-signalr.o)
                0x80037e08                _kill_r
                0x80037e48                _getpid_r
 .text          0x80037e58       0xdc /home/leon/riotboard/arm-2012.09/bin/../arm-none-eabi/lib//libc.a(lib_a-stdio.o)
                0x80037e58                __sread
                0x80037e8c                __seofread
                0x80037e94                __swrite
                0x80037eec                __sseek
                0x80037f20                __sclose
 .text          0x80037f34      0x230 /home/leon/riotboard/arm-2012.09/bin/../arm-none-eabi/lib//libc.a(lib_a-strcmp.o)
                0x80037f34                strcmp
 .text          0x80038164       0x60 /home/leon/riotboard/arm-2012.09/bin/../arm-none-eabi/lib//libc.a(lib_a-strlen.o)
                0x80038164                strlen
 .text          0x800381c4      0x140 /home/leon/riotboard/arm-2012.09/bin/../arm-none-eabi/lib//libc.a(lib_a-strncmp.o)
                0x800381c4                strncmp
 .text          0x80038304     0x12c4 /home/leon/riotboard/arm-2012.09/bin/../arm-none-eabi/lib//libc.a(lib_a-vfiprintf.o)
                0x80038304                __sprint_r
                0x800383c0                _vfiprintf_r
                0x8003959c                vfiprintf
 .text          0x800395c8     0x2180 /home/leon/riotboard/arm-2012.09/bin/../arm-none-eabi/lib//libc.a(lib_a-vfprintf.o)
                0x800395c8                _vfprintf_r
                0x8003b71c                vfprintf
 .text          0x8003b748       0x4c /home/leon/riotboard/arm-2012.09/bin/../arm-none-eabi/lib//libc.a(lib_a-vprintf.o)
                0x8003b748                vprintf
                0x8003b774                _vprintf_r
 .text          0x8003b794      0x14c /home/leon/riotboard/arm-2012.09/bin/../arm-none-eabi/lib//libc.a(lib_a-wbuf.o)
                0x8003b794                __swbuf_r
                0x8003b8c4                __swbuf
 .text          0x8003b8e0       0x44 /home/leon/riotboard/arm-2012.09/bin/../arm-none-eabi/lib//libc.a(lib_a-writer.o)
                0x8003b8e0                _write_r
 .text          0x8003b924      0x138 /home/leon/riotboard/arm-2012.09/bin/../arm-none-eabi/lib//libc.a(lib_a-wsetup.o)
                0x8003b924                __swsetup_r
 .text          0x8003ba5c       0x3c /home/leon/riotboard/arm-2012.09/bin/../arm-none-eabi/lib//libc.a(lib_a-closer.o)
                0x8003ba5c                _close_r
 .text          0x8003ba98     0x18a8 /home/leon/riotboard/arm-2012.09/bin/../arm-none-eabi/lib//libc.a(lib_a-dtoa.o)
                0x8003bc78                _dtoa_r
 .text          0x8003d340      0x10c /home/leon/riotboard/arm-2012.09/bin/../arm-none-eabi/lib//libc.a(lib_a-fclose.o)
                0x8003d340                _fclose_r
                0x8003d438                fclose
 .text          0x8003d44c      0x19c /home/leon/riotboard/arm-2012.09/bin/../arm-none-eabi/lib//libc.a(lib_a-fputwc.o)
                0x8003d44c                _fputwc_r
                0x8003d59c                fputwc
 .text          0x8003d5e8      0x4c4 /home/leon/riotboard/arm-2012.09/bin/../arm-none-eabi/lib//libc.a(lib_a-fvwrite.o)
                0x8003d5e8                __sfvwrite_r
 .text          0x8003daac       0xd0 /home/leon/riotboard/arm-2012.09/bin/../arm-none-eabi/lib//libc.a(lib_a-locale.o)
                0x8003daac                _setlocale_r
                0x8003db18                __locale_charset
                0x8003db24                __locale_mb_cur_max
                0x8003db34                __locale_msgcharset
                0x8003db40                __locale_cjk_lang
                0x8003db48                _localeconv_r
                0x8003db54                setlocale
                0x8003db70                localeconv
 .text          0x8003db7c       0x44 /home/leon/riotboard/arm-2012.09/bin/../arm-none-eabi/lib//libc.a(lib_a-lseekr.o)
                0x8003db7c                _lseek_r
 .text          0x8003dbc0      0x15c /home/leon/riotboard/arm-2012.09/bin/../arm-none-eabi/lib//libc.a(lib_a-makebuf.o)
                0x8003dbc0                __smakebuf_r
 .text          0x8003dd1c      0x11c /home/leon/riotboard/arm-2012.09/bin/../arm-none-eabi/lib//libc.a(lib_a-memchr.o)
                0x8003dd1c                memchr
 .text          0x8003de38      0x134 /home/leon/riotboard/arm-2012.09/bin/../arm-none-eabi/lib//libc.a(lib_a-memmove.o)
                0x8003de38                memmove
 .text          0x8003df6c      0xd20 /home/leon/riotboard/arm-2012.09/bin/../arm-none-eabi/lib//libc.a(lib_a-mprec.o)
                0x8003df6c                _Balloc
                0x8003dff8                _Bfree
                0x8003e014                __multadd
                0x8003e0f0                __s2b
                0x8003e1e0                __hi0bits
                0x8003e230                __lo0bits
                0x8003e2c4                __i2b
                0x8003e2e8                __multiply
                0x8003e4cc                __pow5mult
                0x8003e5c0                __lshift
                0x8003e6c4                __mcmp
                0x8003e728                __mdiff
                0x8003e874                __ulp
                0x8003e8d8                __b2d
                0x8003e9a4                __d2b
                0x8003eaac                __ratio
                0x8003eb3c                _mprec_log10
                0x8003eb90                __copybits
                0x8003ec04                __any_on
 .text          0x8003ec8c       0x44 /home/leon/riotboard/arm-2012.09/bin/../arm-none-eabi/lib//libc.a(lib_a-readr.o)
                0x8003ec8c                _read_r
 .text          0x8003ecd0      0x19c /home/leon/riotboard/arm-2012.09/bin/../arm-none-eabi/lib//libc.a(lib_a-reent.o)
                0x8003ecd0                cleanup_glue
                0x8003ecfc                _reclaim_reent
                0x8003edf8                _wrapup_reent
 .text          0x8003ee6c      0x1cc /home/leon/riotboard/arm-2012.09/bin/../arm-none-eabi/lib//libc.a(lib_a-refill.o)
                0x8003ee94                __srefill_r
 .text          0x8003f038       0x6c /home/leon/riotboard/arm-2012.09/bin/../arm-none-eabi/lib//libc.a(lib_a-s_fpclassify.o)
                0x8003f038                __fpclassifyd
 .text          0x8003f0a4      0x134 /home/leon/riotboard/arm-2012.09/bin/../arm-none-eabi/lib//libc.a(lib_a-wcrtomb.o)
                0x8003f0a4                _wcrtomb_r
                0x8003f134                wcrtomb
 .text          0x8003f1d8       0x7c /home/leon/riotboard/arm-2012.09/bin/../arm-none-eabi/lib//libc.a(lib_a-wctomb_r.o)
                0x8003f1d8                __ascii_wctomb
                0x8003f204                _wctomb_r
 .text          0x8003f254       0x94 /home/leon/riotboard/arm-2012.09/bin/../arm-none-eabi/lib//libc.a(lib_a-callocr.o)
                0x8003f254                _calloc_r
 .text          0x8003f2e8       0x40 /home/leon/riotboard/arm-2012.09/bin/../arm-none-eabi/lib//libc.a(lib_a-fstatr.o)
                0x8003f2e8                _fstat_r
 .text          0x8003f328       0x3c /home/leon/riotboard/arm-2012.09/bin/../arm-none-eabi/lib//libc.a(lib_a-isattyr.o)
                0x8003f328                _isatty_r
 .text          0x8003f364      0x114 /home/leon/riotboard/arm-2012.09/bin/../lib/gcc/arm-none-eabi/4.7.2//libgcc.a(_udivsi3.o)
                0x8003f364                __udivsi3
                0x8003f364                __aeabi_uidiv
                0x8003f458                __aeabi_uidivmod
 .text          0x8003f478      0x148 /home/leon/riotboard/arm-2012.09/bin/../lib/gcc/arm-none-eabi/4.7.2//libgcc.a(_divsi3.o)
                0x8003f478                __aeabi_idiv
                0x8003f478                __divsi3
                0x8003f5a0                __aeabi_idivmod
 .text          0x8003f5c0        0x4 /home/leon/riotboard/arm-2012.09/bin/../lib/gcc/arm-none-eabi/4.7.2//libgcc.a(_dvmd_tls.o)
                0x8003f5c0                __aeabi_ldiv0
                0x8003f5c0                __aeabi_idiv0
 .text          0x8003f5c4      0x41c /home/leon/riotboard/arm-2012.09/bin/../lib/gcc/arm-none-eabi/4.7.2//libgcc.a(_arm_addsubdf3.o)
                0x8003f5c4                __aeabi_drsub
                0x8003f5cc                __aeabi_dsub
                0x8003f5cc                __subdf3
                0x8003f5d0                __adddf3
                0x8003f5d0                __aeabi_dadd
                0x8003f8e0                __aeabi_ui2d
                0x8003f8e0                __floatunsidf
                0x8003f904                __floatsidf
                0x8003f904                __aeabi_i2d
                0x8003f92c                __extendsfdf2
                0x8003f92c                __aeabi_f2d
                0x8003f96c                __aeabi_ul2d
                0x8003f96c                __floatundidf
                0x8003f980                __floatdidf
                0x8003f980                __aeabi_l2d
 .text          0x8003f9e0      0x49c /home/leon/riotboard/arm-2012.09/bin/../lib/gcc/arm-none-eabi/4.7.2//libgcc.a(_arm_muldivdf3.o)
                0x8003f9e0                __aeabi_dmul
                0x8003f9e0                __muldf3
                0x8003fc70                __aeabi_ddiv
                0x8003fc70                __divdf3
 .text          0x8003fe7c      0x144 /home/leon/riotboard/arm-2012.09/bin/../lib/gcc/arm-none-eabi/4.7.2//libgcc.a(_arm_cmpdf2.o)
                0x8003fe7c                __gtdf2
                0x8003fe7c                __gedf2
                0x8003fe84                __ltdf2
                0x8003fe84                __ledf2
                0x8003fe8c                __cmpdf2
                0x8003fe8c                __eqdf2
                0x8003fe8c                __nedf2
                0x8003ff14                __aeabi_cdrcmple
                0x8003ff30                __aeabi_cdcmple
                0x8003ff30                __aeabi_cdcmpeq
                0x8003ff48                __aeabi_dcmpeq
                0x8003ff60                __aeabi_dcmplt
                0x8003ff78                __aeabi_dcmple
                0x8003ff90                __aeabi_dcmpge
                0x8003ffa8                __aeabi_dcmpgt
 .text          0x8003ffc0       0x5c /home/leon/riotboard/arm-2012.09/bin/../lib/gcc/arm-none-eabi/4.7.2//libgcc.a(_arm_fixdfsi.o)
                0x8003ffc0                __fixdfsi
                0x8003ffc0                __aeabi_d2iz
 .text          0x8004001c       0x3c /home/leon/riotboard/arm-2012.09/bin/../lib/gcc/arm-none-eabi/4.7.2//libgcc.a(_aeabi_uldivmod.o)
                0x8004001c                __aeabi_uldivmod
 .text          0x80040058       0x84 /home/leon/riotboard/arm-2012.09/bin/../lib/gcc/arm-none-eabi/4.7.2//libgcc.a(bpabi.o)
                0x80040058                __gnu_ldivmod_helper
                0x8004009c                __gnu_uldivmod_helper
 .text          0x800400dc      0x4f0 /home/leon/riotboard/arm-2012.09/bin/../lib/gcc/arm-none-eabi/4.7.2//libgcc.a(_divdi3.o)
                0x800400dc                __divdi3
 .text          0x800405cc      0x488 /home/leon/riotboard/arm-2012.09/bin/../lib/gcc/arm-none-eabi/4.7.2//libgcc.a(_udivdi3.o)
                0x800405cc                __udivdi3
 .text          0x80040a54       0x48 /home/leon/riotboard/arm-2012.09/bin/../lib/gcc/arm-none-eabi/4.7.2//libgcc.a(_clzsi2.o)
                0x80040a54                __clzsi2
 .text          0x80040a9c      0x610 /home/leon/git/swp-report/iMX6_Platform_SDK/output/mx6sl/lib/libsdk.a(runtime_support.o)
                0x80040a9c                _execve
                0x80040ad8                _fork
                0x80040b00                _isatty
                0x80040b24                _open
                0x80040b50                _close
                0x80040b74                _lseek
                0x80040ba0                _fstat
                0x80040bd4                _read
                0x80040ca4                _write
                0x80040d90                _raw_puts
                0x80040e10                _sbrk
                0x80040ec0                _exit
                0x80040ee0                _kill
                0x80040f18                _getpid
                0x80040f30                _link
                0x80040f68                _unlink
                0x80040f9c                _stat
                0x80040fd0                _times
                0x80040ff4                _gettimeofday
                0x80041078                _wait
 .text          0x800410ac     0x1308 /home/leon/git/swp-report/iMX6_Platform_SDK/output/mx6sl/lib/libsdk.a(gpio.o)
                0x800410dc                gpio_get_port_count
                0x800410f4                gpio_set_gpio
                0x800411b8                gpio_set_direction
                0x80041414                gpio_get_direction
                0x8004155c                gpio_set_level
                0x8004189c                gpio_get_level
                0x800419fc                gpio_set_interrupt_config
                0x80041e00                gpio_set_interrupt_mask
                0x80042044                gpio_get_interrupt_status
                0x800421a0                gpio_clear_interrupt
 .text          0x800423b4        0x0 /home/leon/git/swp-report/iMX6_Platform_SDK/output/mx6sl/lib/libsdk.a(imx6sl_gpio_map.o)
 *(.glue_7t)
 .glue_7t       0x00000000        0x0 linker stubs
 *(.glue_7)
 .glue_7        0x00000000        0x0 linker stubs
 *(.vfp11_veneer)
 .vfp11_veneer  0x00000000        0x0 linker stubs
 *(.ARM.extab* .gnu.linkonce.armextab.*)
 .ARM.extab.startup
                0x800423b4        0x0 /home/leon/git/swp-report/iMX6_Platform_SDK/output/mx6sl/lib/libsdk.a(startup.o)
 .ARM.extab     0x800423b4        0x0 /home/leon/riotboard/arm-2012.09/bin/../lib/gcc/arm-none-eabi/4.7.2//libgcc.a(_divdi3.o)
 .ARM.extab     0x800423b4        0x0 /home/leon/riotboard/arm-2012.09/bin/../lib/gcc/arm-none-eabi/4.7.2//libgcc.a(_udivdi3.o)
 *(.gcc_except_table)

.v4_bx          0x800423b4        0x0
 .v4_bx         0x00000000        0x0 linker stubs

.iplt           0x800423b4        0x0
 .iplt          0x00000000        0x0 /home/leon/riotboard/arm-2012.09/bin/../lib/gcc/arm-none-eabi/4.7.2//crtbegin.o

.ctors
 *crtbegin.o(.ctors)
 *crtbegin?.o(.ctors)
 *(EXCLUDE_FILE(*crtend?.o *crtend.o) .ctors)
 *(SORT(.ctors.*))
 *(.ctors)

.dtors
 *crtbegin.o(.dtors)
 *crtbegin?.o(.dtors)
 *(EXCLUDE_FILE(*crtend?.o *crtend.o) .dtors)
 *(SORT(.dtors.*))
 *(.dtors)

.rodata         0x800423b8     0x4980
 *(.rodata .rodata.* .gnu.linkonce.r.*)
 .rodata        0x800423b8       0xd0 /home/leon/git/swp-report/iMX6_Platform_SDK/output/mx6sl/ping/evk_rev_a/obj/apps/ping/src/ping.o
 .rodata        0x80042488      0x130 /home/leon/git/swp-report/iMX6_Platform_SDK/output/mx6sl/ping/evk_rev_a/obj/apps/ping/src/ping_main.o
                0x80042488                kMACAddress
 .rodata        0x800425b8       0x34 /home/leon/git/swp-report/iMX6_Platform_SDK/output/mx6sl/lib/libsdk.a(ccm_pll.o)
                0x800425b8                PLL1_OUTPUT
                0x800425bc                PLL2_OUTPUT
                0x800425d0                PLL3_OUTPUT
                0x800425e4                PLL4_OUTPUT
                0x800425e8                PLL5_OUTPUT
 .rodata        0x800425ec       0x64 /home/leon/git/swp-report/iMX6_Platform_SDK/output/mx6sl/lib/libsdk.a(gic.o)
 .rodata        0x80042650       0xcc /home/leon/git/swp-report/iMX6_Platform_SDK/output/mx6sl/lib/libsdk.a(system_util.o)
 .rodata        0x8004271c       0xf4 /home/leon/git/swp-report/iMX6_Platform_SDK/output/mx6sl/lib/libsdk.a(text_color.o)
                0x80042724                g_TextAttributeDefault
                0x80042730                g_TextAttributeBold
                0x8004273c                g_TextAttributeDim
                0x80042748                g_TextAttributeUnderline
                0x80042754                g_TextAttributeBlink
                0x80042760                g_TextAttributeReverse
                0x8004276c                g_TextAttributeHidden
                0x80042778                g_TextColorBlack
                0x80042784                g_TextColorRed
                0x80042790                g_TextColorGreen
                0x8004279c                g_TextColorYellow
                0x800427a8                g_TextColorBlue
                0x800427b4                g_TextColorMagenta
                0x800427c0                g_TextColorCyan
                0x800427cc                g_TextColorWhite
                0x800427dc                g_TextColorOrange
                0x800427ec                g_TextColorLightBlue
                0x800427fc                g_TextColorGray
                0x8004280c                g_TextColorPurple
 .rodata        0x80042810      0x158 /home/leon/git/swp-report/iMX6_Platform_SDK/output/mx6sl/lib/libsdk.a(fec_drv.o)
 .rodata        0x80042968       0x20 /home/leon/git/swp-report/iMX6_Platform_SDK/output/mx6sl/lib/libsdk.a(interrupt.o)
 .rodata        0x80042988      0x230 /home/leon/git/swp-report/iMX6_Platform_SDK/output/mx6sl/lib/libsdk.a(abort_handler.o)
 .rodata        0x80042bb8       0x74 /home/leon/git/swp-report/iMX6_Platform_SDK/output/mx6sl/lib/libboard_evk_rev_a.a(uart_iomux_config.o)
 .rodata        0x80042c2c      0xa88 /home/leon/git/swp-report/iMX6_Platform_SDK/output/mx6sl/lib/liblwip.a(dhcp.o)
 .rodata        0x800436b4      0x114 /home/leon/git/swp-report/iMX6_Platform_SDK/output/mx6sl/lib/liblwip.a(dns.o)
 .rodata        0x800437c8       0x84 /home/leon/git/swp-report/iMX6_Platform_SDK/output/mx6sl/lib/liblwip.a(inet_chksum.o)
 .rodata        0x8004384c      0x32c /home/leon/git/swp-report/iMX6_Platform_SDK/output/mx6sl/lib/liblwip.a(autoip.o)
 .rodata        0x80043b78      0x18c /home/leon/git/swp-report/iMX6_Platform_SDK/output/mx6sl/lib/liblwip.a(igmp.o)
 .rodata        0x80043d04       0xb0 /home/leon/git/swp-report/iMX6_Platform_SDK/output/mx6sl/lib/liblwip.a(ip4.o)
 .rodata        0x80043db4       0x8c /home/leon/git/swp-report/iMX6_Platform_SDK/output/mx6sl/lib/liblwip.a(ip4_addr.o)
                0x80043db4                ip_addr_any
                0x80043db8                ip_addr_broadcast
 .rodata        0x80043e40       0x1c /home/leon/git/swp-report/iMX6_Platform_SDK/output/mx6sl/lib/liblwip.a(memp.o)
                0x80043e40                memp_sizes
 .rodata        0x80043e5c      0x10c /home/leon/git/swp-report/iMX6_Platform_SDK/output/mx6sl/lib/liblwip.a(netif.o)
 .rodata        0x80043f68      0x4a8 /home/leon/git/swp-report/iMX6_Platform_SDK/output/mx6sl/lib/liblwip.a(pbuf.o)
 .rodata        0x80044410       0x98 /home/leon/git/swp-report/iMX6_Platform_SDK/output/mx6sl/lib/liblwip.a(raw.o)
 .rodata        0x800444a8      0x9cc /home/leon/git/swp-report/iMX6_Platform_SDK/output/mx6sl/lib/liblwip.a(mib2.o)
                0x800444a8                snmp_scalar
                0x800444bc                snmp_ids
                0x8004452c                snmp_nodes
                0x8004459c                snmp
                0x800445b8                udpentry_ids
                0x800445c0                udpentry_nodes
                0x800445c8                udpentry
                0x800445e4                udp_scalar
                0x800445f8                udp_ids
                0x8004460c                udp_nodes
                0x80044620                udp
                0x8004463c                tcpconnentry_ids
                0x80044650                tcpconnentry_nodes
                0x80044664                tcpconnentry
                0x80044680                tcp_scalar
                0x80044694                tcp_ids
                0x800446d0                tcp_nodes
                0x8004470c                tcp
                0x80044728                icmp_scalar
                0x8004473c                icmp_ids
                0x800447a4                icmp_nodes
                0x8004480c                icmp
                0x80044828                ipntomentry_ids
                0x80044838                ipntomentry_nodes
                0x80044848                ipntomentry
                0x80044864                iprteentry_ids
                0x80044898                iprteentry_nodes
                0x800448cc                iprteentry
                0x800448e8                ipaddrentry_ids
                0x800448fc                ipaddrentry_nodes
                0x80044910                ipaddrentry
                0x8004492c                ip_scalar
                0x80044940                ip_ids
                0x8004499c                ip_nodes
                0x800449f8                mib2_ip
                0x80044a14                atentry_ids
                0x80044a20                atentry_nodes
                0x80044a2c                atentry
                0x80044a48                attable_id
                0x80044a4c                attable_node
                0x80044a50                attable
                0x80044a6c                ifentry_ids
                0x80044ac4                ifentry_nodes
                0x80044b1c                ifentry
                0x80044b38                interfaces_scalar
                0x80044b4c                interfaces_ids
                0x80044b54                interfaces_nodes
                0x80044b5c                interfaces
                0x80044b78                sys_tem_scalar
                0x80044b8c                sys_tem_ids
                0x80044ba8                sys_tem_nodes
                0x80044bc4                sys_tem
                0x80044be0                mib2_ids
                0x80044c00                mib2_nodes
                0x80044c20                mib2
                0x80044c3c                mgmt_ids
                0x80044c40                mgmt_nodes
                0x80044c44                mgmt
                0x80044c60                internet_ids
                0x80044c64                internet_nodes
                0x80044c68                internet
 .rodata        0x80044e74       0xe0 /home/leon/git/swp-report/iMX6_Platform_SDK/output/mx6sl/lib/liblwip.a(mib_structs.o)
                0x80044e74                prefix
 .rodata        0x80044f54       0xf0 /home/leon/git/swp-report/iMX6_Platform_SDK/output/mx6sl/lib/liblwip.a(msg_in.o)
                0x80044f54                snmp_version
                0x80044f58                snmp_publiccommunity
 .rodata        0x80045044      0x324 /home/leon/git/swp-report/iMX6_Platform_SDK/output/mx6sl/lib/liblwip.a(stats.o)
 .rodata        0x80045368      0x340 /home/leon/git/swp-report/iMX6_Platform_SDK/output/mx6sl/lib/liblwip.a(tcp_in.o)
 .rodata        0x800456a8      0x530 /home/leon/git/swp-report/iMX6_Platform_SDK/output/mx6sl/lib/liblwip.a(tcp.o)
                0x80045720                tcp_state_str
                0x8004574c                tcp_backoff
                0x8004575c                tcp_persist_backoff
                0x80045764                tcp_pcb_lists
 .rodata        0x80045bd8      0x424 /home/leon/git/swp-report/iMX6_Platform_SDK/output/mx6sl/lib/liblwip.a(tcp_out.o)
 .rodata        0x80045ffc       0xb0 /home/leon/git/swp-report/iMX6_Platform_SDK/output/mx6sl/lib/liblwip.a(timers.o)
 .rodata        0x800460ac       0xc0 /home/leon/git/swp-report/iMX6_Platform_SDK/output/mx6sl/lib/liblwip.a(udp.o)
 .rodata        0x8004616c      0x2c4 /home/leon/git/swp-report/iMX6_Platform_SDK/output/mx6sl/lib/liblwip.a(etharp.o)
                0x8004616c                ethbroadcast
                0x80046174                ethzero
 .rodata        0x80046430       0xb4 /home/leon/git/swp-report/iMX6_Platform_SDK/output/mx6sl/lib/liblwip.a(mx6_ethernetif.o)
 .rodata        0x800464e4      0x18c /home/leon/git/swp-report/iMX6_Platform_SDK/output/mx6sl/lib/liblwip.a(icmp.o)
 .rodata.str1.4
                0x80046670       0x3f /home/leon/riotboard/arm-2012.09/bin/../arm-none-eabi/lib//libc.a(lib_a-assert.o)
                                 0x44 (size before relaxing)
 *fill*         0x800466af        0x1 
 .rodata        0x800466b0        0x4 /home/leon/riotboard/arm-2012.09/bin/../arm-none-eabi/lib//libc.a(lib_a-impure.o)
                0x800466b0                _global_impure_ptr
 .rodata.str1.4
                0x800466b4        0x2 /home/leon/riotboard/arm-2012.09/bin/../arm-none-eabi/lib//libc.a(lib_a-impure.o)
                                  0x4 (size before relaxing)
 *fill*         0x800466b6        0x2 
 .rodata        0x800466b8       0x20 /home/leon/riotboard/arm-2012.09/bin/../arm-none-eabi/lib//libc.a(lib_a-vfiprintf.o)
 .rodata.str1.4
                0x800466d8       0x2f /home/leon/riotboard/arm-2012.09/bin/../arm-none-eabi/lib//libc.a(lib_a-vfiprintf.o)
                                 0x30 (size before relaxing)
 *fill*         0x80046707        0x1 
 .rodata        0x80046708       0x20 /home/leon/riotboard/arm-2012.09/bin/../arm-none-eabi/lib//libc.a(lib_a-vfprintf.o)
 .rodata.str1.4
                0x80046728       0x12 /home/leon/riotboard/arm-2012.09/bin/../arm-none-eabi/lib//libc.a(lib_a-vfprintf.o)
                                 0x44 (size before relaxing)
 *fill*         0x8004673a        0x2 
 .rodata.str1.4
                0x8004673c       0x10 /home/leon/riotboard/arm-2012.09/bin/../arm-none-eabi/lib//libc.a(lib_a-dtoa.o)
                                 0x14 (size before relaxing)
 .rodata.str1.4
                0x8004674c        0xc /home/leon/riotboard/arm-2012.09/bin/../arm-none-eabi/lib//libc.a(lib_a-locale.o)
                                 0x14 (size before relaxing)
 .rodata        0x80046758      0x128 /home/leon/riotboard/arm-2012.09/bin/../arm-none-eabi/lib//libc.a(lib_a-mprec.o)
                0x80046768                __mprec_tens
                0x80046830                __mprec_tinytens
                0x80046858                __mprec_bigtens
 .rodata        0x80046880       0x20 /home/leon/git/swp-report/iMX6_Platform_SDK/output/mx6sl/lib/libsdk.a(runtime_support.o)
 .rodata        0x800468a0       0xe0 /home/leon/git/swp-report/iMX6_Platform_SDK/output/mx6sl/lib/libsdk.a(gpio.o)
 .rodata        0x80046980      0x380 /home/leon/git/swp-report/iMX6_Platform_SDK/output/mx6sl/lib/libsdk.a(imx6sl_gpio_map.o)
                0x80046980                k_gpio_mux_registers
                0x80046d00                . = ALIGN (0x4)
 *(.init)
 .init          0x80046d00        0xc /home/leon/riotboard/arm-2012.09/bin/../lib/gcc/arm-none-eabi/4.7.2//crti.o
                0x80046d00                _init
 .init          0x80046d0c        0xc /home/leon/riotboard/arm-2012.09/bin/../lib/gcc/arm-none-eabi/4.7.2//crtn.o
                0x80046d18                . = ALIGN (0x4)
                0x80046d18                __init_array_start = .
 *(SORT(.init_array.*))
 *(.init_array)
 .init_array    0x80046d18        0x4 /home/leon/riotboard/arm-2012.09/bin/../lib/gcc/arm-none-eabi/4.7.2//crtbegin.o
                0x80046d1c                __init_array_end = .
                0x80046d1c                . = ALIGN (0x4)
 *(.fini)
 .fini          0x80046d1c        0xc /home/leon/riotboard/arm-2012.09/bin/../lib/gcc/arm-none-eabi/4.7.2//crti.o
                0x80046d1c                _fini
 .fini          0x80046d28        0xc /home/leon/riotboard/arm-2012.09/bin/../lib/gcc/arm-none-eabi/4.7.2//crtn.o
                0x80046d34                . = ALIGN (0x4)
                0x80046d34                __fini_array_start = .
 *(.fini_array)
 .fini_array    0x80046d34        0x4 /home/leon/riotboard/arm-2012.09/bin/../lib/gcc/arm-none-eabi/4.7.2//crtbegin.o
 *(SORT(.fini_array.*))
                0x80046d38                __fini_array_end = .
                0x80046d38                PROVIDE (__exidx_start, .)

.eh_frame       0x80046d38        0x4
 .eh_frame      0x80046d38        0x0 /home/leon/riotboard/arm-2012.09/bin/../lib/gcc/arm-none-eabi/4.7.2//crtbegin.o
 .eh_frame      0x80046d38        0x4 /home/leon/riotboard/arm-2012.09/bin/../lib/gcc/arm-none-eabi/4.7.2//crtend.o

.ARM.exidx      0x80046d3c        0x8
 *(.ARM.exidx* .gnu.linkonce.armexidx.*)
 .ARM.exidx.startup
                0x80046d3c        0x8 /home/leon/git/swp-report/iMX6_Platform_SDK/output/mx6sl/lib/libsdk.a(startup.o)
 .ARM.exidx     0x80046d44        0x0 /home/leon/riotboard/arm-2012.09/bin/../lib/gcc/arm-none-eabi/4.7.2//libgcc.a(_divdi3.o)
                                  0x8 (size before relaxing)
 .ARM.exidx     0x80046d44        0x0 /home/leon/riotboard/arm-2012.09/bin/../lib/gcc/arm-none-eabi/4.7.2//libgcc.a(_udivdi3.o)
                                  0x8 (size before relaxing)
                0x80046d44                PROVIDE (__exidx_end, .)

.rel.dyn        0x80046d44        0x0
 .rel.iplt      0x00000000        0x0 /home/leon/riotboard/arm-2012.09/bin/../lib/gcc/arm-none-eabi/4.7.2//crtbegin.o

.data           0x80046d48      0xbfc
 *(.data .data.* .gnu.linkonce.d.*)
 .data          0x80046d48        0x4 /home/leon/riotboard/arm-2012.09/bin/../lib/gcc/arm-none-eabi/4.7.2//crtbegin.o
                0x80046d48                __dso_handle
 .data          0x80046d4c        0x0 /home/leon/riotboard/arm-2012.09/bin/../lib/gcc/arm-none-eabi/4.7.2//crti.o
 .data          0x80046d4c        0x0 /home/leon/riotboard/arm-2012.09/bin/../lib/gcc/arm-none-eabi/4.7.2//crtend.o
 .data          0x80046d4c        0x0 /home/leon/riotboard/arm-2012.09/bin/../lib/gcc/arm-none-eabi/4.7.2//crtn.o
 .data          0x80046d4c        0x0 /home/leon/git/swp-report/iMX6_Platform_SDK/output/mx6sl/ping/evk_rev_a/obj/apps/common/ivt.o
 .data          0x80046d4c        0x0 /home/leon/git/swp-report/iMX6_Platform_SDK/output/mx6sl/ping/evk_rev_a/obj/apps/common/platform_init.o
 .data          0x80046d4c        0x0 /home/leon/git/swp-report/iMX6_Platform_SDK/output/mx6sl/ping/evk_rev_a/obj/apps/ping/src/ping.o
 .data          0x80046d4c        0x0 /home/leon/git/swp-report/iMX6_Platform_SDK/output/mx6sl/ping/evk_rev_a/obj/apps/ping/src/ping_main.o
 .data          0x80046d4c        0x0 /home/leon/git/swp-report/iMX6_Platform_SDK/output/mx6sl/lib/libsdk.a(ccm_pll.o)
 .data          0x80046d4c        0x0 /home/leon/git/swp-report/iMX6_Platform_SDK/output/mx6sl/lib/libsdk.a(cortexA9.o)
 .data          0x80046d4c        0x0 /home/leon/git/swp-report/iMX6_Platform_SDK/output/mx6sl/lib/libsdk.a(gic.o)
 .data          0x80046d4c        0x0 /home/leon/git/swp-report/iMX6_Platform_SDK/output/mx6sl/lib/libsdk.a(mmu.o)
 .data          0x80046d4c        0x0 /home/leon/git/swp-report/iMX6_Platform_SDK/output/mx6sl/lib/libsdk.a(startup.o)
 .data          0x80046d4c        0x0 /home/leon/git/swp-report/iMX6_Platform_SDK/output/mx6sl/lib/libsdk.a(vectors.o)
 .data          0x80046d4c        0x0 /home/leon/git/swp-report/iMX6_Platform_SDK/output/mx6sl/lib/libsdk.a(system_util.o)
 .data          0x80046d4c        0x4 /home/leon/git/swp-report/iMX6_Platform_SDK/output/mx6sl/lib/libsdk.a(text_color.o)
                0x80046d4c                is_color_supported
 .data          0x80046d50        0x0 /home/leon/git/swp-report/iMX6_Platform_SDK/output/mx6sl/lib/libsdk.a(fec_drv.o)
 .data          0x80046d50        0x0 /home/leon/git/swp-report/iMX6_Platform_SDK/output/mx6sl/lib/libsdk.a(timer.o)
 .data          0x80046d50        0x0 /home/leon/git/swp-report/iMX6_Platform_SDK/output/mx6sl/lib/libsdk.a(imx_uart.o)
 .data          0x80046d50        0x4 /home/leon/git/swp-report/iMX6_Platform_SDK/output/mx6sl/lib/libsdk.a(arm_abort.o)
 .data          0x80046d54        0x0 /home/leon/git/swp-report/iMX6_Platform_SDK/output/mx6sl/lib/libsdk.a(interrupt.o)
 .data          0x80046d54        0x0 /home/leon/git/swp-report/iMX6_Platform_SDK/output/mx6sl/lib/libsdk.a(epit.o)
 .data          0x80046d54        0x0 /home/leon/git/swp-report/iMX6_Platform_SDK/output/mx6sl/lib/libsdk.a(abort_handler.o)
 .data          0x80046d54        0x0 /home/leon/git/swp-report/iMX6_Platform_SDK/output/mx6sl/lib/libboard_evk_rev_a.a(board_io_expanders.o)
 .data          0x80046d54        0x0 /home/leon/git/swp-report/iMX6_Platform_SDK/output/mx6sl/lib/libboard_evk_rev_a.a(dcd.o)
 .data          0x80046d54        0x8 /home/leon/git/swp-report/iMX6_Platform_SDK/output/mx6sl/lib/libboard_evk_rev_a.a(hardware_modules.o)
                0x80046d54                g_debug_uart_port
                0x80046d58                g_system_timer_port
 .data          0x80046d5c        0x0 /home/leon/git/swp-report/iMX6_Platform_SDK/output/mx6sl/lib/libboard_evk_rev_a.a(uart_iomux_config.o)
 .data          0x80046d5c        0x0 /home/leon/git/swp-report/iMX6_Platform_SDK/output/mx6sl/lib/libboard_evk_rev_a.a(iomux_config.o)
 .data          0x80046d5c        0x0 /home/leon/git/swp-report/iMX6_Platform_SDK/output/mx6sl/lib/libboard_evk_rev_a.a(kpp_iomux_config.o)
 .data          0x80046d5c        0x0 /home/leon/git/swp-report/iMX6_Platform_SDK/output/mx6sl/lib/libboard_evk_rev_a.a(lcd_iomux_config.o)
 .data          0x80046d5c        0x0 /home/leon/git/swp-report/iMX6_Platform_SDK/output/mx6sl/lib/libboard_evk_rev_a.a(mmdc_iomux_config.o)
 .data          0x80046d5c        0x0 /home/leon/git/swp-report/iMX6_Platform_SDK/output/mx6sl/lib/libboard_evk_rev_a.a(pwm1_iomux_config.o)
 .data          0x80046d5c        0x0 /home/leon/git/swp-report/iMX6_Platform_SDK/output/mx6sl/lib/libboard_evk_rev_a.a(sjc_iomux_config.o)
 .data          0x80046d5c        0x0 /home/leon/git/swp-report/iMX6_Platform_SDK/output/mx6sl/lib/libboard_evk_rev_a.a(spdc_iomux_config.o)
 .data          0x80046d5c        0x0 /home/leon/git/swp-report/iMX6_Platform_SDK/output/mx6sl/lib/libboard_evk_rev_a.a(uart1_iomux_config.o)
 .data          0x80046d5c        0x0 /home/leon/git/swp-report/iMX6_Platform_SDK/output/mx6sl/lib/libboard_evk_rev_a.a(usb_iomux_config.o)
 .data          0x80046d5c        0x0 /home/leon/git/swp-report/iMX6_Platform_SDK/output/mx6sl/lib/libboard_evk_rev_a.a(usdhc1_iomux_config.o)
 .data          0x80046d5c        0x0 /home/leon/git/swp-report/iMX6_Platform_SDK/output/mx6sl/lib/libboard_evk_rev_a.a(usdhc2_iomux_config.o)
 .data          0x80046d5c        0x0 /home/leon/git/swp-report/iMX6_Platform_SDK/output/mx6sl/lib/libboard_evk_rev_a.a(usdhc3_iomux_config.o)
 .data          0x80046d5c        0x0 /home/leon/git/swp-report/iMX6_Platform_SDK/output/mx6sl/lib/libboard_evk_rev_a.a(wdog1_iomux_config.o)
 .data          0x80046d5c        0x0 /home/leon/git/swp-report/iMX6_Platform_SDK/output/mx6sl/lib/libboard_evk_rev_a.a(audmux_iomux_config.o)
 .data          0x80046d5c        0x0 /home/leon/git/swp-report/iMX6_Platform_SDK/output/mx6sl/lib/libboard_evk_rev_a.a(csi_iomux_config.o)
 .data          0x80046d5c        0x0 /home/leon/git/swp-report/iMX6_Platform_SDK/output/mx6sl/lib/libboard_evk_rev_a.a(ecspi1_iomux_config.o)
 .data          0x80046d5c        0x0 /home/leon/git/swp-report/iMX6_Platform_SDK/output/mx6sl/lib/libboard_evk_rev_a.a(ecspi2_iomux_config.o)
 .data          0x80046d5c        0x0 /home/leon/git/swp-report/iMX6_Platform_SDK/output/mx6sl/lib/libboard_evk_rev_a.a(epdc_iomux_config.o)
 .data          0x80046d5c        0x0 /home/leon/git/swp-report/iMX6_Platform_SDK/output/mx6sl/lib/libboard_evk_rev_a.a(fec_iomux_config.o)
 .data          0x80046d5c        0x0 /home/leon/git/swp-report/iMX6_Platform_SDK/output/mx6sl/lib/libboard_evk_rev_a.a(gpio1_iomux_config.o)
 .data          0x80046d5c        0x0 /home/leon/git/swp-report/iMX6_Platform_SDK/output/mx6sl/lib/libboard_evk_rev_a.a(gpio4_iomux_config.o)
 .data          0x80046d5c        0x0 /home/leon/git/swp-report/iMX6_Platform_SDK/output/mx6sl/lib/libboard_evk_rev_a.a(i2c1_iomux_config.o)
 .data          0x80046d5c        0x0 /home/leon/git/swp-report/iMX6_Platform_SDK/output/mx6sl/lib/libboard_evk_rev_a.a(i2c2_iomux_config.o)
 .data          0x80046d5c        0x0 /home/leon/git/swp-report/iMX6_Platform_SDK/output/mx6sl/lib/libboard_evk_rev_a.a(i2c3_iomux_config.o)
 .data          0x80046d5c        0x0 /home/leon/git/swp-report/iMX6_Platform_SDK/output/mx6sl/lib/liblwip.a(def.o)
 .data          0x80046d5c        0x0 /home/leon/git/swp-report/iMX6_Platform_SDK/output/mx6sl/lib/liblwip.a(dhcp.o)
 .data          0x80046d5c        0x0 /home/leon/git/swp-report/iMX6_Platform_SDK/output/mx6sl/lib/liblwip.a(dns.o)
 .data          0x80046d5c        0x0 /home/leon/git/swp-report/iMX6_Platform_SDK/output/mx6sl/lib/liblwip.a(inet_chksum.o)
 .data          0x80046d5c        0x0 /home/leon/git/swp-report/iMX6_Platform_SDK/output/mx6sl/lib/liblwip.a(init.o)
 .data          0x80046d5c        0x0 /home/leon/git/swp-report/iMX6_Platform_SDK/output/mx6sl/lib/liblwip.a(autoip.o)
 .data          0x80046d5c        0x0 /home/leon/git/swp-report/iMX6_Platform_SDK/output/mx6sl/lib/liblwip.a(igmp.o)
 .data          0x80046d5c        0x0 /home/leon/git/swp-report/iMX6_Platform_SDK/output/mx6sl/lib/liblwip.a(ip4.o)
 .data          0x80046d5c        0x0 /home/leon/git/swp-report/iMX6_Platform_SDK/output/mx6sl/lib/liblwip.a(ip4_addr.o)
 .data          0x80046d5c        0x0 /home/leon/git/swp-report/iMX6_Platform_SDK/output/mx6sl/lib/liblwip.a(memp.o)
 .data          0x80046d5c        0x0 /home/leon/git/swp-report/iMX6_Platform_SDK/output/mx6sl/lib/liblwip.a(netif.o)
 .data          0x80046d5c        0x0 /home/leon/git/swp-report/iMX6_Platform_SDK/output/mx6sl/lib/liblwip.a(pbuf.o)
 .data          0x80046d5c        0x0 /home/leon/git/swp-report/iMX6_Platform_SDK/output/mx6sl/lib/liblwip.a(raw.o)
 .data          0x80046d5c      0x308 /home/leon/git/swp-report/iMX6_Platform_SDK/output/mx6sl/lib/liblwip.a(mib2.o)
                0x80046d5c                udp_root
                0x80046d7c                udptable_id
                0x80046d80                udptable_node
                0x80046d84                udptable
                0x80046da0                tcpconntree_root
                0x80046dc0                tcpconntable_id
                0x80046dc4                tcpconntable_node
                0x80046dc8                tcpconntable
                0x80046de4                ipntomtree_root
                0x80046e04                ipntomtable_id
                0x80046e08                ipntomtable_node
                0x80046e0c                ipntomtable
                0x80046e28                iprtetree_root
                0x80046e48                iprtetable_id
                0x80046e4c                iprtetable_node
                0x80046e50                iprtetable
                0x80046e6c                ipaddrtree_root
                0x80046e8c                ipaddrtable_id
                0x80046e90                ipaddrtable_node
                0x80046e94                ipaddrtable
                0x80046eb0                arptree_root
                0x80046ed0                at_id
                0x80046ed4                mib2_at_node
                0x80046ed8                at
                0x80046ef4                iflist_root
                0x80046f14                iftable_id
                0x80046f18                iftable_node
                0x80046f1c                iftable
 .data          0x80047064        0x0 /home/leon/git/swp-report/iMX6_Platform_SDK/output/mx6sl/lib/liblwip.a(mib_structs.o)
 .data          0x80047064        0x0 /home/leon/git/swp-report/iMX6_Platform_SDK/output/mx6sl/lib/liblwip.a(msg_in.o)
 .data          0x80047064        0x0 /home/leon/git/swp-report/iMX6_Platform_SDK/output/mx6sl/lib/liblwip.a(msg_out.o)
 .data          0x80047064        0x0 /home/leon/git/swp-report/iMX6_Platform_SDK/output/mx6sl/lib/liblwip.a(stats.o)
 .data          0x80047064        0x0 /home/leon/git/swp-report/iMX6_Platform_SDK/output/mx6sl/lib/liblwip.a(tcp_in.o)
 .data          0x80047064        0x8 /home/leon/git/swp-report/iMX6_Platform_SDK/output/mx6sl/lib/liblwip.a(tcp.o)
 .data          0x8004706c        0x0 /home/leon/git/swp-report/iMX6_Platform_SDK/output/mx6sl/lib/liblwip.a(tcp_out.o)
 .data          0x8004706c        0x0 /home/leon/git/swp-report/iMX6_Platform_SDK/output/mx6sl/lib/liblwip.a(timers.o)
 .data          0x8004706c        0x2 /home/leon/git/swp-report/iMX6_Platform_SDK/output/mx6sl/lib/liblwip.a(udp.o)
 .data          0x8004706e        0x0 /home/leon/git/swp-report/iMX6_Platform_SDK/output/mx6sl/lib/liblwip.a(etharp.o)
 *fill*         0x8004706e        0x2 
 .data          0x80047070        0xc /home/leon/git/swp-report/iMX6_Platform_SDK/output/mx6sl/lib/liblwip.a(mx6_ethernetif.o)
                0x80047070                g_en0
 .data          0x8004707c        0x0 /home/leon/git/swp-report/iMX6_Platform_SDK/output/mx6sl/lib/liblwip.a(mx6_lwip.o)
 .data          0x8004707c        0x0 /home/leon/git/swp-report/iMX6_Platform_SDK/output/mx6sl/lib/liblwip.a(sys_arch.o)
 .data          0x8004707c        0x0 /home/leon/git/swp-report/iMX6_Platform_SDK/output/mx6sl/lib/liblwip.a(icmp.o)
 .data          0x8004707c        0x0 /home/leon/git/swp-report/iMX6_Platform_SDK/output/mx6sl/lib/liblwip.a(asn1_dec.o)
 .data          0x8004707c        0x0 /home/leon/git/swp-report/iMX6_Platform_SDK/output/mx6sl/lib/liblwip.a(asn1_enc.o)
 .data          0x8004707c        0x0 /home/leon/riotboard/arm-2012.09/bin/../arm-none-eabi/lib//libc.a(lib_a-abort.o)
 .data          0x8004707c        0x0 /home/leon/riotboard/arm-2012.09/bin/../arm-none-eabi/lib//libc.a(lib_a-assert.o)
 .data          0x8004707c        0x0 /home/leon/riotboard/arm-2012.09/bin/../arm-none-eabi/lib//libc.a(lib_a-bzero.o)
 .data          0x8004707c        0x0 /home/leon/riotboard/arm-2012.09/bin/../arm-none-eabi/lib//libc.a(lib_a-fflush.o)
 .data          0x8004707c        0x0 /home/leon/riotboard/arm-2012.09/bin/../arm-none-eabi/lib//libc.a(lib_a-findfp.o)
 .data          0x8004707c        0x0 /home/leon/riotboard/arm-2012.09/bin/../arm-none-eabi/lib//libc.a(lib_a-fiprintf.o)
 .data          0x8004707c        0x0 /home/leon/riotboard/arm-2012.09/bin/../arm-none-eabi/lib//libc.a(lib_a-fputc.o)
 .data          0x8004707c        0x0 /home/leon/riotboard/arm-2012.09/bin/../arm-none-eabi/lib//libc.a(lib_a-freer.o)
 .data          0x8004707c        0x0 /home/leon/riotboard/arm-2012.09/bin/../arm-none-eabi/lib//libc.a(lib_a-fwalk.o)
 *fill*         0x8004707c        0x4 
 .data          0x80047080      0x430 /home/leon/riotboard/arm-2012.09/bin/../arm-none-eabi/lib//libc.a(lib_a-impure.o)
                0x80047080                _impure_ptr
 .data          0x800474b0        0x0 /home/leon/riotboard/arm-2012.09/bin/../arm-none-eabi/lib//libc.a(lib_a-init.o)
 .data          0x800474b0        0x0 /home/leon/riotboard/arm-2012.09/bin/../arm-none-eabi/lib//libc.a(lib_a-malloc.o)
 .data          0x800474b0      0x410 /home/leon/riotboard/arm-2012.09/bin/../arm-none-eabi/lib//libc.a(lib_a-mallocr.o)
                0x800474b0                __malloc_av_
                0x800478b8                __malloc_sbrk_base
                0x800478bc                __malloc_trim_threshold
 .data          0x800478c0        0x0 /home/leon/riotboard/arm-2012.09/bin/../arm-none-eabi/lib//libc.a(lib_a-memcmp.o)
 .data          0x800478c0        0x0 /home/leon/riotboard/arm-2012.09/bin/../arm-none-eabi/lib//libc.a(lib_a-memcpy.o)
 .data          0x800478c0        0x0 /home/leon/riotboard/arm-2012.09/bin/../arm-none-eabi/lib//libc.a(lib_a-memset.o)
 .data          0x800478c0        0x0 /home/leon/riotboard/arm-2012.09/bin/../arm-none-eabi/lib//libc.a(lib_a-mlock.o)
 .data          0x800478c0        0x0 /home/leon/riotboard/arm-2012.09/bin/../arm-none-eabi/lib//libc.a(lib_a-printf.o)
 .data          0x800478c0        0x0 /home/leon/riotboard/arm-2012.09/bin/../arm-none-eabi/lib//libc.a(lib_a-putc.o)
 .data          0x800478c0        0x0 /home/leon/riotboard/arm-2012.09/bin/../arm-none-eabi/lib//libc.a(lib_a-rand.o)
 .data          0x800478c0        0x0 /home/leon/riotboard/arm-2012.09/bin/../arm-none-eabi/lib//libc.a(lib_a-realloc.o)
 .data          0x800478c0        0x0 /home/leon/riotboard/arm-2012.09/bin/../arm-none-eabi/lib//libc.a(lib_a-reallocr.o)
 .data          0x800478c0        0x0 /home/leon/riotboard/arm-2012.09/bin/../arm-none-eabi/lib//libc.a(lib_a-rget.o)
 .data          0x800478c0        0x0 /home/leon/riotboard/arm-2012.09/bin/../arm-none-eabi/lib//libc.a(lib_a-sbrkr.o)
 .data          0x800478c0        0x0 /home/leon/riotboard/arm-2012.09/bin/../arm-none-eabi/lib//libc.a(lib_a-signal.o)
 .data          0x800478c0        0x0 /home/leon/riotboard/arm-2012.09/bin/../arm-none-eabi/lib//libc.a(lib_a-signalr.o)
 .data          0x800478c0        0x0 /home/leon/riotboard/arm-2012.09/bin/../arm-none-eabi/lib//libc.a(lib_a-stdio.o)
 .data          0x800478c0        0x0 /home/leon/riotboard/arm-2012.09/bin/../arm-none-eabi/lib//libc.a(lib_a-strcmp.o)
 .data          0x800478c0        0x0 /home/leon/riotboard/arm-2012.09/bin/../arm-none-eabi/lib//libc.a(lib_a-strlen.o)
 .data          0x800478c0        0x0 /home/leon/riotboard/arm-2012.09/bin/../arm-none-eabi/lib//libc.a(lib_a-strncmp.o)
 .data          0x800478c0        0x0 /home/leon/riotboard/arm-2012.09/bin/../arm-none-eabi/lib//libc.a(lib_a-vfiprintf.o)
 .data          0x800478c0        0x0 /home/leon/riotboard/arm-2012.09/bin/../arm-none-eabi/lib//libc.a(lib_a-vfprintf.o)
 .data          0x800478c0        0x0 /home/leon/riotboard/arm-2012.09/bin/../arm-none-eabi/lib//libc.a(lib_a-vprintf.o)
 .data          0x800478c0        0x0 /home/leon/riotboard/arm-2012.09/bin/../arm-none-eabi/lib//libc.a(lib_a-wbuf.o)
 .data          0x800478c0        0x0 /home/leon/riotboard/arm-2012.09/bin/../arm-none-eabi/lib//libc.a(lib_a-writer.o)
 .data          0x800478c0        0x0 /home/leon/riotboard/arm-2012.09/bin/../arm-none-eabi/lib//libc.a(lib_a-wsetup.o)
 .data          0x800478c0        0x0 /home/leon/riotboard/arm-2012.09/bin/../arm-none-eabi/lib//libc.a(lib_a-closer.o)
 .data          0x800478c0        0x0 /home/leon/riotboard/arm-2012.09/bin/../arm-none-eabi/lib//libc.a(lib_a-dtoa.o)
 .data          0x800478c0        0x0 /home/leon/riotboard/arm-2012.09/bin/../arm-none-eabi/lib//libc.a(lib_a-fclose.o)
 .data          0x800478c0        0x0 /home/leon/riotboard/arm-2012.09/bin/../arm-none-eabi/lib//libc.a(lib_a-fputwc.o)
 .data          0x800478c0        0x0 /home/leon/riotboard/arm-2012.09/bin/../arm-none-eabi/lib//libc.a(lib_a-fvwrite.o)
 .data          0x800478c0       0x7c /home/leon/riotboard/arm-2012.09/bin/../arm-none-eabi/lib//libc.a(lib_a-locale.o)
                0x800478e0                __mb_cur_max
 .data          0x8004793c        0x0 /home/leon/riotboard/arm-2012.09/bin/../arm-none-eabi/lib//libc.a(lib_a-lseekr.o)
 .data          0x8004793c        0x0 /home/leon/riotboard/arm-2012.09/bin/../arm-none-eabi/lib//libc.a(lib_a-makebuf.o)
 .data          0x8004793c        0x0 /home/leon/riotboard/arm-2012.09/bin/../arm-none-eabi/lib//libc.a(lib_a-memchr.o)
 .data          0x8004793c        0x0 /home/leon/riotboard/arm-2012.09/bin/../arm-none-eabi/lib//libc.a(lib_a-memmove.o)
 .data          0x8004793c        0x0 /home/leon/riotboard/arm-2012.09/bin/../arm-none-eabi/lib//libc.a(lib_a-mprec.o)
 .data          0x8004793c        0x0 /home/leon/riotboard/arm-2012.09/bin/../arm-none-eabi/lib//libc.a(lib_a-readr.o)
 .data          0x8004793c        0x0 /home/leon/riotboard/arm-2012.09/bin/../arm-none-eabi/lib//libc.a(lib_a-reent.o)
 .data          0x8004793c        0x0 /home/leon/riotboard/arm-2012.09/bin/../arm-none-eabi/lib//libc.a(lib_a-refill.o)
 .data          0x8004793c        0x0 /home/leon/riotboard/arm-2012.09/bin/../arm-none-eabi/lib//libc.a(lib_a-s_fpclassify.o)
 .data          0x8004793c        0x0 /home/leon/riotboard/arm-2012.09/bin/../arm-none-eabi/lib//libc.a(lib_a-wcrtomb.o)
 .data          0x8004793c        0x4 /home/leon/riotboard/arm-2012.09/bin/../arm-none-eabi/lib//libc.a(lib_a-wctomb_r.o)
                0x8004793c                __wctomb
 .data          0x80047940        0x0 /home/leon/riotboard/arm-2012.09/bin/../arm-none-eabi/lib//libc.a(lib_a-callocr.o)
 .data          0x80047940        0x0 /home/leon/riotboard/arm-2012.09/bin/../arm-none-eabi/lib//libc.a(lib_a-fstatr.o)
 .data          0x80047940        0x0 /home/leon/riotboard/arm-2012.09/bin/../arm-none-eabi/lib//libc.a(lib_a-isattyr.o)
 .data          0x80047940        0x0 /home/leon/riotboard/arm-2012.09/bin/../lib/gcc/arm-none-eabi/4.7.2//libgcc.a(_udivsi3.o)
 .data          0x80047940        0x0 /home/leon/riotboard/arm-2012.09/bin/../lib/gcc/arm-none-eabi/4.7.2//libgcc.a(_divsi3.o)
 .data          0x80047940        0x0 /home/leon/riotboard/arm-2012.09/bin/../lib/gcc/arm-none-eabi/4.7.2//libgcc.a(_dvmd_tls.o)
 .data          0x80047940        0x0 /home/leon/riotboard/arm-2012.09/bin/../lib/gcc/arm-none-eabi/4.7.2//libgcc.a(_arm_addsubdf3.o)
 .data          0x80047940        0x0 /home/leon/riotboard/arm-2012.09/bin/../lib/gcc/arm-none-eabi/4.7.2//libgcc.a(_arm_muldivdf3.o)
 .data          0x80047940        0x0 /home/leon/riotboard/arm-2012.09/bin/../lib/gcc/arm-none-eabi/4.7.2//libgcc.a(_arm_cmpdf2.o)
 .data          0x80047940        0x0 /home/leon/riotboard/arm-2012.09/bin/../lib/gcc/arm-none-eabi/4.7.2//libgcc.a(_arm_fixdfsi.o)
 .data          0x80047940        0x0 /home/leon/riotboard/arm-2012.09/bin/../lib/gcc/arm-none-eabi/4.7.2//libgcc.a(_aeabi_uldivmod.o)
 .data          0x80047940        0x0 /home/leon/riotboard/arm-2012.09/bin/../lib/gcc/arm-none-eabi/4.7.2//libgcc.a(bpabi.o)
 .data          0x80047940        0x0 /home/leon/riotboard/arm-2012.09/bin/../lib/gcc/arm-none-eabi/4.7.2//libgcc.a(_divdi3.o)
 .data          0x80047940        0x0 /home/leon/riotboard/arm-2012.09/bin/../lib/gcc/arm-none-eabi/4.7.2//libgcc.a(_udivdi3.o)
 .data          0x80047940        0x0 /home/leon/riotboard/arm-2012.09/bin/../lib/gcc/arm-none-eabi/4.7.2//libgcc.a(_clzsi2.o)
 .data          0x80047940        0x4 /home/leon/git/swp-report/iMX6_Platform_SDK/output/mx6sl/lib/libsdk.a(runtime_support.o)
                0x80047940                environ
 .data          0x80047944        0x0 /home/leon/git/swp-report/iMX6_Platform_SDK/output/mx6sl/lib/libsdk.a(gpio.o)
 .data          0x80047944        0x0 /home/leon/git/swp-report/iMX6_Platform_SDK/output/mx6sl/lib/libsdk.a(imx6sl_gpio_map.o)

.jcr            0x80047944        0x4
 .jcr           0x80047944        0x0 /home/leon/riotboard/arm-2012.09/bin/../lib/gcc/arm-none-eabi/4.7.2//crtbegin.o
 .jcr           0x80047944        0x4 /home/leon/riotboard/arm-2012.09/bin/../lib/gcc/arm-none-eabi/4.7.2//crtend.o

.tm_clone_table
                0x80047948        0x0
 .tm_clone_table
                0x80047948        0x0 /home/leon/riotboard/arm-2012.09/bin/../lib/gcc/arm-none-eabi/4.7.2//crtbegin.o
 .tm_clone_table
                0x80047948        0x0 /home/leon/riotboard/arm-2012.09/bin/../lib/gcc/arm-none-eabi/4.7.2//crtend.o

.igot.plt       0x80047948        0x0
 .igot.plt      0x00000000        0x0 /home/leon/riotboard/arm-2012.09/bin/../lib/gcc/arm-none-eabi/4.7.2//crtbegin.o

.hab.data       0x80400000     0x2000
                0x80400000                __hab_data = .
                0x80402000                . = (. + 0x2000)
 *fill*         0x80400000     0x2000 
                0x80402000                . = ALIGN (0x20)
                0x80402000                __hab_data_end = .
                0x00402000                _image_size = (. - _start_image_add)

.bss            0x80402000     0x756c
                0x80402000                __bss_start__ = .
 *(.shbss)
 *(.bss .bss.* .gnu.linkonce.b.*)
 .bss           0x80402000       0x1c /home/leon/riotboard/arm-2012.09/bin/../lib/gcc/arm-none-eabi/4.7.2//crtbegin.o
 .bss           0x8040201c        0x0 /home/leon/riotboard/arm-2012.09/bin/../lib/gcc/arm-none-eabi/4.7.2//crti.o
 .bss           0x8040201c        0x0 /home/leon/riotboard/arm-2012.09/bin/../lib/gcc/arm-none-eabi/4.7.2//crtend.o
 .bss           0x8040201c        0x0 /home/leon/riotboard/arm-2012.09/bin/../lib/gcc/arm-none-eabi/4.7.2//crtn.o
 .bss           0x8040201c        0x0 /home/leon/git/swp-report/iMX6_Platform_SDK/output/mx6sl/ping/evk_rev_a/obj/apps/common/ivt.o
 .bss           0x8040201c        0x0 /home/leon/git/swp-report/iMX6_Platform_SDK/output/mx6sl/ping/evk_rev_a/obj/apps/common/platform_init.o
 .bss           0x8040201c       0x14 /home/leon/git/swp-report/iMX6_Platform_SDK/output/mx6sl/ping/evk_rev_a/obj/apps/ping/src/ping.o
 .bss           0x80402030       0xd0 /home/leon/git/swp-report/iMX6_Platform_SDK/output/mx6sl/ping/evk_rev_a/obj/apps/ping/src/ping_main.o
                0x80402030                g_netif
                0x804020b0                g_buf
                0x804020f0                g_ping_target_hostname
                0x804020f4                g_ping_target_addr
                0x804020f8                g_state
                0x804020fc                g_isNetifUp
 .bss           0x80402100        0x0 /home/leon/git/swp-report/iMX6_Platform_SDK/output/mx6sl/lib/libsdk.a(ccm_pll.o)
 .bss           0x80402100        0x0 /home/leon/git/swp-report/iMX6_Platform_SDK/output/mx6sl/lib/libsdk.a(cortexA9.o)
 .bss           0x80402100        0x0 /home/leon/git/swp-report/iMX6_Platform_SDK/output/mx6sl/lib/libsdk.a(gic.o)
 .bss           0x80402100        0x0 /home/leon/git/swp-report/iMX6_Platform_SDK/output/mx6sl/lib/libsdk.a(mmu.o)
 .bss           0x80402100        0x0 /home/leon/git/swp-report/iMX6_Platform_SDK/output/mx6sl/lib/libsdk.a(startup.o)
 .bss           0x80402100        0x0 /home/leon/git/swp-report/iMX6_Platform_SDK/output/mx6sl/lib/libsdk.a(vectors.o)
 .bss           0x80402100        0x0 /home/leon/git/swp-report/iMX6_Platform_SDK/output/mx6sl/lib/libsdk.a(system_util.o)
 .bss           0x80402100        0x0 /home/leon/git/swp-report/iMX6_Platform_SDK/output/mx6sl/lib/libsdk.a(text_color.o)
 .bss           0x80402100     0x5060 /home/leon/git/swp-report/iMX6_Platform_SDK/output/mx6sl/lib/libsdk.a(fec_drv.o)
 .bss           0x80407160        0x4 /home/leon/git/swp-report/iMX6_Platform_SDK/output/mx6sl/lib/libsdk.a(timer.o)
                0x80407160                g_microsecondTimerMultiple
 .bss           0x80407164        0x0 /home/leon/git/swp-report/iMX6_Platform_SDK/output/mx6sl/lib/libsdk.a(imx_uart.o)
 .bss           0x80407164        0x0 /home/leon/git/swp-report/iMX6_Platform_SDK/output/mx6sl/lib/libsdk.a(arm_abort.o)
 .bss           0x80407164      0x290 /home/leon/git/swp-report/iMX6_Platform_SDK/output/mx6sl/lib/libsdk.a(interrupt.o)
                0x80407164                g_interrupt_handlers
                0x804073e4                g_vectNum
 .bss           0x804073f4        0x0 /home/leon/git/swp-report/iMX6_Platform_SDK/output/mx6sl/lib/libsdk.a(epit.o)
 .bss           0x804073f4        0x0 /home/leon/git/swp-report/iMX6_Platform_SDK/output/mx6sl/lib/libsdk.a(abort_handler.o)
 .bss           0x804073f4        0x0 /home/leon/git/swp-report/iMX6_Platform_SDK/output/mx6sl/lib/libboard_evk_rev_a.a(board_io_expanders.o)
 .bss           0x804073f4        0x0 /home/leon/git/swp-report/iMX6_Platform_SDK/output/mx6sl/lib/libboard_evk_rev_a.a(dcd.o)
 .bss           0x804073f4        0x0 /home/leon/git/swp-report/iMX6_Platform_SDK/output/mx6sl/lib/libboard_evk_rev_a.a(hardware_modules.o)
 .bss           0x804073f4        0x0 /home/leon/git/swp-report/iMX6_Platform_SDK/output/mx6sl/lib/libboard_evk_rev_a.a(uart_iomux_config.o)
 .bss           0x804073f4        0x0 /home/leon/git/swp-report/iMX6_Platform_SDK/output/mx6sl/lib/libboard_evk_rev_a.a(iomux_config.o)
 .bss           0x804073f4        0x0 /home/leon/git/swp-report/iMX6_Platform_SDK/output/mx6sl/lib/libboard_evk_rev_a.a(kpp_iomux_config.o)
 .bss           0x804073f4        0x0 /home/leon/git/swp-report/iMX6_Platform_SDK/output/mx6sl/lib/libboard_evk_rev_a.a(lcd_iomux_config.o)
 .bss           0x804073f4        0x0 /home/leon/git/swp-report/iMX6_Platform_SDK/output/mx6sl/lib/libboard_evk_rev_a.a(mmdc_iomux_config.o)
 .bss           0x804073f4        0x0 /home/leon/git/swp-report/iMX6_Platform_SDK/output/mx6sl/lib/libboard_evk_rev_a.a(pwm1_iomux_config.o)
 .bss           0x804073f4        0x0 /home/leon/git/swp-report/iMX6_Platform_SDK/output/mx6sl/lib/libboard_evk_rev_a.a(sjc_iomux_config.o)
 .bss           0x804073f4        0x0 /home/leon/git/swp-report/iMX6_Platform_SDK/output/mx6sl/lib/libboard_evk_rev_a.a(spdc_iomux_config.o)
 .bss           0x804073f4        0x0 /home/leon/git/swp-report/iMX6_Platform_SDK/output/mx6sl/lib/libboard_evk_rev_a.a(uart1_iomux_config.o)
 .bss           0x804073f4        0x0 /home/leon/git/swp-report/iMX6_Platform_SDK/output/mx6sl/lib/libboard_evk_rev_a.a(usb_iomux_config.o)
 .bss           0x804073f4        0x0 /home/leon/git/swp-report/iMX6_Platform_SDK/output/mx6sl/lib/libboard_evk_rev_a.a(usdhc1_iomux_config.o)
 .bss           0x804073f4        0x0 /home/leon/git/swp-report/iMX6_Platform_SDK/output/mx6sl/lib/libboard_evk_rev_a.a(usdhc2_iomux_config.o)
 .bss           0x804073f4        0x0 /home/leon/git/swp-report/iMX6_Platform_SDK/output/mx6sl/lib/libboard_evk_rev_a.a(usdhc3_iomux_config.o)
 .bss           0x804073f4        0x0 /home/leon/git/swp-report/iMX6_Platform_SDK/output/mx6sl/lib/libboard_evk_rev_a.a(wdog1_iomux_config.o)
 .bss           0x804073f4        0x0 /home/leon/git/swp-report/iMX6_Platform_SDK/output/mx6sl/lib/libboard_evk_rev_a.a(audmux_iomux_config.o)
 .bss           0x804073f4        0x0 /home/leon/git/swp-report/iMX6_Platform_SDK/output/mx6sl/lib/libboard_evk_rev_a.a(csi_iomux_config.o)
 .bss           0x804073f4        0x0 /home/leon/git/swp-report/iMX6_Platform_SDK/output/mx6sl/lib/libboard_evk_rev_a.a(ecspi1_iomux_config.o)
 .bss           0x804073f4        0x0 /home/leon/git/swp-report/iMX6_Platform_SDK/output/mx6sl/lib/libboard_evk_rev_a.a(ecspi2_iomux_config.o)
 .bss           0x804073f4        0x0 /home/leon/git/swp-report/iMX6_Platform_SDK/output/mx6sl/lib/libboard_evk_rev_a.a(epdc_iomux_config.o)
 .bss           0x804073f4        0x0 /home/leon/git/swp-report/iMX6_Platform_SDK/output/mx6sl/lib/libboard_evk_rev_a.a(fec_iomux_config.o)
 .bss           0x804073f4        0x0 /home/leon/git/swp-report/iMX6_Platform_SDK/output/mx6sl/lib/libboard_evk_rev_a.a(gpio1_iomux_config.o)
 .bss           0x804073f4        0x0 /home/leon/git/swp-report/iMX6_Platform_SDK/output/mx6sl/lib/libboard_evk_rev_a.a(gpio4_iomux_config.o)
 .bss           0x804073f4        0x0 /home/leon/git/swp-report/iMX6_Platform_SDK/output/mx6sl/lib/libboard_evk_rev_a.a(i2c1_iomux_config.o)
 .bss           0x804073f4        0x0 /home/leon/git/swp-report/iMX6_Platform_SDK/output/mx6sl/lib/libboard_evk_rev_a.a(i2c2_iomux_config.o)
 .bss           0x804073f4        0x0 /home/leon/git/swp-report/iMX6_Platform_SDK/output/mx6sl/lib/libboard_evk_rev_a.a(i2c3_iomux_config.o)
 .bss           0x804073f4        0x0 /home/leon/git/swp-report/iMX6_Platform_SDK/output/mx6sl/lib/liblwip.a(def.o)
 .bss           0x804073f4       0x38 /home/leon/git/swp-report/iMX6_Platform_SDK/output/mx6sl/lib/liblwip.a(dhcp.o)
                0x804073f4                dhcp_rx_options_val
                0x8040741c                dhcp_rx_options_given
 .bss           0x8040742c      0x678 /home/leon/git/swp-report/iMX6_Platform_SDK/output/mx6sl/lib/liblwip.a(dns.o)
 .bss           0x80407aa4        0x0 /home/leon/git/swp-report/iMX6_Platform_SDK/output/mx6sl/lib/liblwip.a(inet_chksum.o)
 .bss           0x80407aa4        0x0 /home/leon/git/swp-report/iMX6_Platform_SDK/output/mx6sl/lib/liblwip.a(init.o)
 .bss           0x80407aa4        0x0 /home/leon/git/swp-report/iMX6_Platform_SDK/output/mx6sl/lib/liblwip.a(autoip.o)
 .bss           0x80407aa4        0xc /home/leon/git/swp-report/iMX6_Platform_SDK/output/mx6sl/lib/liblwip.a(igmp.o)
 .bss           0x80407ab0       0x18 /home/leon/git/swp-report/iMX6_Platform_SDK/output/mx6sl/lib/liblwip.a(ip4.o)
                0x80407ab0                ip_data
 .bss           0x80407ac8       0x10 /home/leon/git/swp-report/iMX6_Platform_SDK/output/mx6sl/lib/liblwip.a(ip4_addr.o)
 .bss           0x80407ad8        0x0 /home/leon/git/swp-report/iMX6_Platform_SDK/output/mx6sl/lib/liblwip.a(memp.o)
 .bss           0x80407ad8        0xc /home/leon/git/swp-report/iMX6_Platform_SDK/output/mx6sl/lib/liblwip.a(netif.o)
                0x80407ad8                netif_list
                0x80407adc                netif_default
 .bss           0x80407ae4        0x1 /home/leon/git/swp-report/iMX6_Platform_SDK/output/mx6sl/lib/liblwip.a(pbuf.o)
                0x80407ae4                pbuf_free_ooseq_pending
 *fill*         0x80407ae5        0x3 
 .bss           0x80407ae8        0x4 /home/leon/git/swp-report/iMX6_Platform_SDK/output/mx6sl/lib/liblwip.a(raw.o)
 .bss           0x80407aec      0x150 /home/leon/git/swp-report/iMX6_Platform_SDK/output/mx6sl/lib/liblwip.a(mib2.o)
 .bss           0x80407c3c      0x184 /home/leon/git/swp-report/iMX6_Platform_SDK/output/mx6sl/lib/liblwip.a(mib_structs.o)
 .bss           0x80407dc0      0x134 /home/leon/git/swp-report/iMX6_Platform_SDK/output/mx6sl/lib/liblwip.a(msg_in.o)
                0x80407dc0                msg_input_list
                0x80407ef0                snmp1_pcb
 .bss           0x80407ef4       0x4c /home/leon/git/swp-report/iMX6_Platform_SDK/output/mx6sl/lib/liblwip.a(msg_out.o)
                0x80407ef4                trap_dst
                0x80407efc                trap_msg
 .bss           0x80407f40      0x2e4 /home/leon/git/swp-report/iMX6_Platform_SDK/output/mx6sl/lib/liblwip.a(stats.o)
                0x80407f40                lwip_stats
 .bss           0x80408224       0x30 /home/leon/git/swp-report/iMX6_Platform_SDK/output/mx6sl/lib/liblwip.a(tcp_in.o)
                0x80408250                tcp_input_pcb
 .bss           0x80408254       0x1c /home/leon/git/swp-report/iMX6_Platform_SDK/output/mx6sl/lib/liblwip.a(tcp.o)
                0x80408254                tcp_ticks
                0x80408258                tcp_bound_pcbs
                0x8040825c                tcp_listen_pcbs
                0x80408260                tcp_active_pcbs
                0x80408264                tcp_tw_pcbs
                0x80408268                tcp_tmp_pcb
                0x8040826c                tcp_active_pcbs_changed
 .bss           0x80408270        0x0 /home/leon/git/swp-report/iMX6_Platform_SDK/output/mx6sl/lib/liblwip.a(tcp_out.o)
 .bss           0x80408270        0xc /home/leon/git/swp-report/iMX6_Platform_SDK/output/mx6sl/lib/liblwip.a(timers.o)
 .bss           0x8040827c        0x4 /home/leon/git/swp-report/iMX6_Platform_SDK/output/mx6sl/lib/liblwip.a(udp.o)
                0x8040827c                udp_pcbs
 .bss           0x80408280      0x258 /home/leon/git/swp-report/iMX6_Platform_SDK/output/mx6sl/lib/liblwip.a(etharp.o)
 .bss           0x804084d8     0x1028 /home/leon/git/swp-report/iMX6_Platform_SDK/output/mx6sl/lib/liblwip.a(mx6_ethernetif.o)
 .bss           0x80409500       0x1c /home/leon/git/swp-report/iMX6_Platform_SDK/output/mx6sl/lib/liblwip.a(mx6_lwip.o)
 .bss           0x8040951c        0x0 /home/leon/git/swp-report/iMX6_Platform_SDK/output/mx6sl/lib/liblwip.a(sys_arch.o)
 .bss           0x8040951c        0x0 /home/leon/git/swp-report/iMX6_Platform_SDK/output/mx6sl/lib/liblwip.a(icmp.o)
 .bss           0x8040951c        0x0 /home/leon/git/swp-report/iMX6_Platform_SDK/output/mx6sl/lib/liblwip.a(asn1_dec.o)
 .bss           0x8040951c        0x0 /home/leon/git/swp-report/iMX6_Platform_SDK/output/mx6sl/lib/liblwip.a(asn1_enc.o)
 .bss           0x8040951c        0x0 /home/leon/riotboard/arm-2012.09/bin/../arm-none-eabi/lib//libc.a(lib_a-abort.o)
 .bss           0x8040951c        0x0 /home/leon/riotboard/arm-2012.09/bin/../arm-none-eabi/lib//libc.a(lib_a-assert.o)
 .bss           0x8040951c        0x0 /home/leon/riotboard/arm-2012.09/bin/../arm-none-eabi/lib//libc.a(lib_a-bzero.o)
 .bss           0x8040951c        0x0 /home/leon/riotboard/arm-2012.09/bin/../arm-none-eabi/lib//libc.a(lib_a-fflush.o)
 .bss           0x8040951c        0x0 /home/leon/riotboard/arm-2012.09/bin/../arm-none-eabi/lib//libc.a(lib_a-findfp.o)
 .bss           0x8040951c        0x0 /home/leon/riotboard/arm-2012.09/bin/../arm-none-eabi/lib//libc.a(lib_a-fiprintf.o)
 .bss           0x8040951c        0x0 /home/leon/riotboard/arm-2012.09/bin/../arm-none-eabi/lib//libc.a(lib_a-fputc.o)
 .bss           0x8040951c        0x0 /home/leon/riotboard/arm-2012.09/bin/../arm-none-eabi/lib//libc.a(lib_a-freer.o)
 .bss           0x8040951c        0x0 /home/leon/riotboard/arm-2012.09/bin/../arm-none-eabi/lib//libc.a(lib_a-fwalk.o)
 .bss           0x8040951c        0x0 /home/leon/riotboard/arm-2012.09/bin/../arm-none-eabi/lib//libc.a(lib_a-impure.o)
 .bss           0x8040951c        0x0 /home/leon/riotboard/arm-2012.09/bin/../arm-none-eabi/lib//libc.a(lib_a-init.o)
 .bss           0x8040951c        0x0 /home/leon/riotboard/arm-2012.09/bin/../arm-none-eabi/lib//libc.a(lib_a-malloc.o)
 .bss           0x8040951c       0x34 /home/leon/riotboard/arm-2012.09/bin/../arm-none-eabi/lib//libc.a(lib_a-mallocr.o)
                0x8040951c                __malloc_top_pad
                0x80409520                __malloc_current_mallinfo
                0x80409548                __malloc_max_sbrked_mem
                0x8040954c                __malloc_max_total_mem
 .bss           0x80409550        0x0 /home/leon/riotboard/arm-2012.09/bin/../arm-none-eabi/lib//libc.a(lib_a-memcmp.o)
 .bss           0x80409550        0x0 /home/leon/riotboard/arm-2012.09/bin/../arm-none-eabi/lib//libc.a(lib_a-memcpy.o)
 .bss           0x80409550        0x0 /home/leon/riotboard/arm-2012.09/bin/../arm-none-eabi/lib//libc.a(lib_a-memset.o)
 .bss           0x80409550        0x0 /home/leon/riotboard/arm-2012.09/bin/../arm-none-eabi/lib//libc.a(lib_a-mlock.o)
 .bss           0x80409550        0x0 /home/leon/riotboard/arm-2012.09/bin/../arm-none-eabi/lib//libc.a(lib_a-printf.o)
 .bss           0x80409550        0x0 /home/leon/riotboard/arm-2012.09/bin/../arm-none-eabi/lib//libc.a(lib_a-putc.o)
 .bss           0x80409550        0x0 /home/leon/riotboard/arm-2012.09/bin/../arm-none-eabi/lib//libc.a(lib_a-rand.o)
 .bss           0x80409550        0x0 /home/leon/riotboard/arm-2012.09/bin/../arm-none-eabi/lib//libc.a(lib_a-realloc.o)
 .bss           0x80409550        0x0 /home/leon/riotboard/arm-2012.09/bin/../arm-none-eabi/lib//libc.a(lib_a-reallocr.o)
 .bss           0x80409550        0x0 /home/leon/riotboard/arm-2012.09/bin/../arm-none-eabi/lib//libc.a(lib_a-rget.o)
 .bss           0x80409550        0x0 /home/leon/riotboard/arm-2012.09/bin/../arm-none-eabi/lib//libc.a(lib_a-sbrkr.o)
 .bss           0x80409550        0x0 /home/leon/riotboard/arm-2012.09/bin/../arm-none-eabi/lib//libc.a(lib_a-signal.o)
 .bss           0x80409550        0x0 /home/leon/riotboard/arm-2012.09/bin/../arm-none-eabi/lib//libc.a(lib_a-signalr.o)
 .bss           0x80409550        0x0 /home/leon/riotboard/arm-2012.09/bin/../arm-none-eabi/lib//libc.a(lib_a-stdio.o)
 .bss           0x80409550        0x0 /home/leon/riotboard/arm-2012.09/bin/../arm-none-eabi/lib//libc.a(lib_a-strcmp.o)
 .bss           0x80409550        0x0 /home/leon/riotboard/arm-2012.09/bin/../arm-none-eabi/lib//libc.a(lib_a-strlen.o)
 .bss           0x80409550        0x0 /home/leon/riotboard/arm-2012.09/bin/../arm-none-eabi/lib//libc.a(lib_a-strncmp.o)
 .bss           0x80409550        0x0 /home/leon/riotboard/arm-2012.09/bin/../arm-none-eabi/lib//libc.a(lib_a-vfiprintf.o)
 .bss           0x80409550        0x0 /home/leon/riotboard/arm-2012.09/bin/../arm-none-eabi/lib//libc.a(lib_a-vfprintf.o)
 .bss           0x80409550        0x0 /home/leon/riotboard/arm-2012.09/bin/../arm-none-eabi/lib//libc.a(lib_a-vprintf.o)
 .bss           0x80409550        0x0 /home/leon/riotboard/arm-2012.09/bin/../arm-none-eabi/lib//libc.a(lib_a-wbuf.o)
 .bss           0x80409550        0x0 /home/leon/riotboard/arm-2012.09/bin/../arm-none-eabi/lib//libc.a(lib_a-writer.o)
 .bss           0x80409550        0x0 /home/leon/riotboard/arm-2012.09/bin/../arm-none-eabi/lib//libc.a(lib_a-wsetup.o)
 .bss           0x80409550        0x0 /home/leon/riotboard/arm-2012.09/bin/../arm-none-eabi/lib//libc.a(lib_a-closer.o)
 .bss           0x80409550        0x0 /home/leon/riotboard/arm-2012.09/bin/../arm-none-eabi/lib//libc.a(lib_a-dtoa.o)
 .bss           0x80409550        0x0 /home/leon/riotboard/arm-2012.09/bin/../arm-none-eabi/lib//libc.a(lib_a-fclose.o)
 .bss           0x80409550        0x0 /home/leon/riotboard/arm-2012.09/bin/../arm-none-eabi/lib//libc.a(lib_a-fputwc.o)
 .bss           0x80409550        0x0 /home/leon/riotboard/arm-2012.09/bin/../arm-none-eabi/lib//libc.a(lib_a-fvwrite.o)
 .bss           0x80409550        0xc /home/leon/riotboard/arm-2012.09/bin/../arm-none-eabi/lib//libc.a(lib_a-locale.o)
                0x80409550                _PathLocale
                0x80409554                __mlocale_changed
                0x80409558                __nlocale_changed
 .bss           0x8040955c        0x0 /home/leon/riotboard/arm-2012.09/bin/../arm-none-eabi/lib//libc.a(lib_a-lseekr.o)
 .bss           0x8040955c        0x0 /home/leon/riotboard/arm-2012.09/bin/../arm-none-eabi/lib//libc.a(lib_a-makebuf.o)
 .bss           0x8040955c        0x0 /home/leon/riotboard/arm-2012.09/bin/../arm-none-eabi/lib//libc.a(lib_a-memchr.o)
 .bss           0x8040955c        0x0 /home/leon/riotboard/arm-2012.09/bin/../arm-none-eabi/lib//libc.a(lib_a-memmove.o)
 .bss           0x8040955c        0x0 /home/leon/riotboard/arm-2012.09/bin/../arm-none-eabi/lib//libc.a(lib_a-mprec.o)
 .bss           0x8040955c        0x0 /home/leon/riotboard/arm-2012.09/bin/../arm-none-eabi/lib//libc.a(lib_a-readr.o)
 .bss           0x8040955c        0x0 /home/leon/riotboard/arm-2012.09/bin/../arm-none-eabi/lib//libc.a(lib_a-reent.o)
 .bss           0x8040955c        0x0 /home/leon/riotboard/arm-2012.09/bin/../arm-none-eabi/lib//libc.a(lib_a-refill.o)
 .bss           0x8040955c        0x0 /home/leon/riotboard/arm-2012.09/bin/../arm-none-eabi/lib//libc.a(lib_a-s_fpclassify.o)
 .bss           0x8040955c        0x0 /home/leon/riotboard/arm-2012.09/bin/../arm-none-eabi/lib//libc.a(lib_a-wcrtomb.o)
 .bss           0x8040955c        0x0 /home/leon/riotboard/arm-2012.09/bin/../arm-none-eabi/lib//libc.a(lib_a-wctomb_r.o)
 .bss           0x8040955c        0x0 /home/leon/riotboard/arm-2012.09/bin/../arm-none-eabi/lib//libc.a(lib_a-callocr.o)
 .bss           0x8040955c        0x0 /home/leon/riotboard/arm-2012.09/bin/../arm-none-eabi/lib//libc.a(lib_a-fstatr.o)
 .bss           0x8040955c        0x0 /home/leon/riotboard/arm-2012.09/bin/../arm-none-eabi/lib//libc.a(lib_a-isattyr.o)
 .bss           0x8040955c        0x0 /home/leon/riotboard/arm-2012.09/bin/../lib/gcc/arm-none-eabi/4.7.2//libgcc.a(_udivsi3.o)
 .bss           0x8040955c        0x0 /home/leon/riotboard/arm-2012.09/bin/../lib/gcc/arm-none-eabi/4.7.2//libgcc.a(_divsi3.o)
 .bss           0x8040955c        0x0 /home/leon/riotboard/arm-2012.09/bin/../lib/gcc/arm-none-eabi/4.7.2//libgcc.a(_dvmd_tls.o)
 .bss           0x8040955c        0x0 /home/leon/riotboard/arm-2012.09/bin/../lib/gcc/arm-none-eabi/4.7.2//libgcc.a(_arm_addsubdf3.o)
 .bss           0x8040955c        0x0 /home/leon/riotboard/arm-2012.09/bin/../lib/gcc/arm-none-eabi/4.7.2//libgcc.a(_arm_muldivdf3.o)
 .bss           0x8040955c        0x0 /home/leon/riotboard/arm-2012.09/bin/../lib/gcc/arm-none-eabi/4.7.2//libgcc.a(_arm_cmpdf2.o)
 .bss           0x8040955c        0x0 /home/leon/riotboard/arm-2012.09/bin/../lib/gcc/arm-none-eabi/4.7.2//libgcc.a(_arm_fixdfsi.o)
 .bss           0x8040955c        0x0 /home/leon/riotboard/arm-2012.09/bin/../lib/gcc/arm-none-eabi/4.7.2//libgcc.a(_aeabi_uldivmod.o)
 .bss           0x8040955c        0x0 /home/leon/riotboard/arm-2012.09/bin/../lib/gcc/arm-none-eabi/4.7.2//libgcc.a(bpabi.o)
 .bss           0x8040955c        0x0 /home/leon/riotboard/arm-2012.09/bin/../lib/gcc/arm-none-eabi/4.7.2//libgcc.a(_divdi3.o)
 .bss           0x8040955c        0x0 /home/leon/riotboard/arm-2012.09/bin/../lib/gcc/arm-none-eabi/4.7.2//libgcc.a(_udivdi3.o)
 .bss           0x8040955c        0x0 /home/leon/riotboard/arm-2012.09/bin/../lib/gcc/arm-none-eabi/4.7.2//libgcc.a(_clzsi2.o)
 .bss           0x8040955c        0xc /home/leon/git/swp-report/iMX6_Platform_SDK/output/mx6sl/lib/libsdk.a(runtime_support.o)
                0x8040955c                __env
 .bss           0x80409568        0x0 /home/leon/git/swp-report/iMX6_Platform_SDK/output/mx6sl/lib/libsdk.a(gpio.o)
 .bss           0x80409568        0x0 /home/leon/git/swp-report/iMX6_Platform_SDK/output/mx6sl/lib/libsdk.a(imx6sl_gpio_map.o)
 *(COMMON)
 COMMON         0x80409568        0x4 /home/leon/riotboard/arm-2012.09/bin/../arm-none-eabi/lib//libc.a(lib_a-reent.o)
                0x80409568                errno
 *(.bss)
                0x8040956c                __bss_end__ = .

.stacks         0x8040956c     0xc000
                0x8040956c                __stacks_start = .
                0x8041556c                . = (. + 0xc000)
 *fill*         0x8040956c     0xc000 
                0x8041556c                __stacks_end = .
                0x8041556c                top_of_stacks = .
                0x80415580                free_memory_start = ALIGN (0x20)
                0x8841556c                . = (. + 0x8000000)
                0x8841556c                free_memory_end = .
                0x8841556c                _end = .
START GROUP
LOAD /home/leon/git/swp-report/iMX6_Platform_SDK/output/mx6sl/ping/evk_rev_a/obj/apps/common/ivt.o
LOAD /home/leon/git/swp-report/iMX6_Platform_SDK/output/mx6sl/ping/evk_rev_a/obj/apps/common/platform_init.o
LOAD /home/leon/git/swp-report/iMX6_Platform_SDK/output/mx6sl/ping/evk_rev_a/obj/apps/ping/src/ping.o
LOAD /home/leon/git/swp-report/iMX6_Platform_SDK/output/mx6sl/ping/evk_rev_a/obj/apps/ping/src/ping_main.o
LOAD /home/leon/git/swp-report/iMX6_Platform_SDK/output/mx6sl/lib/libsdk.a
LOAD /home/leon/git/swp-report/iMX6_Platform_SDK/output/mx6sl/lib/libboard_evk_rev_a.a
LOAD /home/leon/git/swp-report/iMX6_Platform_SDK/output/mx6sl/lib/liblwip.a
LOAD /home/leon/riotboard/arm-2012.09/bin/../arm-none-eabi/lib//libm.a
LOAD /home/leon/riotboard/arm-2012.09/bin/../arm-none-eabi/lib//libstdc++.a
LOAD /home/leon/riotboard/arm-2012.09/bin/../arm-none-eabi/lib//libc.a
LOAD /home/leon/riotboard/arm-2012.09/bin/../lib/gcc/arm-none-eabi/4.7.2//libgcc.a
END GROUP
OUTPUT(/home/leon/git/swp-report/iMX6_Platform_SDK/output/mx6sl/ping/evk_rev_a/ping.elf elf32-littlearm)

.ARM.attributes
                0x00000000       0x3b
 .ARM.attributes
                0x00000000       0x30 /home/leon/riotboard/arm-2012.09/bin/../lib/gcc/arm-none-eabi/4.7.2//crtbegin.o
 .ARM.attributes
                0x00000030       0x16 /home/leon/riotboard/arm-2012.09/bin/../lib/gcc/arm-none-eabi/4.7.2//crti.o
 .ARM.attributes
                0x00000046       0x30 /home/leon/riotboard/arm-2012.09/bin/../lib/gcc/arm-none-eabi/4.7.2//crtend.o
 .ARM.attributes
                0x00000076       0x18 /home/leon/riotboard/arm-2012.09/bin/../lib/gcc/arm-none-eabi/4.7.2//crtn.o
 .ARM.attributes
                0x0000008e       0x39 /home/leon/git/swp-report/iMX6_Platform_SDK/output/mx6sl/ping/evk_rev_a/obj/apps/common/ivt.o
 .ARM.attributes
                0x000000c7       0x39 /home/leon/git/swp-report/iMX6_Platform_SDK/output/mx6sl/ping/evk_rev_a/obj/apps/common/platform_init.o
 .ARM.attributes
                0x00000100       0x39 /home/leon/git/swp-report/iMX6_Platform_SDK/output/mx6sl/ping/evk_rev_a/obj/apps/ping/src/ping.o
 .ARM.attributes
                0x00000139       0x39 /home/leon/git/swp-report/iMX6_Platform_SDK/output/mx6sl/ping/evk_rev_a/obj/apps/ping/src/ping_main.o
 .ARM.attributes
                0x00000172       0x39 /home/leon/git/swp-report/iMX6_Platform_SDK/output/mx6sl/lib/libsdk.a(ccm_pll.o)
 .ARM.attributes
                0x000001ab       0x16 /home/leon/git/swp-report/iMX6_Platform_SDK/output/mx6sl/lib/libsdk.a(cortexA9.o)
 .ARM.attributes
                0x000001c1       0x39 /home/leon/git/swp-report/iMX6_Platform_SDK/output/mx6sl/lib/libsdk.a(gic.o)
 .ARM.attributes
                0x000001fa       0x39 /home/leon/git/swp-report/iMX6_Platform_SDK/output/mx6sl/lib/libsdk.a(mmu.o)
 .ARM.attributes
                0x00000233       0x16 /home/leon/git/swp-report/iMX6_Platform_SDK/output/mx6sl/lib/libsdk.a(startup.o)
 .ARM.attributes
                0x00000249       0x14 /home/leon/git/swp-report/iMX6_Platform_SDK/output/mx6sl/lib/libsdk.a(vectors.o)
 .ARM.attributes
                0x0000025d       0x39 /home/leon/git/swp-report/iMX6_Platform_SDK/output/mx6sl/lib/libsdk.a(system_util.o)
 .ARM.attributes
                0x00000296       0x39 /home/leon/git/swp-report/iMX6_Platform_SDK/output/mx6sl/lib/libsdk.a(text_color.o)
 .ARM.attributes
                0x000002cf       0x39 /home/leon/git/swp-report/iMX6_Platform_SDK/output/mx6sl/lib/libsdk.a(fec_drv.o)
 .ARM.attributes
                0x00000308       0x39 /home/leon/git/swp-report/iMX6_Platform_SDK/output/mx6sl/lib/libsdk.a(timer.o)
 .ARM.attributes
                0x00000341       0x39 /home/leon/git/swp-report/iMX6_Platform_SDK/output/mx6sl/lib/libsdk.a(imx_uart.o)
 .ARM.attributes
                0x0000037a       0x14 /home/leon/git/swp-report/iMX6_Platform_SDK/output/mx6sl/lib/libsdk.a(arm_abort.o)
 .ARM.attributes
                0x0000038e       0x39 /home/leon/git/swp-report/iMX6_Platform_SDK/output/mx6sl/lib/libsdk.a(interrupt.o)
 .ARM.attributes
                0x000003c7       0x39 /home/leon/git/swp-report/iMX6_Platform_SDK/output/mx6sl/lib/libsdk.a(epit.o)
 .ARM.attributes
                0x00000400       0x39 /home/leon/git/swp-report/iMX6_Platform_SDK/output/mx6sl/lib/libsdk.a(abort_handler.o)
 .ARM.attributes
                0x00000439       0x39 /home/leon/git/swp-report/iMX6_Platform_SDK/output/mx6sl/lib/libboard_evk_rev_a.a(board_io_expanders.o)
 .ARM.attributes
                0x00000472       0x39 /home/leon/git/swp-report/iMX6_Platform_SDK/output/mx6sl/lib/libboard_evk_rev_a.a(dcd.o)
 .ARM.attributes
                0x000004ab       0x39 /home/leon/git/swp-report/iMX6_Platform_SDK/output/mx6sl/lib/libboard_evk_rev_a.a(hardware_modules.o)
 .ARM.attributes
                0x000004e4       0x39 /home/leon/git/swp-report/iMX6_Platform_SDK/output/mx6sl/lib/libboard_evk_rev_a.a(uart_iomux_config.o)
 .ARM.attributes
                0x0000051d       0x39 /home/leon/git/swp-report/iMX6_Platform_SDK/output/mx6sl/lib/libboard_evk_rev_a.a(iomux_config.o)
 .ARM.attributes
                0x00000556       0x39 /home/leon/git/swp-report/iMX6_Platform_SDK/output/mx6sl/lib/libboard_evk_rev_a.a(kpp_iomux_config.o)
 .ARM.attributes
                0x0000058f       0x39 /home/leon/git/swp-report/iMX6_Platform_SDK/output/mx6sl/lib/libboard_evk_rev_a.a(lcd_iomux_config.o)
 .ARM.attributes
                0x000005c8       0x39 /home/leon/git/swp-report/iMX6_Platform_SDK/output/mx6sl/lib/libboard_evk_rev_a.a(mmdc_iomux_config.o)
 .ARM.attributes
                0x00000601       0x39 /home/leon/git/swp-report/iMX6_Platform_SDK/output/mx6sl/lib/libboard_evk_rev_a.a(pwm1_iomux_config.o)
 .ARM.attributes
                0x0000063a       0x39 /home/leon/git/swp-report/iMX6_Platform_SDK/output/mx6sl/lib/libboard_evk_rev_a.a(sjc_iomux_config.o)
 .ARM.attributes
                0x00000673       0x39 /home/leon/git/swp-report/iMX6_Platform_SDK/output/mx6sl/lib/libboard_evk_rev_a.a(spdc_iomux_config.o)
 .ARM.attributes
                0x000006ac       0x39 /home/leon/git/swp-report/iMX6_Platform_SDK/output/mx6sl/lib/libboard_evk_rev_a.a(uart1_iomux_config.o)
 .ARM.attributes
                0x000006e5       0x39 /home/leon/git/swp-report/iMX6_Platform_SDK/output/mx6sl/lib/libboard_evk_rev_a.a(usb_iomux_config.o)
 .ARM.attributes
                0x0000071e       0x39 /home/leon/git/swp-report/iMX6_Platform_SDK/output/mx6sl/lib/libboard_evk_rev_a.a(usdhc1_iomux_config.o)
 .ARM.attributes
                0x00000757       0x39 /home/leon/git/swp-report/iMX6_Platform_SDK/output/mx6sl/lib/libboard_evk_rev_a.a(usdhc2_iomux_config.o)
 .ARM.attributes
                0x00000790       0x39 /home/leon/git/swp-report/iMX6_Platform_SDK/output/mx6sl/lib/libboard_evk_rev_a.a(usdhc3_iomux_config.o)
 .ARM.attributes
                0x000007c9       0x39 /home/leon/git/swp-report/iMX6_Platform_SDK/output/mx6sl/lib/libboard_evk_rev_a.a(wdog1_iomux_config.o)
 .ARM.attributes
                0x00000802       0x39 /home/leon/git/swp-report/iMX6_Platform_SDK/output/mx6sl/lib/libboard_evk_rev_a.a(audmux_iomux_config.o)
 .ARM.attributes
                0x0000083b       0x39 /home/leon/git/swp-report/iMX6_Platform_SDK/output/mx6sl/lib/libboard_evk_rev_a.a(csi_iomux_config.o)
 .ARM.attributes
                0x00000874       0x39 /home/leon/git/swp-report/iMX6_Platform_SDK/output/mx6sl/lib/libboard_evk_rev_a.a(ecspi1_iomux_config.o)
 .ARM.attributes
                0x000008ad       0x39 /home/leon/git/swp-report/iMX6_Platform_SDK/output/mx6sl/lib/libboard_evk_rev_a.a(ecspi2_iomux_config.o)
 .ARM.attributes
                0x000008e6       0x39 /home/leon/git/swp-report/iMX6_Platform_SDK/output/mx6sl/lib/libboard_evk_rev_a.a(epdc_iomux_config.o)
 .ARM.attributes
                0x0000091f       0x39 /home/leon/git/swp-report/iMX6_Platform_SDK/output/mx6sl/lib/libboard_evk_rev_a.a(fec_iomux_config.o)
 .ARM.attributes
                0x00000958       0x39 /home/leon/git/swp-report/iMX6_Platform_SDK/output/mx6sl/lib/libboard_evk_rev_a.a(gpio1_iomux_config.o)
 .ARM.attributes
                0x00000991       0x39 /home/leon/git/swp-report/iMX6_Platform_SDK/output/mx6sl/lib/libboard_evk_rev_a.a(gpio4_iomux_config.o)
 .ARM.attributes
                0x000009ca       0x39 /home/leon/git/swp-report/iMX6_Platform_SDK/output/mx6sl/lib/libboard_evk_rev_a.a(i2c1_iomux_config.o)
 .ARM.attributes
                0x00000a03       0x39 /home/leon/git/swp-report/iMX6_Platform_SDK/output/mx6sl/lib/libboard_evk_rev_a.a(i2c2_iomux_config.o)
 .ARM.attributes
                0x00000a3c       0x39 /home/leon/git/swp-report/iMX6_Platform_SDK/output/mx6sl/lib/libboard_evk_rev_a.a(i2c3_iomux_config.o)
 .ARM.attributes
                0x00000a75       0x39 /home/leon/git/swp-report/iMX6_Platform_SDK/output/mx6sl/lib/liblwip.a(def.o)
 .ARM.attributes
                0x00000aae       0x39 /home/leon/git/swp-report/iMX6_Platform_SDK/output/mx6sl/lib/liblwip.a(dhcp.o)
 .ARM.attributes
                0x00000ae7       0x39 /home/leon/git/swp-report/iMX6_Platform_SDK/output/mx6sl/lib/liblwip.a(dns.o)
 .ARM.attributes
                0x00000b20       0x39 /home/leon/git/swp-report/iMX6_Platform_SDK/output/mx6sl/lib/liblwip.a(inet_chksum.o)
 .ARM.attributes
                0x00000b59       0x39 /home/leon/git/swp-report/iMX6_Platform_SDK/output/mx6sl/lib/liblwip.a(init.o)
 .ARM.attributes
                0x00000b92       0x39 /home/leon/git/swp-report/iMX6_Platform_SDK/output/mx6sl/lib/liblwip.a(autoip.o)
 .ARM.attributes
                0x00000bcb       0x39 /home/leon/git/swp-report/iMX6_Platform_SDK/output/mx6sl/lib/liblwip.a(igmp.o)
 .ARM.attributes
                0x00000c04       0x39 /home/leon/git/swp-report/iMX6_Platform_SDK/output/mx6sl/lib/liblwip.a(ip4.o)
 .ARM.attributes
                0x00000c3d       0x39 /home/leon/git/swp-report/iMX6_Platform_SDK/output/mx6sl/lib/liblwip.a(ip4_addr.o)
 .ARM.attributes
                0x00000c76       0x39 /home/leon/git/swp-report/iMX6_Platform_SDK/output/mx6sl/lib/liblwip.a(memp.o)
 .ARM.attributes
                0x00000caf       0x39 /home/leon/git/swp-report/iMX6_Platform_SDK/output/mx6sl/lib/liblwip.a(netif.o)
 .ARM.attributes
                0x00000ce8       0x39 /home/leon/git/swp-report/iMX6_Platform_SDK/output/mx6sl/lib/liblwip.a(pbuf.o)
 .ARM.attributes
                0x00000d21       0x39 /home/leon/git/swp-report/iMX6_Platform_SDK/output/mx6sl/lib/liblwip.a(raw.o)
 .ARM.attributes
                0x00000d5a       0x39 /home/leon/git/swp-report/iMX6_Platform_SDK/output/mx6sl/lib/liblwip.a(mib2.o)
 .ARM.attributes
                0x00000d93       0x39 /home/leon/git/swp-report/iMX6_Platform_SDK/output/mx6sl/lib/liblwip.a(mib_structs.o)
 .ARM.attributes
                0x00000dcc       0x39 /home/leon/git/swp-report/iMX6_Platform_SDK/output/mx6sl/lib/liblwip.a(msg_in.o)
 .ARM.attributes
                0x00000e05       0x39 /home/leon/git/swp-report/iMX6_Platform_SDK/output/mx6sl/lib/liblwip.a(msg_out.o)
 .ARM.attributes
                0x00000e3e       0x39 /home/leon/git/swp-report/iMX6_Platform_SDK/output/mx6sl/lib/liblwip.a(stats.o)
 .ARM.attributes
                0x00000e77       0x39 /home/leon/git/swp-report/iMX6_Platform_SDK/output/mx6sl/lib/liblwip.a(tcp_in.o)
 .ARM.attributes
                0x00000eb0       0x39 /home/leon/git/swp-report/iMX6_Platform_SDK/output/mx6sl/lib/liblwip.a(tcp.o)
 .ARM.attributes
                0x00000ee9       0x39 /home/leon/git/swp-report/iMX6_Platform_SDK/output/mx6sl/lib/liblwip.a(tcp_out.o)
 .ARM.attributes
                0x00000f22       0x39 /home/leon/git/swp-report/iMX6_Platform_SDK/output/mx6sl/lib/liblwip.a(timers.o)
 .ARM.attributes
                0x00000f5b       0x39 /home/leon/git/swp-report/iMX6_Platform_SDK/output/mx6sl/lib/liblwip.a(udp.o)
 .ARM.attributes
                0x00000f94       0x39 /home/leon/git/swp-report/iMX6_Platform_SDK/output/mx6sl/lib/liblwip.a(etharp.o)
 .ARM.attributes
                0x00000fcd       0x39 /home/leon/git/swp-report/iMX6_Platform_SDK/output/mx6sl/lib/liblwip.a(mx6_ethernetif.o)
 .ARM.attributes
                0x00001006       0x39 /home/leon/git/swp-report/iMX6_Platform_SDK/output/mx6sl/lib/liblwip.a(mx6_lwip.o)
 .ARM.attributes
                0x0000103f       0x39 /home/leon/git/swp-report/iMX6_Platform_SDK/output/mx6sl/lib/liblwip.a(sys_arch.o)
 .ARM.attributes
                0x00001078       0x39 /home/leon/git/swp-report/iMX6_Platform_SDK/output/mx6sl/lib/liblwip.a(icmp.o)
 .ARM.attributes
                0x000010b1       0x39 /home/leon/git/swp-report/iMX6_Platform_SDK/output/mx6sl/lib/liblwip.a(asn1_dec.o)
 .ARM.attributes
                0x000010ea       0x39 /home/leon/git/swp-report/iMX6_Platform_SDK/output/mx6sl/lib/liblwip.a(asn1_enc.o)
 .ARM.attributes
                0x00001123       0x30 /home/leon/riotboard/arm-2012.09/bin/../arm-none-eabi/lib//libc.a(lib_a-abort.o)
 .ARM.attributes
                0x00001153       0x30 /home/leon/riotboard/arm-2012.09/bin/../arm-none-eabi/lib//libc.a(lib_a-assert.o)
 .ARM.attributes
                0x00001183       0x30 /home/leon/riotboard/arm-2012.09/bin/../arm-none-eabi/lib//libc.a(lib_a-bzero.o)
 .ARM.attributes
                0x000011b3       0x30 /home/leon/riotboard/arm-2012.09/bin/../arm-none-eabi/lib//libc.a(lib_a-fflush.o)
 .ARM.attributes
                0x000011e3       0x30 /home/leon/riotboard/arm-2012.09/bin/../arm-none-eabi/lib//libc.a(lib_a-findfp.o)
 .ARM.attributes
                0x00001213       0x30 /home/leon/riotboard/arm-2012.09/bin/../arm-none-eabi/lib//libc.a(lib_a-fiprintf.o)
 .ARM.attributes
                0x00001243       0x30 /home/leon/riotboard/arm-2012.09/bin/../arm-none-eabi/lib//libc.a(lib_a-fputc.o)
 .ARM.attributes
                0x00001273       0x30 /home/leon/riotboard/arm-2012.09/bin/../arm-none-eabi/lib//libc.a(lib_a-freer.o)
 .ARM.attributes
                0x000012a3       0x30 /home/leon/riotboard/arm-2012.09/bin/../arm-none-eabi/lib//libc.a(lib_a-fwalk.o)
 .ARM.attributes
                0x000012d3       0x30 /home/leon/riotboard/arm-2012.09/bin/../arm-none-eabi/lib//libc.a(lib_a-impure.o)
 .ARM.attributes
                0x00001303       0x30 /home/leon/riotboard/arm-2012.09/bin/../arm-none-eabi/lib//libc.a(lib_a-init.o)
 .ARM.attributes
                0x00001333       0x30 /home/leon/riotboard/arm-2012.09/bin/../arm-none-eabi/lib//libc.a(lib_a-malloc.o)
 .ARM.attributes
                0x00001363       0x30 /home/leon/riotboard/arm-2012.09/bin/../arm-none-eabi/lib//libc.a(lib_a-mallocr.o)
 .ARM.attributes
                0x00001393       0x30 /home/leon/riotboard/arm-2012.09/bin/../arm-none-eabi/lib//libc.a(lib_a-memcmp.o)
 .ARM.attributes
                0x000013c3       0x30 /home/leon/riotboard/arm-2012.09/bin/../arm-none-eabi/lib//libc.a(lib_a-memcpy.o)
 .ARM.attributes
                0x000013f3       0x30 /home/leon/riotboard/arm-2012.09/bin/../arm-none-eabi/lib//libc.a(lib_a-memset.o)
 .ARM.attributes
                0x00001423       0x30 /home/leon/riotboard/arm-2012.09/bin/../arm-none-eabi/lib//libc.a(lib_a-mlock.o)
 .ARM.attributes
                0x00001453       0x30 /home/leon/riotboard/arm-2012.09/bin/../arm-none-eabi/lib//libc.a(lib_a-printf.o)
 .ARM.attributes
                0x00001483       0x30 /home/leon/riotboard/arm-2012.09/bin/../arm-none-eabi/lib//libc.a(lib_a-putc.o)
 .ARM.attributes
                0x000014b3       0x30 /home/leon/riotboard/arm-2012.09/bin/../arm-none-eabi/lib//libc.a(lib_a-rand.o)
 .ARM.attributes
                0x000014e3       0x30 /home/leon/riotboard/arm-2012.09/bin/../arm-none-eabi/lib//libc.a(lib_a-realloc.o)
 .ARM.attributes
                0x00001513       0x30 /home/leon/riotboard/arm-2012.09/bin/../arm-none-eabi/lib//libc.a(lib_a-reallocr.o)
 .ARM.attributes
                0x00001543       0x30 /home/leon/riotboard/arm-2012.09/bin/../arm-none-eabi/lib//libc.a(lib_a-rget.o)
 .ARM.attributes
                0x00001573       0x30 /home/leon/riotboard/arm-2012.09/bin/../arm-none-eabi/lib//libc.a(lib_a-sbrkr.o)
 .ARM.attributes
                0x000015a3       0x30 /home/leon/riotboard/arm-2012.09/bin/../arm-none-eabi/lib//libc.a(lib_a-signal.o)
 .ARM.attributes
                0x000015d3       0x30 /home/leon/riotboard/arm-2012.09/bin/../arm-none-eabi/lib//libc.a(lib_a-signalr.o)
 .ARM.attributes
                0x00001603       0x30 /home/leon/riotboard/arm-2012.09/bin/../arm-none-eabi/lib//libc.a(lib_a-stdio.o)
 .ARM.attributes
                0x00001633       0x30 /home/leon/riotboard/arm-2012.09/bin/../arm-none-eabi/lib//libc.a(lib_a-strcmp.o)
 .ARM.attributes
                0x00001663       0x30 /home/leon/riotboard/arm-2012.09/bin/../arm-none-eabi/lib//libc.a(lib_a-strlen.o)
 .ARM.attributes
                0x00001693       0x30 /home/leon/riotboard/arm-2012.09/bin/../arm-none-eabi/lib//libc.a(lib_a-strncmp.o)
 .ARM.attributes
                0x000016c3       0x30 /home/leon/riotboard/arm-2012.09/bin/../arm-none-eabi/lib//libc.a(lib_a-vfiprintf.o)
 .ARM.attributes
                0x000016f3       0x30 /home/leon/riotboard/arm-2012.09/bin/../arm-none-eabi/lib//libc.a(lib_a-vfprintf.o)
 .ARM.attributes
                0x00001723       0x30 /home/leon/riotboard/arm-2012.09/bin/../arm-none-eabi/lib//libc.a(lib_a-vprintf.o)
 .ARM.attributes
                0x00001753       0x30 /home/leon/riotboard/arm-2012.09/bin/../arm-none-eabi/lib//libc.a(lib_a-wbuf.o)
 .ARM.attributes
                0x00001783       0x30 /home/leon/riotboard/arm-2012.09/bin/../arm-none-eabi/lib//libc.a(lib_a-writer.o)
 .ARM.attributes
                0x000017b3       0x30 /home/leon/riotboard/arm-2012.09/bin/../arm-none-eabi/lib//libc.a(lib_a-wsetup.o)
 .ARM.attributes
                0x000017e3       0x30 /home/leon/riotboard/arm-2012.09/bin/../arm-none-eabi/lib//libc.a(lib_a-closer.o)
 .ARM.attributes
                0x00001813       0x30 /home/leon/riotboard/arm-2012.09/bin/../arm-none-eabi/lib//libc.a(lib_a-dtoa.o)
 .ARM.attributes
                0x00001843       0x30 /home/leon/riotboard/arm-2012.09/bin/../arm-none-eabi/lib//libc.a(lib_a-fclose.o)
 .ARM.attributes
                0x00001873       0x30 /home/leon/riotboard/arm-2012.09/bin/../arm-none-eabi/lib//libc.a(lib_a-fputwc.o)
 .ARM.attributes
                0x000018a3       0x30 /home/leon/riotboard/arm-2012.09/bin/../arm-none-eabi/lib//libc.a(lib_a-fvwrite.o)
 .ARM.attributes
                0x000018d3       0x30 /home/leon/riotboard/arm-2012.09/bin/../arm-none-eabi/lib//libc.a(lib_a-locale.o)
 .ARM.attributes
                0x00001903       0x30 /home/leon/riotboard/arm-2012.09/bin/../arm-none-eabi/lib//libc.a(lib_a-lseekr.o)
 .ARM.attributes
                0x00001933       0x30 /home/leon/riotboard/arm-2012.09/bin/../arm-none-eabi/lib//libc.a(lib_a-makebuf.o)
 .ARM.attributes
                0x00001963       0x30 /home/leon/riotboard/arm-2012.09/bin/../arm-none-eabi/lib//libc.a(lib_a-memchr.o)
 .ARM.attributes
                0x00001993       0x30 /home/leon/riotboard/arm-2012.09/bin/../arm-none-eabi/lib//libc.a(lib_a-memmove.o)
 .ARM.attributes
                0x000019c3       0x30 /home/leon/riotboard/arm-2012.09/bin/../arm-none-eabi/lib//libc.a(lib_a-mprec.o)
 .ARM.attributes
                0x000019f3       0x30 /home/leon/riotboard/arm-2012.09/bin/../arm-none-eabi/lib//libc.a(lib_a-readr.o)
 .ARM.attributes
                0x00001a23       0x30 /home/leon/riotboard/arm-2012.09/bin/../arm-none-eabi/lib//libc.a(lib_a-reent.o)
 .ARM.attributes
                0x00001a53       0x30 /home/leon/riotboard/arm-2012.09/bin/../arm-none-eabi/lib//libc.a(lib_a-refill.o)
 .ARM.attributes
                0x00001a83       0x30 /home/leon/riotboard/arm-2012.09/bin/../arm-none-eabi/lib//libc.a(lib_a-s_fpclassify.o)
 .ARM.attributes
                0x00001ab3       0x30 /home/leon/riotboard/arm-2012.09/bin/../arm-none-eabi/lib//libc.a(lib_a-wcrtomb.o)
 .ARM.attributes
                0x00001ae3       0x30 /home/leon/riotboard/arm-2012.09/bin/../arm-none-eabi/lib//libc.a(lib_a-wctomb_r.o)
 .ARM.attributes
                0x00001b13       0x30 /home/leon/riotboard/arm-2012.09/bin/../arm-none-eabi/lib//libc.a(lib_a-callocr.o)
 .ARM.attributes
                0x00001b43       0x30 /home/leon/riotboard/arm-2012.09/bin/../arm-none-eabi/lib//libc.a(lib_a-fstatr.o)
 .ARM.attributes
                0x00001b73       0x30 /home/leon/riotboard/arm-2012.09/bin/../arm-none-eabi/lib//libc.a(lib_a-isattyr.o)
 .ARM.attributes
                0x00001ba3       0x18 /home/leon/riotboard/arm-2012.09/bin/../lib/gcc/arm-none-eabi/4.7.2//libgcc.a(_udivsi3.o)
 .ARM.attributes
                0x00001bbb       0x18 /home/leon/riotboard/arm-2012.09/bin/../lib/gcc/arm-none-eabi/4.7.2//libgcc.a(_divsi3.o)
 .ARM.attributes
                0x00001bd3       0x18 /home/leon/riotboard/arm-2012.09/bin/../lib/gcc/arm-none-eabi/4.7.2//libgcc.a(_dvmd_tls.o)
 .ARM.attributes
                0x00001beb       0x18 /home/leon/riotboard/arm-2012.09/bin/../lib/gcc/arm-none-eabi/4.7.2//libgcc.a(_arm_addsubdf3.o)
 .ARM.attributes
                0x00001c03       0x18 /home/leon/riotboard/arm-2012.09/bin/../lib/gcc/arm-none-eabi/4.7.2//libgcc.a(_arm_muldivdf3.o)
 .ARM.attributes
                0x00001c1b       0x18 /home/leon/riotboard/arm-2012.09/bin/../lib/gcc/arm-none-eabi/4.7.2//libgcc.a(_arm_cmpdf2.o)
 .ARM.attributes
                0x00001c33       0x18 /home/leon/riotboard/arm-2012.09/bin/../lib/gcc/arm-none-eabi/4.7.2//libgcc.a(_arm_fixdfsi.o)
 .ARM.attributes
                0x00001c4b       0x18 /home/leon/riotboard/arm-2012.09/bin/../lib/gcc/arm-none-eabi/4.7.2//libgcc.a(_aeabi_uldivmod.o)
 .ARM.attributes
                0x00001c63       0x30 /home/leon/riotboard/arm-2012.09/bin/../lib/gcc/arm-none-eabi/4.7.2//libgcc.a(bpabi.o)
 .ARM.attributes
                0x00001c93       0x30 /home/leon/riotboard/arm-2012.09/bin/../lib/gcc/arm-none-eabi/4.7.2//libgcc.a(_divdi3.o)
 .ARM.attributes
                0x00001cc3       0x30 /home/leon/riotboard/arm-2012.09/bin/../lib/gcc/arm-none-eabi/4.7.2//libgcc.a(_udivdi3.o)
 .ARM.attributes
                0x00001cf3       0x18 /home/leon/riotboard/arm-2012.09/bin/../lib/gcc/arm-none-eabi/4.7.2//libgcc.a(_clzsi2.o)
 .ARM.attributes
                0x00001d0b       0x39 /home/leon/git/swp-report/iMX6_Platform_SDK/output/mx6sl/lib/libsdk.a(runtime_support.o)
 .ARM.attributes
                0x00001d44       0x39 /home/leon/git/swp-report/iMX6_Platform_SDK/output/mx6sl/lib/libsdk.a(gpio.o)
 .ARM.attributes
                0x00001d7d       0x39 /home/leon/git/swp-report/iMX6_Platform_SDK/output/mx6sl/lib/libsdk.a(imx6sl_gpio_map.o)

.comment        0x00000000       0x30
 .comment       0x00000000       0x30 /home/leon/git/swp-report/iMX6_Platform_SDK/output/mx6sl/ping/evk_rev_a/obj/apps/common/ivt.o
                                 0x31 (size before relaxing)
 .comment       0x00000000       0x31 /home/leon/git/swp-report/iMX6_Platform_SDK/output/mx6sl/ping/evk_rev_a/obj/apps/common/platform_init.o
 .comment       0x00000000       0x31 /home/leon/git/swp-report/iMX6_Platform_SDK/output/mx6sl/ping/evk_rev_a/obj/apps/ping/src/ping.o
 .comment       0x00000000       0x31 /home/leon/git/swp-report/iMX6_Platform_SDK/output/mx6sl/ping/evk_rev_a/obj/apps/ping/src/ping_main.o
 .comment       0x00000000       0x31 /home/leon/git/swp-report/iMX6_Platform_SDK/output/mx6sl/lib/libsdk.a(ccm_pll.o)
 .comment       0x00000000       0x31 /home/leon/git/swp-report/iMX6_Platform_SDK/output/mx6sl/lib/libsdk.a(gic.o)
 .comment       0x00000000       0x31 /home/leon/git/swp-report/iMX6_Platform_SDK/output/mx6sl/lib/libsdk.a(mmu.o)
 .comment       0x00000000       0x31 /home/leon/git/swp-report/iMX6_Platform_SDK/output/mx6sl/lib/libsdk.a(system_util.o)
 .comment       0x00000000       0x31 /home/leon/git/swp-report/iMX6_Platform_SDK/output/mx6sl/lib/libsdk.a(text_color.o)
 .comment       0x00000000       0x31 /home/leon/git/swp-report/iMX6_Platform_SDK/output/mx6sl/lib/libsdk.a(fec_drv.o)
 .comment       0x00000000       0x31 /home/leon/git/swp-report/iMX6_Platform_SDK/output/mx6sl/lib/libsdk.a(timer.o)
 .comment       0x00000000       0x31 /home/leon/git/swp-report/iMX6_Platform_SDK/output/mx6sl/lib/libsdk.a(imx_uart.o)
 .comment       0x00000000       0x31 /home/leon/git/swp-report/iMX6_Platform_SDK/output/mx6sl/lib/libsdk.a(interrupt.o)
 .comment       0x00000000       0x31 /home/leon/git/swp-report/iMX6_Platform_SDK/output/mx6sl/lib/libsdk.a(epit.o)
 .comment       0x00000000       0x31 /home/leon/git/swp-report/iMX6_Platform_SDK/output/mx6sl/lib/libsdk.a(abort_handler.o)
 .comment       0x00000000       0x31 /home/leon/git/swp-report/iMX6_Platform_SDK/output/mx6sl/lib/libboard_evk_rev_a.a(board_io_expanders.o)
 .comment       0x00000000       0x31 /home/leon/git/swp-report/iMX6_Platform_SDK/output/mx6sl/lib/libboard_evk_rev_a.a(dcd.o)
 .comment       0x00000000       0x31 /home/leon/git/swp-report/iMX6_Platform_SDK/output/mx6sl/lib/libboard_evk_rev_a.a(hardware_modules.o)
 .comment       0x00000000       0x31 /home/leon/git/swp-report/iMX6_Platform_SDK/output/mx6sl/lib/libboard_evk_rev_a.a(uart_iomux_config.o)
 .comment       0x00000000       0x31 /home/leon/git/swp-report/iMX6_Platform_SDK/output/mx6sl/lib/libboard_evk_rev_a.a(iomux_config.o)
 .comment       0x00000000       0x31 /home/leon/git/swp-report/iMX6_Platform_SDK/output/mx6sl/lib/libboard_evk_rev_a.a(kpp_iomux_config.o)
 .comment       0x00000000       0x31 /home/leon/git/swp-report/iMX6_Platform_SDK/output/mx6sl/lib/libboard_evk_rev_a.a(lcd_iomux_config.o)
 .comment       0x00000000       0x31 /home/leon/git/swp-report/iMX6_Platform_SDK/output/mx6sl/lib/libboard_evk_rev_a.a(mmdc_iomux_config.o)
 .comment       0x00000000       0x31 /home/leon/git/swp-report/iMX6_Platform_SDK/output/mx6sl/lib/libboard_evk_rev_a.a(pwm1_iomux_config.o)
 .comment       0x00000000       0x31 /home/leon/git/swp-report/iMX6_Platform_SDK/output/mx6sl/lib/libboard_evk_rev_a.a(sjc_iomux_config.o)
 .comment       0x00000000       0x31 /home/leon/git/swp-report/iMX6_Platform_SDK/output/mx6sl/lib/libboard_evk_rev_a.a(spdc_iomux_config.o)
 .comment       0x00000000       0x31 /home/leon/git/swp-report/iMX6_Platform_SDK/output/mx6sl/lib/libboard_evk_rev_a.a(uart1_iomux_config.o)
 .comment       0x00000000       0x31 /home/leon/git/swp-report/iMX6_Platform_SDK/output/mx6sl/lib/libboard_evk_rev_a.a(usb_iomux_config.o)
 .comment       0x00000000       0x31 /home/leon/git/swp-report/iMX6_Platform_SDK/output/mx6sl/lib/libboard_evk_rev_a.a(usdhc1_iomux_config.o)
 .comment       0x00000000       0x31 /home/leon/git/swp-report/iMX6_Platform_SDK/output/mx6sl/lib/libboard_evk_rev_a.a(usdhc2_iomux_config.o)
 .comment       0x00000000       0x31 /home/leon/git/swp-report/iMX6_Platform_SDK/output/mx6sl/lib/libboard_evk_rev_a.a(usdhc3_iomux_config.o)
 .comment       0x00000000       0x31 /home/leon/git/swp-report/iMX6_Platform_SDK/output/mx6sl/lib/libboard_evk_rev_a.a(wdog1_iomux_config.o)
 .comment       0x00000000       0x31 /home/leon/git/swp-report/iMX6_Platform_SDK/output/mx6sl/lib/libboard_evk_rev_a.a(audmux_iomux_config.o)
 .comment       0x00000000       0x31 /home/leon/git/swp-report/iMX6_Platform_SDK/output/mx6sl/lib/libboard_evk_rev_a.a(csi_iomux_config.o)
 .comment       0x00000000       0x31 /home/leon/git/swp-report/iMX6_Platform_SDK/output/mx6sl/lib/libboard_evk_rev_a.a(ecspi1_iomux_config.o)
 .comment       0x00000000       0x31 /home/leon/git/swp-report/iMX6_Platform_SDK/output/mx6sl/lib/libboard_evk_rev_a.a(ecspi2_iomux_config.o)
 .comment       0x00000000       0x31 /home/leon/git/swp-report/iMX6_Platform_SDK/output/mx6sl/lib/libboard_evk_rev_a.a(epdc_iomux_config.o)
 .comment       0x00000000       0x31 /home/leon/git/swp-report/iMX6_Platform_SDK/output/mx6sl/lib/libboard_evk_rev_a.a(fec_iomux_config.o)
 .comment       0x00000000       0x31 /home/leon/git/swp-report/iMX6_Platform_SDK/output/mx6sl/lib/libboard_evk_rev_a.a(gpio1_iomux_config.o)
 .comment       0x00000000       0x31 /home/leon/git/swp-report/iMX6_Platform_SDK/output/mx6sl/lib/libboard_evk_rev_a.a(gpio4_iomux_config.o)
 .comment       0x00000000       0x31 /home/leon/git/swp-report/iMX6_Platform_SDK/output/mx6sl/lib/libboard_evk_rev_a.a(i2c1_iomux_config.o)
 .comment       0x00000000       0x31 /home/leon/git/swp-report/iMX6_Platform_SDK/output/mx6sl/lib/libboard_evk_rev_a.a(i2c2_iomux_config.o)
 .comment       0x00000000       0x31 /home/leon/git/swp-report/iMX6_Platform_SDK/output/mx6sl/lib/libboard_evk_rev_a.a(i2c3_iomux_config.o)
 .comment       0x00000000       0x31 /home/leon/git/swp-report/iMX6_Platform_SDK/output/mx6sl/lib/liblwip.a(def.o)
 .comment       0x00000000       0x31 /home/leon/git/swp-report/iMX6_Platform_SDK/output/mx6sl/lib/liblwip.a(dhcp.o)
 .comment       0x00000000       0x31 /home/leon/git/swp-report/iMX6_Platform_SDK/output/mx6sl/lib/liblwip.a(dns.o)
 .comment       0x00000000       0x31 /home/leon/git/swp-report/iMX6_Platform_SDK/output/mx6sl/lib/liblwip.a(inet_chksum.o)
 .comment       0x00000000       0x31 /home/leon/git/swp-report/iMX6_Platform_SDK/output/mx6sl/lib/liblwip.a(init.o)
 .comment       0x00000000       0x31 /home/leon/git/swp-report/iMX6_Platform_SDK/output/mx6sl/lib/liblwip.a(autoip.o)
 .comment       0x00000000       0x31 /home/leon/git/swp-report/iMX6_Platform_SDK/output/mx6sl/lib/liblwip.a(igmp.o)
 .comment       0x00000000       0x31 /home/leon/git/swp-report/iMX6_Platform_SDK/output/mx6sl/lib/liblwip.a(ip4.o)
 .comment       0x00000000       0x31 /home/leon/git/swp-report/iMX6_Platform_SDK/output/mx6sl/lib/liblwip.a(ip4_addr.o)
 .comment       0x00000000       0x31 /home/leon/git/swp-report/iMX6_Platform_SDK/output/mx6sl/lib/liblwip.a(memp.o)
 .comment       0x00000000       0x31 /home/leon/git/swp-report/iMX6_Platform_SDK/output/mx6sl/lib/liblwip.a(netif.o)
 .comment       0x00000000       0x31 /home/leon/git/swp-report/iMX6_Platform_SDK/output/mx6sl/lib/liblwip.a(pbuf.o)
 .comment       0x00000000       0x31 /home/leon/git/swp-report/iMX6_Platform_SDK/output/mx6sl/lib/liblwip.a(raw.o)
 .comment       0x00000000       0x31 /home/leon/git/swp-report/iMX6_Platform_SDK/output/mx6sl/lib/liblwip.a(mib2.o)
 .comment       0x00000000       0x31 /home/leon/git/swp-report/iMX6_Platform_SDK/output/mx6sl/lib/liblwip.a(mib_structs.o)
 .comment       0x00000000       0x31 /home/leon/git/swp-report/iMX6_Platform_SDK/output/mx6sl/lib/liblwip.a(msg_in.o)
 .comment       0x00000000       0x31 /home/leon/git/swp-report/iMX6_Platform_SDK/output/mx6sl/lib/liblwip.a(msg_out.o)
 .comment       0x00000000       0x31 /home/leon/git/swp-report/iMX6_Platform_SDK/output/mx6sl/lib/liblwip.a(stats.o)
 .comment       0x00000000       0x31 /home/leon/git/swp-report/iMX6_Platform_SDK/output/mx6sl/lib/liblwip.a(tcp_in.o)
 .comment       0x00000000       0x31 /home/leon/git/swp-report/iMX6_Platform_SDK/output/mx6sl/lib/liblwip.a(tcp.o)
 .comment       0x00000000       0x31 /home/leon/git/swp-report/iMX6_Platform_SDK/output/mx6sl/lib/liblwip.a(tcp_out.o)
 .comment       0x00000000       0x31 /home/leon/git/swp-report/iMX6_Platform_SDK/output/mx6sl/lib/liblwip.a(timers.o)
 .comment       0x00000000       0x31 /home/leon/git/swp-report/iMX6_Platform_SDK/output/mx6sl/lib/liblwip.a(udp.o)
 .comment       0x00000000       0x31 /home/leon/git/swp-report/iMX6_Platform_SDK/output/mx6sl/lib/liblwip.a(etharp.o)
 .comment       0x00000000       0x31 /home/leon/git/swp-report/iMX6_Platform_SDK/output/mx6sl/lib/liblwip.a(mx6_ethernetif.o)
 .comment       0x00000000       0x31 /home/leon/git/swp-report/iMX6_Platform_SDK/output/mx6sl/lib/liblwip.a(mx6_lwip.o)
 .comment       0x00000000       0x31 /home/leon/git/swp-report/iMX6_Platform_SDK/output/mx6sl/lib/liblwip.a(sys_arch.o)
 .comment       0x00000000       0x31 /home/leon/git/swp-report/iMX6_Platform_SDK/output/mx6sl/lib/liblwip.a(icmp.o)
 .comment       0x00000000       0x31 /home/leon/git/swp-report/iMX6_Platform_SDK/output/mx6sl/lib/liblwip.a(asn1_dec.o)
 .comment       0x00000000       0x31 /home/leon/git/swp-report/iMX6_Platform_SDK/output/mx6sl/lib/liblwip.a(asn1_enc.o)
 .comment       0x00000000       0x31 /home/leon/git/swp-report/iMX6_Platform_SDK/output/mx6sl/lib/libsdk.a(runtime_support.o)
 .comment       0x00000000       0x31 /home/leon/git/swp-report/iMX6_Platform_SDK/output/mx6sl/lib/libsdk.a(gpio.o)
 .comment       0x00000000       0x31 /home/leon/git/swp-report/iMX6_Platform_SDK/output/mx6sl/lib/libsdk.a(imx6sl_gpio_map.o)

.debug_info     0x00000000    0x418b3
 .debug_info    0x00000000      0x228 /home/leon/git/swp-report/iMX6_Platform_SDK/output/mx6sl/ping/evk_rev_a/obj/apps/common/ivt.o
 .debug_info    0x00000228      0x135 /home/leon/git/swp-report/iMX6_Platform_SDK/output/mx6sl/ping/evk_rev_a/obj/apps/common/platform_init.o
 .debug_info    0x0000035d      0x8e3 /home/leon/git/swp-report/iMX6_Platform_SDK/output/mx6sl/ping/evk_rev_a/obj/apps/ping/src/ping.o
 .debug_info    0x00000c40     0x2442 /home/leon/git/swp-report/iMX6_Platform_SDK/output/mx6sl/ping/evk_rev_a/obj/apps/ping/src/ping_main.o
 .debug_info    0x00003082     0x16b2 /home/leon/git/swp-report/iMX6_Platform_SDK/output/mx6sl/lib/libsdk.a(ccm_pll.o)
 .debug_info    0x00004734      0x7f4 /home/leon/git/swp-report/iMX6_Platform_SDK/output/mx6sl/lib/libsdk.a(gic.o)
 .debug_info    0x00004f28      0x3e7 /home/leon/git/swp-report/iMX6_Platform_SDK/output/mx6sl/lib/libsdk.a(mmu.o)
 .debug_info    0x0000530f     0x1536 /home/leon/git/swp-report/iMX6_Platform_SDK/output/mx6sl/lib/libsdk.a(system_util.o)
 .debug_info    0x00006845      0x298 /home/leon/git/swp-report/iMX6_Platform_SDK/output/mx6sl/lib/libsdk.a(text_color.o)
 .debug_info    0x00006add     0x174d /home/leon/git/swp-report/iMX6_Platform_SDK/output/mx6sl/lib/libsdk.a(fec_drv.o)
 .debug_info    0x0000822a      0x319 /home/leon/git/swp-report/iMX6_Platform_SDK/output/mx6sl/lib/libsdk.a(timer.o)
 .debug_info    0x00008543     0x11b6 /home/leon/git/swp-report/iMX6_Platform_SDK/output/mx6sl/lib/libsdk.a(imx_uart.o)
 .debug_info    0x000096f9      0x63b /home/leon/git/swp-report/iMX6_Platform_SDK/output/mx6sl/lib/libsdk.a(interrupt.o)
 .debug_info    0x00009d34      0x9b7 /home/leon/git/swp-report/iMX6_Platform_SDK/output/mx6sl/lib/libsdk.a(epit.o)
 .debug_info    0x0000a6eb      0x234 /home/leon/git/swp-report/iMX6_Platform_SDK/output/mx6sl/lib/libsdk.a(abort_handler.o)
 .debug_info    0x0000a91f       0x97 /home/leon/git/swp-report/iMX6_Platform_SDK/output/mx6sl/lib/libboard_evk_rev_a.a(board_io_expanders.o)
 .debug_info    0x0000a9b6       0xeb /home/leon/git/swp-report/iMX6_Platform_SDK/output/mx6sl/lib/libboard_evk_rev_a.a(dcd.o)
 .debug_info    0x0000aaa1       0xa1 /home/leon/git/swp-report/iMX6_Platform_SDK/output/mx6sl/lib/libboard_evk_rev_a.a(hardware_modules.o)
 .debug_info    0x0000ab42       0xcf /home/leon/git/swp-report/iMX6_Platform_SDK/output/mx6sl/lib/libboard_evk_rev_a.a(uart_iomux_config.o)
 .debug_info    0x0000ac11      0x274 /home/leon/git/swp-report/iMX6_Platform_SDK/output/mx6sl/lib/libboard_evk_rev_a.a(iomux_config.o)
 .debug_info    0x0000ae85     0x111f /home/leon/git/swp-report/iMX6_Platform_SDK/output/mx6sl/lib/libboard_evk_rev_a.a(kpp_iomux_config.o)
 .debug_info    0x0000bfa4     0x3dc3 /home/leon/git/swp-report/iMX6_Platform_SDK/output/mx6sl/lib/libboard_evk_rev_a.a(lcd_iomux_config.o)
 .debug_info    0x0000fd67     0x2f6f /home/leon/git/swp-report/iMX6_Platform_SDK/output/mx6sl/lib/libboard_evk_rev_a.a(mmdc_iomux_config.o)
 .debug_info    0x00012cd6      0x22d /home/leon/git/swp-report/iMX6_Platform_SDK/output/mx6sl/lib/libboard_evk_rev_a.a(pwm1_iomux_config.o)
 .debug_info    0x00012f03      0x743 /home/leon/git/swp-report/iMX6_Platform_SDK/output/mx6sl/lib/libboard_evk_rev_a.a(sjc_iomux_config.o)
 .debug_info    0x00013646     0x1aff /home/leon/git/swp-report/iMX6_Platform_SDK/output/mx6sl/lib/libboard_evk_rev_a.a(spdc_iomux_config.o)
 .debug_info    0x00015145      0x469 /home/leon/git/swp-report/iMX6_Platform_SDK/output/mx6sl/lib/libboard_evk_rev_a.a(uart1_iomux_config.o)
 .debug_info    0x000155ae      0x807 /home/leon/git/swp-report/iMX6_Platform_SDK/output/mx6sl/lib/libboard_evk_rev_a.a(usb_iomux_config.o)
 .debug_info    0x00015db5     0x169b /home/leon/git/swp-report/iMX6_Platform_SDK/output/mx6sl/lib/libboard_evk_rev_a.a(usdhc1_iomux_config.o)
 .debug_info    0x00017450     0x1179 /home/leon/git/swp-report/iMX6_Platform_SDK/output/mx6sl/lib/libboard_evk_rev_a.a(usdhc2_iomux_config.o)
 .debug_info    0x000185c9      0xd6f /home/leon/git/swp-report/iMX6_Platform_SDK/output/mx6sl/lib/libboard_evk_rev_a.a(usdhc3_iomux_config.o)
 .debug_info    0x00019338      0x22d /home/leon/git/swp-report/iMX6_Platform_SDK/output/mx6sl/lib/libboard_evk_rev_a.a(wdog1_iomux_config.o)
 .debug_info    0x00019565      0xc05 /home/leon/git/swp-report/iMX6_Platform_SDK/output/mx6sl/lib/libboard_evk_rev_a.a(audmux_iomux_config.o)
 .debug_info    0x0001a16a     0x2095 /home/leon/git/swp-report/iMX6_Platform_SDK/output/mx6sl/lib/libboard_evk_rev_a.a(csi_iomux_config.o)
 .debug_info    0x0001c1ff      0x8bf /home/leon/git/swp-report/iMX6_Platform_SDK/output/mx6sl/lib/libboard_evk_rev_a.a(ecspi1_iomux_config.o)
 .debug_info    0x0001cabe      0x8bf /home/leon/git/swp-report/iMX6_Platform_SDK/output/mx6sl/lib/libboard_evk_rev_a.a(ecspi2_iomux_config.o)
 .debug_info    0x0001d37d     0x43cb /home/leon/git/swp-report/iMX6_Platform_SDK/output/mx6sl/lib/libboard_evk_rev_a.a(epdc_iomux_config.o)
 .debug_info    0x00021748     0x1465 /home/leon/git/swp-report/iMX6_Platform_SDK/output/mx6sl/lib/libboard_evk_rev_a.a(fec_iomux_config.o)
 .debug_info    0x00022bad       0x54 /home/leon/git/swp-report/iMX6_Platform_SDK/output/mx6sl/lib/libboard_evk_rev_a.a(gpio1_iomux_config.o)
 .debug_info    0x00022c01       0x54 /home/leon/git/swp-report/iMX6_Platform_SDK/output/mx6sl/lib/libboard_evk_rev_a.a(gpio4_iomux_config.o)
 .debug_info    0x00022c55      0x48f /home/leon/git/swp-report/iMX6_Platform_SDK/output/mx6sl/lib/libboard_evk_rev_a.a(i2c1_iomux_config.o)
 .debug_info    0x000230e4      0x48f /home/leon/git/swp-report/iMX6_Platform_SDK/output/mx6sl/lib/libboard_evk_rev_a.a(i2c2_iomux_config.o)
 .debug_info    0x00023573      0x48f /home/leon/git/swp-report/iMX6_Platform_SDK/output/mx6sl/lib/libboard_evk_rev_a.a(i2c3_iomux_config.o)
 .debug_info    0x00023a02      0x14e /home/leon/git/swp-report/iMX6_Platform_SDK/output/mx6sl/lib/liblwip.a(def.o)
 .debug_info    0x00023b50     0x151a /home/leon/git/swp-report/iMX6_Platform_SDK/output/mx6sl/lib/liblwip.a(dhcp.o)
 .debug_info    0x0002506a      0xa8c /home/leon/git/swp-report/iMX6_Platform_SDK/output/mx6sl/lib/liblwip.a(dns.o)
 .debug_info    0x00025af6      0x4cb /home/leon/git/swp-report/iMX6_Platform_SDK/output/mx6sl/lib/liblwip.a(inet_chksum.o)
 .debug_info    0x00025fc1       0x91 /home/leon/git/swp-report/iMX6_Platform_SDK/output/mx6sl/lib/liblwip.a(init.o)
 .debug_info    0x00026052      0x912 /home/leon/git/swp-report/iMX6_Platform_SDK/output/mx6sl/lib/liblwip.a(autoip.o)
 .debug_info    0x00026964      0xfe9 /home/leon/git/swp-report/iMX6_Platform_SDK/output/mx6sl/lib/liblwip.a(igmp.o)
 .debug_info    0x0002794d     0x1192 /home/leon/git/swp-report/iMX6_Platform_SDK/output/mx6sl/lib/liblwip.a(ip4.o)
 .debug_info    0x00028adf      0x749 /home/leon/git/swp-report/iMX6_Platform_SDK/output/mx6sl/lib/liblwip.a(ip4_addr.o)
 .debug_info    0x00029228      0x112 /home/leon/git/swp-report/iMX6_Platform_SDK/output/mx6sl/lib/liblwip.a(memp.o)
 .debug_info    0x0002933a     0x180e /home/leon/git/swp-report/iMX6_Platform_SDK/output/mx6sl/lib/liblwip.a(netif.o)
 .debug_info    0x0002ab48      0xf47 /home/leon/git/swp-report/iMX6_Platform_SDK/output/mx6sl/lib/liblwip.a(pbuf.o)
 .debug_info    0x0002ba8f      0xa1e /home/leon/git/swp-report/iMX6_Platform_SDK/output/mx6sl/lib/liblwip.a(raw.o)
 .debug_info    0x0002c4ad     0x4596 /home/leon/git/swp-report/iMX6_Platform_SDK/output/mx6sl/lib/liblwip.a(mib2.o)
 .debug_info    0x00030a43     0x136e /home/leon/git/swp-report/iMX6_Platform_SDK/output/mx6sl/lib/liblwip.a(mib_structs.o)
 .debug_info    0x00031db1     0x15cc /home/leon/git/swp-report/iMX6_Platform_SDK/output/mx6sl/lib/liblwip.a(msg_in.o)
 .debug_info    0x0003337d     0x134e /home/leon/git/swp-report/iMX6_Platform_SDK/output/mx6sl/lib/liblwip.a(msg_out.o)
 .debug_info    0x000346cb      0x5f1 /home/leon/git/swp-report/iMX6_Platform_SDK/output/mx6sl/lib/liblwip.a(stats.o)
 .debug_info    0x00034cbc     0x1436 /home/leon/git/swp-report/iMX6_Platform_SDK/output/mx6sl/lib/liblwip.a(tcp_in.o)
 .debug_info    0x000360f2     0x1b60 /home/leon/git/swp-report/iMX6_Platform_SDK/output/mx6sl/lib/liblwip.a(tcp.o)
 .debug_info    0x00037c52     0x168d /home/leon/git/swp-report/iMX6_Platform_SDK/output/mx6sl/lib/liblwip.a(tcp_out.o)
 .debug_info    0x000392df      0xaf4 /home/leon/git/swp-report/iMX6_Platform_SDK/output/mx6sl/lib/liblwip.a(timers.o)
 .debug_info    0x00039dd3     0x1299 /home/leon/git/swp-report/iMX6_Platform_SDK/output/mx6sl/lib/liblwip.a(udp.o)
 .debug_info    0x0003b06c     0x1705 /home/leon/git/swp-report/iMX6_Platform_SDK/output/mx6sl/lib/liblwip.a(etharp.o)
 .debug_info    0x0003c771     0x1e65 /home/leon/git/swp-report/iMX6_Platform_SDK/output/mx6sl/lib/liblwip.a(mx6_ethernetif.o)
 .debug_info    0x0003e5d6      0xa7e /home/leon/git/swp-report/iMX6_Platform_SDK/output/mx6sl/lib/liblwip.a(mx6_lwip.o)
 .debug_info    0x0003f054       0xb2 /home/leon/git/swp-report/iMX6_Platform_SDK/output/mx6sl/lib/liblwip.a(sys_arch.o)
 .debug_info    0x0003f106      0xb64 /home/leon/git/swp-report/iMX6_Platform_SDK/output/mx6sl/lib/liblwip.a(icmp.o)
 .debug_info    0x0003fc6a      0x553 /home/leon/git/swp-report/iMX6_Platform_SDK/output/mx6sl/lib/liblwip.a(asn1_dec.o)
 .debug_info    0x000401bd      0x5e2 /home/leon/git/swp-report/iMX6_Platform_SDK/output/mx6sl/lib/liblwip.a(asn1_enc.o)
 .debug_info    0x0004079f      0x804 /home/leon/git/swp-report/iMX6_Platform_SDK/output/mx6sl/lib/libsdk.a(runtime_support.o)
 .debug_info    0x00040fa3      0x871 /home/leon/git/swp-report/iMX6_Platform_SDK/output/mx6sl/lib/libsdk.a(gpio.o)
 .debug_info    0x00041814       0x9f /home/leon/git/swp-report/iMX6_Platform_SDK/output/mx6sl/lib/libsdk.a(imx6sl_gpio_map.o)

.debug_abbrev   0x00000000     0x6a03
 .debug_abbrev  0x00000000       0xe6 /home/leon/git/swp-report/iMX6_Platform_SDK/output/mx6sl/ping/evk_rev_a/obj/apps/common/ivt.o
 .debug_abbrev  0x000000e6       0x89 /home/leon/git/swp-report/iMX6_Platform_SDK/output/mx6sl/ping/evk_rev_a/obj/apps/common/platform_init.o
 .debug_abbrev  0x0000016f      0x225 /home/leon/git/swp-report/iMX6_Platform_SDK/output/mx6sl/ping/evk_rev_a/obj/apps/ping/src/ping.o
 .debug_abbrev  0x00000394      0x2e1 /home/leon/git/swp-report/iMX6_Platform_SDK/output/mx6sl/ping/evk_rev_a/obj/apps/ping/src/ping_main.o
 .debug_abbrev  0x00000675      0x199 /home/leon/git/swp-report/iMX6_Platform_SDK/output/mx6sl/lib/libsdk.a(ccm_pll.o)
 .debug_abbrev  0x0000080e      0x179 /home/leon/git/swp-report/iMX6_Platform_SDK/output/mx6sl/lib/libsdk.a(gic.o)
 .debug_abbrev  0x00000987      0x172 /home/leon/git/swp-report/iMX6_Platform_SDK/output/mx6sl/lib/libsdk.a(mmu.o)
 .debug_abbrev  0x00000af9      0x276 /home/leon/git/swp-report/iMX6_Platform_SDK/output/mx6sl/lib/libsdk.a(system_util.o)
 .debug_abbrev  0x00000d6f       0xd0 /home/leon/git/swp-report/iMX6_Platform_SDK/output/mx6sl/lib/libsdk.a(text_color.o)
 .debug_abbrev  0x00000e3f      0x2d8 /home/leon/git/swp-report/iMX6_Platform_SDK/output/mx6sl/lib/libsdk.a(fec_drv.o)
 .debug_abbrev  0x00001117      0x122 /home/leon/git/swp-report/iMX6_Platform_SDK/output/mx6sl/lib/libsdk.a(timer.o)
 .debug_abbrev  0x00001239      0x1e3 /home/leon/git/swp-report/iMX6_Platform_SDK/output/mx6sl/lib/libsdk.a(imx_uart.o)
 .debug_abbrev  0x0000141c      0x11a /home/leon/git/swp-report/iMX6_Platform_SDK/output/mx6sl/lib/libsdk.a(interrupt.o)
 .debug_abbrev  0x00001536      0x194 /home/leon/git/swp-report/iMX6_Platform_SDK/output/mx6sl/lib/libsdk.a(epit.o)
 .debug_abbrev  0x000016ca       0xc8 /home/leon/git/swp-report/iMX6_Platform_SDK/output/mx6sl/lib/libsdk.a(abort_handler.o)
 .debug_abbrev  0x00001792       0x42 /home/leon/git/swp-report/iMX6_Platform_SDK/output/mx6sl/lib/libboard_evk_rev_a.a(board_io_expanders.o)
 .debug_abbrev  0x000017d4       0x86 /home/leon/git/swp-report/iMX6_Platform_SDK/output/mx6sl/lib/libboard_evk_rev_a.a(dcd.o)
 .debug_abbrev  0x0000185a       0x44 /home/leon/git/swp-report/iMX6_Platform_SDK/output/mx6sl/lib/libboard_evk_rev_a.a(hardware_modules.o)
 .debug_abbrev  0x0000189e       0x79 /home/leon/git/swp-report/iMX6_Platform_SDK/output/mx6sl/lib/libboard_evk_rev_a.a(uart_iomux_config.o)
 .debug_abbrev  0x00001917       0x42 /home/leon/git/swp-report/iMX6_Platform_SDK/output/mx6sl/lib/libboard_evk_rev_a.a(iomux_config.o)
 .debug_abbrev  0x00001959       0xf1 /home/leon/git/swp-report/iMX6_Platform_SDK/output/mx6sl/lib/libboard_evk_rev_a.a(kpp_iomux_config.o)
 .debug_abbrev  0x00001a4a      0x106 /home/leon/git/swp-report/iMX6_Platform_SDK/output/mx6sl/lib/libboard_evk_rev_a.a(lcd_iomux_config.o)
 .debug_abbrev  0x00001b50      0x106 /home/leon/git/swp-report/iMX6_Platform_SDK/output/mx6sl/lib/libboard_evk_rev_a.a(mmdc_iomux_config.o)
 .debug_abbrev  0x00001c56       0xf1 /home/leon/git/swp-report/iMX6_Platform_SDK/output/mx6sl/lib/libboard_evk_rev_a.a(pwm1_iomux_config.o)
 .debug_abbrev  0x00001d47       0xa4 /home/leon/git/swp-report/iMX6_Platform_SDK/output/mx6sl/lib/libboard_evk_rev_a.a(sjc_iomux_config.o)
 .debug_abbrev  0x00001deb       0xa4 /home/leon/git/swp-report/iMX6_Platform_SDK/output/mx6sl/lib/libboard_evk_rev_a.a(spdc_iomux_config.o)
 .debug_abbrev  0x00001e8f       0xf1 /home/leon/git/swp-report/iMX6_Platform_SDK/output/mx6sl/lib/libboard_evk_rev_a.a(uart1_iomux_config.o)
 .debug_abbrev  0x00001f80      0x106 /home/leon/git/swp-report/iMX6_Platform_SDK/output/mx6sl/lib/libboard_evk_rev_a.a(usb_iomux_config.o)
 .debug_abbrev  0x00002086      0x106 /home/leon/git/swp-report/iMX6_Platform_SDK/output/mx6sl/lib/libboard_evk_rev_a.a(usdhc1_iomux_config.o)
 .debug_abbrev  0x0000218c       0xf1 /home/leon/git/swp-report/iMX6_Platform_SDK/output/mx6sl/lib/libboard_evk_rev_a.a(usdhc2_iomux_config.o)
 .debug_abbrev  0x0000227d       0xf1 /home/leon/git/swp-report/iMX6_Platform_SDK/output/mx6sl/lib/libboard_evk_rev_a.a(usdhc3_iomux_config.o)
 .debug_abbrev  0x0000236e       0xf1 /home/leon/git/swp-report/iMX6_Platform_SDK/output/mx6sl/lib/libboard_evk_rev_a.a(wdog1_iomux_config.o)
 .debug_abbrev  0x0000245f       0xa4 /home/leon/git/swp-report/iMX6_Platform_SDK/output/mx6sl/lib/libboard_evk_rev_a.a(audmux_iomux_config.o)
 .debug_abbrev  0x00002503       0xf1 /home/leon/git/swp-report/iMX6_Platform_SDK/output/mx6sl/lib/libboard_evk_rev_a.a(csi_iomux_config.o)
 .debug_abbrev  0x000025f4       0xf1 /home/leon/git/swp-report/iMX6_Platform_SDK/output/mx6sl/lib/libboard_evk_rev_a.a(ecspi1_iomux_config.o)
 .debug_abbrev  0x000026e5       0xf1 /home/leon/git/swp-report/iMX6_Platform_SDK/output/mx6sl/lib/libboard_evk_rev_a.a(ecspi2_iomux_config.o)
 .debug_abbrev  0x000027d6       0xf1 /home/leon/git/swp-report/iMX6_Platform_SDK/output/mx6sl/lib/libboard_evk_rev_a.a(epdc_iomux_config.o)
 .debug_abbrev  0x000028c7       0xf1 /home/leon/git/swp-report/iMX6_Platform_SDK/output/mx6sl/lib/libboard_evk_rev_a.a(fec_iomux_config.o)
 .debug_abbrev  0x000029b8       0x35 /home/leon/git/swp-report/iMX6_Platform_SDK/output/mx6sl/lib/libboard_evk_rev_a.a(gpio1_iomux_config.o)
 .debug_abbrev  0x000029ed       0x35 /home/leon/git/swp-report/iMX6_Platform_SDK/output/mx6sl/lib/libboard_evk_rev_a.a(gpio4_iomux_config.o)
 .debug_abbrev  0x00002a22       0xf1 /home/leon/git/swp-report/iMX6_Platform_SDK/output/mx6sl/lib/libboard_evk_rev_a.a(i2c1_iomux_config.o)
 .debug_abbrev  0x00002b13       0xf1 /home/leon/git/swp-report/iMX6_Platform_SDK/output/mx6sl/lib/libboard_evk_rev_a.a(i2c2_iomux_config.o)
 .debug_abbrev  0x00002c04       0xf1 /home/leon/git/swp-report/iMX6_Platform_SDK/output/mx6sl/lib/libboard_evk_rev_a.a(i2c3_iomux_config.o)
 .debug_abbrev  0x00002cf5       0x98 /home/leon/git/swp-report/iMX6_Platform_SDK/output/mx6sl/lib/liblwip.a(def.o)
 .debug_abbrev  0x00002d8d      0x23c /home/leon/git/swp-report/iMX6_Platform_SDK/output/mx6sl/lib/liblwip.a(dhcp.o)
 .debug_abbrev  0x00002fc9      0x21e /home/leon/git/swp-report/iMX6_Platform_SDK/output/mx6sl/lib/liblwip.a(dns.o)
 .debug_abbrev  0x000031e7      0x149 /home/leon/git/swp-report/iMX6_Platform_SDK/output/mx6sl/lib/liblwip.a(inet_chksum.o)
 .debug_abbrev  0x00003330       0x42 /home/leon/git/swp-report/iMX6_Platform_SDK/output/mx6sl/lib/liblwip.a(init.o)
 .debug_abbrev  0x00003372      0x1d0 /home/leon/git/swp-report/iMX6_Platform_SDK/output/mx6sl/lib/liblwip.a(autoip.o)
 .debug_abbrev  0x00003542      0x23a /home/leon/git/swp-report/iMX6_Platform_SDK/output/mx6sl/lib/liblwip.a(igmp.o)
 .debug_abbrev  0x0000377c      0x1de /home/leon/git/swp-report/iMX6_Platform_SDK/output/mx6sl/lib/liblwip.a(ip4.o)
 .debug_abbrev  0x0000395a      0x1b9 /home/leon/git/swp-report/iMX6_Platform_SDK/output/mx6sl/lib/liblwip.a(ip4_addr.o)
 .debug_abbrev  0x00003b13       0x73 /home/leon/git/swp-report/iMX6_Platform_SDK/output/mx6sl/lib/liblwip.a(memp.o)
 .debug_abbrev  0x00003b86      0x28b /home/leon/git/swp-report/iMX6_Platform_SDK/output/mx6sl/lib/liblwip.a(netif.o)
 .debug_abbrev  0x00003e11      0x263 /home/leon/git/swp-report/iMX6_Platform_SDK/output/mx6sl/lib/liblwip.a(pbuf.o)
 .debug_abbrev  0x00004074      0x201 /home/leon/git/swp-report/iMX6_Platform_SDK/output/mx6sl/lib/liblwip.a(raw.o)
 .debug_abbrev  0x00004275      0x2a0 /home/leon/git/swp-report/iMX6_Platform_SDK/output/mx6sl/lib/liblwip.a(mib2.o)
 .debug_abbrev  0x00004515      0x286 /home/leon/git/swp-report/iMX6_Platform_SDK/output/mx6sl/lib/liblwip.a(mib_structs.o)
 .debug_abbrev  0x0000479b      0x29d /home/leon/git/swp-report/iMX6_Platform_SDK/output/mx6sl/lib/liblwip.a(msg_in.o)
 .debug_abbrev  0x00004a38      0x242 /home/leon/git/swp-report/iMX6_Platform_SDK/output/mx6sl/lib/liblwip.a(msg_out.o)
 .debug_abbrev  0x00004c7a      0x12c /home/leon/git/swp-report/iMX6_Platform_SDK/output/mx6sl/lib/liblwip.a(stats.o)
 .debug_abbrev  0x00004da6      0x237 /home/leon/git/swp-report/iMX6_Platform_SDK/output/mx6sl/lib/liblwip.a(tcp_in.o)
 .debug_abbrev  0x00004fdd      0x2f2 /home/leon/git/swp-report/iMX6_Platform_SDK/output/mx6sl/lib/liblwip.a(tcp.o)
 .debug_abbrev  0x000052cf      0x280 /home/leon/git/swp-report/iMX6_Platform_SDK/output/mx6sl/lib/liblwip.a(tcp_out.o)
 .debug_abbrev  0x0000554f      0x1e8 /home/leon/git/swp-report/iMX6_Platform_SDK/output/mx6sl/lib/liblwip.a(timers.o)
 .debug_abbrev  0x00005737      0x265 /home/leon/git/swp-report/iMX6_Platform_SDK/output/mx6sl/lib/liblwip.a(udp.o)
 .debug_abbrev  0x0000599c      0x24b /home/leon/git/swp-report/iMX6_Platform_SDK/output/mx6sl/lib/liblwip.a(etharp.o)
 .debug_abbrev  0x00005be7      0x351 /home/leon/git/swp-report/iMX6_Platform_SDK/output/mx6sl/lib/liblwip.a(mx6_ethernetif.o)
 .debug_abbrev  0x00005f38      0x18a /home/leon/git/swp-report/iMX6_Platform_SDK/output/mx6sl/lib/liblwip.a(mx6_lwip.o)
 .debug_abbrev  0x000060c2       0x51 /home/leon/git/swp-report/iMX6_Platform_SDK/output/mx6sl/lib/liblwip.a(sys_arch.o)
 .debug_abbrev  0x00006113      0x1e4 /home/leon/git/swp-report/iMX6_Platform_SDK/output/mx6sl/lib/liblwip.a(icmp.o)
 .debug_abbrev  0x000062f7      0x155 /home/leon/git/swp-report/iMX6_Platform_SDK/output/mx6sl/lib/liblwip.a(asn1_dec.o)
 .debug_abbrev  0x0000644c      0x152 /home/leon/git/swp-report/iMX6_Platform_SDK/output/mx6sl/lib/liblwip.a(asn1_enc.o)
 .debug_abbrev  0x0000659e      0x1e2 /home/leon/git/swp-report/iMX6_Platform_SDK/output/mx6sl/lib/libsdk.a(runtime_support.o)
 .debug_abbrev  0x00006780      0x228 /home/leon/git/swp-report/iMX6_Platform_SDK/output/mx6sl/lib/libsdk.a(gpio.o)
 .debug_abbrev  0x000069a8       0x5b /home/leon/git/swp-report/iMX6_Platform_SDK/output/mx6sl/lib/libsdk.a(imx6sl_gpio_map.o)

.debug_aranges  0x00000000      0x958
 .debug_aranges
                0x00000000       0x18 /home/leon/git/swp-report/iMX6_Platform_SDK/output/mx6sl/ping/evk_rev_a/obj/apps/common/ivt.o
 .debug_aranges
                0x00000018       0x20 /home/leon/git/swp-report/iMX6_Platform_SDK/output/mx6sl/ping/evk_rev_a/obj/apps/common/platform_init.o
 .debug_aranges
                0x00000038       0x20 /home/leon/git/swp-report/iMX6_Platform_SDK/output/mx6sl/ping/evk_rev_a/obj/apps/ping/src/ping.o
 .debug_aranges
                0x00000058       0x20 /home/leon/git/swp-report/iMX6_Platform_SDK/output/mx6sl/ping/evk_rev_a/obj/apps/ping/src/ping_main.o
 .debug_aranges
                0x00000078       0x20 /home/leon/git/swp-report/iMX6_Platform_SDK/output/mx6sl/lib/libsdk.a(ccm_pll.o)
 .debug_aranges
                0x00000098       0x20 /home/leon/git/swp-report/iMX6_Platform_SDK/output/mx6sl/lib/libsdk.a(gic.o)
 .debug_aranges
                0x000000b8       0x20 /home/leon/git/swp-report/iMX6_Platform_SDK/output/mx6sl/lib/libsdk.a(mmu.o)
 .debug_aranges
                0x000000d8       0x20 /home/leon/git/swp-report/iMX6_Platform_SDK/output/mx6sl/lib/libsdk.a(system_util.o)
 .debug_aranges
                0x000000f8       0x20 /home/leon/git/swp-report/iMX6_Platform_SDK/output/mx6sl/lib/libsdk.a(text_color.o)
 .debug_aranges
                0x00000118       0x20 /home/leon/git/swp-report/iMX6_Platform_SDK/output/mx6sl/lib/libsdk.a(fec_drv.o)
 .debug_aranges
                0x00000138       0x20 /home/leon/git/swp-report/iMX6_Platform_SDK/output/mx6sl/lib/libsdk.a(timer.o)
 .debug_aranges
                0x00000158       0x20 /home/leon/git/swp-report/iMX6_Platform_SDK/output/mx6sl/lib/libsdk.a(imx_uart.o)
 .debug_aranges
                0x00000178       0x20 /home/leon/git/swp-report/iMX6_Platform_SDK/output/mx6sl/lib/libsdk.a(interrupt.o)
 .debug_aranges
                0x00000198       0x20 /home/leon/git/swp-report/iMX6_Platform_SDK/output/mx6sl/lib/libsdk.a(epit.o)
 .debug_aranges
                0x000001b8       0x20 /home/leon/git/swp-report/iMX6_Platform_SDK/output/mx6sl/lib/libsdk.a(abort_handler.o)
 .debug_aranges
                0x000001d8       0x20 /home/leon/git/swp-report/iMX6_Platform_SDK/output/mx6sl/lib/libboard_evk_rev_a.a(board_io_expanders.o)
 .debug_aranges
                0x000001f8       0x18 /home/leon/git/swp-report/iMX6_Platform_SDK/output/mx6sl/lib/libboard_evk_rev_a.a(dcd.o)
 .debug_aranges
                0x00000210       0x18 /home/leon/git/swp-report/iMX6_Platform_SDK/output/mx6sl/lib/libboard_evk_rev_a.a(hardware_modules.o)
 .debug_aranges
                0x00000228       0x20 /home/leon/git/swp-report/iMX6_Platform_SDK/output/mx6sl/lib/libboard_evk_rev_a.a(uart_iomux_config.o)
 .debug_aranges
                0x00000248       0x20 /home/leon/git/swp-report/iMX6_Platform_SDK/output/mx6sl/lib/libboard_evk_rev_a.a(iomux_config.o)
 .debug_aranges
                0x00000268       0x20 /home/leon/git/swp-report/iMX6_Platform_SDK/output/mx6sl/lib/libboard_evk_rev_a.a(kpp_iomux_config.o)
 .debug_aranges
                0x00000288       0x20 /home/leon/git/swp-report/iMX6_Platform_SDK/output/mx6sl/lib/libboard_evk_rev_a.a(lcd_iomux_config.o)
 .debug_aranges
                0x000002a8       0x20 /home/leon/git/swp-report/iMX6_Platform_SDK/output/mx6sl/lib/libboard_evk_rev_a.a(mmdc_iomux_config.o)
 .debug_aranges
                0x000002c8       0x20 /home/leon/git/swp-report/iMX6_Platform_SDK/output/mx6sl/lib/libboard_evk_rev_a.a(pwm1_iomux_config.o)
 .debug_aranges
                0x000002e8       0x20 /home/leon/git/swp-report/iMX6_Platform_SDK/output/mx6sl/lib/libboard_evk_rev_a.a(sjc_iomux_config.o)
 .debug_aranges
                0x00000308       0x20 /home/leon/git/swp-report/iMX6_Platform_SDK/output/mx6sl/lib/libboard_evk_rev_a.a(spdc_iomux_config.o)
 .debug_aranges
                0x00000328       0x20 /home/leon/git/swp-report/iMX6_Platform_SDK/output/mx6sl/lib/libboard_evk_rev_a.a(uart1_iomux_config.o)
 .debug_aranges
                0x00000348       0x20 /home/leon/git/swp-report/iMX6_Platform_SDK/output/mx6sl/lib/libboard_evk_rev_a.a(usb_iomux_config.o)
 .debug_aranges
                0x00000368       0x20 /home/leon/git/swp-report/iMX6_Platform_SDK/output/mx6sl/lib/libboard_evk_rev_a.a(usdhc1_iomux_config.o)
 .debug_aranges
                0x00000388       0x20 /home/leon/git/swp-report/iMX6_Platform_SDK/output/mx6sl/lib/libboard_evk_rev_a.a(usdhc2_iomux_config.o)
 .debug_aranges
                0x000003a8       0x20 /home/leon/git/swp-report/iMX6_Platform_SDK/output/mx6sl/lib/libboard_evk_rev_a.a(usdhc3_iomux_config.o)
 .debug_aranges
                0x000003c8       0x20 /home/leon/git/swp-report/iMX6_Platform_SDK/output/mx6sl/lib/libboard_evk_rev_a.a(wdog1_iomux_config.o)
 .debug_aranges
                0x000003e8       0x20 /home/leon/git/swp-report/iMX6_Platform_SDK/output/mx6sl/lib/libboard_evk_rev_a.a(audmux_iomux_config.o)
 .debug_aranges
                0x00000408       0x20 /home/leon/git/swp-report/iMX6_Platform_SDK/output/mx6sl/lib/libboard_evk_rev_a.a(csi_iomux_config.o)
 .debug_aranges
                0x00000428       0x20 /home/leon/git/swp-report/iMX6_Platform_SDK/output/mx6sl/lib/libboard_evk_rev_a.a(ecspi1_iomux_config.o)
 .debug_aranges
                0x00000448       0x20 /home/leon/git/swp-report/iMX6_Platform_SDK/output/mx6sl/lib/libboard_evk_rev_a.a(ecspi2_iomux_config.o)
 .debug_aranges
                0x00000468       0x20 /home/leon/git/swp-report/iMX6_Platform_SDK/output/mx6sl/lib/libboard_evk_rev_a.a(epdc_iomux_config.o)
 .debug_aranges
                0x00000488       0x20 /home/leon/git/swp-report/iMX6_Platform_SDK/output/mx6sl/lib/libboard_evk_rev_a.a(fec_iomux_config.o)
 .debug_aranges
                0x000004a8       0x20 /home/leon/git/swp-report/iMX6_Platform_SDK/output/mx6sl/lib/libboard_evk_rev_a.a(gpio1_iomux_config.o)
 .debug_aranges
                0x000004c8       0x20 /home/leon/git/swp-report/iMX6_Platform_SDK/output/mx6sl/lib/libboard_evk_rev_a.a(gpio4_iomux_config.o)
 .debug_aranges
                0x000004e8       0x20 /home/leon/git/swp-report/iMX6_Platform_SDK/output/mx6sl/lib/libboard_evk_rev_a.a(i2c1_iomux_config.o)
 .debug_aranges
                0x00000508       0x20 /home/leon/git/swp-report/iMX6_Platform_SDK/output/mx6sl/lib/libboard_evk_rev_a.a(i2c2_iomux_config.o)
 .debug_aranges
                0x00000528       0x20 /home/leon/git/swp-report/iMX6_Platform_SDK/output/mx6sl/lib/libboard_evk_rev_a.a(i2c3_iomux_config.o)
 .debug_aranges
                0x00000548       0x20 /home/leon/git/swp-report/iMX6_Platform_SDK/output/mx6sl/lib/liblwip.a(def.o)
 .debug_aranges
                0x00000568       0x20 /home/leon/git/swp-report/iMX6_Platform_SDK/output/mx6sl/lib/liblwip.a(dhcp.o)
 .debug_aranges
                0x00000588       0x20 /home/leon/git/swp-report/iMX6_Platform_SDK/output/mx6sl/lib/liblwip.a(dns.o)
 .debug_aranges
                0x000005a8       0x20 /home/leon/git/swp-report/iMX6_Platform_SDK/output/mx6sl/lib/liblwip.a(inet_chksum.o)
 .debug_aranges
                0x000005c8       0x20 /home/leon/git/swp-report/iMX6_Platform_SDK/output/mx6sl/lib/liblwip.a(init.o)
 .debug_aranges
                0x000005e8       0x20 /home/leon/git/swp-report/iMX6_Platform_SDK/output/mx6sl/lib/liblwip.a(autoip.o)
 .debug_aranges
                0x00000608       0x20 /home/leon/git/swp-report/iMX6_Platform_SDK/output/mx6sl/lib/liblwip.a(igmp.o)
 .debug_aranges
                0x00000628       0x20 /home/leon/git/swp-report/iMX6_Platform_SDK/output/mx6sl/lib/liblwip.a(ip4.o)
 .debug_aranges
                0x00000648       0x20 /home/leon/git/swp-report/iMX6_Platform_SDK/output/mx6sl/lib/liblwip.a(ip4_addr.o)
 .debug_aranges
                0x00000668       0x18 /home/leon/git/swp-report/iMX6_Platform_SDK/output/mx6sl/lib/liblwip.a(memp.o)
 .debug_aranges
                0x00000680       0x20 /home/leon/git/swp-report/iMX6_Platform_SDK/output/mx6sl/lib/liblwip.a(netif.o)
 .debug_aranges
                0x000006a0       0x20 /home/leon/git/swp-report/iMX6_Platform_SDK/output/mx6sl/lib/liblwip.a(pbuf.o)
 .debug_aranges
                0x000006c0       0x20 /home/leon/git/swp-report/iMX6_Platform_SDK/output/mx6sl/lib/liblwip.a(raw.o)
 .debug_aranges
                0x000006e0       0x20 /home/leon/git/swp-report/iMX6_Platform_SDK/output/mx6sl/lib/liblwip.a(mib2.o)
 .debug_aranges
                0x00000700       0x20 /home/leon/git/swp-report/iMX6_Platform_SDK/output/mx6sl/lib/liblwip.a(mib_structs.o)
 .debug_aranges
                0x00000720       0x20 /home/leon/git/swp-report/iMX6_Platform_SDK/output/mx6sl/lib/liblwip.a(msg_in.o)
 .debug_aranges
                0x00000740       0x20 /home/leon/git/swp-report/iMX6_Platform_SDK/output/mx6sl/lib/liblwip.a(msg_out.o)
 .debug_aranges
                0x00000760       0x20 /home/leon/git/swp-report/iMX6_Platform_SDK/output/mx6sl/lib/liblwip.a(stats.o)
 .debug_aranges
                0x00000780       0x20 /home/leon/git/swp-report/iMX6_Platform_SDK/output/mx6sl/lib/liblwip.a(tcp_in.o)
 .debug_aranges
                0x000007a0       0x20 /home/leon/git/swp-report/iMX6_Platform_SDK/output/mx6sl/lib/liblwip.a(tcp.o)
 .debug_aranges
                0x000007c0       0x20 /home/leon/git/swp-report/iMX6_Platform_SDK/output/mx6sl/lib/liblwip.a(tcp_out.o)
 .debug_aranges
                0x000007e0       0x20 /home/leon/git/swp-report/iMX6_Platform_SDK/output/mx6sl/lib/liblwip.a(timers.o)
 .debug_aranges
                0x00000800       0x20 /home/leon/git/swp-report/iMX6_Platform_SDK/output/mx6sl/lib/liblwip.a(udp.o)
 .debug_aranges
                0x00000820       0x20 /home/leon/git/swp-report/iMX6_Platform_SDK/output/mx6sl/lib/liblwip.a(etharp.o)
 .debug_aranges
                0x00000840       0x20 /home/leon/git/swp-report/iMX6_Platform_SDK/output/mx6sl/lib/liblwip.a(mx6_ethernetif.o)
 .debug_aranges
                0x00000860       0x20 /home/leon/git/swp-report/iMX6_Platform_SDK/output/mx6sl/lib/liblwip.a(mx6_lwip.o)
 .debug_aranges
                0x00000880       0x20 /home/leon/git/swp-report/iMX6_Platform_SDK/output/mx6sl/lib/liblwip.a(sys_arch.o)
 .debug_aranges
                0x000008a0       0x20 /home/leon/git/swp-report/iMX6_Platform_SDK/output/mx6sl/lib/liblwip.a(icmp.o)
 .debug_aranges
                0x000008c0       0x20 /home/leon/git/swp-report/iMX6_Platform_SDK/output/mx6sl/lib/liblwip.a(asn1_dec.o)
 .debug_aranges
                0x000008e0       0x20 /home/leon/git/swp-report/iMX6_Platform_SDK/output/mx6sl/lib/liblwip.a(asn1_enc.o)
 .debug_aranges
                0x00000900       0x20 /home/leon/git/swp-report/iMX6_Platform_SDK/output/mx6sl/lib/libsdk.a(runtime_support.o)
 .debug_aranges
                0x00000920       0x20 /home/leon/git/swp-report/iMX6_Platform_SDK/output/mx6sl/lib/libsdk.a(gpio.o)
 .debug_aranges
                0x00000940       0x18 /home/leon/git/swp-report/iMX6_Platform_SDK/output/mx6sl/lib/libsdk.a(imx6sl_gpio_map.o)

.debug_line     0x00000000     0xe464
 .debug_line    0x00000000      0x103 /home/leon/git/swp-report/iMX6_Platform_SDK/output/mx6sl/ping/evk_rev_a/obj/apps/common/ivt.o
 .debug_line    0x00000103      0x17e /home/leon/git/swp-report/iMX6_Platform_SDK/output/mx6sl/ping/evk_rev_a/obj/apps/common/platform_init.o
 .debug_line    0x00000281      0x2c3 /home/leon/git/swp-report/iMX6_Platform_SDK/output/mx6sl/ping/evk_rev_a/obj/apps/ping/src/ping.o
 .debug_line    0x00000544      0x40c /home/leon/git/swp-report/iMX6_Platform_SDK/output/mx6sl/ping/evk_rev_a/obj/apps/ping/src/ping_main.o
 .debug_line    0x00000950      0x22c /home/leon/git/swp-report/iMX6_Platform_SDK/output/mx6sl/lib/libsdk.a(ccm_pll.o)
 .debug_line    0x00000b7c      0x165 /home/leon/git/swp-report/iMX6_Platform_SDK/output/mx6sl/lib/libsdk.a(gic.o)
 .debug_line    0x00000ce1      0x188 /home/leon/git/swp-report/iMX6_Platform_SDK/output/mx6sl/lib/libsdk.a(mmu.o)
 .debug_line    0x00000e69      0x365 /home/leon/git/swp-report/iMX6_Platform_SDK/output/mx6sl/lib/libsdk.a(system_util.o)
 .debug_line    0x000011ce       0xf0 /home/leon/git/swp-report/iMX6_Platform_SDK/output/mx6sl/lib/libsdk.a(text_color.o)
 .debug_line    0x000012be      0x310 /home/leon/git/swp-report/iMX6_Platform_SDK/output/mx6sl/lib/libsdk.a(fec_drv.o)
 .debug_line    0x000015ce      0x200 /home/leon/git/swp-report/iMX6_Platform_SDK/output/mx6sl/lib/libsdk.a(timer.o)
 .debug_line    0x000017ce     0x12ca /home/leon/git/swp-report/iMX6_Platform_SDK/output/mx6sl/lib/libsdk.a(imx_uart.o)
 .debug_line    0x00002a98      0x180 /home/leon/git/swp-report/iMX6_Platform_SDK/output/mx6sl/lib/libsdk.a(interrupt.o)
 .debug_line    0x00002c18      0x57f /home/leon/git/swp-report/iMX6_Platform_SDK/output/mx6sl/lib/libsdk.a(epit.o)
 .debug_line    0x00003197      0x24a /home/leon/git/swp-report/iMX6_Platform_SDK/output/mx6sl/lib/libsdk.a(abort_handler.o)
 .debug_line    0x000033e1       0x81 /home/leon/git/swp-report/iMX6_Platform_SDK/output/mx6sl/lib/libboard_evk_rev_a.a(board_io_expanders.o)
 .debug_line    0x00003462      0x107 /home/leon/git/swp-report/iMX6_Platform_SDK/output/mx6sl/lib/libboard_evk_rev_a.a(dcd.o)
 .debug_line    0x00003569       0xcb /home/leon/git/swp-report/iMX6_Platform_SDK/output/mx6sl/lib/libboard_evk_rev_a.a(hardware_modules.o)
 .debug_line    0x00003634       0x8e /home/leon/git/swp-report/iMX6_Platform_SDK/output/mx6sl/lib/libboard_evk_rev_a.a(uart_iomux_config.o)
 .debug_line    0x000036c2       0xcc /home/leon/git/swp-report/iMX6_Platform_SDK/output/mx6sl/lib/libboard_evk_rev_a.a(iomux_config.o)
 .debug_line    0x0000378e      0x12f /home/leon/git/swp-report/iMX6_Platform_SDK/output/mx6sl/lib/libboard_evk_rev_a.a(kpp_iomux_config.o)
 .debug_line    0x000038bd      0x1e2 /home/leon/git/swp-report/iMX6_Platform_SDK/output/mx6sl/lib/libboard_evk_rev_a.a(lcd_iomux_config.o)
 .debug_line    0x00003a9f      0x401 /home/leon/git/swp-report/iMX6_Platform_SDK/output/mx6sl/lib/libboard_evk_rev_a.a(mmdc_iomux_config.o)
 .debug_line    0x00003ea0       0xf0 /home/leon/git/swp-report/iMX6_Platform_SDK/output/mx6sl/lib/libboard_evk_rev_a.a(pwm1_iomux_config.o)
 .debug_line    0x00003f90       0xfa /home/leon/git/swp-report/iMX6_Platform_SDK/output/mx6sl/lib/libboard_evk_rev_a.a(sjc_iomux_config.o)
 .debug_line    0x0000408a      0x14a /home/leon/git/swp-report/iMX6_Platform_SDK/output/mx6sl/lib/libboard_evk_rev_a.a(spdc_iomux_config.o)
 .debug_line    0x000041d4       0xfb /home/leon/git/swp-report/iMX6_Platform_SDK/output/mx6sl/lib/libboard_evk_rev_a.a(uart1_iomux_config.o)
 .debug_line    0x000042cf      0x107 /home/leon/git/swp-report/iMX6_Platform_SDK/output/mx6sl/lib/libboard_evk_rev_a.a(usb_iomux_config.o)
 .debug_line    0x000043d6      0x138 /home/leon/git/swp-report/iMX6_Platform_SDK/output/mx6sl/lib/libboard_evk_rev_a.a(usdhc1_iomux_config.o)
 .debug_line    0x0000450e      0x126 /home/leon/git/swp-report/iMX6_Platform_SDK/output/mx6sl/lib/libboard_evk_rev_a.a(usdhc2_iomux_config.o)
 .debug_line    0x00004634      0x119 /home/leon/git/swp-report/iMX6_Platform_SDK/output/mx6sl/lib/libboard_evk_rev_a.a(usdhc3_iomux_config.o)
 .debug_line    0x0000474d       0xf1 /home/leon/git/swp-report/iMX6_Platform_SDK/output/mx6sl/lib/libboard_evk_rev_a.a(wdog1_iomux_config.o)
 .debug_line    0x0000483e      0x116 /home/leon/git/swp-report/iMX6_Platform_SDK/output/mx6sl/lib/libboard_evk_rev_a.a(audmux_iomux_config.o)
 .debug_line    0x00004954      0x170 /home/leon/git/swp-report/iMX6_Platform_SDK/output/mx6sl/lib/libboard_evk_rev_a.a(csi_iomux_config.o)
 .debug_line    0x00004ac4      0x10e /home/leon/git/swp-report/iMX6_Platform_SDK/output/mx6sl/lib/libboard_evk_rev_a.a(ecspi1_iomux_config.o)
 .debug_line    0x00004bd2      0x10e /home/leon/git/swp-report/iMX6_Platform_SDK/output/mx6sl/lib/libboard_evk_rev_a.a(ecspi2_iomux_config.o)
 .debug_line    0x00004ce0      0x1e0 /home/leon/git/swp-report/iMX6_Platform_SDK/output/mx6sl/lib/libboard_evk_rev_a.a(epdc_iomux_config.o)
 .debug_line    0x00004ec0      0x137 /home/leon/git/swp-report/iMX6_Platform_SDK/output/mx6sl/lib/libboard_evk_rev_a.a(fec_iomux_config.o)
 .debug_line    0x00004ff7       0x87 /home/leon/git/swp-report/iMX6_Platform_SDK/output/mx6sl/lib/libboard_evk_rev_a.a(gpio1_iomux_config.o)
 .debug_line    0x0000507e       0x87 /home/leon/git/swp-report/iMX6_Platform_SDK/output/mx6sl/lib/libboard_evk_rev_a.a(gpio4_iomux_config.o)
 .debug_line    0x00005105       0xfa /home/leon/git/swp-report/iMX6_Platform_SDK/output/mx6sl/lib/libboard_evk_rev_a.a(i2c1_iomux_config.o)
 .debug_line    0x000051ff       0xfa /home/leon/git/swp-report/iMX6_Platform_SDK/output/mx6sl/lib/libboard_evk_rev_a.a(i2c2_iomux_config.o)
 .debug_line    0x000052f9       0xfa /home/leon/git/swp-report/iMX6_Platform_SDK/output/mx6sl/lib/libboard_evk_rev_a.a(i2c3_iomux_config.o)
 .debug_line    0x000053f3      0x133 /home/leon/git/swp-report/iMX6_Platform_SDK/output/mx6sl/lib/liblwip.a(def.o)
 .debug_line    0x00005526      0x98b /home/leon/git/swp-report/iMX6_Platform_SDK/output/mx6sl/lib/liblwip.a(dhcp.o)
 .debug_line    0x00005eb1      0x40c /home/leon/git/swp-report/iMX6_Platform_SDK/output/mx6sl/lib/liblwip.a(dns.o)
 .debug_line    0x000062bd      0x281 /home/leon/git/swp-report/iMX6_Platform_SDK/output/mx6sl/lib/liblwip.a(inet_chksum.o)
 .debug_line    0x0000653e       0x83 /home/leon/git/swp-report/iMX6_Platform_SDK/output/mx6sl/lib/liblwip.a(init.o)
 .debug_line    0x000065c1      0x3ca /home/leon/git/swp-report/iMX6_Platform_SDK/output/mx6sl/lib/liblwip.a(autoip.o)
 .debug_line    0x0000698b      0x422 /home/leon/git/swp-report/iMX6_Platform_SDK/output/mx6sl/lib/liblwip.a(igmp.o)
 .debug_line    0x00006dad      0x3e5 /home/leon/git/swp-report/iMX6_Platform_SDK/output/mx6sl/lib/liblwip.a(ip4.o)
 .debug_line    0x00007192      0x301 /home/leon/git/swp-report/iMX6_Platform_SDK/output/mx6sl/lib/liblwip.a(ip4_addr.o)
 .debug_line    0x00007493      0x15d /home/leon/git/swp-report/iMX6_Platform_SDK/output/mx6sl/lib/liblwip.a(memp.o)
 .debug_line    0x000075f0      0x433 /home/leon/git/swp-report/iMX6_Platform_SDK/output/mx6sl/lib/liblwip.a(netif.o)
 .debug_line    0x00007a23      0x5e2 /home/leon/git/swp-report/iMX6_Platform_SDK/output/mx6sl/lib/liblwip.a(pbuf.o)
 .debug_line    0x00008005      0x2f7 /home/leon/git/swp-report/iMX6_Platform_SDK/output/mx6sl/lib/liblwip.a(raw.o)
 .debug_line    0x000082fc      0xbdc /home/leon/git/swp-report/iMX6_Platform_SDK/output/mx6sl/lib/liblwip.a(mib2.o)
 .debug_line    0x00008ed8      0x573 /home/leon/git/swp-report/iMX6_Platform_SDK/output/mx6sl/lib/liblwip.a(mib_structs.o)
 .debug_line    0x0000944b      0x747 /home/leon/git/swp-report/iMX6_Platform_SDK/output/mx6sl/lib/liblwip.a(msg_in.o)
 .debug_line    0x00009b92      0x3bd /home/leon/git/swp-report/iMX6_Platform_SDK/output/mx6sl/lib/liblwip.a(msg_out.o)
 .debug_line    0x00009f4f      0x1fd /home/leon/git/swp-report/iMX6_Platform_SDK/output/mx6sl/lib/liblwip.a(stats.o)
 .debug_line    0x0000a14c      0x962 /home/leon/git/swp-report/iMX6_Platform_SDK/output/mx6sl/lib/liblwip.a(tcp_in.o)
 .debug_line    0x0000aaae      0x83d /home/leon/git/swp-report/iMX6_Platform_SDK/output/mx6sl/lib/liblwip.a(tcp.o)
 .debug_line    0x0000b2eb      0x72b /home/leon/git/swp-report/iMX6_Platform_SDK/output/mx6sl/lib/liblwip.a(tcp_out.o)
 .debug_line    0x0000ba16      0x2e2 /home/leon/git/swp-report/iMX6_Platform_SDK/output/mx6sl/lib/liblwip.a(timers.o)
 .debug_line    0x0000bcf8      0x4c2 /home/leon/git/swp-report/iMX6_Platform_SDK/output/mx6sl/lib/liblwip.a(udp.o)
 .debug_line    0x0000c1ba      0x6ed /home/leon/git/swp-report/iMX6_Platform_SDK/output/mx6sl/lib/liblwip.a(etharp.o)
 .debug_line    0x0000c8a7      0x3c3 /home/leon/git/swp-report/iMX6_Platform_SDK/output/mx6sl/lib/liblwip.a(mx6_ethernetif.o)
 .debug_line    0x0000cc6a      0x273 /home/leon/git/swp-report/iMX6_Platform_SDK/output/mx6sl/lib/liblwip.a(mx6_lwip.o)
 .debug_line    0x0000cedd      0x119 /home/leon/git/swp-report/iMX6_Platform_SDK/output/mx6sl/lib/liblwip.a(sys_arch.o)
 .debug_line    0x0000cff6      0x2dd /home/leon/git/swp-report/iMX6_Platform_SDK/output/mx6sl/lib/liblwip.a(icmp.o)
 .debug_line    0x0000d2d3      0x38e /home/leon/git/swp-report/iMX6_Platform_SDK/output/mx6sl/lib/liblwip.a(asn1_dec.o)
 .debug_line    0x0000d661      0x346 /home/leon/git/swp-report/iMX6_Platform_SDK/output/mx6sl/lib/liblwip.a(asn1_enc.o)
 .debug_line    0x0000d9a7      0x234 /home/leon/git/swp-report/iMX6_Platform_SDK/output/mx6sl/lib/libsdk.a(runtime_support.o)
 .debug_line    0x0000dbdb      0x7ba /home/leon/git/swp-report/iMX6_Platform_SDK/output/mx6sl/lib/libsdk.a(gpio.o)
 .debug_line    0x0000e395       0xcf /home/leon/git/swp-report/iMX6_Platform_SDK/output/mx6sl/lib/libsdk.a(imx6sl_gpio_map.o)

.debug_str      0x00000000    0x16772
 .debug_str     0x00000000      0x14a /home/leon/git/swp-report/iMX6_Platform_SDK/output/mx6sl/ping/evk_rev_a/obj/apps/common/ivt.o
                                0x1ad (size before relaxing)
 .debug_str     0x0000014a      0x146 /home/leon/git/swp-report/iMX6_Platform_SDK/output/mx6sl/ping/evk_rev_a/obj/apps/common/platform_init.o
                                0x1f5 (size before relaxing)
 .debug_str     0x00000290      0x315 /home/leon/git/swp-report/iMX6_Platform_SDK/output/mx6sl/ping/evk_rev_a/obj/apps/ping/src/ping.o
                                0x504 (size before relaxing)
 .debug_str     0x000005a5      0xea8 /home/leon/git/swp-report/iMX6_Platform_SDK/output/mx6sl/ping/evk_rev_a/obj/apps/ping/src/ping_main.o
                               0x12e6 (size before relaxing)
 .debug_str     0x0000144d      0xaf3 /home/leon/git/swp-report/iMX6_Platform_SDK/output/mx6sl/lib/libsdk.a(ccm_pll.o)
                                0xc0d (size before relaxing)
 .debug_str     0x00001f40      0x49f /home/leon/git/swp-report/iMX6_Platform_SDK/output/mx6sl/lib/libsdk.a(gic.o)
                                0x5f2 (size before relaxing)
 .debug_str     0x000023df      0x24e /home/leon/git/swp-report/iMX6_Platform_SDK/output/mx6sl/lib/libsdk.a(mmu.o)
                                0x35e (size before relaxing)
 .debug_str     0x0000262d      0x175 /home/leon/git/swp-report/iMX6_Platform_SDK/output/mx6sl/lib/libsdk.a(system_util.o)
                                0x7ac (size before relaxing)
 .debug_str     0x000027a2      0x1ef /home/leon/git/swp-report/iMX6_Platform_SDK/output/mx6sl/lib/libsdk.a(text_color.o)
                                0x305 (size before relaxing)
 .debug_str     0x00002991      0x361 /home/leon/git/swp-report/iMX6_Platform_SDK/output/mx6sl/lib/libsdk.a(fec_drv.o)
                                0xc2b (size before relaxing)
 .debug_str     0x00002cf2      0x2c9 /home/leon/git/swp-report/iMX6_Platform_SDK/output/mx6sl/lib/libsdk.a(timer.o)
                                0x3f8 (size before relaxing)
 .debug_str     0x00002fbb     0x10fc /home/leon/git/swp-report/iMX6_Platform_SDK/output/mx6sl/lib/libsdk.a(imx_uart.o)
                               0x139e (size before relaxing)
 .debug_str     0x000040b7       0xd7 /home/leon/git/swp-report/iMX6_Platform_SDK/output/mx6sl/lib/libsdk.a(interrupt.o)
                                0xd35 (size before relaxing)
 .debug_str     0x0000418e      0x283 /home/leon/git/swp-report/iMX6_Platform_SDK/output/mx6sl/lib/libsdk.a(epit.o)
                                0xfb6 (size before relaxing)
 .debug_str     0x00004411       0xbc /home/leon/git/swp-report/iMX6_Platform_SDK/output/mx6sl/lib/libsdk.a(abort_handler.o)
                                0x1a1 (size before relaxing)
 .debug_str     0x000044cd       0xa3 /home/leon/git/swp-report/iMX6_Platform_SDK/output/mx6sl/lib/libboard_evk_rev_a.a(board_io_expanders.o)
                                0x147 (size before relaxing)
 .debug_str     0x00004570       0xa9 /home/leon/git/swp-report/iMX6_Platform_SDK/output/mx6sl/lib/libboard_evk_rev_a.a(dcd.o)
                                0x158 (size before relaxing)
 .debug_str     0x00004619       0x4f /home/leon/git/swp-report/iMX6_Platform_SDK/output/mx6sl/lib/libboard_evk_rev_a.a(hardware_modules.o)
                                0x158 (size before relaxing)
 .debug_str     0x00004668       0xaa /home/leon/git/swp-report/iMX6_Platform_SDK/output/mx6sl/lib/libboard_evk_rev_a.a(uart_iomux_config.o)
                                0x160 (size before relaxing)
 .debug_str     0x00004712      0x233 /home/leon/git/swp-report/iMX6_Platform_SDK/output/mx6sl/lib/libboard_evk_rev_a.a(iomux_config.o)
                                0x24c (size before relaxing)
 .debug_str     0x00004945      0xb2a /home/leon/git/swp-report/iMX6_Platform_SDK/output/mx6sl/lib/libboard_evk_rev_a.a(kpp_iomux_config.o)
                                0xba3 (size before relaxing)
 .debug_str     0x0000546f     0x2734 /home/leon/git/swp-report/iMX6_Platform_SDK/output/mx6sl/lib/libboard_evk_rev_a.a(lcd_iomux_config.o)
                               0x27c1 (size before relaxing)
 .debug_str     0x00007ba3     0x17df /home/leon/git/swp-report/iMX6_Platform_SDK/output/mx6sl/lib/libboard_evk_rev_a.a(mmdc_iomux_config.o)
                               0x1852 (size before relaxing)
 .debug_str     0x00009382      0x138 /home/leon/git/swp-report/iMX6_Platform_SDK/output/mx6sl/lib/libboard_evk_rev_a.a(pwm1_iomux_config.o)
                                0x1bf (size before relaxing)
 .debug_str     0x000094ba      0x324 /home/leon/git/swp-report/iMX6_Platform_SDK/output/mx6sl/lib/libboard_evk_rev_a.a(sjc_iomux_config.o)
                                0x39d (size before relaxing)
 .debug_str     0x000097de      0xfba /home/leon/git/swp-report/iMX6_Platform_SDK/output/mx6sl/lib/libboard_evk_rev_a.a(spdc_iomux_config.o)
                               0x1041 (size before relaxing)
 .debug_str     0x0000a798      0x2d2 /home/leon/git/swp-report/iMX6_Platform_SDK/output/mx6sl/lib/libboard_evk_rev_a.a(uart1_iomux_config.o)
                                0x35f (size before relaxing)
 .debug_str     0x0000aa6a      0x53f /home/leon/git/swp-report/iMX6_Platform_SDK/output/mx6sl/lib/libboard_evk_rev_a.a(usb_iomux_config.o)
                                0x5cc (size before relaxing)
 .debug_str     0x0000afa9      0xc6d /home/leon/git/swp-report/iMX6_Platform_SDK/output/mx6sl/lib/libboard_evk_rev_a.a(usdhc1_iomux_config.o)
                                0xcfa (size before relaxing)
 .debug_str     0x0000bc16      0x9af /home/leon/git/swp-report/iMX6_Platform_SDK/output/mx6sl/lib/libboard_evk_rev_a.a(usdhc2_iomux_config.o)
                                0xa3c (size before relaxing)
 .debug_str     0x0000c5c5      0x765 /home/leon/git/swp-report/iMX6_Platform_SDK/output/mx6sl/lib/libboard_evk_rev_a.a(usdhc3_iomux_config.o)
                                0x7f2 (size before relaxing)
 .debug_str     0x0000cd2a      0x146 /home/leon/git/swp-report/iMX6_Platform_SDK/output/mx6sl/lib/libboard_evk_rev_a.a(wdog1_iomux_config.o)
                                0x1cd (size before relaxing)
 .debug_str     0x0000ce70      0x6ac /home/leon/git/swp-report/iMX6_Platform_SDK/output/mx6sl/lib/libboard_evk_rev_a.a(audmux_iomux_config.o)
                                0x733 (size before relaxing)
 .debug_str     0x0000d51c      0x7d4 /home/leon/git/swp-report/iMX6_Platform_SDK/output/mx6sl/lib/libboard_evk_rev_a.a(csi_iomux_config.o)
                               0x16bf (size before relaxing)
 .debug_str     0x0000dcf0      0x63c /home/leon/git/swp-report/iMX6_Platform_SDK/output/mx6sl/lib/libboard_evk_rev_a.a(ecspi1_iomux_config.o)
                                0x6c9 (size before relaxing)
 .debug_str     0x0000e32c      0x63c /home/leon/git/swp-report/iMX6_Platform_SDK/output/mx6sl/lib/libboard_evk_rev_a.a(ecspi2_iomux_config.o)
                                0x6c9 (size before relaxing)
 .debug_str     0x0000e968     0x1729 /home/leon/git/swp-report/iMX6_Platform_SDK/output/mx6sl/lib/libboard_evk_rev_a.a(epdc_iomux_config.o)
                               0x28fc (size before relaxing)
 .debug_str     0x00010091      0xcee /home/leon/git/swp-report/iMX6_Platform_SDK/output/mx6sl/lib/libboard_evk_rev_a.a(fec_iomux_config.o)
                                0xd7b (size before relaxing)
 .debug_str     0x00010d7f       0x6a /home/leon/git/swp-report/iMX6_Platform_SDK/output/mx6sl/lib/libboard_evk_rev_a.a(gpio1_iomux_config.o)
                                 0xad (size before relaxing)
 .debug_str     0x00010de9       0x6a /home/leon/git/swp-report/iMX6_Platform_SDK/output/mx6sl/lib/libboard_evk_rev_a.a(gpio4_iomux_config.o)
                                 0xad (size before relaxing)
 .debug_str     0x00010e53      0x326 /home/leon/git/swp-report/iMX6_Platform_SDK/output/mx6sl/lib/libboard_evk_rev_a.a(i2c1_iomux_config.o)
                                0x3b3 (size before relaxing)
 .debug_str     0x00011179      0x326 /home/leon/git/swp-report/iMX6_Platform_SDK/output/mx6sl/lib/libboard_evk_rev_a.a(i2c2_iomux_config.o)
                                0x3b3 (size before relaxing)
 .debug_str     0x0001149f      0x156 /home/leon/git/swp-report/iMX6_Platform_SDK/output/mx6sl/lib/libboard_evk_rev_a.a(i2c3_iomux_config.o)
                                0x3cb (size before relaxing)
 .debug_str     0x000115f5       0xb0 /home/leon/git/swp-report/iMX6_Platform_SDK/output/mx6sl/lib/liblwip.a(def.o)
                                0x16c (size before relaxing)
 .debug_str     0x000116a5      0x39e /home/leon/git/swp-report/iMX6_Platform_SDK/output/mx6sl/lib/liblwip.a(dhcp.o)
                                0xa0d (size before relaxing)
 .debug_str     0x00011a43      0x22a /home/leon/git/swp-report/iMX6_Platform_SDK/output/mx6sl/lib/liblwip.a(dns.o)
                                0x59e (size before relaxing)
 .debug_str     0x00011c6d      0x10f /home/leon/git/swp-report/iMX6_Platform_SDK/output/mx6sl/lib/liblwip.a(inet_chksum.o)
                                0x280 (size before relaxing)
 .debug_str     0x00011d7c       0x50 /home/leon/git/swp-report/iMX6_Platform_SDK/output/mx6sl/lib/liblwip.a(init.o)
                                0x12d (size before relaxing)
 .debug_str     0x00011dcc      0x1f8 /home/leon/git/swp-report/iMX6_Platform_SDK/output/mx6sl/lib/liblwip.a(autoip.o)
                                0x51c (size before relaxing)
 .debug_str     0x00011fc4      0x384 /home/leon/git/swp-report/iMX6_Platform_SDK/output/mx6sl/lib/liblwip.a(igmp.o)
                                0x868 (size before relaxing)
 .debug_str     0x00012348      0x147 /home/leon/git/swp-report/iMX6_Platform_SDK/output/mx6sl/lib/liblwip.a(ip4.o)
                                0x92e (size before relaxing)
 .debug_str     0x0001248f       0xc7 /home/leon/git/swp-report/iMX6_Platform_SDK/output/mx6sl/lib/liblwip.a(ip4_addr.o)
                                0x3ee (size before relaxing)
 .debug_str     0x00012556       0x46 /home/leon/git/swp-report/iMX6_Platform_SDK/output/mx6sl/lib/liblwip.a(memp.o)
                                0x21b (size before relaxing)
 .debug_str     0x0001259c      0x40c /home/leon/git/swp-report/iMX6_Platform_SDK/output/mx6sl/lib/liblwip.a(netif.o)
                                0xc00 (size before relaxing)
 .debug_str     0x000129a8      0x22d /home/leon/git/swp-report/iMX6_Platform_SDK/output/mx6sl/lib/liblwip.a(pbuf.o)
                                0x81b (size before relaxing)
 .debug_str     0x00012bd5       0xc2 /home/leon/git/swp-report/iMX6_Platform_SDK/output/mx6sl/lib/liblwip.a(raw.o)
                                0x626 (size before relaxing)
 .debug_str     0x00012c97     0x1530 /home/leon/git/swp-report/iMX6_Platform_SDK/output/mx6sl/lib/liblwip.a(mib2.o)
                               0x20e1 (size before relaxing)
 .debug_str     0x000141c7      0x2f8 /home/leon/git/swp-report/iMX6_Platform_SDK/output/mx6sl/lib/liblwip.a(mib_structs.o)
                                0x822 (size before relaxing)
 .debug_str     0x000144bf      0x448 /home/leon/git/swp-report/iMX6_Platform_SDK/output/mx6sl/lib/liblwip.a(msg_in.o)
                                0x93c (size before relaxing)
 .debug_str     0x00014907      0x195 /home/leon/git/swp-report/iMX6_Platform_SDK/output/mx6sl/lib/liblwip.a(msg_out.o)
                                0x98d (size before relaxing)
 .debug_str     0x00014a9c       0xc9 /home/leon/git/swp-report/iMX6_Platform_SDK/output/mx6sl/lib/liblwip.a(stats.o)
                                0x3c9 (size before relaxing)
 .debug_str     0x00014b65      0x1b2 /home/leon/git/swp-report/iMX6_Platform_SDK/output/mx6sl/lib/liblwip.a(tcp_in.o)
                                0xac6 (size before relaxing)
 .debug_str     0x00014d17      0x399 /home/leon/git/swp-report/iMX6_Platform_SDK/output/mx6sl/lib/liblwip.a(tcp.o)
                                0xc73 (size before relaxing)
 .debug_str     0x000150b0      0x1f1 /home/leon/git/swp-report/iMX6_Platform_SDK/output/mx6sl/lib/liblwip.a(tcp_out.o)
                                0xa98 (size before relaxing)
 .debug_str     0x000152a1      0x17f /home/leon/git/swp-report/iMX6_Platform_SDK/output/mx6sl/lib/liblwip.a(timers.o)
                                0x70d (size before relaxing)
 .debug_str     0x00015420      0x13a /home/leon/git/swp-report/iMX6_Platform_SDK/output/mx6sl/lib/liblwip.a(udp.o)
                                0x9b0 (size before relaxing)
 .debug_str     0x0001555a      0x347 /home/leon/git/swp-report/iMX6_Platform_SDK/output/mx6sl/lib/liblwip.a(etharp.o)
                                0xb34 (size before relaxing)
 .debug_str     0x000158a1      0x4c9 /home/leon/git/swp-report/iMX6_Platform_SDK/output/mx6sl/lib/liblwip.a(mx6_ethernetif.o)
                               0x12b9 (size before relaxing)
 .debug_str     0x00015d6a      0x115 /home/leon/git/swp-report/iMX6_Platform_SDK/output/mx6sl/lib/liblwip.a(mx6_lwip.o)
                                0x6f4 (size before relaxing)
 .debug_str     0x00015e7f       0x48 /home/leon/git/swp-report/iMX6_Platform_SDK/output/mx6sl/lib/liblwip.a(sys_arch.o)
                                0x130 (size before relaxing)
 .debug_str     0x00015ec7       0x8c /home/leon/git/swp-report/iMX6_Platform_SDK/output/mx6sl/lib/liblwip.a(icmp.o)
                                0x65d (size before relaxing)
 .debug_str     0x00015f53       0xfa /home/leon/git/swp-report/iMX6_Platform_SDK/output/mx6sl/lib/liblwip.a(asn1_dec.o)
                                0x274 (size before relaxing)
 .debug_str     0x0001604d      0x132 /home/leon/git/swp-report/iMX6_Platform_SDK/output/mx6sl/lib/liblwip.a(asn1_enc.o)
                                0x2cc (size before relaxing)
 .debug_str     0x0001617f      0x226 /home/leon/git/swp-report/iMX6_Platform_SDK/output/mx6sl/lib/libsdk.a(runtime_support.o)
                                0x3ac (size before relaxing)
 .debug_str     0x000163a5      0x37a /home/leon/git/swp-report/iMX6_Platform_SDK/output/mx6sl/lib/libsdk.a(gpio.o)
                                0x48b (size before relaxing)
 .debug_str     0x0001671f       0x53 /home/leon/git/swp-report/iMX6_Platform_SDK/output/mx6sl/lib/libsdk.a(imx6sl_gpio_map.o)
                                0x10a (size before relaxing)

.debug_loc      0x00000000     0x7170
 .debug_loc     0x00000000       0x2c /home/leon/git/swp-report/iMX6_Platform_SDK/output/mx6sl/ping/evk_rev_a/obj/apps/common/platform_init.o
 .debug_loc     0x0000002c      0x160 /home/leon/git/swp-report/iMX6_Platform_SDK/output/mx6sl/ping/evk_rev_a/obj/apps/ping/src/ping.o
 .debug_loc     0x0000018c      0x160 /home/leon/git/swp-report/iMX6_Platform_SDK/output/mx6sl/ping/evk_rev_a/obj/apps/ping/src/ping_main.o
 .debug_loc     0x000002ec      0x134 /home/leon/git/swp-report/iMX6_Platform_SDK/output/mx6sl/lib/libsdk.a(ccm_pll.o)
 .debug_loc     0x00000420      0x2ec /home/leon/git/swp-report/iMX6_Platform_SDK/output/mx6sl/lib/libsdk.a(gic.o)
 .debug_loc     0x0000070c       0xdc /home/leon/git/swp-report/iMX6_Platform_SDK/output/mx6sl/lib/libsdk.a(mmu.o)
 .debug_loc     0x000007e8      0x108 /home/leon/git/swp-report/iMX6_Platform_SDK/output/mx6sl/lib/libsdk.a(system_util.o)
 .debug_loc     0x000008f0       0x58 /home/leon/git/swp-report/iMX6_Platform_SDK/output/mx6sl/lib/libsdk.a(text_color.o)
 .debug_loc     0x00000948      0x2c0 /home/leon/git/swp-report/iMX6_Platform_SDK/output/mx6sl/lib/libsdk.a(fec_drv.o)
 .debug_loc     0x00000c08       0xb0 /home/leon/git/swp-report/iMX6_Platform_SDK/output/mx6sl/lib/libsdk.a(timer.o)
 .debug_loc     0x00000cb8      0x134 /home/leon/git/swp-report/iMX6_Platform_SDK/output/mx6sl/lib/libsdk.a(imx_uart.o)
 .debug_loc     0x00000dec       0xdc /home/leon/git/swp-report/iMX6_Platform_SDK/output/mx6sl/lib/libsdk.a(interrupt.o)
 .debug_loc     0x00000ec8      0x160 /home/leon/git/swp-report/iMX6_Platform_SDK/output/mx6sl/lib/libsdk.a(epit.o)
 .debug_loc     0x00001028       0x2c /home/leon/git/swp-report/iMX6_Platform_SDK/output/mx6sl/lib/libsdk.a(abort_handler.o)
 .debug_loc     0x00001054       0x2c /home/leon/git/swp-report/iMX6_Platform_SDK/output/mx6sl/lib/libboard_evk_rev_a.a(board_io_expanders.o)
 .debug_loc     0x00001080       0x2c /home/leon/git/swp-report/iMX6_Platform_SDK/output/mx6sl/lib/libboard_evk_rev_a.a(uart_iomux_config.o)
 .debug_loc     0x000010ac      0x4a4 /home/leon/git/swp-report/iMX6_Platform_SDK/output/mx6sl/lib/libboard_evk_rev_a.a(iomux_config.o)
 .debug_loc     0x00001550       0x2c /home/leon/git/swp-report/iMX6_Platform_SDK/output/mx6sl/lib/libboard_evk_rev_a.a(kpp_iomux_config.o)
 .debug_loc     0x0000157c       0x2c /home/leon/git/swp-report/iMX6_Platform_SDK/output/mx6sl/lib/libboard_evk_rev_a.a(lcd_iomux_config.o)
 .debug_loc     0x000015a8       0x2c /home/leon/git/swp-report/iMX6_Platform_SDK/output/mx6sl/lib/libboard_evk_rev_a.a(mmdc_iomux_config.o)
 .debug_loc     0x000015d4       0x2c /home/leon/git/swp-report/iMX6_Platform_SDK/output/mx6sl/lib/libboard_evk_rev_a.a(pwm1_iomux_config.o)
 .debug_loc     0x00001600       0x2c /home/leon/git/swp-report/iMX6_Platform_SDK/output/mx6sl/lib/libboard_evk_rev_a.a(sjc_iomux_config.o)
 .debug_loc     0x0000162c       0x2c /home/leon/git/swp-report/iMX6_Platform_SDK/output/mx6sl/lib/libboard_evk_rev_a.a(spdc_iomux_config.o)
 .debug_loc     0x00001658       0x2c /home/leon/git/swp-report/iMX6_Platform_SDK/output/mx6sl/lib/libboard_evk_rev_a.a(uart1_iomux_config.o)
 .debug_loc     0x00001684       0x2c /home/leon/git/swp-report/iMX6_Platform_SDK/output/mx6sl/lib/libboard_evk_rev_a.a(usb_iomux_config.o)
 .debug_loc     0x000016b0       0x2c /home/leon/git/swp-report/iMX6_Platform_SDK/output/mx6sl/lib/libboard_evk_rev_a.a(usdhc1_iomux_config.o)
 .debug_loc     0x000016dc       0x2c /home/leon/git/swp-report/iMX6_Platform_SDK/output/mx6sl/lib/libboard_evk_rev_a.a(usdhc2_iomux_config.o)
 .debug_loc     0x00001708       0x2c /home/leon/git/swp-report/iMX6_Platform_SDK/output/mx6sl/lib/libboard_evk_rev_a.a(usdhc3_iomux_config.o)
 .debug_loc     0x00001734       0x2c /home/leon/git/swp-report/iMX6_Platform_SDK/output/mx6sl/lib/libboard_evk_rev_a.a(wdog1_iomux_config.o)
 .debug_loc     0x00001760       0x2c /home/leon/git/swp-report/iMX6_Platform_SDK/output/mx6sl/lib/libboard_evk_rev_a.a(audmux_iomux_config.o)
 .debug_loc     0x0000178c       0x2c /home/leon/git/swp-report/iMX6_Platform_SDK/output/mx6sl/lib/libboard_evk_rev_a.a(csi_iomux_config.o)
 .debug_loc     0x000017b8       0x2c /home/leon/git/swp-report/iMX6_Platform_SDK/output/mx6sl/lib/libboard_evk_rev_a.a(ecspi1_iomux_config.o)
 .debug_loc     0x000017e4       0x2c /home/leon/git/swp-report/iMX6_Platform_SDK/output/mx6sl/lib/libboard_evk_rev_a.a(ecspi2_iomux_config.o)
 .debug_loc     0x00001810       0x2c /home/leon/git/swp-report/iMX6_Platform_SDK/output/mx6sl/lib/libboard_evk_rev_a.a(epdc_iomux_config.o)
 .debug_loc     0x0000183c       0x2c /home/leon/git/swp-report/iMX6_Platform_SDK/output/mx6sl/lib/libboard_evk_rev_a.a(fec_iomux_config.o)
 .debug_loc     0x00001868       0x2c /home/leon/git/swp-report/iMX6_Platform_SDK/output/mx6sl/lib/libboard_evk_rev_a.a(gpio1_iomux_config.o)
 .debug_loc     0x00001894       0x2c /home/leon/git/swp-report/iMX6_Platform_SDK/output/mx6sl/lib/libboard_evk_rev_a.a(gpio4_iomux_config.o)
 .debug_loc     0x000018c0       0x2c /home/leon/git/swp-report/iMX6_Platform_SDK/output/mx6sl/lib/libboard_evk_rev_a.a(i2c1_iomux_config.o)
 .debug_loc     0x000018ec       0x2c /home/leon/git/swp-report/iMX6_Platform_SDK/output/mx6sl/lib/libboard_evk_rev_a.a(i2c2_iomux_config.o)
 .debug_loc     0x00001918       0x2c /home/leon/git/swp-report/iMX6_Platform_SDK/output/mx6sl/lib/libboard_evk_rev_a.a(i2c3_iomux_config.o)
 .debug_loc     0x00001944       0xb0 /home/leon/git/swp-report/iMX6_Platform_SDK/output/mx6sl/lib/liblwip.a(def.o)
 .debug_loc     0x000019f4      0x604 /home/leon/git/swp-report/iMX6_Platform_SDK/output/mx6sl/lib/liblwip.a(dhcp.o)
 .debug_loc     0x00001ff8      0x23c /home/leon/git/swp-report/iMX6_Platform_SDK/output/mx6sl/lib/liblwip.a(dns.o)
 .debug_loc     0x00002234      0x134 /home/leon/git/swp-report/iMX6_Platform_SDK/output/mx6sl/lib/liblwip.a(inet_chksum.o)
 .debug_loc     0x00002368       0x2c /home/leon/git/swp-report/iMX6_Platform_SDK/output/mx6sl/lib/liblwip.a(init.o)
 .debug_loc     0x00002394      0x23c /home/leon/git/swp-report/iMX6_Platform_SDK/output/mx6sl/lib/liblwip.a(autoip.o)
 .debug_loc     0x000025d0      0x2ec /home/leon/git/swp-report/iMX6_Platform_SDK/output/mx6sl/lib/liblwip.a(igmp.o)
 .debug_loc     0x000028bc      0x108 /home/leon/git/swp-report/iMX6_Platform_SDK/output/mx6sl/lib/liblwip.a(ip4.o)
 .debug_loc     0x000029c4      0x108 /home/leon/git/swp-report/iMX6_Platform_SDK/output/mx6sl/lib/liblwip.a(ip4_addr.o)
 .debug_loc     0x00002acc      0x318 /home/leon/git/swp-report/iMX6_Platform_SDK/output/mx6sl/lib/liblwip.a(netif.o)
 .debug_loc     0x00002de4      0x344 /home/leon/git/swp-report/iMX6_Platform_SDK/output/mx6sl/lib/liblwip.a(pbuf.o)
 .debug_loc     0x00003128      0x160 /home/leon/git/swp-report/iMX6_Platform_SDK/output/mx6sl/lib/liblwip.a(raw.o)
 .debug_loc     0x00003288     0x19c8 /home/leon/git/swp-report/iMX6_Platform_SDK/output/mx6sl/lib/liblwip.a(mib2.o)
 .debug_loc     0x00004c50      0x318 /home/leon/git/swp-report/iMX6_Platform_SDK/output/mx6sl/lib/liblwip.a(mib_structs.o)
 .debug_loc     0x00004f68      0x294 /home/leon/git/swp-report/iMX6_Platform_SDK/output/mx6sl/lib/liblwip.a(msg_in.o)
 .debug_loc     0x000051fc      0x210 /home/leon/git/swp-report/iMX6_Platform_SDK/output/mx6sl/lib/liblwip.a(msg_out.o)
 .debug_loc     0x0000540c      0x134 /home/leon/git/swp-report/iMX6_Platform_SDK/output/mx6sl/lib/liblwip.a(stats.o)
 .debug_loc     0x00005540      0x134 /home/leon/git/swp-report/iMX6_Platform_SDK/output/mx6sl/lib/liblwip.a(tcp_in.o)
 .debug_loc     0x00005674      0x65c /home/leon/git/swp-report/iMX6_Platform_SDK/output/mx6sl/lib/liblwip.a(tcp.o)
 .debug_loc     0x00005cd0      0x2c0 /home/leon/git/swp-report/iMX6_Platform_SDK/output/mx6sl/lib/liblwip.a(tcp_out.o)
 .debug_loc     0x00005f90      0x23c /home/leon/git/swp-report/iMX6_Platform_SDK/output/mx6sl/lib/liblwip.a(timers.o)
 .debug_loc     0x000061cc      0x210 /home/leon/git/swp-report/iMX6_Platform_SDK/output/mx6sl/lib/liblwip.a(udp.o)
 .debug_loc     0x000063dc      0x2c0 /home/leon/git/swp-report/iMX6_Platform_SDK/output/mx6sl/lib/liblwip.a(etharp.o)
 .debug_loc     0x0000669c      0x18c /home/leon/git/swp-report/iMX6_Platform_SDK/output/mx6sl/lib/liblwip.a(mx6_ethernetif.o)
 .debug_loc     0x00006828       0x84 /home/leon/git/swp-report/iMX6_Platform_SDK/output/mx6sl/lib/liblwip.a(mx6_lwip.o)
 .debug_loc     0x000068ac       0x2c /home/leon/git/swp-report/iMX6_Platform_SDK/output/mx6sl/lib/liblwip.a(sys_arch.o)
 .debug_loc     0x000068d8       0x84 /home/leon/git/swp-report/iMX6_Platform_SDK/output/mx6sl/lib/liblwip.a(icmp.o)
 .debug_loc     0x0000695c      0x108 /home/leon/git/swp-report/iMX6_Platform_SDK/output/mx6sl/lib/liblwip.a(asn1_dec.o)
 .debug_loc     0x00006a64      0x1b8 /home/leon/git/swp-report/iMX6_Platform_SDK/output/mx6sl/lib/liblwip.a(asn1_enc.o)
 .debug_loc     0x00006c1c      0x370 /home/leon/git/swp-report/iMX6_Platform_SDK/output/mx6sl/lib/libsdk.a(runtime_support.o)
 .debug_loc     0x00006f8c      0x1e4 /home/leon/git/swp-report/iMX6_Platform_SDK/output/mx6sl/lib/libsdk.a(gpio.o)

.debug_frame    0x00000000     0x68f0
 .debug_frame   0x00000000       0x30 /home/leon/git/swp-report/iMX6_Platform_SDK/output/mx6sl/ping/evk_rev_a/obj/apps/common/platform_init.o
 .debug_frame   0x00000030      0x110 /home/leon/git/swp-report/iMX6_Platform_SDK/output/mx6sl/ping/evk_rev_a/obj/apps/ping/src/ping.o
 .debug_frame   0x00000140      0x110 /home/leon/git/swp-report/iMX6_Platform_SDK/output/mx6sl/ping/evk_rev_a/obj/apps/ping/src/ping_main.o
 .debug_frame   0x00000250       0xf0 /home/leon/git/swp-report/iMX6_Platform_SDK/output/mx6sl/lib/libsdk.a(ccm_pll.o)
 .debug_frame   0x00000340      0x230 /home/leon/git/swp-report/iMX6_Platform_SDK/output/mx6sl/lib/libsdk.a(gic.o)
 .debug_frame   0x00000570       0xb0 /home/leon/git/swp-report/iMX6_Platform_SDK/output/mx6sl/lib/libsdk.a(mmu.o)
 .debug_frame   0x00000620       0xe0 /home/leon/git/swp-report/iMX6_Platform_SDK/output/mx6sl/lib/libsdk.a(system_util.o)
 .debug_frame   0x00000700       0x54 /home/leon/git/swp-report/iMX6_Platform_SDK/output/mx6sl/lib/libsdk.a(text_color.o)
 .debug_frame   0x00000754      0x210 /home/leon/git/swp-report/iMX6_Platform_SDK/output/mx6sl/lib/libsdk.a(fec_drv.o)
 .debug_frame   0x00000964       0x94 /home/leon/git/swp-report/iMX6_Platform_SDK/output/mx6sl/lib/libsdk.a(timer.o)
 .debug_frame   0x000009f8       0xf0 /home/leon/git/swp-report/iMX6_Platform_SDK/output/mx6sl/lib/libsdk.a(imx_uart.o)
 .debug_frame   0x00000ae8       0xb8 /home/leon/git/swp-report/iMX6_Platform_SDK/output/mx6sl/lib/libsdk.a(interrupt.o)
 .debug_frame   0x00000ba0      0x110 /home/leon/git/swp-report/iMX6_Platform_SDK/output/mx6sl/lib/libsdk.a(epit.o)
 .debug_frame   0x00000cb0       0x38 /home/leon/git/swp-report/iMX6_Platform_SDK/output/mx6sl/lib/libsdk.a(abort_handler.o)
 .debug_frame   0x00000ce8       0x30 /home/leon/git/swp-report/iMX6_Platform_SDK/output/mx6sl/lib/libboard_evk_rev_a.a(board_io_expanders.o)
 .debug_frame   0x00000d18       0x30 /home/leon/git/swp-report/iMX6_Platform_SDK/output/mx6sl/lib/libboard_evk_rev_a.a(uart_iomux_config.o)
 .debug_frame   0x00000d48      0x370 /home/leon/git/swp-report/iMX6_Platform_SDK/output/mx6sl/lib/libboard_evk_rev_a.a(iomux_config.o)
 .debug_frame   0x000010b8       0x30 /home/leon/git/swp-report/iMX6_Platform_SDK/output/mx6sl/lib/libboard_evk_rev_a.a(kpp_iomux_config.o)
 .debug_frame   0x000010e8       0x30 /home/leon/git/swp-report/iMX6_Platform_SDK/output/mx6sl/lib/libboard_evk_rev_a.a(lcd_iomux_config.o)
 .debug_frame   0x00001118       0x30 /home/leon/git/swp-report/iMX6_Platform_SDK/output/mx6sl/lib/libboard_evk_rev_a.a(mmdc_iomux_config.o)
 .debug_frame   0x00001148       0x30 /home/leon/git/swp-report/iMX6_Platform_SDK/output/mx6sl/lib/libboard_evk_rev_a.a(pwm1_iomux_config.o)
 .debug_frame   0x00001178       0x30 /home/leon/git/swp-report/iMX6_Platform_SDK/output/mx6sl/lib/libboard_evk_rev_a.a(sjc_iomux_config.o)
 .debug_frame   0x000011a8       0x30 /home/leon/git/swp-report/iMX6_Platform_SDK/output/mx6sl/lib/libboard_evk_rev_a.a(spdc_iomux_config.o)
 .debug_frame   0x000011d8       0x30 /home/leon/git/swp-report/iMX6_Platform_SDK/output/mx6sl/lib/libboard_evk_rev_a.a(uart1_iomux_config.o)
 .debug_frame   0x00001208       0x30 /home/leon/git/swp-report/iMX6_Platform_SDK/output/mx6sl/lib/libboard_evk_rev_a.a(usb_iomux_config.o)
 .debug_frame   0x00001238       0x30 /home/leon/git/swp-report/iMX6_Platform_SDK/output/mx6sl/lib/libboard_evk_rev_a.a(usdhc1_iomux_config.o)
 .debug_frame   0x00001268       0x30 /home/leon/git/swp-report/iMX6_Platform_SDK/output/mx6sl/lib/libboard_evk_rev_a.a(usdhc2_iomux_config.o)
 .debug_frame   0x00001298       0x30 /home/leon/git/swp-report/iMX6_Platform_SDK/output/mx6sl/lib/libboard_evk_rev_a.a(usdhc3_iomux_config.o)
 .debug_frame   0x000012c8       0x30 /home/leon/git/swp-report/iMX6_Platform_SDK/output/mx6sl/lib/libboard_evk_rev_a.a(wdog1_iomux_config.o)
 .debug_frame   0x000012f8       0x30 /home/leon/git/swp-report/iMX6_Platform_SDK/output/mx6sl/lib/libboard_evk_rev_a.a(audmux_iomux_config.o)
 .debug_frame   0x00001328       0x30 /home/leon/git/swp-report/iMX6_Platform_SDK/output/mx6sl/lib/libboard_evk_rev_a.a(csi_iomux_config.o)
 .debug_frame   0x00001358       0x30 /home/leon/git/swp-report/iMX6_Platform_SDK/output/mx6sl/lib/libboard_evk_rev_a.a(ecspi1_iomux_config.o)
 .debug_frame   0x00001388       0x30 /home/leon/git/swp-report/iMX6_Platform_SDK/output/mx6sl/lib/libboard_evk_rev_a.a(ecspi2_iomux_config.o)
 .debug_frame   0x000013b8       0x30 /home/leon/git/swp-report/iMX6_Platform_SDK/output/mx6sl/lib/libboard_evk_rev_a.a(epdc_iomux_config.o)
 .debug_frame   0x000013e8       0x30 /home/leon/git/swp-report/iMX6_Platform_SDK/output/mx6sl/lib/libboard_evk_rev_a.a(fec_iomux_config.o)
 .debug_frame   0x00001418       0x30 /home/leon/git/swp-report/iMX6_Platform_SDK/output/mx6sl/lib/libboard_evk_rev_a.a(gpio1_iomux_config.o)
 .debug_frame   0x00001448       0x30 /home/leon/git/swp-report/iMX6_Platform_SDK/output/mx6sl/lib/libboard_evk_rev_a.a(gpio4_iomux_config.o)
 .debug_frame   0x00001478       0x30 /home/leon/git/swp-report/iMX6_Platform_SDK/output/mx6sl/lib/libboard_evk_rev_a.a(i2c1_iomux_config.o)
 .debug_frame   0x000014a8       0x30 /home/leon/git/swp-report/iMX6_Platform_SDK/output/mx6sl/lib/libboard_evk_rev_a.a(i2c2_iomux_config.o)
 .debug_frame   0x000014d8       0x30 /home/leon/git/swp-report/iMX6_Platform_SDK/output/mx6sl/lib/libboard_evk_rev_a.a(i2c3_iomux_config.o)
 .debug_frame   0x00001508       0x90 /home/leon/git/swp-report/iMX6_Platform_SDK/output/mx6sl/lib/liblwip.a(def.o)
 .debug_frame   0x00001598      0x470 /home/leon/git/swp-report/iMX6_Platform_SDK/output/mx6sl/lib/liblwip.a(dhcp.o)
 .debug_frame   0x00001a08      0x1b0 /home/leon/git/swp-report/iMX6_Platform_SDK/output/mx6sl/lib/liblwip.a(dns.o)
 .debug_frame   0x00001bb8       0xf0 /home/leon/git/swp-report/iMX6_Platform_SDK/output/mx6sl/lib/liblwip.a(inet_chksum.o)
 .debug_frame   0x00001ca8       0x30 /home/leon/git/swp-report/iMX6_Platform_SDK/output/mx6sl/lib/liblwip.a(init.o)
 .debug_frame   0x00001cd8      0x1b0 /home/leon/git/swp-report/iMX6_Platform_SDK/output/mx6sl/lib/liblwip.a(autoip.o)
 .debug_frame   0x00001e88      0x230 /home/leon/git/swp-report/iMX6_Platform_SDK/output/mx6sl/lib/liblwip.a(igmp.o)
 .debug_frame   0x000020b8       0xd0 /home/leon/git/swp-report/iMX6_Platform_SDK/output/mx6sl/lib/liblwip.a(ip4.o)
 .debug_frame   0x00002188       0xd0 /home/leon/git/swp-report/iMX6_Platform_SDK/output/mx6sl/lib/liblwip.a(ip4_addr.o)
 .debug_frame   0x00002258      0x250 /home/leon/git/swp-report/iMX6_Platform_SDK/output/mx6sl/lib/liblwip.a(netif.o)
 .debug_frame   0x000024a8      0x270 /home/leon/git/swp-report/iMX6_Platform_SDK/output/mx6sl/lib/liblwip.a(pbuf.o)
 .debug_frame   0x00002718      0x110 /home/leon/git/swp-report/iMX6_Platform_SDK/output/mx6sl/lib/liblwip.a(raw.o)
 .debug_frame   0x00002828     0x12d0 /home/leon/git/swp-report/iMX6_Platform_SDK/output/mx6sl/lib/liblwip.a(mib2.o)
 .debug_frame   0x00003af8      0x250 /home/leon/git/swp-report/iMX6_Platform_SDK/output/mx6sl/lib/liblwip.a(mib_structs.o)
 .debug_frame   0x00003d48      0x1f0 /home/leon/git/swp-report/iMX6_Platform_SDK/output/mx6sl/lib/liblwip.a(msg_in.o)
 .debug_frame   0x00003f38      0x190 /home/leon/git/swp-report/iMX6_Platform_SDK/output/mx6sl/lib/liblwip.a(msg_out.o)
 .debug_frame   0x000040c8       0xf0 /home/leon/git/swp-report/iMX6_Platform_SDK/output/mx6sl/lib/liblwip.a(stats.o)
 .debug_frame   0x000041b8       0xf8 /home/leon/git/swp-report/iMX6_Platform_SDK/output/mx6sl/lib/liblwip.a(tcp_in.o)
 .debug_frame   0x000042b0      0x4b0 /home/leon/git/swp-report/iMX6_Platform_SDK/output/mx6sl/lib/liblwip.a(tcp.o)
 .debug_frame   0x00004760      0x21c /home/leon/git/swp-report/iMX6_Platform_SDK/output/mx6sl/lib/liblwip.a(tcp_out.o)
 .debug_frame   0x0000497c      0x1b0 /home/leon/git/swp-report/iMX6_Platform_SDK/output/mx6sl/lib/liblwip.a(timers.o)
 .debug_frame   0x00004b2c      0x190 /home/leon/git/swp-report/iMX6_Platform_SDK/output/mx6sl/lib/liblwip.a(udp.o)
 .debug_frame   0x00004cbc      0x210 /home/leon/git/swp-report/iMX6_Platform_SDK/output/mx6sl/lib/liblwip.a(etharp.o)
 .debug_frame   0x00004ecc      0x130 /home/leon/git/swp-report/iMX6_Platform_SDK/output/mx6sl/lib/liblwip.a(mx6_ethernetif.o)
 .debug_frame   0x00004ffc       0x70 /home/leon/git/swp-report/iMX6_Platform_SDK/output/mx6sl/lib/liblwip.a(mx6_lwip.o)
 .debug_frame   0x0000506c       0x30 /home/leon/git/swp-report/iMX6_Platform_SDK/output/mx6sl/lib/liblwip.a(sys_arch.o)
 .debug_frame   0x0000509c       0x70 /home/leon/git/swp-report/iMX6_Platform_SDK/output/mx6sl/lib/liblwip.a(icmp.o)
 .debug_frame   0x0000510c       0xd0 /home/leon/git/swp-report/iMX6_Platform_SDK/output/mx6sl/lib/liblwip.a(asn1_dec.o)
 .debug_frame   0x000051dc      0x150 /home/leon/git/swp-report/iMX6_Platform_SDK/output/mx6sl/lib/liblwip.a(asn1_enc.o)
 .debug_frame   0x0000532c       0x28 /home/leon/riotboard/arm-2012.09/bin/../arm-none-eabi/lib//libc.a(lib_a-abort.o)
 .debug_frame   0x00005354       0x40 /home/leon/riotboard/arm-2012.09/bin/../arm-none-eabi/lib//libc.a(lib_a-assert.o)
 .debug_frame   0x00005394       0x20 /home/leon/riotboard/arm-2012.09/bin/../arm-none-eabi/lib//libc.a(lib_a-bzero.o)
 .debug_frame   0x000053b4       0x48 /home/leon/riotboard/arm-2012.09/bin/../arm-none-eabi/lib//libc.a(lib_a-fflush.o)
 .debug_frame   0x000053fc      0x134 /home/leon/riotboard/arm-2012.09/bin/../arm-none-eabi/lib//libc.a(lib_a-findfp.o)
 .debug_frame   0x00005530       0x54 /home/leon/riotboard/arm-2012.09/bin/../arm-none-eabi/lib//libc.a(lib_a-fiprintf.o)
 .debug_frame   0x00005584       0x48 /home/leon/riotboard/arm-2012.09/bin/../arm-none-eabi/lib//libc.a(lib_a-fputc.o)
 .debug_frame   0x000055cc       0x50 /home/leon/riotboard/arm-2012.09/bin/../arm-none-eabi/lib//libc.a(lib_a-freer.o)
 .debug_frame   0x0000561c       0x54 /home/leon/riotboard/arm-2012.09/bin/../arm-none-eabi/lib//libc.a(lib_a-fwalk.o)
 .debug_frame   0x00005670       0x2c /home/leon/riotboard/arm-2012.09/bin/../arm-none-eabi/lib//libc.a(lib_a-init.o)
 .debug_frame   0x0000569c       0x40 /home/leon/riotboard/arm-2012.09/bin/../arm-none-eabi/lib//libc.a(lib_a-malloc.o)
 .debug_frame   0x000056dc       0x38 /home/leon/riotboard/arm-2012.09/bin/../arm-none-eabi/lib//libc.a(lib_a-mallocr.o)
 .debug_frame   0x00005714       0x28 /home/leon/riotboard/arm-2012.09/bin/../arm-none-eabi/lib//libc.a(lib_a-memcmp.o)
 .debug_frame   0x0000573c       0x30 /home/leon/riotboard/arm-2012.09/bin/../arm-none-eabi/lib//libc.a(lib_a-memcpy.o)
 .debug_frame   0x0000576c       0x28 /home/leon/riotboard/arm-2012.09/bin/../arm-none-eabi/lib//libc.a(lib_a-memset.o)
 .debug_frame   0x00005794       0x30 /home/leon/riotboard/arm-2012.09/bin/../arm-none-eabi/lib//libc.a(lib_a-mlock.o)
 .debug_frame   0x000057c4       0x58 /home/leon/riotboard/arm-2012.09/bin/../arm-none-eabi/lib//libc.a(lib_a-printf.o)
 .debug_frame   0x0000581c       0x48 /home/leon/riotboard/arm-2012.09/bin/../arm-none-eabi/lib//libc.a(lib_a-putc.o)
 .debug_frame   0x00005864       0x38 /home/leon/riotboard/arm-2012.09/bin/../arm-none-eabi/lib//libc.a(lib_a-rand.o)
 .debug_frame   0x0000589c       0x28 /home/leon/riotboard/arm-2012.09/bin/../arm-none-eabi/lib//libc.a(lib_a-realloc.o)
 .debug_frame   0x000058c4       0x38 /home/leon/riotboard/arm-2012.09/bin/../arm-none-eabi/lib//libc.a(lib_a-reallocr.o)
 .debug_frame   0x000058fc       0x3c /home/leon/riotboard/arm-2012.09/bin/../arm-none-eabi/lib//libc.a(lib_a-rget.o)
 .debug_frame   0x00005938       0x2c /home/leon/riotboard/arm-2012.09/bin/../arm-none-eabi/lib//libc.a(lib_a-sbrkr.o)
 .debug_frame   0x00005964       0xc0 /home/leon/riotboard/arm-2012.09/bin/../arm-none-eabi/lib//libc.a(lib_a-signal.o)
 .debug_frame   0x00005a24       0x44 /home/leon/riotboard/arm-2012.09/bin/../arm-none-eabi/lib//libc.a(lib_a-signalr.o)
 .debug_frame   0x00005a68       0x88 /home/leon/riotboard/arm-2012.09/bin/../arm-none-eabi/lib//libc.a(lib_a-stdio.o)
 .debug_frame   0x00005af0       0x30 /home/leon/riotboard/arm-2012.09/bin/../arm-none-eabi/lib//libc.a(lib_a-strcmp.o)
 .debug_frame   0x00005b20       0x20 /home/leon/riotboard/arm-2012.09/bin/../arm-none-eabi/lib//libc.a(lib_a-strlen.o)
 .debug_frame   0x00005b40       0x28 /home/leon/riotboard/arm-2012.09/bin/../arm-none-eabi/lib//libc.a(lib_a-strncmp.o)
 .debug_frame   0x00005b68       0x7c /home/leon/riotboard/arm-2012.09/bin/../arm-none-eabi/lib//libc.a(lib_a-vfiprintf.o)
 .debug_frame   0x00005be4       0x58 /home/leon/riotboard/arm-2012.09/bin/../arm-none-eabi/lib//libc.a(lib_a-vfprintf.o)
 .debug_frame   0x00005c3c       0x40 /home/leon/riotboard/arm-2012.09/bin/../arm-none-eabi/lib//libc.a(lib_a-vprintf.o)
 .debug_frame   0x00005c7c       0x3c /home/leon/riotboard/arm-2012.09/bin/../arm-none-eabi/lib//libc.a(lib_a-wbuf.o)
 .debug_frame   0x00005cb8       0x2c /home/leon/riotboard/arm-2012.09/bin/../arm-none-eabi/lib//libc.a(lib_a-writer.o)
 .debug_frame   0x00005ce4       0x2c /home/leon/riotboard/arm-2012.09/bin/../arm-none-eabi/lib//libc.a(lib_a-wsetup.o)
 .debug_frame   0x00005d10       0x2c /home/leon/riotboard/arm-2012.09/bin/../arm-none-eabi/lib//libc.a(lib_a-closer.o)
 .debug_frame   0x00005d3c       0x64 /home/leon/riotboard/arm-2012.09/bin/../arm-none-eabi/lib//libc.a(lib_a-dtoa.o)
 .debug_frame   0x00005da0       0x3c /home/leon/riotboard/arm-2012.09/bin/../arm-none-eabi/lib//libc.a(lib_a-fclose.o)
 .debug_frame   0x00005ddc       0x50 /home/leon/riotboard/arm-2012.09/bin/../arm-none-eabi/lib//libc.a(lib_a-fputwc.o)
 .debug_frame   0x00005e2c       0x38 /home/leon/riotboard/arm-2012.09/bin/../arm-none-eabi/lib//libc.a(lib_a-fvwrite.o)
 .debug_frame   0x00005e64       0x98 /home/leon/riotboard/arm-2012.09/bin/../arm-none-eabi/lib//libc.a(lib_a-locale.o)
 .debug_frame   0x00005efc       0x2c /home/leon/riotboard/arm-2012.09/bin/../arm-none-eabi/lib//libc.a(lib_a-lseekr.o)
 .debug_frame   0x00005f28       0x30 /home/leon/riotboard/arm-2012.09/bin/../arm-none-eabi/lib//libc.a(lib_a-makebuf.o)
 .debug_frame   0x00005f58       0x2c /home/leon/riotboard/arm-2012.09/bin/../arm-none-eabi/lib//libc.a(lib_a-memchr.o)
 .debug_frame   0x00005f84       0x2c /home/leon/riotboard/arm-2012.09/bin/../arm-none-eabi/lib//libc.a(lib_a-memmove.o)
 .debug_frame   0x00005fb0      0x220 /home/leon/riotboard/arm-2012.09/bin/../arm-none-eabi/lib//libc.a(lib_a-mprec.o)
 .debug_frame   0x000061d0       0x2c /home/leon/riotboard/arm-2012.09/bin/../arm-none-eabi/lib//libc.a(lib_a-readr.o)
 .debug_frame   0x000061fc       0x68 /home/leon/riotboard/arm-2012.09/bin/../arm-none-eabi/lib//libc.a(lib_a-reent.o)
 .debug_frame   0x00006264       0x44 /home/leon/riotboard/arm-2012.09/bin/../arm-none-eabi/lib//libc.a(lib_a-refill.o)
 .debug_frame   0x000062a8       0x20 /home/leon/riotboard/arm-2012.09/bin/../arm-none-eabi/lib//libc.a(lib_a-s_fpclassify.o)
 .debug_frame   0x000062c8       0x58 /home/leon/riotboard/arm-2012.09/bin/../arm-none-eabi/lib//libc.a(lib_a-wcrtomb.o)
 .debug_frame   0x00006320       0x44 /home/leon/riotboard/arm-2012.09/bin/../arm-none-eabi/lib//libc.a(lib_a-wctomb_r.o)
 .debug_frame   0x00006364       0x28 /home/leon/riotboard/arm-2012.09/bin/../arm-none-eabi/lib//libc.a(lib_a-callocr.o)
 .debug_frame   0x0000638c       0x2c /home/leon/riotboard/arm-2012.09/bin/../arm-none-eabi/lib//libc.a(lib_a-fstatr.o)
 .debug_frame   0x000063b8       0x2c /home/leon/riotboard/arm-2012.09/bin/../arm-none-eabi/lib//libc.a(lib_a-isattyr.o)
 .debug_frame   0x000063e4       0x20 /home/leon/riotboard/arm-2012.09/bin/../lib/gcc/arm-none-eabi/4.7.2//libgcc.a(_udivsi3.o)
 .debug_frame   0x00006404       0x20 /home/leon/riotboard/arm-2012.09/bin/../lib/gcc/arm-none-eabi/4.7.2//libgcc.a(_divsi3.o)
 .debug_frame   0x00006424       0x54 /home/leon/riotboard/arm-2012.09/bin/../lib/gcc/arm-none-eabi/4.7.2//libgcc.a(bpabi.o)
 .debug_frame   0x00006478       0x38 /home/leon/riotboard/arm-2012.09/bin/../lib/gcc/arm-none-eabi/4.7.2//libgcc.a(_divdi3.o)
 .debug_frame   0x000064b0       0x38 /home/leon/riotboard/arm-2012.09/bin/../lib/gcc/arm-none-eabi/4.7.2//libgcc.a(_udivdi3.o)
 .debug_frame   0x000064e8      0x290 /home/leon/git/swp-report/iMX6_Platform_SDK/output/mx6sl/lib/libsdk.a(runtime_support.o)
 .debug_frame   0x00006778      0x178 /home/leon/git/swp-report/iMX6_Platform_SDK/output/mx6sl/lib/libsdk.a(gpio.o)

.debug_ranges   0x00000000      0x2c0
 .debug_ranges  0x00000000       0x18 /home/leon/git/swp-report/iMX6_Platform_SDK/output/mx6sl/ping/evk_rev_a/obj/apps/ping/src/ping_main.o
 .debug_ranges  0x00000018       0x18 /home/leon/git/swp-report/iMX6_Platform_SDK/output/mx6sl/lib/libsdk.a(system_util.o)
 .debug_ranges  0x00000030       0x18 /home/leon/git/swp-report/iMX6_Platform_SDK/output/mx6sl/lib/liblwip.a(netif.o)
 .debug_ranges  0x00000048       0xb0 /home/leon/git/swp-report/iMX6_Platform_SDK/output/mx6sl/lib/liblwip.a(mib2.o)
 .debug_ranges  0x000000f8       0x60 /home/leon/git/swp-report/iMX6_Platform_SDK/output/mx6sl/lib/liblwip.a(mib_structs.o)
 .debug_ranges  0x00000158       0xc0 /home/leon/git/swp-report/iMX6_Platform_SDK/output/mx6sl/lib/liblwip.a(msg_in.o)
 .debug_ranges  0x00000218       0x18 /home/leon/git/swp-report/iMX6_Platform_SDK/output/mx6sl/lib/liblwip.a(tcp.o)
 .debug_ranges  0x00000230       0x78 /home/leon/git/swp-report/iMX6_Platform_SDK/output/mx6sl/lib/liblwip.a(tcp_out.o)
 .debug_ranges  0x000002a8       0x18 /home/leon/git/swp-report/iMX6_Platform_SDK/output/mx6sl/lib/liblwip.a(icmp.o)

Cross Reference Table

Symbol                                            File
IRQ_HDLR                                          /home/leon/git/swp-report/iMX6_Platform_SDK/output/mx6sl/lib/libsdk.a(interrupt.o)
                                                  /home/leon/git/swp-report/iMX6_Platform_SDK/output/mx6sl/lib/libsdk.a(vectors.o)
PLL1_OUTPUT                                       /home/leon/git/swp-report/iMX6_Platform_SDK/output/mx6sl/lib/libsdk.a(ccm_pll.o)
PLL2_OUTPUT                                       /home/leon/git/swp-report/iMX6_Platform_SDK/output/mx6sl/lib/libsdk.a(ccm_pll.o)
PLL3_OUTPUT                                       /home/leon/git/swp-report/iMX6_Platform_SDK/output/mx6sl/lib/libsdk.a(ccm_pll.o)
PLL4_OUTPUT                                       /home/leon/git/swp-report/iMX6_Platform_SDK/output/mx6sl/lib/libsdk.a(ccm_pll.o)
PLL5_OUTPUT                                       /home/leon/git/swp-report/iMX6_Platform_SDK/output/mx6sl/lib/libsdk.a(ccm_pll.o)
_Balloc                                           /home/leon/riotboard/arm-2012.09/bin/../arm-none-eabi/lib//libc.a(lib_a-mprec.o)
                                                  /home/leon/riotboard/arm-2012.09/bin/../arm-none-eabi/lib//libc.a(lib_a-dtoa.o)
_Bfree                                            /home/leon/riotboard/arm-2012.09/bin/../arm-none-eabi/lib//libc.a(lib_a-mprec.o)
                                                  /home/leon/riotboard/arm-2012.09/bin/../arm-none-eabi/lib//libc.a(lib_a-dtoa.o)
_ITM_deregisterTMCloneTable                       /home/leon/riotboard/arm-2012.09/bin/../lib/gcc/arm-none-eabi/4.7.2//crtbegin.o
_ITM_registerTMCloneTable                         /home/leon/riotboard/arm-2012.09/bin/../lib/gcc/arm-none-eabi/4.7.2//crtbegin.o
_Jv_RegisterClasses                               /home/leon/riotboard/arm-2012.09/bin/../lib/gcc/arm-none-eabi/4.7.2//crtbegin.o
_PathLocale                                       /home/leon/riotboard/arm-2012.09/bin/../arm-none-eabi/lib//libc.a(lib_a-locale.o)
__TMC_END__                                       /home/leon/riotboard/arm-2012.09/bin/../lib/gcc/arm-none-eabi/4.7.2//crtend.o
                                                  /home/leon/riotboard/arm-2012.09/bin/../lib/gcc/arm-none-eabi/4.7.2//crtbegin.o
__adddf3                                          /home/leon/riotboard/arm-2012.09/bin/../lib/gcc/arm-none-eabi/4.7.2//libgcc.a(_arm_addsubdf3.o)
__aeabi_cdcmpeq                                   /home/leon/riotboard/arm-2012.09/bin/../lib/gcc/arm-none-eabi/4.7.2//libgcc.a(_arm_cmpdf2.o)
__aeabi_cdcmple                                   /home/leon/riotboard/arm-2012.09/bin/../lib/gcc/arm-none-eabi/4.7.2//libgcc.a(_arm_cmpdf2.o)
__aeabi_cdrcmple                                  /home/leon/riotboard/arm-2012.09/bin/../lib/gcc/arm-none-eabi/4.7.2//libgcc.a(_arm_cmpdf2.o)
__aeabi_d2iz                                      /home/leon/riotboard/arm-2012.09/bin/../lib/gcc/arm-none-eabi/4.7.2//libgcc.a(_arm_fixdfsi.o)
                                                  /home/leon/riotboard/arm-2012.09/bin/../arm-none-eabi/lib//libc.a(lib_a-dtoa.o)
__aeabi_dadd                                      /home/leon/riotboard/arm-2012.09/bin/../lib/gcc/arm-none-eabi/4.7.2//libgcc.a(_arm_addsubdf3.o)
                                                  /home/leon/riotboard/arm-2012.09/bin/../arm-none-eabi/lib//libc.a(lib_a-dtoa.o)
__aeabi_dcmpeq                                    /home/leon/riotboard/arm-2012.09/bin/../lib/gcc/arm-none-eabi/4.7.2//libgcc.a(_arm_cmpdf2.o)
                                                  /home/leon/riotboard/arm-2012.09/bin/../arm-none-eabi/lib//libc.a(lib_a-dtoa.o)
                                                  /home/leon/riotboard/arm-2012.09/bin/../arm-none-eabi/lib//libc.a(lib_a-vfprintf.o)
__aeabi_dcmpge                                    /home/leon/riotboard/arm-2012.09/bin/../lib/gcc/arm-none-eabi/4.7.2//libgcc.a(_arm_cmpdf2.o)
                                                  /home/leon/riotboard/arm-2012.09/bin/../arm-none-eabi/lib//libc.a(lib_a-dtoa.o)
__aeabi_dcmpgt                                    /home/leon/riotboard/arm-2012.09/bin/../lib/gcc/arm-none-eabi/4.7.2//libgcc.a(_arm_cmpdf2.o)
                                                  /home/leon/riotboard/arm-2012.09/bin/../arm-none-eabi/lib//libc.a(lib_a-dtoa.o)
__aeabi_dcmple                                    /home/leon/riotboard/arm-2012.09/bin/../lib/gcc/arm-none-eabi/4.7.2//libgcc.a(_arm_cmpdf2.o)
__aeabi_dcmplt                                    /home/leon/riotboard/arm-2012.09/bin/../lib/gcc/arm-none-eabi/4.7.2//libgcc.a(_arm_cmpdf2.o)
                                                  /home/leon/riotboard/arm-2012.09/bin/../arm-none-eabi/lib//libc.a(lib_a-dtoa.o)
                                                  /home/leon/riotboard/arm-2012.09/bin/../arm-none-eabi/lib//libc.a(lib_a-vfprintf.o)
__aeabi_ddiv                                      /home/leon/riotboard/arm-2012.09/bin/../lib/gcc/arm-none-eabi/4.7.2//libgcc.a(_arm_muldivdf3.o)
                                                  /home/leon/riotboard/arm-2012.09/bin/../arm-none-eabi/lib//libc.a(lib_a-mprec.o)
                                                  /home/leon/riotboard/arm-2012.09/bin/../arm-none-eabi/lib//libc.a(lib_a-dtoa.o)
__aeabi_dmul                                      /home/leon/riotboard/arm-2012.09/bin/../lib/gcc/arm-none-eabi/4.7.2//libgcc.a(_arm_muldivdf3.o)
                                                  /home/leon/riotboard/arm-2012.09/bin/../arm-none-eabi/lib//libc.a(lib_a-mprec.o)
                                                  /home/leon/riotboard/arm-2012.09/bin/../arm-none-eabi/lib//libc.a(lib_a-dtoa.o)
__aeabi_drsub                                     /home/leon/riotboard/arm-2012.09/bin/../lib/gcc/arm-none-eabi/4.7.2//libgcc.a(_arm_addsubdf3.o)
__aeabi_dsub                                      /home/leon/riotboard/arm-2012.09/bin/../lib/gcc/arm-none-eabi/4.7.2//libgcc.a(_arm_addsubdf3.o)
                                                  /home/leon/riotboard/arm-2012.09/bin/../arm-none-eabi/lib//libc.a(lib_a-dtoa.o)
__aeabi_f2d                                       /home/leon/riotboard/arm-2012.09/bin/../lib/gcc/arm-none-eabi/4.7.2//libgcc.a(_arm_addsubdf3.o)
__aeabi_i2d                                       /home/leon/riotboard/arm-2012.09/bin/../lib/gcc/arm-none-eabi/4.7.2//libgcc.a(_arm_addsubdf3.o)
                                                  /home/leon/riotboard/arm-2012.09/bin/../arm-none-eabi/lib//libc.a(lib_a-dtoa.o)
__aeabi_idiv                                      /home/leon/riotboard/arm-2012.09/bin/../lib/gcc/arm-none-eabi/4.7.2//libgcc.a(_divsi3.o)
                                                  /home/leon/git/swp-report/iMX6_Platform_SDK/output/mx6sl/lib/liblwip.a(tcp_in.o)
__aeabi_idiv0                                     /home/leon/riotboard/arm-2012.09/bin/../lib/gcc/arm-none-eabi/4.7.2//libgcc.a(_dvmd_tls.o)
                                                  /home/leon/riotboard/arm-2012.09/bin/../lib/gcc/arm-none-eabi/4.7.2//libgcc.a(_divsi3.o)
                                                  /home/leon/riotboard/arm-2012.09/bin/../lib/gcc/arm-none-eabi/4.7.2//libgcc.a(_udivsi3.o)
__aeabi_idivmod                                   /home/leon/riotboard/arm-2012.09/bin/../lib/gcc/arm-none-eabi/4.7.2//libgcc.a(_divsi3.o)
__aeabi_l2d                                       /home/leon/riotboard/arm-2012.09/bin/../lib/gcc/arm-none-eabi/4.7.2//libgcc.a(_arm_addsubdf3.o)
__aeabi_ldiv0                                     /home/leon/riotboard/arm-2012.09/bin/../lib/gcc/arm-none-eabi/4.7.2//libgcc.a(_dvmd_tls.o)
                                                  /home/leon/riotboard/arm-2012.09/bin/../lib/gcc/arm-none-eabi/4.7.2//libgcc.a(_aeabi_uldivmod.o)
__aeabi_ui2d                                      /home/leon/riotboard/arm-2012.09/bin/../lib/gcc/arm-none-eabi/4.7.2//libgcc.a(_arm_addsubdf3.o)
                                                  /home/leon/riotboard/arm-2012.09/bin/../arm-none-eabi/lib//libc.a(lib_a-dtoa.o)
__aeabi_uidiv                                     /home/leon/riotboard/arm-2012.09/bin/../lib/gcc/arm-none-eabi/4.7.2//libgcc.a(_udivsi3.o)
                                                  /home/leon/riotboard/arm-2012.09/bin/../lib/gcc/arm-none-eabi/4.7.2//libgcc.a(_udivdi3.o)
                                                  /home/leon/riotboard/arm-2012.09/bin/../lib/gcc/arm-none-eabi/4.7.2//libgcc.a(_divdi3.o)
                                                  /home/leon/riotboard/arm-2012.09/bin/../arm-none-eabi/lib//libc.a(lib_a-dtoa.o)
                                                  /home/leon/git/swp-report/iMX6_Platform_SDK/output/mx6sl/lib/libsdk.a(ccm_pll.o)
__aeabi_uidivmod                                  /home/leon/riotboard/arm-2012.09/bin/../lib/gcc/arm-none-eabi/4.7.2//libgcc.a(_udivsi3.o)
                                                  /home/leon/riotboard/arm-2012.09/bin/../lib/gcc/arm-none-eabi/4.7.2//libgcc.a(_udivdi3.o)
                                                  /home/leon/riotboard/arm-2012.09/bin/../lib/gcc/arm-none-eabi/4.7.2//libgcc.a(_divdi3.o)
                                                  /home/leon/git/swp-report/iMX6_Platform_SDK/output/mx6sl/lib/liblwip.a(igmp.o)
__aeabi_ul2d                                      /home/leon/riotboard/arm-2012.09/bin/../lib/gcc/arm-none-eabi/4.7.2//libgcc.a(_arm_addsubdf3.o)
__aeabi_uldivmod                                  /home/leon/riotboard/arm-2012.09/bin/../lib/gcc/arm-none-eabi/4.7.2//libgcc.a(_aeabi_uldivmod.o)
                                                  /home/leon/git/swp-report/iMX6_Platform_SDK/output/mx6sl/lib/libsdk.a(runtime_support.o)
                                                  /home/leon/riotboard/arm-2012.09/bin/../arm-none-eabi/lib//libc.a(lib_a-vfprintf.o)
                                                  /home/leon/riotboard/arm-2012.09/bin/../arm-none-eabi/lib//libc.a(lib_a-vfiprintf.o)
                                                  /home/leon/git/swp-report/iMX6_Platform_SDK/output/mx6sl/lib/liblwip.a(sys_arch.o)
                                                  /home/leon/git/swp-report/iMX6_Platform_SDK/output/mx6sl/lib/libsdk.a(timer.o)
__any_on                                          /home/leon/riotboard/arm-2012.09/bin/../arm-none-eabi/lib//libc.a(lib_a-mprec.o)
__ascii_wctomb                                    /home/leon/riotboard/arm-2012.09/bin/../arm-none-eabi/lib//libc.a(lib_a-wctomb_r.o)
__assert                                          /home/leon/riotboard/arm-2012.09/bin/../arm-none-eabi/lib//libc.a(lib_a-assert.o)
__assert_func                                     /home/leon/riotboard/arm-2012.09/bin/../arm-none-eabi/lib//libc.a(lib_a-assert.o)
                                                  /home/leon/git/swp-report/iMX6_Platform_SDK/output/mx6sl/lib/libboard_evk_rev_a.a(uart_iomux_config.o)
                                                  /home/leon/git/swp-report/iMX6_Platform_SDK/output/mx6sl/lib/libsdk.a(gic.o)
__b2d                                             /home/leon/riotboard/arm-2012.09/bin/../arm-none-eabi/lib//libc.a(lib_a-mprec.o)
__bss_end__                                       /home/leon/git/swp-report/iMX6_Platform_SDK/output/mx6sl/lib/libsdk.a(startup.o)
__bss_start__                                     /home/leon/git/swp-report/iMX6_Platform_SDK/output/mx6sl/lib/libsdk.a(startup.o)
__clzsi2                                          /home/leon/riotboard/arm-2012.09/bin/../lib/gcc/arm-none-eabi/4.7.2//libgcc.a(_clzsi2.o)
                                                  /home/leon/riotboard/arm-2012.09/bin/../lib/gcc/arm-none-eabi/4.7.2//libgcc.a(_udivdi3.o)
                                                  /home/leon/riotboard/arm-2012.09/bin/../lib/gcc/arm-none-eabi/4.7.2//libgcc.a(_divdi3.o)
__cmpdf2                                          /home/leon/riotboard/arm-2012.09/bin/../lib/gcc/arm-none-eabi/4.7.2//libgcc.a(_arm_cmpdf2.o)
__copybits                                        /home/leon/riotboard/arm-2012.09/bin/../arm-none-eabi/lib//libc.a(lib_a-mprec.o)
__d2b                                             /home/leon/riotboard/arm-2012.09/bin/../arm-none-eabi/lib//libc.a(lib_a-mprec.o)
                                                  /home/leon/riotboard/arm-2012.09/bin/../arm-none-eabi/lib//libc.a(lib_a-dtoa.o)
__deregister_frame_info                           /home/leon/riotboard/arm-2012.09/bin/../lib/gcc/arm-none-eabi/4.7.2//crtbegin.o
__divdf3                                          /home/leon/riotboard/arm-2012.09/bin/../lib/gcc/arm-none-eabi/4.7.2//libgcc.a(_arm_muldivdf3.o)
__divdi3                                          /home/leon/riotboard/arm-2012.09/bin/../lib/gcc/arm-none-eabi/4.7.2//libgcc.a(_divdi3.o)
                                                  /home/leon/riotboard/arm-2012.09/bin/../lib/gcc/arm-none-eabi/4.7.2//libgcc.a(bpabi.o)
__divsi3                                          /home/leon/riotboard/arm-2012.09/bin/../lib/gcc/arm-none-eabi/4.7.2//libgcc.a(_divsi3.o)
__dso_handle                                      /home/leon/riotboard/arm-2012.09/bin/../lib/gcc/arm-none-eabi/4.7.2//crtbegin.o
__env                                             /home/leon/git/swp-report/iMX6_Platform_SDK/output/mx6sl/lib/libsdk.a(runtime_support.o)
__eqdf2                                           /home/leon/riotboard/arm-2012.09/bin/../lib/gcc/arm-none-eabi/4.7.2//libgcc.a(_arm_cmpdf2.o)
__extendsfdf2                                     /home/leon/riotboard/arm-2012.09/bin/../lib/gcc/arm-none-eabi/4.7.2//libgcc.a(_arm_addsubdf3.o)
__fixdfsi                                         /home/leon/riotboard/arm-2012.09/bin/../lib/gcc/arm-none-eabi/4.7.2//libgcc.a(_arm_fixdfsi.o)
__floatdidf                                       /home/leon/riotboard/arm-2012.09/bin/../lib/gcc/arm-none-eabi/4.7.2//libgcc.a(_arm_addsubdf3.o)
__floatsidf                                       /home/leon/riotboard/arm-2012.09/bin/../lib/gcc/arm-none-eabi/4.7.2//libgcc.a(_arm_addsubdf3.o)
__floatundidf                                     /home/leon/riotboard/arm-2012.09/bin/../lib/gcc/arm-none-eabi/4.7.2//libgcc.a(_arm_addsubdf3.o)
__floatunsidf                                     /home/leon/riotboard/arm-2012.09/bin/../lib/gcc/arm-none-eabi/4.7.2//libgcc.a(_arm_addsubdf3.o)
__fp_lock_all                                     /home/leon/riotboard/arm-2012.09/bin/../arm-none-eabi/lib//libc.a(lib_a-findfp.o)
__fp_unlock_all                                   /home/leon/riotboard/arm-2012.09/bin/../arm-none-eabi/lib//libc.a(lib_a-findfp.o)
__fpclassifyd                                     /home/leon/riotboard/arm-2012.09/bin/../arm-none-eabi/lib//libc.a(lib_a-s_fpclassify.o)
                                                  /home/leon/riotboard/arm-2012.09/bin/../arm-none-eabi/lib//libc.a(lib_a-vfprintf.o)
__gedf2                                           /home/leon/riotboard/arm-2012.09/bin/../lib/gcc/arm-none-eabi/4.7.2//libgcc.a(_arm_cmpdf2.o)
__gnu_ldivmod_helper                              /home/leon/riotboard/arm-2012.09/bin/../lib/gcc/arm-none-eabi/4.7.2//libgcc.a(bpabi.o)
__gnu_uldivmod_helper                             /home/leon/riotboard/arm-2012.09/bin/../lib/gcc/arm-none-eabi/4.7.2//libgcc.a(bpabi.o)
                                                  /home/leon/riotboard/arm-2012.09/bin/../lib/gcc/arm-none-eabi/4.7.2//libgcc.a(_aeabi_uldivmod.o)
__gtdf2                                           /home/leon/riotboard/arm-2012.09/bin/../lib/gcc/arm-none-eabi/4.7.2//libgcc.a(_arm_cmpdf2.o)
__hab_data                                        /home/leon/git/swp-report/iMX6_Platform_SDK/output/mx6sl/ping/evk_rev_a/obj/apps/common/ivt.o
__hi0bits                                         /home/leon/riotboard/arm-2012.09/bin/../arm-none-eabi/lib//libc.a(lib_a-mprec.o)
                                                  /home/leon/riotboard/arm-2012.09/bin/../arm-none-eabi/lib//libc.a(lib_a-dtoa.o)
__i2b                                             /home/leon/riotboard/arm-2012.09/bin/../arm-none-eabi/lib//libc.a(lib_a-mprec.o)
                                                  /home/leon/riotboard/arm-2012.09/bin/../arm-none-eabi/lib//libc.a(lib_a-dtoa.o)
__init_array_end                                  /home/leon/riotboard/arm-2012.09/bin/../arm-none-eabi/lib//libc.a(lib_a-init.o)
__init_array_start                                /home/leon/riotboard/arm-2012.09/bin/../arm-none-eabi/lib//libc.a(lib_a-init.o)
__l1_page_table_start                             /home/leon/git/swp-report/iMX6_Platform_SDK/output/mx6sl/lib/libsdk.a(mmu.o)
__ledf2                                           /home/leon/riotboard/arm-2012.09/bin/../lib/gcc/arm-none-eabi/4.7.2//libgcc.a(_arm_cmpdf2.o)
__libc_init_array                                 /home/leon/riotboard/arm-2012.09/bin/../arm-none-eabi/lib//libc.a(lib_a-init.o)
                                                  /home/leon/git/swp-report/iMX6_Platform_SDK/output/mx6sl/lib/libsdk.a(startup.o)
__lo0bits                                         /home/leon/riotboard/arm-2012.09/bin/../arm-none-eabi/lib//libc.a(lib_a-mprec.o)
__locale_charset                                  /home/leon/riotboard/arm-2012.09/bin/../arm-none-eabi/lib//libc.a(lib_a-locale.o)
                                                  /home/leon/riotboard/arm-2012.09/bin/../arm-none-eabi/lib//libc.a(lib_a-wctomb_r.o)
                                                  /home/leon/riotboard/arm-2012.09/bin/../arm-none-eabi/lib//libc.a(lib_a-wcrtomb.o)
__locale_cjk_lang                                 /home/leon/riotboard/arm-2012.09/bin/../arm-none-eabi/lib//libc.a(lib_a-locale.o)
__locale_mb_cur_max                               /home/leon/riotboard/arm-2012.09/bin/../arm-none-eabi/lib//libc.a(lib_a-locale.o)
                                                  /home/leon/riotboard/arm-2012.09/bin/../arm-none-eabi/lib//libc.a(lib_a-fputwc.o)
__locale_msgcharset                               /home/leon/riotboard/arm-2012.09/bin/../arm-none-eabi/lib//libc.a(lib_a-locale.o)
__lshift                                          /home/leon/riotboard/arm-2012.09/bin/../arm-none-eabi/lib//libc.a(lib_a-mprec.o)
                                                  /home/leon/riotboard/arm-2012.09/bin/../arm-none-eabi/lib//libc.a(lib_a-dtoa.o)
__ltdf2                                           /home/leon/riotboard/arm-2012.09/bin/../lib/gcc/arm-none-eabi/4.7.2//libgcc.a(_arm_cmpdf2.o)
__malloc_av_                                      /home/leon/riotboard/arm-2012.09/bin/../arm-none-eabi/lib//libc.a(lib_a-mallocr.o)
                                                  /home/leon/riotboard/arm-2012.09/bin/../arm-none-eabi/lib//libc.a(lib_a-reallocr.o)
                                                  /home/leon/riotboard/arm-2012.09/bin/../arm-none-eabi/lib//libc.a(lib_a-freer.o)
__malloc_current_mallinfo                         /home/leon/riotboard/arm-2012.09/bin/../arm-none-eabi/lib//libc.a(lib_a-mallocr.o)
                                                  /home/leon/riotboard/arm-2012.09/bin/../arm-none-eabi/lib//libc.a(lib_a-freer.o)
__malloc_lock                                     /home/leon/riotboard/arm-2012.09/bin/../arm-none-eabi/lib//libc.a(lib_a-mlock.o)
                                                  /home/leon/riotboard/arm-2012.09/bin/../arm-none-eabi/lib//libc.a(lib_a-reallocr.o)
                                                  /home/leon/riotboard/arm-2012.09/bin/../arm-none-eabi/lib//libc.a(lib_a-mallocr.o)
                                                  /home/leon/riotboard/arm-2012.09/bin/../arm-none-eabi/lib//libc.a(lib_a-freer.o)
__malloc_max_sbrked_mem                           /home/leon/riotboard/arm-2012.09/bin/../arm-none-eabi/lib//libc.a(lib_a-mallocr.o)
__malloc_max_total_mem                            /home/leon/riotboard/arm-2012.09/bin/../arm-none-eabi/lib//libc.a(lib_a-mallocr.o)
__malloc_sbrk_base                                /home/leon/riotboard/arm-2012.09/bin/../arm-none-eabi/lib//libc.a(lib_a-mallocr.o)
                                                  /home/leon/riotboard/arm-2012.09/bin/../arm-none-eabi/lib//libc.a(lib_a-freer.o)
__malloc_top_pad                                  /home/leon/riotboard/arm-2012.09/bin/../arm-none-eabi/lib//libc.a(lib_a-mallocr.o)
                                                  /home/leon/riotboard/arm-2012.09/bin/../arm-none-eabi/lib//libc.a(lib_a-freer.o)
__malloc_trim_threshold                           /home/leon/riotboard/arm-2012.09/bin/../arm-none-eabi/lib//libc.a(lib_a-mallocr.o)
                                                  /home/leon/riotboard/arm-2012.09/bin/../arm-none-eabi/lib//libc.a(lib_a-freer.o)
__malloc_unlock                                   /home/leon/riotboard/arm-2012.09/bin/../arm-none-eabi/lib//libc.a(lib_a-mlock.o)
                                                  /home/leon/riotboard/arm-2012.09/bin/../arm-none-eabi/lib//libc.a(lib_a-reallocr.o)
                                                  /home/leon/riotboard/arm-2012.09/bin/../arm-none-eabi/lib//libc.a(lib_a-mallocr.o)
                                                  /home/leon/riotboard/arm-2012.09/bin/../arm-none-eabi/lib//libc.a(lib_a-freer.o)
__mb_cur_max                                      /home/leon/riotboard/arm-2012.09/bin/../arm-none-eabi/lib//libc.a(lib_a-locale.o)
__mcmp                                            /home/leon/riotboard/arm-2012.09/bin/../arm-none-eabi/lib//libc.a(lib_a-mprec.o)
                                                  /home/leon/riotboard/arm-2012.09/bin/../arm-none-eabi/lib//libc.a(lib_a-dtoa.o)
__mdiff                                           /home/leon/riotboard/arm-2012.09/bin/../arm-none-eabi/lib//libc.a(lib_a-mprec.o)
                                                  /home/leon/riotboard/arm-2012.09/bin/../arm-none-eabi/lib//libc.a(lib_a-dtoa.o)
__mlocale_changed                                 /home/leon/riotboard/arm-2012.09/bin/../arm-none-eabi/lib//libc.a(lib_a-locale.o)
__mprec_bigtens                                   /home/leon/riotboard/arm-2012.09/bin/../arm-none-eabi/lib//libc.a(lib_a-mprec.o)
                                                  /home/leon/riotboard/arm-2012.09/bin/../arm-none-eabi/lib//libc.a(lib_a-dtoa.o)
__mprec_tens                                      /home/leon/riotboard/arm-2012.09/bin/../arm-none-eabi/lib//libc.a(lib_a-mprec.o)
                                                  /home/leon/riotboard/arm-2012.09/bin/../arm-none-eabi/lib//libc.a(lib_a-dtoa.o)
__mprec_tinytens                                  /home/leon/riotboard/arm-2012.09/bin/../arm-none-eabi/lib//libc.a(lib_a-mprec.o)
__muldf3                                          /home/leon/riotboard/arm-2012.09/bin/../lib/gcc/arm-none-eabi/4.7.2//libgcc.a(_arm_muldivdf3.o)
__multadd                                         /home/leon/riotboard/arm-2012.09/bin/../arm-none-eabi/lib//libc.a(lib_a-mprec.o)
                                                  /home/leon/riotboard/arm-2012.09/bin/../arm-none-eabi/lib//libc.a(lib_a-dtoa.o)
__multiply                                        /home/leon/riotboard/arm-2012.09/bin/../arm-none-eabi/lib//libc.a(lib_a-mprec.o)
                                                  /home/leon/riotboard/arm-2012.09/bin/../arm-none-eabi/lib//libc.a(lib_a-dtoa.o)
__nedf2                                           /home/leon/riotboard/arm-2012.09/bin/../lib/gcc/arm-none-eabi/4.7.2//libgcc.a(_arm_cmpdf2.o)
__nlocale_changed                                 /home/leon/riotboard/arm-2012.09/bin/../arm-none-eabi/lib//libc.a(lib_a-locale.o)
__pow5mult                                        /home/leon/riotboard/arm-2012.09/bin/../arm-none-eabi/lib//libc.a(lib_a-mprec.o)
                                                  /home/leon/riotboard/arm-2012.09/bin/../arm-none-eabi/lib//libc.a(lib_a-dtoa.o)
__preinit_array_end                               /home/leon/riotboard/arm-2012.09/bin/../arm-none-eabi/lib//libc.a(lib_a-init.o)
__preinit_array_start                             /home/leon/riotboard/arm-2012.09/bin/../arm-none-eabi/lib//libc.a(lib_a-init.o)
__ram_vectors_end                                 /home/leon/git/swp-report/iMX6_Platform_SDK/output/mx6sl/lib/libsdk.a(startup.o)
__ram_vectors_start                               /home/leon/git/swp-report/iMX6_Platform_SDK/output/mx6sl/lib/libsdk.a(startup.o)
__ratio                                           /home/leon/riotboard/arm-2012.09/bin/../arm-none-eabi/lib//libc.a(lib_a-mprec.o)
__register_frame_info                             /home/leon/riotboard/arm-2012.09/bin/../lib/gcc/arm-none-eabi/4.7.2//crtbegin.o
__s2b                                             /home/leon/riotboard/arm-2012.09/bin/../arm-none-eabi/lib//libc.a(lib_a-mprec.o)
__sclose                                          /home/leon/riotboard/arm-2012.09/bin/../arm-none-eabi/lib//libc.a(lib_a-stdio.o)
                                                  /home/leon/riotboard/arm-2012.09/bin/../arm-none-eabi/lib//libc.a(lib_a-findfp.o)
__seofread                                        /home/leon/riotboard/arm-2012.09/bin/../arm-none-eabi/lib//libc.a(lib_a-stdio.o)
__sfmoreglue                                      /home/leon/riotboard/arm-2012.09/bin/../arm-none-eabi/lib//libc.a(lib_a-findfp.o)
__sfp                                             /home/leon/riotboard/arm-2012.09/bin/../arm-none-eabi/lib//libc.a(lib_a-findfp.o)
__sfp_lock_acquire                                /home/leon/riotboard/arm-2012.09/bin/../arm-none-eabi/lib//libc.a(lib_a-findfp.o)
                                                  /home/leon/riotboard/arm-2012.09/bin/../arm-none-eabi/lib//libc.a(lib_a-fclose.o)
                                                  /home/leon/riotboard/arm-2012.09/bin/../arm-none-eabi/lib//libc.a(lib_a-fwalk.o)
__sfp_lock_release                                /home/leon/riotboard/arm-2012.09/bin/../arm-none-eabi/lib//libc.a(lib_a-findfp.o)
                                                  /home/leon/riotboard/arm-2012.09/bin/../arm-none-eabi/lib//libc.a(lib_a-fclose.o)
                                                  /home/leon/riotboard/arm-2012.09/bin/../arm-none-eabi/lib//libc.a(lib_a-fwalk.o)
__sfvwrite_r                                      /home/leon/riotboard/arm-2012.09/bin/../arm-none-eabi/lib//libc.a(lib_a-fvwrite.o)
                                                  /home/leon/riotboard/arm-2012.09/bin/../arm-none-eabi/lib//libc.a(lib_a-vfiprintf.o)
__sigtramp                                        /home/leon/riotboard/arm-2012.09/bin/../arm-none-eabi/lib//libc.a(lib_a-signal.o)
__sigtramp_r                                      /home/leon/riotboard/arm-2012.09/bin/../arm-none-eabi/lib//libc.a(lib_a-signal.o)
__sinit                                           /home/leon/riotboard/arm-2012.09/bin/../arm-none-eabi/lib//libc.a(lib_a-findfp.o)
                                                  /home/leon/riotboard/arm-2012.09/bin/../arm-none-eabi/lib//libc.a(lib_a-refill.o)
                                                  /home/leon/riotboard/arm-2012.09/bin/../arm-none-eabi/lib//libc.a(lib_a-fputwc.o)
                                                  /home/leon/riotboard/arm-2012.09/bin/../arm-none-eabi/lib//libc.a(lib_a-fclose.o)
                                                  /home/leon/riotboard/arm-2012.09/bin/../arm-none-eabi/lib//libc.a(lib_a-wsetup.o)
                                                  /home/leon/riotboard/arm-2012.09/bin/../arm-none-eabi/lib//libc.a(lib_a-wbuf.o)
                                                  /home/leon/riotboard/arm-2012.09/bin/../arm-none-eabi/lib//libc.a(lib_a-vfprintf.o)
                                                  /home/leon/riotboard/arm-2012.09/bin/../arm-none-eabi/lib//libc.a(lib_a-vfiprintf.o)
                                                  /home/leon/riotboard/arm-2012.09/bin/../arm-none-eabi/lib//libc.a(lib_a-rget.o)
                                                  /home/leon/riotboard/arm-2012.09/bin/../arm-none-eabi/lib//libc.a(lib_a-putc.o)
                                                  /home/leon/riotboard/arm-2012.09/bin/../arm-none-eabi/lib//libc.a(lib_a-fputc.o)
                                                  /home/leon/riotboard/arm-2012.09/bin/../arm-none-eabi/lib//libc.a(lib_a-fflush.o)
__sinit_lock_acquire                              /home/leon/riotboard/arm-2012.09/bin/../arm-none-eabi/lib//libc.a(lib_a-findfp.o)
__sinit_lock_release                              /home/leon/riotboard/arm-2012.09/bin/../arm-none-eabi/lib//libc.a(lib_a-findfp.o)
__smakebuf_r                                      /home/leon/riotboard/arm-2012.09/bin/../arm-none-eabi/lib//libc.a(lib_a-makebuf.o)
                                                  /home/leon/riotboard/arm-2012.09/bin/../arm-none-eabi/lib//libc.a(lib_a-refill.o)
                                                  /home/leon/riotboard/arm-2012.09/bin/../arm-none-eabi/lib//libc.a(lib_a-wsetup.o)
__sprint_r                                        /home/leon/riotboard/arm-2012.09/bin/../arm-none-eabi/lib//libc.a(lib_a-vfiprintf.o)
                                                  /home/leon/riotboard/arm-2012.09/bin/../arm-none-eabi/lib//libc.a(lib_a-vfprintf.o)
__sread                                           /home/leon/riotboard/arm-2012.09/bin/../arm-none-eabi/lib//libc.a(lib_a-stdio.o)
                                                  /home/leon/riotboard/arm-2012.09/bin/../arm-none-eabi/lib//libc.a(lib_a-findfp.o)
__srefill_r                                       /home/leon/riotboard/arm-2012.09/bin/../arm-none-eabi/lib//libc.a(lib_a-refill.o)
                                                  /home/leon/riotboard/arm-2012.09/bin/../arm-none-eabi/lib//libc.a(lib_a-rget.o)
__srget                                           /home/leon/riotboard/arm-2012.09/bin/../arm-none-eabi/lib//libc.a(lib_a-rget.o)
__srget_r                                         /home/leon/riotboard/arm-2012.09/bin/../arm-none-eabi/lib//libc.a(lib_a-rget.o)
                                                  /home/leon/git/swp-report/iMX6_Platform_SDK/output/mx6sl/lib/libsdk.a(system_util.o)
__sseek                                           /home/leon/riotboard/arm-2012.09/bin/../arm-none-eabi/lib//libc.a(lib_a-stdio.o)
                                                  /home/leon/riotboard/arm-2012.09/bin/../arm-none-eabi/lib//libc.a(lib_a-makebuf.o)
                                                  /home/leon/riotboard/arm-2012.09/bin/../arm-none-eabi/lib//libc.a(lib_a-findfp.o)
__stacks_start                                    /home/leon/git/swp-report/iMX6_Platform_SDK/output/mx6sl/lib/libsdk.a(startup.o)
__start_boot_data                                 /home/leon/git/swp-report/iMX6_Platform_SDK/output/mx6sl/ping/evk_rev_a/obj/apps/common/ivt.o
__subdf3                                          /home/leon/riotboard/arm-2012.09/bin/../lib/gcc/arm-none-eabi/4.7.2//libgcc.a(_arm_addsubdf3.o)
__swbuf                                           /home/leon/riotboard/arm-2012.09/bin/../arm-none-eabi/lib//libc.a(lib_a-wbuf.o)
__swbuf_r                                         /home/leon/riotboard/arm-2012.09/bin/../arm-none-eabi/lib//libc.a(lib_a-wbuf.o)
                                                  /home/leon/riotboard/arm-2012.09/bin/../arm-none-eabi/lib//libc.a(lib_a-fputwc.o)
                                                  /home/leon/riotboard/arm-2012.09/bin/../arm-none-eabi/lib//libc.a(lib_a-putc.o)
__swrite                                          /home/leon/riotboard/arm-2012.09/bin/../arm-none-eabi/lib//libc.a(lib_a-stdio.o)
                                                  /home/leon/riotboard/arm-2012.09/bin/../arm-none-eabi/lib//libc.a(lib_a-findfp.o)
__swsetup_r                                       /home/leon/riotboard/arm-2012.09/bin/../arm-none-eabi/lib//libc.a(lib_a-wsetup.o)
                                                  /home/leon/riotboard/arm-2012.09/bin/../arm-none-eabi/lib//libc.a(lib_a-fvwrite.o)
                                                  /home/leon/riotboard/arm-2012.09/bin/../arm-none-eabi/lib//libc.a(lib_a-wbuf.o)
                                                  /home/leon/riotboard/arm-2012.09/bin/../arm-none-eabi/lib//libc.a(lib_a-vfprintf.o)
                                                  /home/leon/riotboard/arm-2012.09/bin/../arm-none-eabi/lib//libc.a(lib_a-vfiprintf.o)
__udivdi3                                         /home/leon/riotboard/arm-2012.09/bin/../lib/gcc/arm-none-eabi/4.7.2//libgcc.a(_udivdi3.o)
                                                  /home/leon/riotboard/arm-2012.09/bin/../lib/gcc/arm-none-eabi/4.7.2//libgcc.a(bpabi.o)
__udivsi3                                         /home/leon/riotboard/arm-2012.09/bin/../lib/gcc/arm-none-eabi/4.7.2//libgcc.a(_udivsi3.o)
__ulp                                             /home/leon/riotboard/arm-2012.09/bin/../arm-none-eabi/lib//libc.a(lib_a-mprec.o)
__wctomb                                          /home/leon/riotboard/arm-2012.09/bin/../arm-none-eabi/lib//libc.a(lib_a-wctomb_r.o)
                                                  /home/leon/riotboard/arm-2012.09/bin/../arm-none-eabi/lib//libc.a(lib_a-wcrtomb.o)
_calloc_r                                         /home/leon/riotboard/arm-2012.09/bin/../arm-none-eabi/lib//libc.a(lib_a-callocr.o)
                                                  /home/leon/riotboard/arm-2012.09/bin/../arm-none-eabi/lib//libc.a(lib_a-mprec.o)
_cleanup                                          /home/leon/riotboard/arm-2012.09/bin/../arm-none-eabi/lib//libc.a(lib_a-findfp.o)
_cleanup_r                                        /home/leon/riotboard/arm-2012.09/bin/../arm-none-eabi/lib//libc.a(lib_a-findfp.o)
                                                  /home/leon/riotboard/arm-2012.09/bin/../arm-none-eabi/lib//libc.a(lib_a-makebuf.o)
_close                                            /home/leon/git/swp-report/iMX6_Platform_SDK/output/mx6sl/lib/libsdk.a(runtime_support.o)
                                                  /home/leon/riotboard/arm-2012.09/bin/../arm-none-eabi/lib//libc.a(lib_a-closer.o)
_close_r                                          /home/leon/riotboard/arm-2012.09/bin/../arm-none-eabi/lib//libc.a(lib_a-closer.o)
                                                  /home/leon/riotboard/arm-2012.09/bin/../arm-none-eabi/lib//libc.a(lib_a-stdio.o)
_dtoa_r                                           /home/leon/riotboard/arm-2012.09/bin/../arm-none-eabi/lib//libc.a(lib_a-dtoa.o)
                                                  /home/leon/riotboard/arm-2012.09/bin/../arm-none-eabi/lib//libc.a(lib_a-vfprintf.o)
_execve                                           /home/leon/git/swp-report/iMX6_Platform_SDK/output/mx6sl/lib/libsdk.a(runtime_support.o)
_exit                                             /home/leon/git/swp-report/iMX6_Platform_SDK/output/mx6sl/lib/libsdk.a(runtime_support.o)
                                                  /home/leon/riotboard/arm-2012.09/bin/../arm-none-eabi/lib//libc.a(lib_a-abort.o)
_fclose_r                                         /home/leon/riotboard/arm-2012.09/bin/../arm-none-eabi/lib//libc.a(lib_a-fclose.o)
_fflush_r                                         /home/leon/riotboard/arm-2012.09/bin/../arm-none-eabi/lib//libc.a(lib_a-fflush.o)
                                                  /home/leon/riotboard/arm-2012.09/bin/../arm-none-eabi/lib//libc.a(lib_a-refill.o)
                                                  /home/leon/riotboard/arm-2012.09/bin/../arm-none-eabi/lib//libc.a(lib_a-fvwrite.o)
                                                  /home/leon/riotboard/arm-2012.09/bin/../arm-none-eabi/lib//libc.a(lib_a-fclose.o)
                                                  /home/leon/riotboard/arm-2012.09/bin/../arm-none-eabi/lib//libc.a(lib_a-wbuf.o)
                                                  /home/leon/riotboard/arm-2012.09/bin/../arm-none-eabi/lib//libc.a(lib_a-vfprintf.o)
                                                  /home/leon/riotboard/arm-2012.09/bin/../arm-none-eabi/lib//libc.a(lib_a-vfiprintf.o)
_fini                                             /home/leon/riotboard/arm-2012.09/bin/../lib/gcc/arm-none-eabi/4.7.2//crti.o
_fiprintf_r                                       /home/leon/riotboard/arm-2012.09/bin/../arm-none-eabi/lib//libc.a(lib_a-fiprintf.o)
_fork                                             /home/leon/git/swp-report/iMX6_Platform_SDK/output/mx6sl/lib/libsdk.a(runtime_support.o)
_fputc_r                                          /home/leon/riotboard/arm-2012.09/bin/../arm-none-eabi/lib//libc.a(lib_a-fputc.o)
_fputwc_r                                         /home/leon/riotboard/arm-2012.09/bin/../arm-none-eabi/lib//libc.a(lib_a-fputwc.o)
                                                  /home/leon/riotboard/arm-2012.09/bin/../arm-none-eabi/lib//libc.a(lib_a-vfiprintf.o)
_free_r                                           /home/leon/riotboard/arm-2012.09/bin/../arm-none-eabi/lib//libc.a(lib_a-freer.o)
                                                  /home/leon/riotboard/arm-2012.09/bin/../arm-none-eabi/lib//libc.a(lib_a-refill.o)
                                                  /home/leon/riotboard/arm-2012.09/bin/../arm-none-eabi/lib//libc.a(lib_a-reent.o)
                                                  /home/leon/riotboard/arm-2012.09/bin/../arm-none-eabi/lib//libc.a(lib_a-fvwrite.o)
                                                  /home/leon/riotboard/arm-2012.09/bin/../arm-none-eabi/lib//libc.a(lib_a-fclose.o)
                                                  /home/leon/riotboard/arm-2012.09/bin/../arm-none-eabi/lib//libc.a(lib_a-wsetup.o)
                                                  /home/leon/riotboard/arm-2012.09/bin/../arm-none-eabi/lib//libc.a(lib_a-reallocr.o)
                                                  /home/leon/riotboard/arm-2012.09/bin/../arm-none-eabi/lib//libc.a(lib_a-mallocr.o)
                                                  /home/leon/riotboard/arm-2012.09/bin/../arm-none-eabi/lib//libc.a(lib_a-malloc.o)
                                                  /home/leon/riotboard/arm-2012.09/bin/../arm-none-eabi/lib//libc.a(lib_a-fflush.o)
_fstat                                            /home/leon/git/swp-report/iMX6_Platform_SDK/output/mx6sl/lib/libsdk.a(runtime_support.o)
                                                  /home/leon/riotboard/arm-2012.09/bin/../arm-none-eabi/lib//libc.a(lib_a-fstatr.o)
_fstat_r                                          /home/leon/riotboard/arm-2012.09/bin/../arm-none-eabi/lib//libc.a(lib_a-fstatr.o)
                                                  /home/leon/riotboard/arm-2012.09/bin/../arm-none-eabi/lib//libc.a(lib_a-makebuf.o)
_fwalk                                            /home/leon/riotboard/arm-2012.09/bin/../arm-none-eabi/lib//libc.a(lib_a-fwalk.o)
                                                  /home/leon/riotboard/arm-2012.09/bin/../arm-none-eabi/lib//libc.a(lib_a-refill.o)
                                                  /home/leon/riotboard/arm-2012.09/bin/../arm-none-eabi/lib//libc.a(lib_a-findfp.o)
_fwalk_reent                                      /home/leon/riotboard/arm-2012.09/bin/../arm-none-eabi/lib//libc.a(lib_a-fwalk.o)
                                                  /home/leon/riotboard/arm-2012.09/bin/../arm-none-eabi/lib//libc.a(lib_a-fflush.o)
_getpid                                           /home/leon/git/swp-report/iMX6_Platform_SDK/output/mx6sl/lib/libsdk.a(runtime_support.o)
                                                  /home/leon/riotboard/arm-2012.09/bin/../arm-none-eabi/lib//libc.a(lib_a-signalr.o)
_getpid_r                                         /home/leon/riotboard/arm-2012.09/bin/../arm-none-eabi/lib//libc.a(lib_a-signalr.o)
                                                  /home/leon/riotboard/arm-2012.09/bin/../arm-none-eabi/lib//libc.a(lib_a-signal.o)
_gettimeofday                                     /home/leon/git/swp-report/iMX6_Platform_SDK/output/mx6sl/lib/libsdk.a(runtime_support.o)
_global_impure_ptr                                /home/leon/riotboard/arm-2012.09/bin/../arm-none-eabi/lib//libc.a(lib_a-impure.o)
                                                  /home/leon/riotboard/arm-2012.09/bin/../arm-none-eabi/lib//libc.a(lib_a-refill.o)
                                                  /home/leon/riotboard/arm-2012.09/bin/../arm-none-eabi/lib//libc.a(lib_a-findfp.o)
                                                  /home/leon/riotboard/arm-2012.09/bin/../arm-none-eabi/lib//libc.a(lib_a-fflush.o)
_image_size                                       /home/leon/git/swp-report/iMX6_Platform_SDK/output/mx6sl/ping/evk_rev_a/obj/apps/common/ivt.o
_impure_ptr                                       /home/leon/riotboard/arm-2012.09/bin/../arm-none-eabi/lib//libc.a(lib_a-impure.o)
                                                  /home/leon/riotboard/arm-2012.09/bin/../arm-none-eabi/lib//libc.a(lib_a-wcrtomb.o)
                                                  /home/leon/riotboard/arm-2012.09/bin/../arm-none-eabi/lib//libc.a(lib_a-reent.o)
                                                  /home/leon/riotboard/arm-2012.09/bin/../arm-none-eabi/lib//libc.a(lib_a-locale.o)
                                                  /home/leon/riotboard/arm-2012.09/bin/../arm-none-eabi/lib//libc.a(lib_a-fputwc.o)
                                                  /home/leon/riotboard/arm-2012.09/bin/../arm-none-eabi/lib//libc.a(lib_a-fclose.o)
                                                  /home/leon/riotboard/arm-2012.09/bin/../arm-none-eabi/lib//libc.a(lib_a-wsetup.o)
                                                  /home/leon/riotboard/arm-2012.09/bin/../arm-none-eabi/lib//libc.a(lib_a-wbuf.o)
                                                  /home/leon/riotboard/arm-2012.09/bin/../arm-none-eabi/lib//libc.a(lib_a-vprintf.o)
                                                  /home/leon/riotboard/arm-2012.09/bin/../arm-none-eabi/lib//libc.a(lib_a-vfprintf.o)
                                                  /home/leon/riotboard/arm-2012.09/bin/../arm-none-eabi/lib//libc.a(lib_a-vfiprintf.o)
                                                  /home/leon/riotboard/arm-2012.09/bin/../arm-none-eabi/lib//libc.a(lib_a-signal.o)
                                                  /home/leon/riotboard/arm-2012.09/bin/../arm-none-eabi/lib//libc.a(lib_a-rget.o)
                                                  /home/leon/riotboard/arm-2012.09/bin/../arm-none-eabi/lib//libc.a(lib_a-realloc.o)
                                                  /home/leon/riotboard/arm-2012.09/bin/../arm-none-eabi/lib//libc.a(lib_a-rand.o)
                                                  /home/leon/riotboard/arm-2012.09/bin/../arm-none-eabi/lib//libc.a(lib_a-putc.o)
                                                  /home/leon/riotboard/arm-2012.09/bin/../arm-none-eabi/lib//libc.a(lib_a-printf.o)
                                                  /home/leon/riotboard/arm-2012.09/bin/../arm-none-eabi/lib//libc.a(lib_a-malloc.o)
                                                  /home/leon/riotboard/arm-2012.09/bin/../arm-none-eabi/lib//libc.a(lib_a-fputc.o)
                                                  /home/leon/riotboard/arm-2012.09/bin/../arm-none-eabi/lib//libc.a(lib_a-fiprintf.o)
                                                  /home/leon/riotboard/arm-2012.09/bin/../arm-none-eabi/lib//libc.a(lib_a-findfp.o)
                                                  /home/leon/riotboard/arm-2012.09/bin/../arm-none-eabi/lib//libc.a(lib_a-fflush.o)
                                                  /home/leon/riotboard/arm-2012.09/bin/../arm-none-eabi/lib//libc.a(lib_a-assert.o)
                                                  /home/leon/git/swp-report/iMX6_Platform_SDK/output/mx6sl/lib/libsdk.a(system_util.o)
                                                  /home/leon/git/swp-report/iMX6_Platform_SDK/output/mx6sl/ping/evk_rev_a/obj/apps/ping/src/ping_main.o
_init                                             /home/leon/riotboard/arm-2012.09/bin/../lib/gcc/arm-none-eabi/4.7.2//crti.o
                                                  /home/leon/riotboard/arm-2012.09/bin/../arm-none-eabi/lib//libc.a(lib_a-init.o)
_init_signal                                      /home/leon/riotboard/arm-2012.09/bin/../arm-none-eabi/lib//libc.a(lib_a-signal.o)
_init_signal_r                                    /home/leon/riotboard/arm-2012.09/bin/../arm-none-eabi/lib//libc.a(lib_a-signal.o)
_isatty                                           /home/leon/git/swp-report/iMX6_Platform_SDK/output/mx6sl/lib/libsdk.a(runtime_support.o)
                                                  /home/leon/riotboard/arm-2012.09/bin/../arm-none-eabi/lib//libc.a(lib_a-isattyr.o)
_isatty_r                                         /home/leon/riotboard/arm-2012.09/bin/../arm-none-eabi/lib//libc.a(lib_a-isattyr.o)
                                                  /home/leon/riotboard/arm-2012.09/bin/../arm-none-eabi/lib//libc.a(lib_a-makebuf.o)
_kill                                             /home/leon/git/swp-report/iMX6_Platform_SDK/output/mx6sl/lib/libsdk.a(runtime_support.o)
                                                  /home/leon/riotboard/arm-2012.09/bin/../arm-none-eabi/lib//libc.a(lib_a-signalr.o)
_kill_r                                           /home/leon/riotboard/arm-2012.09/bin/../arm-none-eabi/lib//libc.a(lib_a-signalr.o)
                                                  /home/leon/riotboard/arm-2012.09/bin/../arm-none-eabi/lib//libc.a(lib_a-signal.o)
_link                                             /home/leon/git/swp-report/iMX6_Platform_SDK/output/mx6sl/lib/libsdk.a(runtime_support.o)
_localeconv_r                                     /home/leon/riotboard/arm-2012.09/bin/../arm-none-eabi/lib//libc.a(lib_a-locale.o)
                                                  /home/leon/riotboard/arm-2012.09/bin/../arm-none-eabi/lib//libc.a(lib_a-vfprintf.o)
_lseek                                            /home/leon/git/swp-report/iMX6_Platform_SDK/output/mx6sl/lib/libsdk.a(runtime_support.o)
                                                  /home/leon/riotboard/arm-2012.09/bin/../arm-none-eabi/lib//libc.a(lib_a-lseekr.o)
_lseek_r                                          /home/leon/riotboard/arm-2012.09/bin/../arm-none-eabi/lib//libc.a(lib_a-lseekr.o)
                                                  /home/leon/riotboard/arm-2012.09/bin/../arm-none-eabi/lib//libc.a(lib_a-stdio.o)
_malloc_r                                         /home/leon/riotboard/arm-2012.09/bin/../arm-none-eabi/lib//libc.a(lib_a-mallocr.o)
                                                  /home/leon/riotboard/arm-2012.09/bin/../arm-none-eabi/lib//libc.a(lib_a-callocr.o)
                                                  /home/leon/riotboard/arm-2012.09/bin/../arm-none-eabi/lib//libc.a(lib_a-makebuf.o)
                                                  /home/leon/riotboard/arm-2012.09/bin/../arm-none-eabi/lib//libc.a(lib_a-fvwrite.o)
                                                  /home/leon/riotboard/arm-2012.09/bin/../arm-none-eabi/lib//libc.a(lib_a-signal.o)
                                                  /home/leon/riotboard/arm-2012.09/bin/../arm-none-eabi/lib//libc.a(lib_a-reallocr.o)
                                                  /home/leon/riotboard/arm-2012.09/bin/../arm-none-eabi/lib//libc.a(lib_a-malloc.o)
                                                  /home/leon/riotboard/arm-2012.09/bin/../arm-none-eabi/lib//libc.a(lib_a-findfp.o)
_malloc_trim_r                                    /home/leon/riotboard/arm-2012.09/bin/../arm-none-eabi/lib//libc.a(lib_a-freer.o)
_mprec_log10                                      /home/leon/riotboard/arm-2012.09/bin/../arm-none-eabi/lib//libc.a(lib_a-mprec.o)
_open                                             /home/leon/git/swp-report/iMX6_Platform_SDK/output/mx6sl/lib/libsdk.a(runtime_support.o)
_printf_r                                         /home/leon/riotboard/arm-2012.09/bin/../arm-none-eabi/lib//libc.a(lib_a-printf.o)
_putc_r                                           /home/leon/riotboard/arm-2012.09/bin/../arm-none-eabi/lib//libc.a(lib_a-putc.o)
                                                  /home/leon/riotboard/arm-2012.09/bin/../arm-none-eabi/lib//libc.a(lib_a-fputc.o)
_raise_r                                          /home/leon/riotboard/arm-2012.09/bin/../arm-none-eabi/lib//libc.a(lib_a-signal.o)
_raw_puts                                         /home/leon/git/swp-report/iMX6_Platform_SDK/output/mx6sl/lib/libsdk.a(runtime_support.o)
_read                                             /home/leon/git/swp-report/iMX6_Platform_SDK/output/mx6sl/lib/libsdk.a(runtime_support.o)
                                                  /home/leon/riotboard/arm-2012.09/bin/../arm-none-eabi/lib//libc.a(lib_a-readr.o)
_read_r                                           /home/leon/riotboard/arm-2012.09/bin/../arm-none-eabi/lib//libc.a(lib_a-readr.o)
                                                  /home/leon/riotboard/arm-2012.09/bin/../arm-none-eabi/lib//libc.a(lib_a-stdio.o)
_realloc_r                                        /home/leon/riotboard/arm-2012.09/bin/../arm-none-eabi/lib//libc.a(lib_a-reallocr.o)
                                                  /home/leon/riotboard/arm-2012.09/bin/../arm-none-eabi/lib//libc.a(lib_a-fvwrite.o)
                                                  /home/leon/riotboard/arm-2012.09/bin/../arm-none-eabi/lib//libc.a(lib_a-realloc.o)
_reclaim_reent                                    /home/leon/riotboard/arm-2012.09/bin/../arm-none-eabi/lib//libc.a(lib_a-reent.o)
_sbrk                                             /home/leon/git/swp-report/iMX6_Platform_SDK/output/mx6sl/lib/libsdk.a(runtime_support.o)
                                                  /home/leon/riotboard/arm-2012.09/bin/../arm-none-eabi/lib//libc.a(lib_a-sbrkr.o)
_sbrk_r                                           /home/leon/riotboard/arm-2012.09/bin/../arm-none-eabi/lib//libc.a(lib_a-sbrkr.o)
                                                  /home/leon/riotboard/arm-2012.09/bin/../arm-none-eabi/lib//libc.a(lib_a-mallocr.o)
                                                  /home/leon/riotboard/arm-2012.09/bin/../arm-none-eabi/lib//libc.a(lib_a-freer.o)
_setlocale_r                                      /home/leon/riotboard/arm-2012.09/bin/../arm-none-eabi/lib//libc.a(lib_a-locale.o)
_signal_r                                         /home/leon/riotboard/arm-2012.09/bin/../arm-none-eabi/lib//libc.a(lib_a-signal.o)
_start                                            /home/leon/git/swp-report/iMX6_Platform_SDK/output/mx6sl/lib/libsdk.a(startup.o)
                                                  /home/leon/git/swp-report/iMX6_Platform_SDK/output/mx6sl/lib/libsdk.a(vectors.o)
                                                  /home/leon/git/swp-report/iMX6_Platform_SDK/output/mx6sl/ping/evk_rev_a/obj/apps/common/ivt.o
_start_image_add                                  /home/leon/git/swp-report/iMX6_Platform_SDK/output/mx6sl/ping/evk_rev_a/obj/apps/common/ivt.o
_stat                                             /home/leon/git/swp-report/iMX6_Platform_SDK/output/mx6sl/lib/libsdk.a(runtime_support.o)
_sys_exit                                         /home/leon/git/swp-report/iMX6_Platform_SDK/output/mx6sl/lib/libsdk.a(system_util.o)
                                                  /home/leon/git/swp-report/iMX6_Platform_SDK/output/mx6sl/lib/libsdk.a(runtime_support.o)
                                                  /home/leon/git/swp-report/iMX6_Platform_SDK/output/mx6sl/lib/libsdk.a(startup.o)
_times                                            /home/leon/git/swp-report/iMX6_Platform_SDK/output/mx6sl/lib/libsdk.a(runtime_support.o)
_unlink                                           /home/leon/git/swp-report/iMX6_Platform_SDK/output/mx6sl/lib/libsdk.a(runtime_support.o)
_vfiprintf_r                                      /home/leon/riotboard/arm-2012.09/bin/../arm-none-eabi/lib//libc.a(lib_a-vfiprintf.o)
                                                  /home/leon/riotboard/arm-2012.09/bin/../arm-none-eabi/lib//libc.a(lib_a-fiprintf.o)
_vfprintf_r                                       /home/leon/riotboard/arm-2012.09/bin/../arm-none-eabi/lib//libc.a(lib_a-vfprintf.o)
                                                  /home/leon/riotboard/arm-2012.09/bin/../arm-none-eabi/lib//libc.a(lib_a-vprintf.o)
                                                  /home/leon/riotboard/arm-2012.09/bin/../arm-none-eabi/lib//libc.a(lib_a-printf.o)
_vprintf_r                                        /home/leon/riotboard/arm-2012.09/bin/../arm-none-eabi/lib//libc.a(lib_a-vprintf.o)
_wait                                             /home/leon/git/swp-report/iMX6_Platform_SDK/output/mx6sl/lib/libsdk.a(runtime_support.o)
_wcrtomb_r                                        /home/leon/riotboard/arm-2012.09/bin/../arm-none-eabi/lib//libc.a(lib_a-wcrtomb.o)
                                                  /home/leon/riotboard/arm-2012.09/bin/../arm-none-eabi/lib//libc.a(lib_a-fputwc.o)
_wctomb_r                                         /home/leon/riotboard/arm-2012.09/bin/../arm-none-eabi/lib//libc.a(lib_a-wctomb_r.o)
_wrapup_reent                                     /home/leon/riotboard/arm-2012.09/bin/../arm-none-eabi/lib//libc.a(lib_a-reent.o)
_write                                            /home/leon/git/swp-report/iMX6_Platform_SDK/output/mx6sl/lib/libsdk.a(runtime_support.o)
                                                  /home/leon/riotboard/arm-2012.09/bin/../arm-none-eabi/lib//libc.a(lib_a-writer.o)
_write_r                                          /home/leon/riotboard/arm-2012.09/bin/../arm-none-eabi/lib//libc.a(lib_a-writer.o)
                                                  /home/leon/riotboard/arm-2012.09/bin/../arm-none-eabi/lib//libc.a(lib_a-stdio.o)
abort                                             /home/leon/riotboard/arm-2012.09/bin/../arm-none-eabi/lib//libc.a(lib_a-abort.o)
                                                  /home/leon/git/swp-report/iMX6_Platform_SDK/output/mx6sl/lib/libsdk.a(runtime_support.o)
                                                  /home/leon/riotboard/arm-2012.09/bin/../arm-none-eabi/lib//libc.a(lib_a-assert.o)
                                                  /home/leon/git/swp-report/iMX6_Platform_SDK/output/mx6sl/lib/liblwip.a(icmp.o)
                                                  /home/leon/git/swp-report/iMX6_Platform_SDK/output/mx6sl/lib/liblwip.a(mx6_ethernetif.o)
                                                  /home/leon/git/swp-report/iMX6_Platform_SDK/output/mx6sl/lib/liblwip.a(etharp.o)
                                                  /home/leon/git/swp-report/iMX6_Platform_SDK/output/mx6sl/lib/liblwip.a(udp.o)
                                                  /home/leon/git/swp-report/iMX6_Platform_SDK/output/mx6sl/lib/liblwip.a(timers.o)
                                                  /home/leon/git/swp-report/iMX6_Platform_SDK/output/mx6sl/lib/liblwip.a(tcp_out.o)
                                                  /home/leon/git/swp-report/iMX6_Platform_SDK/output/mx6sl/lib/liblwip.a(tcp.o)
                                                  /home/leon/git/swp-report/iMX6_Platform_SDK/output/mx6sl/lib/liblwip.a(tcp_in.o)
                                                  /home/leon/git/swp-report/iMX6_Platform_SDK/output/mx6sl/lib/liblwip.a(msg_in.o)
                                                  /home/leon/git/swp-report/iMX6_Platform_SDK/output/mx6sl/lib/liblwip.a(mib_structs.o)
                                                  /home/leon/git/swp-report/iMX6_Platform_SDK/output/mx6sl/lib/liblwip.a(mib2.o)
                                                  /home/leon/git/swp-report/iMX6_Platform_SDK/output/mx6sl/lib/liblwip.a(raw.o)
                                                  /home/leon/git/swp-report/iMX6_Platform_SDK/output/mx6sl/lib/liblwip.a(pbuf.o)
                                                  /home/leon/git/swp-report/iMX6_Platform_SDK/output/mx6sl/lib/liblwip.a(netif.o)
                                                  /home/leon/git/swp-report/iMX6_Platform_SDK/output/mx6sl/lib/liblwip.a(ip4_addr.o)
                                                  /home/leon/git/swp-report/iMX6_Platform_SDK/output/mx6sl/lib/liblwip.a(ip4.o)
                                                  /home/leon/git/swp-report/iMX6_Platform_SDK/output/mx6sl/lib/liblwip.a(igmp.o)
                                                  /home/leon/git/swp-report/iMX6_Platform_SDK/output/mx6sl/lib/liblwip.a(autoip.o)
                                                  /home/leon/git/swp-report/iMX6_Platform_SDK/output/mx6sl/lib/liblwip.a(inet_chksum.o)
                                                  /home/leon/git/swp-report/iMX6_Platform_SDK/output/mx6sl/lib/liblwip.a(dns.o)
                                                  /home/leon/git/swp-report/iMX6_Platform_SDK/output/mx6sl/lib/liblwip.a(dhcp.o)
                                                  /home/leon/git/swp-report/iMX6_Platform_SDK/output/mx6sl/ping/evk_rev_a/obj/apps/ping/src/ping.o
arm_branch_prediction_disable                     /home/leon/git/swp-report/iMX6_Platform_SDK/output/mx6sl/lib/libsdk.a(cortexA9.o)
arm_branch_prediction_enable                      /home/leon/git/swp-report/iMX6_Platform_SDK/output/mx6sl/lib/libsdk.a(cortexA9.o)
arm_branch_target_cache_invalidate                /home/leon/git/swp-report/iMX6_Platform_SDK/output/mx6sl/lib/libsdk.a(cortexA9.o)
arm_branch_target_cache_invalidate_is             /home/leon/git/swp-report/iMX6_Platform_SDK/output/mx6sl/lib/libsdk.a(cortexA9.o)
arm_iomux_config                                  /home/leon/git/swp-report/iMX6_Platform_SDK/output/mx6sl/lib/libboard_evk_rev_a.a(iomux_config.o)
arm_set_interrupt_state                           /home/leon/git/swp-report/iMX6_Platform_SDK/output/mx6sl/lib/libsdk.a(cortexA9.o)
                                                  /home/leon/git/swp-report/iMX6_Platform_SDK/output/mx6sl/ping/evk_rev_a/obj/apps/common/platform_init.o
arm_unified_tlb_invalidate                        /home/leon/git/swp-report/iMX6_Platform_SDK/output/mx6sl/lib/libsdk.a(cortexA9.o)
                                                  /home/leon/git/swp-report/iMX6_Platform_SDK/output/mx6sl/lib/libsdk.a(mmu.o)
arm_unified_tlb_invalidate_is                     /home/leon/git/swp-report/iMX6_Platform_SDK/output/mx6sl/lib/libsdk.a(cortexA9.o)
arptree_root                                      /home/leon/git/swp-report/iMX6_Platform_SDK/output/mx6sl/lib/liblwip.a(mib2.o)
at                                                /home/leon/git/swp-report/iMX6_Platform_SDK/output/mx6sl/lib/liblwip.a(mib2.o)
at_id                                             /home/leon/git/swp-report/iMX6_Platform_SDK/output/mx6sl/lib/liblwip.a(mib2.o)
atentry                                           /home/leon/git/swp-report/iMX6_Platform_SDK/output/mx6sl/lib/liblwip.a(mib2.o)
atentry_ids                                       /home/leon/git/swp-report/iMX6_Platform_SDK/output/mx6sl/lib/liblwip.a(mib2.o)
atentry_nodes                                     /home/leon/git/swp-report/iMX6_Platform_SDK/output/mx6sl/lib/liblwip.a(mib2.o)
attable                                           /home/leon/git/swp-report/iMX6_Platform_SDK/output/mx6sl/lib/liblwip.a(mib2.o)
attable_id                                        /home/leon/git/swp-report/iMX6_Platform_SDK/output/mx6sl/lib/liblwip.a(mib2.o)
attable_node                                      /home/leon/git/swp-report/iMX6_Platform_SDK/output/mx6sl/lib/liblwip.a(mib2.o)
audmux_iomux_config                               /home/leon/git/swp-report/iMX6_Platform_SDK/output/mx6sl/lib/libboard_evk_rev_a.a(audmux_iomux_config.o)
                                                  /home/leon/git/swp-report/iMX6_Platform_SDK/output/mx6sl/lib/libboard_evk_rev_a.a(iomux_config.o)
autoip_arp_reply                                  /home/leon/git/swp-report/iMX6_Platform_SDK/output/mx6sl/lib/liblwip.a(autoip.o)
                                                  /home/leon/git/swp-report/iMX6_Platform_SDK/output/mx6sl/lib/liblwip.a(etharp.o)
autoip_network_changed                            /home/leon/git/swp-report/iMX6_Platform_SDK/output/mx6sl/lib/liblwip.a(autoip.o)
                                                  /home/leon/git/swp-report/iMX6_Platform_SDK/output/mx6sl/lib/liblwip.a(netif.o)
autoip_set_struct                                 /home/leon/git/swp-report/iMX6_Platform_SDK/output/mx6sl/lib/liblwip.a(autoip.o)
autoip_start                                      /home/leon/git/swp-report/iMX6_Platform_SDK/output/mx6sl/lib/liblwip.a(autoip.o)
                                                  /home/leon/git/swp-report/iMX6_Platform_SDK/output/mx6sl/lib/liblwip.a(dhcp.o)
autoip_stop                                       /home/leon/git/swp-report/iMX6_Platform_SDK/output/mx6sl/lib/liblwip.a(autoip.o)
                                                  /home/leon/git/swp-report/iMX6_Platform_SDK/output/mx6sl/lib/liblwip.a(dhcp.o)
autoip_tmr                                        /home/leon/git/swp-report/iMX6_Platform_SDK/output/mx6sl/lib/liblwip.a(autoip.o)
                                                  /home/leon/git/swp-report/iMX6_Platform_SDK/output/mx6sl/lib/liblwip.a(mx6_lwip.o)
                                                  /home/leon/git/swp-report/iMX6_Platform_SDK/output/mx6sl/lib/liblwip.a(timers.o)
bd                                                /home/leon/git/swp-report/iMX6_Platform_SDK/output/mx6sl/ping/evk_rev_a/obj/apps/common/ivt.o
board_ioexpander_init                             /home/leon/git/swp-report/iMX6_Platform_SDK/output/mx6sl/lib/libboard_evk_rev_a.a(board_io_expanders.o)
                                                  /home/leon/git/swp-report/iMX6_Platform_SDK/output/mx6sl/ping/evk_rev_a/obj/apps/common/platform_init.o
bzero                                             /home/leon/riotboard/arm-2012.09/bin/../arm-none-eabi/lib//libc.a(lib_a-bzero.o)
                                                  /home/leon/git/swp-report/iMX6_Platform_SDK/output/mx6sl/lib/libsdk.a(mmu.o)
ccm_ccgr_config                                   /home/leon/git/swp-report/iMX6_Platform_SDK/output/mx6sl/lib/libsdk.a(ccm_pll.o)
ccm_enter_low_power                               /home/leon/git/swp-report/iMX6_Platform_SDK/output/mx6sl/lib/libsdk.a(ccm_pll.o)
ccm_init                                          /home/leon/git/swp-report/iMX6_Platform_SDK/output/mx6sl/lib/libsdk.a(ccm_pll.o)
                                                  /home/leon/git/swp-report/iMX6_Platform_SDK/output/mx6sl/ping/evk_rev_a/obj/apps/common/platform_init.o
ccm_iomux_config                                  /home/leon/git/swp-report/iMX6_Platform_SDK/output/mx6sl/lib/libboard_evk_rev_a.a(iomux_config.o)
ccm_set_lpm_wakeup_source                         /home/leon/git/swp-report/iMX6_Platform_SDK/output/mx6sl/lib/libsdk.a(ccm_pll.o)
check_and_update_ms_timer                         /home/leon/git/swp-report/iMX6_Platform_SDK/output/mx6sl/lib/liblwip.a(mx6_lwip.o)
                                                  /home/leon/git/swp-report/iMX6_Platform_SDK/output/mx6sl/ping/evk_rev_a/obj/apps/ping/src/ping_main.o
cleanup_glue                                      /home/leon/riotboard/arm-2012.09/bin/../arm-none-eabi/lib//libc.a(lib_a-reent.o)
clock_gating_config                               /home/leon/git/swp-report/iMX6_Platform_SDK/output/mx6sl/lib/libsdk.a(ccm_pll.o)
                                                  /home/leon/git/swp-report/iMX6_Platform_SDK/output/mx6sl/lib/libsdk.a(epit.o)
                                                  /home/leon/git/swp-report/iMX6_Platform_SDK/output/mx6sl/lib/libsdk.a(imx_uart.o)
common_abort_handler                              /home/leon/git/swp-report/iMX6_Platform_SDK/output/mx6sl/lib/libsdk.a(arm_abort.o)
cpu_get_current                                   /home/leon/git/swp-report/iMX6_Platform_SDK/output/mx6sl/lib/libsdk.a(cortexA9.o)
csi_iomux_config                                  /home/leon/git/swp-report/iMX6_Platform_SDK/output/mx6sl/lib/libboard_evk_rev_a.a(csi_iomux_config.o)
                                                  /home/leon/git/swp-report/iMX6_Platform_SDK/output/mx6sl/lib/libboard_evk_rev_a.a(iomux_config.o)
data_abort_handler                                /home/leon/git/swp-report/iMX6_Platform_SDK/output/mx6sl/lib/libsdk.a(arm_abort.o)
                                                  /home/leon/git/swp-report/iMX6_Platform_SDK/output/mx6sl/lib/libsdk.a(vectors.o)
default_interrupt_routine                         /home/leon/git/swp-report/iMX6_Platform_SDK/output/mx6sl/lib/libsdk.a(interrupt.o)
dhcp_arp_reply                                    /home/leon/git/swp-report/iMX6_Platform_SDK/output/mx6sl/lib/liblwip.a(dhcp.o)
                                                  /home/leon/git/swp-report/iMX6_Platform_SDK/output/mx6sl/lib/liblwip.a(etharp.o)
dhcp_cleanup                                      /home/leon/git/swp-report/iMX6_Platform_SDK/output/mx6sl/lib/liblwip.a(dhcp.o)
dhcp_coarse_tmr                                   /home/leon/git/swp-report/iMX6_Platform_SDK/output/mx6sl/lib/liblwip.a(dhcp.o)
                                                  /home/leon/git/swp-report/iMX6_Platform_SDK/output/mx6sl/lib/liblwip.a(mx6_lwip.o)
                                                  /home/leon/git/swp-report/iMX6_Platform_SDK/output/mx6sl/lib/liblwip.a(timers.o)
dhcp_fine_tmr                                     /home/leon/git/swp-report/iMX6_Platform_SDK/output/mx6sl/lib/liblwip.a(dhcp.o)
                                                  /home/leon/git/swp-report/iMX6_Platform_SDK/output/mx6sl/lib/liblwip.a(mx6_lwip.o)
                                                  /home/leon/git/swp-report/iMX6_Platform_SDK/output/mx6sl/lib/liblwip.a(timers.o)
dhcp_inform                                       /home/leon/git/swp-report/iMX6_Platform_SDK/output/mx6sl/lib/liblwip.a(dhcp.o)
dhcp_network_changed                              /home/leon/git/swp-report/iMX6_Platform_SDK/output/mx6sl/lib/liblwip.a(dhcp.o)
                                                  /home/leon/git/swp-report/iMX6_Platform_SDK/output/mx6sl/lib/liblwip.a(netif.o)
dhcp_release                                      /home/leon/git/swp-report/iMX6_Platform_SDK/output/mx6sl/lib/liblwip.a(dhcp.o)
dhcp_renew                                        /home/leon/git/swp-report/iMX6_Platform_SDK/output/mx6sl/lib/liblwip.a(dhcp.o)
dhcp_rx_options_given                             /home/leon/git/swp-report/iMX6_Platform_SDK/output/mx6sl/lib/liblwip.a(dhcp.o)
dhcp_rx_options_val                               /home/leon/git/swp-report/iMX6_Platform_SDK/output/mx6sl/lib/liblwip.a(dhcp.o)
dhcp_set_struct                                   /home/leon/git/swp-report/iMX6_Platform_SDK/output/mx6sl/lib/liblwip.a(dhcp.o)
dhcp_start                                        /home/leon/git/swp-report/iMX6_Platform_SDK/output/mx6sl/lib/liblwip.a(dhcp.o)
                                                  /home/leon/git/swp-report/iMX6_Platform_SDK/output/mx6sl/ping/evk_rev_a/obj/apps/ping/src/ping_main.o
dhcp_stop                                         /home/leon/git/swp-report/iMX6_Platform_SDK/output/mx6sl/lib/liblwip.a(dhcp.o)
disable_L1_cache                                  /home/leon/git/swp-report/iMX6_Platform_SDK/output/mx6sl/lib/libsdk.a(cortexA9.o)
disable_interrupt                                 /home/leon/git/swp-report/iMX6_Platform_SDK/output/mx6sl/lib/libsdk.a(interrupt.o)
                                                  /home/leon/git/swp-report/iMX6_Platform_SDK/output/mx6sl/lib/libsdk.a(epit.o)
                                                  /home/leon/git/swp-report/iMX6_Platform_SDK/output/mx6sl/lib/libsdk.a(imx_uart.o)
disable_strict_align_check                        /home/leon/git/swp-report/iMX6_Platform_SDK/output/mx6sl/lib/libsdk.a(cortexA9.o)
                                                  /home/leon/git/swp-report/iMX6_Platform_SDK/output/mx6sl/ping/evk_rev_a/obj/apps/common/platform_init.o
dns_found                                         /home/leon/git/swp-report/iMX6_Platform_SDK/output/mx6sl/ping/evk_rev_a/obj/apps/ping/src/ping_main.o
dns_gethostbyname                                 /home/leon/git/swp-report/iMX6_Platform_SDK/output/mx6sl/lib/liblwip.a(dns.o)
                                                  /home/leon/git/swp-report/iMX6_Platform_SDK/output/mx6sl/ping/evk_rev_a/obj/apps/ping/src/ping_main.o
dns_getserver                                     /home/leon/git/swp-report/iMX6_Platform_SDK/output/mx6sl/lib/liblwip.a(dns.o)
dns_init                                          /home/leon/git/swp-report/iMX6_Platform_SDK/output/mx6sl/lib/liblwip.a(dns.o)
                                                  /home/leon/git/swp-report/iMX6_Platform_SDK/output/mx6sl/lib/liblwip.a(init.o)
                                                  /home/leon/git/swp-report/iMX6_Platform_SDK/output/mx6sl/ping/evk_rev_a/obj/apps/ping/src/ping_main.o
dns_setserver                                     /home/leon/git/swp-report/iMX6_Platform_SDK/output/mx6sl/lib/liblwip.a(dns.o)
                                                  /home/leon/git/swp-report/iMX6_Platform_SDK/output/mx6sl/lib/liblwip.a(dhcp.o)
dns_tmr                                           /home/leon/git/swp-report/iMX6_Platform_SDK/output/mx6sl/lib/liblwip.a(dns.o)
                                                  /home/leon/git/swp-report/iMX6_Platform_SDK/output/mx6sl/lib/liblwip.a(mx6_lwip.o)
                                                  /home/leon/git/swp-report/iMX6_Platform_SDK/output/mx6sl/lib/liblwip.a(timers.o)
dump_regs                                         /home/leon/git/swp-report/iMX6_Platform_SDK/output/mx6sl/lib/libsdk.a(abort_handler.o)
                                                  /home/leon/git/swp-report/iMX6_Platform_SDK/output/mx6sl/lib/libsdk.a(arm_abort.o)
ecspi1_iomux_config                               /home/leon/git/swp-report/iMX6_Platform_SDK/output/mx6sl/lib/libboard_evk_rev_a.a(ecspi1_iomux_config.o)
                                                  /home/leon/git/swp-report/iMX6_Platform_SDK/output/mx6sl/lib/libboard_evk_rev_a.a(iomux_config.o)
ecspi2_iomux_config                               /home/leon/git/swp-report/iMX6_Platform_SDK/output/mx6sl/lib/libboard_evk_rev_a.a(ecspi2_iomux_config.o)
                                                  /home/leon/git/swp-report/iMX6_Platform_SDK/output/mx6sl/lib/libboard_evk_rev_a.a(iomux_config.o)
ecspi3_iomux_config                               /home/leon/git/swp-report/iMX6_Platform_SDK/output/mx6sl/lib/libboard_evk_rev_a.a(iomux_config.o)
ecspi4_iomux_config                               /home/leon/git/swp-report/iMX6_Platform_SDK/output/mx6sl/lib/libboard_evk_rev_a.a(iomux_config.o)
eim_iomux_config                                  /home/leon/git/swp-report/iMX6_Platform_SDK/output/mx6sl/lib/libboard_evk_rev_a.a(iomux_config.o)
enable_interrupt                                  /home/leon/git/swp-report/iMX6_Platform_SDK/output/mx6sl/lib/libsdk.a(interrupt.o)
                                                  /home/leon/git/swp-report/iMX6_Platform_SDK/output/mx6sl/lib/libsdk.a(epit.o)
                                                  /home/leon/git/swp-report/iMX6_Platform_SDK/output/mx6sl/lib/libsdk.a(imx_uart.o)
enable_neon_fpu                                   /home/leon/git/swp-report/iMX6_Platform_SDK/output/mx6sl/lib/libsdk.a(cortexA9.o)
                                                  /home/leon/git/swp-report/iMX6_Platform_SDK/output/mx6sl/ping/evk_rev_a/obj/apps/common/platform_init.o
enet_init                                         /home/leon/git/swp-report/iMX6_Platform_SDK/output/mx6sl/lib/liblwip.a(mx6_ethernetif.o)
                                                  /home/leon/git/swp-report/iMX6_Platform_SDK/output/mx6sl/ping/evk_rev_a/obj/apps/ping/src/ping_main.o
enet_poll_for_packet                              /home/leon/git/swp-report/iMX6_Platform_SDK/output/mx6sl/lib/liblwip.a(mx6_ethernetif.o)
                                                  /home/leon/git/swp-report/iMX6_Platform_SDK/output/mx6sl/lib/liblwip.a(mx6_lwip.o)
enet_set_mac                                      /home/leon/git/swp-report/iMX6_Platform_SDK/output/mx6sl/lib/liblwip.a(mx6_ethernetif.o)
                                                  /home/leon/git/swp-report/iMX6_Platform_SDK/output/mx6sl/ping/evk_rev_a/obj/apps/ping/src/ping_main.o
environ                                           /home/leon/git/swp-report/iMX6_Platform_SDK/output/mx6sl/lib/libsdk.a(runtime_support.o)
epdc_iomux_config                                 /home/leon/git/swp-report/iMX6_Platform_SDK/output/mx6sl/lib/libboard_evk_rev_a.a(epdc_iomux_config.o)
                                                  /home/leon/git/swp-report/iMX6_Platform_SDK/output/mx6sl/lib/libboard_evk_rev_a.a(iomux_config.o)
epit1_iomux_config                                /home/leon/git/swp-report/iMX6_Platform_SDK/output/mx6sl/lib/libboard_evk_rev_a.a(iomux_config.o)
epit2_iomux_config                                /home/leon/git/swp-report/iMX6_Platform_SDK/output/mx6sl/lib/libboard_evk_rev_a.a(iomux_config.o)
epit_counter_disable                              /home/leon/git/swp-report/iMX6_Platform_SDK/output/mx6sl/lib/libsdk.a(epit.o)
                                                  /home/leon/git/swp-report/iMX6_Platform_SDK/output/mx6sl/lib/libsdk.a(timer.o)
epit_counter_enable                               /home/leon/git/swp-report/iMX6_Platform_SDK/output/mx6sl/lib/libsdk.a(epit.o)
                                                  /home/leon/git/swp-report/iMX6_Platform_SDK/output/mx6sl/lib/libsdk.a(timer.o)
epit_get_compare_event                            /home/leon/git/swp-report/iMX6_Platform_SDK/output/mx6sl/lib/libsdk.a(epit.o)
                                                  /home/leon/git/swp-report/iMX6_Platform_SDK/output/mx6sl/lib/libsdk.a(timer.o)
epit_get_counter_value                            /home/leon/git/swp-report/iMX6_Platform_SDK/output/mx6sl/lib/libsdk.a(epit.o)
epit_init                                         /home/leon/git/swp-report/iMX6_Platform_SDK/output/mx6sl/lib/libsdk.a(epit.o)
                                                  /home/leon/git/swp-report/iMX6_Platform_SDK/output/mx6sl/lib/libsdk.a(timer.o)
epit_reload_counter                               /home/leon/git/swp-report/iMX6_Platform_SDK/output/mx6sl/lib/libsdk.a(epit.o)
epit_set_compare_event                            /home/leon/git/swp-report/iMX6_Platform_SDK/output/mx6sl/lib/libsdk.a(epit.o)
epit_setup_interrupt                              /home/leon/git/swp-report/iMX6_Platform_SDK/output/mx6sl/lib/libsdk.a(epit.o)
errno                                             /home/leon/git/swp-report/iMX6_Platform_SDK/output/mx6sl/lib/libsdk.a(runtime_support.o)
                                                  /home/leon/riotboard/arm-2012.09/bin/../arm-none-eabi/lib//libc.a(lib_a-isattyr.o)
                                                  /home/leon/riotboard/arm-2012.09/bin/../arm-none-eabi/lib//libc.a(lib_a-fstatr.o)
                                                  /home/leon/riotboard/arm-2012.09/bin/../arm-none-eabi/lib//libc.a(lib_a-reent.o)
                                                  /home/leon/riotboard/arm-2012.09/bin/../arm-none-eabi/lib//libc.a(lib_a-readr.o)
                                                  /home/leon/riotboard/arm-2012.09/bin/../arm-none-eabi/lib//libc.a(lib_a-lseekr.o)
                                                  /home/leon/riotboard/arm-2012.09/bin/../arm-none-eabi/lib//libc.a(lib_a-closer.o)
                                                  /home/leon/riotboard/arm-2012.09/bin/../arm-none-eabi/lib//libc.a(lib_a-writer.o)
                                                  /home/leon/riotboard/arm-2012.09/bin/../arm-none-eabi/lib//libc.a(lib_a-signalr.o)
                                                  /home/leon/riotboard/arm-2012.09/bin/../arm-none-eabi/lib//libc.a(lib_a-sbrkr.o)
etharp_cleanup_netif                              /home/leon/git/swp-report/iMX6_Platform_SDK/output/mx6sl/lib/liblwip.a(etharp.o)
                                                  /home/leon/git/swp-report/iMX6_Platform_SDK/output/mx6sl/lib/liblwip.a(netif.o)
etharp_find_addr                                  /home/leon/git/swp-report/iMX6_Platform_SDK/output/mx6sl/lib/liblwip.a(etharp.o)
                                                  /home/leon/git/swp-report/iMX6_Platform_SDK/output/mx6sl/lib/liblwip.a(mib2.o)
etharp_output                                     /home/leon/git/swp-report/iMX6_Platform_SDK/output/mx6sl/lib/liblwip.a(etharp.o)
                                                  /home/leon/git/swp-report/iMX6_Platform_SDK/output/mx6sl/lib/liblwip.a(mx6_ethernetif.o)
etharp_query                                      /home/leon/git/swp-report/iMX6_Platform_SDK/output/mx6sl/lib/liblwip.a(etharp.o)
                                                  /home/leon/git/swp-report/iMX6_Platform_SDK/output/mx6sl/lib/liblwip.a(dhcp.o)
etharp_raw                                        /home/leon/git/swp-report/iMX6_Platform_SDK/output/mx6sl/lib/liblwip.a(etharp.o)
                                                  /home/leon/git/swp-report/iMX6_Platform_SDK/output/mx6sl/lib/liblwip.a(autoip.o)
etharp_request                                    /home/leon/git/swp-report/iMX6_Platform_SDK/output/mx6sl/lib/liblwip.a(etharp.o)
                                                  /home/leon/git/swp-report/iMX6_Platform_SDK/output/mx6sl/lib/liblwip.a(netif.o)
etharp_tmr                                        /home/leon/git/swp-report/iMX6_Platform_SDK/output/mx6sl/lib/liblwip.a(etharp.o)
                                                  /home/leon/git/swp-report/iMX6_Platform_SDK/output/mx6sl/lib/liblwip.a(mx6_lwip.o)
                                                  /home/leon/git/swp-report/iMX6_Platform_SDK/output/mx6sl/lib/liblwip.a(timers.o)
ethbroadcast                                      /home/leon/git/swp-report/iMX6_Platform_SDK/output/mx6sl/lib/liblwip.a(etharp.o)
                                                  /home/leon/git/swp-report/iMX6_Platform_SDK/output/mx6sl/lib/liblwip.a(autoip.o)
ethernet_input                                    /home/leon/git/swp-report/iMX6_Platform_SDK/output/mx6sl/lib/liblwip.a(etharp.o)
                                                  /home/leon/git/swp-report/iMX6_Platform_SDK/output/mx6sl/ping/evk_rev_a/obj/apps/ping/src/ping_main.o
ethzero                                           /home/leon/git/swp-report/iMX6_Platform_SDK/output/mx6sl/lib/liblwip.a(etharp.o)
                                                  /home/leon/git/swp-report/iMX6_Platform_SDK/output/mx6sl/lib/liblwip.a(autoip.o)
exception_handler                                 /home/leon/git/swp-report/iMX6_Platform_SDK/output/mx6sl/lib/libsdk.a(vectors.o)
fclose                                            /home/leon/riotboard/arm-2012.09/bin/../arm-none-eabi/lib//libc.a(lib_a-fclose.o)
                                                  /home/leon/riotboard/arm-2012.09/bin/../arm-none-eabi/lib//libc.a(lib_a-findfp.o)
fec_iomux_config                                  /home/leon/git/swp-report/iMX6_Platform_SDK/output/mx6sl/lib/libboard_evk_rev_a.a(fec_iomux_config.o)
                                                  /home/leon/git/swp-report/iMX6_Platform_SDK/output/mx6sl/lib/liblwip.a(mx6_ethernetif.o)
                                                  /home/leon/git/swp-report/iMX6_Platform_SDK/output/mx6sl/lib/libboard_evk_rev_a.a(iomux_config.o)
fflush                                            /home/leon/riotboard/arm-2012.09/bin/../arm-none-eabi/lib//libc.a(lib_a-fflush.o)
                                                  /home/leon/riotboard/arm-2012.09/bin/../arm-none-eabi/lib//libc.a(lib_a-refill.o)
                                                  /home/leon/git/swp-report/iMX6_Platform_SDK/output/mx6sl/lib/liblwip.a(icmp.o)
                                                  /home/leon/git/swp-report/iMX6_Platform_SDK/output/mx6sl/lib/liblwip.a(mx6_ethernetif.o)
                                                  /home/leon/git/swp-report/iMX6_Platform_SDK/output/mx6sl/lib/liblwip.a(etharp.o)
                                                  /home/leon/git/swp-report/iMX6_Platform_SDK/output/mx6sl/lib/liblwip.a(udp.o)
                                                  /home/leon/git/swp-report/iMX6_Platform_SDK/output/mx6sl/lib/liblwip.a(timers.o)
                                                  /home/leon/git/swp-report/iMX6_Platform_SDK/output/mx6sl/lib/liblwip.a(tcp_out.o)
                                                  /home/leon/git/swp-report/iMX6_Platform_SDK/output/mx6sl/lib/liblwip.a(tcp.o)
                                                  /home/leon/git/swp-report/iMX6_Platform_SDK/output/mx6sl/lib/liblwip.a(tcp_in.o)
                                                  /home/leon/git/swp-report/iMX6_Platform_SDK/output/mx6sl/lib/liblwip.a(msg_in.o)
                                                  /home/leon/git/swp-report/iMX6_Platform_SDK/output/mx6sl/lib/liblwip.a(mib_structs.o)
                                                  /home/leon/git/swp-report/iMX6_Platform_SDK/output/mx6sl/lib/liblwip.a(mib2.o)
                                                  /home/leon/git/swp-report/iMX6_Platform_SDK/output/mx6sl/lib/liblwip.a(raw.o)
                                                  /home/leon/git/swp-report/iMX6_Platform_SDK/output/mx6sl/lib/liblwip.a(pbuf.o)
                                                  /home/leon/git/swp-report/iMX6_Platform_SDK/output/mx6sl/lib/liblwip.a(netif.o)
                                                  /home/leon/git/swp-report/iMX6_Platform_SDK/output/mx6sl/lib/liblwip.a(ip4_addr.o)
                                                  /home/leon/git/swp-report/iMX6_Platform_SDK/output/mx6sl/lib/liblwip.a(ip4.o)
                                                  /home/leon/git/swp-report/iMX6_Platform_SDK/output/mx6sl/lib/liblwip.a(igmp.o)
                                                  /home/leon/git/swp-report/iMX6_Platform_SDK/output/mx6sl/lib/liblwip.a(autoip.o)
                                                  /home/leon/git/swp-report/iMX6_Platform_SDK/output/mx6sl/lib/liblwip.a(inet_chksum.o)
                                                  /home/leon/git/swp-report/iMX6_Platform_SDK/output/mx6sl/lib/liblwip.a(dns.o)
                                                  /home/leon/git/swp-report/iMX6_Platform_SDK/output/mx6sl/lib/liblwip.a(dhcp.o)
                                                  /home/leon/git/swp-report/iMX6_Platform_SDK/output/mx6sl/ping/evk_rev_a/obj/apps/ping/src/ping_main.o
                                                  /home/leon/git/swp-report/iMX6_Platform_SDK/output/mx6sl/ping/evk_rev_a/obj/apps/ping/src/ping.o
fiprintf                                          /home/leon/riotboard/arm-2012.09/bin/../arm-none-eabi/lib//libc.a(lib_a-fiprintf.o)
                                                  /home/leon/riotboard/arm-2012.09/bin/../arm-none-eabi/lib//libc.a(lib_a-assert.o)
fputc                                             /home/leon/riotboard/arm-2012.09/bin/../arm-none-eabi/lib//libc.a(lib_a-fputc.o)
                                                  /home/leon/git/swp-report/iMX6_Platform_SDK/output/mx6sl/lib/libsdk.a(system_util.o)
fputwc                                            /home/leon/riotboard/arm-2012.09/bin/../arm-none-eabi/lib//libc.a(lib_a-fputwc.o)
free                                              /home/leon/riotboard/arm-2012.09/bin/../arm-none-eabi/lib//libc.a(lib_a-malloc.o)
                                                  /home/leon/git/swp-report/iMX6_Platform_SDK/output/mx6sl/lib/liblwip.a(etharp.o)
                                                  /home/leon/git/swp-report/iMX6_Platform_SDK/output/mx6sl/lib/liblwip.a(udp.o)
                                                  /home/leon/git/swp-report/iMX6_Platform_SDK/output/mx6sl/lib/liblwip.a(timers.o)
                                                  /home/leon/git/swp-report/iMX6_Platform_SDK/output/mx6sl/lib/liblwip.a(tcp.o)
                                                  /home/leon/git/swp-report/iMX6_Platform_SDK/output/mx6sl/lib/liblwip.a(tcp_in.o)
                                                  /home/leon/git/swp-report/iMX6_Platform_SDK/output/mx6sl/lib/liblwip.a(msg_in.o)
                                                  /home/leon/git/swp-report/iMX6_Platform_SDK/output/mx6sl/lib/liblwip.a(mib_structs.o)
                                                  /home/leon/git/swp-report/iMX6_Platform_SDK/output/mx6sl/lib/liblwip.a(raw.o)
                                                  /home/leon/git/swp-report/iMX6_Platform_SDK/output/mx6sl/lib/liblwip.a(pbuf.o)
                                                  /home/leon/git/swp-report/iMX6_Platform_SDK/output/mx6sl/lib/liblwip.a(igmp.o)
                                                  /home/leon/git/swp-report/iMX6_Platform_SDK/output/mx6sl/lib/liblwip.a(dhcp.o)
free_memory_end                                   /home/leon/git/swp-report/iMX6_Platform_SDK/output/mx6sl/lib/libsdk.a(runtime_support.o)
free_memory_start                                 /home/leon/git/swp-report/iMX6_Platform_SDK/output/mx6sl/lib/libsdk.a(runtime_support.o)
g_TextAttributeBlink                              /home/leon/git/swp-report/iMX6_Platform_SDK/output/mx6sl/lib/libsdk.a(text_color.o)
g_TextAttributeBold                               /home/leon/git/swp-report/iMX6_Platform_SDK/output/mx6sl/lib/libsdk.a(text_color.o)
                                                  /home/leon/git/swp-report/iMX6_Platform_SDK/output/mx6sl/lib/libsdk.a(system_util.o)
g_TextAttributeDefault                            /home/leon/git/swp-report/iMX6_Platform_SDK/output/mx6sl/lib/libsdk.a(text_color.o)
g_TextAttributeDim                                /home/leon/git/swp-report/iMX6_Platform_SDK/output/mx6sl/lib/libsdk.a(text_color.o)
g_TextAttributeHidden                             /home/leon/git/swp-report/iMX6_Platform_SDK/output/mx6sl/lib/libsdk.a(text_color.o)
g_TextAttributeReverse                            /home/leon/git/swp-report/iMX6_Platform_SDK/output/mx6sl/lib/libsdk.a(text_color.o)
g_TextAttributeUnderline                          /home/leon/git/swp-report/iMX6_Platform_SDK/output/mx6sl/lib/libsdk.a(text_color.o)
g_TextColorBlack                                  /home/leon/git/swp-report/iMX6_Platform_SDK/output/mx6sl/lib/libsdk.a(text_color.o)
g_TextColorBlue                                   /home/leon/git/swp-report/iMX6_Platform_SDK/output/mx6sl/lib/libsdk.a(text_color.o)
g_TextColorCyan                                   /home/leon/git/swp-report/iMX6_Platform_SDK/output/mx6sl/lib/libsdk.a(text_color.o)
g_TextColorGray                                   /home/leon/git/swp-report/iMX6_Platform_SDK/output/mx6sl/lib/libsdk.a(text_color.o)
g_TextColorGreen                                  /home/leon/git/swp-report/iMX6_Platform_SDK/output/mx6sl/lib/libsdk.a(text_color.o)
g_TextColorLightBlue                              /home/leon/git/swp-report/iMX6_Platform_SDK/output/mx6sl/lib/libsdk.a(text_color.o)
g_TextColorMagenta                                /home/leon/git/swp-report/iMX6_Platform_SDK/output/mx6sl/lib/libsdk.a(text_color.o)
g_TextColorOrange                                 /home/leon/git/swp-report/iMX6_Platform_SDK/output/mx6sl/lib/libsdk.a(text_color.o)
g_TextColorPurple                                 /home/leon/git/swp-report/iMX6_Platform_SDK/output/mx6sl/lib/libsdk.a(text_color.o)
g_TextColorRed                                    /home/leon/git/swp-report/iMX6_Platform_SDK/output/mx6sl/lib/libsdk.a(text_color.o)
                                                  /home/leon/git/swp-report/iMX6_Platform_SDK/output/mx6sl/lib/libsdk.a(system_util.o)
g_TextColorWhite                                  /home/leon/git/swp-report/iMX6_Platform_SDK/output/mx6sl/lib/libsdk.a(text_color.o)
g_TextColorYellow                                 /home/leon/git/swp-report/iMX6_Platform_SDK/output/mx6sl/lib/libsdk.a(text_color.o)
g_buf                                             /home/leon/git/swp-report/iMX6_Platform_SDK/output/mx6sl/ping/evk_rev_a/obj/apps/ping/src/ping_main.o
g_debug_uart_port                                 /home/leon/git/swp-report/iMX6_Platform_SDK/output/mx6sl/lib/libboard_evk_rev_a.a(hardware_modules.o)
                                                  /home/leon/git/swp-report/iMX6_Platform_SDK/output/mx6sl/lib/libsdk.a(runtime_support.o)
                                                  /home/leon/git/swp-report/iMX6_Platform_SDK/output/mx6sl/lib/libsdk.a(system_util.o)
                                                  /home/leon/git/swp-report/iMX6_Platform_SDK/output/mx6sl/ping/evk_rev_a/obj/apps/common/platform_init.o
g_en0                                             /home/leon/git/swp-report/iMX6_Platform_SDK/output/mx6sl/lib/liblwip.a(mx6_ethernetif.o)
                                                  /home/leon/git/swp-report/iMX6_Platform_SDK/output/mx6sl/ping/evk_rev_a/obj/apps/ping/src/ping_main.o
g_interrupt_handlers                              /home/leon/git/swp-report/iMX6_Platform_SDK/output/mx6sl/lib/libsdk.a(interrupt.o)
g_isNetifUp                                       /home/leon/git/swp-report/iMX6_Platform_SDK/output/mx6sl/ping/evk_rev_a/obj/apps/ping/src/ping_main.o
g_microsecondTimerMultiple                        /home/leon/git/swp-report/iMX6_Platform_SDK/output/mx6sl/lib/libsdk.a(timer.o)
g_netif                                           /home/leon/git/swp-report/iMX6_Platform_SDK/output/mx6sl/ping/evk_rev_a/obj/apps/ping/src/ping_main.o
g_ping_target_addr                                /home/leon/git/swp-report/iMX6_Platform_SDK/output/mx6sl/ping/evk_rev_a/obj/apps/ping/src/ping_main.o
g_ping_target_hostname                            /home/leon/git/swp-report/iMX6_Platform_SDK/output/mx6sl/ping/evk_rev_a/obj/apps/ping/src/ping_main.o
g_state                                           /home/leon/git/swp-report/iMX6_Platform_SDK/output/mx6sl/ping/evk_rev_a/obj/apps/ping/src/ping_main.o
g_system_timer_port                               /home/leon/git/swp-report/iMX6_Platform_SDK/output/mx6sl/lib/libboard_evk_rev_a.a(hardware_modules.o)
                                                  /home/leon/git/swp-report/iMX6_Platform_SDK/output/mx6sl/lib/libsdk.a(timer.o)
g_vectNum                                         /home/leon/git/swp-report/iMX6_Platform_SDK/output/mx6sl/lib/libsdk.a(interrupt.o)
get_arm_private_peripheral_base                   /home/leon/git/swp-report/iMX6_Platform_SDK/output/mx6sl/lib/libsdk.a(cortexA9.o)
                                                  /home/leon/git/swp-report/iMX6_Platform_SDK/output/mx6sl/lib/libsdk.a(gic.o)
get_color_supported                               /home/leon/git/swp-report/iMX6_Platform_SDK/output/mx6sl/lib/libsdk.a(text_color.o)
get_input_hex                                     /home/leon/git/swp-report/iMX6_Platform_SDK/output/mx6sl/lib/libsdk.a(system_util.o)
get_main_clock                                    /home/leon/git/swp-report/iMX6_Platform_SDK/output/mx6sl/lib/libsdk.a(ccm_pll.o)
                                                  /home/leon/git/swp-report/iMX6_Platform_SDK/output/mx6sl/lib/libsdk.a(timer.o)
                                                  /home/leon/git/swp-report/iMX6_Platform_SDK/output/mx6sl/lib/libsdk.a(fec_drv.o)
get_peri_clock                                    /home/leon/git/swp-report/iMX6_Platform_SDK/output/mx6sl/lib/libsdk.a(ccm_pll.o)
                                                  /home/leon/git/swp-report/iMX6_Platform_SDK/output/mx6sl/lib/libsdk.a(imx_uart.o)
get_target_address                                /home/leon/git/swp-report/iMX6_Platform_SDK/output/mx6sl/ping/evk_rev_a/obj/apps/ping/src/ping_main.o
gic_cpu_enable                                    /home/leon/git/swp-report/iMX6_Platform_SDK/output/mx6sl/lib/libsdk.a(gic.o)
gic_enable                                        /home/leon/git/swp-report/iMX6_Platform_SDK/output/mx6sl/lib/libsdk.a(gic.o)
gic_enable_irq                                    /home/leon/git/swp-report/iMX6_Platform_SDK/output/mx6sl/lib/libsdk.a(gic.o)
                                                  /home/leon/git/swp-report/iMX6_Platform_SDK/output/mx6sl/lib/libsdk.a(interrupt.o)
gic_init                                          /home/leon/git/swp-report/iMX6_Platform_SDK/output/mx6sl/lib/libsdk.a(gic.o)
                                                  /home/leon/git/swp-report/iMX6_Platform_SDK/output/mx6sl/ping/evk_rev_a/obj/apps/common/platform_init.o
gic_init_cpu                                      /home/leon/git/swp-report/iMX6_Platform_SDK/output/mx6sl/lib/libsdk.a(gic.o)
gic_read_irq_ack                                  /home/leon/git/swp-report/iMX6_Platform_SDK/output/mx6sl/lib/libsdk.a(gic.o)
                                                  /home/leon/git/swp-report/iMX6_Platform_SDK/output/mx6sl/lib/libsdk.a(interrupt.o)
gic_send_sgi                                      /home/leon/git/swp-report/iMX6_Platform_SDK/output/mx6sl/lib/libsdk.a(gic.o)
gic_set_cpu_priority_mask                         /home/leon/git/swp-report/iMX6_Platform_SDK/output/mx6sl/lib/libsdk.a(gic.o)
gic_set_cpu_target                                /home/leon/git/swp-report/iMX6_Platform_SDK/output/mx6sl/lib/libsdk.a(gic.o)
                                                  /home/leon/git/swp-report/iMX6_Platform_SDK/output/mx6sl/lib/libsdk.a(interrupt.o)
gic_set_irq_priority                              /home/leon/git/swp-report/iMX6_Platform_SDK/output/mx6sl/lib/libsdk.a(gic.o)
                                                  /home/leon/git/swp-report/iMX6_Platform_SDK/output/mx6sl/lib/libsdk.a(interrupt.o)
gic_set_irq_security                              /home/leon/git/swp-report/iMX6_Platform_SDK/output/mx6sl/lib/libsdk.a(gic.o)
                                                  /home/leon/git/swp-report/iMX6_Platform_SDK/output/mx6sl/lib/libsdk.a(interrupt.o)
gic_write_end_of_irq                              /home/leon/git/swp-report/iMX6_Platform_SDK/output/mx6sl/lib/libsdk.a(gic.o)
                                                  /home/leon/git/swp-report/iMX6_Platform_SDK/output/mx6sl/lib/libsdk.a(interrupt.o)
gpio1_iomux_config                                /home/leon/git/swp-report/iMX6_Platform_SDK/output/mx6sl/lib/libboard_evk_rev_a.a(gpio1_iomux_config.o)
                                                  /home/leon/git/swp-report/iMX6_Platform_SDK/output/mx6sl/lib/libboard_evk_rev_a.a(iomux_config.o)
gpio2_iomux_config                                /home/leon/git/swp-report/iMX6_Platform_SDK/output/mx6sl/lib/libboard_evk_rev_a.a(iomux_config.o)
gpio3_iomux_config                                /home/leon/git/swp-report/iMX6_Platform_SDK/output/mx6sl/lib/libboard_evk_rev_a.a(iomux_config.o)
gpio4_iomux_config                                /home/leon/git/swp-report/iMX6_Platform_SDK/output/mx6sl/lib/libboard_evk_rev_a.a(gpio4_iomux_config.o)
                                                  /home/leon/git/swp-report/iMX6_Platform_SDK/output/mx6sl/lib/libboard_evk_rev_a.a(iomux_config.o)
gpio5_iomux_config                                /home/leon/git/swp-report/iMX6_Platform_SDK/output/mx6sl/lib/libboard_evk_rev_a.a(iomux_config.o)
gpio_clear_interrupt                              /home/leon/git/swp-report/iMX6_Platform_SDK/output/mx6sl/lib/libsdk.a(gpio.o)
gpio_get_direction                                /home/leon/git/swp-report/iMX6_Platform_SDK/output/mx6sl/lib/libsdk.a(gpio.o)
gpio_get_interrupt_status                         /home/leon/git/swp-report/iMX6_Platform_SDK/output/mx6sl/lib/libsdk.a(gpio.o)
gpio_get_level                                    /home/leon/git/swp-report/iMX6_Platform_SDK/output/mx6sl/lib/libsdk.a(gpio.o)
gpio_get_port_count                               /home/leon/git/swp-report/iMX6_Platform_SDK/output/mx6sl/lib/libsdk.a(gpio.o)
gpio_set_direction                                /home/leon/git/swp-report/iMX6_Platform_SDK/output/mx6sl/lib/libsdk.a(gpio.o)
                                                  /home/leon/git/swp-report/iMX6_Platform_SDK/output/mx6sl/lib/liblwip.a(mx6_ethernetif.o)
gpio_set_gpio                                     /home/leon/git/swp-report/iMX6_Platform_SDK/output/mx6sl/lib/libsdk.a(gpio.o)
gpio_set_interrupt_config                         /home/leon/git/swp-report/iMX6_Platform_SDK/output/mx6sl/lib/libsdk.a(gpio.o)
gpio_set_interrupt_mask                           /home/leon/git/swp-report/iMX6_Platform_SDK/output/mx6sl/lib/libsdk.a(gpio.o)
gpio_set_level                                    /home/leon/git/swp-report/iMX6_Platform_SDK/output/mx6sl/lib/libsdk.a(gpio.o)
                                                  /home/leon/git/swp-report/iMX6_Platform_SDK/output/mx6sl/lib/liblwip.a(mx6_ethernetif.o)
gpt_iomux_config                                  /home/leon/git/swp-report/iMX6_Platform_SDK/output/mx6sl/lib/libboard_evk_rev_a.a(iomux_config.o)
hal_delay_us                                      /home/leon/git/swp-report/iMX6_Platform_SDK/output/mx6sl/lib/libsdk.a(timer.o)
                                                  /home/leon/git/swp-report/iMX6_Platform_SDK/output/mx6sl/lib/liblwip.a(mx6_ethernetif.o)
                                                  /home/leon/git/swp-report/iMX6_Platform_SDK/output/mx6sl/lib/libsdk.a(fec_drv.o)
                                                  /home/leon/git/swp-report/iMX6_Platform_SDK/output/mx6sl/ping/evk_rev_a/obj/apps/ping/src/ping_main.o
i2c1_iomux_config                                 /home/leon/git/swp-report/iMX6_Platform_SDK/output/mx6sl/lib/libboard_evk_rev_a.a(i2c1_iomux_config.o)
                                                  /home/leon/git/swp-report/iMX6_Platform_SDK/output/mx6sl/lib/libboard_evk_rev_a.a(iomux_config.o)
i2c2_iomux_config                                 /home/leon/git/swp-report/iMX6_Platform_SDK/output/mx6sl/lib/libboard_evk_rev_a.a(i2c2_iomux_config.o)
                                                  /home/leon/git/swp-report/iMX6_Platform_SDK/output/mx6sl/lib/libboard_evk_rev_a.a(iomux_config.o)
i2c3_iomux_config                                 /home/leon/git/swp-report/iMX6_Platform_SDK/output/mx6sl/lib/libboard_evk_rev_a.a(i2c3_iomux_config.o)
                                                  /home/leon/git/swp-report/iMX6_Platform_SDK/output/mx6sl/lib/libboard_evk_rev_a.a(iomux_config.o)
icmp                                              /home/leon/git/swp-report/iMX6_Platform_SDK/output/mx6sl/lib/liblwip.a(mib2.o)
icmp_dest_unreach                                 /home/leon/git/swp-report/iMX6_Platform_SDK/output/mx6sl/lib/liblwip.a(icmp.o)
                                                  /home/leon/git/swp-report/iMX6_Platform_SDK/output/mx6sl/lib/liblwip.a(udp.o)
                                                  /home/leon/git/swp-report/iMX6_Platform_SDK/output/mx6sl/lib/liblwip.a(ip4.o)
icmp_ids                                          /home/leon/git/swp-report/iMX6_Platform_SDK/output/mx6sl/lib/liblwip.a(mib2.o)
icmp_input                                        /home/leon/git/swp-report/iMX6_Platform_SDK/output/mx6sl/lib/liblwip.a(icmp.o)
                                                  /home/leon/git/swp-report/iMX6_Platform_SDK/output/mx6sl/lib/liblwip.a(ip4.o)
icmp_nodes                                        /home/leon/git/swp-report/iMX6_Platform_SDK/output/mx6sl/lib/liblwip.a(mib2.o)
icmp_scalar                                       /home/leon/git/swp-report/iMX6_Platform_SDK/output/mx6sl/lib/liblwip.a(mib2.o)
ifentry                                           /home/leon/git/swp-report/iMX6_Platform_SDK/output/mx6sl/lib/liblwip.a(mib2.o)
ifentry_ids                                       /home/leon/git/swp-report/iMX6_Platform_SDK/output/mx6sl/lib/liblwip.a(mib2.o)
ifentry_nodes                                     /home/leon/git/swp-report/iMX6_Platform_SDK/output/mx6sl/lib/liblwip.a(mib2.o)
iflist_root                                       /home/leon/git/swp-report/iMX6_Platform_SDK/output/mx6sl/lib/liblwip.a(mib2.o)
iftable                                           /home/leon/git/swp-report/iMX6_Platform_SDK/output/mx6sl/lib/liblwip.a(mib2.o)
iftable_id                                        /home/leon/git/swp-report/iMX6_Platform_SDK/output/mx6sl/lib/liblwip.a(mib2.o)
iftable_node                                      /home/leon/git/swp-report/iMX6_Platform_SDK/output/mx6sl/lib/liblwip.a(mib2.o)
igmp_dump_group_list                              /home/leon/git/swp-report/iMX6_Platform_SDK/output/mx6sl/lib/liblwip.a(igmp.o)
igmp_init                                         /home/leon/git/swp-report/iMX6_Platform_SDK/output/mx6sl/lib/liblwip.a(igmp.o)
                                                  /home/leon/git/swp-report/iMX6_Platform_SDK/output/mx6sl/lib/liblwip.a(init.o)
igmp_input                                        /home/leon/git/swp-report/iMX6_Platform_SDK/output/mx6sl/lib/liblwip.a(igmp.o)
                                                  /home/leon/git/swp-report/iMX6_Platform_SDK/output/mx6sl/lib/liblwip.a(ip4.o)
igmp_joingroup                                    /home/leon/git/swp-report/iMX6_Platform_SDK/output/mx6sl/lib/liblwip.a(igmp.o)
igmp_leavegroup                                   /home/leon/git/swp-report/iMX6_Platform_SDK/output/mx6sl/lib/liblwip.a(igmp.o)
igmp_lookfor_group                                /home/leon/git/swp-report/iMX6_Platform_SDK/output/mx6sl/lib/liblwip.a(igmp.o)
                                                  /home/leon/git/swp-report/iMX6_Platform_SDK/output/mx6sl/lib/liblwip.a(ip4.o)
igmp_report_groups                                /home/leon/git/swp-report/iMX6_Platform_SDK/output/mx6sl/lib/liblwip.a(igmp.o)
                                                  /home/leon/git/swp-report/iMX6_Platform_SDK/output/mx6sl/lib/liblwip.a(netif.o)
igmp_start                                        /home/leon/git/swp-report/iMX6_Platform_SDK/output/mx6sl/lib/liblwip.a(igmp.o)
                                                  /home/leon/git/swp-report/iMX6_Platform_SDK/output/mx6sl/lib/liblwip.a(netif.o)
igmp_stop                                         /home/leon/git/swp-report/iMX6_Platform_SDK/output/mx6sl/lib/liblwip.a(igmp.o)
                                                  /home/leon/git/swp-report/iMX6_Platform_SDK/output/mx6sl/lib/liblwip.a(netif.o)
igmp_tmr                                          /home/leon/git/swp-report/iMX6_Platform_SDK/output/mx6sl/lib/liblwip.a(igmp.o)
                                                  /home/leon/git/swp-report/iMX6_Platform_SDK/output/mx6sl/lib/liblwip.a(timers.o)
imx_fec_get_phy_status                            /home/leon/git/swp-report/iMX6_Platform_SDK/output/mx6sl/lib/libsdk.a(fec_drv.o)
                                                  /home/leon/git/swp-report/iMX6_Platform_SDK/output/mx6sl/ping/evk_rev_a/obj/apps/ping/src/ping_main.o
imx_fec_init                                      /home/leon/git/swp-report/iMX6_Platform_SDK/output/mx6sl/lib/libsdk.a(fec_drv.o)
                                                  /home/leon/git/swp-report/iMX6_Platform_SDK/output/mx6sl/lib/liblwip.a(mx6_ethernetif.o)
imx_fec_isolate_phy                               /home/leon/git/swp-report/iMX6_Platform_SDK/output/mx6sl/lib/libsdk.a(fec_drv.o)
imx_fec_mii_read                                  /home/leon/git/swp-report/iMX6_Platform_SDK/output/mx6sl/lib/libsdk.a(fec_drv.o)
imx_fec_mii_type                                  /home/leon/git/swp-report/iMX6_Platform_SDK/output/mx6sl/lib/libsdk.a(fec_drv.o)
                                                  /home/leon/git/swp-report/iMX6_Platform_SDK/output/mx6sl/lib/liblwip.a(mx6_ethernetif.o)
imx_fec_mii_write                                 /home/leon/git/swp-report/iMX6_Platform_SDK/output/mx6sl/lib/libsdk.a(fec_drv.o)
imx_fec_phy_init                                  /home/leon/git/swp-report/iMX6_Platform_SDK/output/mx6sl/lib/libsdk.a(fec_drv.o)
                                                  /home/leon/git/swp-report/iMX6_Platform_SDK/output/mx6sl/lib/liblwip.a(mx6_ethernetif.o)
imx_fec_poll                                      /home/leon/git/swp-report/iMX6_Platform_SDK/output/mx6sl/lib/libsdk.a(fec_drv.o)
                                                  /home/leon/git/swp-report/iMX6_Platform_SDK/output/mx6sl/lib/liblwip.a(mx6_ethernetif.o)
imx_fec_recv                                      /home/leon/git/swp-report/iMX6_Platform_SDK/output/mx6sl/lib/libsdk.a(fec_drv.o)
                                                  /home/leon/git/swp-report/iMX6_Platform_SDK/output/mx6sl/lib/liblwip.a(mx6_ethernetif.o)
imx_fec_send                                      /home/leon/git/swp-report/iMX6_Platform_SDK/output/mx6sl/lib/libsdk.a(fec_drv.o)
                                                  /home/leon/git/swp-report/iMX6_Platform_SDK/output/mx6sl/lib/liblwip.a(mx6_ethernetif.o)
imx_fec_setup                                     /home/leon/git/swp-report/iMX6_Platform_SDK/output/mx6sl/lib/liblwip.a(mx6_ethernetif.o)
imx_fec_start                                     /home/leon/git/swp-report/iMX6_Platform_SDK/output/mx6sl/lib/libsdk.a(fec_drv.o)
                                                  /home/leon/git/swp-report/iMX6_Platform_SDK/output/mx6sl/lib/liblwip.a(mx6_ethernetif.o)
imx_fec_stop                                      /home/leon/git/swp-report/iMX6_Platform_SDK/output/mx6sl/lib/libsdk.a(fec_drv.o)
imx_fec_unisolate_phy                             /home/leon/git/swp-report/iMX6_Platform_SDK/output/mx6sl/lib/libsdk.a(fec_drv.o)
inet_chksum                                       /home/leon/git/swp-report/iMX6_Platform_SDK/output/mx6sl/lib/liblwip.a(inet_chksum.o)
                                                  /home/leon/git/swp-report/iMX6_Platform_SDK/output/mx6sl/lib/liblwip.a(icmp.o)
                                                  /home/leon/git/swp-report/iMX6_Platform_SDK/output/mx6sl/lib/liblwip.a(ip4.o)
                                                  /home/leon/git/swp-report/iMX6_Platform_SDK/output/mx6sl/lib/liblwip.a(igmp.o)
                                                  /home/leon/git/swp-report/iMX6_Platform_SDK/output/mx6sl/ping/evk_rev_a/obj/apps/ping/src/ping.o
inet_chksum_pbuf                                  /home/leon/git/swp-report/iMX6_Platform_SDK/output/mx6sl/lib/liblwip.a(inet_chksum.o)
                                                  /home/leon/git/swp-report/iMX6_Platform_SDK/output/mx6sl/lib/liblwip.a(icmp.o)
inet_chksum_pseudo                                /home/leon/git/swp-report/iMX6_Platform_SDK/output/mx6sl/lib/liblwip.a(inet_chksum.o)
                                                  /home/leon/git/swp-report/iMX6_Platform_SDK/output/mx6sl/lib/liblwip.a(udp.o)
                                                  /home/leon/git/swp-report/iMX6_Platform_SDK/output/mx6sl/lib/liblwip.a(tcp_out.o)
                                                  /home/leon/git/swp-report/iMX6_Platform_SDK/output/mx6sl/lib/liblwip.a(tcp_in.o)
inet_chksum_pseudo_partial                        /home/leon/git/swp-report/iMX6_Platform_SDK/output/mx6sl/lib/liblwip.a(inet_chksum.o)
init_fec                                          /home/leon/git/swp-report/iMX6_Platform_SDK/output/mx6sl/lib/liblwip.a(mx6_ethernetif.o)
init_lwip                                         /home/leon/git/swp-report/iMX6_Platform_SDK/output/mx6sl/ping/evk_rev_a/obj/apps/ping/src/ping_main.o
input_dcd                                         /home/leon/git/swp-report/iMX6_Platform_SDK/output/mx6sl/lib/libboard_evk_rev_a.a(dcd.o)
input_dcd_hdr                                     /home/leon/git/swp-report/iMX6_Platform_SDK/output/mx6sl/lib/libboard_evk_rev_a.a(dcd.o)
                                                  /home/leon/git/swp-report/iMX6_Platform_SDK/output/mx6sl/ping/evk_rev_a/obj/apps/common/ivt.o
input_dcd_wrt_cmd                                 /home/leon/git/swp-report/iMX6_Platform_SDK/output/mx6sl/lib/libboard_evk_rev_a.a(dcd.o)
input_ivt                                         /home/leon/git/swp-report/iMX6_Platform_SDK/output/mx6sl/ping/evk_rev_a/obj/apps/common/ivt.o
interfaces                                        /home/leon/git/swp-report/iMX6_Platform_SDK/output/mx6sl/lib/liblwip.a(mib2.o)
interfaces_ids                                    /home/leon/git/swp-report/iMX6_Platform_SDK/output/mx6sl/lib/liblwip.a(mib2.o)
interfaces_nodes                                  /home/leon/git/swp-report/iMX6_Platform_SDK/output/mx6sl/lib/liblwip.a(mib2.o)
interfaces_scalar                                 /home/leon/git/swp-report/iMX6_Platform_SDK/output/mx6sl/lib/liblwip.a(mib2.o)
internet                                          /home/leon/git/swp-report/iMX6_Platform_SDK/output/mx6sl/lib/liblwip.a(mib2.o)
                                                  /home/leon/git/swp-report/iMX6_Platform_SDK/output/mx6sl/lib/liblwip.a(msg_in.o)
internet_ids                                      /home/leon/git/swp-report/iMX6_Platform_SDK/output/mx6sl/lib/liblwip.a(mib2.o)
internet_nodes                                    /home/leon/git/swp-report/iMX6_Platform_SDK/output/mx6sl/lib/liblwip.a(mib2.o)
iomux_config                                      /home/leon/git/swp-report/iMX6_Platform_SDK/output/mx6sl/lib/libboard_evk_rev_a.a(iomux_config.o)
ip4_addr_isbroadcast                              /home/leon/git/swp-report/iMX6_Platform_SDK/output/mx6sl/lib/liblwip.a(ip4_addr.o)
                                                  /home/leon/git/swp-report/iMX6_Platform_SDK/output/mx6sl/lib/liblwip.a(icmp.o)
                                                  /home/leon/git/swp-report/iMX6_Platform_SDK/output/mx6sl/lib/liblwip.a(etharp.o)
                                                  /home/leon/git/swp-report/iMX6_Platform_SDK/output/mx6sl/lib/liblwip.a(udp.o)
                                                  /home/leon/git/swp-report/iMX6_Platform_SDK/output/mx6sl/lib/liblwip.a(tcp_in.o)
                                                  /home/leon/git/swp-report/iMX6_Platform_SDK/output/mx6sl/lib/liblwip.a(ip4.o)
ip4_addr_netmask_valid                            /home/leon/git/swp-report/iMX6_Platform_SDK/output/mx6sl/lib/liblwip.a(ip4_addr.o)
ip_addr_any                                       /home/leon/git/swp-report/iMX6_Platform_SDK/output/mx6sl/lib/liblwip.a(ip4_addr.o)
                                                  /home/leon/git/swp-report/iMX6_Platform_SDK/output/mx6sl/lib/liblwip.a(msg_in.o)
                                                  /home/leon/git/swp-report/iMX6_Platform_SDK/output/mx6sl/lib/liblwip.a(igmp.o)
                                                  /home/leon/git/swp-report/iMX6_Platform_SDK/output/mx6sl/lib/liblwip.a(autoip.o)
                                                  /home/leon/git/swp-report/iMX6_Platform_SDK/output/mx6sl/lib/liblwip.a(dns.o)
                                                  /home/leon/git/swp-report/iMX6_Platform_SDK/output/mx6sl/lib/liblwip.a(dhcp.o)
                                                  /home/leon/git/swp-report/iMX6_Platform_SDK/output/mx6sl/ping/evk_rev_a/obj/apps/ping/src/ping.o
ip_addr_broadcast                                 /home/leon/git/swp-report/iMX6_Platform_SDK/output/mx6sl/lib/liblwip.a(ip4_addr.o)
                                                  /home/leon/git/swp-report/iMX6_Platform_SDK/output/mx6sl/lib/liblwip.a(dhcp.o)
ip_data                                           /home/leon/git/swp-report/iMX6_Platform_SDK/output/mx6sl/lib/liblwip.a(ip4.o)
                                                  /home/leon/git/swp-report/iMX6_Platform_SDK/output/mx6sl/lib/liblwip.a(icmp.o)
                                                  /home/leon/git/swp-report/iMX6_Platform_SDK/output/mx6sl/lib/liblwip.a(udp.o)
                                                  /home/leon/git/swp-report/iMX6_Platform_SDK/output/mx6sl/lib/liblwip.a(tcp_in.o)
                                                  /home/leon/git/swp-report/iMX6_Platform_SDK/output/mx6sl/lib/liblwip.a(raw.o)
ip_ids                                            /home/leon/git/swp-report/iMX6_Platform_SDK/output/mx6sl/lib/liblwip.a(mib2.o)
ip_input                                          /home/leon/git/swp-report/iMX6_Platform_SDK/output/mx6sl/lib/liblwip.a(ip4.o)
                                                  /home/leon/git/swp-report/iMX6_Platform_SDK/output/mx6sl/lib/liblwip.a(etharp.o)
                                                  /home/leon/git/swp-report/iMX6_Platform_SDK/output/mx6sl/lib/liblwip.a(netif.o)
ip_nodes                                          /home/leon/git/swp-report/iMX6_Platform_SDK/output/mx6sl/lib/liblwip.a(mib2.o)
ip_output                                         /home/leon/git/swp-report/iMX6_Platform_SDK/output/mx6sl/lib/liblwip.a(ip4.o)
                                                  /home/leon/git/swp-report/iMX6_Platform_SDK/output/mx6sl/lib/liblwip.a(icmp.o)
                                                  /home/leon/git/swp-report/iMX6_Platform_SDK/output/mx6sl/lib/liblwip.a(tcp_out.o)
ip_output_hinted                                  /home/leon/git/swp-report/iMX6_Platform_SDK/output/mx6sl/lib/liblwip.a(ip4.o)
                                                  /home/leon/git/swp-report/iMX6_Platform_SDK/output/mx6sl/lib/liblwip.a(tcp_out.o)
ip_output_if                                      /home/leon/git/swp-report/iMX6_Platform_SDK/output/mx6sl/lib/liblwip.a(ip4.o)
                                                  /home/leon/git/swp-report/iMX6_Platform_SDK/output/mx6sl/lib/liblwip.a(icmp.o)
                                                  /home/leon/git/swp-report/iMX6_Platform_SDK/output/mx6sl/lib/liblwip.a(udp.o)
                                                  /home/leon/git/swp-report/iMX6_Platform_SDK/output/mx6sl/lib/liblwip.a(raw.o)
ip_output_if_opt                                  /home/leon/git/swp-report/iMX6_Platform_SDK/output/mx6sl/lib/liblwip.a(ip4.o)
                                                  /home/leon/git/swp-report/iMX6_Platform_SDK/output/mx6sl/lib/liblwip.a(igmp.o)
ip_route                                          /home/leon/git/swp-report/iMX6_Platform_SDK/output/mx6sl/lib/liblwip.a(ip4.o)
                                                  /home/leon/git/swp-report/iMX6_Platform_SDK/output/mx6sl/lib/liblwip.a(udp.o)
                                                  /home/leon/git/swp-report/iMX6_Platform_SDK/output/mx6sl/lib/liblwip.a(tcp_out.o)
                                                  /home/leon/git/swp-report/iMX6_Platform_SDK/output/mx6sl/lib/liblwip.a(tcp.o)
                                                  /home/leon/git/swp-report/iMX6_Platform_SDK/output/mx6sl/lib/liblwip.a(msg_out.o)
                                                  /home/leon/git/swp-report/iMX6_Platform_SDK/output/mx6sl/lib/liblwip.a(raw.o)
ip_scalar                                         /home/leon/git/swp-report/iMX6_Platform_SDK/output/mx6sl/lib/liblwip.a(mib2.o)
ipaddr_addr                                       /home/leon/git/swp-report/iMX6_Platform_SDK/output/mx6sl/lib/liblwip.a(ip4_addr.o)
                                                  /home/leon/git/swp-report/iMX6_Platform_SDK/output/mx6sl/lib/liblwip.a(dns.o)
ipaddr_aton                                       /home/leon/git/swp-report/iMX6_Platform_SDK/output/mx6sl/lib/liblwip.a(ip4_addr.o)
ipaddr_ntoa                                       /home/leon/git/swp-report/iMX6_Platform_SDK/output/mx6sl/lib/liblwip.a(ip4_addr.o)
ipaddr_ntoa_r                                     /home/leon/git/swp-report/iMX6_Platform_SDK/output/mx6sl/lib/liblwip.a(ip4_addr.o)
                                                  /home/leon/git/swp-report/iMX6_Platform_SDK/output/mx6sl/ping/evk_rev_a/obj/apps/ping/src/ping_main.o
ipaddrentry                                       /home/leon/git/swp-report/iMX6_Platform_SDK/output/mx6sl/lib/liblwip.a(mib2.o)
ipaddrentry_ids                                   /home/leon/git/swp-report/iMX6_Platform_SDK/output/mx6sl/lib/liblwip.a(mib2.o)
ipaddrentry_nodes                                 /home/leon/git/swp-report/iMX6_Platform_SDK/output/mx6sl/lib/liblwip.a(mib2.o)
ipaddrtable                                       /home/leon/git/swp-report/iMX6_Platform_SDK/output/mx6sl/lib/liblwip.a(mib2.o)
ipaddrtable_id                                    /home/leon/git/swp-report/iMX6_Platform_SDK/output/mx6sl/lib/liblwip.a(mib2.o)
ipaddrtable_node                                  /home/leon/git/swp-report/iMX6_Platform_SDK/output/mx6sl/lib/liblwip.a(mib2.o)
ipaddrtree_root                                   /home/leon/git/swp-report/iMX6_Platform_SDK/output/mx6sl/lib/liblwip.a(mib2.o)
ipntomentry                                       /home/leon/git/swp-report/iMX6_Platform_SDK/output/mx6sl/lib/liblwip.a(mib2.o)
ipntomentry_ids                                   /home/leon/git/swp-report/iMX6_Platform_SDK/output/mx6sl/lib/liblwip.a(mib2.o)
ipntomentry_nodes                                 /home/leon/git/swp-report/iMX6_Platform_SDK/output/mx6sl/lib/liblwip.a(mib2.o)
ipntomtable                                       /home/leon/git/swp-report/iMX6_Platform_SDK/output/mx6sl/lib/liblwip.a(mib2.o)
ipntomtable_id                                    /home/leon/git/swp-report/iMX6_Platform_SDK/output/mx6sl/lib/liblwip.a(mib2.o)
ipntomtable_node                                  /home/leon/git/swp-report/iMX6_Platform_SDK/output/mx6sl/lib/liblwip.a(mib2.o)
ipntomtree_root                                   /home/leon/git/swp-report/iMX6_Platform_SDK/output/mx6sl/lib/liblwip.a(mib2.o)
iprteentry                                        /home/leon/git/swp-report/iMX6_Platform_SDK/output/mx6sl/lib/liblwip.a(mib2.o)
iprteentry_ids                                    /home/leon/git/swp-report/iMX6_Platform_SDK/output/mx6sl/lib/liblwip.a(mib2.o)
iprteentry_nodes                                  /home/leon/git/swp-report/iMX6_Platform_SDK/output/mx6sl/lib/liblwip.a(mib2.o)
iprtetable                                        /home/leon/git/swp-report/iMX6_Platform_SDK/output/mx6sl/lib/liblwip.a(mib2.o)
iprtetable_id                                     /home/leon/git/swp-report/iMX6_Platform_SDK/output/mx6sl/lib/liblwip.a(mib2.o)
iprtetable_node                                   /home/leon/git/swp-report/iMX6_Platform_SDK/output/mx6sl/lib/liblwip.a(mib2.o)
iprtetree_root                                    /home/leon/git/swp-report/iMX6_Platform_SDK/output/mx6sl/lib/liblwip.a(mib2.o)
is_color_supported                                /home/leon/git/swp-report/iMX6_Platform_SDK/output/mx6sl/lib/libsdk.a(text_color.o)
is_input_char                                     /home/leon/git/swp-report/iMX6_Platform_SDK/output/mx6sl/lib/libsdk.a(system_util.o)
jump_to_sdp                                       /home/leon/git/swp-report/iMX6_Platform_SDK/output/mx6sl/lib/libsdk.a(system_util.o)
kMACAddress                                       /home/leon/git/swp-report/iMX6_Platform_SDK/output/mx6sl/ping/evk_rev_a/obj/apps/ping/src/ping_main.o
k_gpio_mux_registers                              /home/leon/git/swp-report/iMX6_Platform_SDK/output/mx6sl/lib/libsdk.a(imx6sl_gpio_map.o)
                                                  /home/leon/git/swp-report/iMX6_Platform_SDK/output/mx6sl/lib/libsdk.a(gpio.o)
kpp_iomux_config                                  /home/leon/git/swp-report/iMX6_Platform_SDK/output/mx6sl/lib/libboard_evk_rev_a.a(kpp_iomux_config.o)
                                                  /home/leon/git/swp-report/iMX6_Platform_SDK/output/mx6sl/lib/libboard_evk_rev_a.a(iomux_config.o)
lcd_iomux_config                                  /home/leon/git/swp-report/iMX6_Platform_SDK/output/mx6sl/lib/libboard_evk_rev_a.a(lcd_iomux_config.o)
                                                  /home/leon/git/swp-report/iMX6_Platform_SDK/output/mx6sl/lib/libboard_evk_rev_a.a(iomux_config.o)
localeconv                                        /home/leon/riotboard/arm-2012.09/bin/../arm-none-eabi/lib//libc.a(lib_a-locale.o)
lwip_htonl                                        /home/leon/git/swp-report/iMX6_Platform_SDK/output/mx6sl/lib/liblwip.a(def.o)
                                                  /home/leon/git/swp-report/iMX6_Platform_SDK/output/mx6sl/lib/liblwip.a(tcp_out.o)
                                                  /home/leon/git/swp-report/iMX6_Platform_SDK/output/mx6sl/lib/liblwip.a(ip4_addr.o)
                                                  /home/leon/git/swp-report/iMX6_Platform_SDK/output/mx6sl/lib/liblwip.a(autoip.o)
                                                  /home/leon/git/swp-report/iMX6_Platform_SDK/output/mx6sl/lib/liblwip.a(dhcp.o)
lwip_htons                                        /home/leon/git/swp-report/iMX6_Platform_SDK/output/mx6sl/lib/liblwip.a(def.o)
                                                  /home/leon/git/swp-report/iMX6_Platform_SDK/output/mx6sl/lib/liblwip.a(mx6_ethernetif.o)
                                                  /home/leon/git/swp-report/iMX6_Platform_SDK/output/mx6sl/lib/liblwip.a(etharp.o)
                                                  /home/leon/git/swp-report/iMX6_Platform_SDK/output/mx6sl/lib/liblwip.a(udp.o)
                                                  /home/leon/git/swp-report/iMX6_Platform_SDK/output/mx6sl/lib/liblwip.a(tcp_out.o)
                                                  /home/leon/git/swp-report/iMX6_Platform_SDK/output/mx6sl/lib/liblwip.a(tcp_in.o)
                                                  /home/leon/git/swp-report/iMX6_Platform_SDK/output/mx6sl/lib/liblwip.a(ip4.o)
                                                  /home/leon/git/swp-report/iMX6_Platform_SDK/output/mx6sl/lib/liblwip.a(inet_chksum.o)
                                                  /home/leon/git/swp-report/iMX6_Platform_SDK/output/mx6sl/lib/liblwip.a(dns.o)
                                                  /home/leon/git/swp-report/iMX6_Platform_SDK/output/mx6sl/ping/evk_rev_a/obj/apps/ping/src/ping.o
lwip_init                                         /home/leon/git/swp-report/iMX6_Platform_SDK/output/mx6sl/lib/liblwip.a(init.o)
                                                  /home/leon/git/swp-report/iMX6_Platform_SDK/output/mx6sl/ping/evk_rev_a/obj/apps/ping/src/ping_main.o
lwip_ntohl                                        /home/leon/git/swp-report/iMX6_Platform_SDK/output/mx6sl/lib/liblwip.a(def.o)
                                                  /home/leon/git/swp-report/iMX6_Platform_SDK/output/mx6sl/lib/liblwip.a(tcp_out.o)
                                                  /home/leon/git/swp-report/iMX6_Platform_SDK/output/mx6sl/lib/liblwip.a(tcp_in.o)
                                                  /home/leon/git/swp-report/iMX6_Platform_SDK/output/mx6sl/lib/liblwip.a(autoip.o)
                                                  /home/leon/git/swp-report/iMX6_Platform_SDK/output/mx6sl/lib/liblwip.a(dns.o)
                                                  /home/leon/git/swp-report/iMX6_Platform_SDK/output/mx6sl/lib/liblwip.a(dhcp.o)
lwip_ntohs                                        /home/leon/git/swp-report/iMX6_Platform_SDK/output/mx6sl/lib/liblwip.a(def.o)
                                                  /home/leon/git/swp-report/iMX6_Platform_SDK/output/mx6sl/lib/liblwip.a(udp.o)
                                                  /home/leon/git/swp-report/iMX6_Platform_SDK/output/mx6sl/lib/liblwip.a(tcp_out.o)
                                                  /home/leon/git/swp-report/iMX6_Platform_SDK/output/mx6sl/lib/liblwip.a(tcp_in.o)
                                                  /home/leon/git/swp-report/iMX6_Platform_SDK/output/mx6sl/lib/liblwip.a(ip4.o)
                                                  /home/leon/git/swp-report/iMX6_Platform_SDK/output/mx6sl/ping/evk_rev_a/obj/apps/ping/src/ping_main.o
                                                  /home/leon/git/swp-report/iMX6_Platform_SDK/output/mx6sl/ping/evk_rev_a/obj/apps/ping/src/ping.o
lwip_standard_chksum                              /home/leon/git/swp-report/iMX6_Platform_SDK/output/mx6sl/lib/liblwip.a(inet_chksum.o)
lwip_stats                                        /home/leon/git/swp-report/iMX6_Platform_SDK/output/mx6sl/lib/liblwip.a(stats.o)
                                                  /home/leon/git/swp-report/iMX6_Platform_SDK/output/mx6sl/lib/liblwip.a(icmp.o)
                                                  /home/leon/git/swp-report/iMX6_Platform_SDK/output/mx6sl/lib/liblwip.a(mx6_ethernetif.o)
                                                  /home/leon/git/swp-report/iMX6_Platform_SDK/output/mx6sl/lib/liblwip.a(etharp.o)
                                                  /home/leon/git/swp-report/iMX6_Platform_SDK/output/mx6sl/lib/liblwip.a(udp.o)
                                                  /home/leon/git/swp-report/iMX6_Platform_SDK/output/mx6sl/lib/liblwip.a(tcp_out.o)
                                                  /home/leon/git/swp-report/iMX6_Platform_SDK/output/mx6sl/lib/liblwip.a(tcp.o)
                                                  /home/leon/git/swp-report/iMX6_Platform_SDK/output/mx6sl/lib/liblwip.a(tcp_in.o)
                                                  /home/leon/git/swp-report/iMX6_Platform_SDK/output/mx6sl/lib/liblwip.a(netif.o)
                                                  /home/leon/git/swp-report/iMX6_Platform_SDK/output/mx6sl/lib/liblwip.a(ip4.o)
                                                  /home/leon/git/swp-report/iMX6_Platform_SDK/output/mx6sl/lib/liblwip.a(igmp.o)
main                                              /home/leon/git/swp-report/iMX6_Platform_SDK/output/mx6sl/ping/evk_rev_a/obj/apps/ping/src/ping_main.o
                                                  /home/leon/git/swp-report/iMX6_Platform_SDK/output/mx6sl/lib/libsdk.a(startup.o)
malloc                                            /home/leon/riotboard/arm-2012.09/bin/../arm-none-eabi/lib//libc.a(lib_a-malloc.o)
                                                  /home/leon/git/swp-report/iMX6_Platform_SDK/output/mx6sl/lib/liblwip.a(etharp.o)
                                                  /home/leon/git/swp-report/iMX6_Platform_SDK/output/mx6sl/lib/liblwip.a(udp.o)
                                                  /home/leon/git/swp-report/iMX6_Platform_SDK/output/mx6sl/lib/liblwip.a(timers.o)
                                                  /home/leon/git/swp-report/iMX6_Platform_SDK/output/mx6sl/lib/liblwip.a(tcp_out.o)
                                                  /home/leon/git/swp-report/iMX6_Platform_SDK/output/mx6sl/lib/liblwip.a(tcp.o)
                                                  /home/leon/git/swp-report/iMX6_Platform_SDK/output/mx6sl/lib/liblwip.a(msg_in.o)
                                                  /home/leon/git/swp-report/iMX6_Platform_SDK/output/mx6sl/lib/liblwip.a(mib_structs.o)
                                                  /home/leon/git/swp-report/iMX6_Platform_SDK/output/mx6sl/lib/liblwip.a(raw.o)
                                                  /home/leon/git/swp-report/iMX6_Platform_SDK/output/mx6sl/lib/liblwip.a(pbuf.o)
                                                  /home/leon/git/swp-report/iMX6_Platform_SDK/output/mx6sl/lib/liblwip.a(igmp.o)
                                                  /home/leon/git/swp-report/iMX6_Platform_SDK/output/mx6sl/lib/liblwip.a(autoip.o)
                                                  /home/leon/git/swp-report/iMX6_Platform_SDK/output/mx6sl/lib/liblwip.a(dhcp.o)
                                                  /home/leon/git/swp-report/iMX6_Platform_SDK/output/mx6sl/lib/libsdk.a(system_util.o)
memchr                                            /home/leon/riotboard/arm-2012.09/bin/../arm-none-eabi/lib//libc.a(lib_a-memchr.o)
                                                  /home/leon/riotboard/arm-2012.09/bin/../arm-none-eabi/lib//libc.a(lib_a-fvwrite.o)
                                                  /home/leon/riotboard/arm-2012.09/bin/../arm-none-eabi/lib//libc.a(lib_a-vfprintf.o)
                                                  /home/leon/riotboard/arm-2012.09/bin/../arm-none-eabi/lib//libc.a(lib_a-vfiprintf.o)
memcmp                                            /home/leon/riotboard/arm-2012.09/bin/../arm-none-eabi/lib//libc.a(lib_a-memcmp.o)
                                                  /home/leon/git/swp-report/iMX6_Platform_SDK/output/mx6sl/lib/liblwip.a(etharp.o)
                                                  /home/leon/git/swp-report/iMX6_Platform_SDK/output/mx6sl/lib/liblwip.a(autoip.o)
memcpy                                            /home/leon/riotboard/arm-2012.09/bin/../arm-none-eabi/lib//libc.a(lib_a-memcpy.o)
                                                  /home/leon/riotboard/arm-2012.09/bin/../arm-none-eabi/lib//libc.a(lib_a-mprec.o)
                                                  /home/leon/riotboard/arm-2012.09/bin/../arm-none-eabi/lib//libc.a(lib_a-fvwrite.o)
                                                  /home/leon/riotboard/arm-2012.09/bin/../arm-none-eabi/lib//libc.a(lib_a-dtoa.o)
                                                  /home/leon/git/swp-report/iMX6_Platform_SDK/output/mx6sl/lib/liblwip.a(icmp.o)
                                                  /home/leon/git/swp-report/iMX6_Platform_SDK/output/mx6sl/lib/liblwip.a(mx6_ethernetif.o)
                                                  /home/leon/git/swp-report/iMX6_Platform_SDK/output/mx6sl/lib/liblwip.a(etharp.o)
                                                  /home/leon/git/swp-report/iMX6_Platform_SDK/output/mx6sl/lib/liblwip.a(tcp_out.o)
                                                  /home/leon/git/swp-report/iMX6_Platform_SDK/output/mx6sl/lib/liblwip.a(tcp.o)
                                                  /home/leon/git/swp-report/iMX6_Platform_SDK/output/mx6sl/lib/liblwip.a(msg_in.o)
                                                  /home/leon/git/swp-report/iMX6_Platform_SDK/output/mx6sl/lib/liblwip.a(mib2.o)
                                                  /home/leon/git/swp-report/iMX6_Platform_SDK/output/mx6sl/lib/liblwip.a(pbuf.o)
                                                  /home/leon/git/swp-report/iMX6_Platform_SDK/output/mx6sl/lib/liblwip.a(ip4.o)
                                                  /home/leon/git/swp-report/iMX6_Platform_SDK/output/mx6sl/lib/liblwip.a(autoip.o)
                                                  /home/leon/git/swp-report/iMX6_Platform_SDK/output/mx6sl/lib/liblwip.a(dns.o)
                                                  /home/leon/git/swp-report/iMX6_Platform_SDK/output/mx6sl/lib/libsdk.a(fec_drv.o)
memmove                                           /home/leon/riotboard/arm-2012.09/bin/../arm-none-eabi/lib//libc.a(lib_a-memmove.o)
                                                  /home/leon/riotboard/arm-2012.09/bin/../arm-none-eabi/lib//libc.a(lib_a-fvwrite.o)
                                                  /home/leon/riotboard/arm-2012.09/bin/../arm-none-eabi/lib//libc.a(lib_a-reallocr.o)
memp_sizes                                        /home/leon/git/swp-report/iMX6_Platform_SDK/output/mx6sl/lib/liblwip.a(memp.o)
                                                  /home/leon/git/swp-report/iMX6_Platform_SDK/output/mx6sl/lib/liblwip.a(etharp.o)
                                                  /home/leon/git/swp-report/iMX6_Platform_SDK/output/mx6sl/lib/liblwip.a(udp.o)
                                                  /home/leon/git/swp-report/iMX6_Platform_SDK/output/mx6sl/lib/liblwip.a(timers.o)
                                                  /home/leon/git/swp-report/iMX6_Platform_SDK/output/mx6sl/lib/liblwip.a(tcp_out.o)
                                                  /home/leon/git/swp-report/iMX6_Platform_SDK/output/mx6sl/lib/liblwip.a(tcp.o)
                                                  /home/leon/git/swp-report/iMX6_Platform_SDK/output/mx6sl/lib/liblwip.a(msg_in.o)
                                                  /home/leon/git/swp-report/iMX6_Platform_SDK/output/mx6sl/lib/liblwip.a(mib_structs.o)
                                                  /home/leon/git/swp-report/iMX6_Platform_SDK/output/mx6sl/lib/liblwip.a(raw.o)
                                                  /home/leon/git/swp-report/iMX6_Platform_SDK/output/mx6sl/lib/liblwip.a(pbuf.o)
                                                  /home/leon/git/swp-report/iMX6_Platform_SDK/output/mx6sl/lib/liblwip.a(igmp.o)
memset                                            /home/leon/riotboard/arm-2012.09/bin/../arm-none-eabi/lib//libc.a(lib_a-memset.o)
                                                  /home/leon/riotboard/arm-2012.09/bin/../arm-none-eabi/lib//libc.a(lib_a-callocr.o)
                                                  /home/leon/riotboard/arm-2012.09/bin/../arm-none-eabi/lib//libc.a(lib_a-findfp.o)
                                                  /home/leon/git/swp-report/iMX6_Platform_SDK/output/mx6sl/lib/liblwip.a(udp.o)
                                                  /home/leon/git/swp-report/iMX6_Platform_SDK/output/mx6sl/lib/liblwip.a(tcp.o)
                                                  /home/leon/git/swp-report/iMX6_Platform_SDK/output/mx6sl/lib/liblwip.a(raw.o)
                                                  /home/leon/git/swp-report/iMX6_Platform_SDK/output/mx6sl/lib/liblwip.a(ip4.o)
                                                  /home/leon/git/swp-report/iMX6_Platform_SDK/output/mx6sl/lib/liblwip.a(autoip.o)
                                                  /home/leon/git/swp-report/iMX6_Platform_SDK/output/mx6sl/lib/liblwip.a(dns.o)
                                                  /home/leon/git/swp-report/iMX6_Platform_SDK/output/mx6sl/lib/liblwip.a(dhcp.o)
mgmt                                              /home/leon/git/swp-report/iMX6_Platform_SDK/output/mx6sl/lib/liblwip.a(mib2.o)
mgmt_ids                                          /home/leon/git/swp-report/iMX6_Platform_SDK/output/mx6sl/lib/liblwip.a(mib2.o)
mgmt_nodes                                        /home/leon/git/swp-report/iMX6_Platform_SDK/output/mx6sl/lib/liblwip.a(mib2.o)
mib2                                              /home/leon/git/swp-report/iMX6_Platform_SDK/output/mx6sl/lib/liblwip.a(mib2.o)
mib2_at_node                                      /home/leon/git/swp-report/iMX6_Platform_SDK/output/mx6sl/lib/liblwip.a(mib2.o)
mib2_ids                                          /home/leon/git/swp-report/iMX6_Platform_SDK/output/mx6sl/lib/liblwip.a(mib2.o)
mib2_ip                                           /home/leon/git/swp-report/iMX6_Platform_SDK/output/mx6sl/lib/liblwip.a(mib2.o)
mib2_nodes                                        /home/leon/git/swp-report/iMX6_Platform_SDK/output/mx6sl/lib/liblwip.a(mib2.o)
mmdc_iomux_config                                 /home/leon/git/swp-report/iMX6_Platform_SDK/output/mx6sl/lib/libboard_evk_rev_a.a(mmdc_iomux_config.o)
                                                  /home/leon/git/swp-report/iMX6_Platform_SDK/output/mx6sl/lib/libboard_evk_rev_a.a(iomux_config.o)
mmu_disable                                       /home/leon/git/swp-report/iMX6_Platform_SDK/output/mx6sl/lib/libsdk.a(mmu.o)
mmu_enable                                        /home/leon/git/swp-report/iMX6_Platform_SDK/output/mx6sl/lib/libsdk.a(mmu.o)
mmu_init                                          /home/leon/git/swp-report/iMX6_Platform_SDK/output/mx6sl/lib/libsdk.a(mmu.o)
                                                  /home/leon/git/swp-report/iMX6_Platform_SDK/output/mx6sl/ping/evk_rev_a/obj/apps/common/platform_init.o
mmu_map_l1_range                                  /home/leon/git/swp-report/iMX6_Platform_SDK/output/mx6sl/lib/libsdk.a(mmu.o)
mmu_virtual_to_physical                           /home/leon/git/swp-report/iMX6_Platform_SDK/output/mx6sl/lib/libsdk.a(mmu.o)
msg_input_list                                    /home/leon/git/swp-report/iMX6_Platform_SDK/output/mx6sl/lib/liblwip.a(msg_in.o)
mx6_init_lwip                                     /home/leon/git/swp-report/iMX6_Platform_SDK/output/mx6sl/lib/liblwip.a(mx6_lwip.o)
mx6_run_lwip                                      /home/leon/git/swp-report/iMX6_Platform_SDK/output/mx6sl/lib/liblwip.a(mx6_lwip.o)
                                                  /home/leon/git/swp-report/iMX6_Platform_SDK/output/mx6sl/ping/evk_rev_a/obj/apps/ping/src/ping_main.o
mybkpt                                            /home/leon/git/swp-report/iMX6_Platform_SDK/output/mx6sl/lib/libsdk.a(system_util.o)
netif_add                                         /home/leon/git/swp-report/iMX6_Platform_SDK/output/mx6sl/lib/liblwip.a(netif.o)
                                                  /home/leon/git/swp-report/iMX6_Platform_SDK/output/mx6sl/ping/evk_rev_a/obj/apps/ping/src/ping_main.o
netif_default                                     /home/leon/git/swp-report/iMX6_Platform_SDK/output/mx6sl/lib/liblwip.a(netif.o)
                                                  /home/leon/git/swp-report/iMX6_Platform_SDK/output/mx6sl/lib/liblwip.a(mib2.o)
                                                  /home/leon/git/swp-report/iMX6_Platform_SDK/output/mx6sl/lib/liblwip.a(ip4.o)
                                                  /home/leon/git/swp-report/iMX6_Platform_SDK/output/mx6sl/ping/evk_rev_a/obj/apps/ping/src/ping.o
netif_find                                        /home/leon/git/swp-report/iMX6_Platform_SDK/output/mx6sl/lib/liblwip.a(netif.o)
netif_init                                        /home/leon/git/swp-report/iMX6_Platform_SDK/output/mx6sl/lib/liblwip.a(netif.o)
                                                  /home/leon/git/swp-report/iMX6_Platform_SDK/output/mx6sl/lib/liblwip.a(init.o)
netif_link_status_callback                        /home/leon/git/swp-report/iMX6_Platform_SDK/output/mx6sl/ping/evk_rev_a/obj/apps/ping/src/ping_main.o
netif_list                                        /home/leon/git/swp-report/iMX6_Platform_SDK/output/mx6sl/lib/liblwip.a(netif.o)
                                                  /home/leon/git/swp-report/iMX6_Platform_SDK/output/mx6sl/lib/liblwip.a(mib_structs.o)
                                                  /home/leon/git/swp-report/iMX6_Platform_SDK/output/mx6sl/lib/liblwip.a(mib2.o)
                                                  /home/leon/git/swp-report/iMX6_Platform_SDK/output/mx6sl/lib/liblwip.a(ip4.o)
                                                  /home/leon/git/swp-report/iMX6_Platform_SDK/output/mx6sl/lib/liblwip.a(igmp.o)
                                                  /home/leon/git/swp-report/iMX6_Platform_SDK/output/mx6sl/lib/liblwip.a(autoip.o)
                                                  /home/leon/git/swp-report/iMX6_Platform_SDK/output/mx6sl/lib/liblwip.a(dhcp.o)
netif_loop_output                                 /home/leon/git/swp-report/iMX6_Platform_SDK/output/mx6sl/lib/liblwip.a(netif.o)
                                                  /home/leon/git/swp-report/iMX6_Platform_SDK/output/mx6sl/lib/liblwip.a(ip4.o)
netif_poll                                        /home/leon/git/swp-report/iMX6_Platform_SDK/output/mx6sl/lib/liblwip.a(netif.o)
netif_poll_all                                    /home/leon/git/swp-report/iMX6_Platform_SDK/output/mx6sl/lib/liblwip.a(netif.o)
netif_remove                                      /home/leon/git/swp-report/iMX6_Platform_SDK/output/mx6sl/lib/liblwip.a(netif.o)
netif_set_addr                                    /home/leon/git/swp-report/iMX6_Platform_SDK/output/mx6sl/lib/liblwip.a(netif.o)
netif_set_default                                 /home/leon/git/swp-report/iMX6_Platform_SDK/output/mx6sl/lib/liblwip.a(netif.o)
                                                  /home/leon/git/swp-report/iMX6_Platform_SDK/output/mx6sl/ping/evk_rev_a/obj/apps/ping/src/ping_main.o
netif_set_down                                    /home/leon/git/swp-report/iMX6_Platform_SDK/output/mx6sl/lib/liblwip.a(netif.o)
                                                  /home/leon/git/swp-report/iMX6_Platform_SDK/output/mx6sl/lib/liblwip.a(autoip.o)
                                                  /home/leon/git/swp-report/iMX6_Platform_SDK/output/mx6sl/lib/liblwip.a(dhcp.o)
netif_set_gw                                      /home/leon/git/swp-report/iMX6_Platform_SDK/output/mx6sl/lib/liblwip.a(netif.o)
                                                  /home/leon/git/swp-report/iMX6_Platform_SDK/output/mx6sl/lib/liblwip.a(autoip.o)
                                                  /home/leon/git/swp-report/iMX6_Platform_SDK/output/mx6sl/lib/liblwip.a(dhcp.o)
netif_set_ipaddr                                  /home/leon/git/swp-report/iMX6_Platform_SDK/output/mx6sl/lib/liblwip.a(netif.o)
                                                  /home/leon/git/swp-report/iMX6_Platform_SDK/output/mx6sl/lib/liblwip.a(autoip.o)
                                                  /home/leon/git/swp-report/iMX6_Platform_SDK/output/mx6sl/lib/liblwip.a(dhcp.o)
netif_set_link_callback                           /home/leon/git/swp-report/iMX6_Platform_SDK/output/mx6sl/lib/liblwip.a(netif.o)
                                                  /home/leon/git/swp-report/iMX6_Platform_SDK/output/mx6sl/ping/evk_rev_a/obj/apps/ping/src/ping_main.o
netif_set_link_down                               /home/leon/git/swp-report/iMX6_Platform_SDK/output/mx6sl/lib/liblwip.a(netif.o)
netif_set_link_up                                 /home/leon/git/swp-report/iMX6_Platform_SDK/output/mx6sl/lib/liblwip.a(netif.o)
netif_set_netmask                                 /home/leon/git/swp-report/iMX6_Platform_SDK/output/mx6sl/lib/liblwip.a(netif.o)
                                                  /home/leon/git/swp-report/iMX6_Platform_SDK/output/mx6sl/lib/liblwip.a(autoip.o)
                                                  /home/leon/git/swp-report/iMX6_Platform_SDK/output/mx6sl/lib/liblwip.a(dhcp.o)
netif_set_status_callback                         /home/leon/git/swp-report/iMX6_Platform_SDK/output/mx6sl/lib/liblwip.a(netif.o)
                                                  /home/leon/git/swp-report/iMX6_Platform_SDK/output/mx6sl/ping/evk_rev_a/obj/apps/ping/src/ping_main.o
netif_set_up                                      /home/leon/git/swp-report/iMX6_Platform_SDK/output/mx6sl/lib/liblwip.a(netif.o)
                                                  /home/leon/git/swp-report/iMX6_Platform_SDK/output/mx6sl/lib/liblwip.a(autoip.o)
                                                  /home/leon/git/swp-report/iMX6_Platform_SDK/output/mx6sl/lib/liblwip.a(dhcp.o)
netif_status_callback                             /home/leon/git/swp-report/iMX6_Platform_SDK/output/mx6sl/ping/evk_rev_a/obj/apps/ping/src/ping_main.o
noleafs_get_object_def                            /home/leon/git/swp-report/iMX6_Platform_SDK/output/mx6sl/lib/liblwip.a(mib2.o)
                                                  /home/leon/git/swp-report/iMX6_Platform_SDK/output/mx6sl/lib/liblwip.a(mib_structs.o)
noleafs_get_value                                 /home/leon/git/swp-report/iMX6_Platform_SDK/output/mx6sl/lib/liblwip.a(mib2.o)
                                                  /home/leon/git/swp-report/iMX6_Platform_SDK/output/mx6sl/lib/liblwip.a(mib_structs.o)
noleafs_set_test                                  /home/leon/git/swp-report/iMX6_Platform_SDK/output/mx6sl/lib/liblwip.a(mib2.o)
                                                  /home/leon/git/swp-report/iMX6_Platform_SDK/output/mx6sl/lib/liblwip.a(mib_structs.o)
noleafs_set_value                                 /home/leon/git/swp-report/iMX6_Platform_SDK/output/mx6sl/lib/liblwip.a(mib2.o)
                                                  /home/leon/git/swp-report/iMX6_Platform_SDK/output/mx6sl/lib/liblwip.a(mib_structs.o)
objectidncpy                                      /home/leon/git/swp-report/iMX6_Platform_SDK/output/mx6sl/lib/liblwip.a(mib2.o)
pbuf_alloc                                        /home/leon/git/swp-report/iMX6_Platform_SDK/output/mx6sl/lib/liblwip.a(pbuf.o)
                                                  /home/leon/git/swp-report/iMX6_Platform_SDK/output/mx6sl/lib/liblwip.a(icmp.o)
                                                  /home/leon/git/swp-report/iMX6_Platform_SDK/output/mx6sl/lib/liblwip.a(mx6_ethernetif.o)
                                                  /home/leon/git/swp-report/iMX6_Platform_SDK/output/mx6sl/lib/liblwip.a(etharp.o)
                                                  /home/leon/git/swp-report/iMX6_Platform_SDK/output/mx6sl/lib/liblwip.a(udp.o)
                                                  /home/leon/git/swp-report/iMX6_Platform_SDK/output/mx6sl/lib/liblwip.a(tcp_out.o)
                                                  /home/leon/git/swp-report/iMX6_Platform_SDK/output/mx6sl/lib/liblwip.a(msg_out.o)
                                                  /home/leon/git/swp-report/iMX6_Platform_SDK/output/mx6sl/lib/liblwip.a(raw.o)
                                                  /home/leon/git/swp-report/iMX6_Platform_SDK/output/mx6sl/lib/liblwip.a(netif.o)
                                                  /home/leon/git/swp-report/iMX6_Platform_SDK/output/mx6sl/lib/liblwip.a(igmp.o)
                                                  /home/leon/git/swp-report/iMX6_Platform_SDK/output/mx6sl/lib/liblwip.a(dns.o)
                                                  /home/leon/git/swp-report/iMX6_Platform_SDK/output/mx6sl/lib/liblwip.a(dhcp.o)
                                                  /home/leon/git/swp-report/iMX6_Platform_SDK/output/mx6sl/ping/evk_rev_a/obj/apps/ping/src/ping.o
pbuf_cat                                          /home/leon/git/swp-report/iMX6_Platform_SDK/output/mx6sl/lib/liblwip.a(pbuf.o)
                                                  /home/leon/git/swp-report/iMX6_Platform_SDK/output/mx6sl/lib/liblwip.a(tcp_out.o)
                                                  /home/leon/git/swp-report/iMX6_Platform_SDK/output/mx6sl/lib/liblwip.a(tcp_in.o)
pbuf_chain                                        /home/leon/git/swp-report/iMX6_Platform_SDK/output/mx6sl/lib/liblwip.a(pbuf.o)
                                                  /home/leon/git/swp-report/iMX6_Platform_SDK/output/mx6sl/lib/liblwip.a(udp.o)
                                                  /home/leon/git/swp-report/iMX6_Platform_SDK/output/mx6sl/lib/liblwip.a(raw.o)
pbuf_clen                                         /home/leon/git/swp-report/iMX6_Platform_SDK/output/mx6sl/lib/liblwip.a(pbuf.o)
                                                  /home/leon/git/swp-report/iMX6_Platform_SDK/output/mx6sl/lib/liblwip.a(tcp_out.o)
                                                  /home/leon/git/swp-report/iMX6_Platform_SDK/output/mx6sl/lib/liblwip.a(tcp_in.o)
pbuf_coalesce                                     /home/leon/git/swp-report/iMX6_Platform_SDK/output/mx6sl/lib/liblwip.a(pbuf.o)
pbuf_copy                                         /home/leon/git/swp-report/iMX6_Platform_SDK/output/mx6sl/lib/liblwip.a(pbuf.o)
                                                  /home/leon/git/swp-report/iMX6_Platform_SDK/output/mx6sl/lib/liblwip.a(icmp.o)
                                                  /home/leon/git/swp-report/iMX6_Platform_SDK/output/mx6sl/lib/liblwip.a(etharp.o)
                                                  /home/leon/git/swp-report/iMX6_Platform_SDK/output/mx6sl/lib/liblwip.a(udp.o)
                                                  /home/leon/git/swp-report/iMX6_Platform_SDK/output/mx6sl/lib/liblwip.a(netif.o)
pbuf_copy_partial                                 /home/leon/git/swp-report/iMX6_Platform_SDK/output/mx6sl/lib/liblwip.a(pbuf.o)
                                                  /home/leon/git/swp-report/iMX6_Platform_SDK/output/mx6sl/lib/liblwip.a(tcp_out.o)
                                                  /home/leon/git/swp-report/iMX6_Platform_SDK/output/mx6sl/lib/liblwip.a(dns.o)
                                                  /home/leon/git/swp-report/iMX6_Platform_SDK/output/mx6sl/lib/liblwip.a(dhcp.o)
pbuf_dechain                                      /home/leon/git/swp-report/iMX6_Platform_SDK/output/mx6sl/lib/liblwip.a(pbuf.o)
pbuf_free                                         /home/leon/git/swp-report/iMX6_Platform_SDK/output/mx6sl/lib/liblwip.a(pbuf.o)
                                                  /home/leon/git/swp-report/iMX6_Platform_SDK/output/mx6sl/lib/liblwip.a(icmp.o)
                                                  /home/leon/git/swp-report/iMX6_Platform_SDK/output/mx6sl/lib/liblwip.a(mx6_ethernetif.o)
                                                  /home/leon/git/swp-report/iMX6_Platform_SDK/output/mx6sl/lib/liblwip.a(etharp.o)
                                                  /home/leon/git/swp-report/iMX6_Platform_SDK/output/mx6sl/lib/liblwip.a(udp.o)
                                                  /home/leon/git/swp-report/iMX6_Platform_SDK/output/mx6sl/lib/liblwip.a(tcp_out.o)
                                                  /home/leon/git/swp-report/iMX6_Platform_SDK/output/mx6sl/lib/liblwip.a(tcp.o)
                                                  /home/leon/git/swp-report/iMX6_Platform_SDK/output/mx6sl/lib/liblwip.a(tcp_in.o)
                                                  /home/leon/git/swp-report/iMX6_Platform_SDK/output/mx6sl/lib/liblwip.a(msg_out.o)
                                                  /home/leon/git/swp-report/iMX6_Platform_SDK/output/mx6sl/lib/liblwip.a(msg_in.o)
                                                  /home/leon/git/swp-report/iMX6_Platform_SDK/output/mx6sl/lib/liblwip.a(raw.o)
                                                  /home/leon/git/swp-report/iMX6_Platform_SDK/output/mx6sl/lib/liblwip.a(netif.o)
                                                  /home/leon/git/swp-report/iMX6_Platform_SDK/output/mx6sl/lib/liblwip.a(ip4.o)
                                                  /home/leon/git/swp-report/iMX6_Platform_SDK/output/mx6sl/lib/liblwip.a(igmp.o)
                                                  /home/leon/git/swp-report/iMX6_Platform_SDK/output/mx6sl/lib/liblwip.a(dns.o)
                                                  /home/leon/git/swp-report/iMX6_Platform_SDK/output/mx6sl/lib/liblwip.a(dhcp.o)
                                                  /home/leon/git/swp-report/iMX6_Platform_SDK/output/mx6sl/ping/evk_rev_a/obj/apps/ping/src/ping.o
pbuf_free_ooseq                                   /home/leon/git/swp-report/iMX6_Platform_SDK/output/mx6sl/lib/liblwip.a(pbuf.o)
                                                  /home/leon/git/swp-report/iMX6_Platform_SDK/output/mx6sl/lib/liblwip.a(timers.o)
pbuf_free_ooseq_pending                           /home/leon/git/swp-report/iMX6_Platform_SDK/output/mx6sl/lib/liblwip.a(pbuf.o)
                                                  /home/leon/git/swp-report/iMX6_Platform_SDK/output/mx6sl/lib/liblwip.a(timers.o)
pbuf_get_at                                       /home/leon/git/swp-report/iMX6_Platform_SDK/output/mx6sl/lib/liblwip.a(pbuf.o)
pbuf_header                                       /home/leon/git/swp-report/iMX6_Platform_SDK/output/mx6sl/lib/liblwip.a(pbuf.o)
                                                  /home/leon/git/swp-report/iMX6_Platform_SDK/output/mx6sl/lib/liblwip.a(icmp.o)
                                                  /home/leon/git/swp-report/iMX6_Platform_SDK/output/mx6sl/lib/liblwip.a(mx6_ethernetif.o)
                                                  /home/leon/git/swp-report/iMX6_Platform_SDK/output/mx6sl/lib/liblwip.a(etharp.o)
                                                  /home/leon/git/swp-report/iMX6_Platform_SDK/output/mx6sl/lib/liblwip.a(udp.o)
                                                  /home/leon/git/swp-report/iMX6_Platform_SDK/output/mx6sl/lib/liblwip.a(tcp_out.o)
                                                  /home/leon/git/swp-report/iMX6_Platform_SDK/output/mx6sl/lib/liblwip.a(tcp_in.o)
                                                  /home/leon/git/swp-report/iMX6_Platform_SDK/output/mx6sl/lib/liblwip.a(raw.o)
                                                  /home/leon/git/swp-report/iMX6_Platform_SDK/output/mx6sl/lib/liblwip.a(ip4.o)
                                                  /home/leon/git/swp-report/iMX6_Platform_SDK/output/mx6sl/ping/evk_rev_a/obj/apps/ping/src/ping.o
pbuf_memcmp                                       /home/leon/git/swp-report/iMX6_Platform_SDK/output/mx6sl/lib/liblwip.a(pbuf.o)
pbuf_memfind                                      /home/leon/git/swp-report/iMX6_Platform_SDK/output/mx6sl/lib/liblwip.a(pbuf.o)
pbuf_realloc                                      /home/leon/git/swp-report/iMX6_Platform_SDK/output/mx6sl/lib/liblwip.a(pbuf.o)
                                                  /home/leon/git/swp-report/iMX6_Platform_SDK/output/mx6sl/lib/liblwip.a(tcp_in.o)
                                                  /home/leon/git/swp-report/iMX6_Platform_SDK/output/mx6sl/lib/liblwip.a(ip4.o)
                                                  /home/leon/git/swp-report/iMX6_Platform_SDK/output/mx6sl/lib/liblwip.a(dns.o)
                                                  /home/leon/git/swp-report/iMX6_Platform_SDK/output/mx6sl/lib/liblwip.a(dhcp.o)
pbuf_ref                                          /home/leon/git/swp-report/iMX6_Platform_SDK/output/mx6sl/lib/liblwip.a(pbuf.o)
                                                  /home/leon/git/swp-report/iMX6_Platform_SDK/output/mx6sl/lib/liblwip.a(etharp.o)
                                                  /home/leon/git/swp-report/iMX6_Platform_SDK/output/mx6sl/lib/liblwip.a(tcp.o)
pbuf_strstr                                       /home/leon/git/swp-report/iMX6_Platform_SDK/output/mx6sl/lib/liblwip.a(pbuf.o)
pbuf_take                                         /home/leon/git/swp-report/iMX6_Platform_SDK/output/mx6sl/lib/liblwip.a(pbuf.o)
ping_init                                         /home/leon/git/swp-report/iMX6_Platform_SDK/output/mx6sl/ping/evk_rev_a/obj/apps/ping/src/ping.o
                                                  /home/leon/git/swp-report/iMX6_Platform_SDK/output/mx6sl/ping/evk_rev_a/obj/apps/ping/src/ping_main.o
ping_received                                     /home/leon/git/swp-report/iMX6_Platform_SDK/output/mx6sl/ping/evk_rev_a/obj/apps/ping/src/ping_main.o
ping_send_now                                     /home/leon/git/swp-report/iMX6_Platform_SDK/output/mx6sl/ping/evk_rev_a/obj/apps/ping/src/ping.o
ping_send_to                                      /home/leon/git/swp-report/iMX6_Platform_SDK/output/mx6sl/ping/evk_rev_a/obj/apps/ping/src/ping.o
                                                  /home/leon/git/swp-report/iMX6_Platform_SDK/output/mx6sl/ping/evk_rev_a/obj/apps/ping/src/ping_main.o
platform_init                                     /home/leon/git/swp-report/iMX6_Platform_SDK/output/mx6sl/ping/evk_rev_a/obj/apps/common/platform_init.o
                                                  /home/leon/git/swp-report/iMX6_Platform_SDK/output/mx6sl/ping/evk_rev_a/obj/apps/ping/src/ping_main.o
pmu_iomux_config                                  /home/leon/git/swp-report/iMX6_Platform_SDK/output/mx6sl/lib/libboard_evk_rev_a.a(iomux_config.o)
prefetch_abort_handler                            /home/leon/git/swp-report/iMX6_Platform_SDK/output/mx6sl/lib/libsdk.a(arm_abort.o)
                                                  /home/leon/git/swp-report/iMX6_Platform_SDK/output/mx6sl/lib/libsdk.a(vectors.o)
prefix                                            /home/leon/git/swp-report/iMX6_Platform_SDK/output/mx6sl/lib/liblwip.a(mib_structs.o)
printf                                            /home/leon/riotboard/arm-2012.09/bin/../arm-none-eabi/lib//libc.a(lib_a-printf.o)
                                                  /home/leon/git/swp-report/iMX6_Platform_SDK/output/mx6sl/lib/libsdk.a(gpio.o)
                                                  /home/leon/git/swp-report/iMX6_Platform_SDK/output/mx6sl/lib/liblwip.a(icmp.o)
                                                  /home/leon/git/swp-report/iMX6_Platform_SDK/output/mx6sl/lib/liblwip.a(mx6_ethernetif.o)
                                                  /home/leon/git/swp-report/iMX6_Platform_SDK/output/mx6sl/lib/liblwip.a(etharp.o)
                                                  /home/leon/git/swp-report/iMX6_Platform_SDK/output/mx6sl/lib/liblwip.a(udp.o)
                                                  /home/leon/git/swp-report/iMX6_Platform_SDK/output/mx6sl/lib/liblwip.a(timers.o)
                                                  /home/leon/git/swp-report/iMX6_Platform_SDK/output/mx6sl/lib/liblwip.a(tcp_out.o)
                                                  /home/leon/git/swp-report/iMX6_Platform_SDK/output/mx6sl/lib/liblwip.a(tcp.o)
                                                  /home/leon/git/swp-report/iMX6_Platform_SDK/output/mx6sl/lib/liblwip.a(tcp_in.o)
                                                  /home/leon/git/swp-report/iMX6_Platform_SDK/output/mx6sl/lib/liblwip.a(stats.o)
                                                  /home/leon/git/swp-report/iMX6_Platform_SDK/output/mx6sl/lib/liblwip.a(msg_in.o)
                                                  /home/leon/git/swp-report/iMX6_Platform_SDK/output/mx6sl/lib/liblwip.a(mib_structs.o)
                                                  /home/leon/git/swp-report/iMX6_Platform_SDK/output/mx6sl/lib/liblwip.a(mib2.o)
                                                  /home/leon/git/swp-report/iMX6_Platform_SDK/output/mx6sl/lib/liblwip.a(raw.o)
                                                  /home/leon/git/swp-report/iMX6_Platform_SDK/output/mx6sl/lib/liblwip.a(pbuf.o)
                                                  /home/leon/git/swp-report/iMX6_Platform_SDK/output/mx6sl/lib/liblwip.a(netif.o)
                                                  /home/leon/git/swp-report/iMX6_Platform_SDK/output/mx6sl/lib/liblwip.a(ip4_addr.o)
                                                  /home/leon/git/swp-report/iMX6_Platform_SDK/output/mx6sl/lib/liblwip.a(ip4.o)
                                                  /home/leon/git/swp-report/iMX6_Platform_SDK/output/mx6sl/lib/liblwip.a(igmp.o)
                                                  /home/leon/git/swp-report/iMX6_Platform_SDK/output/mx6sl/lib/liblwip.a(autoip.o)
                                                  /home/leon/git/swp-report/iMX6_Platform_SDK/output/mx6sl/lib/liblwip.a(inet_chksum.o)
                                                  /home/leon/git/swp-report/iMX6_Platform_SDK/output/mx6sl/lib/liblwip.a(dns.o)
                                                  /home/leon/git/swp-report/iMX6_Platform_SDK/output/mx6sl/lib/liblwip.a(dhcp.o)
                                                  /home/leon/git/swp-report/iMX6_Platform_SDK/output/mx6sl/lib/libsdk.a(abort_handler.o)
                                                  /home/leon/git/swp-report/iMX6_Platform_SDK/output/mx6sl/lib/libsdk.a(interrupt.o)
                                                  /home/leon/git/swp-report/iMX6_Platform_SDK/output/mx6sl/lib/libsdk.a(fec_drv.o)
                                                  /home/leon/git/swp-report/iMX6_Platform_SDK/output/mx6sl/lib/libsdk.a(text_color.o)
                                                  /home/leon/git/swp-report/iMX6_Platform_SDK/output/mx6sl/lib/libsdk.a(system_util.o)
                                                  /home/leon/git/swp-report/iMX6_Platform_SDK/output/mx6sl/ping/evk_rev_a/obj/apps/ping/src/ping_main.o
                                                  /home/leon/git/swp-report/iMX6_Platform_SDK/output/mx6sl/ping/evk_rev_a/obj/apps/ping/src/ping.o
printf_color                                      /home/leon/git/swp-report/iMX6_Platform_SDK/output/mx6sl/lib/libsdk.a(text_color.o)
                                                  /home/leon/git/swp-report/iMX6_Platform_SDK/output/mx6sl/lib/libsdk.a(system_util.o)
putc                                              /home/leon/riotboard/arm-2012.09/bin/../arm-none-eabi/lib//libc.a(lib_a-putc.o)
pwm1_iomux_config                                 /home/leon/git/swp-report/iMX6_Platform_SDK/output/mx6sl/lib/libboard_evk_rev_a.a(pwm1_iomux_config.o)
                                                  /home/leon/git/swp-report/iMX6_Platform_SDK/output/mx6sl/lib/libboard_evk_rev_a.a(iomux_config.o)
pwm2_iomux_config                                 /home/leon/git/swp-report/iMX6_Platform_SDK/output/mx6sl/lib/libboard_evk_rev_a.a(iomux_config.o)
pwm3_iomux_config                                 /home/leon/git/swp-report/iMX6_Platform_SDK/output/mx6sl/lib/libboard_evk_rev_a.a(iomux_config.o)
pwm4_iomux_config                                 /home/leon/git/swp-report/iMX6_Platform_SDK/output/mx6sl/lib/libboard_evk_rev_a.a(iomux_config.o)
raise                                             /home/leon/riotboard/arm-2012.09/bin/../arm-none-eabi/lib//libc.a(lib_a-signal.o)
                                                  /home/leon/riotboard/arm-2012.09/bin/../arm-none-eabi/lib//libc.a(lib_a-abort.o)
rand                                              /home/leon/riotboard/arm-2012.09/bin/../arm-none-eabi/lib//libc.a(lib_a-rand.o)
                                                  /home/leon/git/swp-report/iMX6_Platform_SDK/output/mx6sl/lib/liblwip.a(igmp.o)
                                                  /home/leon/git/swp-report/iMX6_Platform_SDK/output/mx6sl/lib/liblwip.a(dhcp.o)
raw_bind                                          /home/leon/git/swp-report/iMX6_Platform_SDK/output/mx6sl/lib/liblwip.a(raw.o)
                                                  /home/leon/git/swp-report/iMX6_Platform_SDK/output/mx6sl/ping/evk_rev_a/obj/apps/ping/src/ping.o
raw_connect                                       /home/leon/git/swp-report/iMX6_Platform_SDK/output/mx6sl/lib/liblwip.a(raw.o)
raw_input                                         /home/leon/git/swp-report/iMX6_Platform_SDK/output/mx6sl/lib/liblwip.a(raw.o)
                                                  /home/leon/git/swp-report/iMX6_Platform_SDK/output/mx6sl/lib/liblwip.a(ip4.o)
raw_new                                           /home/leon/git/swp-report/iMX6_Platform_SDK/output/mx6sl/lib/liblwip.a(raw.o)
                                                  /home/leon/git/swp-report/iMX6_Platform_SDK/output/mx6sl/ping/evk_rev_a/obj/apps/ping/src/ping.o
raw_recv                                          /home/leon/git/swp-report/iMX6_Platform_SDK/output/mx6sl/lib/liblwip.a(raw.o)
                                                  /home/leon/git/swp-report/iMX6_Platform_SDK/output/mx6sl/ping/evk_rev_a/obj/apps/ping/src/ping.o
raw_remove                                        /home/leon/git/swp-report/iMX6_Platform_SDK/output/mx6sl/lib/liblwip.a(raw.o)
raw_send                                          /home/leon/git/swp-report/iMX6_Platform_SDK/output/mx6sl/lib/liblwip.a(raw.o)
raw_sendto                                        /home/leon/git/swp-report/iMX6_Platform_SDK/output/mx6sl/lib/liblwip.a(raw.o)
                                                  /home/leon/git/swp-report/iMX6_Platform_SDK/output/mx6sl/ping/evk_rev_a/obj/apps/ping/src/ping.o
read_input_string                                 /home/leon/git/swp-report/iMX6_Platform_SDK/output/mx6sl/lib/libsdk.a(system_util.o)
                                                  /home/leon/git/swp-report/iMX6_Platform_SDK/output/mx6sl/ping/evk_rev_a/obj/apps/ping/src/ping_main.o
read_int                                          /home/leon/git/swp-report/iMX6_Platform_SDK/output/mx6sl/lib/libsdk.a(system_util.o)
realloc                                           /home/leon/riotboard/arm-2012.09/bin/../arm-none-eabi/lib//libc.a(lib_a-realloc.o)
                                                  /home/leon/git/swp-report/iMX6_Platform_SDK/output/mx6sl/lib/libsdk.a(system_util.o)
register_interrupt_routine                        /home/leon/git/swp-report/iMX6_Platform_SDK/output/mx6sl/lib/libsdk.a(interrupt.o)
                                                  /home/leon/git/swp-report/iMX6_Platform_SDK/output/mx6sl/lib/libsdk.a(epit.o)
                                                  /home/leon/git/swp-report/iMX6_Platform_SDK/output/mx6sl/lib/libsdk.a(imx_uart.o)
run                                               /home/leon/git/swp-report/iMX6_Platform_SDK/output/mx6sl/ping/evk_rev_a/obj/apps/ping/src/ping_main.o
scu_disable_maintenance_broadcast                 /home/leon/git/swp-report/iMX6_Platform_SDK/output/mx6sl/lib/libsdk.a(cortexA9.o)
scu_enable                                        /home/leon/git/swp-report/iMX6_Platform_SDK/output/mx6sl/lib/libsdk.a(cortexA9.o)
scu_enable_maintenance_broadcast                  /home/leon/git/swp-report/iMX6_Platform_SDK/output/mx6sl/lib/libsdk.a(cortexA9.o)
scu_get_cpus_in_smp                               /home/leon/git/swp-report/iMX6_Platform_SDK/output/mx6sl/lib/libsdk.a(cortexA9.o)
scu_join_smp                                      /home/leon/git/swp-report/iMX6_Platform_SDK/output/mx6sl/lib/libsdk.a(cortexA9.o)
scu_leave_smp                                     /home/leon/git/swp-report/iMX6_Platform_SDK/output/mx6sl/lib/libsdk.a(cortexA9.o)
scu_secure_invalidate                             /home/leon/git/swp-report/iMX6_Platform_SDK/output/mx6sl/lib/libsdk.a(cortexA9.o)
sdma_iomux_config                                 /home/leon/git/swp-report/iMX6_Platform_SDK/output/mx6sl/lib/libboard_evk_rev_a.a(iomux_config.o)
setlocale                                         /home/leon/riotboard/arm-2012.09/bin/../arm-none-eabi/lib//libc.a(lib_a-locale.o)
signal                                            /home/leon/riotboard/arm-2012.09/bin/../arm-none-eabi/lib//libc.a(lib_a-signal.o)
sjc_iomux_config                                  /home/leon/git/swp-report/iMX6_Platform_SDK/output/mx6sl/lib/libboard_evk_rev_a.a(sjc_iomux_config.o)
                                                  /home/leon/git/swp-report/iMX6_Platform_SDK/output/mx6sl/lib/libboard_evk_rev_a.a(iomux_config.o)
snmp                                              /home/leon/git/swp-report/iMX6_Platform_SDK/output/mx6sl/lib/liblwip.a(mib2.o)
snmp1_pcb                                         /home/leon/git/swp-report/iMX6_Platform_SDK/output/mx6sl/lib/liblwip.a(msg_in.o)
snmp_add_ifinoctets                               /home/leon/git/swp-report/iMX6_Platform_SDK/output/mx6sl/lib/liblwip.a(mib2.o)
                                                  /home/leon/git/swp-report/iMX6_Platform_SDK/output/mx6sl/lib/liblwip.a(netif.o)
snmp_add_ifoutoctets                              /home/leon/git/swp-report/iMX6_Platform_SDK/output/mx6sl/lib/liblwip.a(mib2.o)
                                                  /home/leon/git/swp-report/iMX6_Platform_SDK/output/mx6sl/lib/liblwip.a(netif.o)
snmp_add_snmpintotalreqvars                       /home/leon/git/swp-report/iMX6_Platform_SDK/output/mx6sl/lib/liblwip.a(mib2.o)
                                                  /home/leon/git/swp-report/iMX6_Platform_SDK/output/mx6sl/lib/liblwip.a(msg_in.o)
snmp_add_snmpintotalsetvars                       /home/leon/git/swp-report/iMX6_Platform_SDK/output/mx6sl/lib/liblwip.a(mib2.o)
                                                  /home/leon/git/swp-report/iMX6_Platform_SDK/output/mx6sl/lib/liblwip.a(msg_in.o)
snmp_add_sysuptime                                /home/leon/git/swp-report/iMX6_Platform_SDK/output/mx6sl/lib/liblwip.a(mib2.o)
snmp_asn1_dec_length                              /home/leon/git/swp-report/iMX6_Platform_SDK/output/mx6sl/lib/liblwip.a(asn1_dec.o)
                                                  /home/leon/git/swp-report/iMX6_Platform_SDK/output/mx6sl/lib/liblwip.a(msg_in.o)
snmp_asn1_dec_oid                                 /home/leon/git/swp-report/iMX6_Platform_SDK/output/mx6sl/lib/liblwip.a(asn1_dec.o)
                                                  /home/leon/git/swp-report/iMX6_Platform_SDK/output/mx6sl/lib/liblwip.a(msg_in.o)
snmp_asn1_dec_raw                                 /home/leon/git/swp-report/iMX6_Platform_SDK/output/mx6sl/lib/liblwip.a(asn1_dec.o)
                                                  /home/leon/git/swp-report/iMX6_Platform_SDK/output/mx6sl/lib/liblwip.a(msg_in.o)
snmp_asn1_dec_s32t                                /home/leon/git/swp-report/iMX6_Platform_SDK/output/mx6sl/lib/liblwip.a(asn1_dec.o)
                                                  /home/leon/git/swp-report/iMX6_Platform_SDK/output/mx6sl/lib/liblwip.a(msg_in.o)
snmp_asn1_dec_type                                /home/leon/git/swp-report/iMX6_Platform_SDK/output/mx6sl/lib/liblwip.a(asn1_dec.o)
                                                  /home/leon/git/swp-report/iMX6_Platform_SDK/output/mx6sl/lib/liblwip.a(msg_in.o)
snmp_asn1_dec_u32t                                /home/leon/git/swp-report/iMX6_Platform_SDK/output/mx6sl/lib/liblwip.a(asn1_dec.o)
                                                  /home/leon/git/swp-report/iMX6_Platform_SDK/output/mx6sl/lib/liblwip.a(msg_in.o)
snmp_asn1_enc_length                              /home/leon/git/swp-report/iMX6_Platform_SDK/output/mx6sl/lib/liblwip.a(asn1_enc.o)
                                                  /home/leon/git/swp-report/iMX6_Platform_SDK/output/mx6sl/lib/liblwip.a(msg_out.o)
snmp_asn1_enc_length_cnt                          /home/leon/git/swp-report/iMX6_Platform_SDK/output/mx6sl/lib/liblwip.a(asn1_enc.o)
                                                  /home/leon/git/swp-report/iMX6_Platform_SDK/output/mx6sl/lib/liblwip.a(msg_out.o)
snmp_asn1_enc_oid                                 /home/leon/git/swp-report/iMX6_Platform_SDK/output/mx6sl/lib/liblwip.a(asn1_enc.o)
                                                  /home/leon/git/swp-report/iMX6_Platform_SDK/output/mx6sl/lib/liblwip.a(msg_out.o)
snmp_asn1_enc_oid_cnt                             /home/leon/git/swp-report/iMX6_Platform_SDK/output/mx6sl/lib/liblwip.a(asn1_enc.o)
                                                  /home/leon/git/swp-report/iMX6_Platform_SDK/output/mx6sl/lib/liblwip.a(msg_out.o)
snmp_asn1_enc_raw                                 /home/leon/git/swp-report/iMX6_Platform_SDK/output/mx6sl/lib/liblwip.a(asn1_enc.o)
                                                  /home/leon/git/swp-report/iMX6_Platform_SDK/output/mx6sl/lib/liblwip.a(msg_out.o)
snmp_asn1_enc_s32t                                /home/leon/git/swp-report/iMX6_Platform_SDK/output/mx6sl/lib/liblwip.a(asn1_enc.o)
                                                  /home/leon/git/swp-report/iMX6_Platform_SDK/output/mx6sl/lib/liblwip.a(msg_out.o)
snmp_asn1_enc_s32t_cnt                            /home/leon/git/swp-report/iMX6_Platform_SDK/output/mx6sl/lib/liblwip.a(asn1_enc.o)
                                                  /home/leon/git/swp-report/iMX6_Platform_SDK/output/mx6sl/lib/liblwip.a(msg_out.o)
snmp_asn1_enc_type                                /home/leon/git/swp-report/iMX6_Platform_SDK/output/mx6sl/lib/liblwip.a(asn1_enc.o)
                                                  /home/leon/git/swp-report/iMX6_Platform_SDK/output/mx6sl/lib/liblwip.a(msg_out.o)
snmp_asn1_enc_u32t                                /home/leon/git/swp-report/iMX6_Platform_SDK/output/mx6sl/lib/liblwip.a(asn1_enc.o)
                                                  /home/leon/git/swp-report/iMX6_Platform_SDK/output/mx6sl/lib/liblwip.a(msg_out.o)
snmp_asn1_enc_u32t_cnt                            /home/leon/git/swp-report/iMX6_Platform_SDK/output/mx6sl/lib/liblwip.a(asn1_enc.o)
                                                  /home/leon/git/swp-report/iMX6_Platform_SDK/output/mx6sl/lib/liblwip.a(msg_out.o)
snmp_authfail_trap                                /home/leon/git/swp-report/iMX6_Platform_SDK/output/mx6sl/lib/liblwip.a(msg_out.o)
                                                  /home/leon/git/swp-report/iMX6_Platform_SDK/output/mx6sl/lib/liblwip.a(msg_in.o)
snmp_coldstart_trap                               /home/leon/git/swp-report/iMX6_Platform_SDK/output/mx6sl/lib/liblwip.a(msg_out.o)
                                                  /home/leon/git/swp-report/iMX6_Platform_SDK/output/mx6sl/lib/liblwip.a(msg_in.o)
snmp_dec_iflist                                   /home/leon/git/swp-report/iMX6_Platform_SDK/output/mx6sl/lib/liblwip.a(mib2.o)
                                                  /home/leon/git/swp-report/iMX6_Platform_SDK/output/mx6sl/lib/liblwip.a(netif.o)
snmp_delete_arpidx_tree                           /home/leon/git/swp-report/iMX6_Platform_SDK/output/mx6sl/lib/liblwip.a(mib2.o)
                                                  /home/leon/git/swp-report/iMX6_Platform_SDK/output/mx6sl/lib/liblwip.a(etharp.o)
snmp_delete_ipaddridx_tree                        /home/leon/git/swp-report/iMX6_Platform_SDK/output/mx6sl/lib/liblwip.a(mib2.o)
                                                  /home/leon/git/swp-report/iMX6_Platform_SDK/output/mx6sl/lib/liblwip.a(netif.o)
snmp_delete_iprteidx_tree                         /home/leon/git/swp-report/iMX6_Platform_SDK/output/mx6sl/lib/liblwip.a(mib2.o)
                                                  /home/leon/git/swp-report/iMX6_Platform_SDK/output/mx6sl/lib/liblwip.a(netif.o)
snmp_delete_udpidx_tree                           /home/leon/git/swp-report/iMX6_Platform_SDK/output/mx6sl/lib/liblwip.a(mib2.o)
                                                  /home/leon/git/swp-report/iMX6_Platform_SDK/output/mx6sl/lib/liblwip.a(udp.o)
snmp_expand_tree                                  /home/leon/git/swp-report/iMX6_Platform_SDK/output/mx6sl/lib/liblwip.a(mib_structs.o)
                                                  /home/leon/git/swp-report/iMX6_Platform_SDK/output/mx6sl/lib/liblwip.a(msg_in.o)
snmp_get_snmpenableauthentraps                    /home/leon/git/swp-report/iMX6_Platform_SDK/output/mx6sl/lib/liblwip.a(mib2.o)
                                                  /home/leon/git/swp-report/iMX6_Platform_SDK/output/mx6sl/lib/liblwip.a(msg_out.o)
snmp_get_snmpgrpid_ptr                            /home/leon/git/swp-report/iMX6_Platform_SDK/output/mx6sl/lib/liblwip.a(mib2.o)
                                                  /home/leon/git/swp-report/iMX6_Platform_SDK/output/mx6sl/lib/liblwip.a(msg_out.o)
snmp_get_sysobjid_ptr                             /home/leon/git/swp-report/iMX6_Platform_SDK/output/mx6sl/lib/liblwip.a(mib2.o)
snmp_get_sysuptime                                /home/leon/git/swp-report/iMX6_Platform_SDK/output/mx6sl/lib/liblwip.a(mib2.o)
                                                  /home/leon/git/swp-report/iMX6_Platform_SDK/output/mx6sl/lib/liblwip.a(msg_out.o)
                                                  /home/leon/git/swp-report/iMX6_Platform_SDK/output/mx6sl/lib/liblwip.a(netif.o)
snmp_ids                                          /home/leon/git/swp-report/iMX6_Platform_SDK/output/mx6sl/lib/liblwip.a(mib2.o)
snmp_ifindextonetif                               /home/leon/git/swp-report/iMX6_Platform_SDK/output/mx6sl/lib/liblwip.a(mib_structs.o)
                                                  /home/leon/git/swp-report/iMX6_Platform_SDK/output/mx6sl/lib/liblwip.a(mib2.o)
snmp_inc_icmpinaddrmaskreps                       /home/leon/git/swp-report/iMX6_Platform_SDK/output/mx6sl/lib/liblwip.a(mib2.o)
snmp_inc_icmpinaddrmasks                          /home/leon/git/swp-report/iMX6_Platform_SDK/output/mx6sl/lib/liblwip.a(mib2.o)
snmp_inc_icmpindestunreachs                       /home/leon/git/swp-report/iMX6_Platform_SDK/output/mx6sl/lib/liblwip.a(mib2.o)
snmp_inc_icmpinechoreps                           /home/leon/git/swp-report/iMX6_Platform_SDK/output/mx6sl/lib/liblwip.a(mib2.o)
snmp_inc_icmpinechos                              /home/leon/git/swp-report/iMX6_Platform_SDK/output/mx6sl/lib/liblwip.a(mib2.o)
snmp_inc_icmpinerrors                             /home/leon/git/swp-report/iMX6_Platform_SDK/output/mx6sl/lib/liblwip.a(mib2.o)
                                                  /home/leon/git/swp-report/iMX6_Platform_SDK/output/mx6sl/lib/liblwip.a(icmp.o)
snmp_inc_icmpinmsgs                               /home/leon/git/swp-report/iMX6_Platform_SDK/output/mx6sl/lib/liblwip.a(mib2.o)
                                                  /home/leon/git/swp-report/iMX6_Platform_SDK/output/mx6sl/lib/liblwip.a(icmp.o)
snmp_inc_icmpinparmprobs                          /home/leon/git/swp-report/iMX6_Platform_SDK/output/mx6sl/lib/liblwip.a(mib2.o)
snmp_inc_icmpinredirects                          /home/leon/git/swp-report/iMX6_Platform_SDK/output/mx6sl/lib/liblwip.a(mib2.o)
snmp_inc_icmpinsrcquenchs                         /home/leon/git/swp-report/iMX6_Platform_SDK/output/mx6sl/lib/liblwip.a(mib2.o)
snmp_inc_icmpintimeexcds                          /home/leon/git/swp-report/iMX6_Platform_SDK/output/mx6sl/lib/liblwip.a(mib2.o)
snmp_inc_icmpintimestampreps                      /home/leon/git/swp-report/iMX6_Platform_SDK/output/mx6sl/lib/liblwip.a(mib2.o)
snmp_inc_icmpintimestamps                         /home/leon/git/swp-report/iMX6_Platform_SDK/output/mx6sl/lib/liblwip.a(mib2.o)
snmp_inc_icmpoutaddrmaskreps                      /home/leon/git/swp-report/iMX6_Platform_SDK/output/mx6sl/lib/liblwip.a(mib2.o)
snmp_inc_icmpoutaddrmasks                         /home/leon/git/swp-report/iMX6_Platform_SDK/output/mx6sl/lib/liblwip.a(mib2.o)
snmp_inc_icmpoutdestunreachs                      /home/leon/git/swp-report/iMX6_Platform_SDK/output/mx6sl/lib/liblwip.a(mib2.o)
snmp_inc_icmpoutechoreps                          /home/leon/git/swp-report/iMX6_Platform_SDK/output/mx6sl/lib/liblwip.a(mib2.o)
                                                  /home/leon/git/swp-report/iMX6_Platform_SDK/output/mx6sl/lib/liblwip.a(icmp.o)
snmp_inc_icmpoutechos                             /home/leon/git/swp-report/iMX6_Platform_SDK/output/mx6sl/lib/liblwip.a(mib2.o)
snmp_inc_icmpouterrors                            /home/leon/git/swp-report/iMX6_Platform_SDK/output/mx6sl/lib/liblwip.a(mib2.o)
snmp_inc_icmpoutmsgs                              /home/leon/git/swp-report/iMX6_Platform_SDK/output/mx6sl/lib/liblwip.a(mib2.o)
                                                  /home/leon/git/swp-report/iMX6_Platform_SDK/output/mx6sl/lib/liblwip.a(icmp.o)
snmp_inc_icmpoutparmprobs                         /home/leon/git/swp-report/iMX6_Platform_SDK/output/mx6sl/lib/liblwip.a(mib2.o)
snmp_inc_icmpoutredirects                         /home/leon/git/swp-report/iMX6_Platform_SDK/output/mx6sl/lib/liblwip.a(mib2.o)
snmp_inc_icmpoutsrcquenchs                        /home/leon/git/swp-report/iMX6_Platform_SDK/output/mx6sl/lib/liblwip.a(mib2.o)
snmp_inc_icmpouttimeexcds                         /home/leon/git/swp-report/iMX6_Platform_SDK/output/mx6sl/lib/liblwip.a(mib2.o)
                                                  /home/leon/git/swp-report/iMX6_Platform_SDK/output/mx6sl/lib/liblwip.a(icmp.o)
snmp_inc_icmpouttimestampreps                     /home/leon/git/swp-report/iMX6_Platform_SDK/output/mx6sl/lib/liblwip.a(mib2.o)
snmp_inc_icmpouttimestamps                        /home/leon/git/swp-report/iMX6_Platform_SDK/output/mx6sl/lib/liblwip.a(mib2.o)
snmp_inc_ifindiscards                             /home/leon/git/swp-report/iMX6_Platform_SDK/output/mx6sl/lib/liblwip.a(mib2.o)
snmp_inc_ifinnucastpkts                           /home/leon/git/swp-report/iMX6_Platform_SDK/output/mx6sl/lib/liblwip.a(mib2.o)
snmp_inc_ifinucastpkts                            /home/leon/git/swp-report/iMX6_Platform_SDK/output/mx6sl/lib/liblwip.a(mib2.o)
                                                  /home/leon/git/swp-report/iMX6_Platform_SDK/output/mx6sl/lib/liblwip.a(netif.o)
snmp_inc_iflist                                   /home/leon/git/swp-report/iMX6_Platform_SDK/output/mx6sl/lib/liblwip.a(mib2.o)
                                                  /home/leon/git/swp-report/iMX6_Platform_SDK/output/mx6sl/lib/liblwip.a(netif.o)
snmp_inc_ifoutdiscards                            /home/leon/git/swp-report/iMX6_Platform_SDK/output/mx6sl/lib/liblwip.a(mib2.o)
                                                  /home/leon/git/swp-report/iMX6_Platform_SDK/output/mx6sl/lib/liblwip.a(netif.o)
snmp_inc_ifoutnucastpkts                          /home/leon/git/swp-report/iMX6_Platform_SDK/output/mx6sl/lib/liblwip.a(mib2.o)
snmp_inc_ifoutucastpkts                           /home/leon/git/swp-report/iMX6_Platform_SDK/output/mx6sl/lib/liblwip.a(mib2.o)
                                                  /home/leon/git/swp-report/iMX6_Platform_SDK/output/mx6sl/lib/liblwip.a(netif.o)
snmp_inc_ipforwdatagrams                          /home/leon/git/swp-report/iMX6_Platform_SDK/output/mx6sl/lib/liblwip.a(mib2.o)
snmp_inc_ipfragcreates                            /home/leon/git/swp-report/iMX6_Platform_SDK/output/mx6sl/lib/liblwip.a(mib2.o)
snmp_inc_ipfragfails                              /home/leon/git/swp-report/iMX6_Platform_SDK/output/mx6sl/lib/liblwip.a(mib2.o)
snmp_inc_ipfragoks                                /home/leon/git/swp-report/iMX6_Platform_SDK/output/mx6sl/lib/liblwip.a(mib2.o)
snmp_inc_ipinaddrerrors                           /home/leon/git/swp-report/iMX6_Platform_SDK/output/mx6sl/lib/liblwip.a(mib2.o)
                                                  /home/leon/git/swp-report/iMX6_Platform_SDK/output/mx6sl/lib/liblwip.a(ip4.o)
snmp_inc_ipindelivers                             /home/leon/git/swp-report/iMX6_Platform_SDK/output/mx6sl/lib/liblwip.a(mib2.o)
                                                  /home/leon/git/swp-report/iMX6_Platform_SDK/output/mx6sl/lib/liblwip.a(ip4.o)
snmp_inc_ipindiscards                             /home/leon/git/swp-report/iMX6_Platform_SDK/output/mx6sl/lib/liblwip.a(mib2.o)
                                                  /home/leon/git/swp-report/iMX6_Platform_SDK/output/mx6sl/lib/liblwip.a(ip4.o)
snmp_inc_ipinhdrerrors                            /home/leon/git/swp-report/iMX6_Platform_SDK/output/mx6sl/lib/liblwip.a(mib2.o)
                                                  /home/leon/git/swp-report/iMX6_Platform_SDK/output/mx6sl/lib/liblwip.a(ip4.o)
snmp_inc_ipinreceives                             /home/leon/git/swp-report/iMX6_Platform_SDK/output/mx6sl/lib/liblwip.a(mib2.o)
                                                  /home/leon/git/swp-report/iMX6_Platform_SDK/output/mx6sl/lib/liblwip.a(ip4.o)
snmp_inc_ipinunknownprotos                        /home/leon/git/swp-report/iMX6_Platform_SDK/output/mx6sl/lib/liblwip.a(mib2.o)
                                                  /home/leon/git/swp-report/iMX6_Platform_SDK/output/mx6sl/lib/liblwip.a(ip4.o)
snmp_inc_ipoutdiscards                            /home/leon/git/swp-report/iMX6_Platform_SDK/output/mx6sl/lib/liblwip.a(mib2.o)
                                                  /home/leon/git/swp-report/iMX6_Platform_SDK/output/mx6sl/lib/liblwip.a(ip4.o)
snmp_inc_ipoutnoroutes                            /home/leon/git/swp-report/iMX6_Platform_SDK/output/mx6sl/lib/liblwip.a(mib2.o)
                                                  /home/leon/git/swp-report/iMX6_Platform_SDK/output/mx6sl/lib/liblwip.a(ip4.o)
snmp_inc_ipoutrequests                            /home/leon/git/swp-report/iMX6_Platform_SDK/output/mx6sl/lib/liblwip.a(mib2.o)
                                                  /home/leon/git/swp-report/iMX6_Platform_SDK/output/mx6sl/lib/liblwip.a(ip4.o)
snmp_inc_ipreasmfails                             /home/leon/git/swp-report/iMX6_Platform_SDK/output/mx6sl/lib/liblwip.a(mib2.o)
snmp_inc_ipreasmoks                               /home/leon/git/swp-report/iMX6_Platform_SDK/output/mx6sl/lib/liblwip.a(mib2.o)
snmp_inc_ipreasmreqds                             /home/leon/git/swp-report/iMX6_Platform_SDK/output/mx6sl/lib/liblwip.a(mib2.o)
snmp_inc_iproutingdiscards                        /home/leon/git/swp-report/iMX6_Platform_SDK/output/mx6sl/lib/liblwip.a(mib2.o)
snmp_inc_snmpinasnparseerrs                       /home/leon/git/swp-report/iMX6_Platform_SDK/output/mx6sl/lib/liblwip.a(mib2.o)
                                                  /home/leon/git/swp-report/iMX6_Platform_SDK/output/mx6sl/lib/liblwip.a(msg_in.o)
snmp_inc_snmpinbadcommunitynames                  /home/leon/git/swp-report/iMX6_Platform_SDK/output/mx6sl/lib/liblwip.a(mib2.o)
                                                  /home/leon/git/swp-report/iMX6_Platform_SDK/output/mx6sl/lib/liblwip.a(msg_in.o)
snmp_inc_snmpinbadcommunityuses                   /home/leon/git/swp-report/iMX6_Platform_SDK/output/mx6sl/lib/liblwip.a(mib2.o)
snmp_inc_snmpinbadvalues                          /home/leon/git/swp-report/iMX6_Platform_SDK/output/mx6sl/lib/liblwip.a(mib2.o)
                                                  /home/leon/git/swp-report/iMX6_Platform_SDK/output/mx6sl/lib/liblwip.a(msg_in.o)
snmp_inc_snmpinbadversions                        /home/leon/git/swp-report/iMX6_Platform_SDK/output/mx6sl/lib/liblwip.a(mib2.o)
                                                  /home/leon/git/swp-report/iMX6_Platform_SDK/output/mx6sl/lib/liblwip.a(msg_in.o)
snmp_inc_snmpingenerrs                            /home/leon/git/swp-report/iMX6_Platform_SDK/output/mx6sl/lib/liblwip.a(mib2.o)
                                                  /home/leon/git/swp-report/iMX6_Platform_SDK/output/mx6sl/lib/liblwip.a(msg_in.o)
snmp_inc_snmpingetnexts                           /home/leon/git/swp-report/iMX6_Platform_SDK/output/mx6sl/lib/liblwip.a(mib2.o)
                                                  /home/leon/git/swp-report/iMX6_Platform_SDK/output/mx6sl/lib/liblwip.a(msg_in.o)
snmp_inc_snmpingetrequests                        /home/leon/git/swp-report/iMX6_Platform_SDK/output/mx6sl/lib/liblwip.a(mib2.o)
                                                  /home/leon/git/swp-report/iMX6_Platform_SDK/output/mx6sl/lib/liblwip.a(msg_in.o)
snmp_inc_snmpingetresponses                       /home/leon/git/swp-report/iMX6_Platform_SDK/output/mx6sl/lib/liblwip.a(mib2.o)
                                                  /home/leon/git/swp-report/iMX6_Platform_SDK/output/mx6sl/lib/liblwip.a(msg_in.o)
snmp_inc_snmpinnosuchnames                        /home/leon/git/swp-report/iMX6_Platform_SDK/output/mx6sl/lib/liblwip.a(mib2.o)
                                                  /home/leon/git/swp-report/iMX6_Platform_SDK/output/mx6sl/lib/liblwip.a(msg_in.o)
snmp_inc_snmpinpkts                               /home/leon/git/swp-report/iMX6_Platform_SDK/output/mx6sl/lib/liblwip.a(mib2.o)
                                                  /home/leon/git/swp-report/iMX6_Platform_SDK/output/mx6sl/lib/liblwip.a(msg_in.o)
snmp_inc_snmpinreadonlys                          /home/leon/git/swp-report/iMX6_Platform_SDK/output/mx6sl/lib/liblwip.a(mib2.o)
                                                  /home/leon/git/swp-report/iMX6_Platform_SDK/output/mx6sl/lib/liblwip.a(msg_in.o)
snmp_inc_snmpinsetrequests                        /home/leon/git/swp-report/iMX6_Platform_SDK/output/mx6sl/lib/liblwip.a(mib2.o)
                                                  /home/leon/git/swp-report/iMX6_Platform_SDK/output/mx6sl/lib/liblwip.a(msg_in.o)
snmp_inc_snmpintoobigs                            /home/leon/git/swp-report/iMX6_Platform_SDK/output/mx6sl/lib/liblwip.a(mib2.o)
                                                  /home/leon/git/swp-report/iMX6_Platform_SDK/output/mx6sl/lib/liblwip.a(msg_in.o)
snmp_inc_snmpintraps                              /home/leon/git/swp-report/iMX6_Platform_SDK/output/mx6sl/lib/liblwip.a(mib2.o)
                                                  /home/leon/git/swp-report/iMX6_Platform_SDK/output/mx6sl/lib/liblwip.a(msg_in.o)
snmp_inc_snmpoutbadvalues                         /home/leon/git/swp-report/iMX6_Platform_SDK/output/mx6sl/lib/liblwip.a(mib2.o)
                                                  /home/leon/git/swp-report/iMX6_Platform_SDK/output/mx6sl/lib/liblwip.a(msg_out.o)
snmp_inc_snmpoutgenerrs                           /home/leon/git/swp-report/iMX6_Platform_SDK/output/mx6sl/lib/liblwip.a(mib2.o)
                                                  /home/leon/git/swp-report/iMX6_Platform_SDK/output/mx6sl/lib/liblwip.a(msg_out.o)
snmp_inc_snmpoutgetnexts                          /home/leon/git/swp-report/iMX6_Platform_SDK/output/mx6sl/lib/liblwip.a(mib2.o)
snmp_inc_snmpoutgetrequests                       /home/leon/git/swp-report/iMX6_Platform_SDK/output/mx6sl/lib/liblwip.a(mib2.o)
snmp_inc_snmpoutgetresponses                      /home/leon/git/swp-report/iMX6_Platform_SDK/output/mx6sl/lib/liblwip.a(mib2.o)
                                                  /home/leon/git/swp-report/iMX6_Platform_SDK/output/mx6sl/lib/liblwip.a(msg_out.o)
snmp_inc_snmpoutnosuchnames                       /home/leon/git/swp-report/iMX6_Platform_SDK/output/mx6sl/lib/liblwip.a(mib2.o)
                                                  /home/leon/git/swp-report/iMX6_Platform_SDK/output/mx6sl/lib/liblwip.a(msg_out.o)
snmp_inc_snmpoutpkts                              /home/leon/git/swp-report/iMX6_Platform_SDK/output/mx6sl/lib/liblwip.a(mib2.o)
                                                  /home/leon/git/swp-report/iMX6_Platform_SDK/output/mx6sl/lib/liblwip.a(msg_out.o)
snmp_inc_snmpoutsetrequests                       /home/leon/git/swp-report/iMX6_Platform_SDK/output/mx6sl/lib/liblwip.a(mib2.o)
snmp_inc_snmpouttoobigs                           /home/leon/git/swp-report/iMX6_Platform_SDK/output/mx6sl/lib/liblwip.a(mib2.o)
                                                  /home/leon/git/swp-report/iMX6_Platform_SDK/output/mx6sl/lib/liblwip.a(msg_out.o)
snmp_inc_snmpouttraps                             /home/leon/git/swp-report/iMX6_Platform_SDK/output/mx6sl/lib/liblwip.a(mib2.o)
                                                  /home/leon/git/swp-report/iMX6_Platform_SDK/output/mx6sl/lib/liblwip.a(msg_out.o)
snmp_inc_sysuptime                                /home/leon/git/swp-report/iMX6_Platform_SDK/output/mx6sl/lib/liblwip.a(mib2.o)
snmp_inc_tcpactiveopens                           /home/leon/git/swp-report/iMX6_Platform_SDK/output/mx6sl/lib/liblwip.a(mib2.o)
                                                  /home/leon/git/swp-report/iMX6_Platform_SDK/output/mx6sl/lib/liblwip.a(tcp.o)
snmp_inc_tcpattemptfails                          /home/leon/git/swp-report/iMX6_Platform_SDK/output/mx6sl/lib/liblwip.a(mib2.o)
                                                  /home/leon/git/swp-report/iMX6_Platform_SDK/output/mx6sl/lib/liblwip.a(tcp.o)
snmp_inc_tcpestabresets                           /home/leon/git/swp-report/iMX6_Platform_SDK/output/mx6sl/lib/liblwip.a(mib2.o)
                                                  /home/leon/git/swp-report/iMX6_Platform_SDK/output/mx6sl/lib/liblwip.a(tcp.o)
snmp_inc_tcpinerrs                                /home/leon/git/swp-report/iMX6_Platform_SDK/output/mx6sl/lib/liblwip.a(mib2.o)
                                                  /home/leon/git/swp-report/iMX6_Platform_SDK/output/mx6sl/lib/liblwip.a(tcp_in.o)
snmp_inc_tcpinsegs                                /home/leon/git/swp-report/iMX6_Platform_SDK/output/mx6sl/lib/liblwip.a(mib2.o)
                                                  /home/leon/git/swp-report/iMX6_Platform_SDK/output/mx6sl/lib/liblwip.a(tcp_in.o)
snmp_inc_tcpoutrsts                               /home/leon/git/swp-report/iMX6_Platform_SDK/output/mx6sl/lib/liblwip.a(mib2.o)
                                                  /home/leon/git/swp-report/iMX6_Platform_SDK/output/mx6sl/lib/liblwip.a(tcp_out.o)
snmp_inc_tcpoutsegs                               /home/leon/git/swp-report/iMX6_Platform_SDK/output/mx6sl/lib/liblwip.a(mib2.o)
                                                  /home/leon/git/swp-report/iMX6_Platform_SDK/output/mx6sl/lib/liblwip.a(tcp_out.o)
snmp_inc_tcppassiveopens                          /home/leon/git/swp-report/iMX6_Platform_SDK/output/mx6sl/lib/liblwip.a(mib2.o)
                                                  /home/leon/git/swp-report/iMX6_Platform_SDK/output/mx6sl/lib/liblwip.a(tcp_in.o)
snmp_inc_tcpretranssegs                           /home/leon/git/swp-report/iMX6_Platform_SDK/output/mx6sl/lib/liblwip.a(mib2.o)
                                                  /home/leon/git/swp-report/iMX6_Platform_SDK/output/mx6sl/lib/liblwip.a(tcp_out.o)
snmp_inc_udpindatagrams                           /home/leon/git/swp-report/iMX6_Platform_SDK/output/mx6sl/lib/liblwip.a(mib2.o)
                                                  /home/leon/git/swp-report/iMX6_Platform_SDK/output/mx6sl/lib/liblwip.a(udp.o)
snmp_inc_udpinerrors                              /home/leon/git/swp-report/iMX6_Platform_SDK/output/mx6sl/lib/liblwip.a(mib2.o)
                                                  /home/leon/git/swp-report/iMX6_Platform_SDK/output/mx6sl/lib/liblwip.a(udp.o)
snmp_inc_udpnoports                               /home/leon/git/swp-report/iMX6_Platform_SDK/output/mx6sl/lib/liblwip.a(mib2.o)
                                                  /home/leon/git/swp-report/iMX6_Platform_SDK/output/mx6sl/lib/liblwip.a(udp.o)
snmp_inc_udpoutdatagrams                          /home/leon/git/swp-report/iMX6_Platform_SDK/output/mx6sl/lib/liblwip.a(mib2.o)
                                                  /home/leon/git/swp-report/iMX6_Platform_SDK/output/mx6sl/lib/liblwip.a(udp.o)
snmp_init                                         /home/leon/git/swp-report/iMX6_Platform_SDK/output/mx6sl/lib/liblwip.a(msg_in.o)
                                                  /home/leon/git/swp-report/iMX6_Platform_SDK/output/mx6sl/lib/liblwip.a(init.o)
snmp_insert_arpidx_tree                           /home/leon/git/swp-report/iMX6_Platform_SDK/output/mx6sl/lib/liblwip.a(mib2.o)
                                                  /home/leon/git/swp-report/iMX6_Platform_SDK/output/mx6sl/lib/liblwip.a(etharp.o)
snmp_insert_ipaddridx_tree                        /home/leon/git/swp-report/iMX6_Platform_SDK/output/mx6sl/lib/liblwip.a(mib2.o)
                                                  /home/leon/git/swp-report/iMX6_Platform_SDK/output/mx6sl/lib/liblwip.a(netif.o)
snmp_insert_iprteidx_tree                         /home/leon/git/swp-report/iMX6_Platform_SDK/output/mx6sl/lib/liblwip.a(mib2.o)
                                                  /home/leon/git/swp-report/iMX6_Platform_SDK/output/mx6sl/lib/liblwip.a(netif.o)
snmp_insert_udpidx_tree                           /home/leon/git/swp-report/iMX6_Platform_SDK/output/mx6sl/lib/liblwip.a(mib2.o)
                                                  /home/leon/git/swp-report/iMX6_Platform_SDK/output/mx6sl/lib/liblwip.a(udp.o)
snmp_iptooid                                      /home/leon/git/swp-report/iMX6_Platform_SDK/output/mx6sl/lib/liblwip.a(mib_structs.o)
                                                  /home/leon/git/swp-report/iMX6_Platform_SDK/output/mx6sl/lib/liblwip.a(mib2.o)
snmp_iso_prefix_expand                            /home/leon/git/swp-report/iMX6_Platform_SDK/output/mx6sl/lib/liblwip.a(mib_structs.o)
                                                  /home/leon/git/swp-report/iMX6_Platform_SDK/output/mx6sl/lib/liblwip.a(msg_in.o)
snmp_iso_prefix_tst                               /home/leon/git/swp-report/iMX6_Platform_SDK/output/mx6sl/lib/liblwip.a(mib_structs.o)
                                                  /home/leon/git/swp-report/iMX6_Platform_SDK/output/mx6sl/lib/liblwip.a(msg_in.o)
snmp_mib_ln_alloc                                 /home/leon/git/swp-report/iMX6_Platform_SDK/output/mx6sl/lib/liblwip.a(mib_structs.o)
snmp_mib_ln_free                                  /home/leon/git/swp-report/iMX6_Platform_SDK/output/mx6sl/lib/liblwip.a(mib_structs.o)
snmp_mib_lrn_alloc                                /home/leon/git/swp-report/iMX6_Platform_SDK/output/mx6sl/lib/liblwip.a(mib_structs.o)
                                                  /home/leon/git/swp-report/iMX6_Platform_SDK/output/mx6sl/lib/liblwip.a(mib2.o)
snmp_mib_lrn_free                                 /home/leon/git/swp-report/iMX6_Platform_SDK/output/mx6sl/lib/liblwip.a(mib_structs.o)
                                                  /home/leon/git/swp-report/iMX6_Platform_SDK/output/mx6sl/lib/liblwip.a(mib2.o)
snmp_mib_node_delete                              /home/leon/git/swp-report/iMX6_Platform_SDK/output/mx6sl/lib/liblwip.a(mib_structs.o)
                                                  /home/leon/git/swp-report/iMX6_Platform_SDK/output/mx6sl/lib/liblwip.a(mib2.o)
snmp_mib_node_find                                /home/leon/git/swp-report/iMX6_Platform_SDK/output/mx6sl/lib/liblwip.a(mib_structs.o)
                                                  /home/leon/git/swp-report/iMX6_Platform_SDK/output/mx6sl/lib/liblwip.a(mib2.o)
snmp_mib_node_insert                              /home/leon/git/swp-report/iMX6_Platform_SDK/output/mx6sl/lib/liblwip.a(mib_structs.o)
                                                  /home/leon/git/swp-report/iMX6_Platform_SDK/output/mx6sl/lib/liblwip.a(mib2.o)
snmp_msg_event                                    /home/leon/git/swp-report/iMX6_Platform_SDK/output/mx6sl/lib/liblwip.a(msg_in.o)
snmp_netiftoifindex                               /home/leon/git/swp-report/iMX6_Platform_SDK/output/mx6sl/lib/liblwip.a(mib_structs.o)
                                                  /home/leon/git/swp-report/iMX6_Platform_SDK/output/mx6sl/lib/liblwip.a(mib2.o)
snmp_nodes                                        /home/leon/git/swp-report/iMX6_Platform_SDK/output/mx6sl/lib/liblwip.a(mib2.o)
snmp_oidtoip                                      /home/leon/git/swp-report/iMX6_Platform_SDK/output/mx6sl/lib/liblwip.a(mib_structs.o)
                                                  /home/leon/git/swp-report/iMX6_Platform_SDK/output/mx6sl/lib/liblwip.a(mib2.o)
snmp_publiccommunity                              /home/leon/git/swp-report/iMX6_Platform_SDK/output/mx6sl/lib/liblwip.a(msg_in.o)
                                                  /home/leon/git/swp-report/iMX6_Platform_SDK/output/mx6sl/lib/liblwip.a(msg_out.o)
snmp_scalar                                       /home/leon/git/swp-report/iMX6_Platform_SDK/output/mx6sl/lib/liblwip.a(mib2.o)
snmp_search_tree                                  /home/leon/git/swp-report/iMX6_Platform_SDK/output/mx6sl/lib/liblwip.a(mib_structs.o)
                                                  /home/leon/git/swp-report/iMX6_Platform_SDK/output/mx6sl/lib/liblwip.a(msg_in.o)
snmp_send_response                                /home/leon/git/swp-report/iMX6_Platform_SDK/output/mx6sl/lib/liblwip.a(msg_out.o)
                                                  /home/leon/git/swp-report/iMX6_Platform_SDK/output/mx6sl/lib/liblwip.a(msg_in.o)
snmp_send_trap                                    /home/leon/git/swp-report/iMX6_Platform_SDK/output/mx6sl/lib/liblwip.a(msg_out.o)
snmp_set_snmpenableauthentraps                    /home/leon/git/swp-report/iMX6_Platform_SDK/output/mx6sl/lib/liblwip.a(mib2.o)
snmp_set_syscontact                               /home/leon/git/swp-report/iMX6_Platform_SDK/output/mx6sl/lib/liblwip.a(mib2.o)
snmp_set_sysdesr                                  /home/leon/git/swp-report/iMX6_Platform_SDK/output/mx6sl/lib/liblwip.a(mib2.o)
snmp_set_syslocation                              /home/leon/git/swp-report/iMX6_Platform_SDK/output/mx6sl/lib/liblwip.a(mib2.o)
snmp_set_sysname                                  /home/leon/git/swp-report/iMX6_Platform_SDK/output/mx6sl/lib/liblwip.a(mib2.o)
snmp_set_sysobjid                                 /home/leon/git/swp-report/iMX6_Platform_SDK/output/mx6sl/lib/liblwip.a(mib2.o)
snmp_trap_dst_enable                              /home/leon/git/swp-report/iMX6_Platform_SDK/output/mx6sl/lib/liblwip.a(msg_out.o)
snmp_trap_dst_ip_set                              /home/leon/git/swp-report/iMX6_Platform_SDK/output/mx6sl/lib/liblwip.a(msg_out.o)
snmp_varbind_alloc                                /home/leon/git/swp-report/iMX6_Platform_SDK/output/mx6sl/lib/liblwip.a(msg_in.o)
snmp_varbind_free                                 /home/leon/git/swp-report/iMX6_Platform_SDK/output/mx6sl/lib/liblwip.a(msg_in.o)
snmp_varbind_list_free                            /home/leon/git/swp-report/iMX6_Platform_SDK/output/mx6sl/lib/liblwip.a(msg_in.o)
snmp_varbind_tail_add                             /home/leon/git/swp-report/iMX6_Platform_SDK/output/mx6sl/lib/liblwip.a(msg_in.o)
snmp_varbind_tail_remove                          /home/leon/git/swp-report/iMX6_Platform_SDK/output/mx6sl/lib/liblwip.a(msg_in.o)
snmp_version                                      /home/leon/git/swp-report/iMX6_Platform_SDK/output/mx6sl/lib/liblwip.a(msg_in.o)
                                                  /home/leon/git/swp-report/iMX6_Platform_SDK/output/mx6sl/lib/liblwip.a(msg_out.o)
snvs_iomux_config                                 /home/leon/git/swp-report/iMX6_Platform_SDK/output/mx6sl/lib/libboard_evk_rev_a.a(iomux_config.o)
spdc_iomux_config                                 /home/leon/git/swp-report/iMX6_Platform_SDK/output/mx6sl/lib/libboard_evk_rev_a.a(spdc_iomux_config.o)
                                                  /home/leon/git/swp-report/iMX6_Platform_SDK/output/mx6sl/lib/libboard_evk_rev_a.a(iomux_config.o)
spdif_iomux_config                                /home/leon/git/swp-report/iMX6_Platform_SDK/output/mx6sl/lib/libboard_evk_rev_a.a(iomux_config.o)
srand                                             /home/leon/riotboard/arm-2012.09/bin/../arm-none-eabi/lib//libc.a(lib_a-rand.o)
src_iomux_config                                  /home/leon/git/swp-report/iMX6_Platform_SDK/output/mx6sl/lib/libboard_evk_rev_a.a(iomux_config.o)
stats_display                                     /home/leon/git/swp-report/iMX6_Platform_SDK/output/mx6sl/lib/liblwip.a(stats.o)
stats_display_igmp                                /home/leon/git/swp-report/iMX6_Platform_SDK/output/mx6sl/lib/liblwip.a(stats.o)
stats_display_mem                                 /home/leon/git/swp-report/iMX6_Platform_SDK/output/mx6sl/lib/liblwip.a(stats.o)
stats_display_memp                                /home/leon/git/swp-report/iMX6_Platform_SDK/output/mx6sl/lib/liblwip.a(stats.o)
stats_display_proto                               /home/leon/git/swp-report/iMX6_Platform_SDK/output/mx6sl/lib/liblwip.a(stats.o)
stats_display_sys                                 /home/leon/git/swp-report/iMX6_Platform_SDK/output/mx6sl/lib/liblwip.a(stats.o)
stats_init                                        /home/leon/git/swp-report/iMX6_Platform_SDK/output/mx6sl/lib/liblwip.a(stats.o)
                                                  /home/leon/git/swp-report/iMX6_Platform_SDK/output/mx6sl/lib/liblwip.a(init.o)
strcmp                                            /home/leon/riotboard/arm-2012.09/bin/../arm-none-eabi/lib//libc.a(lib_a-strcmp.o)
                                                  /home/leon/riotboard/arm-2012.09/bin/../arm-none-eabi/lib//libc.a(lib_a-locale.o)
                                                  /home/leon/git/swp-report/iMX6_Platform_SDK/output/mx6sl/lib/liblwip.a(dns.o)
strlen                                            /home/leon/riotboard/arm-2012.09/bin/../arm-none-eabi/lib//libc.a(lib_a-strlen.o)
                                                  /home/leon/git/swp-report/iMX6_Platform_SDK/output/mx6sl/lib/libsdk.a(runtime_support.o)
                                                  /home/leon/riotboard/arm-2012.09/bin/../arm-none-eabi/lib//libc.a(lib_a-vfprintf.o)
                                                  /home/leon/riotboard/arm-2012.09/bin/../arm-none-eabi/lib//libc.a(lib_a-vfiprintf.o)
                                                  /home/leon/git/swp-report/iMX6_Platform_SDK/output/mx6sl/lib/liblwip.a(pbuf.o)
                                                  /home/leon/git/swp-report/iMX6_Platform_SDK/output/mx6sl/lib/liblwip.a(dns.o)
                                                  /home/leon/git/swp-report/iMX6_Platform_SDK/output/mx6sl/lib/liblwip.a(dhcp.o)
strncmp                                           /home/leon/riotboard/arm-2012.09/bin/../arm-none-eabi/lib//libc.a(lib_a-strncmp.o)
                                                  /home/leon/git/swp-report/iMX6_Platform_SDK/output/mx6sl/lib/liblwip.a(msg_in.o)
sys_check_timeouts                                /home/leon/git/swp-report/iMX6_Platform_SDK/output/mx6sl/lib/liblwip.a(timers.o)
sys_now                                           /home/leon/git/swp-report/iMX6_Platform_SDK/output/mx6sl/lib/liblwip.a(sys_arch.o)
                                                  /home/leon/git/swp-report/iMX6_Platform_SDK/output/mx6sl/lib/liblwip.a(mx6_lwip.o)
                                                  /home/leon/git/swp-report/iMX6_Platform_SDK/output/mx6sl/lib/liblwip.a(timers.o)
                                                  /home/leon/git/swp-report/iMX6_Platform_SDK/output/mx6sl/lib/liblwip.a(mib2.o)
                                                  /home/leon/git/swp-report/iMX6_Platform_SDK/output/mx6sl/ping/evk_rev_a/obj/apps/ping/src/ping_main.o
                                                  /home/leon/git/swp-report/iMX6_Platform_SDK/output/mx6sl/ping/evk_rev_a/obj/apps/ping/src/ping.o
sys_restart_timeouts                              /home/leon/git/swp-report/iMX6_Platform_SDK/output/mx6sl/lib/liblwip.a(timers.o)
sys_tem                                           /home/leon/git/swp-report/iMX6_Platform_SDK/output/mx6sl/lib/liblwip.a(mib2.o)
sys_tem_ids                                       /home/leon/git/swp-report/iMX6_Platform_SDK/output/mx6sl/lib/liblwip.a(mib2.o)
sys_tem_nodes                                     /home/leon/git/swp-report/iMX6_Platform_SDK/output/mx6sl/lib/liblwip.a(mib2.o)
sys_tem_scalar                                    /home/leon/git/swp-report/iMX6_Platform_SDK/output/mx6sl/lib/liblwip.a(mib2.o)
sys_timeout                                       /home/leon/git/swp-report/iMX6_Platform_SDK/output/mx6sl/lib/liblwip.a(timers.o)
                                                  /home/leon/git/swp-report/iMX6_Platform_SDK/output/mx6sl/ping/evk_rev_a/obj/apps/ping/src/ping.o
sys_timeouts_init                                 /home/leon/git/swp-report/iMX6_Platform_SDK/output/mx6sl/lib/liblwip.a(timers.o)
                                                  /home/leon/git/swp-report/iMX6_Platform_SDK/output/mx6sl/lib/liblwip.a(init.o)
sys_untimeout                                     /home/leon/git/swp-report/iMX6_Platform_SDK/output/mx6sl/lib/liblwip.a(timers.o)
system_time_init                                  /home/leon/git/swp-report/iMX6_Platform_SDK/output/mx6sl/lib/libsdk.a(timer.o)
                                                  /home/leon/git/swp-report/iMX6_Platform_SDK/output/mx6sl/ping/evk_rev_a/obj/apps/common/platform_init.o
tcp                                               /home/leon/git/swp-report/iMX6_Platform_SDK/output/mx6sl/lib/liblwip.a(mib2.o)
tcp_abandon                                       /home/leon/git/swp-report/iMX6_Platform_SDK/output/mx6sl/lib/liblwip.a(tcp.o)
                                                  /home/leon/git/swp-report/iMX6_Platform_SDK/output/mx6sl/lib/liblwip.a(tcp_in.o)
tcp_abort                                         /home/leon/git/swp-report/iMX6_Platform_SDK/output/mx6sl/lib/liblwip.a(tcp.o)
                                                  /home/leon/git/swp-report/iMX6_Platform_SDK/output/mx6sl/lib/liblwip.a(tcp_in.o)
                                                  /home/leon/git/swp-report/iMX6_Platform_SDK/output/mx6sl/lib/liblwip.a(netif.o)
tcp_accept                                        /home/leon/git/swp-report/iMX6_Platform_SDK/output/mx6sl/lib/liblwip.a(tcp.o)
tcp_active_pcbs                                   /home/leon/git/swp-report/iMX6_Platform_SDK/output/mx6sl/lib/liblwip.a(tcp.o)
                                                  /home/leon/git/swp-report/iMX6_Platform_SDK/output/mx6sl/lib/liblwip.a(timers.o)
                                                  /home/leon/git/swp-report/iMX6_Platform_SDK/output/mx6sl/lib/liblwip.a(tcp_in.o)
                                                  /home/leon/git/swp-report/iMX6_Platform_SDK/output/mx6sl/lib/liblwip.a(mib2.o)
                                                  /home/leon/git/swp-report/iMX6_Platform_SDK/output/mx6sl/lib/liblwip.a(pbuf.o)
                                                  /home/leon/git/swp-report/iMX6_Platform_SDK/output/mx6sl/lib/liblwip.a(netif.o)
tcp_active_pcbs_changed                           /home/leon/git/swp-report/iMX6_Platform_SDK/output/mx6sl/lib/liblwip.a(tcp.o)
                                                  /home/leon/git/swp-report/iMX6_Platform_SDK/output/mx6sl/lib/liblwip.a(tcp_in.o)
tcp_alloc                                         /home/leon/git/swp-report/iMX6_Platform_SDK/output/mx6sl/lib/liblwip.a(tcp.o)
                                                  /home/leon/git/swp-report/iMX6_Platform_SDK/output/mx6sl/lib/liblwip.a(tcp_in.o)
tcp_arg                                           /home/leon/git/swp-report/iMX6_Platform_SDK/output/mx6sl/lib/liblwip.a(tcp.o)
tcp_backoff                                       /home/leon/git/swp-report/iMX6_Platform_SDK/output/mx6sl/lib/liblwip.a(tcp.o)
tcp_bind                                          /home/leon/git/swp-report/iMX6_Platform_SDK/output/mx6sl/lib/liblwip.a(tcp.o)
tcp_bound_pcbs                                    /home/leon/git/swp-report/iMX6_Platform_SDK/output/mx6sl/lib/liblwip.a(tcp.o)
tcp_close                                         /home/leon/git/swp-report/iMX6_Platform_SDK/output/mx6sl/lib/liblwip.a(tcp.o)
tcp_connect                                       /home/leon/git/swp-report/iMX6_Platform_SDK/output/mx6sl/lib/liblwip.a(tcp.o)
tcp_debug_state_str                               /home/leon/git/swp-report/iMX6_Platform_SDK/output/mx6sl/lib/liblwip.a(tcp.o)
tcp_eff_send_mss_impl                             /home/leon/git/swp-report/iMX6_Platform_SDK/output/mx6sl/lib/liblwip.a(tcp.o)
                                                  /home/leon/git/swp-report/iMX6_Platform_SDK/output/mx6sl/lib/liblwip.a(tcp_out.o)
                                                  /home/leon/git/swp-report/iMX6_Platform_SDK/output/mx6sl/lib/liblwip.a(tcp_in.o)
tcp_enqueue_flags                                 /home/leon/git/swp-report/iMX6_Platform_SDK/output/mx6sl/lib/liblwip.a(tcp_out.o)
                                                  /home/leon/git/swp-report/iMX6_Platform_SDK/output/mx6sl/lib/liblwip.a(tcp.o)
                                                  /home/leon/git/swp-report/iMX6_Platform_SDK/output/mx6sl/lib/liblwip.a(tcp_in.o)
tcp_err                                           /home/leon/git/swp-report/iMX6_Platform_SDK/output/mx6sl/lib/liblwip.a(tcp.o)
tcp_fasttmr                                       /home/leon/git/swp-report/iMX6_Platform_SDK/output/mx6sl/lib/liblwip.a(tcp.o)
tcp_ids                                           /home/leon/git/swp-report/iMX6_Platform_SDK/output/mx6sl/lib/liblwip.a(mib2.o)
tcp_init                                          /home/leon/git/swp-report/iMX6_Platform_SDK/output/mx6sl/lib/liblwip.a(tcp.o)
                                                  /home/leon/git/swp-report/iMX6_Platform_SDK/output/mx6sl/lib/liblwip.a(init.o)
tcp_input                                         /home/leon/git/swp-report/iMX6_Platform_SDK/output/mx6sl/lib/liblwip.a(tcp_in.o)
                                                  /home/leon/git/swp-report/iMX6_Platform_SDK/output/mx6sl/lib/liblwip.a(ip4.o)
tcp_input_pcb                                     /home/leon/git/swp-report/iMX6_Platform_SDK/output/mx6sl/lib/liblwip.a(tcp_in.o)
                                                  /home/leon/git/swp-report/iMX6_Platform_SDK/output/mx6sl/lib/liblwip.a(tcp_out.o)
tcp_keepalive                                     /home/leon/git/swp-report/iMX6_Platform_SDK/output/mx6sl/lib/liblwip.a(tcp_out.o)
                                                  /home/leon/git/swp-report/iMX6_Platform_SDK/output/mx6sl/lib/liblwip.a(tcp.o)
tcp_listen_pcbs                                   /home/leon/git/swp-report/iMX6_Platform_SDK/output/mx6sl/lib/liblwip.a(tcp.o)
                                                  /home/leon/git/swp-report/iMX6_Platform_SDK/output/mx6sl/lib/liblwip.a(tcp_in.o)
                                                  /home/leon/git/swp-report/iMX6_Platform_SDK/output/mx6sl/lib/liblwip.a(netif.o)
tcp_listen_with_backlog                           /home/leon/git/swp-report/iMX6_Platform_SDK/output/mx6sl/lib/liblwip.a(tcp.o)
tcp_new                                           /home/leon/git/swp-report/iMX6_Platform_SDK/output/mx6sl/lib/liblwip.a(tcp.o)
tcp_next_iss                                      /home/leon/git/swp-report/iMX6_Platform_SDK/output/mx6sl/lib/liblwip.a(tcp.o)
tcp_nodes                                         /home/leon/git/swp-report/iMX6_Platform_SDK/output/mx6sl/lib/liblwip.a(mib2.o)
tcp_output                                        /home/leon/git/swp-report/iMX6_Platform_SDK/output/mx6sl/lib/liblwip.a(tcp_out.o)
                                                  /home/leon/git/swp-report/iMX6_Platform_SDK/output/mx6sl/lib/liblwip.a(tcp.o)
                                                  /home/leon/git/swp-report/iMX6_Platform_SDK/output/mx6sl/lib/liblwip.a(tcp_in.o)
tcp_pcb_lists                                     /home/leon/git/swp-report/iMX6_Platform_SDK/output/mx6sl/lib/liblwip.a(tcp.o)
tcp_pcb_purge                                     /home/leon/git/swp-report/iMX6_Platform_SDK/output/mx6sl/lib/liblwip.a(tcp.o)
                                                  /home/leon/git/swp-report/iMX6_Platform_SDK/output/mx6sl/lib/liblwip.a(tcp_in.o)
tcp_pcb_remove                                    /home/leon/git/swp-report/iMX6_Platform_SDK/output/mx6sl/lib/liblwip.a(tcp.o)
                                                  /home/leon/git/swp-report/iMX6_Platform_SDK/output/mx6sl/lib/liblwip.a(tcp_in.o)
tcp_persist_backoff                               /home/leon/git/swp-report/iMX6_Platform_SDK/output/mx6sl/lib/liblwip.a(tcp.o)
tcp_poll                                          /home/leon/git/swp-report/iMX6_Platform_SDK/output/mx6sl/lib/liblwip.a(tcp.o)
tcp_process_refused_data                          /home/leon/git/swp-report/iMX6_Platform_SDK/output/mx6sl/lib/liblwip.a(tcp.o)
                                                  /home/leon/git/swp-report/iMX6_Platform_SDK/output/mx6sl/lib/liblwip.a(tcp_in.o)
tcp_recv                                          /home/leon/git/swp-report/iMX6_Platform_SDK/output/mx6sl/lib/liblwip.a(tcp.o)
tcp_recv_null                                     /home/leon/git/swp-report/iMX6_Platform_SDK/output/mx6sl/lib/liblwip.a(tcp.o)
                                                  /home/leon/git/swp-report/iMX6_Platform_SDK/output/mx6sl/lib/liblwip.a(tcp_in.o)
tcp_recved                                        /home/leon/git/swp-report/iMX6_Platform_SDK/output/mx6sl/lib/liblwip.a(tcp.o)
tcp_rexmit                                        /home/leon/git/swp-report/iMX6_Platform_SDK/output/mx6sl/lib/liblwip.a(tcp_out.o)
                                                  /home/leon/git/swp-report/iMX6_Platform_SDK/output/mx6sl/lib/liblwip.a(tcp_in.o)
tcp_rexmit_fast                                   /home/leon/git/swp-report/iMX6_Platform_SDK/output/mx6sl/lib/liblwip.a(tcp_out.o)
                                                  /home/leon/git/swp-report/iMX6_Platform_SDK/output/mx6sl/lib/liblwip.a(tcp_in.o)
tcp_rexmit_rto                                    /home/leon/git/swp-report/iMX6_Platform_SDK/output/mx6sl/lib/liblwip.a(tcp_out.o)
                                                  /home/leon/git/swp-report/iMX6_Platform_SDK/output/mx6sl/lib/liblwip.a(tcp.o)
tcp_rst_impl                                      /home/leon/git/swp-report/iMX6_Platform_SDK/output/mx6sl/lib/liblwip.a(tcp_out.o)
                                                  /home/leon/git/swp-report/iMX6_Platform_SDK/output/mx6sl/lib/liblwip.a(tcp.o)
                                                  /home/leon/git/swp-report/iMX6_Platform_SDK/output/mx6sl/lib/liblwip.a(tcp_in.o)
tcp_scalar                                        /home/leon/git/swp-report/iMX6_Platform_SDK/output/mx6sl/lib/liblwip.a(mib2.o)
tcp_seg_copy                                      /home/leon/git/swp-report/iMX6_Platform_SDK/output/mx6sl/lib/liblwip.a(tcp.o)
                                                  /home/leon/git/swp-report/iMX6_Platform_SDK/output/mx6sl/lib/liblwip.a(tcp_in.o)
tcp_seg_free                                      /home/leon/git/swp-report/iMX6_Platform_SDK/output/mx6sl/lib/liblwip.a(tcp.o)
                                                  /home/leon/git/swp-report/iMX6_Platform_SDK/output/mx6sl/lib/liblwip.a(tcp_out.o)
                                                  /home/leon/git/swp-report/iMX6_Platform_SDK/output/mx6sl/lib/liblwip.a(tcp_in.o)
tcp_segs_free                                     /home/leon/git/swp-report/iMX6_Platform_SDK/output/mx6sl/lib/liblwip.a(tcp.o)
                                                  /home/leon/git/swp-report/iMX6_Platform_SDK/output/mx6sl/lib/liblwip.a(tcp_out.o)
                                                  /home/leon/git/swp-report/iMX6_Platform_SDK/output/mx6sl/lib/liblwip.a(tcp_in.o)
                                                  /home/leon/git/swp-report/iMX6_Platform_SDK/output/mx6sl/lib/liblwip.a(pbuf.o)
tcp_send_empty_ack                                /home/leon/git/swp-report/iMX6_Platform_SDK/output/mx6sl/lib/liblwip.a(tcp_out.o)
                                                  /home/leon/git/swp-report/iMX6_Platform_SDK/output/mx6sl/lib/liblwip.a(tcp_in.o)
tcp_send_fin                                      /home/leon/git/swp-report/iMX6_Platform_SDK/output/mx6sl/lib/liblwip.a(tcp_out.o)
                                                  /home/leon/git/swp-report/iMX6_Platform_SDK/output/mx6sl/lib/liblwip.a(tcp.o)
tcp_sent                                          /home/leon/git/swp-report/iMX6_Platform_SDK/output/mx6sl/lib/liblwip.a(tcp.o)
tcp_setprio                                       /home/leon/git/swp-report/iMX6_Platform_SDK/output/mx6sl/lib/liblwip.a(tcp.o)
tcp_shutdown                                      /home/leon/git/swp-report/iMX6_Platform_SDK/output/mx6sl/lib/liblwip.a(tcp.o)
tcp_slowtmr                                       /home/leon/git/swp-report/iMX6_Platform_SDK/output/mx6sl/lib/liblwip.a(tcp.o)
tcp_state_str                                     /home/leon/git/swp-report/iMX6_Platform_SDK/output/mx6sl/lib/liblwip.a(tcp.o)
tcp_ticks                                         /home/leon/git/swp-report/iMX6_Platform_SDK/output/mx6sl/lib/liblwip.a(tcp.o)
                                                  /home/leon/git/swp-report/iMX6_Platform_SDK/output/mx6sl/lib/liblwip.a(tcp_out.o)
                                                  /home/leon/git/swp-report/iMX6_Platform_SDK/output/mx6sl/lib/liblwip.a(tcp_in.o)
tcp_timer_needed                                  /home/leon/git/swp-report/iMX6_Platform_SDK/output/mx6sl/lib/liblwip.a(timers.o)
                                                  /home/leon/git/swp-report/iMX6_Platform_SDK/output/mx6sl/lib/liblwip.a(tcp.o)
                                                  /home/leon/git/swp-report/iMX6_Platform_SDK/output/mx6sl/lib/liblwip.a(tcp_in.o)
tcp_tmp_pcb                                       /home/leon/git/swp-report/iMX6_Platform_SDK/output/mx6sl/lib/liblwip.a(tcp.o)
                                                  /home/leon/git/swp-report/iMX6_Platform_SDK/output/mx6sl/lib/liblwip.a(tcp_in.o)
tcp_tmr                                           /home/leon/git/swp-report/iMX6_Platform_SDK/output/mx6sl/lib/liblwip.a(tcp.o)
                                                  /home/leon/git/swp-report/iMX6_Platform_SDK/output/mx6sl/lib/liblwip.a(mx6_lwip.o)
                                                  /home/leon/git/swp-report/iMX6_Platform_SDK/output/mx6sl/lib/liblwip.a(timers.o)
tcp_tw_pcbs                                       /home/leon/git/swp-report/iMX6_Platform_SDK/output/mx6sl/lib/liblwip.a(tcp.o)
                                                  /home/leon/git/swp-report/iMX6_Platform_SDK/output/mx6sl/lib/liblwip.a(timers.o)
                                                  /home/leon/git/swp-report/iMX6_Platform_SDK/output/mx6sl/lib/liblwip.a(tcp_in.o)
tcp_update_rcv_ann_wnd                            /home/leon/git/swp-report/iMX6_Platform_SDK/output/mx6sl/lib/liblwip.a(tcp.o)
                                                  /home/leon/git/swp-report/iMX6_Platform_SDK/output/mx6sl/lib/liblwip.a(tcp_in.o)
tcp_write                                         /home/leon/git/swp-report/iMX6_Platform_SDK/output/mx6sl/lib/liblwip.a(tcp_out.o)
tcp_zero_window_probe                             /home/leon/git/swp-report/iMX6_Platform_SDK/output/mx6sl/lib/liblwip.a(tcp_out.o)
                                                  /home/leon/git/swp-report/iMX6_Platform_SDK/output/mx6sl/lib/liblwip.a(tcp.o)
tcpconnentry                                      /home/leon/git/swp-report/iMX6_Platform_SDK/output/mx6sl/lib/liblwip.a(mib2.o)
tcpconnentry_ids                                  /home/leon/git/swp-report/iMX6_Platform_SDK/output/mx6sl/lib/liblwip.a(mib2.o)
tcpconnentry_nodes                                /home/leon/git/swp-report/iMX6_Platform_SDK/output/mx6sl/lib/liblwip.a(mib2.o)
tcpconntable                                      /home/leon/git/swp-report/iMX6_Platform_SDK/output/mx6sl/lib/liblwip.a(mib2.o)
tcpconntable_id                                   /home/leon/git/swp-report/iMX6_Platform_SDK/output/mx6sl/lib/liblwip.a(mib2.o)
tcpconntable_node                                 /home/leon/git/swp-report/iMX6_Platform_SDK/output/mx6sl/lib/liblwip.a(mib2.o)
tcpconntree_root                                  /home/leon/git/swp-report/iMX6_Platform_SDK/output/mx6sl/lib/liblwip.a(mib2.o)
time_get_microseconds                             /home/leon/git/swp-report/iMX6_Platform_SDK/output/mx6sl/lib/libsdk.a(timer.o)
                                                  /home/leon/git/swp-report/iMX6_Platform_SDK/output/mx6sl/lib/libsdk.a(runtime_support.o)
                                                  /home/leon/git/swp-report/iMX6_Platform_SDK/output/mx6sl/lib/liblwip.a(sys_arch.o)
top_of_stacks                                     /home/leon/git/swp-report/iMX6_Platform_SDK/output/mx6sl/lib/libsdk.a(startup.o)
trap_dst                                          /home/leon/git/swp-report/iMX6_Platform_SDK/output/mx6sl/lib/liblwip.a(msg_out.o)
trap_msg                                          /home/leon/git/swp-report/iMX6_Platform_SDK/output/mx6sl/lib/liblwip.a(msg_out.o)
                                                  /home/leon/git/swp-report/iMX6_Platform_SDK/output/mx6sl/lib/liblwip.a(msg_in.o)
uart1_iomux_config                                /home/leon/git/swp-report/iMX6_Platform_SDK/output/mx6sl/lib/libboard_evk_rev_a.a(uart1_iomux_config.o)
                                                  /home/leon/git/swp-report/iMX6_Platform_SDK/output/mx6sl/lib/libboard_evk_rev_a.a(iomux_config.o)
                                                  /home/leon/git/swp-report/iMX6_Platform_SDK/output/mx6sl/lib/libboard_evk_rev_a.a(uart_iomux_config.o)
uart2_iomux_config                                /home/leon/git/swp-report/iMX6_Platform_SDK/output/mx6sl/lib/libboard_evk_rev_a.a(iomux_config.o)
                                                  /home/leon/git/swp-report/iMX6_Platform_SDK/output/mx6sl/lib/libboard_evk_rev_a.a(uart_iomux_config.o)
uart3_iomux_config                                /home/leon/git/swp-report/iMX6_Platform_SDK/output/mx6sl/lib/libboard_evk_rev_a.a(iomux_config.o)
                                                  /home/leon/git/swp-report/iMX6_Platform_SDK/output/mx6sl/lib/libboard_evk_rev_a.a(uart_iomux_config.o)
uart4_iomux_config                                /home/leon/git/swp-report/iMX6_Platform_SDK/output/mx6sl/lib/libboard_evk_rev_a.a(iomux_config.o)
                                                  /home/leon/git/swp-report/iMX6_Platform_SDK/output/mx6sl/lib/libboard_evk_rev_a.a(uart_iomux_config.o)
uart5_iomux_config                                /home/leon/git/swp-report/iMX6_Platform_SDK/output/mx6sl/lib/libboard_evk_rev_a.a(iomux_config.o)
                                                  /home/leon/git/swp-report/iMX6_Platform_SDK/output/mx6sl/lib/libboard_evk_rev_a.a(uart_iomux_config.o)
uart_get_reffreq                                  /home/leon/git/swp-report/iMX6_Platform_SDK/output/mx6sl/lib/libsdk.a(imx_uart.o)
uart_getchar                                      /home/leon/git/swp-report/iMX6_Platform_SDK/output/mx6sl/lib/libsdk.a(imx_uart.o)
                                                  /home/leon/git/swp-report/iMX6_Platform_SDK/output/mx6sl/lib/libsdk.a(runtime_support.o)
                                                  /home/leon/git/swp-report/iMX6_Platform_SDK/output/mx6sl/lib/libsdk.a(system_util.o)
                                                  /home/leon/git/swp-report/iMX6_Platform_SDK/output/mx6sl/ping/evk_rev_a/obj/apps/common/platform_init.o
uart_init                                         /home/leon/git/swp-report/iMX6_Platform_SDK/output/mx6sl/lib/libsdk.a(imx_uart.o)
                                                  /home/leon/git/swp-report/iMX6_Platform_SDK/output/mx6sl/ping/evk_rev_a/obj/apps/common/platform_init.o
uart_iomux_config                                 /home/leon/git/swp-report/iMX6_Platform_SDK/output/mx6sl/lib/libboard_evk_rev_a.a(uart_iomux_config.o)
                                                  /home/leon/git/swp-report/iMX6_Platform_SDK/output/mx6sl/lib/libsdk.a(imx_uart.o)
uart_putchar                                      /home/leon/git/swp-report/iMX6_Platform_SDK/output/mx6sl/lib/libsdk.a(imx_uart.o)
                                                  /home/leon/git/swp-report/iMX6_Platform_SDK/output/mx6sl/lib/libsdk.a(runtime_support.o)
uart_set_FIFO_mode                                /home/leon/git/swp-report/iMX6_Platform_SDK/output/mx6sl/lib/libsdk.a(imx_uart.o)
uart_set_loopback_mode                            /home/leon/git/swp-report/iMX6_Platform_SDK/output/mx6sl/lib/libsdk.a(imx_uart.o)
uart_setup_interrupt                              /home/leon/git/swp-report/iMX6_Platform_SDK/output/mx6sl/lib/libsdk.a(imx_uart.o)
udp                                               /home/leon/git/swp-report/iMX6_Platform_SDK/output/mx6sl/lib/liblwip.a(mib2.o)
udp_bind                                          /home/leon/git/swp-report/iMX6_Platform_SDK/output/mx6sl/lib/liblwip.a(udp.o)
                                                  /home/leon/git/swp-report/iMX6_Platform_SDK/output/mx6sl/lib/liblwip.a(msg_in.o)
                                                  /home/leon/git/swp-report/iMX6_Platform_SDK/output/mx6sl/lib/liblwip.a(dns.o)
                                                  /home/leon/git/swp-report/iMX6_Platform_SDK/output/mx6sl/lib/liblwip.a(dhcp.o)
udp_connect                                       /home/leon/git/swp-report/iMX6_Platform_SDK/output/mx6sl/lib/liblwip.a(udp.o)
                                                  /home/leon/git/swp-report/iMX6_Platform_SDK/output/mx6sl/lib/liblwip.a(msg_out.o)
                                                  /home/leon/git/swp-report/iMX6_Platform_SDK/output/mx6sl/lib/liblwip.a(dns.o)
                                                  /home/leon/git/swp-report/iMX6_Platform_SDK/output/mx6sl/lib/liblwip.a(dhcp.o)
udp_disconnect                                    /home/leon/git/swp-report/iMX6_Platform_SDK/output/mx6sl/lib/liblwip.a(udp.o)
                                                  /home/leon/git/swp-report/iMX6_Platform_SDK/output/mx6sl/lib/liblwip.a(msg_out.o)
udp_ids                                           /home/leon/git/swp-report/iMX6_Platform_SDK/output/mx6sl/lib/liblwip.a(mib2.o)
udp_init                                          /home/leon/git/swp-report/iMX6_Platform_SDK/output/mx6sl/lib/liblwip.a(udp.o)
                                                  /home/leon/git/swp-report/iMX6_Platform_SDK/output/mx6sl/lib/liblwip.a(init.o)
udp_input                                         /home/leon/git/swp-report/iMX6_Platform_SDK/output/mx6sl/lib/liblwip.a(udp.o)
                                                  /home/leon/git/swp-report/iMX6_Platform_SDK/output/mx6sl/lib/liblwip.a(ip4.o)
udp_new                                           /home/leon/git/swp-report/iMX6_Platform_SDK/output/mx6sl/lib/liblwip.a(udp.o)
                                                  /home/leon/git/swp-report/iMX6_Platform_SDK/output/mx6sl/lib/liblwip.a(msg_in.o)
                                                  /home/leon/git/swp-report/iMX6_Platform_SDK/output/mx6sl/lib/liblwip.a(dns.o)
                                                  /home/leon/git/swp-report/iMX6_Platform_SDK/output/mx6sl/lib/liblwip.a(dhcp.o)
udp_nodes                                         /home/leon/git/swp-report/iMX6_Platform_SDK/output/mx6sl/lib/liblwip.a(mib2.o)
udp_pcbs                                          /home/leon/git/swp-report/iMX6_Platform_SDK/output/mx6sl/lib/liblwip.a(udp.o)
                                                  /home/leon/git/swp-report/iMX6_Platform_SDK/output/mx6sl/lib/liblwip.a(mib2.o)
udp_recv                                          /home/leon/git/swp-report/iMX6_Platform_SDK/output/mx6sl/lib/liblwip.a(udp.o)
                                                  /home/leon/git/swp-report/iMX6_Platform_SDK/output/mx6sl/lib/liblwip.a(msg_in.o)
                                                  /home/leon/git/swp-report/iMX6_Platform_SDK/output/mx6sl/lib/liblwip.a(dns.o)
                                                  /home/leon/git/swp-report/iMX6_Platform_SDK/output/mx6sl/lib/liblwip.a(dhcp.o)
udp_remove                                        /home/leon/git/swp-report/iMX6_Platform_SDK/output/mx6sl/lib/liblwip.a(udp.o)
                                                  /home/leon/git/swp-report/iMX6_Platform_SDK/output/mx6sl/lib/liblwip.a(dhcp.o)
udp_root                                          /home/leon/git/swp-report/iMX6_Platform_SDK/output/mx6sl/lib/liblwip.a(mib2.o)
udp_scalar                                        /home/leon/git/swp-report/iMX6_Platform_SDK/output/mx6sl/lib/liblwip.a(mib2.o)
udp_send                                          /home/leon/git/swp-report/iMX6_Platform_SDK/output/mx6sl/lib/liblwip.a(udp.o)
                                                  /home/leon/git/swp-report/iMX6_Platform_SDK/output/mx6sl/lib/liblwip.a(msg_out.o)
udp_sendto                                        /home/leon/git/swp-report/iMX6_Platform_SDK/output/mx6sl/lib/liblwip.a(udp.o)
                                                  /home/leon/git/swp-report/iMX6_Platform_SDK/output/mx6sl/lib/liblwip.a(msg_out.o)
                                                  /home/leon/git/swp-report/iMX6_Platform_SDK/output/mx6sl/lib/liblwip.a(dns.o)
udp_sendto_if                                     /home/leon/git/swp-report/iMX6_Platform_SDK/output/mx6sl/lib/liblwip.a(udp.o)
                                                  /home/leon/git/swp-report/iMX6_Platform_SDK/output/mx6sl/lib/liblwip.a(dhcp.o)
udpentry                                          /home/leon/git/swp-report/iMX6_Platform_SDK/output/mx6sl/lib/liblwip.a(mib2.o)
udpentry_ids                                      /home/leon/git/swp-report/iMX6_Platform_SDK/output/mx6sl/lib/liblwip.a(mib2.o)
udpentry_nodes                                    /home/leon/git/swp-report/iMX6_Platform_SDK/output/mx6sl/lib/liblwip.a(mib2.o)
udptable                                          /home/leon/git/swp-report/iMX6_Platform_SDK/output/mx6sl/lib/liblwip.a(mib2.o)
udptable_id                                       /home/leon/git/swp-report/iMX6_Platform_SDK/output/mx6sl/lib/liblwip.a(mib2.o)
udptable_node                                     /home/leon/git/swp-report/iMX6_Platform_SDK/output/mx6sl/lib/liblwip.a(mib2.o)
usb_iomux_config                                  /home/leon/git/swp-report/iMX6_Platform_SDK/output/mx6sl/lib/libboard_evk_rev_a.a(usb_iomux_config.o)
                                                  /home/leon/git/swp-report/iMX6_Platform_SDK/output/mx6sl/lib/libboard_evk_rev_a.a(iomux_config.o)
usdhc1_iomux_config                               /home/leon/git/swp-report/iMX6_Platform_SDK/output/mx6sl/lib/libboard_evk_rev_a.a(usdhc1_iomux_config.o)
                                                  /home/leon/git/swp-report/iMX6_Platform_SDK/output/mx6sl/lib/libboard_evk_rev_a.a(iomux_config.o)
usdhc2_iomux_config                               /home/leon/git/swp-report/iMX6_Platform_SDK/output/mx6sl/lib/libboard_evk_rev_a.a(usdhc2_iomux_config.o)
                                                  /home/leon/git/swp-report/iMX6_Platform_SDK/output/mx6sl/lib/libboard_evk_rev_a.a(iomux_config.o)
usdhc3_iomux_config                               /home/leon/git/swp-report/iMX6_Platform_SDK/output/mx6sl/lib/libboard_evk_rev_a.a(usdhc3_iomux_config.o)
                                                  /home/leon/git/swp-report/iMX6_Platform_SDK/output/mx6sl/lib/libboard_evk_rev_a.a(iomux_config.o)
usdhc4_iomux_config                               /home/leon/git/swp-report/iMX6_Platform_SDK/output/mx6sl/lib/libboard_evk_rev_a.a(iomux_config.o)
vectors                                           /home/leon/git/swp-report/iMX6_Platform_SDK/output/mx6sl/lib/libsdk.a(vectors.o)
                                                  /home/leon/git/swp-report/iMX6_Platform_SDK/output/mx6sl/lib/libsdk.a(startup.o)
vfiprintf                                         /home/leon/riotboard/arm-2012.09/bin/../arm-none-eabi/lib//libc.a(lib_a-vfiprintf.o)
vfprintf                                          /home/leon/riotboard/arm-2012.09/bin/../arm-none-eabi/lib//libc.a(lib_a-vfprintf.o)
vprintf                                           /home/leon/riotboard/arm-2012.09/bin/../arm-none-eabi/lib//libc.a(lib_a-vprintf.o)
                                                  /home/leon/git/swp-report/iMX6_Platform_SDK/output/mx6sl/lib/libsdk.a(gpio.o)
                                                  /home/leon/git/swp-report/iMX6_Platform_SDK/output/mx6sl/lib/libsdk.a(text_color.o)
wcrtomb                                           /home/leon/riotboard/arm-2012.09/bin/../arm-none-eabi/lib//libc.a(lib_a-wcrtomb.o)
wdog1_iomux_config                                /home/leon/git/swp-report/iMX6_Platform_SDK/output/mx6sl/lib/libboard_evk_rev_a.a(wdog1_iomux_config.o)
                                                  /home/leon/git/swp-report/iMX6_Platform_SDK/output/mx6sl/lib/libboard_evk_rev_a.a(iomux_config.o)
wdog2_iomux_config                                /home/leon/git/swp-report/iMX6_Platform_SDK/output/mx6sl/lib/libboard_evk_rev_a.a(iomux_config.o)
xtalosc_iomux_config                              /home/leon/git/swp-report/iMX6_Platform_SDK/output/mx6sl/lib/libboard_evk_rev_a.a(iomux_config.o)
