Archive member included because of file (symbol)

/home/leon/git/swp-report/iMX6_Platform_SDK/output/mx6dq/lib/libsdk.a(armv7_cache.o)
                              /home/leon/git/swp-report/iMX6_Platform_SDK/output/mx6dq/smp_primes/evb_rev_a/obj/apps/smp_primes/src/main.o (arm_dcache_enable)
/home/leon/git/swp-report/iMX6_Platform_SDK/output/mx6dq/lib/libsdk.a(ccm_pll.o)
                              /home/leon/git/swp-report/iMX6_Platform_SDK/output/mx6dq/smp_primes/evb_rev_a/obj/apps/common/platform_init.o (ccm_init)
/home/leon/git/swp-report/iMX6_Platform_SDK/output/mx6dq/lib/libsdk.a(cortexA9.o)
                              /home/leon/git/swp-report/iMX6_Platform_SDK/output/mx6dq/smp_primes/evb_rev_a/obj/apps/common/platform_init.o (arm_set_interrupt_state)
/home/leon/git/swp-report/iMX6_Platform_SDK/output/mx6dq/lib/libsdk.a(gic.o)
                              /home/leon/git/swp-report/iMX6_Platform_SDK/output/mx6dq/smp_primes/evb_rev_a/obj/apps/common/platform_init.o (gic_init)
/home/leon/git/swp-report/iMX6_Platform_SDK/output/mx6dq/lib/libsdk.a(mmu.o)
                              /home/leon/git/swp-report/iMX6_Platform_SDK/output/mx6dq/smp_primes/evb_rev_a/obj/apps/common/platform_init.o (mmu_init)
/home/leon/git/swp-report/iMX6_Platform_SDK/output/mx6dq/lib/libsdk.a(startup.o)
                              (_start)
/home/leon/git/swp-report/iMX6_Platform_SDK/output/mx6dq/lib/libsdk.a(vectors.o)
                              /home/leon/git/swp-report/iMX6_Platform_SDK/output/mx6dq/lib/libsdk.a(startup.o) (vectors)
/home/leon/git/swp-report/iMX6_Platform_SDK/output/mx6dq/lib/libsdk.a(spinlock.o)
                              /home/leon/git/swp-report/iMX6_Platform_SDK/output/mx6dq/smp_primes/evb_rev_a/obj/apps/smp_primes/src/main.o (spinlock_init)
/home/leon/git/swp-report/iMX6_Platform_SDK/output/mx6dq/lib/libsdk.a(spinlock_lock_unlock.o)
                              /home/leon/git/swp-report/iMX6_Platform_SDK/output/mx6dq/smp_primes/evb_rev_a/obj/apps/smp_primes/src/main.o (spinlock_lock)
/home/leon/git/swp-report/iMX6_Platform_SDK/output/mx6dq/lib/libsdk.a(system_util.o)
                              /home/leon/git/swp-report/iMX6_Platform_SDK/output/mx6dq/lib/libsdk.a(startup.o) (_sys_exit)
/home/leon/git/swp-report/iMX6_Platform_SDK/output/mx6dq/lib/libsdk.a(text_color.o)
                              /home/leon/git/swp-report/iMX6_Platform_SDK/output/mx6dq/lib/libsdk.a(system_util.o) (g_TextAttributeBold)
/home/leon/git/swp-report/iMX6_Platform_SDK/output/mx6dq/lib/libsdk.a(cpu_get_cores.o)
                              /home/leon/git/swp-report/iMX6_Platform_SDK/output/mx6dq/smp_primes/evb_rev_a/obj/apps/smp_primes/src/main.o (cpu_get_cores)
/home/leon/git/swp-report/iMX6_Platform_SDK/output/mx6dq/lib/libsdk.a(cpu_multicore.o)
                              /home/leon/git/swp-report/iMX6_Platform_SDK/output/mx6dq/smp_primes/evb_rev_a/obj/apps/smp_primes/src/main.o (cpu_start_secondary)
/home/leon/git/swp-report/iMX6_Platform_SDK/output/mx6dq/lib/libsdk.a(timer.o)
                              /home/leon/git/swp-report/iMX6_Platform_SDK/output/mx6dq/smp_primes/evb_rev_a/obj/apps/common/platform_init.o (system_time_init)
/home/leon/git/swp-report/iMX6_Platform_SDK/output/mx6dq/lib/libsdk.a(imx_uart.o)
                              /home/leon/git/swp-report/iMX6_Platform_SDK/output/mx6dq/smp_primes/evb_rev_a/obj/apps/common/platform_init.o (uart_getchar)
/home/leon/git/swp-report/iMX6_Platform_SDK/output/mx6dq/lib/libsdk.a(arm_abort.o)
                              /home/leon/git/swp-report/iMX6_Platform_SDK/output/mx6dq/lib/libsdk.a(vectors.o) (data_abort_handler)
/home/leon/git/swp-report/iMX6_Platform_SDK/output/mx6dq/lib/libsdk.a(interrupt.o)
                              /home/leon/git/swp-report/iMX6_Platform_SDK/output/mx6dq/lib/libsdk.a(vectors.o) (IRQ_HDLR)
/home/leon/git/swp-report/iMX6_Platform_SDK/output/mx6dq/lib/libsdk.a(epit.o)
                              /home/leon/git/swp-report/iMX6_Platform_SDK/output/mx6dq/lib/libsdk.a(timer.o) (epit_get_compare_event)
/home/leon/git/swp-report/iMX6_Platform_SDK/output/mx6dq/lib/libsdk.a(abort_handler.o)
                              /home/leon/git/swp-report/iMX6_Platform_SDK/output/mx6dq/lib/libsdk.a(arm_abort.o) (dump_regs)
/home/leon/git/swp-report/iMX6_Platform_SDK/output/mx6dq/lib/libboard_evb_rev_a.a(board_io_expanders.o)
                              /home/leon/git/swp-report/iMX6_Platform_SDK/output/mx6dq/smp_primes/evb_rev_a/obj/apps/common/platform_init.o (board_ioexpander_init)
/home/leon/git/swp-report/iMX6_Platform_SDK/output/mx6dq/lib/libboard_evb_rev_a.a(hardware_modules.o)
                              /home/leon/git/swp-report/iMX6_Platform_SDK/output/mx6dq/smp_primes/evb_rev_a/obj/apps/common/platform_init.o (g_debug_uart_port)
/home/leon/git/swp-report/iMX6_Platform_SDK/output/mx6dq/lib/libboard_evb_rev_a.a(dcd.o)
                              /home/leon/git/swp-report/iMX6_Platform_SDK/output/mx6dq/smp_primes/evb_rev_a/obj/apps/common/ivt.o (input_dcd_hdr)
/home/leon/git/swp-report/iMX6_Platform_SDK/output/mx6dq/lib/libboard_evb_rev_a.a(uart_iomux_config.o)
                              /home/leon/git/swp-report/iMX6_Platform_SDK/output/mx6dq/lib/libsdk.a(imx_uart.o) (uart_iomux_config)
/home/leon/git/swp-report/iMX6_Platform_SDK/output/mx6dq/lib/libboard_evb_rev_a.a(iomux_config.o)
                              /home/leon/git/swp-report/iMX6_Platform_SDK/output/mx6dq/lib/libboard_evb_rev_a.a(uart_iomux_config.o) (uart1_iomux_config)
/home/leon/git/swp-report/iMX6_Platform_SDK/output/mx6dq/lib/libboard_evb_rev_a.a(ipu1_iomux_config.o)
                              /home/leon/git/swp-report/iMX6_Platform_SDK/output/mx6dq/lib/libboard_evb_rev_a.a(iomux_config.o) (ipu1_iomux_config)
/home/leon/git/swp-report/iMX6_Platform_SDK/output/mx6dq/lib/libboard_evb_rev_a.a(kpp_iomux_config.o)
                              /home/leon/git/swp-report/iMX6_Platform_SDK/output/mx6dq/lib/libboard_evb_rev_a.a(iomux_config.o) (kpp_iomux_config)
/home/leon/git/swp-report/iMX6_Platform_SDK/output/mx6dq/lib/libboard_evb_rev_a.a(mlb_iomux_config.o)
                              /home/leon/git/swp-report/iMX6_Platform_SDK/output/mx6dq/lib/libboard_evb_rev_a.a(iomux_config.o) (mlb_iomux_config)
/home/leon/git/swp-report/iMX6_Platform_SDK/output/mx6dq/lib/libboard_evb_rev_a.a(mmdc_iomux_config.o)
                              /home/leon/git/swp-report/iMX6_Platform_SDK/output/mx6dq/lib/libboard_evb_rev_a.a(iomux_config.o) (mmdc_iomux_config)
/home/leon/git/swp-report/iMX6_Platform_SDK/output/mx6dq/lib/libboard_evb_rev_a.a(pwm1_iomux_config.o)
                              /home/leon/git/swp-report/iMX6_Platform_SDK/output/mx6dq/lib/libboard_evb_rev_a.a(iomux_config.o) (pwm1_iomux_config)
/home/leon/git/swp-report/iMX6_Platform_SDK/output/mx6dq/lib/libboard_evb_rev_a.a(sjc_iomux_config.o)
                              /home/leon/git/swp-report/iMX6_Platform_SDK/output/mx6dq/lib/libboard_evb_rev_a.a(iomux_config.o) (sjc_iomux_config)
/home/leon/git/swp-report/iMX6_Platform_SDK/output/mx6dq/lib/libboard_evb_rev_a.a(spdif_iomux_config.o)
                              /home/leon/git/swp-report/iMX6_Platform_SDK/output/mx6dq/lib/libboard_evb_rev_a.a(iomux_config.o) (spdif_iomux_config)
/home/leon/git/swp-report/iMX6_Platform_SDK/output/mx6dq/lib/libboard_evb_rev_a.a(uart2_iomux_config.o)
                              /home/leon/git/swp-report/iMX6_Platform_SDK/output/mx6dq/lib/libboard_evb_rev_a.a(uart_iomux_config.o) (uart2_iomux_config)
/home/leon/git/swp-report/iMX6_Platform_SDK/output/mx6dq/lib/libboard_evb_rev_a.a(uart4_iomux_config.o)
                              /home/leon/git/swp-report/iMX6_Platform_SDK/output/mx6dq/lib/libboard_evb_rev_a.a(uart_iomux_config.o) (uart4_iomux_config)
/home/leon/git/swp-report/iMX6_Platform_SDK/output/mx6dq/lib/libboard_evb_rev_a.a(usb_iomux_config.o)
                              /home/leon/git/swp-report/iMX6_Platform_SDK/output/mx6dq/lib/libboard_evb_rev_a.a(iomux_config.o) (usb_iomux_config)
/home/leon/git/swp-report/iMX6_Platform_SDK/output/mx6dq/lib/libboard_evb_rev_a.a(usdhc1_iomux_config.o)
                              /home/leon/git/swp-report/iMX6_Platform_SDK/output/mx6dq/lib/libboard_evb_rev_a.a(iomux_config.o) (usdhc1_iomux_config)
/home/leon/git/swp-report/iMX6_Platform_SDK/output/mx6dq/lib/libboard_evb_rev_a.a(usdhc2_iomux_config.o)
                              /home/leon/git/swp-report/iMX6_Platform_SDK/output/mx6dq/lib/libboard_evb_rev_a.a(iomux_config.o) (usdhc2_iomux_config)
/home/leon/git/swp-report/iMX6_Platform_SDK/output/mx6dq/lib/libboard_evb_rev_a.a(usdhc3_iomux_config.o)
                              /home/leon/git/swp-report/iMX6_Platform_SDK/output/mx6dq/lib/libboard_evb_rev_a.a(iomux_config.o) (usdhc3_iomux_config)
/home/leon/git/swp-report/iMX6_Platform_SDK/output/mx6dq/lib/libboard_evb_rev_a.a(usdhc4_iomux_config.o)
                              /home/leon/git/swp-report/iMX6_Platform_SDK/output/mx6dq/lib/libboard_evb_rev_a.a(iomux_config.o) (usdhc4_iomux_config)
/home/leon/git/swp-report/iMX6_Platform_SDK/output/mx6dq/lib/libboard_evb_rev_a.a(ccm_iomux_config.o)
                              /home/leon/git/swp-report/iMX6_Platform_SDK/output/mx6dq/lib/libboard_evb_rev_a.a(iomux_config.o) (ccm_iomux_config)
/home/leon/git/swp-report/iMX6_Platform_SDK/output/mx6dq/lib/libboard_evb_rev_a.a(ecspi1_iomux_config.o)
                              /home/leon/git/swp-report/iMX6_Platform_SDK/output/mx6dq/lib/libboard_evb_rev_a.a(iomux_config.o) (ecspi1_iomux_config)
/home/leon/git/swp-report/iMX6_Platform_SDK/output/mx6dq/lib/libboard_evb_rev_a.a(enet_iomux_config.o)
                              /home/leon/git/swp-report/iMX6_Platform_SDK/output/mx6dq/lib/libboard_evb_rev_a.a(iomux_config.o) (enet_iomux_config)
/home/leon/git/swp-report/iMX6_Platform_SDK/output/mx6dq/lib/libboard_evb_rev_a.a(esai_iomux_config.o)
                              /home/leon/git/swp-report/iMX6_Platform_SDK/output/mx6dq/lib/libboard_evb_rev_a.a(iomux_config.o) (esai_iomux_config)
/home/leon/git/swp-report/iMX6_Platform_SDK/output/mx6dq/lib/libboard_evb_rev_a.a(flexcan1_iomux_config.o)
                              /home/leon/git/swp-report/iMX6_Platform_SDK/output/mx6dq/lib/libboard_evb_rev_a.a(iomux_config.o) (flexcan1_iomux_config)
/home/leon/git/swp-report/iMX6_Platform_SDK/output/mx6dq/lib/libboard_evb_rev_a.a(flexcan2_iomux_config.o)
                              /home/leon/git/swp-report/iMX6_Platform_SDK/output/mx6dq/lib/libboard_evb_rev_a.a(iomux_config.o) (flexcan2_iomux_config)
/home/leon/git/swp-report/iMX6_Platform_SDK/output/mx6dq/lib/libboard_evb_rev_a.a(gpio3_iomux_config.o)
                              /home/leon/git/swp-report/iMX6_Platform_SDK/output/mx6dq/lib/libboard_evb_rev_a.a(iomux_config.o) (gpio3_iomux_config)
/home/leon/git/swp-report/iMX6_Platform_SDK/output/mx6dq/lib/libboard_evb_rev_a.a(gpio4_iomux_config.o)
                              /home/leon/git/swp-report/iMX6_Platform_SDK/output/mx6dq/lib/libboard_evb_rev_a.a(iomux_config.o) (gpio4_iomux_config)
/home/leon/git/swp-report/iMX6_Platform_SDK/output/mx6dq/lib/libboard_evb_rev_a.a(gpio5_iomux_config.o)
                              /home/leon/git/swp-report/iMX6_Platform_SDK/output/mx6dq/lib/libboard_evb_rev_a.a(iomux_config.o) (gpio5_iomux_config)
/home/leon/git/swp-report/iMX6_Platform_SDK/output/mx6dq/lib/libboard_evb_rev_a.a(gpio6_iomux_config.o)
                              /home/leon/git/swp-report/iMX6_Platform_SDK/output/mx6dq/lib/libboard_evb_rev_a.a(iomux_config.o) (gpio6_iomux_config)
/home/leon/git/swp-report/iMX6_Platform_SDK/output/mx6dq/lib/libboard_evb_rev_a.a(gpmi_iomux_config.o)
                              /home/leon/git/swp-report/iMX6_Platform_SDK/output/mx6dq/lib/libboard_evb_rev_a.a(iomux_config.o) (gpmi_iomux_config)
/home/leon/git/swp-report/iMX6_Platform_SDK/output/mx6dq/lib/libboard_evb_rev_a.a(hdmi_iomux_config.o)
                              /home/leon/git/swp-report/iMX6_Platform_SDK/output/mx6dq/lib/libboard_evb_rev_a.a(iomux_config.o) (hdmi_iomux_config)
/home/leon/git/swp-report/iMX6_Platform_SDK/output/mx6dq/lib/libboard_evb_rev_a.a(i2c1_iomux_config.o)
                              /home/leon/git/swp-report/iMX6_Platform_SDK/output/mx6dq/lib/libboard_evb_rev_a.a(iomux_config.o) (i2c1_iomux_config)
/home/leon/git/swp-report/iMX6_Platform_SDK/output/mx6dq/lib/libboard_evb_rev_a.a(i2c2_iomux_config.o)
                              /home/leon/git/swp-report/iMX6_Platform_SDK/output/mx6dq/lib/libboard_evb_rev_a.a(iomux_config.o) (i2c2_iomux_config)
/home/leon/git/swp-report/iMX6_Platform_SDK/output/mx6dq/lib/libboard_evb_rev_a.a(i2c3_iomux_config.o)
                              /home/leon/git/swp-report/iMX6_Platform_SDK/output/mx6dq/lib/libboard_evb_rev_a.a(iomux_config.o) (i2c3_iomux_config)
/home/leon/riotboard/arm-2012.09/bin/../arm-none-eabi/lib//libc.a(lib_a-assert.o)
                              /home/leon/git/swp-report/iMX6_Platform_SDK/output/mx6dq/lib/libsdk.a(gic.o) (__assert_func)
/home/leon/riotboard/arm-2012.09/bin/../arm-none-eabi/lib//libc.a(lib_a-bzero.o)
                              /home/leon/git/swp-report/iMX6_Platform_SDK/output/mx6dq/lib/libsdk.a(mmu.o) (bzero)
/home/leon/riotboard/arm-2012.09/bin/../arm-none-eabi/lib//libc.a(lib_a-fiprintf.o)
                              /home/leon/riotboard/arm-2012.09/bin/../arm-none-eabi/lib//libc.a(lib_a-assert.o) (fiprintf)
/home/leon/riotboard/arm-2012.09/bin/../arm-none-eabi/lib//libc.a(lib_a-fputc.o)
                              /home/leon/git/swp-report/iMX6_Platform_SDK/output/mx6dq/lib/libsdk.a(system_util.o) (fputc)
/home/leon/riotboard/arm-2012.09/bin/../arm-none-eabi/lib//libc.a(lib_a-impure.o)
                              /home/leon/git/swp-report/iMX6_Platform_SDK/output/mx6dq/lib/libsdk.a(system_util.o) (_impure_ptr)
/home/leon/riotboard/arm-2012.09/bin/../arm-none-eabi/lib//libc.a(lib_a-init.o)
                              /home/leon/git/swp-report/iMX6_Platform_SDK/output/mx6dq/lib/libsdk.a(startup.o) (__libc_init_array)
/home/leon/riotboard/arm-2012.09/bin/../arm-none-eabi/lib//libc.a(lib_a-malloc.o)
                              /home/leon/git/swp-report/iMX6_Platform_SDK/output/mx6dq/lib/libsdk.a(system_util.o) (malloc)
/home/leon/riotboard/arm-2012.09/bin/../arm-none-eabi/lib//libc.a(lib_a-mallocr.o)
                              /home/leon/riotboard/arm-2012.09/bin/../arm-none-eabi/lib//libc.a(lib_a-malloc.o) (_malloc_r)
/home/leon/riotboard/arm-2012.09/bin/../arm-none-eabi/lib//libc.a(lib_a-mlock.o)
                              /home/leon/riotboard/arm-2012.09/bin/../arm-none-eabi/lib//libc.a(lib_a-mallocr.o) (__malloc_lock)
/home/leon/riotboard/arm-2012.09/bin/../arm-none-eabi/lib//libc.a(lib_a-printf.o)
                              /home/leon/git/swp-report/iMX6_Platform_SDK/output/mx6dq/smp_primes/evb_rev_a/obj/apps/smp_primes/src/main.o (printf)
/home/leon/riotboard/arm-2012.09/bin/../arm-none-eabi/lib//libc.a(lib_a-putc.o)
                              /home/leon/riotboard/arm-2012.09/bin/../arm-none-eabi/lib//libc.a(lib_a-fputc.o) (_putc_r)
/home/leon/riotboard/arm-2012.09/bin/../arm-none-eabi/lib//libc.a(lib_a-realloc.o)
                              /home/leon/git/swp-report/iMX6_Platform_SDK/output/mx6dq/lib/libsdk.a(system_util.o) (realloc)
/home/leon/riotboard/arm-2012.09/bin/../arm-none-eabi/lib//libc.a(lib_a-reallocr.o)
                              /home/leon/riotboard/arm-2012.09/bin/../arm-none-eabi/lib//libc.a(lib_a-realloc.o) (_realloc_r)
/home/leon/riotboard/arm-2012.09/bin/../arm-none-eabi/lib//libc.a(lib_a-rget.o)
                              /home/leon/git/swp-report/iMX6_Platform_SDK/output/mx6dq/lib/libsdk.a(system_util.o) (__srget_r)
/home/leon/riotboard/arm-2012.09/bin/../arm-none-eabi/lib//libc.a(lib_a-sbrkr.o)
                              /home/leon/riotboard/arm-2012.09/bin/../arm-none-eabi/lib//libc.a(lib_a-mallocr.o) (_sbrk_r)
/home/leon/riotboard/arm-2012.09/bin/../arm-none-eabi/lib//libc.a(lib_a-vfiprintf.o)
                              /home/leon/riotboard/arm-2012.09/bin/../arm-none-eabi/lib//libc.a(lib_a-fiprintf.o) (_vfiprintf_r)
/home/leon/riotboard/arm-2012.09/bin/../arm-none-eabi/lib//libc.a(lib_a-vfprintf.o)
                              /home/leon/riotboard/arm-2012.09/bin/../arm-none-eabi/lib//libc.a(lib_a-printf.o) (_vfprintf_r)
/home/leon/riotboard/arm-2012.09/bin/../arm-none-eabi/lib//libc.a(lib_a-vprintf.o)
                              /home/leon/git/swp-report/iMX6_Platform_SDK/output/mx6dq/lib/libsdk.a(text_color.o) (vprintf)
/home/leon/riotboard/arm-2012.09/bin/../arm-none-eabi/lib//libc.a(lib_a-wbuf.o)
                              /home/leon/riotboard/arm-2012.09/bin/../arm-none-eabi/lib//libc.a(lib_a-putc.o) (__swbuf_r)
/home/leon/riotboard/arm-2012.09/bin/../arm-none-eabi/lib//libc.a(lib_a-wsetup.o)
                              /home/leon/riotboard/arm-2012.09/bin/../arm-none-eabi/lib//libc.a(lib_a-vfiprintf.o) (__swsetup_r)
/home/leon/riotboard/arm-2012.09/bin/../arm-none-eabi/lib//libc.a(lib_a-abort.o)
                              /home/leon/riotboard/arm-2012.09/bin/../arm-none-eabi/lib//libc.a(lib_a-assert.o) (abort)
/home/leon/riotboard/arm-2012.09/bin/../arm-none-eabi/lib//libc.a(lib_a-dtoa.o)
                              /home/leon/riotboard/arm-2012.09/bin/../arm-none-eabi/lib//libc.a(lib_a-vfprintf.o) (_dtoa_r)
/home/leon/riotboard/arm-2012.09/bin/../arm-none-eabi/lib//libc.a(lib_a-fflush.o)
                              /home/leon/riotboard/arm-2012.09/bin/../arm-none-eabi/lib//libc.a(lib_a-vfiprintf.o) (_fflush_r)
/home/leon/riotboard/arm-2012.09/bin/../arm-none-eabi/lib//libc.a(lib_a-findfp.o)
                              /home/leon/riotboard/arm-2012.09/bin/../arm-none-eabi/lib//libc.a(lib_a-fputc.o) (__sinit)
/home/leon/riotboard/arm-2012.09/bin/../arm-none-eabi/lib//libc.a(lib_a-fputwc.o)
                              /home/leon/riotboard/arm-2012.09/bin/../arm-none-eabi/lib//libc.a(lib_a-vfiprintf.o) (_fputwc_r)
/home/leon/riotboard/arm-2012.09/bin/../arm-none-eabi/lib//libc.a(lib_a-freer.o)
                              /home/leon/riotboard/arm-2012.09/bin/../arm-none-eabi/lib//libc.a(lib_a-malloc.o) (_free_r)
/home/leon/riotboard/arm-2012.09/bin/../arm-none-eabi/lib//libc.a(lib_a-fvwrite.o)
                              /home/leon/riotboard/arm-2012.09/bin/../arm-none-eabi/lib//libc.a(lib_a-vfiprintf.o) (__sfvwrite_r)
/home/leon/riotboard/arm-2012.09/bin/../arm-none-eabi/lib//libc.a(lib_a-fwalk.o)
                              /home/leon/riotboard/arm-2012.09/bin/../arm-none-eabi/lib//libc.a(lib_a-findfp.o) (_fwalk)
/home/leon/riotboard/arm-2012.09/bin/../arm-none-eabi/lib//libc.a(lib_a-locale.o)
                              /home/leon/riotboard/arm-2012.09/bin/../arm-none-eabi/lib//libc.a(lib_a-fputwc.o) (__locale_mb_cur_max)
/home/leon/riotboard/arm-2012.09/bin/../arm-none-eabi/lib//libc.a(lib_a-makebuf.o)
                              /home/leon/riotboard/arm-2012.09/bin/../arm-none-eabi/lib//libc.a(lib_a-wsetup.o) (__smakebuf_r)
/home/leon/riotboard/arm-2012.09/bin/../arm-none-eabi/lib//libc.a(lib_a-memchr.o)
                              /home/leon/riotboard/arm-2012.09/bin/../arm-none-eabi/lib//libc.a(lib_a-vfiprintf.o) (memchr)
/home/leon/riotboard/arm-2012.09/bin/../arm-none-eabi/lib//libc.a(lib_a-memcpy.o)
                              /home/leon/riotboard/arm-2012.09/bin/../arm-none-eabi/lib//libc.a(lib_a-dtoa.o) (memcpy)
/home/leon/riotboard/arm-2012.09/bin/../arm-none-eabi/lib//libc.a(lib_a-memmove.o)
                              /home/leon/riotboard/arm-2012.09/bin/../arm-none-eabi/lib//libc.a(lib_a-reallocr.o) (memmove)
/home/leon/riotboard/arm-2012.09/bin/../arm-none-eabi/lib//libc.a(lib_a-memset.o)
                              /home/leon/riotboard/arm-2012.09/bin/../arm-none-eabi/lib//libc.a(lib_a-findfp.o) (memset)
/home/leon/riotboard/arm-2012.09/bin/../arm-none-eabi/lib//libc.a(lib_a-mprec.o)
                              /home/leon/riotboard/arm-2012.09/bin/../arm-none-eabi/lib//libc.a(lib_a-dtoa.o) (_Balloc)
/home/leon/riotboard/arm-2012.09/bin/../arm-none-eabi/lib//libc.a(lib_a-reent.o)
                              /home/leon/riotboard/arm-2012.09/bin/../arm-none-eabi/lib//libc.a(lib_a-sbrkr.o) (errno)
/home/leon/riotboard/arm-2012.09/bin/../arm-none-eabi/lib//libc.a(lib_a-refill.o)
                              /home/leon/riotboard/arm-2012.09/bin/../arm-none-eabi/lib//libc.a(lib_a-rget.o) (__srefill_r)
/home/leon/riotboard/arm-2012.09/bin/../arm-none-eabi/lib//libc.a(lib_a-s_fpclassify.o)
                              /home/leon/riotboard/arm-2012.09/bin/../arm-none-eabi/lib//libc.a(lib_a-vfprintf.o) (__fpclassifyd)
/home/leon/riotboard/arm-2012.09/bin/../arm-none-eabi/lib//libc.a(lib_a-signal.o)
                              /home/leon/riotboard/arm-2012.09/bin/../arm-none-eabi/lib//libc.a(lib_a-abort.o) (raise)
/home/leon/riotboard/arm-2012.09/bin/../arm-none-eabi/lib//libc.a(lib_a-signalr.o)
                              /home/leon/riotboard/arm-2012.09/bin/../arm-none-eabi/lib//libc.a(lib_a-signal.o) (_kill_r)
/home/leon/riotboard/arm-2012.09/bin/../arm-none-eabi/lib//libc.a(lib_a-stdio.o)
                              /home/leon/riotboard/arm-2012.09/bin/../arm-none-eabi/lib//libc.a(lib_a-findfp.o) (__sread)
/home/leon/riotboard/arm-2012.09/bin/../arm-none-eabi/lib//libc.a(lib_a-strcmp.o)
                              /home/leon/riotboard/arm-2012.09/bin/../arm-none-eabi/lib//libc.a(lib_a-locale.o) (strcmp)
/home/leon/riotboard/arm-2012.09/bin/../arm-none-eabi/lib//libc.a(lib_a-strlen.o)
                              /home/leon/riotboard/arm-2012.09/bin/../arm-none-eabi/lib//libc.a(lib_a-vfiprintf.o) (strlen)
/home/leon/riotboard/arm-2012.09/bin/../arm-none-eabi/lib//libc.a(lib_a-wcrtomb.o)
                              /home/leon/riotboard/arm-2012.09/bin/../arm-none-eabi/lib//libc.a(lib_a-fputwc.o) (_wcrtomb_r)
/home/leon/riotboard/arm-2012.09/bin/../arm-none-eabi/lib//libc.a(lib_a-wctomb_r.o)
                              /home/leon/riotboard/arm-2012.09/bin/../arm-none-eabi/lib//libc.a(lib_a-wcrtomb.o) (__wctomb)
/home/leon/riotboard/arm-2012.09/bin/../arm-none-eabi/lib//libc.a(lib_a-writer.o)
                              /home/leon/riotboard/arm-2012.09/bin/../arm-none-eabi/lib//libc.a(lib_a-stdio.o) (_write_r)
/home/leon/riotboard/arm-2012.09/bin/../arm-none-eabi/lib//libc.a(lib_a-callocr.o)
                              /home/leon/riotboard/arm-2012.09/bin/../arm-none-eabi/lib//libc.a(lib_a-mprec.o) (_calloc_r)
/home/leon/riotboard/arm-2012.09/bin/../arm-none-eabi/lib//libc.a(lib_a-closer.o)
                              /home/leon/riotboard/arm-2012.09/bin/../arm-none-eabi/lib//libc.a(lib_a-stdio.o) (_close_r)
/home/leon/riotboard/arm-2012.09/bin/../arm-none-eabi/lib//libc.a(lib_a-fclose.o)
                              /home/leon/riotboard/arm-2012.09/bin/../arm-none-eabi/lib//libc.a(lib_a-findfp.o) (fclose)
/home/leon/riotboard/arm-2012.09/bin/../arm-none-eabi/lib//libc.a(lib_a-fstatr.o)
                              /home/leon/riotboard/arm-2012.09/bin/../arm-none-eabi/lib//libc.a(lib_a-makebuf.o) (_fstat_r)
/home/leon/riotboard/arm-2012.09/bin/../arm-none-eabi/lib//libc.a(lib_a-isattyr.o)
                              /home/leon/riotboard/arm-2012.09/bin/../arm-none-eabi/lib//libc.a(lib_a-makebuf.o) (_isatty_r)
/home/leon/riotboard/arm-2012.09/bin/../arm-none-eabi/lib//libc.a(lib_a-lseekr.o)
                              /home/leon/riotboard/arm-2012.09/bin/../arm-none-eabi/lib//libc.a(lib_a-stdio.o) (_lseek_r)
/home/leon/riotboard/arm-2012.09/bin/../arm-none-eabi/lib//libc.a(lib_a-readr.o)
                              /home/leon/riotboard/arm-2012.09/bin/../arm-none-eabi/lib//libc.a(lib_a-stdio.o) (_read_r)
/home/leon/riotboard/arm-2012.09/bin/../lib/gcc/arm-none-eabi/4.7.2//libgcc.a(_udivsi3.o)
                              /home/leon/git/swp-report/iMX6_Platform_SDK/output/mx6dq/lib/libsdk.a(ccm_pll.o) (__aeabi_uidiv)
/home/leon/riotboard/arm-2012.09/bin/../lib/gcc/arm-none-eabi/4.7.2//libgcc.a(_divsi3.o)
                              /home/leon/git/swp-report/iMX6_Platform_SDK/output/mx6dq/smp_primes/evb_rev_a/obj/apps/smp_primes/src/primes.o (__aeabi_idivmod)
/home/leon/riotboard/arm-2012.09/bin/../lib/gcc/arm-none-eabi/4.7.2//libgcc.a(_dvmd_tls.o)
                              /home/leon/riotboard/arm-2012.09/bin/../lib/gcc/arm-none-eabi/4.7.2//libgcc.a(_udivsi3.o) (__aeabi_idiv0)
/home/leon/riotboard/arm-2012.09/bin/../lib/gcc/arm-none-eabi/4.7.2//libgcc.a(_arm_addsubdf3.o)
                              /home/leon/riotboard/arm-2012.09/bin/../arm-none-eabi/lib//libc.a(lib_a-dtoa.o) (__aeabi_dsub)
/home/leon/riotboard/arm-2012.09/bin/../lib/gcc/arm-none-eabi/4.7.2//libgcc.a(_arm_muldivdf3.o)
                              /home/leon/riotboard/arm-2012.09/bin/../arm-none-eabi/lib//libc.a(lib_a-dtoa.o) (__aeabi_dmul)
/home/leon/riotboard/arm-2012.09/bin/../lib/gcc/arm-none-eabi/4.7.2//libgcc.a(_arm_cmpdf2.o)
                              /home/leon/riotboard/arm-2012.09/bin/../arm-none-eabi/lib//libc.a(lib_a-vfprintf.o) (__aeabi_dcmpeq)
/home/leon/riotboard/arm-2012.09/bin/../lib/gcc/arm-none-eabi/4.7.2//libgcc.a(_arm_fixdfsi.o)
                              /home/leon/riotboard/arm-2012.09/bin/../arm-none-eabi/lib//libc.a(lib_a-dtoa.o) (__aeabi_d2iz)
/home/leon/riotboard/arm-2012.09/bin/../lib/gcc/arm-none-eabi/4.7.2//libgcc.a(_aeabi_uldivmod.o)
                              /home/leon/git/swp-report/iMX6_Platform_SDK/output/mx6dq/lib/libsdk.a(timer.o) (__aeabi_uldivmod)
/home/leon/riotboard/arm-2012.09/bin/../lib/gcc/arm-none-eabi/4.7.2//libgcc.a(bpabi.o)
                              /home/leon/riotboard/arm-2012.09/bin/../lib/gcc/arm-none-eabi/4.7.2//libgcc.a(_aeabi_uldivmod.o) (__gnu_uldivmod_helper)
/home/leon/riotboard/arm-2012.09/bin/../lib/gcc/arm-none-eabi/4.7.2//libgcc.a(_divdi3.o)
                              /home/leon/riotboard/arm-2012.09/bin/../lib/gcc/arm-none-eabi/4.7.2//libgcc.a(bpabi.o) (__divdi3)
/home/leon/riotboard/arm-2012.09/bin/../lib/gcc/arm-none-eabi/4.7.2//libgcc.a(_udivdi3.o)
                              /home/leon/riotboard/arm-2012.09/bin/../lib/gcc/arm-none-eabi/4.7.2//libgcc.a(bpabi.o) (__udivdi3)
/home/leon/riotboard/arm-2012.09/bin/../lib/gcc/arm-none-eabi/4.7.2//libgcc.a(_clzsi2.o)
                              /home/leon/riotboard/arm-2012.09/bin/../lib/gcc/arm-none-eabi/4.7.2//libgcc.a(_divdi3.o) (__clzsi2)
/home/leon/git/swp-report/iMX6_Platform_SDK/output/mx6dq/lib/libsdk.a(max7310.o)
                              /home/leon/git/swp-report/iMX6_Platform_SDK/output/mx6dq/lib/libboard_evb_rev_a.a(board_io_expanders.o) (max7310_init)
/home/leon/git/swp-report/iMX6_Platform_SDK/output/mx6dq/lib/libsdk.a(runtime_support.o)
                              /home/leon/riotboard/arm-2012.09/bin/../arm-none-eabi/lib//libc.a(lib_a-isattyr.o) (_isatty)
/home/leon/git/swp-report/iMX6_Platform_SDK/output/mx6dq/lib/libsdk.a(imx_i2c.o)
                              /home/leon/git/swp-report/iMX6_Platform_SDK/output/mx6dq/lib/libsdk.a(max7310.o) (i2c_read)
/home/leon/git/swp-report/iMX6_Platform_SDK/output/mx6dq/lib/libboard_evb_rev_a.a(i2c_iomux_config.o)
                              /home/leon/git/swp-report/iMX6_Platform_SDK/output/mx6dq/lib/libsdk.a(imx_i2c.o) (i2c_iomux_config)

Allocating common symbols
Common symbol       size              file

errno               0x4               /home/leon/riotboard/arm-2012.09/bin/../arm-none-eabi/lib//libc.a(lib_a-reent.o)

Memory Configuration

Name             Origin             Length             Attributes
OCRAM            0x00900000         0x00040000         xrw
DDR              0x10000000         0x40000000         xrw
*default*        0x00000000         0xffffffff

Linker script and memory map

LOAD /home/leon/riotboard/arm-2012.09/bin/../lib/gcc/arm-none-eabi/4.7.2//crtbegin.o
LOAD /home/leon/riotboard/arm-2012.09/bin/../lib/gcc/arm-none-eabi/4.7.2//crti.o
LOAD /home/leon/riotboard/arm-2012.09/bin/../lib/gcc/arm-none-eabi/4.7.2//crtend.o
LOAD /home/leon/riotboard/arm-2012.09/bin/../lib/gcc/arm-none-eabi/4.7.2//crtn.o

.l1_page_table  0x00900000     0x4000
                0x00900000                __l1_page_table_start = .
                0x00904000                . = (. + 0x4000)
 *fill*         0x00900000     0x4000 

.heap.ocram     0x00904000    0x3bfb8
                0x00904000                __heap_ocram_start = .
                0x0093ffb8                . = (. + 0x3bfb8)
 *fill*         0x00904000    0x3bfb8 
                0x0093ffb8                __heap_ocram_end = .

.ram_vectors    0x0093ffb8       0x48
                0x0093ffb8                __ram_vectors_start = .
                0x00940000                . = (. + 0x48)
 *fill*         0x0093ffb8       0x48 
                0x00940000                __ram_vectors_end = .
                0x10000000                _start_image_add = ORIGIN (DDR)

.ivt            0x10000000      0x420
                0x10000400                . = (. + 0x400)
 *fill*         0x10000000      0x400 
 *(.ivt)
 .ivt           0x10000400       0x20 /home/leon/git/swp-report/iMX6_Platform_SDK/output/mx6dq/smp_primes/evb_rev_a/obj/apps/common/ivt.o
                0x10000400                input_ivt

.boot_data      0x10000420        0xc
                0x10000420                __start_boot_data = .
 *(.boot_data)
 .boot_data     0x10000420        0xc /home/leon/git/swp-report/iMX6_Platform_SDK/output/mx6dq/smp_primes/evb_rev_a/obj/apps/common/ivt.o
                0x10000420                bd

.dcd_hdr        0x10000430        0x4
                0x10000430                __start_dcd = .
 *(.dcd_hdr)
 .dcd_hdr       0x10000430        0x4 /home/leon/git/swp-report/iMX6_Platform_SDK/output/mx6dq/lib/libboard_evb_rev_a.a(dcd.o)
                0x10000430                input_dcd_hdr

.dcd_wrt_cmd    0x10000434        0x4
 *(.dcd_wrt_cmd)
 .dcd_wrt_cmd   0x10000434        0x4 /home/leon/git/swp-report/iMX6_Platform_SDK/output/mx6dq/lib/libboard_evb_rev_a.a(dcd.o)
                0x10000434                input_dcd_wrt_cmd

.dcd_data       0x10000438      0x2e8
 *(.dcd_data)
 .dcd_data      0x10000438      0x2e8 /home/leon/git/swp-report/iMX6_Platform_SDK/output/mx6dq/lib/libboard_evb_rev_a.a(dcd.o)
                0x10000438                input_dcd

.text           0x10000720    0x189bc
 CREATE_OBJECT_SYMBOLS
 *(.startup)
 .startup       0x10000720      0x138 /home/leon/git/swp-report/iMX6_Platform_SDK/output/mx6dq/lib/libsdk.a(startup.o)
                0x10000720                _start
 *(.text .text.* .gnu.linkonce.t.*)
 .text          0x10000858      0x128 /home/leon/riotboard/arm-2012.09/bin/../lib/gcc/arm-none-eabi/4.7.2//crtbegin.o
 .text          0x10000980        0x0 /home/leon/riotboard/arm-2012.09/bin/../lib/gcc/arm-none-eabi/4.7.2//crti.o
 .text          0x10000980        0x0 /home/leon/riotboard/arm-2012.09/bin/../lib/gcc/arm-none-eabi/4.7.2//crtend.o
 .text          0x10000980        0x0 /home/leon/riotboard/arm-2012.09/bin/../lib/gcc/arm-none-eabi/4.7.2//crtn.o
 .text          0x10000980        0x0 /home/leon/git/swp-report/iMX6_Platform_SDK/output/mx6dq/smp_primes/evb_rev_a/obj/apps/common/ivt.o
 .text          0x10000980       0xbc /home/leon/git/swp-report/iMX6_Platform_SDK/output/mx6dq/smp_primes/evb_rev_a/obj/apps/common/platform_init.o
                0x10000980                platform_init
 .text          0x10000a3c      0x380 /home/leon/git/swp-report/iMX6_Platform_SDK/output/mx6dq/smp_primes/evb_rev_a/obj/apps/smp_primes/src/main.o
                0x10000a3c                configure_cpu
                0x10000a90                smp_primes
                0x10000da0                main
 .text          0x10000dbc      0x55c /home/leon/git/swp-report/iMX6_Platform_SDK/output/mx6dq/smp_primes/evb_rev_a/obj/apps/smp_primes/src/primes.o
                0x10000ef0                initPrimes
                0x100011ec                calculatePrimes
 .text          0x10001318      0x644 /home/leon/git/swp-report/iMX6_Platform_SDK/output/mx6dq/lib/libsdk.a(armv7_cache.o)
                0x10001318                arm_dcache_state_query
                0x10001358                arm_dcache_enable
                0x100013a0                arm_dcache_disable
                0x100013d8                arm_dcache_invalidate
                0x1000147c                arm_dcache_invalidate_line
                0x100014e8                arm_dcache_invalidate_mlines
                0x10001588                arm_dcache_flush
                0x1000162c                arm_dcache_flush_line
                0x10001698                arm_dcache_flush_mlines
                0x10001738                arm_icache_state_query
                0x10001778                arm_icache_enable
                0x100017c0                arm_icache_disable
                0x100017f8                arm_icache_invalidate
                0x10001824                arm_icache_invalidate_is
                0x10001850                arm_icache_invalidate_line
                0x100018bc                arm_icache_invalidate_mlines
 .text          0x1000195c      0xcdc /home/leon/git/swp-report/iMX6_Platform_SDK/output/mx6dq/lib/libsdk.a(ccm_pll.o)
                0x1000195c                ccm_init
                0x10001a80                get_main_clock
                0x10001d10                get_peri_clock
                0x10001ec0                ccm_ccgr_config
                0x10001f28                clock_gating_config
                0x100023a8                ccm_set_lpm_wakeup_source
                0x1000249c                ccm_enter_low_power
                0x1000250c                ipu_hsp_clk_config
                0x1000252c                gpu_clock_config
 .text          0x10002638      0x164 /home/leon/git/swp-report/iMX6_Platform_SDK/output/mx6dq/lib/libsdk.a(cortexA9.o)
                0x10002638                arm_set_interrupt_state
                0x1000265c                cpu_get_current
                0x10002668                enable_neon_fpu
                0x10002684                disable_strict_align_check
                0x10002698                disable_L1_cache
                0x100026b8                get_arm_private_peripheral_base
                0x100026c0                arm_unified_tlb_invalidate
                0x100026d0                arm_unified_tlb_invalidate_is
                0x100026e0                arm_branch_prediction_enable
                0x100026f0                arm_branch_prediction_disable
                0x10002700                arm_branch_target_cache_invalidate
                0x1000270c                arm_branch_target_cache_invalidate_is
                0x10002718                scu_enable
                0x1000272c                scu_join_smp
                0x1000273c                scu_leave_smp
                0x1000274c                scu_get_cpus_in_smp
                0x10002760                scu_enable_maintenance_broadcast
                0x10002770                scu_disable_maintenance_broadcast
                0x10002780                scu_secure_invalidate
 .text          0x1000279c      0x5e0 /home/leon/git/swp-report/iMX6_Platform_SDK/output/mx6dq/lib/libsdk.a(gic.o)
                0x10002880                gic_enable
                0x100028e0                gic_set_irq_security
                0x10002988                gic_enable_irq
                0x10002a04                gic_set_irq_priority
                0x10002a4c                gic_set_cpu_target
                0x10002b58                gic_send_sgi
                0x10002bac                gic_cpu_enable
                0x10002c0c                gic_set_cpu_priority_mask
                0x10002c40                gic_read_irq_ack
                0x10002c6c                gic_write_end_of_irq
                0x10002c9c                gic_init
                0x10002d40                gic_init_cpu
 .text          0x10002d7c      0x460 /home/leon/git/swp-report/iMX6_Platform_SDK/output/mx6dq/lib/libsdk.a(mmu.o)
                0x10002d7c                mmu_enable
                0x10002db4                mmu_disable
                0x10002de8                mmu_init
                0x10002f04                mmu_map_l1_range
                0x1000311c                mmu_virtual_to_physical
 .text          0x100031dc        0x0 /home/leon/git/swp-report/iMX6_Platform_SDK/output/mx6dq/lib/libsdk.a(startup.o)
 .text          0x100031dc        0x4 /home/leon/git/swp-report/iMX6_Platform_SDK/output/mx6dq/lib/libsdk.a(vectors.o)
                0x100031dc                exception_handler
 .text.vectors  0x100031e0       0x48 /home/leon/git/swp-report/iMX6_Platform_SDK/output/mx6dq/lib/libsdk.a(vectors.o)
                0x100031e0                vectors
 .text          0x10003228       0x60 /home/leon/git/swp-report/iMX6_Platform_SDK/output/mx6dq/lib/libsdk.a(spinlock.o)
                0x10003228                spinlock_init
                0x10003250                spinlock_is_locked
 .text          0x10003288       0x60 /home/leon/git/swp-report/iMX6_Platform_SDK/output/mx6dq/lib/libsdk.a(spinlock_lock_unlock.o)
                0x10003288                spinlock_lock
                0x100032b4                spinlock_unlock
 .text          0x100032e8      0x914 /home/leon/git/swp-report/iMX6_Platform_SDK/output/mx6dq/lib/libsdk.a(system_util.o)
                0x100032e8                _sys_exit
                0x10003304                mybkpt
                0x1000330c                is_input_char
                0x1000348c                read_input_string
                0x10003774                get_input_hex
                0x100039f4                read_int
                0x10003b58                jump_to_sdp
 .text          0x10003bfc       0xe0 /home/leon/git/swp-report/iMX6_Platform_SDK/output/mx6dq/lib/libsdk.a(text_color.o)
                0x10003bfc                printf_color
                0x10003c98                get_color_supported
 .text          0x10003cdc       0x78 /home/leon/git/swp-report/iMX6_Platform_SDK/output/mx6dq/lib/libsdk.a(cpu_get_cores.o)
                0x10003cdc                cpu_get_cores
 .text          0x10003d54      0x2a8 /home/leon/git/swp-report/iMX6_Platform_SDK/output/mx6dq/lib/libsdk.a(cpu_multicore.o)
                0x10003db8                cpu_start_secondary
                0x10003f4c                cpu_disable
 .text          0x10003ffc      0x290 /home/leon/git/swp-report/iMX6_Platform_SDK/output/mx6dq/lib/libsdk.a(timer.o)
                0x10003ffc                hal_delay_us
                0x1000406c                system_time_init
                0x100041cc                time_get_microseconds
 .text          0x1000428c     0x2820 /home/leon/git/swp-report/iMX6_Platform_SDK/output/mx6dq/lib/libsdk.a(imx_uart.o)
                0x1000428c                uart_get_reffreq
                0x10004388                uart_putchar
                0x100044d8                uart_getchar
                0x10004638                uart_set_FIFO_mode
                0x10005164                uart_set_loopback_mode
                0x100053b8                uart_setup_interrupt
                0x10005484                uart_init
 .text          0x10006aac       0x98 /home/leon/git/swp-report/iMX6_Platform_SDK/output/mx6dq/lib/libsdk.a(arm_abort.o)
                0x10006aac                common_abort_handler
                0x10006b0c                data_abort_handler
                0x10006b24                prefetch_abort_handler
 .text          0x10006b44      0x1bc /home/leon/git/swp-report/iMX6_Platform_SDK/output/mx6dq/lib/libsdk.a(interrupt.o)
                0x10006b44                IRQ_HDLR
                0x10006c0c                disable_interrupt
                0x10006c48                enable_interrupt
                0x10006ca0                register_interrupt_routine
                0x10006cd4                default_interrupt_routine
 .text          0x10006d00      0x8e0 /home/leon/git/swp-report/iMX6_Platform_SDK/output/mx6dq/lib/libsdk.a(epit.o)
                0x10006d00                epit_reload_counter
                0x10006d60                epit_get_counter_value
                0x10006dbc                epit_set_compare_event
                0x10006e1c                epit_get_compare_event
                0x10006f14                epit_counter_disable
                0x100070d8                epit_counter_enable
                0x10007334                epit_setup_interrupt
                0x100073c4                epit_init
 .text          0x100075e0      0x4bc /home/leon/git/swp-report/iMX6_Platform_SDK/output/mx6dq/lib/libsdk.a(abort_handler.o)
                0x100075e0                dump_regs
 .text          0x10007a9c       0x80 /home/leon/git/swp-report/iMX6_Platform_SDK/output/mx6dq/lib/libboard_evb_rev_a.a(board_io_expanders.o)
                0x10007a9c                board_ioexpander_init
                0x10007b0c                board_ioexpander_iomux_config
 .text          0x10007b1c        0x0 /home/leon/git/swp-report/iMX6_Platform_SDK/output/mx6dq/lib/libboard_evb_rev_a.a(hardware_modules.o)
 .text          0x10007b1c        0x0 /home/leon/git/swp-report/iMX6_Platform_SDK/output/mx6dq/lib/libboard_evb_rev_a.a(dcd.o)
 .text          0x10007b1c       0x90 /home/leon/git/swp-report/iMX6_Platform_SDK/output/mx6dq/lib/libboard_evb_rev_a.a(uart_iomux_config.o)
                0x10007b1c                uart_iomux_config
 .text          0x10007bac      0x2c4 /home/leon/git/swp-report/iMX6_Platform_SDK/output/mx6dq/lib/libboard_evb_rev_a.a(iomux_config.o)
                0x10007bac                iomux_config
                0x10007c30                arm_iomux_config
                0x10007c40                asrc_iomux_config
                0x10007c50                audmux_iomux_config
                0x10007c60                dcic1_iomux_config
                0x10007c70                dcic2_iomux_config
                0x10007c80                ecspi2_iomux_config
                0x10007c90                ecspi3_iomux_config
                0x10007ca0                ecspi4_iomux_config
                0x10007cb0                ecspi5_iomux_config
                0x10007cc0                eim_iomux_config
                0x10007cd0                epit1_iomux_config
                0x10007ce0                epit2_iomux_config
                0x10007cf0                gpio1_iomux_config
                0x10007d00                gpio2_iomux_config
                0x10007d10                gpio7_iomux_config
                0x10007d20                gpt_iomux_config
                0x10007d30                ipu2_iomux_config
                0x10007d40                ldb_iomux_config
                0x10007d50                mipi_csi_iomux_config
                0x10007d60                mipi_dsi_iomux_config
                0x10007d70                mipi_hsi_iomux_config
                0x10007d80                pcie_iomux_config
                0x10007d90                pmu_iomux_config
                0x10007da0                pwm2_iomux_config
                0x10007db0                pwm3_iomux_config
                0x10007dc0                pwm4_iomux_config
                0x10007dd0                sata_phy_iomux_config
                0x10007de0                sdma_iomux_config
                0x10007df0                snvs_iomux_config
                0x10007e00                src_iomux_config
                0x10007e10                uart1_iomux_config
                0x10007e20                uart3_iomux_config
                0x10007e30                uart5_iomux_config
                0x10007e40                wdog1_iomux_config
                0x10007e50                wdog2_iomux_config
                0x10007e60                xtalosc_iomux_config
 .text          0x10007e70      0x5f8 /home/leon/git/swp-report/iMX6_Platform_SDK/output/mx6dq/lib/libboard_evb_rev_a.a(ipu1_iomux_config.o)
                0x10007e70                ipu1_iomux_config
 .text          0x10008468      0x148 /home/leon/git/swp-report/iMX6_Platform_SDK/output/mx6dq/lib/libboard_evb_rev_a.a(kpp_iomux_config.o)
                0x10008468                kpp_iomux_config
 .text          0x100085b0       0xac /home/leon/git/swp-report/iMX6_Platform_SDK/output/mx6dq/lib/libboard_evb_rev_a.a(mlb_iomux_config.o)
                0x100085b0                mlb_iomux_config
 .text          0x1000865c     0x2884 /home/leon/git/swp-report/iMX6_Platform_SDK/output/mx6dq/lib/libboard_evb_rev_a.a(mmdc_iomux_config.o)
                0x1000865c                mmdc_iomux_config
 .text          0x1000aee0       0x34 /home/leon/git/swp-report/iMX6_Platform_SDK/output/mx6dq/lib/libboard_evb_rev_a.a(pwm1_iomux_config.o)
                0x1000aee0                pwm1_iomux_config
 .text          0x1000af14       0x70 /home/leon/git/swp-report/iMX6_Platform_SDK/output/mx6dq/lib/libboard_evb_rev_a.a(sjc_iomux_config.o)
                0x1000af14                sjc_iomux_config
 .text          0x1000af84       0xe0 /home/leon/git/swp-report/iMX6_Platform_SDK/output/mx6dq/lib/libboard_evb_rev_a.a(spdif_iomux_config.o)
                0x1000af84                spdif_iomux_config
 .text          0x1000b064       0xe0 /home/leon/git/swp-report/iMX6_Platform_SDK/output/mx6dq/lib/libboard_evb_rev_a.a(uart2_iomux_config.o)
                0x1000b064                uart2_iomux_config
 .text          0x1000b144       0x78 /home/leon/git/swp-report/iMX6_Platform_SDK/output/mx6dq/lib/libboard_evb_rev_a.a(uart4_iomux_config.o)
                0x1000b144                uart4_iomux_config
 .text          0x1000b1bc       0x8c /home/leon/git/swp-report/iMX6_Platform_SDK/output/mx6dq/lib/libboard_evb_rev_a.a(usb_iomux_config.o)
                0x1000b1bc                usb_iomux_config
 .text          0x1000b248      0x178 /home/leon/git/swp-report/iMX6_Platform_SDK/output/mx6dq/lib/libboard_evb_rev_a.a(usdhc1_iomux_config.o)
                0x1000b248                usdhc1_iomux_config
 .text          0x1000b3c0      0x19c /home/leon/git/swp-report/iMX6_Platform_SDK/output/mx6dq/lib/libboard_evb_rev_a.a(usdhc2_iomux_config.o)
                0x1000b3c0                usdhc2_iomux_config
 .text          0x1000b55c      0x1c0 /home/leon/git/swp-report/iMX6_Platform_SDK/output/mx6dq/lib/libboard_evb_rev_a.a(usdhc3_iomux_config.o)
                0x1000b55c                usdhc3_iomux_config
 .text          0x1000b71c      0x178 /home/leon/git/swp-report/iMX6_Platform_SDK/output/mx6dq/lib/libboard_evb_rev_a.a(usdhc4_iomux_config.o)
                0x1000b71c                usdhc4_iomux_config
 .text          0x1000b894       0x34 /home/leon/git/swp-report/iMX6_Platform_SDK/output/mx6dq/lib/libboard_evb_rev_a.a(ccm_iomux_config.o)
                0x1000b894                ccm_iomux_config
 .text          0x1000b8c8      0x114 /home/leon/git/swp-report/iMX6_Platform_SDK/output/mx6dq/lib/libboard_evb_rev_a.a(ecspi1_iomux_config.o)
                0x1000b8c8                ecspi1_iomux_config
 .text          0x1000b9dc      0x3bc /home/leon/git/swp-report/iMX6_Platform_SDK/output/mx6dq/lib/libboard_evb_rev_a.a(enet_iomux_config.o)
                0x1000b9dc                enet_iomux_config
 .text          0x1000bd98      0x280 /home/leon/git/swp-report/iMX6_Platform_SDK/output/mx6dq/lib/libboard_evb_rev_a.a(esai_iomux_config.o)
                0x1000bd98                esai_iomux_config
 .text          0x1000c018       0x68 /home/leon/git/swp-report/iMX6_Platform_SDK/output/mx6dq/lib/libboard_evb_rev_a.a(flexcan1_iomux_config.o)
                0x1000c018                flexcan1_iomux_config
 .text          0x1000c080       0x68 /home/leon/git/swp-report/iMX6_Platform_SDK/output/mx6dq/lib/libboard_evb_rev_a.a(flexcan2_iomux_config.o)
                0x1000c080                flexcan2_iomux_config
 .text          0x1000c0e8       0x58 /home/leon/git/swp-report/iMX6_Platform_SDK/output/mx6dq/lib/libboard_evb_rev_a.a(gpio3_iomux_config.o)
                0x1000c0e8                gpio3_iomux_config
 .text          0x1000c140       0x58 /home/leon/git/swp-report/iMX6_Platform_SDK/output/mx6dq/lib/libboard_evb_rev_a.a(gpio4_iomux_config.o)
                0x1000c140                gpio4_iomux_config
 .text          0x1000c198       0xa0 /home/leon/git/swp-report/iMX6_Platform_SDK/output/mx6dq/lib/libboard_evb_rev_a.a(gpio5_iomux_config.o)
                0x1000c198                gpio5_iomux_config
 .text          0x1000c238       0x58 /home/leon/git/swp-report/iMX6_Platform_SDK/output/mx6dq/lib/libboard_evb_rev_a.a(gpio6_iomux_config.o)
                0x1000c238                gpio6_iomux_config
 .text          0x1000c290      0x2bc /home/leon/git/swp-report/iMX6_Platform_SDK/output/mx6dq/lib/libboard_evb_rev_a.a(gpmi_iomux_config.o)
                0x1000c290                gpmi_iomux_config
 .text          0x1000c54c       0x40 /home/leon/git/swp-report/iMX6_Platform_SDK/output/mx6dq/lib/libboard_evb_rev_a.a(hdmi_iomux_config.o)
                0x1000c54c                hdmi_iomux_config
 .text          0x1000c58c       0x78 /home/leon/git/swp-report/iMX6_Platform_SDK/output/mx6dq/lib/libboard_evb_rev_a.a(i2c1_iomux_config.o)
                0x1000c58c                i2c1_iomux_config
 .text          0x1000c604       0x78 /home/leon/git/swp-report/iMX6_Platform_SDK/output/mx6dq/lib/libboard_evb_rev_a.a(i2c2_iomux_config.o)
                0x1000c604                i2c2_iomux_config
 .text          0x1000c67c       0x78 /home/leon/git/swp-report/iMX6_Platform_SDK/output/mx6dq/lib/libboard_evb_rev_a.a(i2c3_iomux_config.o)
                0x1000c67c                i2c3_iomux_config
 .text          0x1000c6f4       0x68 /home/leon/riotboard/arm-2012.09/bin/../arm-none-eabi/lib//libc.a(lib_a-assert.o)
                0x1000c6f4                __assert_func
                0x1000c74c                __assert
 .text          0x1000c75c       0x20 /home/leon/riotboard/arm-2012.09/bin/../arm-none-eabi/lib//libc.a(lib_a-bzero.o)
                0x1000c75c                bzero
 .text          0x1000c77c       0x70 /home/leon/riotboard/arm-2012.09/bin/../arm-none-eabi/lib//libc.a(lib_a-fiprintf.o)
                0x1000c77c                _fiprintf_r
                0x1000c7ac                fiprintf
 .text          0x1000c7ec       0x94 /home/leon/riotboard/arm-2012.09/bin/../arm-none-eabi/lib//libc.a(lib_a-fputc.o)
                0x1000c7ec                _fputc_r
                0x1000c830                fputc
 .text          0x1000c880        0x0 /home/leon/riotboard/arm-2012.09/bin/../arm-none-eabi/lib//libc.a(lib_a-impure.o)
 .text          0x1000c880       0x88 /home/leon/riotboard/arm-2012.09/bin/../arm-none-eabi/lib//libc.a(lib_a-init.o)
                0x1000c880                __libc_init_array
 .text          0x1000c908       0x40 /home/leon/riotboard/arm-2012.09/bin/../arm-none-eabi/lib//libc.a(lib_a-malloc.o)
                0x1000c908                malloc
                0x1000c928                free
 .text          0x1000c948      0x71c /home/leon/riotboard/arm-2012.09/bin/../arm-none-eabi/lib//libc.a(lib_a-mallocr.o)
                0x1000c948                _malloc_r
 .text          0x1000d064        0x8 /home/leon/riotboard/arm-2012.09/bin/../arm-none-eabi/lib//libc.a(lib_a-mlock.o)
                0x1000d064                __malloc_lock
                0x1000d068                __malloc_unlock
 .text          0x1000d06c       0x74 /home/leon/riotboard/arm-2012.09/bin/../arm-none-eabi/lib//libc.a(lib_a-printf.o)
                0x1000d06c                _printf_r
                0x1000d0a0                printf
 .text          0x1000d0e0      0x170 /home/leon/riotboard/arm-2012.09/bin/../arm-none-eabi/lib//libc.a(lib_a-putc.o)
                0x1000d0e0                _putc_r
                0x1000d190                putc
 .text          0x1000d250       0x28 /home/leon/riotboard/arm-2012.09/bin/../arm-none-eabi/lib//libc.a(lib_a-realloc.o)
                0x1000d250                realloc
 .text          0x1000d278      0x574 /home/leon/riotboard/arm-2012.09/bin/../arm-none-eabi/lib//libc.a(lib_a-reallocr.o)
                0x1000d278                _realloc_r
 .text          0x1000d7ec       0x6c /home/leon/riotboard/arm-2012.09/bin/../arm-none-eabi/lib//libc.a(lib_a-rget.o)
                0x1000d7ec                __srget_r
                0x1000d844                __srget
 .text          0x1000d858       0x40 /home/leon/riotboard/arm-2012.09/bin/../arm-none-eabi/lib//libc.a(lib_a-sbrkr.o)
                0x1000d858                _sbrk_r
 .text          0x1000d898     0x12c4 /home/leon/riotboard/arm-2012.09/bin/../arm-none-eabi/lib//libc.a(lib_a-vfiprintf.o)
                0x1000d898                __sprint_r
                0x1000d954                _vfiprintf_r
                0x1000eb30                vfiprintf
 .text          0x1000eb5c     0x2180 /home/leon/riotboard/arm-2012.09/bin/../arm-none-eabi/lib//libc.a(lib_a-vfprintf.o)
                0x1000eb5c                _vfprintf_r
                0x10010cb0                vfprintf
 .text          0x10010cdc       0x4c /home/leon/riotboard/arm-2012.09/bin/../arm-none-eabi/lib//libc.a(lib_a-vprintf.o)
                0x10010cdc                vprintf
                0x10010d08                _vprintf_r
 .text          0x10010d28      0x14c /home/leon/riotboard/arm-2012.09/bin/../arm-none-eabi/lib//libc.a(lib_a-wbuf.o)
                0x10010d28                __swbuf_r
                0x10010e58                __swbuf
 .text          0x10010e74      0x138 /home/leon/riotboard/arm-2012.09/bin/../arm-none-eabi/lib//libc.a(lib_a-wsetup.o)
                0x10010e74                __swsetup_r
 .text          0x10010fac       0x14 /home/leon/riotboard/arm-2012.09/bin/../arm-none-eabi/lib//libc.a(lib_a-abort.o)
                0x10010fac                abort
 .text          0x10010fc0     0x18a8 /home/leon/riotboard/arm-2012.09/bin/../arm-none-eabi/lib//libc.a(lib_a-dtoa.o)
                0x100111a0                _dtoa_r
 .text          0x10012868      0x26c /home/leon/riotboard/arm-2012.09/bin/../arm-none-eabi/lib//libc.a(lib_a-fflush.o)
                0x10012868                _fflush_r
                0x10012a94                fflush
 .text          0x10012ad4      0x2c4 /home/leon/riotboard/arm-2012.09/bin/../arm-none-eabi/lib//libc.a(lib_a-findfp.o)
                0x10012ae4                _cleanup_r
                0x10012b78                __sfmoreglue
                0x10012bc0                _cleanup
                0x10012bd0                __sinit
                0x10012c48                __sfp
                0x10012d40                __sfp_lock_acquire
                0x10012d44                __sfp_lock_release
                0x10012d48                __sinit_lock_acquire
                0x10012d4c                __sinit_lock_release
                0x10012d50                __fp_lock_all
                0x10012d74                __fp_unlock_all
 .text          0x10012d98      0x19c /home/leon/riotboard/arm-2012.09/bin/../arm-none-eabi/lib//libc.a(lib_a-fputwc.o)
                0x10012d98                _fputwc_r
                0x10012ee8                fputwc
 .text          0x10012f34      0x368 /home/leon/riotboard/arm-2012.09/bin/../arm-none-eabi/lib//libc.a(lib_a-freer.o)
                0x10012f34                _malloc_trim_r
                0x10013030                _free_r
 .text          0x1001329c      0x4c4 /home/leon/riotboard/arm-2012.09/bin/../arm-none-eabi/lib//libc.a(lib_a-fvwrite.o)
                0x1001329c                __sfvwrite_r
 .text          0x10013760      0x114 /home/leon/riotboard/arm-2012.09/bin/../arm-none-eabi/lib//libc.a(lib_a-fwalk.o)
                0x10013760                _fwalk
                0x100137e8                _fwalk_reent
 .text          0x10013874       0xd0 /home/leon/riotboard/arm-2012.09/bin/../arm-none-eabi/lib//libc.a(lib_a-locale.o)
                0x10013874                _setlocale_r
                0x100138e0                __locale_charset
                0x100138ec                __locale_mb_cur_max
                0x100138fc                __locale_msgcharset
                0x10013908                __locale_cjk_lang
                0x10013910                _localeconv_r
                0x1001391c                setlocale
                0x10013938                localeconv
 .text          0x10013944      0x15c /home/leon/riotboard/arm-2012.09/bin/../arm-none-eabi/lib//libc.a(lib_a-makebuf.o)
                0x10013944                __smakebuf_r
 .text          0x10013aa0      0x11c /home/leon/riotboard/arm-2012.09/bin/../arm-none-eabi/lib//libc.a(lib_a-memchr.o)
                0x10013aa0                memchr
 .text          0x10013bbc      0x20c /home/leon/riotboard/arm-2012.09/bin/../arm-none-eabi/lib//libc.a(lib_a-memcpy.o)
                0x10013bbc                memcpy
 .text          0x10013dc8      0x134 /home/leon/riotboard/arm-2012.09/bin/../arm-none-eabi/lib//libc.a(lib_a-memmove.o)
                0x10013dc8                memmove
 .text          0x10013efc      0x134 /home/leon/riotboard/arm-2012.09/bin/../arm-none-eabi/lib//libc.a(lib_a-memset.o)
                0x10013efc                memset
 .text          0x10014030      0xd20 /home/leon/riotboard/arm-2012.09/bin/../arm-none-eabi/lib//libc.a(lib_a-mprec.o)
                0x10014030                _Balloc
                0x100140bc                _Bfree
                0x100140d8                __multadd
                0x100141b4                __s2b
                0x100142a4                __hi0bits
                0x100142f4                __lo0bits
                0x10014388                __i2b
                0x100143ac                __multiply
                0x10014590                __pow5mult
                0x10014684                __lshift
                0x10014788                __mcmp
                0x100147ec                __mdiff
                0x10014938                __ulp
                0x1001499c                __b2d
                0x10014a68                __d2b
                0x10014b70                __ratio
                0x10014c00                _mprec_log10
                0x10014c54                __copybits
                0x10014cc8                __any_on
 .text          0x10014d50      0x19c /home/leon/riotboard/arm-2012.09/bin/../arm-none-eabi/lib//libc.a(lib_a-reent.o)
                0x10014d50                cleanup_glue
                0x10014d7c                _reclaim_reent
                0x10014e78                _wrapup_reent
 .text          0x10014eec      0x1cc /home/leon/riotboard/arm-2012.09/bin/../arm-none-eabi/lib//libc.a(lib_a-refill.o)
                0x10014f14                __srefill_r
 .text          0x100150b8       0x6c /home/leon/riotboard/arm-2012.09/bin/../arm-none-eabi/lib//libc.a(lib_a-s_fpclassify.o)
                0x100150b8                __fpclassifyd
 .text          0x10015124      0x24c /home/leon/riotboard/arm-2012.09/bin/../arm-none-eabi/lib//libc.a(lib_a-signal.o)
                0x10015124                _init_signal_r
                0x10015184                _signal_r
                0x100151f0                _raise_r
                0x10015288                __sigtramp_r
                0x1001531c                raise
                0x10015330                signal
                0x1001534c                _init_signal
                0x1001535c                __sigtramp
 .text          0x10015370       0x50 /home/leon/riotboard/arm-2012.09/bin/../arm-none-eabi/lib//libc.a(lib_a-signalr.o)
                0x10015370                _kill_r
                0x100153b0                _getpid_r
 .text          0x100153c0       0xdc /home/leon/riotboard/arm-2012.09/bin/../arm-none-eabi/lib//libc.a(lib_a-stdio.o)
                0x100153c0                __sread
                0x100153f4                __seofread
                0x100153fc                __swrite
                0x10015454                __sseek
                0x10015488                __sclose
 .text          0x1001549c      0x230 /home/leon/riotboard/arm-2012.09/bin/../arm-none-eabi/lib//libc.a(lib_a-strcmp.o)
                0x1001549c                strcmp
 .text          0x100156cc       0x60 /home/leon/riotboard/arm-2012.09/bin/../arm-none-eabi/lib//libc.a(lib_a-strlen.o)
                0x100156cc                strlen
 .text          0x1001572c      0x134 /home/leon/riotboard/arm-2012.09/bin/../arm-none-eabi/lib//libc.a(lib_a-wcrtomb.o)
                0x1001572c                _wcrtomb_r
                0x100157bc                wcrtomb
 .text          0x10015860       0x7c /home/leon/riotboard/arm-2012.09/bin/../arm-none-eabi/lib//libc.a(lib_a-wctomb_r.o)
                0x10015860                __ascii_wctomb
                0x1001588c                _wctomb_r
 .text          0x100158dc       0x44 /home/leon/riotboard/arm-2012.09/bin/../arm-none-eabi/lib//libc.a(lib_a-writer.o)
                0x100158dc                _write_r
 .text          0x10015920       0x94 /home/leon/riotboard/arm-2012.09/bin/../arm-none-eabi/lib//libc.a(lib_a-callocr.o)
                0x10015920                _calloc_r
 .text          0x100159b4       0x3c /home/leon/riotboard/arm-2012.09/bin/../arm-none-eabi/lib//libc.a(lib_a-closer.o)
                0x100159b4                _close_r
 .text          0x100159f0      0x10c /home/leon/riotboard/arm-2012.09/bin/../arm-none-eabi/lib//libc.a(lib_a-fclose.o)
                0x100159f0                _fclose_r
                0x10015ae8                fclose
 .text          0x10015afc       0x40 /home/leon/riotboard/arm-2012.09/bin/../arm-none-eabi/lib//libc.a(lib_a-fstatr.o)
                0x10015afc                _fstat_r
 .text          0x10015b3c       0x3c /home/leon/riotboard/arm-2012.09/bin/../arm-none-eabi/lib//libc.a(lib_a-isattyr.o)
                0x10015b3c                _isatty_r
 .text          0x10015b78       0x44 /home/leon/riotboard/arm-2012.09/bin/../arm-none-eabi/lib//libc.a(lib_a-lseekr.o)
                0x10015b78                _lseek_r
 .text          0x10015bbc       0x44 /home/leon/riotboard/arm-2012.09/bin/../arm-none-eabi/lib//libc.a(lib_a-readr.o)
                0x10015bbc                _read_r
 .text          0x10015c00      0x114 /home/leon/riotboard/arm-2012.09/bin/../lib/gcc/arm-none-eabi/4.7.2//libgcc.a(_udivsi3.o)
                0x10015c00                __udivsi3
                0x10015c00                __aeabi_uidiv
                0x10015cf4                __aeabi_uidivmod
 .text          0x10015d14      0x148 /home/leon/riotboard/arm-2012.09/bin/../lib/gcc/arm-none-eabi/4.7.2//libgcc.a(_divsi3.o)
                0x10015d14                __aeabi_idiv
                0x10015d14                __divsi3
                0x10015e3c                __aeabi_idivmod
 .text          0x10015e5c        0x4 /home/leon/riotboard/arm-2012.09/bin/../lib/gcc/arm-none-eabi/4.7.2//libgcc.a(_dvmd_tls.o)
                0x10015e5c                __aeabi_ldiv0
                0x10015e5c                __aeabi_idiv0
 .text          0x10015e60      0x41c /home/leon/riotboard/arm-2012.09/bin/../lib/gcc/arm-none-eabi/4.7.2//libgcc.a(_arm_addsubdf3.o)
                0x10015e60                __aeabi_drsub
                0x10015e68                __aeabi_dsub
                0x10015e68                __subdf3
                0x10015e6c                __adddf3
                0x10015e6c                __aeabi_dadd
                0x1001617c                __aeabi_ui2d
                0x1001617c                __floatunsidf
                0x100161a0                __floatsidf
                0x100161a0                __aeabi_i2d
                0x100161c8                __extendsfdf2
                0x100161c8                __aeabi_f2d
                0x10016208                __aeabi_ul2d
                0x10016208                __floatundidf
                0x1001621c                __floatdidf
                0x1001621c                __aeabi_l2d
 .text          0x1001627c      0x49c /home/leon/riotboard/arm-2012.09/bin/../lib/gcc/arm-none-eabi/4.7.2//libgcc.a(_arm_muldivdf3.o)
                0x1001627c                __aeabi_dmul
                0x1001627c                __muldf3
                0x1001650c                __aeabi_ddiv
                0x1001650c                __divdf3
 .text          0x10016718      0x144 /home/leon/riotboard/arm-2012.09/bin/../lib/gcc/arm-none-eabi/4.7.2//libgcc.a(_arm_cmpdf2.o)
                0x10016718                __gtdf2
                0x10016718                __gedf2
                0x10016720                __ltdf2
                0x10016720                __ledf2
                0x10016728                __cmpdf2
                0x10016728                __eqdf2
                0x10016728                __nedf2
                0x100167b0                __aeabi_cdrcmple
                0x100167cc                __aeabi_cdcmple
                0x100167cc                __aeabi_cdcmpeq
                0x100167e4                __aeabi_dcmpeq
                0x100167fc                __aeabi_dcmplt
                0x10016814                __aeabi_dcmple
                0x1001682c                __aeabi_dcmpge
                0x10016844                __aeabi_dcmpgt
 .text          0x1001685c       0x5c /home/leon/riotboard/arm-2012.09/bin/../lib/gcc/arm-none-eabi/4.7.2//libgcc.a(_arm_fixdfsi.o)
                0x1001685c                __fixdfsi
                0x1001685c                __aeabi_d2iz
 .text          0x100168b8       0x3c /home/leon/riotboard/arm-2012.09/bin/../lib/gcc/arm-none-eabi/4.7.2//libgcc.a(_aeabi_uldivmod.o)
                0x100168b8                __aeabi_uldivmod
 .text          0x100168f4       0x84 /home/leon/riotboard/arm-2012.09/bin/../lib/gcc/arm-none-eabi/4.7.2//libgcc.a(bpabi.o)
                0x100168f4                __gnu_ldivmod_helper
                0x10016938                __gnu_uldivmod_helper
 .text          0x10016978      0x4f0 /home/leon/riotboard/arm-2012.09/bin/../lib/gcc/arm-none-eabi/4.7.2//libgcc.a(_divdi3.o)
                0x10016978                __divdi3
 .text          0x10016e68      0x488 /home/leon/riotboard/arm-2012.09/bin/../lib/gcc/arm-none-eabi/4.7.2//libgcc.a(_udivdi3.o)
                0x10016e68                __udivdi3
 .text          0x100172f0       0x48 /home/leon/riotboard/arm-2012.09/bin/../lib/gcc/arm-none-eabi/4.7.2//libgcc.a(_clzsi2.o)
                0x100172f0                __clzsi2
 .text          0x10017338      0x264 /home/leon/git/swp-report/iMX6_Platform_SDK/output/mx6dq/lib/libsdk.a(max7310.o)
                0x10017338                max7310_reg_read
                0x1001739c                max7310_reg_write
                0x10017408                max7310_init
                0x100174e8                max7310_set_gpio_output
 .text          0x1001759c      0x610 /home/leon/git/swp-report/iMX6_Platform_SDK/output/mx6dq/lib/libsdk.a(runtime_support.o)
                0x1001759c                _execve
                0x100175d8                _fork
                0x10017600                _isatty
                0x10017624                _open
                0x10017650                _close
                0x10017674                _lseek
                0x100176a0                _fstat
                0x100176d4                _read
                0x100177a4                _write
                0x10017890                _raw_puts
                0x10017910                _sbrk
                0x100179c0                _exit
                0x100179e0                _kill
                0x10017a18                _getpid
                0x10017a30                _link
                0x10017a68                _unlink
                0x10017a9c                _stat
                0x10017ad0                _times
                0x10017af4                _gettimeofday
                0x10017b78                _wait
 .text          0x10017bac     0x14bc /home/leon/git/swp-report/iMX6_Platform_SDK/output/mx6dq/lib/libsdk.a(imx_i2c.o)
                0x10017bdc                i2c_get_request_instance
                0x1001852c                i2c_xfer
                0x10018b88                i2c_read
                0x10018bb8                i2c_write
                0x10018be8                i2c_setup_interrupt
                0x10018df4                i2c_init
 .text          0x10019068       0x74 /home/leon/git/swp-report/iMX6_Platform_SDK/output/mx6dq/lib/libboard_evb_rev_a.a(i2c_iomux_config.o)
                0x10019068                i2c_iomux_config
 *(.glue_7t)
 .glue_7t       0x00000000        0x0 linker stubs
 *(.glue_7)
 .glue_7        0x00000000        0x0 linker stubs
 *(.vfp11_veneer)
 .vfp11_veneer  0x00000000        0x0 linker stubs
 *(.ARM.extab* .gnu.linkonce.armextab.*)
 .ARM.extab.startup
                0x100190dc        0x0 /home/leon/git/swp-report/iMX6_Platform_SDK/output/mx6dq/lib/libsdk.a(startup.o)
 .ARM.extab     0x100190dc        0x0 /home/leon/riotboard/arm-2012.09/bin/../lib/gcc/arm-none-eabi/4.7.2//libgcc.a(_divdi3.o)
 .ARM.extab     0x100190dc        0x0 /home/leon/riotboard/arm-2012.09/bin/../lib/gcc/arm-none-eabi/4.7.2//libgcc.a(_udivdi3.o)
 *(.gcc_except_table)

.v4_bx          0x100190dc        0x0
 .v4_bx         0x00000000        0x0 linker stubs

.iplt           0x100190dc        0x0
 .iplt          0x00000000        0x0 /home/leon/riotboard/arm-2012.09/bin/../lib/gcc/arm-none-eabi/4.7.2//crtbegin.o

.ctors
 *crtbegin.o(.ctors)
 *crtbegin?.o(.ctors)
 *(EXCLUDE_FILE(*crtend?.o *crtend.o) .ctors)
 *(SORT(.ctors.*))
 *(.ctors)

.dtors
 *crtbegin.o(.dtors)
 *crtbegin?.o(.dtors)
 *(EXCLUDE_FILE(*crtend?.o *crtend.o) .dtors)
 *(SORT(.dtors.*))
 *(.dtors)

.rodata         0x100190e0      0xc10
 *(.rodata .rodata.* .gnu.linkonce.r.*)
 .rodata        0x100190e0       0xac /home/leon/git/swp-report/iMX6_Platform_SDK/output/mx6dq/smp_primes/evb_rev_a/obj/apps/smp_primes/src/main.o
 .rodata        0x1001918c       0x20 /home/leon/git/swp-report/iMX6_Platform_SDK/output/mx6dq/smp_primes/evb_rev_a/obj/apps/smp_primes/src/primes.o
 .rodata        0x100191ac       0x34 /home/leon/git/swp-report/iMX6_Platform_SDK/output/mx6dq/lib/libsdk.a(ccm_pll.o)
                0x100191ac                PLL1_OUTPUT
                0x100191b0                PLL2_OUTPUT
                0x100191c4                PLL3_OUTPUT
                0x100191d8                PLL4_OUTPUT
                0x100191dc                PLL5_OUTPUT
 .rodata        0x100191e0       0x64 /home/leon/git/swp-report/iMX6_Platform_SDK/output/mx6dq/lib/libsdk.a(gic.o)
 .rodata        0x10019244       0xcc /home/leon/git/swp-report/iMX6_Platform_SDK/output/mx6dq/lib/libsdk.a(system_util.o)
 .rodata        0x10019310       0xf4 /home/leon/git/swp-report/iMX6_Platform_SDK/output/mx6dq/lib/libsdk.a(text_color.o)
                0x10019318                g_TextAttributeDefault
                0x10019324                g_TextAttributeBold
                0x10019330                g_TextAttributeDim
                0x1001933c                g_TextAttributeUnderline
                0x10019348                g_TextAttributeBlink
                0x10019354                g_TextAttributeReverse
                0x10019360                g_TextAttributeHidden
                0x1001936c                g_TextColorBlack
                0x10019378                g_TextColorRed
                0x10019384                g_TextColorGreen
                0x10019390                g_TextColorYellow
                0x1001939c                g_TextColorBlue
                0x100193a8                g_TextColorMagenta
                0x100193b4                g_TextColorCyan
                0x100193c0                g_TextColorWhite
                0x100193d0                g_TextColorOrange
                0x100193e0                g_TextColorLightBlue
                0x100193f0                g_TextColorGray
                0x10019400                g_TextColorPurple
 .rodata        0x10019404       0x88 /home/leon/git/swp-report/iMX6_Platform_SDK/output/mx6dq/lib/libsdk.a(cpu_multicore.o)
 .rodata        0x1001948c       0x20 /home/leon/git/swp-report/iMX6_Platform_SDK/output/mx6dq/lib/libsdk.a(interrupt.o)
 .rodata        0x100194ac      0x230 /home/leon/git/swp-report/iMX6_Platform_SDK/output/mx6dq/lib/libsdk.a(abort_handler.o)
 .rodata        0x100196dc       0x74 /home/leon/git/swp-report/iMX6_Platform_SDK/output/mx6dq/lib/libboard_evb_rev_a.a(uart_iomux_config.o)
 .rodata.str1.4
                0x10019750       0x3f /home/leon/riotboard/arm-2012.09/bin/../arm-none-eabi/lib//libc.a(lib_a-assert.o)
                                 0x44 (size before relaxing)
 *fill*         0x1001978f        0x1 
 .rodata        0x10019790        0x4 /home/leon/riotboard/arm-2012.09/bin/../arm-none-eabi/lib//libc.a(lib_a-impure.o)
                0x10019790                _global_impure_ptr
 .rodata.str1.4
                0x10019794        0x2 /home/leon/riotboard/arm-2012.09/bin/../arm-none-eabi/lib//libc.a(lib_a-impure.o)
                                  0x4 (size before relaxing)
 *fill*         0x10019796        0x2 
 .rodata        0x10019798       0x20 /home/leon/riotboard/arm-2012.09/bin/../arm-none-eabi/lib//libc.a(lib_a-vfiprintf.o)
 .rodata.str1.4
                0x100197b8       0x2f /home/leon/riotboard/arm-2012.09/bin/../arm-none-eabi/lib//libc.a(lib_a-vfiprintf.o)
                                 0x30 (size before relaxing)
 *fill*         0x100197e7        0x1 
 .rodata        0x100197e8       0x20 /home/leon/riotboard/arm-2012.09/bin/../arm-none-eabi/lib//libc.a(lib_a-vfprintf.o)
 .rodata.str1.4
                0x10019808       0x12 /home/leon/riotboard/arm-2012.09/bin/../arm-none-eabi/lib//libc.a(lib_a-vfprintf.o)
                                 0x44 (size before relaxing)
 *fill*         0x1001981a        0x2 
 .rodata.str1.4
                0x1001981c       0x10 /home/leon/riotboard/arm-2012.09/bin/../arm-none-eabi/lib//libc.a(lib_a-dtoa.o)
                                 0x14 (size before relaxing)
 .rodata.str1.4
                0x1001982c        0xc /home/leon/riotboard/arm-2012.09/bin/../arm-none-eabi/lib//libc.a(lib_a-locale.o)
                                 0x14 (size before relaxing)
 .rodata        0x10019838      0x128 /home/leon/riotboard/arm-2012.09/bin/../arm-none-eabi/lib//libc.a(lib_a-mprec.o)
                0x10019848                __mprec_tens
                0x10019910                __mprec_tinytens
                0x10019938                __mprec_bigtens
 .rodata        0x10019960       0x20 /home/leon/git/swp-report/iMX6_Platform_SDK/output/mx6dq/lib/libsdk.a(runtime_support.o)
 .rodata        0x10019980      0x2c4 /home/leon/git/swp-report/iMX6_Platform_SDK/output/mx6dq/lib/libsdk.a(imx_i2c.o)
 .rodata        0x10019c44       0x74 /home/leon/git/swp-report/iMX6_Platform_SDK/output/mx6dq/lib/libboard_evb_rev_a.a(i2c_iomux_config.o)
                0x10019cb8                . = ALIGN (0x4)
 *(.init)
 .init          0x10019cb8        0xc /home/leon/riotboard/arm-2012.09/bin/../lib/gcc/arm-none-eabi/4.7.2//crti.o
                0x10019cb8                _init
 .init          0x10019cc4        0xc /home/leon/riotboard/arm-2012.09/bin/../lib/gcc/arm-none-eabi/4.7.2//crtn.o
                0x10019cd0                . = ALIGN (0x4)
                0x10019cd0                __init_array_start = .
 *(SORT(.init_array.*))
 *(.init_array)
 .init_array    0x10019cd0        0x4 /home/leon/riotboard/arm-2012.09/bin/../lib/gcc/arm-none-eabi/4.7.2//crtbegin.o
                0x10019cd4                __init_array_end = .
                0x10019cd4                . = ALIGN (0x4)
 *(.fini)
 .fini          0x10019cd4        0xc /home/leon/riotboard/arm-2012.09/bin/../lib/gcc/arm-none-eabi/4.7.2//crti.o
                0x10019cd4                _fini
 .fini          0x10019ce0        0xc /home/leon/riotboard/arm-2012.09/bin/../lib/gcc/arm-none-eabi/4.7.2//crtn.o
                0x10019cec                . = ALIGN (0x4)
                0x10019cec                __fini_array_start = .
 *(.fini_array)
 .fini_array    0x10019cec        0x4 /home/leon/riotboard/arm-2012.09/bin/../lib/gcc/arm-none-eabi/4.7.2//crtbegin.o
 *(SORT(.fini_array.*))
                0x10019cf0                __fini_array_end = .
                0x10019cf0                PROVIDE (__exidx_start, .)

.eh_frame       0x10019cf0        0x4
 .eh_frame      0x10019cf0        0x0 /home/leon/riotboard/arm-2012.09/bin/../lib/gcc/arm-none-eabi/4.7.2//crtbegin.o
 .eh_frame      0x10019cf0        0x4 /home/leon/riotboard/arm-2012.09/bin/../lib/gcc/arm-none-eabi/4.7.2//crtend.o

.ARM.exidx      0x10019cf4        0x8
 *(.ARM.exidx* .gnu.linkonce.armexidx.*)
 .ARM.exidx.startup
                0x10019cf4        0x8 /home/leon/git/swp-report/iMX6_Platform_SDK/output/mx6dq/lib/libsdk.a(startup.o)
 .ARM.exidx     0x10019cfc        0x0 /home/leon/riotboard/arm-2012.09/bin/../lib/gcc/arm-none-eabi/4.7.2//libgcc.a(_divdi3.o)
                                  0x8 (size before relaxing)
 .ARM.exidx     0x10019cfc        0x0 /home/leon/riotboard/arm-2012.09/bin/../lib/gcc/arm-none-eabi/4.7.2//libgcc.a(_udivdi3.o)
                                  0x8 (size before relaxing)
                0x10019cfc                PROVIDE (__exidx_end, .)

.rel.dyn        0x10019cfc        0x0
 .rel.iplt      0x00000000        0x0 /home/leon/riotboard/arm-2012.09/bin/../lib/gcc/arm-none-eabi/4.7.2//crtbegin.o

.data           0x10019d00      0x8dc
 *(.data .data.* .gnu.linkonce.d.*)
 .data          0x10019d00        0x4 /home/leon/riotboard/arm-2012.09/bin/../lib/gcc/arm-none-eabi/4.7.2//crtbegin.o
                0x10019d00                __dso_handle
 .data          0x10019d04        0x0 /home/leon/riotboard/arm-2012.09/bin/../lib/gcc/arm-none-eabi/4.7.2//crti.o
 .data          0x10019d04        0x0 /home/leon/riotboard/arm-2012.09/bin/../lib/gcc/arm-none-eabi/4.7.2//crtend.o
 .data          0x10019d04        0x0 /home/leon/riotboard/arm-2012.09/bin/../lib/gcc/arm-none-eabi/4.7.2//crtn.o
 .data          0x10019d04        0x0 /home/leon/git/swp-report/iMX6_Platform_SDK/output/mx6dq/smp_primes/evb_rev_a/obj/apps/common/ivt.o
 .data          0x10019d04        0x0 /home/leon/git/swp-report/iMX6_Platform_SDK/output/mx6dq/smp_primes/evb_rev_a/obj/apps/common/platform_init.o
 .data          0x10019d04        0x4 /home/leon/git/swp-report/iMX6_Platform_SDK/output/mx6dq/smp_primes/evb_rev_a/obj/apps/smp_primes/src/main.o
 .data          0x10019d08        0x0 /home/leon/git/swp-report/iMX6_Platform_SDK/output/mx6dq/smp_primes/evb_rev_a/obj/apps/smp_primes/src/primes.o
 .data          0x10019d08        0x0 /home/leon/git/swp-report/iMX6_Platform_SDK/output/mx6dq/lib/libsdk.a(armv7_cache.o)
 .data          0x10019d08        0x0 /home/leon/git/swp-report/iMX6_Platform_SDK/output/mx6dq/lib/libsdk.a(ccm_pll.o)
 .data          0x10019d08        0x0 /home/leon/git/swp-report/iMX6_Platform_SDK/output/mx6dq/lib/libsdk.a(cortexA9.o)
 .data          0x10019d08        0x0 /home/leon/git/swp-report/iMX6_Platform_SDK/output/mx6dq/lib/libsdk.a(gic.o)
 .data          0x10019d08        0x0 /home/leon/git/swp-report/iMX6_Platform_SDK/output/mx6dq/lib/libsdk.a(mmu.o)
 .data          0x10019d08        0x0 /home/leon/git/swp-report/iMX6_Platform_SDK/output/mx6dq/lib/libsdk.a(startup.o)
 .data          0x10019d08        0x0 /home/leon/git/swp-report/iMX6_Platform_SDK/output/mx6dq/lib/libsdk.a(vectors.o)
 .data          0x10019d08        0x0 /home/leon/git/swp-report/iMX6_Platform_SDK/output/mx6dq/lib/libsdk.a(spinlock.o)
 .data          0x10019d08        0x0 /home/leon/git/swp-report/iMX6_Platform_SDK/output/mx6dq/lib/libsdk.a(spinlock_lock_unlock.o)
 .data          0x10019d08        0x0 /home/leon/git/swp-report/iMX6_Platform_SDK/output/mx6dq/lib/libsdk.a(system_util.o)
 .data          0x10019d08        0x4 /home/leon/git/swp-report/iMX6_Platform_SDK/output/mx6dq/lib/libsdk.a(text_color.o)
                0x10019d08                is_color_supported
 .data          0x10019d0c        0x0 /home/leon/git/swp-report/iMX6_Platform_SDK/output/mx6dq/lib/libsdk.a(cpu_get_cores.o)
 .data          0x10019d0c        0x0 /home/leon/git/swp-report/iMX6_Platform_SDK/output/mx6dq/lib/libsdk.a(cpu_multicore.o)
 .data          0x10019d0c        0x0 /home/leon/git/swp-report/iMX6_Platform_SDK/output/mx6dq/lib/libsdk.a(timer.o)
 .data          0x10019d0c        0x0 /home/leon/git/swp-report/iMX6_Platform_SDK/output/mx6dq/lib/libsdk.a(imx_uart.o)
 .data          0x10019d0c        0x4 /home/leon/git/swp-report/iMX6_Platform_SDK/output/mx6dq/lib/libsdk.a(arm_abort.o)
 .data          0x10019d10        0x0 /home/leon/git/swp-report/iMX6_Platform_SDK/output/mx6dq/lib/libsdk.a(interrupt.o)
 .data          0x10019d10        0x0 /home/leon/git/swp-report/iMX6_Platform_SDK/output/mx6dq/lib/libsdk.a(epit.o)
 .data          0x10019d10        0x0 /home/leon/git/swp-report/iMX6_Platform_SDK/output/mx6dq/lib/libsdk.a(abort_handler.o)
 .data          0x10019d10        0x0 /home/leon/git/swp-report/iMX6_Platform_SDK/output/mx6dq/lib/libboard_evb_rev_a.a(board_io_expanders.o)
 .data          0x10019d10        0x8 /home/leon/git/swp-report/iMX6_Platform_SDK/output/mx6dq/lib/libboard_evb_rev_a.a(hardware_modules.o)
                0x10019d10                g_debug_uart_port
                0x10019d14                g_system_timer_port
 .data          0x10019d18        0x0 /home/leon/git/swp-report/iMX6_Platform_SDK/output/mx6dq/lib/libboard_evb_rev_a.a(dcd.o)
 .data          0x10019d18        0x0 /home/leon/git/swp-report/iMX6_Platform_SDK/output/mx6dq/lib/libboard_evb_rev_a.a(uart_iomux_config.o)
 .data          0x10019d18        0x0 /home/leon/git/swp-report/iMX6_Platform_SDK/output/mx6dq/lib/libboard_evb_rev_a.a(iomux_config.o)
 .data          0x10019d18        0x0 /home/leon/git/swp-report/iMX6_Platform_SDK/output/mx6dq/lib/libboard_evb_rev_a.a(ipu1_iomux_config.o)
 .data          0x10019d18        0x0 /home/leon/git/swp-report/iMX6_Platform_SDK/output/mx6dq/lib/libboard_evb_rev_a.a(kpp_iomux_config.o)
 .data          0x10019d18        0x0 /home/leon/git/swp-report/iMX6_Platform_SDK/output/mx6dq/lib/libboard_evb_rev_a.a(mlb_iomux_config.o)
 .data          0x10019d18        0x0 /home/leon/git/swp-report/iMX6_Platform_SDK/output/mx6dq/lib/libboard_evb_rev_a.a(mmdc_iomux_config.o)
 .data          0x10019d18        0x0 /home/leon/git/swp-report/iMX6_Platform_SDK/output/mx6dq/lib/libboard_evb_rev_a.a(pwm1_iomux_config.o)
 .data          0x10019d18        0x0 /home/leon/git/swp-report/iMX6_Platform_SDK/output/mx6dq/lib/libboard_evb_rev_a.a(sjc_iomux_config.o)
 .data          0x10019d18        0x0 /home/leon/git/swp-report/iMX6_Platform_SDK/output/mx6dq/lib/libboard_evb_rev_a.a(spdif_iomux_config.o)
 .data          0x10019d18        0x0 /home/leon/git/swp-report/iMX6_Platform_SDK/output/mx6dq/lib/libboard_evb_rev_a.a(uart2_iomux_config.o)
 .data          0x10019d18        0x0 /home/leon/git/swp-report/iMX6_Platform_SDK/output/mx6dq/lib/libboard_evb_rev_a.a(uart4_iomux_config.o)
 .data          0x10019d18        0x0 /home/leon/git/swp-report/iMX6_Platform_SDK/output/mx6dq/lib/libboard_evb_rev_a.a(usb_iomux_config.o)
 .data          0x10019d18        0x0 /home/leon/git/swp-report/iMX6_Platform_SDK/output/mx6dq/lib/libboard_evb_rev_a.a(usdhc1_iomux_config.o)
 .data          0x10019d18        0x0 /home/leon/git/swp-report/iMX6_Platform_SDK/output/mx6dq/lib/libboard_evb_rev_a.a(usdhc2_iomux_config.o)
 .data          0x10019d18        0x0 /home/leon/git/swp-report/iMX6_Platform_SDK/output/mx6dq/lib/libboard_evb_rev_a.a(usdhc3_iomux_config.o)
 .data          0x10019d18        0x0 /home/leon/git/swp-report/iMX6_Platform_SDK/output/mx6dq/lib/libboard_evb_rev_a.a(usdhc4_iomux_config.o)
 .data          0x10019d18        0x0 /home/leon/git/swp-report/iMX6_Platform_SDK/output/mx6dq/lib/libboard_evb_rev_a.a(ccm_iomux_config.o)
 .data          0x10019d18        0x0 /home/leon/git/swp-report/iMX6_Platform_SDK/output/mx6dq/lib/libboard_evb_rev_a.a(ecspi1_iomux_config.o)
 .data          0x10019d18        0x0 /home/leon/git/swp-report/iMX6_Platform_SDK/output/mx6dq/lib/libboard_evb_rev_a.a(enet_iomux_config.o)
 .data          0x10019d18        0x0 /home/leon/git/swp-report/iMX6_Platform_SDK/output/mx6dq/lib/libboard_evb_rev_a.a(esai_iomux_config.o)
 .data          0x10019d18        0x0 /home/leon/git/swp-report/iMX6_Platform_SDK/output/mx6dq/lib/libboard_evb_rev_a.a(flexcan1_iomux_config.o)
 .data          0x10019d18        0x0 /home/leon/git/swp-report/iMX6_Platform_SDK/output/mx6dq/lib/libboard_evb_rev_a.a(flexcan2_iomux_config.o)
 .data          0x10019d18        0x0 /home/leon/git/swp-report/iMX6_Platform_SDK/output/mx6dq/lib/libboard_evb_rev_a.a(gpio3_iomux_config.o)
 .data          0x10019d18        0x0 /home/leon/git/swp-report/iMX6_Platform_SDK/output/mx6dq/lib/libboard_evb_rev_a.a(gpio4_iomux_config.o)
 .data          0x10019d18        0x0 /home/leon/git/swp-report/iMX6_Platform_SDK/output/mx6dq/lib/libboard_evb_rev_a.a(gpio5_iomux_config.o)
 .data          0x10019d18        0x0 /home/leon/git/swp-report/iMX6_Platform_SDK/output/mx6dq/lib/libboard_evb_rev_a.a(gpio6_iomux_config.o)
 .data          0x10019d18        0x0 /home/leon/git/swp-report/iMX6_Platform_SDK/output/mx6dq/lib/libboard_evb_rev_a.a(gpmi_iomux_config.o)
 .data          0x10019d18        0x0 /home/leon/git/swp-report/iMX6_Platform_SDK/output/mx6dq/lib/libboard_evb_rev_a.a(hdmi_iomux_config.o)
 .data          0x10019d18        0x0 /home/leon/git/swp-report/iMX6_Platform_SDK/output/mx6dq/lib/libboard_evb_rev_a.a(i2c1_iomux_config.o)
 .data          0x10019d18        0x0 /home/leon/git/swp-report/iMX6_Platform_SDK/output/mx6dq/lib/libboard_evb_rev_a.a(i2c2_iomux_config.o)
 .data          0x10019d18        0x0 /home/leon/git/swp-report/iMX6_Platform_SDK/output/mx6dq/lib/libboard_evb_rev_a.a(i2c3_iomux_config.o)
 .data          0x10019d18        0x0 /home/leon/riotboard/arm-2012.09/bin/../arm-none-eabi/lib//libc.a(lib_a-assert.o)
 .data          0x10019d18        0x0 /home/leon/riotboard/arm-2012.09/bin/../arm-none-eabi/lib//libc.a(lib_a-bzero.o)
 .data          0x10019d18        0x0 /home/leon/riotboard/arm-2012.09/bin/../arm-none-eabi/lib//libc.a(lib_a-fiprintf.o)
 .data          0x10019d18        0x0 /home/leon/riotboard/arm-2012.09/bin/../arm-none-eabi/lib//libc.a(lib_a-fputc.o)
 .data          0x10019d18      0x430 /home/leon/riotboard/arm-2012.09/bin/../arm-none-eabi/lib//libc.a(lib_a-impure.o)
                0x10019d18                _impure_ptr
 .data          0x1001a148        0x0 /home/leon/riotboard/arm-2012.09/bin/../arm-none-eabi/lib//libc.a(lib_a-init.o)
 .data          0x1001a148        0x0 /home/leon/riotboard/arm-2012.09/bin/../arm-none-eabi/lib//libc.a(lib_a-malloc.o)
 .data          0x1001a148      0x410 /home/leon/riotboard/arm-2012.09/bin/../arm-none-eabi/lib//libc.a(lib_a-mallocr.o)
                0x1001a148                __malloc_av_
                0x1001a550                __malloc_sbrk_base
                0x1001a554                __malloc_trim_threshold
 .data          0x1001a558        0x0 /home/leon/riotboard/arm-2012.09/bin/../arm-none-eabi/lib//libc.a(lib_a-mlock.o)
 .data          0x1001a558        0x0 /home/leon/riotboard/arm-2012.09/bin/../arm-none-eabi/lib//libc.a(lib_a-printf.o)
 .data          0x1001a558        0x0 /home/leon/riotboard/arm-2012.09/bin/../arm-none-eabi/lib//libc.a(lib_a-putc.o)
 .data          0x1001a558        0x0 /home/leon/riotboard/arm-2012.09/bin/../arm-none-eabi/lib//libc.a(lib_a-realloc.o)
 .data          0x1001a558        0x0 /home/leon/riotboard/arm-2012.09/bin/../arm-none-eabi/lib//libc.a(lib_a-reallocr.o)
 .data          0x1001a558        0x0 /home/leon/riotboard/arm-2012.09/bin/../arm-none-eabi/lib//libc.a(lib_a-rget.o)
 .data          0x1001a558        0x0 /home/leon/riotboard/arm-2012.09/bin/../arm-none-eabi/lib//libc.a(lib_a-sbrkr.o)
 .data          0x1001a558        0x0 /home/leon/riotboard/arm-2012.09/bin/../arm-none-eabi/lib//libc.a(lib_a-vfiprintf.o)
 .data          0x1001a558        0x0 /home/leon/riotboard/arm-2012.09/bin/../arm-none-eabi/lib//libc.a(lib_a-vfprintf.o)
 .data          0x1001a558        0x0 /home/leon/riotboard/arm-2012.09/bin/../arm-none-eabi/lib//libc.a(lib_a-vprintf.o)
 .data          0x1001a558        0x0 /home/leon/riotboard/arm-2012.09/bin/../arm-none-eabi/lib//libc.a(lib_a-wbuf.o)
 .data          0x1001a558        0x0 /home/leon/riotboard/arm-2012.09/bin/../arm-none-eabi/lib//libc.a(lib_a-wsetup.o)
 .data          0x1001a558        0x0 /home/leon/riotboard/arm-2012.09/bin/../arm-none-eabi/lib//libc.a(lib_a-abort.o)
 .data          0x1001a558        0x0 /home/leon/riotboard/arm-2012.09/bin/../arm-none-eabi/lib//libc.a(lib_a-dtoa.o)
 .data          0x1001a558        0x0 /home/leon/riotboard/arm-2012.09/bin/../arm-none-eabi/lib//libc.a(lib_a-fflush.o)
 .data          0x1001a558        0x0 /home/leon/riotboard/arm-2012.09/bin/../arm-none-eabi/lib//libc.a(lib_a-findfp.o)
 .data          0x1001a558        0x0 /home/leon/riotboard/arm-2012.09/bin/../arm-none-eabi/lib//libc.a(lib_a-fputwc.o)
 .data          0x1001a558        0x0 /home/leon/riotboard/arm-2012.09/bin/../arm-none-eabi/lib//libc.a(lib_a-freer.o)
 .data          0x1001a558        0x0 /home/leon/riotboard/arm-2012.09/bin/../arm-none-eabi/lib//libc.a(lib_a-fvwrite.o)
 .data          0x1001a558        0x0 /home/leon/riotboard/arm-2012.09/bin/../arm-none-eabi/lib//libc.a(lib_a-fwalk.o)
 .data          0x1001a558       0x7c /home/leon/riotboard/arm-2012.09/bin/../arm-none-eabi/lib//libc.a(lib_a-locale.o)
                0x1001a578                __mb_cur_max
 .data          0x1001a5d4        0x0 /home/leon/riotboard/arm-2012.09/bin/../arm-none-eabi/lib//libc.a(lib_a-makebuf.o)
 .data          0x1001a5d4        0x0 /home/leon/riotboard/arm-2012.09/bin/../arm-none-eabi/lib//libc.a(lib_a-memchr.o)
 .data          0x1001a5d4        0x0 /home/leon/riotboard/arm-2012.09/bin/../arm-none-eabi/lib//libc.a(lib_a-memcpy.o)
 .data          0x1001a5d4        0x0 /home/leon/riotboard/arm-2012.09/bin/../arm-none-eabi/lib//libc.a(lib_a-memmove.o)
 .data          0x1001a5d4        0x0 /home/leon/riotboard/arm-2012.09/bin/../arm-none-eabi/lib//libc.a(lib_a-memset.o)
 .data          0x1001a5d4        0x0 /home/leon/riotboard/arm-2012.09/bin/../arm-none-eabi/lib//libc.a(lib_a-mprec.o)
 .data          0x1001a5d4        0x0 /home/leon/riotboard/arm-2012.09/bin/../arm-none-eabi/lib//libc.a(lib_a-reent.o)
 .data          0x1001a5d4        0x0 /home/leon/riotboard/arm-2012.09/bin/../arm-none-eabi/lib//libc.a(lib_a-refill.o)
 .data          0x1001a5d4        0x0 /home/leon/riotboard/arm-2012.09/bin/../arm-none-eabi/lib//libc.a(lib_a-s_fpclassify.o)
 .data          0x1001a5d4        0x0 /home/leon/riotboard/arm-2012.09/bin/../arm-none-eabi/lib//libc.a(lib_a-signal.o)
 .data          0x1001a5d4        0x0 /home/leon/riotboard/arm-2012.09/bin/../arm-none-eabi/lib//libc.a(lib_a-signalr.o)
 .data          0x1001a5d4        0x0 /home/leon/riotboard/arm-2012.09/bin/../arm-none-eabi/lib//libc.a(lib_a-stdio.o)
 .data          0x1001a5d4        0x0 /home/leon/riotboard/arm-2012.09/bin/../arm-none-eabi/lib//libc.a(lib_a-strcmp.o)
 .data          0x1001a5d4        0x0 /home/leon/riotboard/arm-2012.09/bin/../arm-none-eabi/lib//libc.a(lib_a-strlen.o)
 .data          0x1001a5d4        0x0 /home/leon/riotboard/arm-2012.09/bin/../arm-none-eabi/lib//libc.a(lib_a-wcrtomb.o)
 .data          0x1001a5d4        0x4 /home/leon/riotboard/arm-2012.09/bin/../arm-none-eabi/lib//libc.a(lib_a-wctomb_r.o)
                0x1001a5d4                __wctomb
 .data          0x1001a5d8        0x0 /home/leon/riotboard/arm-2012.09/bin/../arm-none-eabi/lib//libc.a(lib_a-writer.o)
 .data          0x1001a5d8        0x0 /home/leon/riotboard/arm-2012.09/bin/../arm-none-eabi/lib//libc.a(lib_a-callocr.o)
 .data          0x1001a5d8        0x0 /home/leon/riotboard/arm-2012.09/bin/../arm-none-eabi/lib//libc.a(lib_a-closer.o)
 .data          0x1001a5d8        0x0 /home/leon/riotboard/arm-2012.09/bin/../arm-none-eabi/lib//libc.a(lib_a-fclose.o)
 .data          0x1001a5d8        0x0 /home/leon/riotboard/arm-2012.09/bin/../arm-none-eabi/lib//libc.a(lib_a-fstatr.o)
 .data          0x1001a5d8        0x0 /home/leon/riotboard/arm-2012.09/bin/../arm-none-eabi/lib//libc.a(lib_a-isattyr.o)
 .data          0x1001a5d8        0x0 /home/leon/riotboard/arm-2012.09/bin/../arm-none-eabi/lib//libc.a(lib_a-lseekr.o)
 .data          0x1001a5d8        0x0 /home/leon/riotboard/arm-2012.09/bin/../arm-none-eabi/lib//libc.a(lib_a-readr.o)
 .data          0x1001a5d8        0x0 /home/leon/riotboard/arm-2012.09/bin/../lib/gcc/arm-none-eabi/4.7.2//libgcc.a(_udivsi3.o)
 .data          0x1001a5d8        0x0 /home/leon/riotboard/arm-2012.09/bin/../lib/gcc/arm-none-eabi/4.7.2//libgcc.a(_divsi3.o)
 .data          0x1001a5d8        0x0 /home/leon/riotboard/arm-2012.09/bin/../lib/gcc/arm-none-eabi/4.7.2//libgcc.a(_dvmd_tls.o)
 .data          0x1001a5d8        0x0 /home/leon/riotboard/arm-2012.09/bin/../lib/gcc/arm-none-eabi/4.7.2//libgcc.a(_arm_addsubdf3.o)
 .data          0x1001a5d8        0x0 /home/leon/riotboard/arm-2012.09/bin/../lib/gcc/arm-none-eabi/4.7.2//libgcc.a(_arm_muldivdf3.o)
 .data          0x1001a5d8        0x0 /home/leon/riotboard/arm-2012.09/bin/../lib/gcc/arm-none-eabi/4.7.2//libgcc.a(_arm_cmpdf2.o)
 .data          0x1001a5d8        0x0 /home/leon/riotboard/arm-2012.09/bin/../lib/gcc/arm-none-eabi/4.7.2//libgcc.a(_arm_fixdfsi.o)
 .data          0x1001a5d8        0x0 /home/leon/riotboard/arm-2012.09/bin/../lib/gcc/arm-none-eabi/4.7.2//libgcc.a(_aeabi_uldivmod.o)
 .data          0x1001a5d8        0x0 /home/leon/riotboard/arm-2012.09/bin/../lib/gcc/arm-none-eabi/4.7.2//libgcc.a(bpabi.o)
 .data          0x1001a5d8        0x0 /home/leon/riotboard/arm-2012.09/bin/../lib/gcc/arm-none-eabi/4.7.2//libgcc.a(_divdi3.o)
 .data          0x1001a5d8        0x0 /home/leon/riotboard/arm-2012.09/bin/../lib/gcc/arm-none-eabi/4.7.2//libgcc.a(_udivdi3.o)
 .data          0x1001a5d8        0x0 /home/leon/riotboard/arm-2012.09/bin/../lib/gcc/arm-none-eabi/4.7.2//libgcc.a(_clzsi2.o)
 .data          0x1001a5d8        0x0 /home/leon/git/swp-report/iMX6_Platform_SDK/output/mx6dq/lib/libsdk.a(max7310.o)
 .data          0x1001a5d8        0x4 /home/leon/git/swp-report/iMX6_Platform_SDK/output/mx6dq/lib/libsdk.a(runtime_support.o)
                0x1001a5d8                environ
 .data          0x1001a5dc        0x0 /home/leon/git/swp-report/iMX6_Platform_SDK/output/mx6dq/lib/libsdk.a(imx_i2c.o)
 .data          0x1001a5dc        0x0 /home/leon/git/swp-report/iMX6_Platform_SDK/output/mx6dq/lib/libboard_evb_rev_a.a(i2c_iomux_config.o)

.jcr            0x1001a5dc        0x4
 .jcr           0x1001a5dc        0x0 /home/leon/riotboard/arm-2012.09/bin/../lib/gcc/arm-none-eabi/4.7.2//crtbegin.o
 .jcr           0x1001a5dc        0x4 /home/leon/riotboard/arm-2012.09/bin/../lib/gcc/arm-none-eabi/4.7.2//crtend.o

.tm_clone_table
                0x1001a5e0        0x0
 .tm_clone_table
                0x1001a5e0        0x0 /home/leon/riotboard/arm-2012.09/bin/../lib/gcc/arm-none-eabi/4.7.2//crtbegin.o
 .tm_clone_table
                0x1001a5e0        0x0 /home/leon/riotboard/arm-2012.09/bin/../lib/gcc/arm-none-eabi/4.7.2//crtend.o

.igot.plt       0x1001a5e0        0x0
 .igot.plt      0x00000000        0x0 /home/leon/riotboard/arm-2012.09/bin/../lib/gcc/arm-none-eabi/4.7.2//crtbegin.o

.hab.data       0x10400000     0x2000
                0x10400000                __hab_data = .
                0x10402000                . = (. + 0x2000)
 *fill*         0x10400000     0x2000 
                0x10402000                . = ALIGN (0x20)
                0x10402000                __hab_data_end = .
                0x00402000                _image_size = (. - _start_image_add)

.bss            0x10402000     0xa010
                0x10402000                __bss_start__ = .
 *(.shbss)
 *(.bss .bss.* .gnu.linkonce.b.*)
 .bss           0x10402000       0x1c /home/leon/riotboard/arm-2012.09/bin/../lib/gcc/arm-none-eabi/4.7.2//crtbegin.o
 .bss           0x1040201c        0x0 /home/leon/riotboard/arm-2012.09/bin/../lib/gcc/arm-none-eabi/4.7.2//crti.o
 .bss           0x1040201c        0x0 /home/leon/riotboard/arm-2012.09/bin/../lib/gcc/arm-none-eabi/4.7.2//crtend.o
 .bss           0x1040201c        0x0 /home/leon/riotboard/arm-2012.09/bin/../lib/gcc/arm-none-eabi/4.7.2//crtn.o
 .bss           0x1040201c        0x0 /home/leon/git/swp-report/iMX6_Platform_SDK/output/mx6dq/smp_primes/evb_rev_a/obj/apps/common/ivt.o
 .bss           0x1040201c        0x0 /home/leon/git/swp-report/iMX6_Platform_SDK/output/mx6dq/smp_primes/evb_rev_a/obj/apps/common/platform_init.o
 .bss           0x1040201c        0x4 /home/leon/git/swp-report/iMX6_Platform_SDK/output/mx6dq/smp_primes/evb_rev_a/obj/apps/smp_primes/src/main.o
 .bss           0x10402020     0x9ca0 /home/leon/git/swp-report/iMX6_Platform_SDK/output/mx6dq/smp_primes/evb_rev_a/obj/apps/smp_primes/src/primes.o
                0x10402020                target_count
                0x10402024                prime_numbers
                0x1040bc64                next_number
                0x1040bc68                prime_count
                0x1040bc80                prime_lock
                0x1040bca0                next_num_lock
 .bss           0x1040bcc0        0x0 /home/leon/git/swp-report/iMX6_Platform_SDK/output/mx6dq/lib/libsdk.a(armv7_cache.o)
 .bss           0x1040bcc0        0x0 /home/leon/git/swp-report/iMX6_Platform_SDK/output/mx6dq/lib/libsdk.a(ccm_pll.o)
 .bss           0x1040bcc0        0x0 /home/leon/git/swp-report/iMX6_Platform_SDK/output/mx6dq/lib/libsdk.a(cortexA9.o)
 .bss           0x1040bcc0        0x0 /home/leon/git/swp-report/iMX6_Platform_SDK/output/mx6dq/lib/libsdk.a(gic.o)
 .bss           0x1040bcc0        0x0 /home/leon/git/swp-report/iMX6_Platform_SDK/output/mx6dq/lib/libsdk.a(mmu.o)
 .bss           0x1040bcc0        0x0 /home/leon/git/swp-report/iMX6_Platform_SDK/output/mx6dq/lib/libsdk.a(startup.o)
 .bss           0x1040bcc0        0x0 /home/leon/git/swp-report/iMX6_Platform_SDK/output/mx6dq/lib/libsdk.a(vectors.o)
 .bss           0x1040bcc0        0x0 /home/leon/git/swp-report/iMX6_Platform_SDK/output/mx6dq/lib/libsdk.a(spinlock.o)
 .bss           0x1040bcc0        0x0 /home/leon/git/swp-report/iMX6_Platform_SDK/output/mx6dq/lib/libsdk.a(spinlock_lock_unlock.o)
 .bss           0x1040bcc0        0x0 /home/leon/git/swp-report/iMX6_Platform_SDK/output/mx6dq/lib/libsdk.a(system_util.o)
 .bss           0x1040bcc0        0x0 /home/leon/git/swp-report/iMX6_Platform_SDK/output/mx6dq/lib/libsdk.a(text_color.o)
 .bss           0x1040bcc0        0x0 /home/leon/git/swp-report/iMX6_Platform_SDK/output/mx6dq/lib/libsdk.a(cpu_get_cores.o)
 .bss           0x1040bcc0       0x20 /home/leon/git/swp-report/iMX6_Platform_SDK/output/mx6dq/lib/libsdk.a(cpu_multicore.o)
 .bss           0x1040bce0        0x4 /home/leon/git/swp-report/iMX6_Platform_SDK/output/mx6dq/lib/libsdk.a(timer.o)
                0x1040bce0                g_microsecondTimerMultiple
 .bss           0x1040bce4        0x0 /home/leon/git/swp-report/iMX6_Platform_SDK/output/mx6dq/lib/libsdk.a(imx_uart.o)
 .bss           0x1040bce4        0x0 /home/leon/git/swp-report/iMX6_Platform_SDK/output/mx6dq/lib/libsdk.a(arm_abort.o)
 .bss           0x1040bce4      0x290 /home/leon/git/swp-report/iMX6_Platform_SDK/output/mx6dq/lib/libsdk.a(interrupt.o)
                0x1040bce4                g_interrupt_handlers
                0x1040bf64                g_vectNum
 .bss           0x1040bf74        0x0 /home/leon/git/swp-report/iMX6_Platform_SDK/output/mx6dq/lib/libsdk.a(epit.o)
 .bss           0x1040bf74        0x0 /home/leon/git/swp-report/iMX6_Platform_SDK/output/mx6dq/lib/libsdk.a(abort_handler.o)
 .bss           0x1040bf74       0x48 /home/leon/git/swp-report/iMX6_Platform_SDK/output/mx6dq/lib/libboard_evb_rev_a.a(board_io_expanders.o)
                0x1040bf74                max7310_i2c_req_array
 .bss           0x1040bfbc        0x0 /home/leon/git/swp-report/iMX6_Platform_SDK/output/mx6dq/lib/libboard_evb_rev_a.a(hardware_modules.o)
 .bss           0x1040bfbc        0x0 /home/leon/git/swp-report/iMX6_Platform_SDK/output/mx6dq/lib/libboard_evb_rev_a.a(dcd.o)
 .bss           0x1040bfbc        0x0 /home/leon/git/swp-report/iMX6_Platform_SDK/output/mx6dq/lib/libboard_evb_rev_a.a(uart_iomux_config.o)
 .bss           0x1040bfbc        0x0 /home/leon/git/swp-report/iMX6_Platform_SDK/output/mx6dq/lib/libboard_evb_rev_a.a(iomux_config.o)
 .bss           0x1040bfbc        0x0 /home/leon/git/swp-report/iMX6_Platform_SDK/output/mx6dq/lib/libboard_evb_rev_a.a(ipu1_iomux_config.o)
 .bss           0x1040bfbc        0x0 /home/leon/git/swp-report/iMX6_Platform_SDK/output/mx6dq/lib/libboard_evb_rev_a.a(kpp_iomux_config.o)
 .bss           0x1040bfbc        0x0 /home/leon/git/swp-report/iMX6_Platform_SDK/output/mx6dq/lib/libboard_evb_rev_a.a(mlb_iomux_config.o)
 .bss           0x1040bfbc        0x0 /home/leon/git/swp-report/iMX6_Platform_SDK/output/mx6dq/lib/libboard_evb_rev_a.a(mmdc_iomux_config.o)
 .bss           0x1040bfbc        0x0 /home/leon/git/swp-report/iMX6_Platform_SDK/output/mx6dq/lib/libboard_evb_rev_a.a(pwm1_iomux_config.o)
 .bss           0x1040bfbc        0x0 /home/leon/git/swp-report/iMX6_Platform_SDK/output/mx6dq/lib/libboard_evb_rev_a.a(sjc_iomux_config.o)
 .bss           0x1040bfbc        0x0 /home/leon/git/swp-report/iMX6_Platform_SDK/output/mx6dq/lib/libboard_evb_rev_a.a(spdif_iomux_config.o)
 .bss           0x1040bfbc        0x0 /home/leon/git/swp-report/iMX6_Platform_SDK/output/mx6dq/lib/libboard_evb_rev_a.a(uart2_iomux_config.o)
 .bss           0x1040bfbc        0x0 /home/leon/git/swp-report/iMX6_Platform_SDK/output/mx6dq/lib/libboard_evb_rev_a.a(uart4_iomux_config.o)
 .bss           0x1040bfbc        0x0 /home/leon/git/swp-report/iMX6_Platform_SDK/output/mx6dq/lib/libboard_evb_rev_a.a(usb_iomux_config.o)
 .bss           0x1040bfbc        0x0 /home/leon/git/swp-report/iMX6_Platform_SDK/output/mx6dq/lib/libboard_evb_rev_a.a(usdhc1_iomux_config.o)
 .bss           0x1040bfbc        0x0 /home/leon/git/swp-report/iMX6_Platform_SDK/output/mx6dq/lib/libboard_evb_rev_a.a(usdhc2_iomux_config.o)
 .bss           0x1040bfbc        0x0 /home/leon/git/swp-report/iMX6_Platform_SDK/output/mx6dq/lib/libboard_evb_rev_a.a(usdhc3_iomux_config.o)
 .bss           0x1040bfbc        0x0 /home/leon/git/swp-report/iMX6_Platform_SDK/output/mx6dq/lib/libboard_evb_rev_a.a(usdhc4_iomux_config.o)
 .bss           0x1040bfbc        0x0 /home/leon/git/swp-report/iMX6_Platform_SDK/output/mx6dq/lib/libboard_evb_rev_a.a(ccm_iomux_config.o)
 .bss           0x1040bfbc        0x0 /home/leon/git/swp-report/iMX6_Platform_SDK/output/mx6dq/lib/libboard_evb_rev_a.a(ecspi1_iomux_config.o)
 .bss           0x1040bfbc        0x0 /home/leon/git/swp-report/iMX6_Platform_SDK/output/mx6dq/lib/libboard_evb_rev_a.a(enet_iomux_config.o)
 .bss           0x1040bfbc        0x0 /home/leon/git/swp-report/iMX6_Platform_SDK/output/mx6dq/lib/libboard_evb_rev_a.a(esai_iomux_config.o)
 .bss           0x1040bfbc        0x0 /home/leon/git/swp-report/iMX6_Platform_SDK/output/mx6dq/lib/libboard_evb_rev_a.a(flexcan1_iomux_config.o)
 .bss           0x1040bfbc        0x0 /home/leon/git/swp-report/iMX6_Platform_SDK/output/mx6dq/lib/libboard_evb_rev_a.a(flexcan2_iomux_config.o)
 .bss           0x1040bfbc        0x0 /home/leon/git/swp-report/iMX6_Platform_SDK/output/mx6dq/lib/libboard_evb_rev_a.a(gpio3_iomux_config.o)
 .bss           0x1040bfbc        0x0 /home/leon/git/swp-report/iMX6_Platform_SDK/output/mx6dq/lib/libboard_evb_rev_a.a(gpio4_iomux_config.o)
 .bss           0x1040bfbc        0x0 /home/leon/git/swp-report/iMX6_Platform_SDK/output/mx6dq/lib/libboard_evb_rev_a.a(gpio5_iomux_config.o)
 .bss           0x1040bfbc        0x0 /home/leon/git/swp-report/iMX6_Platform_SDK/output/mx6dq/lib/libboard_evb_rev_a.a(gpio6_iomux_config.o)
 .bss           0x1040bfbc        0x0 /home/leon/git/swp-report/iMX6_Platform_SDK/output/mx6dq/lib/libboard_evb_rev_a.a(gpmi_iomux_config.o)
 .bss           0x1040bfbc        0x0 /home/leon/git/swp-report/iMX6_Platform_SDK/output/mx6dq/lib/libboard_evb_rev_a.a(hdmi_iomux_config.o)
 .bss           0x1040bfbc        0x0 /home/leon/git/swp-report/iMX6_Platform_SDK/output/mx6dq/lib/libboard_evb_rev_a.a(i2c1_iomux_config.o)
 .bss           0x1040bfbc        0x0 /home/leon/git/swp-report/iMX6_Platform_SDK/output/mx6dq/lib/libboard_evb_rev_a.a(i2c2_iomux_config.o)
 .bss           0x1040bfbc        0x0 /home/leon/git/swp-report/iMX6_Platform_SDK/output/mx6dq/lib/libboard_evb_rev_a.a(i2c3_iomux_config.o)
 .bss           0x1040bfbc        0x0 /home/leon/riotboard/arm-2012.09/bin/../arm-none-eabi/lib//libc.a(lib_a-assert.o)
 .bss           0x1040bfbc        0x0 /home/leon/riotboard/arm-2012.09/bin/../arm-none-eabi/lib//libc.a(lib_a-bzero.o)
 .bss           0x1040bfbc        0x0 /home/leon/riotboard/arm-2012.09/bin/../arm-none-eabi/lib//libc.a(lib_a-fiprintf.o)
 .bss           0x1040bfbc        0x0 /home/leon/riotboard/arm-2012.09/bin/../arm-none-eabi/lib//libc.a(lib_a-fputc.o)
 .bss           0x1040bfbc        0x0 /home/leon/riotboard/arm-2012.09/bin/../arm-none-eabi/lib//libc.a(lib_a-impure.o)
 .bss           0x1040bfbc        0x0 /home/leon/riotboard/arm-2012.09/bin/../arm-none-eabi/lib//libc.a(lib_a-init.o)
 .bss           0x1040bfbc        0x0 /home/leon/riotboard/arm-2012.09/bin/../arm-none-eabi/lib//libc.a(lib_a-malloc.o)
 .bss           0x1040bfbc       0x34 /home/leon/riotboard/arm-2012.09/bin/../arm-none-eabi/lib//libc.a(lib_a-mallocr.o)
                0x1040bfbc                __malloc_top_pad
                0x1040bfc0                __malloc_current_mallinfo
                0x1040bfe8                __malloc_max_sbrked_mem
                0x1040bfec                __malloc_max_total_mem
 .bss           0x1040bff0        0x0 /home/leon/riotboard/arm-2012.09/bin/../arm-none-eabi/lib//libc.a(lib_a-mlock.o)
 .bss           0x1040bff0        0x0 /home/leon/riotboard/arm-2012.09/bin/../arm-none-eabi/lib//libc.a(lib_a-printf.o)
 .bss           0x1040bff0        0x0 /home/leon/riotboard/arm-2012.09/bin/../arm-none-eabi/lib//libc.a(lib_a-putc.o)
 .bss           0x1040bff0        0x0 /home/leon/riotboard/arm-2012.09/bin/../arm-none-eabi/lib//libc.a(lib_a-realloc.o)
 .bss           0x1040bff0        0x0 /home/leon/riotboard/arm-2012.09/bin/../arm-none-eabi/lib//libc.a(lib_a-reallocr.o)
 .bss           0x1040bff0        0x0 /home/leon/riotboard/arm-2012.09/bin/../arm-none-eabi/lib//libc.a(lib_a-rget.o)
 .bss           0x1040bff0        0x0 /home/leon/riotboard/arm-2012.09/bin/../arm-none-eabi/lib//libc.a(lib_a-sbrkr.o)
 .bss           0x1040bff0        0x0 /home/leon/riotboard/arm-2012.09/bin/../arm-none-eabi/lib//libc.a(lib_a-vfiprintf.o)
 .bss           0x1040bff0        0x0 /home/leon/riotboard/arm-2012.09/bin/../arm-none-eabi/lib//libc.a(lib_a-vfprintf.o)
 .bss           0x1040bff0        0x0 /home/leon/riotboard/arm-2012.09/bin/../arm-none-eabi/lib//libc.a(lib_a-vprintf.o)
 .bss           0x1040bff0        0x0 /home/leon/riotboard/arm-2012.09/bin/../arm-none-eabi/lib//libc.a(lib_a-wbuf.o)
 .bss           0x1040bff0        0x0 /home/leon/riotboard/arm-2012.09/bin/../arm-none-eabi/lib//libc.a(lib_a-wsetup.o)
 .bss           0x1040bff0        0x0 /home/leon/riotboard/arm-2012.09/bin/../arm-none-eabi/lib//libc.a(lib_a-abort.o)
 .bss           0x1040bff0        0x0 /home/leon/riotboard/arm-2012.09/bin/../arm-none-eabi/lib//libc.a(lib_a-dtoa.o)
 .bss           0x1040bff0        0x0 /home/leon/riotboard/arm-2012.09/bin/../arm-none-eabi/lib//libc.a(lib_a-fflush.o)
 .bss           0x1040bff0        0x0 /home/leon/riotboard/arm-2012.09/bin/../arm-none-eabi/lib//libc.a(lib_a-findfp.o)
 .bss           0x1040bff0        0x0 /home/leon/riotboard/arm-2012.09/bin/../arm-none-eabi/lib//libc.a(lib_a-fputwc.o)
 .bss           0x1040bff0        0x0 /home/leon/riotboard/arm-2012.09/bin/../arm-none-eabi/lib//libc.a(lib_a-freer.o)
 .bss           0x1040bff0        0x0 /home/leon/riotboard/arm-2012.09/bin/../arm-none-eabi/lib//libc.a(lib_a-fvwrite.o)
 .bss           0x1040bff0        0x0 /home/leon/riotboard/arm-2012.09/bin/../arm-none-eabi/lib//libc.a(lib_a-fwalk.o)
 .bss           0x1040bff0        0xc /home/leon/riotboard/arm-2012.09/bin/../arm-none-eabi/lib//libc.a(lib_a-locale.o)
                0x1040bff0                _PathLocale
                0x1040bff4                __mlocale_changed
                0x1040bff8                __nlocale_changed
 .bss           0x1040bffc        0x0 /home/leon/riotboard/arm-2012.09/bin/../arm-none-eabi/lib//libc.a(lib_a-makebuf.o)
 .bss           0x1040bffc        0x0 /home/leon/riotboard/arm-2012.09/bin/../arm-none-eabi/lib//libc.a(lib_a-memchr.o)
 .bss           0x1040bffc        0x0 /home/leon/riotboard/arm-2012.09/bin/../arm-none-eabi/lib//libc.a(lib_a-memcpy.o)
 .bss           0x1040bffc        0x0 /home/leon/riotboard/arm-2012.09/bin/../arm-none-eabi/lib//libc.a(lib_a-memmove.o)
 .bss           0x1040bffc        0x0 /home/leon/riotboard/arm-2012.09/bin/../arm-none-eabi/lib//libc.a(lib_a-memset.o)
 .bss           0x1040bffc        0x0 /home/leon/riotboard/arm-2012.09/bin/../arm-none-eabi/lib//libc.a(lib_a-mprec.o)
 .bss           0x1040bffc        0x0 /home/leon/riotboard/arm-2012.09/bin/../arm-none-eabi/lib//libc.a(lib_a-reent.o)
 .bss           0x1040bffc        0x0 /home/leon/riotboard/arm-2012.09/bin/../arm-none-eabi/lib//libc.a(lib_a-refill.o)
 .bss           0x1040bffc        0x0 /home/leon/riotboard/arm-2012.09/bin/../arm-none-eabi/lib//libc.a(lib_a-s_fpclassify.o)
 .bss           0x1040bffc        0x0 /home/leon/riotboard/arm-2012.09/bin/../arm-none-eabi/lib//libc.a(lib_a-signal.o)
 .bss           0x1040bffc        0x0 /home/leon/riotboard/arm-2012.09/bin/../arm-none-eabi/lib//libc.a(lib_a-signalr.o)
 .bss           0x1040bffc        0x0 /home/leon/riotboard/arm-2012.09/bin/../arm-none-eabi/lib//libc.a(lib_a-stdio.o)
 .bss           0x1040bffc        0x0 /home/leon/riotboard/arm-2012.09/bin/../arm-none-eabi/lib//libc.a(lib_a-strcmp.o)
 .bss           0x1040bffc        0x0 /home/leon/riotboard/arm-2012.09/bin/../arm-none-eabi/lib//libc.a(lib_a-strlen.o)
 .bss           0x1040bffc        0x0 /home/leon/riotboard/arm-2012.09/bin/../arm-none-eabi/lib//libc.a(lib_a-wcrtomb.o)
 .bss           0x1040bffc        0x0 /home/leon/riotboard/arm-2012.09/bin/../arm-none-eabi/lib//libc.a(lib_a-wctomb_r.o)
 .bss           0x1040bffc        0x0 /home/leon/riotboard/arm-2012.09/bin/../arm-none-eabi/lib//libc.a(lib_a-writer.o)
 .bss           0x1040bffc        0x0 /home/leon/riotboard/arm-2012.09/bin/../arm-none-eabi/lib//libc.a(lib_a-callocr.o)
 .bss           0x1040bffc        0x0 /home/leon/riotboard/arm-2012.09/bin/../arm-none-eabi/lib//libc.a(lib_a-closer.o)
 .bss           0x1040bffc        0x0 /home/leon/riotboard/arm-2012.09/bin/../arm-none-eabi/lib//libc.a(lib_a-fclose.o)
 .bss           0x1040bffc        0x0 /home/leon/riotboard/arm-2012.09/bin/../arm-none-eabi/lib//libc.a(lib_a-fstatr.o)
 .bss           0x1040bffc        0x0 /home/leon/riotboard/arm-2012.09/bin/../arm-none-eabi/lib//libc.a(lib_a-isattyr.o)
 .bss           0x1040bffc        0x0 /home/leon/riotboard/arm-2012.09/bin/../arm-none-eabi/lib//libc.a(lib_a-lseekr.o)
 .bss           0x1040bffc        0x0 /home/leon/riotboard/arm-2012.09/bin/../arm-none-eabi/lib//libc.a(lib_a-readr.o)
 .bss           0x1040bffc        0x0 /home/leon/riotboard/arm-2012.09/bin/../lib/gcc/arm-none-eabi/4.7.2//libgcc.a(_udivsi3.o)
 .bss           0x1040bffc        0x0 /home/leon/riotboard/arm-2012.09/bin/../lib/gcc/arm-none-eabi/4.7.2//libgcc.a(_divsi3.o)
 .bss           0x1040bffc        0x0 /home/leon/riotboard/arm-2012.09/bin/../lib/gcc/arm-none-eabi/4.7.2//libgcc.a(_dvmd_tls.o)
 .bss           0x1040bffc        0x0 /home/leon/riotboard/arm-2012.09/bin/../lib/gcc/arm-none-eabi/4.7.2//libgcc.a(_arm_addsubdf3.o)
 .bss           0x1040bffc        0x0 /home/leon/riotboard/arm-2012.09/bin/../lib/gcc/arm-none-eabi/4.7.2//libgcc.a(_arm_muldivdf3.o)
 .bss           0x1040bffc        0x0 /home/leon/riotboard/arm-2012.09/bin/../lib/gcc/arm-none-eabi/4.7.2//libgcc.a(_arm_cmpdf2.o)
 .bss           0x1040bffc        0x0 /home/leon/riotboard/arm-2012.09/bin/../lib/gcc/arm-none-eabi/4.7.2//libgcc.a(_arm_fixdfsi.o)
 .bss           0x1040bffc        0x0 /home/leon/riotboard/arm-2012.09/bin/../lib/gcc/arm-none-eabi/4.7.2//libgcc.a(_aeabi_uldivmod.o)
 .bss           0x1040bffc        0x0 /home/leon/riotboard/arm-2012.09/bin/../lib/gcc/arm-none-eabi/4.7.2//libgcc.a(bpabi.o)
 .bss           0x1040bffc        0x0 /home/leon/riotboard/arm-2012.09/bin/../lib/gcc/arm-none-eabi/4.7.2//libgcc.a(_divdi3.o)
 .bss           0x1040bffc        0x0 /home/leon/riotboard/arm-2012.09/bin/../lib/gcc/arm-none-eabi/4.7.2//libgcc.a(_udivdi3.o)
 .bss           0x1040bffc        0x0 /home/leon/riotboard/arm-2012.09/bin/../lib/gcc/arm-none-eabi/4.7.2//libgcc.a(_clzsi2.o)
 .bss           0x1040bffc        0x4 /home/leon/git/swp-report/iMX6_Platform_SDK/output/mx6dq/lib/libsdk.a(max7310.o)
 .bss           0x1040c000        0xc /home/leon/git/swp-report/iMX6_Platform_SDK/output/mx6dq/lib/libsdk.a(runtime_support.o)
                0x1040c000                __env
 .bss           0x1040c00c        0x0 /home/leon/git/swp-report/iMX6_Platform_SDK/output/mx6dq/lib/libsdk.a(imx_i2c.o)
 .bss           0x1040c00c        0x0 /home/leon/git/swp-report/iMX6_Platform_SDK/output/mx6dq/lib/libboard_evb_rev_a.a(i2c_iomux_config.o)
 *(COMMON)
 COMMON         0x1040c00c        0x4 /home/leon/riotboard/arm-2012.09/bin/../arm-none-eabi/lib//libc.a(lib_a-reent.o)
                0x1040c00c                errno
 *(.bss)
                0x1040c010                __bss_end__ = .

.stacks         0x1040c010     0xc000
                0x1040c010                __stacks_start = .
                0x10418010                . = (. + 0xc000)
 *fill*         0x1040c010     0xc000 
                0x10418010                __stacks_end = .
                0x10418010                top_of_stacks = .
                0x10418020                free_memory_start = ALIGN (0x20)
                0x18418010                . = (. + 0x8000000)
                0x18418010                free_memory_end = .
                0x18418010                _end = .
START GROUP
LOAD /home/leon/git/swp-report/iMX6_Platform_SDK/output/mx6dq/smp_primes/evb_rev_a/obj/apps/common/ivt.o
LOAD /home/leon/git/swp-report/iMX6_Platform_SDK/output/mx6dq/smp_primes/evb_rev_a/obj/apps/common/platform_init.o
LOAD /home/leon/git/swp-report/iMX6_Platform_SDK/output/mx6dq/smp_primes/evb_rev_a/obj/apps/smp_primes/src/main.o
LOAD /home/leon/git/swp-report/iMX6_Platform_SDK/output/mx6dq/smp_primes/evb_rev_a/obj/apps/smp_primes/src/primes.o
LOAD /home/leon/git/swp-report/iMX6_Platform_SDK/output/mx6dq/lib/libsdk.a
LOAD /home/leon/git/swp-report/iMX6_Platform_SDK/output/mx6dq/lib/libboard_evb_rev_a.a
LOAD /home/leon/riotboard/arm-2012.09/bin/../arm-none-eabi/lib//libm.a
LOAD /home/leon/riotboard/arm-2012.09/bin/../arm-none-eabi/lib//libstdc++.a
LOAD /home/leon/riotboard/arm-2012.09/bin/../arm-none-eabi/lib//libc.a
LOAD /home/leon/riotboard/arm-2012.09/bin/../lib/gcc/arm-none-eabi/4.7.2//libgcc.a
END GROUP
OUTPUT(/home/leon/git/swp-report/iMX6_Platform_SDK/output/mx6dq/smp_primes/evb_rev_a/smp_primes.elf elf32-littlearm)

.ARM.attributes
                0x00000000       0x3b
 .ARM.attributes
                0x00000000       0x30 /home/leon/riotboard/arm-2012.09/bin/../lib/gcc/arm-none-eabi/4.7.2//crtbegin.o
 .ARM.attributes
                0x00000030       0x16 /home/leon/riotboard/arm-2012.09/bin/../lib/gcc/arm-none-eabi/4.7.2//crti.o
 .ARM.attributes
                0x00000046       0x30 /home/leon/riotboard/arm-2012.09/bin/../lib/gcc/arm-none-eabi/4.7.2//crtend.o
 .ARM.attributes
                0x00000076       0x18 /home/leon/riotboard/arm-2012.09/bin/../lib/gcc/arm-none-eabi/4.7.2//crtn.o
 .ARM.attributes
                0x0000008e       0x39 /home/leon/git/swp-report/iMX6_Platform_SDK/output/mx6dq/smp_primes/evb_rev_a/obj/apps/common/ivt.o
 .ARM.attributes
                0x000000c7       0x39 /home/leon/git/swp-report/iMX6_Platform_SDK/output/mx6dq/smp_primes/evb_rev_a/obj/apps/common/platform_init.o
 .ARM.attributes
                0x00000100       0x39 /home/leon/git/swp-report/iMX6_Platform_SDK/output/mx6dq/smp_primes/evb_rev_a/obj/apps/smp_primes/src/main.o
 .ARM.attributes
                0x00000139       0x39 /home/leon/git/swp-report/iMX6_Platform_SDK/output/mx6dq/smp_primes/evb_rev_a/obj/apps/smp_primes/src/primes.o
 .ARM.attributes
                0x00000172       0x39 /home/leon/git/swp-report/iMX6_Platform_SDK/output/mx6dq/lib/libsdk.a(armv7_cache.o)
 .ARM.attributes
                0x000001ab       0x39 /home/leon/git/swp-report/iMX6_Platform_SDK/output/mx6dq/lib/libsdk.a(ccm_pll.o)
 .ARM.attributes
                0x000001e4       0x16 /home/leon/git/swp-report/iMX6_Platform_SDK/output/mx6dq/lib/libsdk.a(cortexA9.o)
 .ARM.attributes
                0x000001fa       0x39 /home/leon/git/swp-report/iMX6_Platform_SDK/output/mx6dq/lib/libsdk.a(gic.o)
 .ARM.attributes
                0x00000233       0x39 /home/leon/git/swp-report/iMX6_Platform_SDK/output/mx6dq/lib/libsdk.a(mmu.o)
 .ARM.attributes
                0x0000026c       0x16 /home/leon/git/swp-report/iMX6_Platform_SDK/output/mx6dq/lib/libsdk.a(startup.o)
 .ARM.attributes
                0x00000282       0x14 /home/leon/git/swp-report/iMX6_Platform_SDK/output/mx6dq/lib/libsdk.a(vectors.o)
 .ARM.attributes
                0x00000296       0x39 /home/leon/git/swp-report/iMX6_Platform_SDK/output/mx6dq/lib/libsdk.a(spinlock.o)
 .ARM.attributes
                0x000002cf       0x16 /home/leon/git/swp-report/iMX6_Platform_SDK/output/mx6dq/lib/libsdk.a(spinlock_lock_unlock.o)
 .ARM.attributes
                0x000002e5       0x39 /home/leon/git/swp-report/iMX6_Platform_SDK/output/mx6dq/lib/libsdk.a(system_util.o)
 .ARM.attributes
                0x0000031e       0x39 /home/leon/git/swp-report/iMX6_Platform_SDK/output/mx6dq/lib/libsdk.a(text_color.o)
 .ARM.attributes
                0x00000357       0x39 /home/leon/git/swp-report/iMX6_Platform_SDK/output/mx6dq/lib/libsdk.a(cpu_get_cores.o)
 .ARM.attributes
                0x00000390       0x39 /home/leon/git/swp-report/iMX6_Platform_SDK/output/mx6dq/lib/libsdk.a(cpu_multicore.o)
 .ARM.attributes
                0x000003c9       0x39 /home/leon/git/swp-report/iMX6_Platform_SDK/output/mx6dq/lib/libsdk.a(timer.o)
 .ARM.attributes
                0x00000402       0x39 /home/leon/git/swp-report/iMX6_Platform_SDK/output/mx6dq/lib/libsdk.a(imx_uart.o)
 .ARM.attributes
                0x0000043b       0x14 /home/leon/git/swp-report/iMX6_Platform_SDK/output/mx6dq/lib/libsdk.a(arm_abort.o)
 .ARM.attributes
                0x0000044f       0x39 /home/leon/git/swp-report/iMX6_Platform_SDK/output/mx6dq/lib/libsdk.a(interrupt.o)
 .ARM.attributes
                0x00000488       0x39 /home/leon/git/swp-report/iMX6_Platform_SDK/output/mx6dq/lib/libsdk.a(epit.o)
 .ARM.attributes
                0x000004c1       0x39 /home/leon/git/swp-report/iMX6_Platform_SDK/output/mx6dq/lib/libsdk.a(abort_handler.o)
 .ARM.attributes
                0x000004fa       0x39 /home/leon/git/swp-report/iMX6_Platform_SDK/output/mx6dq/lib/libboard_evb_rev_a.a(board_io_expanders.o)
 .ARM.attributes
                0x00000533       0x39 /home/leon/git/swp-report/iMX6_Platform_SDK/output/mx6dq/lib/libboard_evb_rev_a.a(hardware_modules.o)
 .ARM.attributes
                0x0000056c       0x39 /home/leon/git/swp-report/iMX6_Platform_SDK/output/mx6dq/lib/libboard_evb_rev_a.a(dcd.o)
 .ARM.attributes
                0x000005a5       0x39 /home/leon/git/swp-report/iMX6_Platform_SDK/output/mx6dq/lib/libboard_evb_rev_a.a(uart_iomux_config.o)
 .ARM.attributes
                0x000005de       0x39 /home/leon/git/swp-report/iMX6_Platform_SDK/output/mx6dq/lib/libboard_evb_rev_a.a(iomux_config.o)
 .ARM.attributes
                0x00000617       0x39 /home/leon/git/swp-report/iMX6_Platform_SDK/output/mx6dq/lib/libboard_evb_rev_a.a(ipu1_iomux_config.o)
 .ARM.attributes
                0x00000650       0x39 /home/leon/git/swp-report/iMX6_Platform_SDK/output/mx6dq/lib/libboard_evb_rev_a.a(kpp_iomux_config.o)
 .ARM.attributes
                0x00000689       0x39 /home/leon/git/swp-report/iMX6_Platform_SDK/output/mx6dq/lib/libboard_evb_rev_a.a(mlb_iomux_config.o)
 .ARM.attributes
                0x000006c2       0x39 /home/leon/git/swp-report/iMX6_Platform_SDK/output/mx6dq/lib/libboard_evb_rev_a.a(mmdc_iomux_config.o)
 .ARM.attributes
                0x000006fb       0x39 /home/leon/git/swp-report/iMX6_Platform_SDK/output/mx6dq/lib/libboard_evb_rev_a.a(pwm1_iomux_config.o)
 .ARM.attributes
                0x00000734       0x39 /home/leon/git/swp-report/iMX6_Platform_SDK/output/mx6dq/lib/libboard_evb_rev_a.a(sjc_iomux_config.o)
 .ARM.attributes
                0x0000076d       0x39 /home/leon/git/swp-report/iMX6_Platform_SDK/output/mx6dq/lib/libboard_evb_rev_a.a(spdif_iomux_config.o)
 .ARM.attributes
                0x000007a6       0x39 /home/leon/git/swp-report/iMX6_Platform_SDK/output/mx6dq/lib/libboard_evb_rev_a.a(uart2_iomux_config.o)
 .ARM.attributes
                0x000007df       0x39 /home/leon/git/swp-report/iMX6_Platform_SDK/output/mx6dq/lib/libboard_evb_rev_a.a(uart4_iomux_config.o)
 .ARM.attributes
                0x00000818       0x39 /home/leon/git/swp-report/iMX6_Platform_SDK/output/mx6dq/lib/libboard_evb_rev_a.a(usb_iomux_config.o)
 .ARM.attributes
                0x00000851       0x39 /home/leon/git/swp-report/iMX6_Platform_SDK/output/mx6dq/lib/libboard_evb_rev_a.a(usdhc1_iomux_config.o)
 .ARM.attributes
                0x0000088a       0x39 /home/leon/git/swp-report/iMX6_Platform_SDK/output/mx6dq/lib/libboard_evb_rev_a.a(usdhc2_iomux_config.o)
 .ARM.attributes
                0x000008c3       0x39 /home/leon/git/swp-report/iMX6_Platform_SDK/output/mx6dq/lib/libboard_evb_rev_a.a(usdhc3_iomux_config.o)
 .ARM.attributes
                0x000008fc       0x39 /home/leon/git/swp-report/iMX6_Platform_SDK/output/mx6dq/lib/libboard_evb_rev_a.a(usdhc4_iomux_config.o)
 .ARM.attributes
                0x00000935       0x39 /home/leon/git/swp-report/iMX6_Platform_SDK/output/mx6dq/lib/libboard_evb_rev_a.a(ccm_iomux_config.o)
 .ARM.attributes
                0x0000096e       0x39 /home/leon/git/swp-report/iMX6_Platform_SDK/output/mx6dq/lib/libboard_evb_rev_a.a(ecspi1_iomux_config.o)
 .ARM.attributes
                0x000009a7       0x39 /home/leon/git/swp-report/iMX6_Platform_SDK/output/mx6dq/lib/libboard_evb_rev_a.a(enet_iomux_config.o)
 .ARM.attributes
                0x000009e0       0x39 /home/leon/git/swp-report/iMX6_Platform_SDK/output/mx6dq/lib/libboard_evb_rev_a.a(esai_iomux_config.o)
 .ARM.attributes
                0x00000a19       0x39 /home/leon/git/swp-report/iMX6_Platform_SDK/output/mx6dq/lib/libboard_evb_rev_a.a(flexcan1_iomux_config.o)
 .ARM.attributes
                0x00000a52       0x39 /home/leon/git/swp-report/iMX6_Platform_SDK/output/mx6dq/lib/libboard_evb_rev_a.a(flexcan2_iomux_config.o)
 .ARM.attributes
                0x00000a8b       0x39 /home/leon/git/swp-report/iMX6_Platform_SDK/output/mx6dq/lib/libboard_evb_rev_a.a(gpio3_iomux_config.o)
 .ARM.attributes
                0x00000ac4       0x39 /home/leon/git/swp-report/iMX6_Platform_SDK/output/mx6dq/lib/libboard_evb_rev_a.a(gpio4_iomux_config.o)
 .ARM.attributes
                0x00000afd       0x39 /home/leon/git/swp-report/iMX6_Platform_SDK/output/mx6dq/lib/libboard_evb_rev_a.a(gpio5_iomux_config.o)
 .ARM.attributes
                0x00000b36       0x39 /home/leon/git/swp-report/iMX6_Platform_SDK/output/mx6dq/lib/libboard_evb_rev_a.a(gpio6_iomux_config.o)
 .ARM.attributes
                0x00000b6f       0x39 /home/leon/git/swp-report/iMX6_Platform_SDK/output/mx6dq/lib/libboard_evb_rev_a.a(gpmi_iomux_config.o)
 .ARM.attributes
                0x00000ba8       0x39 /home/leon/git/swp-report/iMX6_Platform_SDK/output/mx6dq/lib/libboard_evb_rev_a.a(hdmi_iomux_config.o)
 .ARM.attributes
                0x00000be1       0x39 /home/leon/git/swp-report/iMX6_Platform_SDK/output/mx6dq/lib/libboard_evb_rev_a.a(i2c1_iomux_config.o)
 .ARM.attributes
                0x00000c1a       0x39 /home/leon/git/swp-report/iMX6_Platform_SDK/output/mx6dq/lib/libboard_evb_rev_a.a(i2c2_iomux_config.o)
 .ARM.attributes
                0x00000c53       0x39 /home/leon/git/swp-report/iMX6_Platform_SDK/output/mx6dq/lib/libboard_evb_rev_a.a(i2c3_iomux_config.o)
 .ARM.attributes
                0x00000c8c       0x30 /home/leon/riotboard/arm-2012.09/bin/../arm-none-eabi/lib//libc.a(lib_a-assert.o)
 .ARM.attributes
                0x00000cbc       0x30 /home/leon/riotboard/arm-2012.09/bin/../arm-none-eabi/lib//libc.a(lib_a-bzero.o)
 .ARM.attributes
                0x00000cec       0x30 /home/leon/riotboard/arm-2012.09/bin/../arm-none-eabi/lib//libc.a(lib_a-fiprintf.o)
 .ARM.attributes
                0x00000d1c       0x30 /home/leon/riotboard/arm-2012.09/bin/../arm-none-eabi/lib//libc.a(lib_a-fputc.o)
 .ARM.attributes
                0x00000d4c       0x30 /home/leon/riotboard/arm-2012.09/bin/../arm-none-eabi/lib//libc.a(lib_a-impure.o)
 .ARM.attributes
                0x00000d7c       0x30 /home/leon/riotboard/arm-2012.09/bin/../arm-none-eabi/lib//libc.a(lib_a-init.o)
 .ARM.attributes
                0x00000dac       0x30 /home/leon/riotboard/arm-2012.09/bin/../arm-none-eabi/lib//libc.a(lib_a-malloc.o)
 .ARM.attributes
                0x00000ddc       0x30 /home/leon/riotboard/arm-2012.09/bin/../arm-none-eabi/lib//libc.a(lib_a-mallocr.o)
 .ARM.attributes
                0x00000e0c       0x30 /home/leon/riotboard/arm-2012.09/bin/../arm-none-eabi/lib//libc.a(lib_a-mlock.o)
 .ARM.attributes
                0x00000e3c       0x30 /home/leon/riotboard/arm-2012.09/bin/../arm-none-eabi/lib//libc.a(lib_a-printf.o)
 .ARM.attributes
                0x00000e6c       0x30 /home/leon/riotboard/arm-2012.09/bin/../arm-none-eabi/lib//libc.a(lib_a-putc.o)
 .ARM.attributes
                0x00000e9c       0x30 /home/leon/riotboard/arm-2012.09/bin/../arm-none-eabi/lib//libc.a(lib_a-realloc.o)
 .ARM.attributes
                0x00000ecc       0x30 /home/leon/riotboard/arm-2012.09/bin/../arm-none-eabi/lib//libc.a(lib_a-reallocr.o)
 .ARM.attributes
                0x00000efc       0x30 /home/leon/riotboard/arm-2012.09/bin/../arm-none-eabi/lib//libc.a(lib_a-rget.o)
 .ARM.attributes
                0x00000f2c       0x30 /home/leon/riotboard/arm-2012.09/bin/../arm-none-eabi/lib//libc.a(lib_a-sbrkr.o)
 .ARM.attributes
                0x00000f5c       0x30 /home/leon/riotboard/arm-2012.09/bin/../arm-none-eabi/lib//libc.a(lib_a-vfiprintf.o)
 .ARM.attributes
                0x00000f8c       0x30 /home/leon/riotboard/arm-2012.09/bin/../arm-none-eabi/lib//libc.a(lib_a-vfprintf.o)
 .ARM.attributes
                0x00000fbc       0x30 /home/leon/riotboard/arm-2012.09/bin/../arm-none-eabi/lib//libc.a(lib_a-vprintf.o)
 .ARM.attributes
                0x00000fec       0x30 /home/leon/riotboard/arm-2012.09/bin/../arm-none-eabi/lib//libc.a(lib_a-wbuf.o)
 .ARM.attributes
                0x0000101c       0x30 /home/leon/riotboard/arm-2012.09/bin/../arm-none-eabi/lib//libc.a(lib_a-wsetup.o)
 .ARM.attributes
                0x0000104c       0x30 /home/leon/riotboard/arm-2012.09/bin/../arm-none-eabi/lib//libc.a(lib_a-abort.o)
 .ARM.attributes
                0x0000107c       0x30 /home/leon/riotboard/arm-2012.09/bin/../arm-none-eabi/lib//libc.a(lib_a-dtoa.o)
 .ARM.attributes
                0x000010ac       0x30 /home/leon/riotboard/arm-2012.09/bin/../arm-none-eabi/lib//libc.a(lib_a-fflush.o)
 .ARM.attributes
                0x000010dc       0x30 /home/leon/riotboard/arm-2012.09/bin/../arm-none-eabi/lib//libc.a(lib_a-findfp.o)
 .ARM.attributes
                0x0000110c       0x30 /home/leon/riotboard/arm-2012.09/bin/../arm-none-eabi/lib//libc.a(lib_a-fputwc.o)
 .ARM.attributes
                0x0000113c       0x30 /home/leon/riotboard/arm-2012.09/bin/../arm-none-eabi/lib//libc.a(lib_a-freer.o)
 .ARM.attributes
                0x0000116c       0x30 /home/leon/riotboard/arm-2012.09/bin/../arm-none-eabi/lib//libc.a(lib_a-fvwrite.o)
 .ARM.attributes
                0x0000119c       0x30 /home/leon/riotboard/arm-2012.09/bin/../arm-none-eabi/lib//libc.a(lib_a-fwalk.o)
 .ARM.attributes
                0x000011cc       0x30 /home/leon/riotboard/arm-2012.09/bin/../arm-none-eabi/lib//libc.a(lib_a-locale.o)
 .ARM.attributes
                0x000011fc       0x30 /home/leon/riotboard/arm-2012.09/bin/../arm-none-eabi/lib//libc.a(lib_a-makebuf.o)
 .ARM.attributes
                0x0000122c       0x30 /home/leon/riotboard/arm-2012.09/bin/../arm-none-eabi/lib//libc.a(lib_a-memchr.o)
 .ARM.attributes
                0x0000125c       0x30 /home/leon/riotboard/arm-2012.09/bin/../arm-none-eabi/lib//libc.a(lib_a-memcpy.o)
 .ARM.attributes
                0x0000128c       0x30 /home/leon/riotboard/arm-2012.09/bin/../arm-none-eabi/lib//libc.a(lib_a-memmove.o)
 .ARM.attributes
                0x000012bc       0x30 /home/leon/riotboard/arm-2012.09/bin/../arm-none-eabi/lib//libc.a(lib_a-memset.o)
 .ARM.attributes
                0x000012ec       0x30 /home/leon/riotboard/arm-2012.09/bin/../arm-none-eabi/lib//libc.a(lib_a-mprec.o)
 .ARM.attributes
                0x0000131c       0x30 /home/leon/riotboard/arm-2012.09/bin/../arm-none-eabi/lib//libc.a(lib_a-reent.o)
 .ARM.attributes
                0x0000134c       0x30 /home/leon/riotboard/arm-2012.09/bin/../arm-none-eabi/lib//libc.a(lib_a-refill.o)
 .ARM.attributes
                0x0000137c       0x30 /home/leon/riotboard/arm-2012.09/bin/../arm-none-eabi/lib//libc.a(lib_a-s_fpclassify.o)
 .ARM.attributes
                0x000013ac       0x30 /home/leon/riotboard/arm-2012.09/bin/../arm-none-eabi/lib//libc.a(lib_a-signal.o)
 .ARM.attributes
                0x000013dc       0x30 /home/leon/riotboard/arm-2012.09/bin/../arm-none-eabi/lib//libc.a(lib_a-signalr.o)
 .ARM.attributes
                0x0000140c       0x30 /home/leon/riotboard/arm-2012.09/bin/../arm-none-eabi/lib//libc.a(lib_a-stdio.o)
 .ARM.attributes
                0x0000143c       0x30 /home/leon/riotboard/arm-2012.09/bin/../arm-none-eabi/lib//libc.a(lib_a-strcmp.o)
 .ARM.attributes
                0x0000146c       0x30 /home/leon/riotboard/arm-2012.09/bin/../arm-none-eabi/lib//libc.a(lib_a-strlen.o)
 .ARM.attributes
                0x0000149c       0x30 /home/leon/riotboard/arm-2012.09/bin/../arm-none-eabi/lib//libc.a(lib_a-wcrtomb.o)
 .ARM.attributes
                0x000014cc       0x30 /home/leon/riotboard/arm-2012.09/bin/../arm-none-eabi/lib//libc.a(lib_a-wctomb_r.o)
 .ARM.attributes
                0x000014fc       0x30 /home/leon/riotboard/arm-2012.09/bin/../arm-none-eabi/lib//libc.a(lib_a-writer.o)
 .ARM.attributes
                0x0000152c       0x30 /home/leon/riotboard/arm-2012.09/bin/../arm-none-eabi/lib//libc.a(lib_a-callocr.o)
 .ARM.attributes
                0x0000155c       0x30 /home/leon/riotboard/arm-2012.09/bin/../arm-none-eabi/lib//libc.a(lib_a-closer.o)
 .ARM.attributes
                0x0000158c       0x30 /home/leon/riotboard/arm-2012.09/bin/../arm-none-eabi/lib//libc.a(lib_a-fclose.o)
 .ARM.attributes
                0x000015bc       0x30 /home/leon/riotboard/arm-2012.09/bin/../arm-none-eabi/lib//libc.a(lib_a-fstatr.o)
 .ARM.attributes
                0x000015ec       0x30 /home/leon/riotboard/arm-2012.09/bin/../arm-none-eabi/lib//libc.a(lib_a-isattyr.o)
 .ARM.attributes
                0x0000161c       0x30 /home/leon/riotboard/arm-2012.09/bin/../arm-none-eabi/lib//libc.a(lib_a-lseekr.o)
 .ARM.attributes
                0x0000164c       0x30 /home/leon/riotboard/arm-2012.09/bin/../arm-none-eabi/lib//libc.a(lib_a-readr.o)
 .ARM.attributes
                0x0000167c       0x18 /home/leon/riotboard/arm-2012.09/bin/../lib/gcc/arm-none-eabi/4.7.2//libgcc.a(_udivsi3.o)
 .ARM.attributes
                0x00001694       0x18 /home/leon/riotboard/arm-2012.09/bin/../lib/gcc/arm-none-eabi/4.7.2//libgcc.a(_divsi3.o)
 .ARM.attributes
                0x000016ac       0x18 /home/leon/riotboard/arm-2012.09/bin/../lib/gcc/arm-none-eabi/4.7.2//libgcc.a(_dvmd_tls.o)
 .ARM.attributes
                0x000016c4       0x18 /home/leon/riotboard/arm-2012.09/bin/../lib/gcc/arm-none-eabi/4.7.2//libgcc.a(_arm_addsubdf3.o)
 .ARM.attributes
                0x000016dc       0x18 /home/leon/riotboard/arm-2012.09/bin/../lib/gcc/arm-none-eabi/4.7.2//libgcc.a(_arm_muldivdf3.o)
 .ARM.attributes
                0x000016f4       0x18 /home/leon/riotboard/arm-2012.09/bin/../lib/gcc/arm-none-eabi/4.7.2//libgcc.a(_arm_cmpdf2.o)
 .ARM.attributes
                0x0000170c       0x18 /home/leon/riotboard/arm-2012.09/bin/../lib/gcc/arm-none-eabi/4.7.2//libgcc.a(_arm_fixdfsi.o)
 .ARM.attributes
                0x00001724       0x18 /home/leon/riotboard/arm-2012.09/bin/../lib/gcc/arm-none-eabi/4.7.2//libgcc.a(_aeabi_uldivmod.o)
 .ARM.attributes
                0x0000173c       0x30 /home/leon/riotboard/arm-2012.09/bin/../lib/gcc/arm-none-eabi/4.7.2//libgcc.a(bpabi.o)
 .ARM.attributes
                0x0000176c       0x30 /home/leon/riotboard/arm-2012.09/bin/../lib/gcc/arm-none-eabi/4.7.2//libgcc.a(_divdi3.o)
 .ARM.attributes
                0x0000179c       0x30 /home/leon/riotboard/arm-2012.09/bin/../lib/gcc/arm-none-eabi/4.7.2//libgcc.a(_udivdi3.o)
 .ARM.attributes
                0x000017cc       0x18 /home/leon/riotboard/arm-2012.09/bin/../lib/gcc/arm-none-eabi/4.7.2//libgcc.a(_clzsi2.o)
 .ARM.attributes
                0x000017e4       0x39 /home/leon/git/swp-report/iMX6_Platform_SDK/output/mx6dq/lib/libsdk.a(max7310.o)
 .ARM.attributes
                0x0000181d       0x39 /home/leon/git/swp-report/iMX6_Platform_SDK/output/mx6dq/lib/libsdk.a(runtime_support.o)
 .ARM.attributes
                0x00001856       0x39 /home/leon/git/swp-report/iMX6_Platform_SDK/output/mx6dq/lib/libsdk.a(imx_i2c.o)
 .ARM.attributes
                0x0000188f       0x39 /home/leon/git/swp-report/iMX6_Platform_SDK/output/mx6dq/lib/libboard_evb_rev_a.a(i2c_iomux_config.o)

.comment        0x00000000       0x30
 .comment       0x00000000       0x30 /home/leon/git/swp-report/iMX6_Platform_SDK/output/mx6dq/smp_primes/evb_rev_a/obj/apps/common/ivt.o
                                 0x31 (size before relaxing)
 .comment       0x00000000       0x31 /home/leon/git/swp-report/iMX6_Platform_SDK/output/mx6dq/smp_primes/evb_rev_a/obj/apps/common/platform_init.o
 .comment       0x00000000       0x31 /home/leon/git/swp-report/iMX6_Platform_SDK/output/mx6dq/smp_primes/evb_rev_a/obj/apps/smp_primes/src/main.o
 .comment       0x00000000       0x31 /home/leon/git/swp-report/iMX6_Platform_SDK/output/mx6dq/smp_primes/evb_rev_a/obj/apps/smp_primes/src/primes.o
 .comment       0x00000000       0x31 /home/leon/git/swp-report/iMX6_Platform_SDK/output/mx6dq/lib/libsdk.a(armv7_cache.o)
 .comment       0x00000000       0x31 /home/leon/git/swp-report/iMX6_Platform_SDK/output/mx6dq/lib/libsdk.a(ccm_pll.o)
 .comment       0x00000000       0x31 /home/leon/git/swp-report/iMX6_Platform_SDK/output/mx6dq/lib/libsdk.a(gic.o)
 .comment       0x00000000       0x31 /home/leon/git/swp-report/iMX6_Platform_SDK/output/mx6dq/lib/libsdk.a(mmu.o)
 .comment       0x00000000       0x31 /home/leon/git/swp-report/iMX6_Platform_SDK/output/mx6dq/lib/libsdk.a(spinlock.o)
 .comment       0x00000000       0x31 /home/leon/git/swp-report/iMX6_Platform_SDK/output/mx6dq/lib/libsdk.a(system_util.o)
 .comment       0x00000000       0x31 /home/leon/git/swp-report/iMX6_Platform_SDK/output/mx6dq/lib/libsdk.a(text_color.o)
 .comment       0x00000000       0x31 /home/leon/git/swp-report/iMX6_Platform_SDK/output/mx6dq/lib/libsdk.a(cpu_get_cores.o)
 .comment       0x00000000       0x31 /home/leon/git/swp-report/iMX6_Platform_SDK/output/mx6dq/lib/libsdk.a(cpu_multicore.o)
 .comment       0x00000000       0x31 /home/leon/git/swp-report/iMX6_Platform_SDK/output/mx6dq/lib/libsdk.a(timer.o)
 .comment       0x00000000       0x31 /home/leon/git/swp-report/iMX6_Platform_SDK/output/mx6dq/lib/libsdk.a(imx_uart.o)
 .comment       0x00000000       0x31 /home/leon/git/swp-report/iMX6_Platform_SDK/output/mx6dq/lib/libsdk.a(interrupt.o)
 .comment       0x00000000       0x31 /home/leon/git/swp-report/iMX6_Platform_SDK/output/mx6dq/lib/libsdk.a(epit.o)
 .comment       0x00000000       0x31 /home/leon/git/swp-report/iMX6_Platform_SDK/output/mx6dq/lib/libsdk.a(abort_handler.o)
 .comment       0x00000000       0x31 /home/leon/git/swp-report/iMX6_Platform_SDK/output/mx6dq/lib/libboard_evb_rev_a.a(board_io_expanders.o)
 .comment       0x00000000       0x31 /home/leon/git/swp-report/iMX6_Platform_SDK/output/mx6dq/lib/libboard_evb_rev_a.a(hardware_modules.o)
 .comment       0x00000000       0x31 /home/leon/git/swp-report/iMX6_Platform_SDK/output/mx6dq/lib/libboard_evb_rev_a.a(dcd.o)
 .comment       0x00000000       0x31 /home/leon/git/swp-report/iMX6_Platform_SDK/output/mx6dq/lib/libboard_evb_rev_a.a(uart_iomux_config.o)
 .comment       0x00000000       0x31 /home/leon/git/swp-report/iMX6_Platform_SDK/output/mx6dq/lib/libboard_evb_rev_a.a(iomux_config.o)
 .comment       0x00000000       0x31 /home/leon/git/swp-report/iMX6_Platform_SDK/output/mx6dq/lib/libboard_evb_rev_a.a(ipu1_iomux_config.o)
 .comment       0x00000000       0x31 /home/leon/git/swp-report/iMX6_Platform_SDK/output/mx6dq/lib/libboard_evb_rev_a.a(kpp_iomux_config.o)
 .comment       0x00000000       0x31 /home/leon/git/swp-report/iMX6_Platform_SDK/output/mx6dq/lib/libboard_evb_rev_a.a(mlb_iomux_config.o)
 .comment       0x00000000       0x31 /home/leon/git/swp-report/iMX6_Platform_SDK/output/mx6dq/lib/libboard_evb_rev_a.a(mmdc_iomux_config.o)
 .comment       0x00000000       0x31 /home/leon/git/swp-report/iMX6_Platform_SDK/output/mx6dq/lib/libboard_evb_rev_a.a(pwm1_iomux_config.o)
 .comment       0x00000000       0x31 /home/leon/git/swp-report/iMX6_Platform_SDK/output/mx6dq/lib/libboard_evb_rev_a.a(sjc_iomux_config.o)
 .comment       0x00000000       0x31 /home/leon/git/swp-report/iMX6_Platform_SDK/output/mx6dq/lib/libboard_evb_rev_a.a(spdif_iomux_config.o)
 .comment       0x00000000       0x31 /home/leon/git/swp-report/iMX6_Platform_SDK/output/mx6dq/lib/libboard_evb_rev_a.a(uart2_iomux_config.o)
 .comment       0x00000000       0x31 /home/leon/git/swp-report/iMX6_Platform_SDK/output/mx6dq/lib/libboard_evb_rev_a.a(uart4_iomux_config.o)
 .comment       0x00000000       0x31 /home/leon/git/swp-report/iMX6_Platform_SDK/output/mx6dq/lib/libboard_evb_rev_a.a(usb_iomux_config.o)
 .comment       0x00000000       0x31 /home/leon/git/swp-report/iMX6_Platform_SDK/output/mx6dq/lib/libboard_evb_rev_a.a(usdhc1_iomux_config.o)
 .comment       0x00000000       0x31 /home/leon/git/swp-report/iMX6_Platform_SDK/output/mx6dq/lib/libboard_evb_rev_a.a(usdhc2_iomux_config.o)
 .comment       0x00000000       0x31 /home/leon/git/swp-report/iMX6_Platform_SDK/output/mx6dq/lib/libboard_evb_rev_a.a(usdhc3_iomux_config.o)
 .comment       0x00000000       0x31 /home/leon/git/swp-report/iMX6_Platform_SDK/output/mx6dq/lib/libboard_evb_rev_a.a(usdhc4_iomux_config.o)
 .comment       0x00000000       0x31 /home/leon/git/swp-report/iMX6_Platform_SDK/output/mx6dq/lib/libboard_evb_rev_a.a(ccm_iomux_config.o)
 .comment       0x00000000       0x31 /home/leon/git/swp-report/iMX6_Platform_SDK/output/mx6dq/lib/libboard_evb_rev_a.a(ecspi1_iomux_config.o)
 .comment       0x00000000       0x31 /home/leon/git/swp-report/iMX6_Platform_SDK/output/mx6dq/lib/libboard_evb_rev_a.a(enet_iomux_config.o)
 .comment       0x00000000       0x31 /home/leon/git/swp-report/iMX6_Platform_SDK/output/mx6dq/lib/libboard_evb_rev_a.a(esai_iomux_config.o)
 .comment       0x00000000       0x31 /home/leon/git/swp-report/iMX6_Platform_SDK/output/mx6dq/lib/libboard_evb_rev_a.a(flexcan1_iomux_config.o)
 .comment       0x00000000       0x31 /home/leon/git/swp-report/iMX6_Platform_SDK/output/mx6dq/lib/libboard_evb_rev_a.a(flexcan2_iomux_config.o)
 .comment       0x00000000       0x31 /home/leon/git/swp-report/iMX6_Platform_SDK/output/mx6dq/lib/libboard_evb_rev_a.a(gpio3_iomux_config.o)
 .comment       0x00000000       0x31 /home/leon/git/swp-report/iMX6_Platform_SDK/output/mx6dq/lib/libboard_evb_rev_a.a(gpio4_iomux_config.o)
 .comment       0x00000000       0x31 /home/leon/git/swp-report/iMX6_Platform_SDK/output/mx6dq/lib/libboard_evb_rev_a.a(gpio5_iomux_config.o)
 .comment       0x00000000       0x31 /home/leon/git/swp-report/iMX6_Platform_SDK/output/mx6dq/lib/libboard_evb_rev_a.a(gpio6_iomux_config.o)
 .comment       0x00000000       0x31 /home/leon/git/swp-report/iMX6_Platform_SDK/output/mx6dq/lib/libboard_evb_rev_a.a(gpmi_iomux_config.o)
 .comment       0x00000000       0x31 /home/leon/git/swp-report/iMX6_Platform_SDK/output/mx6dq/lib/libboard_evb_rev_a.a(hdmi_iomux_config.o)
 .comment       0x00000000       0x31 /home/leon/git/swp-report/iMX6_Platform_SDK/output/mx6dq/lib/libboard_evb_rev_a.a(i2c1_iomux_config.o)
 .comment       0x00000000       0x31 /home/leon/git/swp-report/iMX6_Platform_SDK/output/mx6dq/lib/libboard_evb_rev_a.a(i2c2_iomux_config.o)
 .comment       0x00000000       0x31 /home/leon/git/swp-report/iMX6_Platform_SDK/output/mx6dq/lib/libboard_evb_rev_a.a(i2c3_iomux_config.o)
 .comment       0x00000000       0x31 /home/leon/git/swp-report/iMX6_Platform_SDK/output/mx6dq/lib/libsdk.a(max7310.o)
 .comment       0x00000000       0x31 /home/leon/git/swp-report/iMX6_Platform_SDK/output/mx6dq/lib/libsdk.a(runtime_support.o)
 .comment       0x00000000       0x31 /home/leon/git/swp-report/iMX6_Platform_SDK/output/mx6dq/lib/libsdk.a(imx_i2c.o)
 .comment       0x00000000       0x31 /home/leon/git/swp-report/iMX6_Platform_SDK/output/mx6dq/lib/libboard_evb_rev_a.a(i2c_iomux_config.o)

.debug_info     0x00000000    0x22b51
 .debug_info    0x00000000      0x228 /home/leon/git/swp-report/iMX6_Platform_SDK/output/mx6dq/smp_primes/evb_rev_a/obj/apps/common/ivt.o
 .debug_info    0x00000228      0x198 /home/leon/git/swp-report/iMX6_Platform_SDK/output/mx6dq/smp_primes/evb_rev_a/obj/apps/common/platform_init.o
 .debug_info    0x000003c0      0x1f7 /home/leon/git/swp-report/iMX6_Platform_SDK/output/mx6dq/smp_primes/evb_rev_a/obj/apps/smp_primes/src/main.o
 .debug_info    0x000005b7      0x25f /home/leon/git/swp-report/iMX6_Platform_SDK/output/mx6dq/smp_primes/evb_rev_a/obj/apps/smp_primes/src/primes.o
 .debug_info    0x00000816      0x4cd /home/leon/git/swp-report/iMX6_Platform_SDK/output/mx6dq/lib/libsdk.a(armv7_cache.o)
 .debug_info    0x00000ce3     0x1d6e /home/leon/git/swp-report/iMX6_Platform_SDK/output/mx6dq/lib/libsdk.a(ccm_pll.o)
 .debug_info    0x00002a51      0x7f4 /home/leon/git/swp-report/iMX6_Platform_SDK/output/mx6dq/lib/libsdk.a(gic.o)
 .debug_info    0x00003245      0x3e7 /home/leon/git/swp-report/iMX6_Platform_SDK/output/mx6dq/lib/libsdk.a(mmu.o)
 .debug_info    0x0000362c      0x138 /home/leon/git/swp-report/iMX6_Platform_SDK/output/mx6dq/lib/libsdk.a(spinlock.o)
 .debug_info    0x00003764     0x1536 /home/leon/git/swp-report/iMX6_Platform_SDK/output/mx6dq/lib/libsdk.a(system_util.o)
 .debug_info    0x00004c9a      0x298 /home/leon/git/swp-report/iMX6_Platform_SDK/output/mx6dq/lib/libsdk.a(text_color.o)
 .debug_info    0x00004f32      0x141 /home/leon/git/swp-report/iMX6_Platform_SDK/output/mx6dq/lib/libsdk.a(cpu_get_cores.o)
 .debug_info    0x00005073      0x58c /home/leon/git/swp-report/iMX6_Platform_SDK/output/mx6dq/lib/libsdk.a(cpu_multicore.o)
 .debug_info    0x000055ff      0x319 /home/leon/git/swp-report/iMX6_Platform_SDK/output/mx6dq/lib/libsdk.a(timer.o)
 .debug_info    0x00005918     0x11b6 /home/leon/git/swp-report/iMX6_Platform_SDK/output/mx6dq/lib/libsdk.a(imx_uart.o)
 .debug_info    0x00006ace      0x63b /home/leon/git/swp-report/iMX6_Platform_SDK/output/mx6dq/lib/libsdk.a(interrupt.o)
 .debug_info    0x00007109      0x9b7 /home/leon/git/swp-report/iMX6_Platform_SDK/output/mx6dq/lib/libsdk.a(epit.o)
 .debug_info    0x00007ac0      0x234 /home/leon/git/swp-report/iMX6_Platform_SDK/output/mx6dq/lib/libsdk.a(abort_handler.o)
 .debug_info    0x00007cf4      0x1fa /home/leon/git/swp-report/iMX6_Platform_SDK/output/mx6dq/lib/libboard_evb_rev_a.a(board_io_expanders.o)
 .debug_info    0x00007eee       0xa1 /home/leon/git/swp-report/iMX6_Platform_SDK/output/mx6dq/lib/libboard_evb_rev_a.a(hardware_modules.o)
 .debug_info    0x00007f8f       0xfb /home/leon/git/swp-report/iMX6_Platform_SDK/output/mx6dq/lib/libboard_evb_rev_a.a(dcd.o)
 .debug_info    0x0000808a       0xcf /home/leon/git/swp-report/iMX6_Platform_SDK/output/mx6dq/lib/libboard_evb_rev_a.a(uart_iomux_config.o)
 .debug_info    0x00008159      0x350 /home/leon/git/swp-report/iMX6_Platform_SDK/output/mx6dq/lib/libboard_evb_rev_a.a(iomux_config.o)
 .debug_info    0x000084a9     0x41fb /home/leon/git/swp-report/iMX6_Platform_SDK/output/mx6dq/lib/libboard_evb_rev_a.a(ipu1_iomux_config.o)
 .debug_info    0x0000c6a4      0xc77 /home/leon/git/swp-report/iMX6_Platform_SDK/output/mx6dq/lib/libboard_evb_rev_a.a(kpp_iomux_config.o)
 .debug_info    0x0000d31b      0x69b /home/leon/git/swp-report/iMX6_Platform_SDK/output/mx6dq/lib/libboard_evb_rev_a.a(mlb_iomux_config.o)
 .debug_info    0x0000d9b6     0x41e3 /home/leon/git/swp-report/iMX6_Platform_SDK/output/mx6dq/lib/libboard_evb_rev_a.a(mmdc_iomux_config.o)
 .debug_info    0x00011b99      0x205 /home/leon/git/swp-report/iMX6_Platform_SDK/output/mx6dq/lib/libboard_evb_rev_a.a(pwm1_iomux_config.o)
 .debug_info    0x00011d9e      0x72b /home/leon/git/swp-report/iMX6_Platform_SDK/output/mx6dq/lib/libboard_evb_rev_a.a(sjc_iomux_config.o)
 .debug_info    0x000124c9      0x9ad /home/leon/git/swp-report/iMX6_Platform_SDK/output/mx6dq/lib/libboard_evb_rev_a.a(spdif_iomux_config.o)
 .debug_info    0x00012e76      0x753 /home/leon/git/swp-report/iMX6_Platform_SDK/output/mx6dq/lib/libboard_evb_rev_a.a(uart2_iomux_config.o)
 .debug_info    0x000135c9      0x419 /home/leon/git/swp-report/iMX6_Platform_SDK/output/mx6dq/lib/libboard_evb_rev_a.a(uart4_iomux_config.o)
 .debug_info    0x000139e2      0x57f /home/leon/git/swp-report/iMX6_Platform_SDK/output/mx6dq/lib/libboard_evb_rev_a.a(usb_iomux_config.o)
 .debug_info    0x00013f61     0x10db /home/leon/git/swp-report/iMX6_Platform_SDK/output/mx6dq/lib/libboard_evb_rev_a.a(usdhc1_iomux_config.o)
 .debug_info    0x0001503c     0x1221 /home/leon/git/swp-report/iMX6_Platform_SDK/output/mx6dq/lib/libboard_evb_rev_a.a(usdhc2_iomux_config.o)
 .debug_info    0x0001625d     0x1427 /home/leon/git/swp-report/iMX6_Platform_SDK/output/mx6dq/lib/libboard_evb_rev_a.a(usdhc3_iomux_config.o)
 .debug_info    0x00017684     0x10db /home/leon/git/swp-report/iMX6_Platform_SDK/output/mx6dq/lib/libboard_evb_rev_a.a(usdhc4_iomux_config.o)
 .debug_info    0x0001875f      0x205 /home/leon/git/swp-report/iMX6_Platform_SDK/output/mx6dq/lib/libboard_evb_rev_a.a(ccm_iomux_config.o)
 .debug_info    0x00018964      0xa23 /home/leon/git/swp-report/iMX6_Platform_SDK/output/mx6dq/lib/libboard_evb_rev_a.a(ecspi1_iomux_config.o)
 .debug_info    0x00019387     0x1c57 /home/leon/git/swp-report/iMX6_Platform_SDK/output/mx6dq/lib/libboard_evb_rev_a.a(enet_iomux_config.o)
 .debug_info    0x0001afde     0x180f /home/leon/git/swp-report/iMX6_Platform_SDK/output/mx6dq/lib/libboard_evb_rev_a.a(esai_iomux_config.o)
 .debug_info    0x0001c7ed      0x419 /home/leon/git/swp-report/iMX6_Platform_SDK/output/mx6dq/lib/libboard_evb_rev_a.a(flexcan1_iomux_config.o)
 .debug_info    0x0001cc06      0x419 /home/leon/git/swp-report/iMX6_Platform_SDK/output/mx6dq/lib/libboard_evb_rev_a.a(flexcan2_iomux_config.o)
 .debug_info    0x0001d01f      0x36b /home/leon/git/swp-report/iMX6_Platform_SDK/output/mx6dq/lib/libboard_evb_rev_a.a(gpio3_iomux_config.o)
 .debug_info    0x0001d38a      0x3ab /home/leon/git/swp-report/iMX6_Platform_SDK/output/mx6dq/lib/libboard_evb_rev_a.a(gpio4_iomux_config.o)
 .debug_info    0x0001d735      0x6f7 /home/leon/git/swp-report/iMX6_Platform_SDK/output/mx6dq/lib/libboard_evb_rev_a.a(gpio5_iomux_config.o)
 .debug_info    0x0001de2c      0x3ab /home/leon/git/swp-report/iMX6_Platform_SDK/output/mx6dq/lib/libboard_evb_rev_a.a(gpio6_iomux_config.o)
 .debug_info    0x0001e1d7     0x1fb1 /home/leon/git/swp-report/iMX6_Platform_SDK/output/mx6dq/lib/libboard_evb_rev_a.a(gpmi_iomux_config.o)
 .debug_info    0x00020188      0x253 /home/leon/git/swp-report/iMX6_Platform_SDK/output/mx6dq/lib/libboard_evb_rev_a.a(hdmi_iomux_config.o)
 .debug_info    0x000203db      0x487 /home/leon/git/swp-report/iMX6_Platform_SDK/output/mx6dq/lib/libboard_evb_rev_a.a(i2c1_iomux_config.o)
 .debug_info    0x00020862      0x487 /home/leon/git/swp-report/iMX6_Platform_SDK/output/mx6dq/lib/libboard_evb_rev_a.a(i2c2_iomux_config.o)
 .debug_info    0x00020ce9      0x487 /home/leon/git/swp-report/iMX6_Platform_SDK/output/mx6dq/lib/libboard_evb_rev_a.a(i2c3_iomux_config.o)
 .debug_info    0x00021170      0x2ed /home/leon/git/swp-report/iMX6_Platform_SDK/output/mx6dq/lib/libsdk.a(max7310.o)
 .debug_info    0x0002145d      0x804 /home/leon/git/swp-report/iMX6_Platform_SDK/output/mx6dq/lib/libsdk.a(runtime_support.o)
 .debug_info    0x00021c61      0xe21 /home/leon/git/swp-report/iMX6_Platform_SDK/output/mx6dq/lib/libsdk.a(imx_i2c.o)
 .debug_info    0x00022a82       0xcf /home/leon/git/swp-report/iMX6_Platform_SDK/output/mx6dq/lib/libboard_evb_rev_a.a(i2c_iomux_config.o)

.debug_abbrev   0x00000000     0x3a17
 .debug_abbrev  0x00000000       0xe6 /home/leon/git/swp-report/iMX6_Platform_SDK/output/mx6dq/smp_primes/evb_rev_a/obj/apps/common/ivt.o
 .debug_abbrev  0x000000e6       0x89 /home/leon/git/swp-report/iMX6_Platform_SDK/output/mx6dq/smp_primes/evb_rev_a/obj/apps/common/platform_init.o
 .debug_abbrev  0x0000016f      0x10d /home/leon/git/swp-report/iMX6_Platform_SDK/output/mx6dq/smp_primes/evb_rev_a/obj/apps/smp_primes/src/main.o
 .debug_abbrev  0x0000027c      0x13e /home/leon/git/swp-report/iMX6_Platform_SDK/output/mx6dq/smp_primes/evb_rev_a/obj/apps/smp_primes/src/primes.o
 .debug_abbrev  0x000003ba      0x133 /home/leon/git/swp-report/iMX6_Platform_SDK/output/mx6dq/lib/libsdk.a(armv7_cache.o)
 .debug_abbrev  0x000004ed      0x1b1 /home/leon/git/swp-report/iMX6_Platform_SDK/output/mx6dq/lib/libsdk.a(ccm_pll.o)
 .debug_abbrev  0x0000069e      0x179 /home/leon/git/swp-report/iMX6_Platform_SDK/output/mx6dq/lib/libsdk.a(gic.o)
 .debug_abbrev  0x00000817      0x172 /home/leon/git/swp-report/iMX6_Platform_SDK/output/mx6dq/lib/libsdk.a(mmu.o)
 .debug_abbrev  0x00000989       0xc9 /home/leon/git/swp-report/iMX6_Platform_SDK/output/mx6dq/lib/libsdk.a(spinlock.o)
 .debug_abbrev  0x00000a52      0x276 /home/leon/git/swp-report/iMX6_Platform_SDK/output/mx6dq/lib/libsdk.a(system_util.o)
 .debug_abbrev  0x00000cc8       0xd0 /home/leon/git/swp-report/iMX6_Platform_SDK/output/mx6dq/lib/libsdk.a(text_color.o)
 .debug_abbrev  0x00000d98       0xc5 /home/leon/git/swp-report/iMX6_Platform_SDK/output/mx6dq/lib/libsdk.a(cpu_get_cores.o)
 .debug_abbrev  0x00000e5d      0x187 /home/leon/git/swp-report/iMX6_Platform_SDK/output/mx6dq/lib/libsdk.a(cpu_multicore.o)
 .debug_abbrev  0x00000fe4      0x122 /home/leon/git/swp-report/iMX6_Platform_SDK/output/mx6dq/lib/libsdk.a(timer.o)
 .debug_abbrev  0x00001106      0x1e3 /home/leon/git/swp-report/iMX6_Platform_SDK/output/mx6dq/lib/libsdk.a(imx_uart.o)
 .debug_abbrev  0x000012e9      0x11a /home/leon/git/swp-report/iMX6_Platform_SDK/output/mx6dq/lib/libsdk.a(interrupt.o)
 .debug_abbrev  0x00001403      0x194 /home/leon/git/swp-report/iMX6_Platform_SDK/output/mx6dq/lib/libsdk.a(epit.o)
 .debug_abbrev  0x00001597       0xc8 /home/leon/git/swp-report/iMX6_Platform_SDK/output/mx6dq/lib/libsdk.a(abort_handler.o)
 .debug_abbrev  0x0000165f       0xca /home/leon/git/swp-report/iMX6_Platform_SDK/output/mx6dq/lib/libboard_evb_rev_a.a(board_io_expanders.o)
 .debug_abbrev  0x00001729       0x44 /home/leon/git/swp-report/iMX6_Platform_SDK/output/mx6dq/lib/libboard_evb_rev_a.a(hardware_modules.o)
 .debug_abbrev  0x0000176d       0x77 /home/leon/git/swp-report/iMX6_Platform_SDK/output/mx6dq/lib/libboard_evb_rev_a.a(dcd.o)
 .debug_abbrev  0x000017e4       0x79 /home/leon/git/swp-report/iMX6_Platform_SDK/output/mx6dq/lib/libboard_evb_rev_a.a(uart_iomux_config.o)
 .debug_abbrev  0x0000185d       0x42 /home/leon/git/swp-report/iMX6_Platform_SDK/output/mx6dq/lib/libboard_evb_rev_a.a(iomux_config.o)
 .debug_abbrev  0x0000189f      0x106 /home/leon/git/swp-report/iMX6_Platform_SDK/output/mx6dq/lib/libboard_evb_rev_a.a(ipu1_iomux_config.o)
 .debug_abbrev  0x000019a5      0x106 /home/leon/git/swp-report/iMX6_Platform_SDK/output/mx6dq/lib/libboard_evb_rev_a.a(kpp_iomux_config.o)
 .debug_abbrev  0x00001aab       0xf1 /home/leon/git/swp-report/iMX6_Platform_SDK/output/mx6dq/lib/libboard_evb_rev_a.a(mlb_iomux_config.o)
 .debug_abbrev  0x00001b9c      0x106 /home/leon/git/swp-report/iMX6_Platform_SDK/output/mx6dq/lib/libboard_evb_rev_a.a(mmdc_iomux_config.o)
 .debug_abbrev  0x00001ca2       0xf1 /home/leon/git/swp-report/iMX6_Platform_SDK/output/mx6dq/lib/libboard_evb_rev_a.a(pwm1_iomux_config.o)
 .debug_abbrev  0x00001d93       0xa4 /home/leon/git/swp-report/iMX6_Platform_SDK/output/mx6dq/lib/libboard_evb_rev_a.a(sjc_iomux_config.o)
 .debug_abbrev  0x00001e37      0x106 /home/leon/git/swp-report/iMX6_Platform_SDK/output/mx6dq/lib/libboard_evb_rev_a.a(spdif_iomux_config.o)
 .debug_abbrev  0x00001f3d       0xf1 /home/leon/git/swp-report/iMX6_Platform_SDK/output/mx6dq/lib/libboard_evb_rev_a.a(uart2_iomux_config.o)
 .debug_abbrev  0x0000202e       0xf1 /home/leon/git/swp-report/iMX6_Platform_SDK/output/mx6dq/lib/libboard_evb_rev_a.a(uart4_iomux_config.o)
 .debug_abbrev  0x0000211f      0x106 /home/leon/git/swp-report/iMX6_Platform_SDK/output/mx6dq/lib/libboard_evb_rev_a.a(usb_iomux_config.o)
 .debug_abbrev  0x00002225       0xf1 /home/leon/git/swp-report/iMX6_Platform_SDK/output/mx6dq/lib/libboard_evb_rev_a.a(usdhc1_iomux_config.o)
 .debug_abbrev  0x00002316      0x106 /home/leon/git/swp-report/iMX6_Platform_SDK/output/mx6dq/lib/libboard_evb_rev_a.a(usdhc2_iomux_config.o)
 .debug_abbrev  0x0000241c       0xf1 /home/leon/git/swp-report/iMX6_Platform_SDK/output/mx6dq/lib/libboard_evb_rev_a.a(usdhc3_iomux_config.o)
 .debug_abbrev  0x0000250d       0xf1 /home/leon/git/swp-report/iMX6_Platform_SDK/output/mx6dq/lib/libboard_evb_rev_a.a(usdhc4_iomux_config.o)
 .debug_abbrev  0x000025fe       0xf1 /home/leon/git/swp-report/iMX6_Platform_SDK/output/mx6dq/lib/libboard_evb_rev_a.a(ccm_iomux_config.o)
 .debug_abbrev  0x000026ef       0xf1 /home/leon/git/swp-report/iMX6_Platform_SDK/output/mx6dq/lib/libboard_evb_rev_a.a(ecspi1_iomux_config.o)
 .debug_abbrev  0x000027e0      0x106 /home/leon/git/swp-report/iMX6_Platform_SDK/output/mx6dq/lib/libboard_evb_rev_a.a(enet_iomux_config.o)
 .debug_abbrev  0x000028e6      0x106 /home/leon/git/swp-report/iMX6_Platform_SDK/output/mx6dq/lib/libboard_evb_rev_a.a(esai_iomux_config.o)
 .debug_abbrev  0x000029ec       0xf1 /home/leon/git/swp-report/iMX6_Platform_SDK/output/mx6dq/lib/libboard_evb_rev_a.a(flexcan1_iomux_config.o)
 .debug_abbrev  0x00002add       0xf1 /home/leon/git/swp-report/iMX6_Platform_SDK/output/mx6dq/lib/libboard_evb_rev_a.a(flexcan2_iomux_config.o)
 .debug_abbrev  0x00002bce       0xa4 /home/leon/git/swp-report/iMX6_Platform_SDK/output/mx6dq/lib/libboard_evb_rev_a.a(gpio3_iomux_config.o)
 .debug_abbrev  0x00002c72       0xf1 /home/leon/git/swp-report/iMX6_Platform_SDK/output/mx6dq/lib/libboard_evb_rev_a.a(gpio4_iomux_config.o)
 .debug_abbrev  0x00002d63       0xf1 /home/leon/git/swp-report/iMX6_Platform_SDK/output/mx6dq/lib/libboard_evb_rev_a.a(gpio5_iomux_config.o)
 .debug_abbrev  0x00002e54       0xf1 /home/leon/git/swp-report/iMX6_Platform_SDK/output/mx6dq/lib/libboard_evb_rev_a.a(gpio6_iomux_config.o)
 .debug_abbrev  0x00002f45       0xf1 /home/leon/git/swp-report/iMX6_Platform_SDK/output/mx6dq/lib/libboard_evb_rev_a.a(gpmi_iomux_config.o)
 .debug_abbrev  0x00003036       0xf1 /home/leon/git/swp-report/iMX6_Platform_SDK/output/mx6dq/lib/libboard_evb_rev_a.a(hdmi_iomux_config.o)
 .debug_abbrev  0x00003127       0xf1 /home/leon/git/swp-report/iMX6_Platform_SDK/output/mx6dq/lib/libboard_evb_rev_a.a(i2c1_iomux_config.o)
 .debug_abbrev  0x00003218       0xf1 /home/leon/git/swp-report/iMX6_Platform_SDK/output/mx6dq/lib/libboard_evb_rev_a.a(i2c2_iomux_config.o)
 .debug_abbrev  0x00003309       0xf1 /home/leon/git/swp-report/iMX6_Platform_SDK/output/mx6dq/lib/libboard_evb_rev_a.a(i2c3_iomux_config.o)
 .debug_abbrev  0x000033fa       0xf9 /home/leon/git/swp-report/iMX6_Platform_SDK/output/mx6dq/lib/libsdk.a(max7310.o)
 .debug_abbrev  0x000034f3      0x1e2 /home/leon/git/swp-report/iMX6_Platform_SDK/output/mx6dq/lib/libsdk.a(runtime_support.o)
 .debug_abbrev  0x000036d5      0x2c9 /home/leon/git/swp-report/iMX6_Platform_SDK/output/mx6dq/lib/libsdk.a(imx_i2c.o)
 .debug_abbrev  0x0000399e       0x79 /home/leon/git/swp-report/iMX6_Platform_SDK/output/mx6dq/lib/libboard_evb_rev_a.a(i2c_iomux_config.o)

.debug_aranges  0x00000000      0x6e8
 .debug_aranges
                0x00000000       0x18 /home/leon/git/swp-report/iMX6_Platform_SDK/output/mx6dq/smp_primes/evb_rev_a/obj/apps/common/ivt.o
 .debug_aranges
                0x00000018       0x20 /home/leon/git/swp-report/iMX6_Platform_SDK/output/mx6dq/smp_primes/evb_rev_a/obj/apps/common/platform_init.o
 .debug_aranges
                0x00000038       0x20 /home/leon/git/swp-report/iMX6_Platform_SDK/output/mx6dq/smp_primes/evb_rev_a/obj/apps/smp_primes/src/main.o
 .debug_aranges
                0x00000058       0x20 /home/leon/git/swp-report/iMX6_Platform_SDK/output/mx6dq/smp_primes/evb_rev_a/obj/apps/smp_primes/src/primes.o
 .debug_aranges
                0x00000078       0x20 /home/leon/git/swp-report/iMX6_Platform_SDK/output/mx6dq/lib/libsdk.a(armv7_cache.o)
 .debug_aranges
                0x00000098       0x20 /home/leon/git/swp-report/iMX6_Platform_SDK/output/mx6dq/lib/libsdk.a(ccm_pll.o)
 .debug_aranges
                0x000000b8       0x20 /home/leon/git/swp-report/iMX6_Platform_SDK/output/mx6dq/lib/libsdk.a(gic.o)
 .debug_aranges
                0x000000d8       0x20 /home/leon/git/swp-report/iMX6_Platform_SDK/output/mx6dq/lib/libsdk.a(mmu.o)
 .debug_aranges
                0x000000f8       0x20 /home/leon/git/swp-report/iMX6_Platform_SDK/output/mx6dq/lib/libsdk.a(spinlock.o)
 .debug_aranges
                0x00000118       0x20 /home/leon/git/swp-report/iMX6_Platform_SDK/output/mx6dq/lib/libsdk.a(system_util.o)
 .debug_aranges
                0x00000138       0x20 /home/leon/git/swp-report/iMX6_Platform_SDK/output/mx6dq/lib/libsdk.a(text_color.o)
 .debug_aranges
                0x00000158       0x20 /home/leon/git/swp-report/iMX6_Platform_SDK/output/mx6dq/lib/libsdk.a(cpu_get_cores.o)
 .debug_aranges
                0x00000178       0x20 /home/leon/git/swp-report/iMX6_Platform_SDK/output/mx6dq/lib/libsdk.a(cpu_multicore.o)
 .debug_aranges
                0x00000198       0x20 /home/leon/git/swp-report/iMX6_Platform_SDK/output/mx6dq/lib/libsdk.a(timer.o)
 .debug_aranges
                0x000001b8       0x20 /home/leon/git/swp-report/iMX6_Platform_SDK/output/mx6dq/lib/libsdk.a(imx_uart.o)
 .debug_aranges
                0x000001d8       0x20 /home/leon/git/swp-report/iMX6_Platform_SDK/output/mx6dq/lib/libsdk.a(interrupt.o)
 .debug_aranges
                0x000001f8       0x20 /home/leon/git/swp-report/iMX6_Platform_SDK/output/mx6dq/lib/libsdk.a(epit.o)
 .debug_aranges
                0x00000218       0x20 /home/leon/git/swp-report/iMX6_Platform_SDK/output/mx6dq/lib/libsdk.a(abort_handler.o)
 .debug_aranges
                0x00000238       0x20 /home/leon/git/swp-report/iMX6_Platform_SDK/output/mx6dq/lib/libboard_evb_rev_a.a(board_io_expanders.o)
 .debug_aranges
                0x00000258       0x18 /home/leon/git/swp-report/iMX6_Platform_SDK/output/mx6dq/lib/libboard_evb_rev_a.a(hardware_modules.o)
 .debug_aranges
                0x00000270       0x18 /home/leon/git/swp-report/iMX6_Platform_SDK/output/mx6dq/lib/libboard_evb_rev_a.a(dcd.o)
 .debug_aranges
                0x00000288       0x20 /home/leon/git/swp-report/iMX6_Platform_SDK/output/mx6dq/lib/libboard_evb_rev_a.a(uart_iomux_config.o)
 .debug_aranges
                0x000002a8       0x20 /home/leon/git/swp-report/iMX6_Platform_SDK/output/mx6dq/lib/libboard_evb_rev_a.a(iomux_config.o)
 .debug_aranges
                0x000002c8       0x20 /home/leon/git/swp-report/iMX6_Platform_SDK/output/mx6dq/lib/libboard_evb_rev_a.a(ipu1_iomux_config.o)
 .debug_aranges
                0x000002e8       0x20 /home/leon/git/swp-report/iMX6_Platform_SDK/output/mx6dq/lib/libboard_evb_rev_a.a(kpp_iomux_config.o)
 .debug_aranges
                0x00000308       0x20 /home/leon/git/swp-report/iMX6_Platform_SDK/output/mx6dq/lib/libboard_evb_rev_a.a(mlb_iomux_config.o)
 .debug_aranges
                0x00000328       0x20 /home/leon/git/swp-report/iMX6_Platform_SDK/output/mx6dq/lib/libboard_evb_rev_a.a(mmdc_iomux_config.o)
 .debug_aranges
                0x00000348       0x20 /home/leon/git/swp-report/iMX6_Platform_SDK/output/mx6dq/lib/libboard_evb_rev_a.a(pwm1_iomux_config.o)
 .debug_aranges
                0x00000368       0x20 /home/leon/git/swp-report/iMX6_Platform_SDK/output/mx6dq/lib/libboard_evb_rev_a.a(sjc_iomux_config.o)
 .debug_aranges
                0x00000388       0x20 /home/leon/git/swp-report/iMX6_Platform_SDK/output/mx6dq/lib/libboard_evb_rev_a.a(spdif_iomux_config.o)
 .debug_aranges
                0x000003a8       0x20 /home/leon/git/swp-report/iMX6_Platform_SDK/output/mx6dq/lib/libboard_evb_rev_a.a(uart2_iomux_config.o)
 .debug_aranges
                0x000003c8       0x20 /home/leon/git/swp-report/iMX6_Platform_SDK/output/mx6dq/lib/libboard_evb_rev_a.a(uart4_iomux_config.o)
 .debug_aranges
                0x000003e8       0x20 /home/leon/git/swp-report/iMX6_Platform_SDK/output/mx6dq/lib/libboard_evb_rev_a.a(usb_iomux_config.o)
 .debug_aranges
                0x00000408       0x20 /home/leon/git/swp-report/iMX6_Platform_SDK/output/mx6dq/lib/libboard_evb_rev_a.a(usdhc1_iomux_config.o)
 .debug_aranges
                0x00000428       0x20 /home/leon/git/swp-report/iMX6_Platform_SDK/output/mx6dq/lib/libboard_evb_rev_a.a(usdhc2_iomux_config.o)
 .debug_aranges
                0x00000448       0x20 /home/leon/git/swp-report/iMX6_Platform_SDK/output/mx6dq/lib/libboard_evb_rev_a.a(usdhc3_iomux_config.o)
 .debug_aranges
                0x00000468       0x20 /home/leon/git/swp-report/iMX6_Platform_SDK/output/mx6dq/lib/libboard_evb_rev_a.a(usdhc4_iomux_config.o)
 .debug_aranges
                0x00000488       0x20 /home/leon/git/swp-report/iMX6_Platform_SDK/output/mx6dq/lib/libboard_evb_rev_a.a(ccm_iomux_config.o)
 .debug_aranges
                0x000004a8       0x20 /home/leon/git/swp-report/iMX6_Platform_SDK/output/mx6dq/lib/libboard_evb_rev_a.a(ecspi1_iomux_config.o)
 .debug_aranges
                0x000004c8       0x20 /home/leon/git/swp-report/iMX6_Platform_SDK/output/mx6dq/lib/libboard_evb_rev_a.a(enet_iomux_config.o)
 .debug_aranges
                0x000004e8       0x20 /home/leon/git/swp-report/iMX6_Platform_SDK/output/mx6dq/lib/libboard_evb_rev_a.a(esai_iomux_config.o)
 .debug_aranges
                0x00000508       0x20 /home/leon/git/swp-report/iMX6_Platform_SDK/output/mx6dq/lib/libboard_evb_rev_a.a(flexcan1_iomux_config.o)
 .debug_aranges
                0x00000528       0x20 /home/leon/git/swp-report/iMX6_Platform_SDK/output/mx6dq/lib/libboard_evb_rev_a.a(flexcan2_iomux_config.o)
 .debug_aranges
                0x00000548       0x20 /home/leon/git/swp-report/iMX6_Platform_SDK/output/mx6dq/lib/libboard_evb_rev_a.a(gpio3_iomux_config.o)
 .debug_aranges
                0x00000568       0x20 /home/leon/git/swp-report/iMX6_Platform_SDK/output/mx6dq/lib/libboard_evb_rev_a.a(gpio4_iomux_config.o)
 .debug_aranges
                0x00000588       0x20 /home/leon/git/swp-report/iMX6_Platform_SDK/output/mx6dq/lib/libboard_evb_rev_a.a(gpio5_iomux_config.o)
 .debug_aranges
                0x000005a8       0x20 /home/leon/git/swp-report/iMX6_Platform_SDK/output/mx6dq/lib/libboard_evb_rev_a.a(gpio6_iomux_config.o)
 .debug_aranges
                0x000005c8       0x20 /home/leon/git/swp-report/iMX6_Platform_SDK/output/mx6dq/lib/libboard_evb_rev_a.a(gpmi_iomux_config.o)
 .debug_aranges
                0x000005e8       0x20 /home/leon/git/swp-report/iMX6_Platform_SDK/output/mx6dq/lib/libboard_evb_rev_a.a(hdmi_iomux_config.o)
 .debug_aranges
                0x00000608       0x20 /home/leon/git/swp-report/iMX6_Platform_SDK/output/mx6dq/lib/libboard_evb_rev_a.a(i2c1_iomux_config.o)
 .debug_aranges
                0x00000628       0x20 /home/leon/git/swp-report/iMX6_Platform_SDK/output/mx6dq/lib/libboard_evb_rev_a.a(i2c2_iomux_config.o)
 .debug_aranges
                0x00000648       0x20 /home/leon/git/swp-report/iMX6_Platform_SDK/output/mx6dq/lib/libboard_evb_rev_a.a(i2c3_iomux_config.o)
 .debug_aranges
                0x00000668       0x20 /home/leon/git/swp-report/iMX6_Platform_SDK/output/mx6dq/lib/libsdk.a(max7310.o)
 .debug_aranges
                0x00000688       0x20 /home/leon/git/swp-report/iMX6_Platform_SDK/output/mx6dq/lib/libsdk.a(runtime_support.o)
 .debug_aranges
                0x000006a8       0x20 /home/leon/git/swp-report/iMX6_Platform_SDK/output/mx6dq/lib/libsdk.a(imx_i2c.o)
 .debug_aranges
                0x000006c8       0x20 /home/leon/git/swp-report/iMX6_Platform_SDK/output/mx6dq/lib/libboard_evb_rev_a.a(i2c_iomux_config.o)

.debug_line     0x00000000     0x6a6f
 .debug_line    0x00000000      0x103 /home/leon/git/swp-report/iMX6_Platform_SDK/output/mx6dq/smp_primes/evb_rev_a/obj/apps/common/ivt.o
 .debug_line    0x00000103      0x1bc /home/leon/git/swp-report/iMX6_Platform_SDK/output/mx6dq/smp_primes/evb_rev_a/obj/apps/common/platform_init.o
 .debug_line    0x000002bf      0x19e /home/leon/git/swp-report/iMX6_Platform_SDK/output/mx6dq/smp_primes/evb_rev_a/obj/apps/smp_primes/src/main.o
 .debug_line    0x0000045d      0x176 /home/leon/git/swp-report/iMX6_Platform_SDK/output/mx6dq/smp_primes/evb_rev_a/obj/apps/smp_primes/src/primes.o
 .debug_line    0x000005d3      0x1aa /home/leon/git/swp-report/iMX6_Platform_SDK/output/mx6dq/lib/libsdk.a(armv7_cache.o)
 .debug_line    0x0000077d      0x272 /home/leon/git/swp-report/iMX6_Platform_SDK/output/mx6dq/lib/libsdk.a(ccm_pll.o)
 .debug_line    0x000009ef      0x165 /home/leon/git/swp-report/iMX6_Platform_SDK/output/mx6dq/lib/libsdk.a(gic.o)
 .debug_line    0x00000b54      0x188 /home/leon/git/swp-report/iMX6_Platform_SDK/output/mx6dq/lib/libsdk.a(mmu.o)
 .debug_line    0x00000cdc      0x11f /home/leon/git/swp-report/iMX6_Platform_SDK/output/mx6dq/lib/libsdk.a(spinlock.o)
 .debug_line    0x00000dfb      0x365 /home/leon/git/swp-report/iMX6_Platform_SDK/output/mx6dq/lib/libsdk.a(system_util.o)
 .debug_line    0x00001160       0xf0 /home/leon/git/swp-report/iMX6_Platform_SDK/output/mx6dq/lib/libsdk.a(text_color.o)
 .debug_line    0x00001250      0x1a6 /home/leon/git/swp-report/iMX6_Platform_SDK/output/mx6dq/lib/libsdk.a(cpu_get_cores.o)
 .debug_line    0x000013f6      0x1dc /home/leon/git/swp-report/iMX6_Platform_SDK/output/mx6dq/lib/libsdk.a(cpu_multicore.o)
 .debug_line    0x000015d2      0x200 /home/leon/git/swp-report/iMX6_Platform_SDK/output/mx6dq/lib/libsdk.a(timer.o)
 .debug_line    0x000017d2     0x12ca /home/leon/git/swp-report/iMX6_Platform_SDK/output/mx6dq/lib/libsdk.a(imx_uart.o)
 .debug_line    0x00002a9c      0x180 /home/leon/git/swp-report/iMX6_Platform_SDK/output/mx6dq/lib/libsdk.a(interrupt.o)
 .debug_line    0x00002c1c      0x57f /home/leon/git/swp-report/iMX6_Platform_SDK/output/mx6dq/lib/libsdk.a(epit.o)
 .debug_line    0x0000319b      0x24a /home/leon/git/swp-report/iMX6_Platform_SDK/output/mx6dq/lib/libsdk.a(abort_handler.o)
 .debug_line    0x000033e5      0x12f /home/leon/git/swp-report/iMX6_Platform_SDK/output/mx6dq/lib/libboard_evb_rev_a.a(board_io_expanders.o)
 .debug_line    0x00003514       0xc8 /home/leon/git/swp-report/iMX6_Platform_SDK/output/mx6dq/lib/libboard_evb_rev_a.a(hardware_modules.o)
 .debug_line    0x000035dc      0x107 /home/leon/git/swp-report/iMX6_Platform_SDK/output/mx6dq/lib/libboard_evb_rev_a.a(dcd.o)
 .debug_line    0x000036e3       0x8e /home/leon/git/swp-report/iMX6_Platform_SDK/output/mx6dq/lib/libboard_evb_rev_a.a(uart_iomux_config.o)
 .debug_line    0x00003771       0xe6 /home/leon/git/swp-report/iMX6_Platform_SDK/output/mx6dq/lib/libboard_evb_rev_a.a(iomux_config.o)
 .debug_line    0x00003857      0x1e6 /home/leon/git/swp-report/iMX6_Platform_SDK/output/mx6dq/lib/libboard_evb_rev_a.a(ipu1_iomux_config.o)
 .debug_line    0x00003a3d      0x11d /home/leon/git/swp-report/iMX6_Platform_SDK/output/mx6dq/lib/libboard_evb_rev_a.a(kpp_iomux_config.o)
 .debug_line    0x00003b5a      0x102 /home/leon/git/swp-report/iMX6_Platform_SDK/output/mx6dq/lib/libboard_evb_rev_a.a(mlb_iomux_config.o)
 .debug_line    0x00003c5c      0x67a /home/leon/git/swp-report/iMX6_Platform_SDK/output/mx6dq/lib/libboard_evb_rev_a.a(mmdc_iomux_config.o)
 .debug_line    0x000042d6       0xf0 /home/leon/git/swp-report/iMX6_Platform_SDK/output/mx6dq/lib/libboard_evb_rev_a.a(pwm1_iomux_config.o)
 .debug_line    0x000043c6       0xf9 /home/leon/git/swp-report/iMX6_Platform_SDK/output/mx6dq/lib/libboard_evb_rev_a.a(sjc_iomux_config.o)
 .debug_line    0x000044bf      0x112 /home/leon/git/swp-report/iMX6_Platform_SDK/output/mx6dq/lib/libboard_evb_rev_a.a(spdif_iomux_config.o)
 .debug_line    0x000045d1      0x10d /home/leon/git/swp-report/iMX6_Platform_SDK/output/mx6dq/lib/libboard_evb_rev_a.a(uart2_iomux_config.o)
 .debug_line    0x000046de       0xfb /home/leon/git/swp-report/iMX6_Platform_SDK/output/mx6dq/lib/libboard_evb_rev_a.a(uart4_iomux_config.o)
 .debug_line    0x000047d9       0xfe /home/leon/git/swp-report/iMX6_Platform_SDK/output/mx6dq/lib/libboard_evb_rev_a.a(usb_iomux_config.o)
 .debug_line    0x000048d7      0x128 /home/leon/git/swp-report/iMX6_Platform_SDK/output/mx6dq/lib/libboard_evb_rev_a.a(usdhc1_iomux_config.o)
 .debug_line    0x000049ff      0x12e /home/leon/git/swp-report/iMX6_Platform_SDK/output/mx6dq/lib/libboard_evb_rev_a.a(usdhc2_iomux_config.o)
 .debug_line    0x00004b2d      0x134 /home/leon/git/swp-report/iMX6_Platform_SDK/output/mx6dq/lib/libboard_evb_rev_a.a(usdhc3_iomux_config.o)
 .debug_line    0x00004c61      0x128 /home/leon/git/swp-report/iMX6_Platform_SDK/output/mx6dq/lib/libboard_evb_rev_a.a(usdhc4_iomux_config.o)
 .debug_line    0x00004d89       0xed /home/leon/git/swp-report/iMX6_Platform_SDK/output/mx6dq/lib/libboard_evb_rev_a.a(ccm_iomux_config.o)
 .debug_line    0x00004e76      0x117 /home/leon/git/swp-report/iMX6_Platform_SDK/output/mx6dq/lib/libboard_evb_rev_a.a(ecspi1_iomux_config.o)
 .debug_line    0x00004f8d      0x18d /home/leon/git/swp-report/iMX6_Platform_SDK/output/mx6dq/lib/libboard_evb_rev_a.a(enet_iomux_config.o)
 .debug_line    0x0000511a      0x154 /home/leon/git/swp-report/iMX6_Platform_SDK/output/mx6dq/lib/libboard_evb_rev_a.a(esai_iomux_config.o)
 .debug_line    0x0000526e       0xfd /home/leon/git/swp-report/iMX6_Platform_SDK/output/mx6dq/lib/libboard_evb_rev_a.a(flexcan1_iomux_config.o)
 .debug_line    0x0000536b       0xfd /home/leon/git/swp-report/iMX6_Platform_SDK/output/mx6dq/lib/libboard_evb_rev_a.a(flexcan2_iomux_config.o)
 .debug_line    0x00005468       0xf7 /home/leon/git/swp-report/iMX6_Platform_SDK/output/mx6dq/lib/libboard_evb_rev_a.a(gpio3_iomux_config.o)
 .debug_line    0x0000555f       0xf7 /home/leon/git/swp-report/iMX6_Platform_SDK/output/mx6dq/lib/libboard_evb_rev_a.a(gpio4_iomux_config.o)
 .debug_line    0x00005656      0x103 /home/leon/git/swp-report/iMX6_Platform_SDK/output/mx6dq/lib/libboard_evb_rev_a.a(gpio5_iomux_config.o)
 .debug_line    0x00005759       0xf7 /home/leon/git/swp-report/iMX6_Platform_SDK/output/mx6dq/lib/libboard_evb_rev_a.a(gpio6_iomux_config.o)
 .debug_line    0x00005850      0x15c /home/leon/git/swp-report/iMX6_Platform_SDK/output/mx6dq/lib/libboard_evb_rev_a.a(gpmi_iomux_config.o)
 .debug_line    0x000059ac       0xf1 /home/leon/git/swp-report/iMX6_Platform_SDK/output/mx6dq/lib/libboard_evb_rev_a.a(hdmi_iomux_config.o)
 .debug_line    0x00005a9d       0xfa /home/leon/git/swp-report/iMX6_Platform_SDK/output/mx6dq/lib/libboard_evb_rev_a.a(i2c1_iomux_config.o)
 .debug_line    0x00005b97       0xfa /home/leon/git/swp-report/iMX6_Platform_SDK/output/mx6dq/lib/libboard_evb_rev_a.a(i2c2_iomux_config.o)
 .debug_line    0x00005c91       0xfa /home/leon/git/swp-report/iMX6_Platform_SDK/output/mx6dq/lib/libboard_evb_rev_a.a(i2c3_iomux_config.o)
 .debug_line    0x00005d8b      0x194 /home/leon/git/swp-report/iMX6_Platform_SDK/output/mx6dq/lib/libsdk.a(max7310.o)
 .debug_line    0x00005f1f      0x234 /home/leon/git/swp-report/iMX6_Platform_SDK/output/mx6dq/lib/libsdk.a(runtime_support.o)
 .debug_line    0x00006153      0x892 /home/leon/git/swp-report/iMX6_Platform_SDK/output/mx6dq/lib/libsdk.a(imx_i2c.o)
 .debug_line    0x000069e5       0x8a /home/leon/git/swp-report/iMX6_Platform_SDK/output/mx6dq/lib/libboard_evb_rev_a.a(i2c_iomux_config.o)

.debug_str      0x00000000    0x129ef
 .debug_str     0x00000000      0x14a /home/leon/git/swp-report/iMX6_Platform_SDK/output/mx6dq/smp_primes/evb_rev_a/obj/apps/common/ivt.o
                                0x1ad (size before relaxing)
 .debug_str     0x0000014a      0x1f4 /home/leon/git/swp-report/iMX6_Platform_SDK/output/mx6dq/smp_primes/evb_rev_a/obj/apps/common/platform_init.o
                                0x2a3 (size before relaxing)
 .debug_str     0x0000033e      0x159 /home/leon/git/swp-report/iMX6_Platform_SDK/output/mx6dq/smp_primes/evb_rev_a/obj/apps/smp_primes/src/main.o
                                0x20b (size before relaxing)
 .debug_str     0x00000497       0xd8 /home/leon/git/swp-report/iMX6_Platform_SDK/output/mx6dq/smp_primes/evb_rev_a/obj/apps/smp_primes/src/primes.o
                                0x23b (size before relaxing)
 .debug_str     0x0000056f      0x1fe /home/leon/git/swp-report/iMX6_Platform_SDK/output/mx6dq/lib/libsdk.a(armv7_cache.o)
                                0x2aa (size before relaxing)
 .debug_str     0x0000076d      0xfe5 /home/leon/git/swp-report/iMX6_Platform_SDK/output/mx6dq/lib/libsdk.a(ccm_pll.o)
                               0x10fc (size before relaxing)
 .debug_str     0x00001752      0x4e1 /home/leon/git/swp-report/iMX6_Platform_SDK/output/mx6dq/lib/libsdk.a(gic.o)
                                0x5f2 (size before relaxing)
 .debug_str     0x00001c33      0x1a8 /home/leon/git/swp-report/iMX6_Platform_SDK/output/mx6dq/lib/libsdk.a(mmu.o)
                                0x35e (size before relaxing)
 .debug_str     0x00001ddb       0xae /home/leon/git/swp-report/iMX6_Platform_SDK/output/mx6dq/lib/libsdk.a(spinlock.o)
                                0x18c (size before relaxing)
 .debug_str     0x00001e89      0x4b9 /home/leon/git/swp-report/iMX6_Platform_SDK/output/mx6dq/lib/libsdk.a(system_util.o)
                                0x7ac (size before relaxing)
 .debug_str     0x00002342      0x1ef /home/leon/git/swp-report/iMX6_Platform_SDK/output/mx6dq/lib/libsdk.a(text_color.o)
                                0x305 (size before relaxing)
 .debug_str     0x00002531      0x150 /home/leon/git/swp-report/iMX6_Platform_SDK/output/mx6dq/lib/libsdk.a(cpu_get_cores.o)
                                0x20a (size before relaxing)
 .debug_str     0x00002681      0x377 /home/leon/git/swp-report/iMX6_Platform_SDK/output/mx6dq/lib/libsdk.a(cpu_multicore.o)
                                0x494 (size before relaxing)
 .debug_str     0x000029f8      0x2bd /home/leon/git/swp-report/iMX6_Platform_SDK/output/mx6dq/lib/libsdk.a(timer.o)
                                0x3f8 (size before relaxing)
 .debug_str     0x00002cb5     0x1051 /home/leon/git/swp-report/iMX6_Platform_SDK/output/mx6dq/lib/libsdk.a(imx_uart.o)
                               0x12ee (size before relaxing)
 .debug_str     0x00003d06       0xd0 /home/leon/git/swp-report/iMX6_Platform_SDK/output/mx6dq/lib/libsdk.a(interrupt.o)
                                0xc85 (size before relaxing)
 .debug_str     0x00003dd6      0x283 /home/leon/git/swp-report/iMX6_Platform_SDK/output/mx6dq/lib/libsdk.a(epit.o)
                                0xf06 (size before relaxing)
 .debug_str     0x00004059       0xbc /home/leon/git/swp-report/iMX6_Platform_SDK/output/mx6dq/lib/libsdk.a(abort_handler.o)
                                0x1a1 (size before relaxing)
 .debug_str     0x00004115      0x171 /home/leon/git/swp-report/iMX6_Platform_SDK/output/mx6dq/lib/libboard_evb_rev_a.a(board_io_expanders.o)
                                0x240 (size before relaxing)
 .debug_str     0x00004286       0x4c /home/leon/git/swp-report/iMX6_Platform_SDK/output/mx6dq/lib/libboard_evb_rev_a.a(hardware_modules.o)
                                0x152 (size before relaxing)
 .debug_str     0x000042d2       0xe5 /home/leon/git/swp-report/iMX6_Platform_SDK/output/mx6dq/lib/libboard_evb_rev_a.a(dcd.o)
                                0x19f (size before relaxing)
 .debug_str     0x000043b7       0xaa /home/leon/git/swp-report/iMX6_Platform_SDK/output/mx6dq/lib/libboard_evb_rev_a.a(uart_iomux_config.o)
                                0x160 (size before relaxing)
 .debug_str     0x00004461      0x2eb /home/leon/git/swp-report/iMX6_Platform_SDK/output/mx6dq/lib/libboard_evb_rev_a.a(iomux_config.o)
                                0x315 (size before relaxing)
 .debug_str     0x0000474c     0x29da /home/leon/git/swp-report/iMX6_Platform_SDK/output/mx6dq/lib/libboard_evb_rev_a.a(ipu1_iomux_config.o)
                               0x2a43 (size before relaxing)
 .debug_str     0x00007126      0x87c /home/leon/git/swp-report/iMX6_Platform_SDK/output/mx6dq/lib/libboard_evb_rev_a.a(kpp_iomux_config.o)
                                0x8f9 (size before relaxing)
 .debug_str     0x000079a2      0x47d /home/leon/git/swp-report/iMX6_Platform_SDK/output/mx6dq/lib/libboard_evb_rev_a.a(mlb_iomux_config.o)
                                0x500 (size before relaxing)
 .debug_str     0x00007e1f     0x2196 /home/leon/git/swp-report/iMX6_Platform_SDK/output/mx6dq/lib/libboard_evb_rev_a.a(mmdc_iomux_config.o)
                               0x2209 (size before relaxing)
 .debug_str     0x00009fb5      0x144 /home/leon/git/swp-report/iMX6_Platform_SDK/output/mx6dq/lib/libboard_evb_rev_a.a(pwm1_iomux_config.o)
                                0x1c1 (size before relaxing)
 .debug_str     0x0000a0f9      0x324 /home/leon/git/swp-report/iMX6_Platform_SDK/output/mx6dq/lib/libboard_evb_rev_a.a(sjc_iomux_config.o)
                                0x393 (size before relaxing)
 .debug_str     0x0000a41d      0x69e /home/leon/git/swp-report/iMX6_Platform_SDK/output/mx6dq/lib/libboard_evb_rev_a.a(spdif_iomux_config.o)
                                0x735 (size before relaxing)
 .debug_str     0x0000aabb      0x54c /home/leon/git/swp-report/iMX6_Platform_SDK/output/mx6dq/lib/libboard_evb_rev_a.a(uart2_iomux_config.o)
                                0x5cf (size before relaxing)
 .debug_str     0x0000b007      0x2c6 /home/leon/git/swp-report/iMX6_Platform_SDK/output/mx6dq/lib/libboard_evb_rev_a.a(uart4_iomux_config.o)
                                0x349 (size before relaxing)
 .debug_str     0x0000b2cd      0x39e /home/leon/git/swp-report/iMX6_Platform_SDK/output/mx6dq/lib/libboard_evb_rev_a.a(usb_iomux_config.o)
                                0x421 (size before relaxing)
 .debug_str     0x0000b66b      0x9d0 /home/leon/git/swp-report/iMX6_Platform_SDK/output/mx6dq/lib/libboard_evb_rev_a.a(usdhc1_iomux_config.o)
                                0xa4d (size before relaxing)
 .debug_str     0x0000c03b      0x530 /home/leon/git/swp-report/iMX6_Platform_SDK/output/mx6dq/lib/libboard_evb_rev_a.a(usdhc2_iomux_config.o)
                                0xb29 (size before relaxing)
 .debug_str     0x0000c56b      0xb6a /home/leon/git/swp-report/iMX6_Platform_SDK/output/mx6dq/lib/libboard_evb_rev_a.a(usdhc3_iomux_config.o)
                                0xbe7 (size before relaxing)
 .debug_str     0x0000d0d5      0x9a0 /home/leon/git/swp-report/iMX6_Platform_SDK/output/mx6dq/lib/libboard_evb_rev_a.a(usdhc4_iomux_config.o)
                                0xa1d (size before relaxing)
 .debug_str     0x0000da75      0x142 /home/leon/git/swp-report/iMX6_Platform_SDK/output/mx6dq/lib/libboard_evb_rev_a.a(ccm_iomux_config.o)
                                0x1bf (size before relaxing)
 .debug_str     0x0000dbb7      0x780 /home/leon/git/swp-report/iMX6_Platform_SDK/output/mx6dq/lib/libboard_evb_rev_a.a(ecspi1_iomux_config.o)
                                0x803 (size before relaxing)
 .debug_str     0x0000e337     0x10c9 /home/leon/git/swp-report/iMX6_Platform_SDK/output/mx6dq/lib/libboard_evb_rev_a.a(enet_iomux_config.o)
                               0x13e2 (size before relaxing)
 .debug_str     0x0000f400      0xfea /home/leon/git/swp-report/iMX6_Platform_SDK/output/mx6dq/lib/libboard_evb_rev_a.a(esai_iomux_config.o)
                               0x125b (size before relaxing)
 .debug_str     0x000103ea      0x2ab /home/leon/git/swp-report/iMX6_Platform_SDK/output/mx6dq/lib/libboard_evb_rev_a.a(flexcan1_iomux_config.o)
                                0x32e (size before relaxing)
 .debug_str     0x00010695      0x2b7 /home/leon/git/swp-report/iMX6_Platform_SDK/output/mx6dq/lib/libboard_evb_rev_a.a(flexcan2_iomux_config.o)
                                0x33a (size before relaxing)
 .debug_str     0x0001094c      0x252 /home/leon/git/swp-report/iMX6_Platform_SDK/output/mx6dq/lib/libboard_evb_rev_a.a(gpio3_iomux_config.o)
                                0x2cf (size before relaxing)
 .debug_str     0x00010b9e      0x22e /home/leon/git/swp-report/iMX6_Platform_SDK/output/mx6dq/lib/libboard_evb_rev_a.a(gpio4_iomux_config.o)
                                0x2ab (size before relaxing)
 .debug_str     0x00010dcc      0x452 /home/leon/git/swp-report/iMX6_Platform_SDK/output/mx6dq/lib/libboard_evb_rev_a.a(gpio5_iomux_config.o)
                                0x4cf (size before relaxing)
 .debug_str     0x0001121e      0x252 /home/leon/git/swp-report/iMX6_Platform_SDK/output/mx6dq/lib/libboard_evb_rev_a.a(gpio6_iomux_config.o)
                                0x2cf (size before relaxing)
 .debug_str     0x00011470      0x41a /home/leon/git/swp-report/iMX6_Platform_SDK/output/mx6dq/lib/libboard_evb_rev_a.a(gpmi_iomux_config.o)
                               0x12e9 (size before relaxing)
 .debug_str     0x0001188a      0x1d3 /home/leon/git/swp-report/iMX6_Platform_SDK/output/mx6dq/lib/libboard_evb_rev_a.a(hdmi_iomux_config.o)
                                0x256 (size before relaxing)
 .debug_str     0x00011a5d      0x34a /home/leon/git/swp-report/iMX6_Platform_SDK/output/mx6dq/lib/libboard_evb_rev_a.a(i2c1_iomux_config.o)
                                0x3cd (size before relaxing)
 .debug_str     0x00011da7      0x23e /home/leon/git/swp-report/iMX6_Platform_SDK/output/mx6dq/lib/libboard_evb_rev_a.a(i2c2_iomux_config.o)
                                0x3a9 (size before relaxing)
 .debug_str     0x00011fe5      0x30e /home/leon/git/swp-report/iMX6_Platform_SDK/output/mx6dq/lib/libboard_evb_rev_a.a(i2c3_iomux_config.o)
                                0x391 (size before relaxing)
 .debug_str     0x000122f3      0x112 /home/leon/git/swp-report/iMX6_Platform_SDK/output/mx6dq/lib/libsdk.a(max7310.o)
                                0x2ab (size before relaxing)
 .debug_str     0x00012405      0x238 /home/leon/git/swp-report/iMX6_Platform_SDK/output/mx6dq/lib/libsdk.a(runtime_support.o)
                                0x3ac (size before relaxing)
 .debug_str     0x0001263d      0x34c /home/leon/git/swp-report/iMX6_Platform_SDK/output/mx6dq/lib/libsdk.a(imx_i2c.o)
                               0x1099 (size before relaxing)
 .debug_str     0x00012989       0x66 /home/leon/git/swp-report/iMX6_Platform_SDK/output/mx6dq/lib/libboard_evb_rev_a.a(i2c_iomux_config.o)
                                0x15e (size before relaxing)

.debug_loc      0x00000000     0x22b8
 .debug_loc     0x00000000       0x2c /home/leon/git/swp-report/iMX6_Platform_SDK/output/mx6dq/smp_primes/evb_rev_a/obj/apps/common/platform_init.o
 .debug_loc     0x0000002c       0x84 /home/leon/git/swp-report/iMX6_Platform_SDK/output/mx6dq/smp_primes/evb_rev_a/obj/apps/smp_primes/src/main.o
 .debug_loc     0x000000b0       0xb0 /home/leon/git/swp-report/iMX6_Platform_SDK/output/mx6dq/smp_primes/evb_rev_a/obj/apps/smp_primes/src/primes.o
 .debug_loc     0x00000160      0x2c0 /home/leon/git/swp-report/iMX6_Platform_SDK/output/mx6dq/lib/libsdk.a(armv7_cache.o)
 .debug_loc     0x00000420      0x18c /home/leon/git/swp-report/iMX6_Platform_SDK/output/mx6dq/lib/libsdk.a(ccm_pll.o)
 .debug_loc     0x000005ac      0x2ec /home/leon/git/swp-report/iMX6_Platform_SDK/output/mx6dq/lib/libsdk.a(gic.o)
 .debug_loc     0x00000898       0xdc /home/leon/git/swp-report/iMX6_Platform_SDK/output/mx6dq/lib/libsdk.a(mmu.o)
 .debug_loc     0x00000974       0x58 /home/leon/git/swp-report/iMX6_Platform_SDK/output/mx6dq/lib/libsdk.a(spinlock.o)
 .debug_loc     0x000009cc      0x108 /home/leon/git/swp-report/iMX6_Platform_SDK/output/mx6dq/lib/libsdk.a(system_util.o)
 .debug_loc     0x00000ad4       0x58 /home/leon/git/swp-report/iMX6_Platform_SDK/output/mx6dq/lib/libsdk.a(text_color.o)
 .debug_loc     0x00000b2c       0x2c /home/leon/git/swp-report/iMX6_Platform_SDK/output/mx6dq/lib/libsdk.a(cpu_get_cores.o)
 .debug_loc     0x00000b58       0x84 /home/leon/git/swp-report/iMX6_Platform_SDK/output/mx6dq/lib/libsdk.a(cpu_multicore.o)
 .debug_loc     0x00000bdc       0xb0 /home/leon/git/swp-report/iMX6_Platform_SDK/output/mx6dq/lib/libsdk.a(timer.o)
 .debug_loc     0x00000c8c      0x134 /home/leon/git/swp-report/iMX6_Platform_SDK/output/mx6dq/lib/libsdk.a(imx_uart.o)
 .debug_loc     0x00000dc0       0xdc /home/leon/git/swp-report/iMX6_Platform_SDK/output/mx6dq/lib/libsdk.a(interrupt.o)
 .debug_loc     0x00000e9c      0x160 /home/leon/git/swp-report/iMX6_Platform_SDK/output/mx6dq/lib/libsdk.a(epit.o)
 .debug_loc     0x00000ffc       0x2c /home/leon/git/swp-report/iMX6_Platform_SDK/output/mx6dq/lib/libsdk.a(abort_handler.o)
 .debug_loc     0x00001028       0x58 /home/leon/git/swp-report/iMX6_Platform_SDK/output/mx6dq/lib/libboard_evb_rev_a.a(board_io_expanders.o)
 .debug_loc     0x00001080       0x2c /home/leon/git/swp-report/iMX6_Platform_SDK/output/mx6dq/lib/libboard_evb_rev_a.a(uart_iomux_config.o)
 .debug_loc     0x000010ac      0x65c /home/leon/git/swp-report/iMX6_Platform_SDK/output/mx6dq/lib/libboard_evb_rev_a.a(iomux_config.o)
 .debug_loc     0x00001708       0x2c /home/leon/git/swp-report/iMX6_Platform_SDK/output/mx6dq/lib/libboard_evb_rev_a.a(ipu1_iomux_config.o)
 .debug_loc     0x00001734       0x2c /home/leon/git/swp-report/iMX6_Platform_SDK/output/mx6dq/lib/libboard_evb_rev_a.a(kpp_iomux_config.o)
 .debug_loc     0x00001760       0x2c /home/leon/git/swp-report/iMX6_Platform_SDK/output/mx6dq/lib/libboard_evb_rev_a.a(mlb_iomux_config.o)
 .debug_loc     0x0000178c       0x2c /home/leon/git/swp-report/iMX6_Platform_SDK/output/mx6dq/lib/libboard_evb_rev_a.a(mmdc_iomux_config.o)
 .debug_loc     0x000017b8       0x2c /home/leon/git/swp-report/iMX6_Platform_SDK/output/mx6dq/lib/libboard_evb_rev_a.a(pwm1_iomux_config.o)
 .debug_loc     0x000017e4       0x2c /home/leon/git/swp-report/iMX6_Platform_SDK/output/mx6dq/lib/libboard_evb_rev_a.a(sjc_iomux_config.o)
 .debug_loc     0x00001810       0x2c /home/leon/git/swp-report/iMX6_Platform_SDK/output/mx6dq/lib/libboard_evb_rev_a.a(spdif_iomux_config.o)
 .debug_loc     0x0000183c       0x2c /home/leon/git/swp-report/iMX6_Platform_SDK/output/mx6dq/lib/libboard_evb_rev_a.a(uart2_iomux_config.o)
 .debug_loc     0x00001868       0x2c /home/leon/git/swp-report/iMX6_Platform_SDK/output/mx6dq/lib/libboard_evb_rev_a.a(uart4_iomux_config.o)
 .debug_loc     0x00001894       0x2c /home/leon/git/swp-report/iMX6_Platform_SDK/output/mx6dq/lib/libboard_evb_rev_a.a(usb_iomux_config.o)
 .debug_loc     0x000018c0       0x2c /home/leon/git/swp-report/iMX6_Platform_SDK/output/mx6dq/lib/libboard_evb_rev_a.a(usdhc1_iomux_config.o)
 .debug_loc     0x000018ec       0x2c /home/leon/git/swp-report/iMX6_Platform_SDK/output/mx6dq/lib/libboard_evb_rev_a.a(usdhc2_iomux_config.o)
 .debug_loc     0x00001918       0x2c /home/leon/git/swp-report/iMX6_Platform_SDK/output/mx6dq/lib/libboard_evb_rev_a.a(usdhc3_iomux_config.o)
 .debug_loc     0x00001944       0x2c /home/leon/git/swp-report/iMX6_Platform_SDK/output/mx6dq/lib/libboard_evb_rev_a.a(usdhc4_iomux_config.o)
 .debug_loc     0x00001970       0x2c /home/leon/git/swp-report/iMX6_Platform_SDK/output/mx6dq/lib/libboard_evb_rev_a.a(ccm_iomux_config.o)
 .debug_loc     0x0000199c       0x2c /home/leon/git/swp-report/iMX6_Platform_SDK/output/mx6dq/lib/libboard_evb_rev_a.a(ecspi1_iomux_config.o)
 .debug_loc     0x000019c8       0x2c /home/leon/git/swp-report/iMX6_Platform_SDK/output/mx6dq/lib/libboard_evb_rev_a.a(enet_iomux_config.o)
 .debug_loc     0x000019f4       0x2c /home/leon/git/swp-report/iMX6_Platform_SDK/output/mx6dq/lib/libboard_evb_rev_a.a(esai_iomux_config.o)
 .debug_loc     0x00001a20       0x2c /home/leon/git/swp-report/iMX6_Platform_SDK/output/mx6dq/lib/libboard_evb_rev_a.a(flexcan1_iomux_config.o)
 .debug_loc     0x00001a4c       0x2c /home/leon/git/swp-report/iMX6_Platform_SDK/output/mx6dq/lib/libboard_evb_rev_a.a(flexcan2_iomux_config.o)
 .debug_loc     0x00001a78       0x2c /home/leon/git/swp-report/iMX6_Platform_SDK/output/mx6dq/lib/libboard_evb_rev_a.a(gpio3_iomux_config.o)
 .debug_loc     0x00001aa4       0x2c /home/leon/git/swp-report/iMX6_Platform_SDK/output/mx6dq/lib/libboard_evb_rev_a.a(gpio4_iomux_config.o)
 .debug_loc     0x00001ad0       0x2c /home/leon/git/swp-report/iMX6_Platform_SDK/output/mx6dq/lib/libboard_evb_rev_a.a(gpio5_iomux_config.o)
 .debug_loc     0x00001afc       0x2c /home/leon/git/swp-report/iMX6_Platform_SDK/output/mx6dq/lib/libboard_evb_rev_a.a(gpio6_iomux_config.o)
 .debug_loc     0x00001b28       0x2c /home/leon/git/swp-report/iMX6_Platform_SDK/output/mx6dq/lib/libboard_evb_rev_a.a(gpmi_iomux_config.o)
 .debug_loc     0x00001b54       0x2c /home/leon/git/swp-report/iMX6_Platform_SDK/output/mx6dq/lib/libboard_evb_rev_a.a(hdmi_iomux_config.o)
 .debug_loc     0x00001b80       0x2c /home/leon/git/swp-report/iMX6_Platform_SDK/output/mx6dq/lib/libboard_evb_rev_a.a(i2c1_iomux_config.o)
 .debug_loc     0x00001bac       0x2c /home/leon/git/swp-report/iMX6_Platform_SDK/output/mx6dq/lib/libboard_evb_rev_a.a(i2c2_iomux_config.o)
 .debug_loc     0x00001bd8       0x2c /home/leon/git/swp-report/iMX6_Platform_SDK/output/mx6dq/lib/libboard_evb_rev_a.a(i2c3_iomux_config.o)
 .debug_loc     0x00001c04       0xb0 /home/leon/git/swp-report/iMX6_Platform_SDK/output/mx6dq/lib/libsdk.a(max7310.o)
 .debug_loc     0x00001cb4      0x370 /home/leon/git/swp-report/iMX6_Platform_SDK/output/mx6dq/lib/libsdk.a(runtime_support.o)
 .debug_loc     0x00002024      0x268 /home/leon/git/swp-report/iMX6_Platform_SDK/output/mx6dq/lib/libsdk.a(imx_i2c.o)
 .debug_loc     0x0000228c       0x2c /home/leon/git/swp-report/iMX6_Platform_SDK/output/mx6dq/lib/libboard_evb_rev_a.a(i2c_iomux_config.o)

.debug_frame    0x00000000     0x2df4
 .debug_frame   0x00000000       0x30 /home/leon/git/swp-report/iMX6_Platform_SDK/output/mx6dq/smp_primes/evb_rev_a/obj/apps/common/platform_init.o
 .debug_frame   0x00000030       0x70 /home/leon/git/swp-report/iMX6_Platform_SDK/output/mx6dq/smp_primes/evb_rev_a/obj/apps/smp_primes/src/main.o
 .debug_frame   0x000000a0       0x90 /home/leon/git/swp-report/iMX6_Platform_SDK/output/mx6dq/smp_primes/evb_rev_a/obj/apps/smp_primes/src/primes.o
 .debug_frame   0x00000130      0x210 /home/leon/git/swp-report/iMX6_Platform_SDK/output/mx6dq/lib/libsdk.a(armv7_cache.o)
 .debug_frame   0x00000340      0x130 /home/leon/git/swp-report/iMX6_Platform_SDK/output/mx6dq/lib/libsdk.a(ccm_pll.o)
 .debug_frame   0x00000470      0x230 /home/leon/git/swp-report/iMX6_Platform_SDK/output/mx6dq/lib/libsdk.a(gic.o)
 .debug_frame   0x000006a0       0xb0 /home/leon/git/swp-report/iMX6_Platform_SDK/output/mx6dq/lib/libsdk.a(mmu.o)
 .debug_frame   0x00000750       0x50 /home/leon/git/swp-report/iMX6_Platform_SDK/output/mx6dq/lib/libsdk.a(spinlock.o)
 .debug_frame   0x000007a0       0xe0 /home/leon/git/swp-report/iMX6_Platform_SDK/output/mx6dq/lib/libsdk.a(system_util.o)
 .debug_frame   0x00000880       0x54 /home/leon/git/swp-report/iMX6_Platform_SDK/output/mx6dq/lib/libsdk.a(text_color.o)
 .debug_frame   0x000008d4       0x30 /home/leon/git/swp-report/iMX6_Platform_SDK/output/mx6dq/lib/libsdk.a(cpu_get_cores.o)
 .debug_frame   0x00000904       0x70 /home/leon/git/swp-report/iMX6_Platform_SDK/output/mx6dq/lib/libsdk.a(cpu_multicore.o)
 .debug_frame   0x00000974       0x94 /home/leon/git/swp-report/iMX6_Platform_SDK/output/mx6dq/lib/libsdk.a(timer.o)
 .debug_frame   0x00000a08       0xf0 /home/leon/git/swp-report/iMX6_Platform_SDK/output/mx6dq/lib/libsdk.a(imx_uart.o)
 .debug_frame   0x00000af8       0xb8 /home/leon/git/swp-report/iMX6_Platform_SDK/output/mx6dq/lib/libsdk.a(interrupt.o)
 .debug_frame   0x00000bb0      0x110 /home/leon/git/swp-report/iMX6_Platform_SDK/output/mx6dq/lib/libsdk.a(epit.o)
 .debug_frame   0x00000cc0       0x38 /home/leon/git/swp-report/iMX6_Platform_SDK/output/mx6dq/lib/libsdk.a(abort_handler.o)
 .debug_frame   0x00000cf8       0x50 /home/leon/git/swp-report/iMX6_Platform_SDK/output/mx6dq/lib/libboard_evb_rev_a.a(board_io_expanders.o)
 .debug_frame   0x00000d48       0x30 /home/leon/git/swp-report/iMX6_Platform_SDK/output/mx6dq/lib/libboard_evb_rev_a.a(uart_iomux_config.o)
 .debug_frame   0x00000d78      0x4b0 /home/leon/git/swp-report/iMX6_Platform_SDK/output/mx6dq/lib/libboard_evb_rev_a.a(iomux_config.o)
 .debug_frame   0x00001228       0x30 /home/leon/git/swp-report/iMX6_Platform_SDK/output/mx6dq/lib/libboard_evb_rev_a.a(ipu1_iomux_config.o)
 .debug_frame   0x00001258       0x30 /home/leon/git/swp-report/iMX6_Platform_SDK/output/mx6dq/lib/libboard_evb_rev_a.a(kpp_iomux_config.o)
 .debug_frame   0x00001288       0x30 /home/leon/git/swp-report/iMX6_Platform_SDK/output/mx6dq/lib/libboard_evb_rev_a.a(mlb_iomux_config.o)
 .debug_frame   0x000012b8       0x30 /home/leon/git/swp-report/iMX6_Platform_SDK/output/mx6dq/lib/libboard_evb_rev_a.a(mmdc_iomux_config.o)
 .debug_frame   0x000012e8       0x30 /home/leon/git/swp-report/iMX6_Platform_SDK/output/mx6dq/lib/libboard_evb_rev_a.a(pwm1_iomux_config.o)
 .debug_frame   0x00001318       0x30 /home/leon/git/swp-report/iMX6_Platform_SDK/output/mx6dq/lib/libboard_evb_rev_a.a(sjc_iomux_config.o)
 .debug_frame   0x00001348       0x30 /home/leon/git/swp-report/iMX6_Platform_SDK/output/mx6dq/lib/libboard_evb_rev_a.a(spdif_iomux_config.o)
 .debug_frame   0x00001378       0x30 /home/leon/git/swp-report/iMX6_Platform_SDK/output/mx6dq/lib/libboard_evb_rev_a.a(uart2_iomux_config.o)
 .debug_frame   0x000013a8       0x30 /home/leon/git/swp-report/iMX6_Platform_SDK/output/mx6dq/lib/libboard_evb_rev_a.a(uart4_iomux_config.o)
 .debug_frame   0x000013d8       0x30 /home/leon/git/swp-report/iMX6_Platform_SDK/output/mx6dq/lib/libboard_evb_rev_a.a(usb_iomux_config.o)
 .debug_frame   0x00001408       0x30 /home/leon/git/swp-report/iMX6_Platform_SDK/output/mx6dq/lib/libboard_evb_rev_a.a(usdhc1_iomux_config.o)
 .debug_frame   0x00001438       0x30 /home/leon/git/swp-report/iMX6_Platform_SDK/output/mx6dq/lib/libboard_evb_rev_a.a(usdhc2_iomux_config.o)
 .debug_frame   0x00001468       0x30 /home/leon/git/swp-report/iMX6_Platform_SDK/output/mx6dq/lib/libboard_evb_rev_a.a(usdhc3_iomux_config.o)
 .debug_frame   0x00001498       0x30 /home/leon/git/swp-report/iMX6_Platform_SDK/output/mx6dq/lib/libboard_evb_rev_a.a(usdhc4_iomux_config.o)
 .debug_frame   0x000014c8       0x30 /home/leon/git/swp-report/iMX6_Platform_SDK/output/mx6dq/lib/libboard_evb_rev_a.a(ccm_iomux_config.o)
 .debug_frame   0x000014f8       0x30 /home/leon/git/swp-report/iMX6_Platform_SDK/output/mx6dq/lib/libboard_evb_rev_a.a(ecspi1_iomux_config.o)
 .debug_frame   0x00001528       0x30 /home/leon/git/swp-report/iMX6_Platform_SDK/output/mx6dq/lib/libboard_evb_rev_a.a(enet_iomux_config.o)
 .debug_frame   0x00001558       0x30 /home/leon/git/swp-report/iMX6_Platform_SDK/output/mx6dq/lib/libboard_evb_rev_a.a(esai_iomux_config.o)
 .debug_frame   0x00001588       0x30 /home/leon/git/swp-report/iMX6_Platform_SDK/output/mx6dq/lib/libboard_evb_rev_a.a(flexcan1_iomux_config.o)
 .debug_frame   0x000015b8       0x30 /home/leon/git/swp-report/iMX6_Platform_SDK/output/mx6dq/lib/libboard_evb_rev_a.a(flexcan2_iomux_config.o)
 .debug_frame   0x000015e8       0x30 /home/leon/git/swp-report/iMX6_Platform_SDK/output/mx6dq/lib/libboard_evb_rev_a.a(gpio3_iomux_config.o)
 .debug_frame   0x00001618       0x30 /home/leon/git/swp-report/iMX6_Platform_SDK/output/mx6dq/lib/libboard_evb_rev_a.a(gpio4_iomux_config.o)
 .debug_frame   0x00001648       0x30 /home/leon/git/swp-report/iMX6_Platform_SDK/output/mx6dq/lib/libboard_evb_rev_a.a(gpio5_iomux_config.o)
 .debug_frame   0x00001678       0x30 /home/leon/git/swp-report/iMX6_Platform_SDK/output/mx6dq/lib/libboard_evb_rev_a.a(gpio6_iomux_config.o)
 .debug_frame   0x000016a8       0x30 /home/leon/git/swp-report/iMX6_Platform_SDK/output/mx6dq/lib/libboard_evb_rev_a.a(gpmi_iomux_config.o)
 .debug_frame   0x000016d8       0x30 /home/leon/git/swp-report/iMX6_Platform_SDK/output/mx6dq/lib/libboard_evb_rev_a.a(hdmi_iomux_config.o)
 .debug_frame   0x00001708       0x30 /home/leon/git/swp-report/iMX6_Platform_SDK/output/mx6dq/lib/libboard_evb_rev_a.a(i2c1_iomux_config.o)
 .debug_frame   0x00001738       0x30 /home/leon/git/swp-report/iMX6_Platform_SDK/output/mx6dq/lib/libboard_evb_rev_a.a(i2c2_iomux_config.o)
 .debug_frame   0x00001768       0x30 /home/leon/git/swp-report/iMX6_Platform_SDK/output/mx6dq/lib/libboard_evb_rev_a.a(i2c3_iomux_config.o)
 .debug_frame   0x00001798       0x40 /home/leon/riotboard/arm-2012.09/bin/../arm-none-eabi/lib//libc.a(lib_a-assert.o)
 .debug_frame   0x000017d8       0x20 /home/leon/riotboard/arm-2012.09/bin/../arm-none-eabi/lib//libc.a(lib_a-bzero.o)
 .debug_frame   0x000017f8       0x54 /home/leon/riotboard/arm-2012.09/bin/../arm-none-eabi/lib//libc.a(lib_a-fiprintf.o)
 .debug_frame   0x0000184c       0x48 /home/leon/riotboard/arm-2012.09/bin/../arm-none-eabi/lib//libc.a(lib_a-fputc.o)
 .debug_frame   0x00001894       0x2c /home/leon/riotboard/arm-2012.09/bin/../arm-none-eabi/lib//libc.a(lib_a-init.o)
 .debug_frame   0x000018c0       0x40 /home/leon/riotboard/arm-2012.09/bin/../arm-none-eabi/lib//libc.a(lib_a-malloc.o)
 .debug_frame   0x00001900       0x38 /home/leon/riotboard/arm-2012.09/bin/../arm-none-eabi/lib//libc.a(lib_a-mallocr.o)
 .debug_frame   0x00001938       0x30 /home/leon/riotboard/arm-2012.09/bin/../arm-none-eabi/lib//libc.a(lib_a-mlock.o)
 .debug_frame   0x00001968       0x58 /home/leon/riotboard/arm-2012.09/bin/../arm-none-eabi/lib//libc.a(lib_a-printf.o)
 .debug_frame   0x000019c0       0x48 /home/leon/riotboard/arm-2012.09/bin/../arm-none-eabi/lib//libc.a(lib_a-putc.o)
 .debug_frame   0x00001a08       0x28 /home/leon/riotboard/arm-2012.09/bin/../arm-none-eabi/lib//libc.a(lib_a-realloc.o)
 .debug_frame   0x00001a30       0x38 /home/leon/riotboard/arm-2012.09/bin/../arm-none-eabi/lib//libc.a(lib_a-reallocr.o)
 .debug_frame   0x00001a68       0x3c /home/leon/riotboard/arm-2012.09/bin/../arm-none-eabi/lib//libc.a(lib_a-rget.o)
 .debug_frame   0x00001aa4       0x2c /home/leon/riotboard/arm-2012.09/bin/../arm-none-eabi/lib//libc.a(lib_a-sbrkr.o)
 .debug_frame   0x00001ad0       0x7c /home/leon/riotboard/arm-2012.09/bin/../arm-none-eabi/lib//libc.a(lib_a-vfiprintf.o)
 .debug_frame   0x00001b4c       0x58 /home/leon/riotboard/arm-2012.09/bin/../arm-none-eabi/lib//libc.a(lib_a-vfprintf.o)
 .debug_frame   0x00001ba4       0x40 /home/leon/riotboard/arm-2012.09/bin/../arm-none-eabi/lib//libc.a(lib_a-vprintf.o)
 .debug_frame   0x00001be4       0x3c /home/leon/riotboard/arm-2012.09/bin/../arm-none-eabi/lib//libc.a(lib_a-wbuf.o)
 .debug_frame   0x00001c20       0x2c /home/leon/riotboard/arm-2012.09/bin/../arm-none-eabi/lib//libc.a(lib_a-wsetup.o)
 .debug_frame   0x00001c4c       0x28 /home/leon/riotboard/arm-2012.09/bin/../arm-none-eabi/lib//libc.a(lib_a-abort.o)
 .debug_frame   0x00001c74       0x64 /home/leon/riotboard/arm-2012.09/bin/../arm-none-eabi/lib//libc.a(lib_a-dtoa.o)
 .debug_frame   0x00001cd8       0x48 /home/leon/riotboard/arm-2012.09/bin/../arm-none-eabi/lib//libc.a(lib_a-fflush.o)
 .debug_frame   0x00001d20      0x134 /home/leon/riotboard/arm-2012.09/bin/../arm-none-eabi/lib//libc.a(lib_a-findfp.o)
 .debug_frame   0x00001e54       0x50 /home/leon/riotboard/arm-2012.09/bin/../arm-none-eabi/lib//libc.a(lib_a-fputwc.o)
 .debug_frame   0x00001ea4       0x50 /home/leon/riotboard/arm-2012.09/bin/../arm-none-eabi/lib//libc.a(lib_a-freer.o)
 .debug_frame   0x00001ef4       0x38 /home/leon/riotboard/arm-2012.09/bin/../arm-none-eabi/lib//libc.a(lib_a-fvwrite.o)
 .debug_frame   0x00001f2c       0x54 /home/leon/riotboard/arm-2012.09/bin/../arm-none-eabi/lib//libc.a(lib_a-fwalk.o)
 .debug_frame   0x00001f80       0x98 /home/leon/riotboard/arm-2012.09/bin/../arm-none-eabi/lib//libc.a(lib_a-locale.o)
 .debug_frame   0x00002018       0x30 /home/leon/riotboard/arm-2012.09/bin/../arm-none-eabi/lib//libc.a(lib_a-makebuf.o)
 .debug_frame   0x00002048       0x2c /home/leon/riotboard/arm-2012.09/bin/../arm-none-eabi/lib//libc.a(lib_a-memchr.o)
 .debug_frame   0x00002074       0x30 /home/leon/riotboard/arm-2012.09/bin/../arm-none-eabi/lib//libc.a(lib_a-memcpy.o)
 .debug_frame   0x000020a4       0x2c /home/leon/riotboard/arm-2012.09/bin/../arm-none-eabi/lib//libc.a(lib_a-memmove.o)
 .debug_frame   0x000020d0       0x28 /home/leon/riotboard/arm-2012.09/bin/../arm-none-eabi/lib//libc.a(lib_a-memset.o)
 .debug_frame   0x000020f8      0x220 /home/leon/riotboard/arm-2012.09/bin/../arm-none-eabi/lib//libc.a(lib_a-mprec.o)
 .debug_frame   0x00002318       0x68 /home/leon/riotboard/arm-2012.09/bin/../arm-none-eabi/lib//libc.a(lib_a-reent.o)
 .debug_frame   0x00002380       0x44 /home/leon/riotboard/arm-2012.09/bin/../arm-none-eabi/lib//libc.a(lib_a-refill.o)
 .debug_frame   0x000023c4       0x20 /home/leon/riotboard/arm-2012.09/bin/../arm-none-eabi/lib//libc.a(lib_a-s_fpclassify.o)
 .debug_frame   0x000023e4       0xc0 /home/leon/riotboard/arm-2012.09/bin/../arm-none-eabi/lib//libc.a(lib_a-signal.o)
 .debug_frame   0x000024a4       0x44 /home/leon/riotboard/arm-2012.09/bin/../arm-none-eabi/lib//libc.a(lib_a-signalr.o)
 .debug_frame   0x000024e8       0x88 /home/leon/riotboard/arm-2012.09/bin/../arm-none-eabi/lib//libc.a(lib_a-stdio.o)
 .debug_frame   0x00002570       0x30 /home/leon/riotboard/arm-2012.09/bin/../arm-none-eabi/lib//libc.a(lib_a-strcmp.o)
 .debug_frame   0x000025a0       0x20 /home/leon/riotboard/arm-2012.09/bin/../arm-none-eabi/lib//libc.a(lib_a-strlen.o)
 .debug_frame   0x000025c0       0x58 /home/leon/riotboard/arm-2012.09/bin/../arm-none-eabi/lib//libc.a(lib_a-wcrtomb.o)
 .debug_frame   0x00002618       0x44 /home/leon/riotboard/arm-2012.09/bin/../arm-none-eabi/lib//libc.a(lib_a-wctomb_r.o)
 .debug_frame   0x0000265c       0x2c /home/leon/riotboard/arm-2012.09/bin/../arm-none-eabi/lib//libc.a(lib_a-writer.o)
 .debug_frame   0x00002688       0x28 /home/leon/riotboard/arm-2012.09/bin/../arm-none-eabi/lib//libc.a(lib_a-callocr.o)
 .debug_frame   0x000026b0       0x2c /home/leon/riotboard/arm-2012.09/bin/../arm-none-eabi/lib//libc.a(lib_a-closer.o)
 .debug_frame   0x000026dc       0x3c /home/leon/riotboard/arm-2012.09/bin/../arm-none-eabi/lib//libc.a(lib_a-fclose.o)
 .debug_frame   0x00002718       0x2c /home/leon/riotboard/arm-2012.09/bin/../arm-none-eabi/lib//libc.a(lib_a-fstatr.o)
 .debug_frame   0x00002744       0x2c /home/leon/riotboard/arm-2012.09/bin/../arm-none-eabi/lib//libc.a(lib_a-isattyr.o)
 .debug_frame   0x00002770       0x2c /home/leon/riotboard/arm-2012.09/bin/../arm-none-eabi/lib//libc.a(lib_a-lseekr.o)
 .debug_frame   0x0000279c       0x2c /home/leon/riotboard/arm-2012.09/bin/../arm-none-eabi/lib//libc.a(lib_a-readr.o)
 .debug_frame   0x000027c8       0x20 /home/leon/riotboard/arm-2012.09/bin/../lib/gcc/arm-none-eabi/4.7.2//libgcc.a(_udivsi3.o)
 .debug_frame   0x000027e8       0x20 /home/leon/riotboard/arm-2012.09/bin/../lib/gcc/arm-none-eabi/4.7.2//libgcc.a(_divsi3.o)
 .debug_frame   0x00002808       0x54 /home/leon/riotboard/arm-2012.09/bin/../lib/gcc/arm-none-eabi/4.7.2//libgcc.a(bpabi.o)
 .debug_frame   0x0000285c       0x38 /home/leon/riotboard/arm-2012.09/bin/../lib/gcc/arm-none-eabi/4.7.2//libgcc.a(_divdi3.o)
 .debug_frame   0x00002894       0x38 /home/leon/riotboard/arm-2012.09/bin/../lib/gcc/arm-none-eabi/4.7.2//libgcc.a(_udivdi3.o)
 .debug_frame   0x000028cc       0x90 /home/leon/git/swp-report/iMX6_Platform_SDK/output/mx6dq/lib/libsdk.a(max7310.o)
 .debug_frame   0x0000295c      0x290 /home/leon/git/swp-report/iMX6_Platform_SDK/output/mx6dq/lib/libsdk.a(runtime_support.o)
 .debug_frame   0x00002bec      0x1d8 /home/leon/git/swp-report/iMX6_Platform_SDK/output/mx6dq/lib/libsdk.a(imx_i2c.o)
 .debug_frame   0x00002dc4       0x30 /home/leon/git/swp-report/iMX6_Platform_SDK/output/mx6dq/lib/libboard_evb_rev_a.a(i2c_iomux_config.o)

.debug_ranges   0x00000000       0x18
 .debug_ranges  0x00000000       0x18 /home/leon/git/swp-report/iMX6_Platform_SDK/output/mx6dq/lib/libsdk.a(system_util.o)

Cross Reference Table

Symbol                                            File
IRQ_HDLR                                          /home/leon/git/swp-report/iMX6_Platform_SDK/output/mx6dq/lib/libsdk.a(interrupt.o)
                                                  /home/leon/git/swp-report/iMX6_Platform_SDK/output/mx6dq/lib/libsdk.a(vectors.o)
PLL1_OUTPUT                                       /home/leon/git/swp-report/iMX6_Platform_SDK/output/mx6dq/lib/libsdk.a(ccm_pll.o)
PLL2_OUTPUT                                       /home/leon/git/swp-report/iMX6_Platform_SDK/output/mx6dq/lib/libsdk.a(ccm_pll.o)
PLL3_OUTPUT                                       /home/leon/git/swp-report/iMX6_Platform_SDK/output/mx6dq/lib/libsdk.a(ccm_pll.o)
PLL4_OUTPUT                                       /home/leon/git/swp-report/iMX6_Platform_SDK/output/mx6dq/lib/libsdk.a(ccm_pll.o)
PLL5_OUTPUT                                       /home/leon/git/swp-report/iMX6_Platform_SDK/output/mx6dq/lib/libsdk.a(ccm_pll.o)
_Balloc                                           /home/leon/riotboard/arm-2012.09/bin/../arm-none-eabi/lib//libc.a(lib_a-mprec.o)
                                                  /home/leon/riotboard/arm-2012.09/bin/../arm-none-eabi/lib//libc.a(lib_a-dtoa.o)
_Bfree                                            /home/leon/riotboard/arm-2012.09/bin/../arm-none-eabi/lib//libc.a(lib_a-mprec.o)
                                                  /home/leon/riotboard/arm-2012.09/bin/../arm-none-eabi/lib//libc.a(lib_a-dtoa.o)
_ITM_deregisterTMCloneTable                       /home/leon/riotboard/arm-2012.09/bin/../lib/gcc/arm-none-eabi/4.7.2//crtbegin.o
_ITM_registerTMCloneTable                         /home/leon/riotboard/arm-2012.09/bin/../lib/gcc/arm-none-eabi/4.7.2//crtbegin.o
_Jv_RegisterClasses                               /home/leon/riotboard/arm-2012.09/bin/../lib/gcc/arm-none-eabi/4.7.2//crtbegin.o
_PathLocale                                       /home/leon/riotboard/arm-2012.09/bin/../arm-none-eabi/lib//libc.a(lib_a-locale.o)
__TMC_END__                                       /home/leon/riotboard/arm-2012.09/bin/../lib/gcc/arm-none-eabi/4.7.2//crtend.o
                                                  /home/leon/riotboard/arm-2012.09/bin/../lib/gcc/arm-none-eabi/4.7.2//crtbegin.o
__adddf3                                          /home/leon/riotboard/arm-2012.09/bin/../lib/gcc/arm-none-eabi/4.7.2//libgcc.a(_arm_addsubdf3.o)
__aeabi_cdcmpeq                                   /home/leon/riotboard/arm-2012.09/bin/../lib/gcc/arm-none-eabi/4.7.2//libgcc.a(_arm_cmpdf2.o)
__aeabi_cdcmple                                   /home/leon/riotboard/arm-2012.09/bin/../lib/gcc/arm-none-eabi/4.7.2//libgcc.a(_arm_cmpdf2.o)
__aeabi_cdrcmple                                  /home/leon/riotboard/arm-2012.09/bin/../lib/gcc/arm-none-eabi/4.7.2//libgcc.a(_arm_cmpdf2.o)
__aeabi_d2iz                                      /home/leon/riotboard/arm-2012.09/bin/../lib/gcc/arm-none-eabi/4.7.2//libgcc.a(_arm_fixdfsi.o)
                                                  /home/leon/riotboard/arm-2012.09/bin/../arm-none-eabi/lib//libc.a(lib_a-dtoa.o)
__aeabi_dadd                                      /home/leon/riotboard/arm-2012.09/bin/../lib/gcc/arm-none-eabi/4.7.2//libgcc.a(_arm_addsubdf3.o)
                                                  /home/leon/riotboard/arm-2012.09/bin/../arm-none-eabi/lib//libc.a(lib_a-dtoa.o)
__aeabi_dcmpeq                                    /home/leon/riotboard/arm-2012.09/bin/../lib/gcc/arm-none-eabi/4.7.2//libgcc.a(_arm_cmpdf2.o)
                                                  /home/leon/riotboard/arm-2012.09/bin/../arm-none-eabi/lib//libc.a(lib_a-dtoa.o)
                                                  /home/leon/riotboard/arm-2012.09/bin/../arm-none-eabi/lib//libc.a(lib_a-vfprintf.o)
__aeabi_dcmpge                                    /home/leon/riotboard/arm-2012.09/bin/../lib/gcc/arm-none-eabi/4.7.2//libgcc.a(_arm_cmpdf2.o)
                                                  /home/leon/riotboard/arm-2012.09/bin/../arm-none-eabi/lib//libc.a(lib_a-dtoa.o)
__aeabi_dcmpgt                                    /home/leon/riotboard/arm-2012.09/bin/../lib/gcc/arm-none-eabi/4.7.2//libgcc.a(_arm_cmpdf2.o)
                                                  /home/leon/riotboard/arm-2012.09/bin/../arm-none-eabi/lib//libc.a(lib_a-dtoa.o)
__aeabi_dcmple                                    /home/leon/riotboard/arm-2012.09/bin/../lib/gcc/arm-none-eabi/4.7.2//libgcc.a(_arm_cmpdf2.o)
__aeabi_dcmplt                                    /home/leon/riotboard/arm-2012.09/bin/../lib/gcc/arm-none-eabi/4.7.2//libgcc.a(_arm_cmpdf2.o)
                                                  /home/leon/riotboard/arm-2012.09/bin/../arm-none-eabi/lib//libc.a(lib_a-dtoa.o)
                                                  /home/leon/riotboard/arm-2012.09/bin/../arm-none-eabi/lib//libc.a(lib_a-vfprintf.o)
__aeabi_ddiv                                      /home/leon/riotboard/arm-2012.09/bin/../lib/gcc/arm-none-eabi/4.7.2//libgcc.a(_arm_muldivdf3.o)
                                                  /home/leon/riotboard/arm-2012.09/bin/../arm-none-eabi/lib//libc.a(lib_a-mprec.o)
                                                  /home/leon/riotboard/arm-2012.09/bin/../arm-none-eabi/lib//libc.a(lib_a-dtoa.o)
__aeabi_dmul                                      /home/leon/riotboard/arm-2012.09/bin/../lib/gcc/arm-none-eabi/4.7.2//libgcc.a(_arm_muldivdf3.o)
                                                  /home/leon/riotboard/arm-2012.09/bin/../arm-none-eabi/lib//libc.a(lib_a-mprec.o)
                                                  /home/leon/riotboard/arm-2012.09/bin/../arm-none-eabi/lib//libc.a(lib_a-dtoa.o)
__aeabi_drsub                                     /home/leon/riotboard/arm-2012.09/bin/../lib/gcc/arm-none-eabi/4.7.2//libgcc.a(_arm_addsubdf3.o)
__aeabi_dsub                                      /home/leon/riotboard/arm-2012.09/bin/../lib/gcc/arm-none-eabi/4.7.2//libgcc.a(_arm_addsubdf3.o)
                                                  /home/leon/riotboard/arm-2012.09/bin/../arm-none-eabi/lib//libc.a(lib_a-dtoa.o)
__aeabi_f2d                                       /home/leon/riotboard/arm-2012.09/bin/../lib/gcc/arm-none-eabi/4.7.2//libgcc.a(_arm_addsubdf3.o)
__aeabi_i2d                                       /home/leon/riotboard/arm-2012.09/bin/../lib/gcc/arm-none-eabi/4.7.2//libgcc.a(_arm_addsubdf3.o)
                                                  /home/leon/riotboard/arm-2012.09/bin/../arm-none-eabi/lib//libc.a(lib_a-dtoa.o)
__aeabi_idiv                                      /home/leon/riotboard/arm-2012.09/bin/../lib/gcc/arm-none-eabi/4.7.2//libgcc.a(_divsi3.o)
__aeabi_idiv0                                     /home/leon/riotboard/arm-2012.09/bin/../lib/gcc/arm-none-eabi/4.7.2//libgcc.a(_dvmd_tls.o)
                                                  /home/leon/riotboard/arm-2012.09/bin/../lib/gcc/arm-none-eabi/4.7.2//libgcc.a(_divsi3.o)
                                                  /home/leon/riotboard/arm-2012.09/bin/../lib/gcc/arm-none-eabi/4.7.2//libgcc.a(_udivsi3.o)
__aeabi_idivmod                                   /home/leon/riotboard/arm-2012.09/bin/../lib/gcc/arm-none-eabi/4.7.2//libgcc.a(_divsi3.o)
                                                  /home/leon/git/swp-report/iMX6_Platform_SDK/output/mx6dq/smp_primes/evb_rev_a/obj/apps/smp_primes/src/primes.o
__aeabi_l2d                                       /home/leon/riotboard/arm-2012.09/bin/../lib/gcc/arm-none-eabi/4.7.2//libgcc.a(_arm_addsubdf3.o)
__aeabi_ldiv0                                     /home/leon/riotboard/arm-2012.09/bin/../lib/gcc/arm-none-eabi/4.7.2//libgcc.a(_dvmd_tls.o)
                                                  /home/leon/riotboard/arm-2012.09/bin/../lib/gcc/arm-none-eabi/4.7.2//libgcc.a(_aeabi_uldivmod.o)
__aeabi_ui2d                                      /home/leon/riotboard/arm-2012.09/bin/../lib/gcc/arm-none-eabi/4.7.2//libgcc.a(_arm_addsubdf3.o)
                                                  /home/leon/riotboard/arm-2012.09/bin/../arm-none-eabi/lib//libc.a(lib_a-dtoa.o)
__aeabi_uidiv                                     /home/leon/riotboard/arm-2012.09/bin/../lib/gcc/arm-none-eabi/4.7.2//libgcc.a(_udivsi3.o)
                                                  /home/leon/git/swp-report/iMX6_Platform_SDK/output/mx6dq/lib/libsdk.a(imx_i2c.o)
                                                  /home/leon/riotboard/arm-2012.09/bin/../lib/gcc/arm-none-eabi/4.7.2//libgcc.a(_udivdi3.o)
                                                  /home/leon/riotboard/arm-2012.09/bin/../lib/gcc/arm-none-eabi/4.7.2//libgcc.a(_divdi3.o)
                                                  /home/leon/riotboard/arm-2012.09/bin/../arm-none-eabi/lib//libc.a(lib_a-dtoa.o)
                                                  /home/leon/git/swp-report/iMX6_Platform_SDK/output/mx6dq/lib/libsdk.a(ccm_pll.o)
__aeabi_uidivmod                                  /home/leon/riotboard/arm-2012.09/bin/../lib/gcc/arm-none-eabi/4.7.2//libgcc.a(_udivsi3.o)
                                                  /home/leon/riotboard/arm-2012.09/bin/../lib/gcc/arm-none-eabi/4.7.2//libgcc.a(_udivdi3.o)
                                                  /home/leon/riotboard/arm-2012.09/bin/../lib/gcc/arm-none-eabi/4.7.2//libgcc.a(_divdi3.o)
__aeabi_ul2d                                      /home/leon/riotboard/arm-2012.09/bin/../lib/gcc/arm-none-eabi/4.7.2//libgcc.a(_arm_addsubdf3.o)
__aeabi_uldivmod                                  /home/leon/riotboard/arm-2012.09/bin/../lib/gcc/arm-none-eabi/4.7.2//libgcc.a(_aeabi_uldivmod.o)
                                                  /home/leon/git/swp-report/iMX6_Platform_SDK/output/mx6dq/lib/libsdk.a(runtime_support.o)
                                                  /home/leon/riotboard/arm-2012.09/bin/../arm-none-eabi/lib//libc.a(lib_a-vfprintf.o)
                                                  /home/leon/riotboard/arm-2012.09/bin/../arm-none-eabi/lib//libc.a(lib_a-vfiprintf.o)
                                                  /home/leon/git/swp-report/iMX6_Platform_SDK/output/mx6dq/lib/libsdk.a(timer.o)
__any_on                                          /home/leon/riotboard/arm-2012.09/bin/../arm-none-eabi/lib//libc.a(lib_a-mprec.o)
__ascii_wctomb                                    /home/leon/riotboard/arm-2012.09/bin/../arm-none-eabi/lib//libc.a(lib_a-wctomb_r.o)
__assert                                          /home/leon/riotboard/arm-2012.09/bin/../arm-none-eabi/lib//libc.a(lib_a-assert.o)
__assert_func                                     /home/leon/riotboard/arm-2012.09/bin/../arm-none-eabi/lib//libc.a(lib_a-assert.o)
                                                  /home/leon/git/swp-report/iMX6_Platform_SDK/output/mx6dq/lib/libboard_evb_rev_a.a(i2c_iomux_config.o)
                                                  /home/leon/git/swp-report/iMX6_Platform_SDK/output/mx6dq/lib/libboard_evb_rev_a.a(uart_iomux_config.o)
                                                  /home/leon/git/swp-report/iMX6_Platform_SDK/output/mx6dq/lib/libsdk.a(cpu_multicore.o)
                                                  /home/leon/git/swp-report/iMX6_Platform_SDK/output/mx6dq/lib/libsdk.a(gic.o)
__b2d                                             /home/leon/riotboard/arm-2012.09/bin/../arm-none-eabi/lib//libc.a(lib_a-mprec.o)
__bss_end__                                       /home/leon/git/swp-report/iMX6_Platform_SDK/output/mx6dq/lib/libsdk.a(startup.o)
__bss_start__                                     /home/leon/git/swp-report/iMX6_Platform_SDK/output/mx6dq/lib/libsdk.a(startup.o)
__clzsi2                                          /home/leon/riotboard/arm-2012.09/bin/../lib/gcc/arm-none-eabi/4.7.2//libgcc.a(_clzsi2.o)
                                                  /home/leon/riotboard/arm-2012.09/bin/../lib/gcc/arm-none-eabi/4.7.2//libgcc.a(_udivdi3.o)
                                                  /home/leon/riotboard/arm-2012.09/bin/../lib/gcc/arm-none-eabi/4.7.2//libgcc.a(_divdi3.o)
__cmpdf2                                          /home/leon/riotboard/arm-2012.09/bin/../lib/gcc/arm-none-eabi/4.7.2//libgcc.a(_arm_cmpdf2.o)
__copybits                                        /home/leon/riotboard/arm-2012.09/bin/../arm-none-eabi/lib//libc.a(lib_a-mprec.o)
__d2b                                             /home/leon/riotboard/arm-2012.09/bin/../arm-none-eabi/lib//libc.a(lib_a-mprec.o)
                                                  /home/leon/riotboard/arm-2012.09/bin/../arm-none-eabi/lib//libc.a(lib_a-dtoa.o)
__deregister_frame_info                           /home/leon/riotboard/arm-2012.09/bin/../lib/gcc/arm-none-eabi/4.7.2//crtbegin.o
__divdf3                                          /home/leon/riotboard/arm-2012.09/bin/../lib/gcc/arm-none-eabi/4.7.2//libgcc.a(_arm_muldivdf3.o)
__divdi3                                          /home/leon/riotboard/arm-2012.09/bin/../lib/gcc/arm-none-eabi/4.7.2//libgcc.a(_divdi3.o)
                                                  /home/leon/riotboard/arm-2012.09/bin/../lib/gcc/arm-none-eabi/4.7.2//libgcc.a(bpabi.o)
__divsi3                                          /home/leon/riotboard/arm-2012.09/bin/../lib/gcc/arm-none-eabi/4.7.2//libgcc.a(_divsi3.o)
__dso_handle                                      /home/leon/riotboard/arm-2012.09/bin/../lib/gcc/arm-none-eabi/4.7.2//crtbegin.o
__env                                             /home/leon/git/swp-report/iMX6_Platform_SDK/output/mx6dq/lib/libsdk.a(runtime_support.o)
__eqdf2                                           /home/leon/riotboard/arm-2012.09/bin/../lib/gcc/arm-none-eabi/4.7.2//libgcc.a(_arm_cmpdf2.o)
__extendsfdf2                                     /home/leon/riotboard/arm-2012.09/bin/../lib/gcc/arm-none-eabi/4.7.2//libgcc.a(_arm_addsubdf3.o)
__fixdfsi                                         /home/leon/riotboard/arm-2012.09/bin/../lib/gcc/arm-none-eabi/4.7.2//libgcc.a(_arm_fixdfsi.o)
__floatdidf                                       /home/leon/riotboard/arm-2012.09/bin/../lib/gcc/arm-none-eabi/4.7.2//libgcc.a(_arm_addsubdf3.o)
__floatsidf                                       /home/leon/riotboard/arm-2012.09/bin/../lib/gcc/arm-none-eabi/4.7.2//libgcc.a(_arm_addsubdf3.o)
__floatundidf                                     /home/leon/riotboard/arm-2012.09/bin/../lib/gcc/arm-none-eabi/4.7.2//libgcc.a(_arm_addsubdf3.o)
__floatunsidf                                     /home/leon/riotboard/arm-2012.09/bin/../lib/gcc/arm-none-eabi/4.7.2//libgcc.a(_arm_addsubdf3.o)
__fp_lock_all                                     /home/leon/riotboard/arm-2012.09/bin/../arm-none-eabi/lib//libc.a(lib_a-findfp.o)
__fp_unlock_all                                   /home/leon/riotboard/arm-2012.09/bin/../arm-none-eabi/lib//libc.a(lib_a-findfp.o)
__fpclassifyd                                     /home/leon/riotboard/arm-2012.09/bin/../arm-none-eabi/lib//libc.a(lib_a-s_fpclassify.o)
                                                  /home/leon/riotboard/arm-2012.09/bin/../arm-none-eabi/lib//libc.a(lib_a-vfprintf.o)
__gedf2                                           /home/leon/riotboard/arm-2012.09/bin/../lib/gcc/arm-none-eabi/4.7.2//libgcc.a(_arm_cmpdf2.o)
__gnu_ldivmod_helper                              /home/leon/riotboard/arm-2012.09/bin/../lib/gcc/arm-none-eabi/4.7.2//libgcc.a(bpabi.o)
__gnu_uldivmod_helper                             /home/leon/riotboard/arm-2012.09/bin/../lib/gcc/arm-none-eabi/4.7.2//libgcc.a(bpabi.o)
                                                  /home/leon/riotboard/arm-2012.09/bin/../lib/gcc/arm-none-eabi/4.7.2//libgcc.a(_aeabi_uldivmod.o)
__gtdf2                                           /home/leon/riotboard/arm-2012.09/bin/../lib/gcc/arm-none-eabi/4.7.2//libgcc.a(_arm_cmpdf2.o)
__hab_data                                        /home/leon/git/swp-report/iMX6_Platform_SDK/output/mx6dq/smp_primes/evb_rev_a/obj/apps/common/ivt.o
__hi0bits                                         /home/leon/riotboard/arm-2012.09/bin/../arm-none-eabi/lib//libc.a(lib_a-mprec.o)
                                                  /home/leon/riotboard/arm-2012.09/bin/../arm-none-eabi/lib//libc.a(lib_a-dtoa.o)
__i2b                                             /home/leon/riotboard/arm-2012.09/bin/../arm-none-eabi/lib//libc.a(lib_a-mprec.o)
                                                  /home/leon/riotboard/arm-2012.09/bin/../arm-none-eabi/lib//libc.a(lib_a-dtoa.o)
__init_array_end                                  /home/leon/riotboard/arm-2012.09/bin/../arm-none-eabi/lib//libc.a(lib_a-init.o)
__init_array_start                                /home/leon/riotboard/arm-2012.09/bin/../arm-none-eabi/lib//libc.a(lib_a-init.o)
__l1_page_table_start                             /home/leon/git/swp-report/iMX6_Platform_SDK/output/mx6dq/lib/libsdk.a(mmu.o)
__ledf2                                           /home/leon/riotboard/arm-2012.09/bin/../lib/gcc/arm-none-eabi/4.7.2//libgcc.a(_arm_cmpdf2.o)
__libc_init_array                                 /home/leon/riotboard/arm-2012.09/bin/../arm-none-eabi/lib//libc.a(lib_a-init.o)
                                                  /home/leon/git/swp-report/iMX6_Platform_SDK/output/mx6dq/lib/libsdk.a(startup.o)
__lo0bits                                         /home/leon/riotboard/arm-2012.09/bin/../arm-none-eabi/lib//libc.a(lib_a-mprec.o)
__locale_charset                                  /home/leon/riotboard/arm-2012.09/bin/../arm-none-eabi/lib//libc.a(lib_a-locale.o)
                                                  /home/leon/riotboard/arm-2012.09/bin/../arm-none-eabi/lib//libc.a(lib_a-wctomb_r.o)
                                                  /home/leon/riotboard/arm-2012.09/bin/../arm-none-eabi/lib//libc.a(lib_a-wcrtomb.o)
__locale_cjk_lang                                 /home/leon/riotboard/arm-2012.09/bin/../arm-none-eabi/lib//libc.a(lib_a-locale.o)
__locale_mb_cur_max                               /home/leon/riotboard/arm-2012.09/bin/../arm-none-eabi/lib//libc.a(lib_a-locale.o)
                                                  /home/leon/riotboard/arm-2012.09/bin/../arm-none-eabi/lib//libc.a(lib_a-fputwc.o)
__locale_msgcharset                               /home/leon/riotboard/arm-2012.09/bin/../arm-none-eabi/lib//libc.a(lib_a-locale.o)
__lshift                                          /home/leon/riotboard/arm-2012.09/bin/../arm-none-eabi/lib//libc.a(lib_a-mprec.o)
                                                  /home/leon/riotboard/arm-2012.09/bin/../arm-none-eabi/lib//libc.a(lib_a-dtoa.o)
__ltdf2                                           /home/leon/riotboard/arm-2012.09/bin/../lib/gcc/arm-none-eabi/4.7.2//libgcc.a(_arm_cmpdf2.o)
__malloc_av_                                      /home/leon/riotboard/arm-2012.09/bin/../arm-none-eabi/lib//libc.a(lib_a-mallocr.o)
                                                  /home/leon/riotboard/arm-2012.09/bin/../arm-none-eabi/lib//libc.a(lib_a-freer.o)
                                                  /home/leon/riotboard/arm-2012.09/bin/../arm-none-eabi/lib//libc.a(lib_a-reallocr.o)
__malloc_current_mallinfo                         /home/leon/riotboard/arm-2012.09/bin/../arm-none-eabi/lib//libc.a(lib_a-mallocr.o)
                                                  /home/leon/riotboard/arm-2012.09/bin/../arm-none-eabi/lib//libc.a(lib_a-freer.o)
__malloc_lock                                     /home/leon/riotboard/arm-2012.09/bin/../arm-none-eabi/lib//libc.a(lib_a-mlock.o)
                                                  /home/leon/riotboard/arm-2012.09/bin/../arm-none-eabi/lib//libc.a(lib_a-freer.o)
                                                  /home/leon/riotboard/arm-2012.09/bin/../arm-none-eabi/lib//libc.a(lib_a-reallocr.o)
                                                  /home/leon/riotboard/arm-2012.09/bin/../arm-none-eabi/lib//libc.a(lib_a-mallocr.o)
__malloc_max_sbrked_mem                           /home/leon/riotboard/arm-2012.09/bin/../arm-none-eabi/lib//libc.a(lib_a-mallocr.o)
__malloc_max_total_mem                            /home/leon/riotboard/arm-2012.09/bin/../arm-none-eabi/lib//libc.a(lib_a-mallocr.o)
__malloc_sbrk_base                                /home/leon/riotboard/arm-2012.09/bin/../arm-none-eabi/lib//libc.a(lib_a-mallocr.o)
                                                  /home/leon/riotboard/arm-2012.09/bin/../arm-none-eabi/lib//libc.a(lib_a-freer.o)
__malloc_top_pad                                  /home/leon/riotboard/arm-2012.09/bin/../arm-none-eabi/lib//libc.a(lib_a-mallocr.o)
                                                  /home/leon/riotboard/arm-2012.09/bin/../arm-none-eabi/lib//libc.a(lib_a-freer.o)
__malloc_trim_threshold                           /home/leon/riotboard/arm-2012.09/bin/../arm-none-eabi/lib//libc.a(lib_a-mallocr.o)
                                                  /home/leon/riotboard/arm-2012.09/bin/../arm-none-eabi/lib//libc.a(lib_a-freer.o)
__malloc_unlock                                   /home/leon/riotboard/arm-2012.09/bin/../arm-none-eabi/lib//libc.a(lib_a-mlock.o)
                                                  /home/leon/riotboard/arm-2012.09/bin/../arm-none-eabi/lib//libc.a(lib_a-freer.o)
                                                  /home/leon/riotboard/arm-2012.09/bin/../arm-none-eabi/lib//libc.a(lib_a-reallocr.o)
                                                  /home/leon/riotboard/arm-2012.09/bin/../arm-none-eabi/lib//libc.a(lib_a-mallocr.o)
__mb_cur_max                                      /home/leon/riotboard/arm-2012.09/bin/../arm-none-eabi/lib//libc.a(lib_a-locale.o)
__mcmp                                            /home/leon/riotboard/arm-2012.09/bin/../arm-none-eabi/lib//libc.a(lib_a-mprec.o)
                                                  /home/leon/riotboard/arm-2012.09/bin/../arm-none-eabi/lib//libc.a(lib_a-dtoa.o)
__mdiff                                           /home/leon/riotboard/arm-2012.09/bin/../arm-none-eabi/lib//libc.a(lib_a-mprec.o)
                                                  /home/leon/riotboard/arm-2012.09/bin/../arm-none-eabi/lib//libc.a(lib_a-dtoa.o)
__mlocale_changed                                 /home/leon/riotboard/arm-2012.09/bin/../arm-none-eabi/lib//libc.a(lib_a-locale.o)
__mprec_bigtens                                   /home/leon/riotboard/arm-2012.09/bin/../arm-none-eabi/lib//libc.a(lib_a-mprec.o)
                                                  /home/leon/riotboard/arm-2012.09/bin/../arm-none-eabi/lib//libc.a(lib_a-dtoa.o)
__mprec_tens                                      /home/leon/riotboard/arm-2012.09/bin/../arm-none-eabi/lib//libc.a(lib_a-mprec.o)
                                                  /home/leon/riotboard/arm-2012.09/bin/../arm-none-eabi/lib//libc.a(lib_a-dtoa.o)
__mprec_tinytens                                  /home/leon/riotboard/arm-2012.09/bin/../arm-none-eabi/lib//libc.a(lib_a-mprec.o)
__muldf3                                          /home/leon/riotboard/arm-2012.09/bin/../lib/gcc/arm-none-eabi/4.7.2//libgcc.a(_arm_muldivdf3.o)
__multadd                                         /home/leon/riotboard/arm-2012.09/bin/../arm-none-eabi/lib//libc.a(lib_a-mprec.o)
                                                  /home/leon/riotboard/arm-2012.09/bin/../arm-none-eabi/lib//libc.a(lib_a-dtoa.o)
__multiply                                        /home/leon/riotboard/arm-2012.09/bin/../arm-none-eabi/lib//libc.a(lib_a-mprec.o)
                                                  /home/leon/riotboard/arm-2012.09/bin/../arm-none-eabi/lib//libc.a(lib_a-dtoa.o)
__nedf2                                           /home/leon/riotboard/arm-2012.09/bin/../lib/gcc/arm-none-eabi/4.7.2//libgcc.a(_arm_cmpdf2.o)
__nlocale_changed                                 /home/leon/riotboard/arm-2012.09/bin/../arm-none-eabi/lib//libc.a(lib_a-locale.o)
__pow5mult                                        /home/leon/riotboard/arm-2012.09/bin/../arm-none-eabi/lib//libc.a(lib_a-mprec.o)
                                                  /home/leon/riotboard/arm-2012.09/bin/../arm-none-eabi/lib//libc.a(lib_a-dtoa.o)
__preinit_array_end                               /home/leon/riotboard/arm-2012.09/bin/../arm-none-eabi/lib//libc.a(lib_a-init.o)
__preinit_array_start                             /home/leon/riotboard/arm-2012.09/bin/../arm-none-eabi/lib//libc.a(lib_a-init.o)
__ram_vectors_end                                 /home/leon/git/swp-report/iMX6_Platform_SDK/output/mx6dq/lib/libsdk.a(startup.o)
__ram_vectors_start                               /home/leon/git/swp-report/iMX6_Platform_SDK/output/mx6dq/lib/libsdk.a(startup.o)
__ratio                                           /home/leon/riotboard/arm-2012.09/bin/../arm-none-eabi/lib//libc.a(lib_a-mprec.o)
__register_frame_info                             /home/leon/riotboard/arm-2012.09/bin/../lib/gcc/arm-none-eabi/4.7.2//crtbegin.o
__s2b                                             /home/leon/riotboard/arm-2012.09/bin/../arm-none-eabi/lib//libc.a(lib_a-mprec.o)
__sclose                                          /home/leon/riotboard/arm-2012.09/bin/../arm-none-eabi/lib//libc.a(lib_a-stdio.o)
                                                  /home/leon/riotboard/arm-2012.09/bin/../arm-none-eabi/lib//libc.a(lib_a-findfp.o)
__seofread                                        /home/leon/riotboard/arm-2012.09/bin/../arm-none-eabi/lib//libc.a(lib_a-stdio.o)
__sfmoreglue                                      /home/leon/riotboard/arm-2012.09/bin/../arm-none-eabi/lib//libc.a(lib_a-findfp.o)
__sfp                                             /home/leon/riotboard/arm-2012.09/bin/../arm-none-eabi/lib//libc.a(lib_a-findfp.o)
__sfp_lock_acquire                                /home/leon/riotboard/arm-2012.09/bin/../arm-none-eabi/lib//libc.a(lib_a-findfp.o)
                                                  /home/leon/riotboard/arm-2012.09/bin/../arm-none-eabi/lib//libc.a(lib_a-fclose.o)
                                                  /home/leon/riotboard/arm-2012.09/bin/../arm-none-eabi/lib//libc.a(lib_a-fwalk.o)
__sfp_lock_release                                /home/leon/riotboard/arm-2012.09/bin/../arm-none-eabi/lib//libc.a(lib_a-findfp.o)
                                                  /home/leon/riotboard/arm-2012.09/bin/../arm-none-eabi/lib//libc.a(lib_a-fclose.o)
                                                  /home/leon/riotboard/arm-2012.09/bin/../arm-none-eabi/lib//libc.a(lib_a-fwalk.o)
__sfvwrite_r                                      /home/leon/riotboard/arm-2012.09/bin/../arm-none-eabi/lib//libc.a(lib_a-fvwrite.o)
                                                  /home/leon/riotboard/arm-2012.09/bin/../arm-none-eabi/lib//libc.a(lib_a-vfiprintf.o)
__sigtramp                                        /home/leon/riotboard/arm-2012.09/bin/../arm-none-eabi/lib//libc.a(lib_a-signal.o)
__sigtramp_r                                      /home/leon/riotboard/arm-2012.09/bin/../arm-none-eabi/lib//libc.a(lib_a-signal.o)
__sinit                                           /home/leon/riotboard/arm-2012.09/bin/../arm-none-eabi/lib//libc.a(lib_a-findfp.o)
                                                  /home/leon/riotboard/arm-2012.09/bin/../arm-none-eabi/lib//libc.a(lib_a-fclose.o)
                                                  /home/leon/riotboard/arm-2012.09/bin/../arm-none-eabi/lib//libc.a(lib_a-refill.o)
                                                  /home/leon/riotboard/arm-2012.09/bin/../arm-none-eabi/lib//libc.a(lib_a-fputwc.o)
                                                  /home/leon/riotboard/arm-2012.09/bin/../arm-none-eabi/lib//libc.a(lib_a-fflush.o)
                                                  /home/leon/riotboard/arm-2012.09/bin/../arm-none-eabi/lib//libc.a(lib_a-wsetup.o)
                                                  /home/leon/riotboard/arm-2012.09/bin/../arm-none-eabi/lib//libc.a(lib_a-wbuf.o)
                                                  /home/leon/riotboard/arm-2012.09/bin/../arm-none-eabi/lib//libc.a(lib_a-vfprintf.o)
                                                  /home/leon/riotboard/arm-2012.09/bin/../arm-none-eabi/lib//libc.a(lib_a-vfiprintf.o)
                                                  /home/leon/riotboard/arm-2012.09/bin/../arm-none-eabi/lib//libc.a(lib_a-rget.o)
                                                  /home/leon/riotboard/arm-2012.09/bin/../arm-none-eabi/lib//libc.a(lib_a-putc.o)
                                                  /home/leon/riotboard/arm-2012.09/bin/../arm-none-eabi/lib//libc.a(lib_a-fputc.o)
__sinit_lock_acquire                              /home/leon/riotboard/arm-2012.09/bin/../arm-none-eabi/lib//libc.a(lib_a-findfp.o)
__sinit_lock_release                              /home/leon/riotboard/arm-2012.09/bin/../arm-none-eabi/lib//libc.a(lib_a-findfp.o)
__smakebuf_r                                      /home/leon/riotboard/arm-2012.09/bin/../arm-none-eabi/lib//libc.a(lib_a-makebuf.o)
                                                  /home/leon/riotboard/arm-2012.09/bin/../arm-none-eabi/lib//libc.a(lib_a-refill.o)
                                                  /home/leon/riotboard/arm-2012.09/bin/../arm-none-eabi/lib//libc.a(lib_a-wsetup.o)
__sprint_r                                        /home/leon/riotboard/arm-2012.09/bin/../arm-none-eabi/lib//libc.a(lib_a-vfiprintf.o)
                                                  /home/leon/riotboard/arm-2012.09/bin/../arm-none-eabi/lib//libc.a(lib_a-vfprintf.o)
__sread                                           /home/leon/riotboard/arm-2012.09/bin/../arm-none-eabi/lib//libc.a(lib_a-stdio.o)
                                                  /home/leon/riotboard/arm-2012.09/bin/../arm-none-eabi/lib//libc.a(lib_a-findfp.o)
__srefill_r                                       /home/leon/riotboard/arm-2012.09/bin/../arm-none-eabi/lib//libc.a(lib_a-refill.o)
                                                  /home/leon/riotboard/arm-2012.09/bin/../arm-none-eabi/lib//libc.a(lib_a-rget.o)
__srget                                           /home/leon/riotboard/arm-2012.09/bin/../arm-none-eabi/lib//libc.a(lib_a-rget.o)
__srget_r                                         /home/leon/riotboard/arm-2012.09/bin/../arm-none-eabi/lib//libc.a(lib_a-rget.o)
                                                  /home/leon/git/swp-report/iMX6_Platform_SDK/output/mx6dq/lib/libsdk.a(system_util.o)
__sseek                                           /home/leon/riotboard/arm-2012.09/bin/../arm-none-eabi/lib//libc.a(lib_a-stdio.o)
                                                  /home/leon/riotboard/arm-2012.09/bin/../arm-none-eabi/lib//libc.a(lib_a-makebuf.o)
                                                  /home/leon/riotboard/arm-2012.09/bin/../arm-none-eabi/lib//libc.a(lib_a-findfp.o)
__stacks_start                                    /home/leon/git/swp-report/iMX6_Platform_SDK/output/mx6dq/lib/libsdk.a(startup.o)
__start_boot_data                                 /home/leon/git/swp-report/iMX6_Platform_SDK/output/mx6dq/smp_primes/evb_rev_a/obj/apps/common/ivt.o
__subdf3                                          /home/leon/riotboard/arm-2012.09/bin/../lib/gcc/arm-none-eabi/4.7.2//libgcc.a(_arm_addsubdf3.o)
__swbuf                                           /home/leon/riotboard/arm-2012.09/bin/../arm-none-eabi/lib//libc.a(lib_a-wbuf.o)
__swbuf_r                                         /home/leon/riotboard/arm-2012.09/bin/../arm-none-eabi/lib//libc.a(lib_a-wbuf.o)
                                                  /home/leon/riotboard/arm-2012.09/bin/../arm-none-eabi/lib//libc.a(lib_a-fputwc.o)
                                                  /home/leon/riotboard/arm-2012.09/bin/../arm-none-eabi/lib//libc.a(lib_a-putc.o)
__swrite                                          /home/leon/riotboard/arm-2012.09/bin/../arm-none-eabi/lib//libc.a(lib_a-stdio.o)
                                                  /home/leon/riotboard/arm-2012.09/bin/../arm-none-eabi/lib//libc.a(lib_a-findfp.o)
__swsetup_r                                       /home/leon/riotboard/arm-2012.09/bin/../arm-none-eabi/lib//libc.a(lib_a-wsetup.o)
                                                  /home/leon/riotboard/arm-2012.09/bin/../arm-none-eabi/lib//libc.a(lib_a-fvwrite.o)
                                                  /home/leon/riotboard/arm-2012.09/bin/../arm-none-eabi/lib//libc.a(lib_a-wbuf.o)
                                                  /home/leon/riotboard/arm-2012.09/bin/../arm-none-eabi/lib//libc.a(lib_a-vfprintf.o)
                                                  /home/leon/riotboard/arm-2012.09/bin/../arm-none-eabi/lib//libc.a(lib_a-vfiprintf.o)
__udivdi3                                         /home/leon/riotboard/arm-2012.09/bin/../lib/gcc/arm-none-eabi/4.7.2//libgcc.a(_udivdi3.o)
                                                  /home/leon/riotboard/arm-2012.09/bin/../lib/gcc/arm-none-eabi/4.7.2//libgcc.a(bpabi.o)
__udivsi3                                         /home/leon/riotboard/arm-2012.09/bin/../lib/gcc/arm-none-eabi/4.7.2//libgcc.a(_udivsi3.o)
__ulp                                             /home/leon/riotboard/arm-2012.09/bin/../arm-none-eabi/lib//libc.a(lib_a-mprec.o)
__wctomb                                          /home/leon/riotboard/arm-2012.09/bin/../arm-none-eabi/lib//libc.a(lib_a-wctomb_r.o)
                                                  /home/leon/riotboard/arm-2012.09/bin/../arm-none-eabi/lib//libc.a(lib_a-wcrtomb.o)
_calloc_r                                         /home/leon/riotboard/arm-2012.09/bin/../arm-none-eabi/lib//libc.a(lib_a-callocr.o)
                                                  /home/leon/riotboard/arm-2012.09/bin/../arm-none-eabi/lib//libc.a(lib_a-mprec.o)
_cleanup                                          /home/leon/riotboard/arm-2012.09/bin/../arm-none-eabi/lib//libc.a(lib_a-findfp.o)
_cleanup_r                                        /home/leon/riotboard/arm-2012.09/bin/../arm-none-eabi/lib//libc.a(lib_a-findfp.o)
                                                  /home/leon/riotboard/arm-2012.09/bin/../arm-none-eabi/lib//libc.a(lib_a-makebuf.o)
_close                                            /home/leon/git/swp-report/iMX6_Platform_SDK/output/mx6dq/lib/libsdk.a(runtime_support.o)
                                                  /home/leon/riotboard/arm-2012.09/bin/../arm-none-eabi/lib//libc.a(lib_a-closer.o)
_close_r                                          /home/leon/riotboard/arm-2012.09/bin/../arm-none-eabi/lib//libc.a(lib_a-closer.o)
                                                  /home/leon/riotboard/arm-2012.09/bin/../arm-none-eabi/lib//libc.a(lib_a-stdio.o)
_dtoa_r                                           /home/leon/riotboard/arm-2012.09/bin/../arm-none-eabi/lib//libc.a(lib_a-dtoa.o)
                                                  /home/leon/riotboard/arm-2012.09/bin/../arm-none-eabi/lib//libc.a(lib_a-vfprintf.o)
_execve                                           /home/leon/git/swp-report/iMX6_Platform_SDK/output/mx6dq/lib/libsdk.a(runtime_support.o)
_exit                                             /home/leon/git/swp-report/iMX6_Platform_SDK/output/mx6dq/lib/libsdk.a(runtime_support.o)
                                                  /home/leon/riotboard/arm-2012.09/bin/../arm-none-eabi/lib//libc.a(lib_a-abort.o)
_fclose_r                                         /home/leon/riotboard/arm-2012.09/bin/../arm-none-eabi/lib//libc.a(lib_a-fclose.o)
_fflush_r                                         /home/leon/riotboard/arm-2012.09/bin/../arm-none-eabi/lib//libc.a(lib_a-fflush.o)
                                                  /home/leon/riotboard/arm-2012.09/bin/../arm-none-eabi/lib//libc.a(lib_a-fclose.o)
                                                  /home/leon/riotboard/arm-2012.09/bin/../arm-none-eabi/lib//libc.a(lib_a-refill.o)
                                                  /home/leon/riotboard/arm-2012.09/bin/../arm-none-eabi/lib//libc.a(lib_a-fvwrite.o)
                                                  /home/leon/riotboard/arm-2012.09/bin/../arm-none-eabi/lib//libc.a(lib_a-wbuf.o)
                                                  /home/leon/riotboard/arm-2012.09/bin/../arm-none-eabi/lib//libc.a(lib_a-vfprintf.o)
                                                  /home/leon/riotboard/arm-2012.09/bin/../arm-none-eabi/lib//libc.a(lib_a-vfiprintf.o)
_fini                                             /home/leon/riotboard/arm-2012.09/bin/../lib/gcc/arm-none-eabi/4.7.2//crti.o
_fiprintf_r                                       /home/leon/riotboard/arm-2012.09/bin/../arm-none-eabi/lib//libc.a(lib_a-fiprintf.o)
_fork                                             /home/leon/git/swp-report/iMX6_Platform_SDK/output/mx6dq/lib/libsdk.a(runtime_support.o)
_fputc_r                                          /home/leon/riotboard/arm-2012.09/bin/../arm-none-eabi/lib//libc.a(lib_a-fputc.o)
_fputwc_r                                         /home/leon/riotboard/arm-2012.09/bin/../arm-none-eabi/lib//libc.a(lib_a-fputwc.o)
                                                  /home/leon/riotboard/arm-2012.09/bin/../arm-none-eabi/lib//libc.a(lib_a-vfiprintf.o)
_free_r                                           /home/leon/riotboard/arm-2012.09/bin/../arm-none-eabi/lib//libc.a(lib_a-freer.o)
                                                  /home/leon/riotboard/arm-2012.09/bin/../arm-none-eabi/lib//libc.a(lib_a-fclose.o)
                                                  /home/leon/riotboard/arm-2012.09/bin/../arm-none-eabi/lib//libc.a(lib_a-refill.o)
                                                  /home/leon/riotboard/arm-2012.09/bin/../arm-none-eabi/lib//libc.a(lib_a-reent.o)
                                                  /home/leon/riotboard/arm-2012.09/bin/../arm-none-eabi/lib//libc.a(lib_a-fvwrite.o)
                                                  /home/leon/riotboard/arm-2012.09/bin/../arm-none-eabi/lib//libc.a(lib_a-fflush.o)
                                                  /home/leon/riotboard/arm-2012.09/bin/../arm-none-eabi/lib//libc.a(lib_a-wsetup.o)
                                                  /home/leon/riotboard/arm-2012.09/bin/../arm-none-eabi/lib//libc.a(lib_a-reallocr.o)
                                                  /home/leon/riotboard/arm-2012.09/bin/../arm-none-eabi/lib//libc.a(lib_a-mallocr.o)
                                                  /home/leon/riotboard/arm-2012.09/bin/../arm-none-eabi/lib//libc.a(lib_a-malloc.o)
_fstat                                            /home/leon/git/swp-report/iMX6_Platform_SDK/output/mx6dq/lib/libsdk.a(runtime_support.o)
                                                  /home/leon/riotboard/arm-2012.09/bin/../arm-none-eabi/lib//libc.a(lib_a-fstatr.o)
_fstat_r                                          /home/leon/riotboard/arm-2012.09/bin/../arm-none-eabi/lib//libc.a(lib_a-fstatr.o)
                                                  /home/leon/riotboard/arm-2012.09/bin/../arm-none-eabi/lib//libc.a(lib_a-makebuf.o)
_fwalk                                            /home/leon/riotboard/arm-2012.09/bin/../arm-none-eabi/lib//libc.a(lib_a-fwalk.o)
                                                  /home/leon/riotboard/arm-2012.09/bin/../arm-none-eabi/lib//libc.a(lib_a-refill.o)
                                                  /home/leon/riotboard/arm-2012.09/bin/../arm-none-eabi/lib//libc.a(lib_a-findfp.o)
_fwalk_reent                                      /home/leon/riotboard/arm-2012.09/bin/../arm-none-eabi/lib//libc.a(lib_a-fwalk.o)
                                                  /home/leon/riotboard/arm-2012.09/bin/../arm-none-eabi/lib//libc.a(lib_a-fflush.o)
_getpid                                           /home/leon/git/swp-report/iMX6_Platform_SDK/output/mx6dq/lib/libsdk.a(runtime_support.o)
                                                  /home/leon/riotboard/arm-2012.09/bin/../arm-none-eabi/lib//libc.a(lib_a-signalr.o)
_getpid_r                                         /home/leon/riotboard/arm-2012.09/bin/../arm-none-eabi/lib//libc.a(lib_a-signalr.o)
                                                  /home/leon/riotboard/arm-2012.09/bin/../arm-none-eabi/lib//libc.a(lib_a-signal.o)
_gettimeofday                                     /home/leon/git/swp-report/iMX6_Platform_SDK/output/mx6dq/lib/libsdk.a(runtime_support.o)
_global_impure_ptr                                /home/leon/riotboard/arm-2012.09/bin/../arm-none-eabi/lib//libc.a(lib_a-impure.o)
                                                  /home/leon/riotboard/arm-2012.09/bin/../arm-none-eabi/lib//libc.a(lib_a-refill.o)
                                                  /home/leon/riotboard/arm-2012.09/bin/../arm-none-eabi/lib//libc.a(lib_a-findfp.o)
                                                  /home/leon/riotboard/arm-2012.09/bin/../arm-none-eabi/lib//libc.a(lib_a-fflush.o)
_image_size                                       /home/leon/git/swp-report/iMX6_Platform_SDK/output/mx6dq/smp_primes/evb_rev_a/obj/apps/common/ivt.o
_impure_ptr                                       /home/leon/riotboard/arm-2012.09/bin/../arm-none-eabi/lib//libc.a(lib_a-impure.o)
                                                  /home/leon/riotboard/arm-2012.09/bin/../arm-none-eabi/lib//libc.a(lib_a-fclose.o)
                                                  /home/leon/riotboard/arm-2012.09/bin/../arm-none-eabi/lib//libc.a(lib_a-wcrtomb.o)
                                                  /home/leon/riotboard/arm-2012.09/bin/../arm-none-eabi/lib//libc.a(lib_a-signal.o)
                                                  /home/leon/riotboard/arm-2012.09/bin/../arm-none-eabi/lib//libc.a(lib_a-reent.o)
                                                  /home/leon/riotboard/arm-2012.09/bin/../arm-none-eabi/lib//libc.a(lib_a-locale.o)
                                                  /home/leon/riotboard/arm-2012.09/bin/../arm-none-eabi/lib//libc.a(lib_a-fputwc.o)
                                                  /home/leon/riotboard/arm-2012.09/bin/../arm-none-eabi/lib//libc.a(lib_a-findfp.o)
                                                  /home/leon/riotboard/arm-2012.09/bin/../arm-none-eabi/lib//libc.a(lib_a-fflush.o)
                                                  /home/leon/riotboard/arm-2012.09/bin/../arm-none-eabi/lib//libc.a(lib_a-wsetup.o)
                                                  /home/leon/riotboard/arm-2012.09/bin/../arm-none-eabi/lib//libc.a(lib_a-wbuf.o)
                                                  /home/leon/riotboard/arm-2012.09/bin/../arm-none-eabi/lib//libc.a(lib_a-vprintf.o)
                                                  /home/leon/riotboard/arm-2012.09/bin/../arm-none-eabi/lib//libc.a(lib_a-vfprintf.o)
                                                  /home/leon/riotboard/arm-2012.09/bin/../arm-none-eabi/lib//libc.a(lib_a-vfiprintf.o)
                                                  /home/leon/riotboard/arm-2012.09/bin/../arm-none-eabi/lib//libc.a(lib_a-rget.o)
                                                  /home/leon/riotboard/arm-2012.09/bin/../arm-none-eabi/lib//libc.a(lib_a-realloc.o)
                                                  /home/leon/riotboard/arm-2012.09/bin/../arm-none-eabi/lib//libc.a(lib_a-putc.o)
                                                  /home/leon/riotboard/arm-2012.09/bin/../arm-none-eabi/lib//libc.a(lib_a-printf.o)
                                                  /home/leon/riotboard/arm-2012.09/bin/../arm-none-eabi/lib//libc.a(lib_a-malloc.o)
                                                  /home/leon/riotboard/arm-2012.09/bin/../arm-none-eabi/lib//libc.a(lib_a-fputc.o)
                                                  /home/leon/riotboard/arm-2012.09/bin/../arm-none-eabi/lib//libc.a(lib_a-fiprintf.o)
                                                  /home/leon/riotboard/arm-2012.09/bin/../arm-none-eabi/lib//libc.a(lib_a-assert.o)
                                                  /home/leon/git/swp-report/iMX6_Platform_SDK/output/mx6dq/lib/libsdk.a(system_util.o)
_init                                             /home/leon/riotboard/arm-2012.09/bin/../lib/gcc/arm-none-eabi/4.7.2//crti.o
                                                  /home/leon/riotboard/arm-2012.09/bin/../arm-none-eabi/lib//libc.a(lib_a-init.o)
_init_signal                                      /home/leon/riotboard/arm-2012.09/bin/../arm-none-eabi/lib//libc.a(lib_a-signal.o)
_init_signal_r                                    /home/leon/riotboard/arm-2012.09/bin/../arm-none-eabi/lib//libc.a(lib_a-signal.o)
_isatty                                           /home/leon/git/swp-report/iMX6_Platform_SDK/output/mx6dq/lib/libsdk.a(runtime_support.o)
                                                  /home/leon/riotboard/arm-2012.09/bin/../arm-none-eabi/lib//libc.a(lib_a-isattyr.o)
_isatty_r                                         /home/leon/riotboard/arm-2012.09/bin/../arm-none-eabi/lib//libc.a(lib_a-isattyr.o)
                                                  /home/leon/riotboard/arm-2012.09/bin/../arm-none-eabi/lib//libc.a(lib_a-makebuf.o)
_kill                                             /home/leon/git/swp-report/iMX6_Platform_SDK/output/mx6dq/lib/libsdk.a(runtime_support.o)
                                                  /home/leon/riotboard/arm-2012.09/bin/../arm-none-eabi/lib//libc.a(lib_a-signalr.o)
_kill_r                                           /home/leon/riotboard/arm-2012.09/bin/../arm-none-eabi/lib//libc.a(lib_a-signalr.o)
                                                  /home/leon/riotboard/arm-2012.09/bin/../arm-none-eabi/lib//libc.a(lib_a-signal.o)
_link                                             /home/leon/git/swp-report/iMX6_Platform_SDK/output/mx6dq/lib/libsdk.a(runtime_support.o)
_localeconv_r                                     /home/leon/riotboard/arm-2012.09/bin/../arm-none-eabi/lib//libc.a(lib_a-locale.o)
                                                  /home/leon/riotboard/arm-2012.09/bin/../arm-none-eabi/lib//libc.a(lib_a-vfprintf.o)
_lseek                                            /home/leon/git/swp-report/iMX6_Platform_SDK/output/mx6dq/lib/libsdk.a(runtime_support.o)
                                                  /home/leon/riotboard/arm-2012.09/bin/../arm-none-eabi/lib//libc.a(lib_a-lseekr.o)
_lseek_r                                          /home/leon/riotboard/arm-2012.09/bin/../arm-none-eabi/lib//libc.a(lib_a-lseekr.o)
                                                  /home/leon/riotboard/arm-2012.09/bin/../arm-none-eabi/lib//libc.a(lib_a-stdio.o)
_malloc_r                                         /home/leon/riotboard/arm-2012.09/bin/../arm-none-eabi/lib//libc.a(lib_a-mallocr.o)
                                                  /home/leon/riotboard/arm-2012.09/bin/../arm-none-eabi/lib//libc.a(lib_a-callocr.o)
                                                  /home/leon/riotboard/arm-2012.09/bin/../arm-none-eabi/lib//libc.a(lib_a-signal.o)
                                                  /home/leon/riotboard/arm-2012.09/bin/../arm-none-eabi/lib//libc.a(lib_a-makebuf.o)
                                                  /home/leon/riotboard/arm-2012.09/bin/../arm-none-eabi/lib//libc.a(lib_a-fvwrite.o)
                                                  /home/leon/riotboard/arm-2012.09/bin/../arm-none-eabi/lib//libc.a(lib_a-findfp.o)
                                                  /home/leon/riotboard/arm-2012.09/bin/../arm-none-eabi/lib//libc.a(lib_a-reallocr.o)
                                                  /home/leon/riotboard/arm-2012.09/bin/../arm-none-eabi/lib//libc.a(lib_a-malloc.o)
_malloc_trim_r                                    /home/leon/riotboard/arm-2012.09/bin/../arm-none-eabi/lib//libc.a(lib_a-freer.o)
_mprec_log10                                      /home/leon/riotboard/arm-2012.09/bin/../arm-none-eabi/lib//libc.a(lib_a-mprec.o)
_open                                             /home/leon/git/swp-report/iMX6_Platform_SDK/output/mx6dq/lib/libsdk.a(runtime_support.o)
_printf_r                                         /home/leon/riotboard/arm-2012.09/bin/../arm-none-eabi/lib//libc.a(lib_a-printf.o)
_putc_r                                           /home/leon/riotboard/arm-2012.09/bin/../arm-none-eabi/lib//libc.a(lib_a-putc.o)
                                                  /home/leon/riotboard/arm-2012.09/bin/../arm-none-eabi/lib//libc.a(lib_a-fputc.o)
_raise_r                                          /home/leon/riotboard/arm-2012.09/bin/../arm-none-eabi/lib//libc.a(lib_a-signal.o)
_raw_puts                                         /home/leon/git/swp-report/iMX6_Platform_SDK/output/mx6dq/lib/libsdk.a(runtime_support.o)
_read                                             /home/leon/git/swp-report/iMX6_Platform_SDK/output/mx6dq/lib/libsdk.a(runtime_support.o)
                                                  /home/leon/riotboard/arm-2012.09/bin/../arm-none-eabi/lib//libc.a(lib_a-readr.o)
_read_r                                           /home/leon/riotboard/arm-2012.09/bin/../arm-none-eabi/lib//libc.a(lib_a-readr.o)
                                                  /home/leon/riotboard/arm-2012.09/bin/../arm-none-eabi/lib//libc.a(lib_a-stdio.o)
_realloc_r                                        /home/leon/riotboard/arm-2012.09/bin/../arm-none-eabi/lib//libc.a(lib_a-reallocr.o)
                                                  /home/leon/riotboard/arm-2012.09/bin/../arm-none-eabi/lib//libc.a(lib_a-fvwrite.o)
                                                  /home/leon/riotboard/arm-2012.09/bin/../arm-none-eabi/lib//libc.a(lib_a-realloc.o)
_reclaim_reent                                    /home/leon/riotboard/arm-2012.09/bin/../arm-none-eabi/lib//libc.a(lib_a-reent.o)
_sbrk                                             /home/leon/git/swp-report/iMX6_Platform_SDK/output/mx6dq/lib/libsdk.a(runtime_support.o)
                                                  /home/leon/riotboard/arm-2012.09/bin/../arm-none-eabi/lib//libc.a(lib_a-sbrkr.o)
_sbrk_r                                           /home/leon/riotboard/arm-2012.09/bin/../arm-none-eabi/lib//libc.a(lib_a-sbrkr.o)
                                                  /home/leon/riotboard/arm-2012.09/bin/../arm-none-eabi/lib//libc.a(lib_a-freer.o)
                                                  /home/leon/riotboard/arm-2012.09/bin/../arm-none-eabi/lib//libc.a(lib_a-mallocr.o)
_setlocale_r                                      /home/leon/riotboard/arm-2012.09/bin/../arm-none-eabi/lib//libc.a(lib_a-locale.o)
_signal_r                                         /home/leon/riotboard/arm-2012.09/bin/../arm-none-eabi/lib//libc.a(lib_a-signal.o)
_start                                            /home/leon/git/swp-report/iMX6_Platform_SDK/output/mx6dq/lib/libsdk.a(startup.o)
                                                  /home/leon/git/swp-report/iMX6_Platform_SDK/output/mx6dq/lib/libsdk.a(cpu_multicore.o)
                                                  /home/leon/git/swp-report/iMX6_Platform_SDK/output/mx6dq/lib/libsdk.a(vectors.o)
                                                  /home/leon/git/swp-report/iMX6_Platform_SDK/output/mx6dq/smp_primes/evb_rev_a/obj/apps/common/ivt.o
_start_image_add                                  /home/leon/git/swp-report/iMX6_Platform_SDK/output/mx6dq/smp_primes/evb_rev_a/obj/apps/common/ivt.o
_stat                                             /home/leon/git/swp-report/iMX6_Platform_SDK/output/mx6dq/lib/libsdk.a(runtime_support.o)
_sys_exit                                         /home/leon/git/swp-report/iMX6_Platform_SDK/output/mx6dq/lib/libsdk.a(system_util.o)
                                                  /home/leon/git/swp-report/iMX6_Platform_SDK/output/mx6dq/lib/libsdk.a(runtime_support.o)
                                                  /home/leon/git/swp-report/iMX6_Platform_SDK/output/mx6dq/lib/libsdk.a(startup.o)
_times                                            /home/leon/git/swp-report/iMX6_Platform_SDK/output/mx6dq/lib/libsdk.a(runtime_support.o)
_unlink                                           /home/leon/git/swp-report/iMX6_Platform_SDK/output/mx6dq/lib/libsdk.a(runtime_support.o)
_vfiprintf_r                                      /home/leon/riotboard/arm-2012.09/bin/../arm-none-eabi/lib//libc.a(lib_a-vfiprintf.o)
                                                  /home/leon/riotboard/arm-2012.09/bin/../arm-none-eabi/lib//libc.a(lib_a-fiprintf.o)
_vfprintf_r                                       /home/leon/riotboard/arm-2012.09/bin/../arm-none-eabi/lib//libc.a(lib_a-vfprintf.o)
                                                  /home/leon/riotboard/arm-2012.09/bin/../arm-none-eabi/lib//libc.a(lib_a-vprintf.o)
                                                  /home/leon/riotboard/arm-2012.09/bin/../arm-none-eabi/lib//libc.a(lib_a-printf.o)
_vprintf_r                                        /home/leon/riotboard/arm-2012.09/bin/../arm-none-eabi/lib//libc.a(lib_a-vprintf.o)
_wait                                             /home/leon/git/swp-report/iMX6_Platform_SDK/output/mx6dq/lib/libsdk.a(runtime_support.o)
_wcrtomb_r                                        /home/leon/riotboard/arm-2012.09/bin/../arm-none-eabi/lib//libc.a(lib_a-wcrtomb.o)
                                                  /home/leon/riotboard/arm-2012.09/bin/../arm-none-eabi/lib//libc.a(lib_a-fputwc.o)
_wctomb_r                                         /home/leon/riotboard/arm-2012.09/bin/../arm-none-eabi/lib//libc.a(lib_a-wctomb_r.o)
_wrapup_reent                                     /home/leon/riotboard/arm-2012.09/bin/../arm-none-eabi/lib//libc.a(lib_a-reent.o)
_write                                            /home/leon/git/swp-report/iMX6_Platform_SDK/output/mx6dq/lib/libsdk.a(runtime_support.o)
                                                  /home/leon/riotboard/arm-2012.09/bin/../arm-none-eabi/lib//libc.a(lib_a-writer.o)
_write_r                                          /home/leon/riotboard/arm-2012.09/bin/../arm-none-eabi/lib//libc.a(lib_a-writer.o)
                                                  /home/leon/riotboard/arm-2012.09/bin/../arm-none-eabi/lib//libc.a(lib_a-stdio.o)
abort                                             /home/leon/riotboard/arm-2012.09/bin/../arm-none-eabi/lib//libc.a(lib_a-abort.o)
                                                  /home/leon/git/swp-report/iMX6_Platform_SDK/output/mx6dq/lib/libsdk.a(runtime_support.o)
                                                  /home/leon/riotboard/arm-2012.09/bin/../arm-none-eabi/lib//libc.a(lib_a-assert.o)
arm_branch_prediction_disable                     /home/leon/git/swp-report/iMX6_Platform_SDK/output/mx6dq/lib/libsdk.a(cortexA9.o)
arm_branch_prediction_enable                      /home/leon/git/swp-report/iMX6_Platform_SDK/output/mx6dq/lib/libsdk.a(cortexA9.o)
                                                  /home/leon/git/swp-report/iMX6_Platform_SDK/output/mx6dq/smp_primes/evb_rev_a/obj/apps/smp_primes/src/main.o
arm_branch_target_cache_invalidate                /home/leon/git/swp-report/iMX6_Platform_SDK/output/mx6dq/lib/libsdk.a(cortexA9.o)
                                                  /home/leon/git/swp-report/iMX6_Platform_SDK/output/mx6dq/smp_primes/evb_rev_a/obj/apps/smp_primes/src/main.o
arm_branch_target_cache_invalidate_is             /home/leon/git/swp-report/iMX6_Platform_SDK/output/mx6dq/lib/libsdk.a(cortexA9.o)
arm_dcache_disable                                /home/leon/git/swp-report/iMX6_Platform_SDK/output/mx6dq/lib/libsdk.a(armv7_cache.o)
arm_dcache_enable                                 /home/leon/git/swp-report/iMX6_Platform_SDK/output/mx6dq/lib/libsdk.a(armv7_cache.o)
                                                  /home/leon/git/swp-report/iMX6_Platform_SDK/output/mx6dq/smp_primes/evb_rev_a/obj/apps/smp_primes/src/main.o
arm_dcache_flush                                  /home/leon/git/swp-report/iMX6_Platform_SDK/output/mx6dq/lib/libsdk.a(armv7_cache.o)
arm_dcache_flush_line                             /home/leon/git/swp-report/iMX6_Platform_SDK/output/mx6dq/lib/libsdk.a(armv7_cache.o)
arm_dcache_flush_mlines                           /home/leon/git/swp-report/iMX6_Platform_SDK/output/mx6dq/lib/libsdk.a(armv7_cache.o)
arm_dcache_invalidate                             /home/leon/git/swp-report/iMX6_Platform_SDK/output/mx6dq/lib/libsdk.a(armv7_cache.o)
                                                  /home/leon/git/swp-report/iMX6_Platform_SDK/output/mx6dq/smp_primes/evb_rev_a/obj/apps/smp_primes/src/main.o
arm_dcache_invalidate_line                        /home/leon/git/swp-report/iMX6_Platform_SDK/output/mx6dq/lib/libsdk.a(armv7_cache.o)
arm_dcache_invalidate_mlines                      /home/leon/git/swp-report/iMX6_Platform_SDK/output/mx6dq/lib/libsdk.a(armv7_cache.o)
arm_dcache_state_query                            /home/leon/git/swp-report/iMX6_Platform_SDK/output/mx6dq/lib/libsdk.a(armv7_cache.o)
arm_icache_disable                                /home/leon/git/swp-report/iMX6_Platform_SDK/output/mx6dq/lib/libsdk.a(armv7_cache.o)
arm_icache_enable                                 /home/leon/git/swp-report/iMX6_Platform_SDK/output/mx6dq/lib/libsdk.a(armv7_cache.o)
                                                  /home/leon/git/swp-report/iMX6_Platform_SDK/output/mx6dq/smp_primes/evb_rev_a/obj/apps/smp_primes/src/main.o
arm_icache_invalidate                             /home/leon/git/swp-report/iMX6_Platform_SDK/output/mx6dq/lib/libsdk.a(armv7_cache.o)
                                                  /home/leon/git/swp-report/iMX6_Platform_SDK/output/mx6dq/smp_primes/evb_rev_a/obj/apps/smp_primes/src/main.o
arm_icache_invalidate_is                          /home/leon/git/swp-report/iMX6_Platform_SDK/output/mx6dq/lib/libsdk.a(armv7_cache.o)
arm_icache_invalidate_line                        /home/leon/git/swp-report/iMX6_Platform_SDK/output/mx6dq/lib/libsdk.a(armv7_cache.o)
arm_icache_invalidate_mlines                      /home/leon/git/swp-report/iMX6_Platform_SDK/output/mx6dq/lib/libsdk.a(armv7_cache.o)
arm_icache_state_query                            /home/leon/git/swp-report/iMX6_Platform_SDK/output/mx6dq/lib/libsdk.a(armv7_cache.o)
arm_iomux_config                                  /home/leon/git/swp-report/iMX6_Platform_SDK/output/mx6dq/lib/libboard_evb_rev_a.a(iomux_config.o)
arm_set_interrupt_state                           /home/leon/git/swp-report/iMX6_Platform_SDK/output/mx6dq/lib/libsdk.a(cortexA9.o)
                                                  /home/leon/git/swp-report/iMX6_Platform_SDK/output/mx6dq/smp_primes/evb_rev_a/obj/apps/common/platform_init.o
arm_unified_tlb_invalidate                        /home/leon/git/swp-report/iMX6_Platform_SDK/output/mx6dq/lib/libsdk.a(cortexA9.o)
                                                  /home/leon/git/swp-report/iMX6_Platform_SDK/output/mx6dq/lib/libsdk.a(mmu.o)
arm_unified_tlb_invalidate_is                     /home/leon/git/swp-report/iMX6_Platform_SDK/output/mx6dq/lib/libsdk.a(cortexA9.o)
asrc_iomux_config                                 /home/leon/git/swp-report/iMX6_Platform_SDK/output/mx6dq/lib/libboard_evb_rev_a.a(iomux_config.o)
audmux_iomux_config                               /home/leon/git/swp-report/iMX6_Platform_SDK/output/mx6dq/lib/libboard_evb_rev_a.a(iomux_config.o)
bd                                                /home/leon/git/swp-report/iMX6_Platform_SDK/output/mx6dq/smp_primes/evb_rev_a/obj/apps/common/ivt.o
board_ioexpander_init                             /home/leon/git/swp-report/iMX6_Platform_SDK/output/mx6dq/lib/libboard_evb_rev_a.a(board_io_expanders.o)
                                                  /home/leon/git/swp-report/iMX6_Platform_SDK/output/mx6dq/smp_primes/evb_rev_a/obj/apps/common/platform_init.o
board_ioexpander_iomux_config                     /home/leon/git/swp-report/iMX6_Platform_SDK/output/mx6dq/lib/libboard_evb_rev_a.a(board_io_expanders.o)
bzero                                             /home/leon/riotboard/arm-2012.09/bin/../arm-none-eabi/lib//libc.a(lib_a-bzero.o)
                                                  /home/leon/git/swp-report/iMX6_Platform_SDK/output/mx6dq/lib/libsdk.a(mmu.o)
calculatePrimes                                   /home/leon/git/swp-report/iMX6_Platform_SDK/output/mx6dq/smp_primes/evb_rev_a/obj/apps/smp_primes/src/primes.o
                                                  /home/leon/git/swp-report/iMX6_Platform_SDK/output/mx6dq/smp_primes/evb_rev_a/obj/apps/smp_primes/src/main.o
ccm_ccgr_config                                   /home/leon/git/swp-report/iMX6_Platform_SDK/output/mx6dq/lib/libsdk.a(ccm_pll.o)
ccm_enter_low_power                               /home/leon/git/swp-report/iMX6_Platform_SDK/output/mx6dq/lib/libsdk.a(ccm_pll.o)
ccm_init                                          /home/leon/git/swp-report/iMX6_Platform_SDK/output/mx6dq/lib/libsdk.a(ccm_pll.o)
                                                  /home/leon/git/swp-report/iMX6_Platform_SDK/output/mx6dq/smp_primes/evb_rev_a/obj/apps/common/platform_init.o
ccm_iomux_config                                  /home/leon/git/swp-report/iMX6_Platform_SDK/output/mx6dq/lib/libboard_evb_rev_a.a(ccm_iomux_config.o)
                                                  /home/leon/git/swp-report/iMX6_Platform_SDK/output/mx6dq/lib/libboard_evb_rev_a.a(iomux_config.o)
ccm_set_lpm_wakeup_source                         /home/leon/git/swp-report/iMX6_Platform_SDK/output/mx6dq/lib/libsdk.a(ccm_pll.o)
cleanup_glue                                      /home/leon/riotboard/arm-2012.09/bin/../arm-none-eabi/lib//libc.a(lib_a-reent.o)
clock_gating_config                               /home/leon/git/swp-report/iMX6_Platform_SDK/output/mx6dq/lib/libsdk.a(ccm_pll.o)
                                                  /home/leon/git/swp-report/iMX6_Platform_SDK/output/mx6dq/lib/libsdk.a(imx_i2c.o)
                                                  /home/leon/git/swp-report/iMX6_Platform_SDK/output/mx6dq/lib/libsdk.a(epit.o)
                                                  /home/leon/git/swp-report/iMX6_Platform_SDK/output/mx6dq/lib/libsdk.a(imx_uart.o)
common_abort_handler                              /home/leon/git/swp-report/iMX6_Platform_SDK/output/mx6dq/lib/libsdk.a(arm_abort.o)
configure_cpu                                     /home/leon/git/swp-report/iMX6_Platform_SDK/output/mx6dq/smp_primes/evb_rev_a/obj/apps/smp_primes/src/main.o
cpu_disable                                       /home/leon/git/swp-report/iMX6_Platform_SDK/output/mx6dq/lib/libsdk.a(cpu_multicore.o)
                                                  /home/leon/git/swp-report/iMX6_Platform_SDK/output/mx6dq/smp_primes/evb_rev_a/obj/apps/smp_primes/src/main.o
cpu_get_cores                                     /home/leon/git/swp-report/iMX6_Platform_SDK/output/mx6dq/lib/libsdk.a(cpu_get_cores.o)
                                                  /home/leon/git/swp-report/iMX6_Platform_SDK/output/mx6dq/lib/libsdk.a(cpu_multicore.o)
                                                  /home/leon/git/swp-report/iMX6_Platform_SDK/output/mx6dq/smp_primes/evb_rev_a/obj/apps/smp_primes/src/main.o
cpu_get_current                                   /home/leon/git/swp-report/iMX6_Platform_SDK/output/mx6dq/lib/libsdk.a(cortexA9.o)
                                                  /home/leon/git/swp-report/iMX6_Platform_SDK/output/mx6dq/lib/libsdk.a(cpu_multicore.o)
                                                  /home/leon/git/swp-report/iMX6_Platform_SDK/output/mx6dq/lib/libsdk.a(spinlock_lock_unlock.o)
                                                  /home/leon/git/swp-report/iMX6_Platform_SDK/output/mx6dq/smp_primes/evb_rev_a/obj/apps/smp_primes/src/main.o
cpu_start_secondary                               /home/leon/git/swp-report/iMX6_Platform_SDK/output/mx6dq/lib/libsdk.a(cpu_multicore.o)
                                                  /home/leon/git/swp-report/iMX6_Platform_SDK/output/mx6dq/smp_primes/evb_rev_a/obj/apps/smp_primes/src/main.o
data_abort_handler                                /home/leon/git/swp-report/iMX6_Platform_SDK/output/mx6dq/lib/libsdk.a(arm_abort.o)
                                                  /home/leon/git/swp-report/iMX6_Platform_SDK/output/mx6dq/lib/libsdk.a(vectors.o)
dcic1_iomux_config                                /home/leon/git/swp-report/iMX6_Platform_SDK/output/mx6dq/lib/libboard_evb_rev_a.a(iomux_config.o)
dcic2_iomux_config                                /home/leon/git/swp-report/iMX6_Platform_SDK/output/mx6dq/lib/libboard_evb_rev_a.a(iomux_config.o)
default_interrupt_routine                         /home/leon/git/swp-report/iMX6_Platform_SDK/output/mx6dq/lib/libsdk.a(interrupt.o)
disable_L1_cache                                  /home/leon/git/swp-report/iMX6_Platform_SDK/output/mx6dq/lib/libsdk.a(cortexA9.o)
disable_interrupt                                 /home/leon/git/swp-report/iMX6_Platform_SDK/output/mx6dq/lib/libsdk.a(interrupt.o)
                                                  /home/leon/git/swp-report/iMX6_Platform_SDK/output/mx6dq/lib/libsdk.a(imx_i2c.o)
                                                  /home/leon/git/swp-report/iMX6_Platform_SDK/output/mx6dq/lib/libsdk.a(epit.o)
                                                  /home/leon/git/swp-report/iMX6_Platform_SDK/output/mx6dq/lib/libsdk.a(imx_uart.o)
disable_strict_align_check                        /home/leon/git/swp-report/iMX6_Platform_SDK/output/mx6dq/lib/libsdk.a(cortexA9.o)
                                                  /home/leon/git/swp-report/iMX6_Platform_SDK/output/mx6dq/smp_primes/evb_rev_a/obj/apps/smp_primes/src/main.o
                                                  /home/leon/git/swp-report/iMX6_Platform_SDK/output/mx6dq/smp_primes/evb_rev_a/obj/apps/common/platform_init.o
dump_regs                                         /home/leon/git/swp-report/iMX6_Platform_SDK/output/mx6dq/lib/libsdk.a(abort_handler.o)
                                                  /home/leon/git/swp-report/iMX6_Platform_SDK/output/mx6dq/lib/libsdk.a(arm_abort.o)
ecspi1_iomux_config                               /home/leon/git/swp-report/iMX6_Platform_SDK/output/mx6dq/lib/libboard_evb_rev_a.a(ecspi1_iomux_config.o)
                                                  /home/leon/git/swp-report/iMX6_Platform_SDK/output/mx6dq/lib/libboard_evb_rev_a.a(iomux_config.o)
ecspi2_iomux_config                               /home/leon/git/swp-report/iMX6_Platform_SDK/output/mx6dq/lib/libboard_evb_rev_a.a(iomux_config.o)
ecspi3_iomux_config                               /home/leon/git/swp-report/iMX6_Platform_SDK/output/mx6dq/lib/libboard_evb_rev_a.a(iomux_config.o)
ecspi4_iomux_config                               /home/leon/git/swp-report/iMX6_Platform_SDK/output/mx6dq/lib/libboard_evb_rev_a.a(iomux_config.o)
ecspi5_iomux_config                               /home/leon/git/swp-report/iMX6_Platform_SDK/output/mx6dq/lib/libboard_evb_rev_a.a(iomux_config.o)
eim_iomux_config                                  /home/leon/git/swp-report/iMX6_Platform_SDK/output/mx6dq/lib/libboard_evb_rev_a.a(iomux_config.o)
enable_interrupt                                  /home/leon/git/swp-report/iMX6_Platform_SDK/output/mx6dq/lib/libsdk.a(interrupt.o)
                                                  /home/leon/git/swp-report/iMX6_Platform_SDK/output/mx6dq/lib/libsdk.a(imx_i2c.o)
                                                  /home/leon/git/swp-report/iMX6_Platform_SDK/output/mx6dq/lib/libsdk.a(epit.o)
                                                  /home/leon/git/swp-report/iMX6_Platform_SDK/output/mx6dq/lib/libsdk.a(imx_uart.o)
enable_neon_fpu                                   /home/leon/git/swp-report/iMX6_Platform_SDK/output/mx6dq/lib/libsdk.a(cortexA9.o)
                                                  /home/leon/git/swp-report/iMX6_Platform_SDK/output/mx6dq/smp_primes/evb_rev_a/obj/apps/common/platform_init.o
enet_iomux_config                                 /home/leon/git/swp-report/iMX6_Platform_SDK/output/mx6dq/lib/libboard_evb_rev_a.a(enet_iomux_config.o)
                                                  /home/leon/git/swp-report/iMX6_Platform_SDK/output/mx6dq/lib/libboard_evb_rev_a.a(iomux_config.o)
environ                                           /home/leon/git/swp-report/iMX6_Platform_SDK/output/mx6dq/lib/libsdk.a(runtime_support.o)
epit1_iomux_config                                /home/leon/git/swp-report/iMX6_Platform_SDK/output/mx6dq/lib/libboard_evb_rev_a.a(iomux_config.o)
epit2_iomux_config                                /home/leon/git/swp-report/iMX6_Platform_SDK/output/mx6dq/lib/libboard_evb_rev_a.a(iomux_config.o)
epit_counter_disable                              /home/leon/git/swp-report/iMX6_Platform_SDK/output/mx6dq/lib/libsdk.a(epit.o)
                                                  /home/leon/git/swp-report/iMX6_Platform_SDK/output/mx6dq/lib/libsdk.a(timer.o)
epit_counter_enable                               /home/leon/git/swp-report/iMX6_Platform_SDK/output/mx6dq/lib/libsdk.a(epit.o)
                                                  /home/leon/git/swp-report/iMX6_Platform_SDK/output/mx6dq/lib/libsdk.a(timer.o)
epit_get_compare_event                            /home/leon/git/swp-report/iMX6_Platform_SDK/output/mx6dq/lib/libsdk.a(epit.o)
                                                  /home/leon/git/swp-report/iMX6_Platform_SDK/output/mx6dq/lib/libsdk.a(timer.o)
epit_get_counter_value                            /home/leon/git/swp-report/iMX6_Platform_SDK/output/mx6dq/lib/libsdk.a(epit.o)
epit_init                                         /home/leon/git/swp-report/iMX6_Platform_SDK/output/mx6dq/lib/libsdk.a(epit.o)
                                                  /home/leon/git/swp-report/iMX6_Platform_SDK/output/mx6dq/lib/libsdk.a(timer.o)
epit_reload_counter                               /home/leon/git/swp-report/iMX6_Platform_SDK/output/mx6dq/lib/libsdk.a(epit.o)
epit_set_compare_event                            /home/leon/git/swp-report/iMX6_Platform_SDK/output/mx6dq/lib/libsdk.a(epit.o)
epit_setup_interrupt                              /home/leon/git/swp-report/iMX6_Platform_SDK/output/mx6dq/lib/libsdk.a(epit.o)
errno                                             /home/leon/git/swp-report/iMX6_Platform_SDK/output/mx6dq/lib/libsdk.a(runtime_support.o)
                                                  /home/leon/riotboard/arm-2012.09/bin/../arm-none-eabi/lib//libc.a(lib_a-readr.o)
                                                  /home/leon/riotboard/arm-2012.09/bin/../arm-none-eabi/lib//libc.a(lib_a-lseekr.o)
                                                  /home/leon/riotboard/arm-2012.09/bin/../arm-none-eabi/lib//libc.a(lib_a-isattyr.o)
                                                  /home/leon/riotboard/arm-2012.09/bin/../arm-none-eabi/lib//libc.a(lib_a-fstatr.o)
                                                  /home/leon/riotboard/arm-2012.09/bin/../arm-none-eabi/lib//libc.a(lib_a-closer.o)
                                                  /home/leon/riotboard/arm-2012.09/bin/../arm-none-eabi/lib//libc.a(lib_a-writer.o)
                                                  /home/leon/riotboard/arm-2012.09/bin/../arm-none-eabi/lib//libc.a(lib_a-signalr.o)
                                                  /home/leon/riotboard/arm-2012.09/bin/../arm-none-eabi/lib//libc.a(lib_a-reent.o)
                                                  /home/leon/riotboard/arm-2012.09/bin/../arm-none-eabi/lib//libc.a(lib_a-sbrkr.o)
esai_iomux_config                                 /home/leon/git/swp-report/iMX6_Platform_SDK/output/mx6dq/lib/libboard_evb_rev_a.a(esai_iomux_config.o)
                                                  /home/leon/git/swp-report/iMX6_Platform_SDK/output/mx6dq/lib/libboard_evb_rev_a.a(iomux_config.o)
exception_handler                                 /home/leon/git/swp-report/iMX6_Platform_SDK/output/mx6dq/lib/libsdk.a(vectors.o)
fclose                                            /home/leon/riotboard/arm-2012.09/bin/../arm-none-eabi/lib//libc.a(lib_a-fclose.o)
                                                  /home/leon/riotboard/arm-2012.09/bin/../arm-none-eabi/lib//libc.a(lib_a-findfp.o)
fflush                                            /home/leon/riotboard/arm-2012.09/bin/../arm-none-eabi/lib//libc.a(lib_a-fflush.o)
                                                  /home/leon/riotboard/arm-2012.09/bin/../arm-none-eabi/lib//libc.a(lib_a-refill.o)
fiprintf                                          /home/leon/riotboard/arm-2012.09/bin/../arm-none-eabi/lib//libc.a(lib_a-fiprintf.o)
                                                  /home/leon/riotboard/arm-2012.09/bin/../arm-none-eabi/lib//libc.a(lib_a-assert.o)
flexcan1_iomux_config                             /home/leon/git/swp-report/iMX6_Platform_SDK/output/mx6dq/lib/libboard_evb_rev_a.a(flexcan1_iomux_config.o)
                                                  /home/leon/git/swp-report/iMX6_Platform_SDK/output/mx6dq/lib/libboard_evb_rev_a.a(iomux_config.o)
flexcan2_iomux_config                             /home/leon/git/swp-report/iMX6_Platform_SDK/output/mx6dq/lib/libboard_evb_rev_a.a(flexcan2_iomux_config.o)
                                                  /home/leon/git/swp-report/iMX6_Platform_SDK/output/mx6dq/lib/libboard_evb_rev_a.a(iomux_config.o)
fputc                                             /home/leon/riotboard/arm-2012.09/bin/../arm-none-eabi/lib//libc.a(lib_a-fputc.o)
                                                  /home/leon/git/swp-report/iMX6_Platform_SDK/output/mx6dq/lib/libsdk.a(system_util.o)
fputwc                                            /home/leon/riotboard/arm-2012.09/bin/../arm-none-eabi/lib//libc.a(lib_a-fputwc.o)
free                                              /home/leon/riotboard/arm-2012.09/bin/../arm-none-eabi/lib//libc.a(lib_a-malloc.o)
free_memory_end                                   /home/leon/git/swp-report/iMX6_Platform_SDK/output/mx6dq/lib/libsdk.a(runtime_support.o)
free_memory_start                                 /home/leon/git/swp-report/iMX6_Platform_SDK/output/mx6dq/lib/libsdk.a(runtime_support.o)
g_TextAttributeBlink                              /home/leon/git/swp-report/iMX6_Platform_SDK/output/mx6dq/lib/libsdk.a(text_color.o)
g_TextAttributeBold                               /home/leon/git/swp-report/iMX6_Platform_SDK/output/mx6dq/lib/libsdk.a(text_color.o)
                                                  /home/leon/git/swp-report/iMX6_Platform_SDK/output/mx6dq/lib/libsdk.a(system_util.o)
g_TextAttributeDefault                            /home/leon/git/swp-report/iMX6_Platform_SDK/output/mx6dq/lib/libsdk.a(text_color.o)
g_TextAttributeDim                                /home/leon/git/swp-report/iMX6_Platform_SDK/output/mx6dq/lib/libsdk.a(text_color.o)
g_TextAttributeHidden                             /home/leon/git/swp-report/iMX6_Platform_SDK/output/mx6dq/lib/libsdk.a(text_color.o)
g_TextAttributeReverse                            /home/leon/git/swp-report/iMX6_Platform_SDK/output/mx6dq/lib/libsdk.a(text_color.o)
g_TextAttributeUnderline                          /home/leon/git/swp-report/iMX6_Platform_SDK/output/mx6dq/lib/libsdk.a(text_color.o)
g_TextColorBlack                                  /home/leon/git/swp-report/iMX6_Platform_SDK/output/mx6dq/lib/libsdk.a(text_color.o)
g_TextColorBlue                                   /home/leon/git/swp-report/iMX6_Platform_SDK/output/mx6dq/lib/libsdk.a(text_color.o)
g_TextColorCyan                                   /home/leon/git/swp-report/iMX6_Platform_SDK/output/mx6dq/lib/libsdk.a(text_color.o)
g_TextColorGray                                   /home/leon/git/swp-report/iMX6_Platform_SDK/output/mx6dq/lib/libsdk.a(text_color.o)
g_TextColorGreen                                  /home/leon/git/swp-report/iMX6_Platform_SDK/output/mx6dq/lib/libsdk.a(text_color.o)
g_TextColorLightBlue                              /home/leon/git/swp-report/iMX6_Platform_SDK/output/mx6dq/lib/libsdk.a(text_color.o)
g_TextColorMagenta                                /home/leon/git/swp-report/iMX6_Platform_SDK/output/mx6dq/lib/libsdk.a(text_color.o)
g_TextColorOrange                                 /home/leon/git/swp-report/iMX6_Platform_SDK/output/mx6dq/lib/libsdk.a(text_color.o)
g_TextColorPurple                                 /home/leon/git/swp-report/iMX6_Platform_SDK/output/mx6dq/lib/libsdk.a(text_color.o)
g_TextColorRed                                    /home/leon/git/swp-report/iMX6_Platform_SDK/output/mx6dq/lib/libsdk.a(text_color.o)
                                                  /home/leon/git/swp-report/iMX6_Platform_SDK/output/mx6dq/lib/libsdk.a(system_util.o)
g_TextColorWhite                                  /home/leon/git/swp-report/iMX6_Platform_SDK/output/mx6dq/lib/libsdk.a(text_color.o)
g_TextColorYellow                                 /home/leon/git/swp-report/iMX6_Platform_SDK/output/mx6dq/lib/libsdk.a(text_color.o)
g_debug_uart_port                                 /home/leon/git/swp-report/iMX6_Platform_SDK/output/mx6dq/lib/libboard_evb_rev_a.a(hardware_modules.o)
                                                  /home/leon/git/swp-report/iMX6_Platform_SDK/output/mx6dq/lib/libsdk.a(runtime_support.o)
                                                  /home/leon/git/swp-report/iMX6_Platform_SDK/output/mx6dq/lib/libsdk.a(system_util.o)
                                                  /home/leon/git/swp-report/iMX6_Platform_SDK/output/mx6dq/smp_primes/evb_rev_a/obj/apps/common/platform_init.o
g_interrupt_handlers                              /home/leon/git/swp-report/iMX6_Platform_SDK/output/mx6dq/lib/libsdk.a(interrupt.o)
g_microsecondTimerMultiple                        /home/leon/git/swp-report/iMX6_Platform_SDK/output/mx6dq/lib/libsdk.a(timer.o)
g_system_timer_port                               /home/leon/git/swp-report/iMX6_Platform_SDK/output/mx6dq/lib/libboard_evb_rev_a.a(hardware_modules.o)
                                                  /home/leon/git/swp-report/iMX6_Platform_SDK/output/mx6dq/lib/libsdk.a(timer.o)
g_vectNum                                         /home/leon/git/swp-report/iMX6_Platform_SDK/output/mx6dq/lib/libsdk.a(interrupt.o)
get_arm_private_peripheral_base                   /home/leon/git/swp-report/iMX6_Platform_SDK/output/mx6dq/lib/libsdk.a(cortexA9.o)
                                                  /home/leon/git/swp-report/iMX6_Platform_SDK/output/mx6dq/lib/libsdk.a(gic.o)
get_color_supported                               /home/leon/git/swp-report/iMX6_Platform_SDK/output/mx6dq/lib/libsdk.a(text_color.o)
get_input_hex                                     /home/leon/git/swp-report/iMX6_Platform_SDK/output/mx6dq/lib/libsdk.a(system_util.o)
get_main_clock                                    /home/leon/git/swp-report/iMX6_Platform_SDK/output/mx6dq/lib/libsdk.a(ccm_pll.o)
                                                  /home/leon/git/swp-report/iMX6_Platform_SDK/output/mx6dq/lib/libsdk.a(imx_i2c.o)
                                                  /home/leon/git/swp-report/iMX6_Platform_SDK/output/mx6dq/lib/libsdk.a(timer.o)
get_peri_clock                                    /home/leon/git/swp-report/iMX6_Platform_SDK/output/mx6dq/lib/libsdk.a(ccm_pll.o)
                                                  /home/leon/git/swp-report/iMX6_Platform_SDK/output/mx6dq/lib/libsdk.a(imx_uart.o)
gic_cpu_enable                                    /home/leon/git/swp-report/iMX6_Platform_SDK/output/mx6dq/lib/libsdk.a(gic.o)
gic_enable                                        /home/leon/git/swp-report/iMX6_Platform_SDK/output/mx6dq/lib/libsdk.a(gic.o)
gic_enable_irq                                    /home/leon/git/swp-report/iMX6_Platform_SDK/output/mx6dq/lib/libsdk.a(gic.o)
                                                  /home/leon/git/swp-report/iMX6_Platform_SDK/output/mx6dq/lib/libsdk.a(interrupt.o)
gic_init                                          /home/leon/git/swp-report/iMX6_Platform_SDK/output/mx6dq/lib/libsdk.a(gic.o)
                                                  /home/leon/git/swp-report/iMX6_Platform_SDK/output/mx6dq/smp_primes/evb_rev_a/obj/apps/common/platform_init.o
gic_init_cpu                                      /home/leon/git/swp-report/iMX6_Platform_SDK/output/mx6dq/lib/libsdk.a(gic.o)
gic_read_irq_ack                                  /home/leon/git/swp-report/iMX6_Platform_SDK/output/mx6dq/lib/libsdk.a(gic.o)
                                                  /home/leon/git/swp-report/iMX6_Platform_SDK/output/mx6dq/lib/libsdk.a(interrupt.o)
gic_send_sgi                                      /home/leon/git/swp-report/iMX6_Platform_SDK/output/mx6dq/lib/libsdk.a(gic.o)
gic_set_cpu_priority_mask                         /home/leon/git/swp-report/iMX6_Platform_SDK/output/mx6dq/lib/libsdk.a(gic.o)
gic_set_cpu_target                                /home/leon/git/swp-report/iMX6_Platform_SDK/output/mx6dq/lib/libsdk.a(gic.o)
                                                  /home/leon/git/swp-report/iMX6_Platform_SDK/output/mx6dq/lib/libsdk.a(interrupt.o)
gic_set_irq_priority                              /home/leon/git/swp-report/iMX6_Platform_SDK/output/mx6dq/lib/libsdk.a(gic.o)
                                                  /home/leon/git/swp-report/iMX6_Platform_SDK/output/mx6dq/lib/libsdk.a(interrupt.o)
gic_set_irq_security                              /home/leon/git/swp-report/iMX6_Platform_SDK/output/mx6dq/lib/libsdk.a(gic.o)
                                                  /home/leon/git/swp-report/iMX6_Platform_SDK/output/mx6dq/lib/libsdk.a(interrupt.o)
gic_write_end_of_irq                              /home/leon/git/swp-report/iMX6_Platform_SDK/output/mx6dq/lib/libsdk.a(gic.o)
                                                  /home/leon/git/swp-report/iMX6_Platform_SDK/output/mx6dq/lib/libsdk.a(interrupt.o)
gpio1_iomux_config                                /home/leon/git/swp-report/iMX6_Platform_SDK/output/mx6dq/lib/libboard_evb_rev_a.a(iomux_config.o)
gpio2_iomux_config                                /home/leon/git/swp-report/iMX6_Platform_SDK/output/mx6dq/lib/libboard_evb_rev_a.a(iomux_config.o)
gpio3_iomux_config                                /home/leon/git/swp-report/iMX6_Platform_SDK/output/mx6dq/lib/libboard_evb_rev_a.a(gpio3_iomux_config.o)
                                                  /home/leon/git/swp-report/iMX6_Platform_SDK/output/mx6dq/lib/libboard_evb_rev_a.a(iomux_config.o)
gpio4_iomux_config                                /home/leon/git/swp-report/iMX6_Platform_SDK/output/mx6dq/lib/libboard_evb_rev_a.a(gpio4_iomux_config.o)
                                                  /home/leon/git/swp-report/iMX6_Platform_SDK/output/mx6dq/lib/libboard_evb_rev_a.a(iomux_config.o)
gpio5_iomux_config                                /home/leon/git/swp-report/iMX6_Platform_SDK/output/mx6dq/lib/libboard_evb_rev_a.a(gpio5_iomux_config.o)
                                                  /home/leon/git/swp-report/iMX6_Platform_SDK/output/mx6dq/lib/libboard_evb_rev_a.a(iomux_config.o)
gpio6_iomux_config                                /home/leon/git/swp-report/iMX6_Platform_SDK/output/mx6dq/lib/libboard_evb_rev_a.a(gpio6_iomux_config.o)
                                                  /home/leon/git/swp-report/iMX6_Platform_SDK/output/mx6dq/lib/libboard_evb_rev_a.a(iomux_config.o)
gpio7_iomux_config                                /home/leon/git/swp-report/iMX6_Platform_SDK/output/mx6dq/lib/libboard_evb_rev_a.a(iomux_config.o)
gpmi_iomux_config                                 /home/leon/git/swp-report/iMX6_Platform_SDK/output/mx6dq/lib/libboard_evb_rev_a.a(gpmi_iomux_config.o)
                                                  /home/leon/git/swp-report/iMX6_Platform_SDK/output/mx6dq/lib/libboard_evb_rev_a.a(iomux_config.o)
gpt_iomux_config                                  /home/leon/git/swp-report/iMX6_Platform_SDK/output/mx6dq/lib/libboard_evb_rev_a.a(iomux_config.o)
gpu_clock_config                                  /home/leon/git/swp-report/iMX6_Platform_SDK/output/mx6dq/lib/libsdk.a(ccm_pll.o)
hal_delay_us                                      /home/leon/git/swp-report/iMX6_Platform_SDK/output/mx6dq/lib/libsdk.a(timer.o)
hdmi_iomux_config                                 /home/leon/git/swp-report/iMX6_Platform_SDK/output/mx6dq/lib/libboard_evb_rev_a.a(hdmi_iomux_config.o)
                                                  /home/leon/git/swp-report/iMX6_Platform_SDK/output/mx6dq/lib/libboard_evb_rev_a.a(iomux_config.o)
i2c1_iomux_config                                 /home/leon/git/swp-report/iMX6_Platform_SDK/output/mx6dq/lib/libboard_evb_rev_a.a(i2c1_iomux_config.o)
                                                  /home/leon/git/swp-report/iMX6_Platform_SDK/output/mx6dq/lib/libboard_evb_rev_a.a(i2c_iomux_config.o)
                                                  /home/leon/git/swp-report/iMX6_Platform_SDK/output/mx6dq/lib/libboard_evb_rev_a.a(iomux_config.o)
i2c2_iomux_config                                 /home/leon/git/swp-report/iMX6_Platform_SDK/output/mx6dq/lib/libboard_evb_rev_a.a(i2c2_iomux_config.o)
                                                  /home/leon/git/swp-report/iMX6_Platform_SDK/output/mx6dq/lib/libboard_evb_rev_a.a(i2c_iomux_config.o)
                                                  /home/leon/git/swp-report/iMX6_Platform_SDK/output/mx6dq/lib/libboard_evb_rev_a.a(iomux_config.o)
i2c3_iomux_config                                 /home/leon/git/swp-report/iMX6_Platform_SDK/output/mx6dq/lib/libboard_evb_rev_a.a(i2c3_iomux_config.o)
                                                  /home/leon/git/swp-report/iMX6_Platform_SDK/output/mx6dq/lib/libboard_evb_rev_a.a(i2c_iomux_config.o)
                                                  /home/leon/git/swp-report/iMX6_Platform_SDK/output/mx6dq/lib/libboard_evb_rev_a.a(iomux_config.o)
i2c_get_request_instance                          /home/leon/git/swp-report/iMX6_Platform_SDK/output/mx6dq/lib/libsdk.a(imx_i2c.o)
i2c_init                                          /home/leon/git/swp-report/iMX6_Platform_SDK/output/mx6dq/lib/libsdk.a(imx_i2c.o)
                                                  /home/leon/git/swp-report/iMX6_Platform_SDK/output/mx6dq/lib/libsdk.a(max7310.o)
i2c_iomux_config                                  /home/leon/git/swp-report/iMX6_Platform_SDK/output/mx6dq/lib/libboard_evb_rev_a.a(i2c_iomux_config.o)
                                                  /home/leon/git/swp-report/iMX6_Platform_SDK/output/mx6dq/lib/libsdk.a(imx_i2c.o)
i2c_read                                          /home/leon/git/swp-report/iMX6_Platform_SDK/output/mx6dq/lib/libsdk.a(imx_i2c.o)
                                                  /home/leon/git/swp-report/iMX6_Platform_SDK/output/mx6dq/lib/libsdk.a(max7310.o)
i2c_setup_interrupt                               /home/leon/git/swp-report/iMX6_Platform_SDK/output/mx6dq/lib/libsdk.a(imx_i2c.o)
i2c_write                                         /home/leon/git/swp-report/iMX6_Platform_SDK/output/mx6dq/lib/libsdk.a(imx_i2c.o)
                                                  /home/leon/git/swp-report/iMX6_Platform_SDK/output/mx6dq/lib/libsdk.a(max7310.o)
i2c_xfer                                          /home/leon/git/swp-report/iMX6_Platform_SDK/output/mx6dq/lib/libsdk.a(imx_i2c.o)
initPrimes                                        /home/leon/git/swp-report/iMX6_Platform_SDK/output/mx6dq/smp_primes/evb_rev_a/obj/apps/smp_primes/src/primes.o
                                                  /home/leon/git/swp-report/iMX6_Platform_SDK/output/mx6dq/smp_primes/evb_rev_a/obj/apps/smp_primes/src/main.o
input_dcd                                         /home/leon/git/swp-report/iMX6_Platform_SDK/output/mx6dq/lib/libboard_evb_rev_a.a(dcd.o)
input_dcd_hdr                                     /home/leon/git/swp-report/iMX6_Platform_SDK/output/mx6dq/lib/libboard_evb_rev_a.a(dcd.o)
                                                  /home/leon/git/swp-report/iMX6_Platform_SDK/output/mx6dq/smp_primes/evb_rev_a/obj/apps/common/ivt.o
input_dcd_wrt_cmd                                 /home/leon/git/swp-report/iMX6_Platform_SDK/output/mx6dq/lib/libboard_evb_rev_a.a(dcd.o)
input_ivt                                         /home/leon/git/swp-report/iMX6_Platform_SDK/output/mx6dq/smp_primes/evb_rev_a/obj/apps/common/ivt.o
iomux_config                                      /home/leon/git/swp-report/iMX6_Platform_SDK/output/mx6dq/lib/libboard_evb_rev_a.a(iomux_config.o)
ipu1_iomux_config                                 /home/leon/git/swp-report/iMX6_Platform_SDK/output/mx6dq/lib/libboard_evb_rev_a.a(ipu1_iomux_config.o)
                                                  /home/leon/git/swp-report/iMX6_Platform_SDK/output/mx6dq/lib/libboard_evb_rev_a.a(iomux_config.o)
ipu2_iomux_config                                 /home/leon/git/swp-report/iMX6_Platform_SDK/output/mx6dq/lib/libboard_evb_rev_a.a(iomux_config.o)
ipu_hsp_clk_config                                /home/leon/git/swp-report/iMX6_Platform_SDK/output/mx6dq/lib/libsdk.a(ccm_pll.o)
is_color_supported                                /home/leon/git/swp-report/iMX6_Platform_SDK/output/mx6dq/lib/libsdk.a(text_color.o)
is_input_char                                     /home/leon/git/swp-report/iMX6_Platform_SDK/output/mx6dq/lib/libsdk.a(system_util.o)
jump_to_sdp                                       /home/leon/git/swp-report/iMX6_Platform_SDK/output/mx6dq/lib/libsdk.a(system_util.o)
kpp_iomux_config                                  /home/leon/git/swp-report/iMX6_Platform_SDK/output/mx6dq/lib/libboard_evb_rev_a.a(kpp_iomux_config.o)
                                                  /home/leon/git/swp-report/iMX6_Platform_SDK/output/mx6dq/lib/libboard_evb_rev_a.a(iomux_config.o)
ldb_iomux_config                                  /home/leon/git/swp-report/iMX6_Platform_SDK/output/mx6dq/lib/libboard_evb_rev_a.a(iomux_config.o)
localeconv                                        /home/leon/riotboard/arm-2012.09/bin/../arm-none-eabi/lib//libc.a(lib_a-locale.o)
main                                              /home/leon/git/swp-report/iMX6_Platform_SDK/output/mx6dq/smp_primes/evb_rev_a/obj/apps/smp_primes/src/main.o
                                                  /home/leon/git/swp-report/iMX6_Platform_SDK/output/mx6dq/lib/libsdk.a(startup.o)
malloc                                            /home/leon/riotboard/arm-2012.09/bin/../arm-none-eabi/lib//libc.a(lib_a-malloc.o)
                                                  /home/leon/git/swp-report/iMX6_Platform_SDK/output/mx6dq/lib/libsdk.a(system_util.o)
max7310_i2c_req_array                             /home/leon/git/swp-report/iMX6_Platform_SDK/output/mx6dq/lib/libboard_evb_rev_a.a(board_io_expanders.o)
                                                  /home/leon/git/swp-report/iMX6_Platform_SDK/output/mx6dq/lib/libsdk.a(max7310.o)
max7310_init                                      /home/leon/git/swp-report/iMX6_Platform_SDK/output/mx6dq/lib/libsdk.a(max7310.o)
                                                  /home/leon/git/swp-report/iMX6_Platform_SDK/output/mx6dq/lib/libboard_evb_rev_a.a(board_io_expanders.o)
max7310_reg_read                                  /home/leon/git/swp-report/iMX6_Platform_SDK/output/mx6dq/lib/libsdk.a(max7310.o)
max7310_reg_write                                 /home/leon/git/swp-report/iMX6_Platform_SDK/output/mx6dq/lib/libsdk.a(max7310.o)
max7310_set_gpio_output                           /home/leon/git/swp-report/iMX6_Platform_SDK/output/mx6dq/lib/libsdk.a(max7310.o)
memchr                                            /home/leon/riotboard/arm-2012.09/bin/../arm-none-eabi/lib//libc.a(lib_a-memchr.o)
                                                  /home/leon/riotboard/arm-2012.09/bin/../arm-none-eabi/lib//libc.a(lib_a-fvwrite.o)
                                                  /home/leon/riotboard/arm-2012.09/bin/../arm-none-eabi/lib//libc.a(lib_a-vfprintf.o)
                                                  /home/leon/riotboard/arm-2012.09/bin/../arm-none-eabi/lib//libc.a(lib_a-vfiprintf.o)
memcpy                                            /home/leon/riotboard/arm-2012.09/bin/../arm-none-eabi/lib//libc.a(lib_a-memcpy.o)
                                                  /home/leon/riotboard/arm-2012.09/bin/../arm-none-eabi/lib//libc.a(lib_a-mprec.o)
                                                  /home/leon/riotboard/arm-2012.09/bin/../arm-none-eabi/lib//libc.a(lib_a-fvwrite.o)
                                                  /home/leon/riotboard/arm-2012.09/bin/../arm-none-eabi/lib//libc.a(lib_a-dtoa.o)
memmove                                           /home/leon/riotboard/arm-2012.09/bin/../arm-none-eabi/lib//libc.a(lib_a-memmove.o)
                                                  /home/leon/riotboard/arm-2012.09/bin/../arm-none-eabi/lib//libc.a(lib_a-fvwrite.o)
                                                  /home/leon/riotboard/arm-2012.09/bin/../arm-none-eabi/lib//libc.a(lib_a-reallocr.o)
memset                                            /home/leon/riotboard/arm-2012.09/bin/../arm-none-eabi/lib//libc.a(lib_a-memset.o)
                                                  /home/leon/riotboard/arm-2012.09/bin/../arm-none-eabi/lib//libc.a(lib_a-callocr.o)
                                                  /home/leon/riotboard/arm-2012.09/bin/../arm-none-eabi/lib//libc.a(lib_a-findfp.o)
mipi_csi_iomux_config                             /home/leon/git/swp-report/iMX6_Platform_SDK/output/mx6dq/lib/libboard_evb_rev_a.a(iomux_config.o)
mipi_dsi_iomux_config                             /home/leon/git/swp-report/iMX6_Platform_SDK/output/mx6dq/lib/libboard_evb_rev_a.a(iomux_config.o)
mipi_hsi_iomux_config                             /home/leon/git/swp-report/iMX6_Platform_SDK/output/mx6dq/lib/libboard_evb_rev_a.a(iomux_config.o)
mlb_iomux_config                                  /home/leon/git/swp-report/iMX6_Platform_SDK/output/mx6dq/lib/libboard_evb_rev_a.a(mlb_iomux_config.o)
                                                  /home/leon/git/swp-report/iMX6_Platform_SDK/output/mx6dq/lib/libboard_evb_rev_a.a(iomux_config.o)
mmdc_iomux_config                                 /home/leon/git/swp-report/iMX6_Platform_SDK/output/mx6dq/lib/libboard_evb_rev_a.a(mmdc_iomux_config.o)
                                                  /home/leon/git/swp-report/iMX6_Platform_SDK/output/mx6dq/lib/libboard_evb_rev_a.a(iomux_config.o)
mmu_disable                                       /home/leon/git/swp-report/iMX6_Platform_SDK/output/mx6dq/lib/libsdk.a(mmu.o)
mmu_enable                                        /home/leon/git/swp-report/iMX6_Platform_SDK/output/mx6dq/lib/libsdk.a(mmu.o)
mmu_init                                          /home/leon/git/swp-report/iMX6_Platform_SDK/output/mx6dq/lib/libsdk.a(mmu.o)
                                                  /home/leon/git/swp-report/iMX6_Platform_SDK/output/mx6dq/smp_primes/evb_rev_a/obj/apps/common/platform_init.o
mmu_map_l1_range                                  /home/leon/git/swp-report/iMX6_Platform_SDK/output/mx6dq/lib/libsdk.a(mmu.o)
                                                  /home/leon/git/swp-report/iMX6_Platform_SDK/output/mx6dq/smp_primes/evb_rev_a/obj/apps/common/platform_init.o
mmu_virtual_to_physical                           /home/leon/git/swp-report/iMX6_Platform_SDK/output/mx6dq/lib/libsdk.a(mmu.o)
mybkpt                                            /home/leon/git/swp-report/iMX6_Platform_SDK/output/mx6dq/lib/libsdk.a(system_util.o)
next_num_lock                                     /home/leon/git/swp-report/iMX6_Platform_SDK/output/mx6dq/smp_primes/evb_rev_a/obj/apps/smp_primes/src/primes.o
next_number                                       /home/leon/git/swp-report/iMX6_Platform_SDK/output/mx6dq/smp_primes/evb_rev_a/obj/apps/smp_primes/src/primes.o
pcie_iomux_config                                 /home/leon/git/swp-report/iMX6_Platform_SDK/output/mx6dq/lib/libboard_evb_rev_a.a(iomux_config.o)
platform_init                                     /home/leon/git/swp-report/iMX6_Platform_SDK/output/mx6dq/smp_primes/evb_rev_a/obj/apps/common/platform_init.o
                                                  /home/leon/git/swp-report/iMX6_Platform_SDK/output/mx6dq/smp_primes/evb_rev_a/obj/apps/smp_primes/src/main.o
pmu_iomux_config                                  /home/leon/git/swp-report/iMX6_Platform_SDK/output/mx6dq/lib/libboard_evb_rev_a.a(iomux_config.o)
prefetch_abort_handler                            /home/leon/git/swp-report/iMX6_Platform_SDK/output/mx6dq/lib/libsdk.a(arm_abort.o)
                                                  /home/leon/git/swp-report/iMX6_Platform_SDK/output/mx6dq/lib/libsdk.a(vectors.o)
prime_count                                       /home/leon/git/swp-report/iMX6_Platform_SDK/output/mx6dq/smp_primes/evb_rev_a/obj/apps/smp_primes/src/primes.o
prime_lock                                        /home/leon/git/swp-report/iMX6_Platform_SDK/output/mx6dq/smp_primes/evb_rev_a/obj/apps/smp_primes/src/primes.o
                                                  /home/leon/git/swp-report/iMX6_Platform_SDK/output/mx6dq/smp_primes/evb_rev_a/obj/apps/smp_primes/src/main.o
prime_numbers                                     /home/leon/git/swp-report/iMX6_Platform_SDK/output/mx6dq/smp_primes/evb_rev_a/obj/apps/smp_primes/src/primes.o
printf                                            /home/leon/riotboard/arm-2012.09/bin/../arm-none-eabi/lib//libc.a(lib_a-printf.o)
                                                  /home/leon/git/swp-report/iMX6_Platform_SDK/output/mx6dq/lib/libsdk.a(abort_handler.o)
                                                  /home/leon/git/swp-report/iMX6_Platform_SDK/output/mx6dq/lib/libsdk.a(interrupt.o)
                                                  /home/leon/git/swp-report/iMX6_Platform_SDK/output/mx6dq/lib/libsdk.a(text_color.o)
                                                  /home/leon/git/swp-report/iMX6_Platform_SDK/output/mx6dq/lib/libsdk.a(system_util.o)
                                                  /home/leon/git/swp-report/iMX6_Platform_SDK/output/mx6dq/smp_primes/evb_rev_a/obj/apps/smp_primes/src/primes.o
                                                  /home/leon/git/swp-report/iMX6_Platform_SDK/output/mx6dq/smp_primes/evb_rev_a/obj/apps/smp_primes/src/main.o
printf_color                                      /home/leon/git/swp-report/iMX6_Platform_SDK/output/mx6dq/lib/libsdk.a(text_color.o)
                                                  /home/leon/git/swp-report/iMX6_Platform_SDK/output/mx6dq/lib/libsdk.a(system_util.o)
putc                                              /home/leon/riotboard/arm-2012.09/bin/../arm-none-eabi/lib//libc.a(lib_a-putc.o)
pwm1_iomux_config                                 /home/leon/git/swp-report/iMX6_Platform_SDK/output/mx6dq/lib/libboard_evb_rev_a.a(pwm1_iomux_config.o)
                                                  /home/leon/git/swp-report/iMX6_Platform_SDK/output/mx6dq/lib/libboard_evb_rev_a.a(iomux_config.o)
pwm2_iomux_config                                 /home/leon/git/swp-report/iMX6_Platform_SDK/output/mx6dq/lib/libboard_evb_rev_a.a(iomux_config.o)
pwm3_iomux_config                                 /home/leon/git/swp-report/iMX6_Platform_SDK/output/mx6dq/lib/libboard_evb_rev_a.a(iomux_config.o)
pwm4_iomux_config                                 /home/leon/git/swp-report/iMX6_Platform_SDK/output/mx6dq/lib/libboard_evb_rev_a.a(iomux_config.o)
raise                                             /home/leon/riotboard/arm-2012.09/bin/../arm-none-eabi/lib//libc.a(lib_a-signal.o)
                                                  /home/leon/riotboard/arm-2012.09/bin/../arm-none-eabi/lib//libc.a(lib_a-abort.o)
read_input_string                                 /home/leon/git/swp-report/iMX6_Platform_SDK/output/mx6dq/lib/libsdk.a(system_util.o)
read_int                                          /home/leon/git/swp-report/iMX6_Platform_SDK/output/mx6dq/lib/libsdk.a(system_util.o)
realloc                                           /home/leon/riotboard/arm-2012.09/bin/../arm-none-eabi/lib//libc.a(lib_a-realloc.o)
                                                  /home/leon/git/swp-report/iMX6_Platform_SDK/output/mx6dq/lib/libsdk.a(system_util.o)
register_interrupt_routine                        /home/leon/git/swp-report/iMX6_Platform_SDK/output/mx6dq/lib/libsdk.a(interrupt.o)
                                                  /home/leon/git/swp-report/iMX6_Platform_SDK/output/mx6dq/lib/libsdk.a(imx_i2c.o)
                                                  /home/leon/git/swp-report/iMX6_Platform_SDK/output/mx6dq/lib/libsdk.a(epit.o)
                                                  /home/leon/git/swp-report/iMX6_Platform_SDK/output/mx6dq/lib/libsdk.a(imx_uart.o)
sata_phy_iomux_config                             /home/leon/git/swp-report/iMX6_Platform_SDK/output/mx6dq/lib/libboard_evb_rev_a.a(iomux_config.o)
scu_disable_maintenance_broadcast                 /home/leon/git/swp-report/iMX6_Platform_SDK/output/mx6dq/lib/libsdk.a(cortexA9.o)
scu_enable                                        /home/leon/git/swp-report/iMX6_Platform_SDK/output/mx6dq/lib/libsdk.a(cortexA9.o)
                                                  /home/leon/git/swp-report/iMX6_Platform_SDK/output/mx6dq/smp_primes/evb_rev_a/obj/apps/smp_primes/src/main.o
scu_enable_maintenance_broadcast                  /home/leon/git/swp-report/iMX6_Platform_SDK/output/mx6dq/lib/libsdk.a(cortexA9.o)
                                                  /home/leon/git/swp-report/iMX6_Platform_SDK/output/mx6dq/smp_primes/evb_rev_a/obj/apps/smp_primes/src/main.o
scu_get_cpus_in_smp                               /home/leon/git/swp-report/iMX6_Platform_SDK/output/mx6dq/lib/libsdk.a(cortexA9.o)
scu_join_smp                                      /home/leon/git/swp-report/iMX6_Platform_SDK/output/mx6dq/lib/libsdk.a(cortexA9.o)
                                                  /home/leon/git/swp-report/iMX6_Platform_SDK/output/mx6dq/smp_primes/evb_rev_a/obj/apps/smp_primes/src/main.o
scu_leave_smp                                     /home/leon/git/swp-report/iMX6_Platform_SDK/output/mx6dq/lib/libsdk.a(cortexA9.o)
scu_secure_invalidate                             /home/leon/git/swp-report/iMX6_Platform_SDK/output/mx6dq/lib/libsdk.a(cortexA9.o)
                                                  /home/leon/git/swp-report/iMX6_Platform_SDK/output/mx6dq/smp_primes/evb_rev_a/obj/apps/smp_primes/src/main.o
sdma_iomux_config                                 /home/leon/git/swp-report/iMX6_Platform_SDK/output/mx6dq/lib/libboard_evb_rev_a.a(iomux_config.o)
setlocale                                         /home/leon/riotboard/arm-2012.09/bin/../arm-none-eabi/lib//libc.a(lib_a-locale.o)
signal                                            /home/leon/riotboard/arm-2012.09/bin/../arm-none-eabi/lib//libc.a(lib_a-signal.o)
sjc_iomux_config                                  /home/leon/git/swp-report/iMX6_Platform_SDK/output/mx6dq/lib/libboard_evb_rev_a.a(sjc_iomux_config.o)
                                                  /home/leon/git/swp-report/iMX6_Platform_SDK/output/mx6dq/lib/libboard_evb_rev_a.a(iomux_config.o)
smp_primes                                        /home/leon/git/swp-report/iMX6_Platform_SDK/output/mx6dq/smp_primes/evb_rev_a/obj/apps/smp_primes/src/main.o
snvs_iomux_config                                 /home/leon/git/swp-report/iMX6_Platform_SDK/output/mx6dq/lib/libboard_evb_rev_a.a(iomux_config.o)
spdif_iomux_config                                /home/leon/git/swp-report/iMX6_Platform_SDK/output/mx6dq/lib/libboard_evb_rev_a.a(spdif_iomux_config.o)
                                                  /home/leon/git/swp-report/iMX6_Platform_SDK/output/mx6dq/lib/libboard_evb_rev_a.a(iomux_config.o)
spinlock_init                                     /home/leon/git/swp-report/iMX6_Platform_SDK/output/mx6dq/lib/libsdk.a(spinlock.o)
                                                  /home/leon/git/swp-report/iMX6_Platform_SDK/output/mx6dq/smp_primes/evb_rev_a/obj/apps/smp_primes/src/primes.o
                                                  /home/leon/git/swp-report/iMX6_Platform_SDK/output/mx6dq/smp_primes/evb_rev_a/obj/apps/smp_primes/src/main.o
spinlock_is_locked                                /home/leon/git/swp-report/iMX6_Platform_SDK/output/mx6dq/lib/libsdk.a(spinlock.o)
spinlock_lock                                     /home/leon/git/swp-report/iMX6_Platform_SDK/output/mx6dq/lib/libsdk.a(spinlock_lock_unlock.o)
                                                  /home/leon/git/swp-report/iMX6_Platform_SDK/output/mx6dq/smp_primes/evb_rev_a/obj/apps/smp_primes/src/primes.o
                                                  /home/leon/git/swp-report/iMX6_Platform_SDK/output/mx6dq/smp_primes/evb_rev_a/obj/apps/smp_primes/src/main.o
spinlock_unlock                                   /home/leon/git/swp-report/iMX6_Platform_SDK/output/mx6dq/lib/libsdk.a(spinlock_lock_unlock.o)
                                                  /home/leon/git/swp-report/iMX6_Platform_SDK/output/mx6dq/smp_primes/evb_rev_a/obj/apps/smp_primes/src/primes.o
                                                  /home/leon/git/swp-report/iMX6_Platform_SDK/output/mx6dq/smp_primes/evb_rev_a/obj/apps/smp_primes/src/main.o
src_iomux_config                                  /home/leon/git/swp-report/iMX6_Platform_SDK/output/mx6dq/lib/libboard_evb_rev_a.a(iomux_config.o)
strcmp                                            /home/leon/riotboard/arm-2012.09/bin/../arm-none-eabi/lib//libc.a(lib_a-strcmp.o)
                                                  /home/leon/riotboard/arm-2012.09/bin/../arm-none-eabi/lib//libc.a(lib_a-locale.o)
strlen                                            /home/leon/riotboard/arm-2012.09/bin/../arm-none-eabi/lib//libc.a(lib_a-strlen.o)
                                                  /home/leon/git/swp-report/iMX6_Platform_SDK/output/mx6dq/lib/libsdk.a(runtime_support.o)
                                                  /home/leon/riotboard/arm-2012.09/bin/../arm-none-eabi/lib//libc.a(lib_a-vfprintf.o)
                                                  /home/leon/riotboard/arm-2012.09/bin/../arm-none-eabi/lib//libc.a(lib_a-vfiprintf.o)
system_time_init                                  /home/leon/git/swp-report/iMX6_Platform_SDK/output/mx6dq/lib/libsdk.a(timer.o)
                                                  /home/leon/git/swp-report/iMX6_Platform_SDK/output/mx6dq/smp_primes/evb_rev_a/obj/apps/common/platform_init.o
target_count                                      /home/leon/git/swp-report/iMX6_Platform_SDK/output/mx6dq/smp_primes/evb_rev_a/obj/apps/smp_primes/src/primes.o
time_get_microseconds                             /home/leon/git/swp-report/iMX6_Platform_SDK/output/mx6dq/lib/libsdk.a(timer.o)
                                                  /home/leon/git/swp-report/iMX6_Platform_SDK/output/mx6dq/lib/libsdk.a(runtime_support.o)
                                                  /home/leon/git/swp-report/iMX6_Platform_SDK/output/mx6dq/smp_primes/evb_rev_a/obj/apps/smp_primes/src/main.o
top_of_stacks                                     /home/leon/git/swp-report/iMX6_Platform_SDK/output/mx6dq/lib/libsdk.a(startup.o)
uart1_iomux_config                                /home/leon/git/swp-report/iMX6_Platform_SDK/output/mx6dq/lib/libboard_evb_rev_a.a(iomux_config.o)
                                                  /home/leon/git/swp-report/iMX6_Platform_SDK/output/mx6dq/lib/libboard_evb_rev_a.a(uart_iomux_config.o)
uart2_iomux_config                                /home/leon/git/swp-report/iMX6_Platform_SDK/output/mx6dq/lib/libboard_evb_rev_a.a(uart2_iomux_config.o)
                                                  /home/leon/git/swp-report/iMX6_Platform_SDK/output/mx6dq/lib/libboard_evb_rev_a.a(iomux_config.o)
                                                  /home/leon/git/swp-report/iMX6_Platform_SDK/output/mx6dq/lib/libboard_evb_rev_a.a(uart_iomux_config.o)
uart3_iomux_config                                /home/leon/git/swp-report/iMX6_Platform_SDK/output/mx6dq/lib/libboard_evb_rev_a.a(iomux_config.o)
                                                  /home/leon/git/swp-report/iMX6_Platform_SDK/output/mx6dq/lib/libboard_evb_rev_a.a(uart_iomux_config.o)
uart4_iomux_config                                /home/leon/git/swp-report/iMX6_Platform_SDK/output/mx6dq/lib/libboard_evb_rev_a.a(uart4_iomux_config.o)
                                                  /home/leon/git/swp-report/iMX6_Platform_SDK/output/mx6dq/lib/libboard_evb_rev_a.a(iomux_config.o)
                                                  /home/leon/git/swp-report/iMX6_Platform_SDK/output/mx6dq/lib/libboard_evb_rev_a.a(uart_iomux_config.o)
uart5_iomux_config                                /home/leon/git/swp-report/iMX6_Platform_SDK/output/mx6dq/lib/libboard_evb_rev_a.a(iomux_config.o)
                                                  /home/leon/git/swp-report/iMX6_Platform_SDK/output/mx6dq/lib/libboard_evb_rev_a.a(uart_iomux_config.o)
uart_get_reffreq                                  /home/leon/git/swp-report/iMX6_Platform_SDK/output/mx6dq/lib/libsdk.a(imx_uart.o)
uart_getchar                                      /home/leon/git/swp-report/iMX6_Platform_SDK/output/mx6dq/lib/libsdk.a(imx_uart.o)
                                                  /home/leon/git/swp-report/iMX6_Platform_SDK/output/mx6dq/lib/libsdk.a(runtime_support.o)
                                                  /home/leon/git/swp-report/iMX6_Platform_SDK/output/mx6dq/lib/libsdk.a(system_util.o)
                                                  /home/leon/git/swp-report/iMX6_Platform_SDK/output/mx6dq/smp_primes/evb_rev_a/obj/apps/common/platform_init.o
uart_init                                         /home/leon/git/swp-report/iMX6_Platform_SDK/output/mx6dq/lib/libsdk.a(imx_uart.o)
                                                  /home/leon/git/swp-report/iMX6_Platform_SDK/output/mx6dq/smp_primes/evb_rev_a/obj/apps/common/platform_init.o
uart_iomux_config                                 /home/leon/git/swp-report/iMX6_Platform_SDK/output/mx6dq/lib/libboard_evb_rev_a.a(uart_iomux_config.o)
                                                  /home/leon/git/swp-report/iMX6_Platform_SDK/output/mx6dq/lib/libsdk.a(imx_uart.o)
uart_putchar                                      /home/leon/git/swp-report/iMX6_Platform_SDK/output/mx6dq/lib/libsdk.a(imx_uart.o)
                                                  /home/leon/git/swp-report/iMX6_Platform_SDK/output/mx6dq/lib/libsdk.a(runtime_support.o)
uart_set_FIFO_mode                                /home/leon/git/swp-report/iMX6_Platform_SDK/output/mx6dq/lib/libsdk.a(imx_uart.o)
uart_set_loopback_mode                            /home/leon/git/swp-report/iMX6_Platform_SDK/output/mx6dq/lib/libsdk.a(imx_uart.o)
uart_setup_interrupt                              /home/leon/git/swp-report/iMX6_Platform_SDK/output/mx6dq/lib/libsdk.a(imx_uart.o)
usb_iomux_config                                  /home/leon/git/swp-report/iMX6_Platform_SDK/output/mx6dq/lib/libboard_evb_rev_a.a(usb_iomux_config.o)
                                                  /home/leon/git/swp-report/iMX6_Platform_SDK/output/mx6dq/lib/libboard_evb_rev_a.a(iomux_config.o)
usdhc1_iomux_config                               /home/leon/git/swp-report/iMX6_Platform_SDK/output/mx6dq/lib/libboard_evb_rev_a.a(usdhc1_iomux_config.o)
                                                  /home/leon/git/swp-report/iMX6_Platform_SDK/output/mx6dq/lib/libboard_evb_rev_a.a(iomux_config.o)
usdhc2_iomux_config                               /home/leon/git/swp-report/iMX6_Platform_SDK/output/mx6dq/lib/libboard_evb_rev_a.a(usdhc2_iomux_config.o)
                                                  /home/leon/git/swp-report/iMX6_Platform_SDK/output/mx6dq/lib/libboard_evb_rev_a.a(iomux_config.o)
usdhc3_iomux_config                               /home/leon/git/swp-report/iMX6_Platform_SDK/output/mx6dq/lib/libboard_evb_rev_a.a(usdhc3_iomux_config.o)
                                                  /home/leon/git/swp-report/iMX6_Platform_SDK/output/mx6dq/lib/libboard_evb_rev_a.a(iomux_config.o)
usdhc4_iomux_config                               /home/leon/git/swp-report/iMX6_Platform_SDK/output/mx6dq/lib/libboard_evb_rev_a.a(usdhc4_iomux_config.o)
                                                  /home/leon/git/swp-report/iMX6_Platform_SDK/output/mx6dq/lib/libboard_evb_rev_a.a(iomux_config.o)
vectors                                           /home/leon/git/swp-report/iMX6_Platform_SDK/output/mx6dq/lib/libsdk.a(vectors.o)
                                                  /home/leon/git/swp-report/iMX6_Platform_SDK/output/mx6dq/lib/libsdk.a(startup.o)
vfiprintf                                         /home/leon/riotboard/arm-2012.09/bin/../arm-none-eabi/lib//libc.a(lib_a-vfiprintf.o)
vfprintf                                          /home/leon/riotboard/arm-2012.09/bin/../arm-none-eabi/lib//libc.a(lib_a-vfprintf.o)
vprintf                                           /home/leon/riotboard/arm-2012.09/bin/../arm-none-eabi/lib//libc.a(lib_a-vprintf.o)
                                                  /home/leon/git/swp-report/iMX6_Platform_SDK/output/mx6dq/lib/libsdk.a(imx_i2c.o)
                                                  /home/leon/git/swp-report/iMX6_Platform_SDK/output/mx6dq/lib/libsdk.a(text_color.o)
wcrtomb                                           /home/leon/riotboard/arm-2012.09/bin/../arm-none-eabi/lib//libc.a(lib_a-wcrtomb.o)
wdog1_iomux_config                                /home/leon/git/swp-report/iMX6_Platform_SDK/output/mx6dq/lib/libboard_evb_rev_a.a(iomux_config.o)
wdog2_iomux_config                                /home/leon/git/swp-report/iMX6_Platform_SDK/output/mx6dq/lib/libboard_evb_rev_a.a(iomux_config.o)
xtalosc_iomux_config                              /home/leon/git/swp-report/iMX6_Platform_SDK/output/mx6dq/lib/libboard_evb_rev_a.a(iomux_config.o)
