Archive member included because of file (symbol)

/home/leon/git/swp-report/iMX6_Platform_SDK/output/mx6sl/lib/libsdk.a(ccm_pll.o)
                              /home/leon/git/swp-report/iMX6_Platform_SDK/output/mx6sl/obds/evk_rev_a/obj/apps/common/platform_init.o (ccm_init)
/home/leon/git/swp-report/iMX6_Platform_SDK/output/mx6sl/lib/libsdk.a(cortexA9.o)
                              /home/leon/git/swp-report/iMX6_Platform_SDK/output/mx6sl/obds/evk_rev_a/obj/apps/common/platform_init.o (arm_set_interrupt_state)
/home/leon/git/swp-report/iMX6_Platform_SDK/output/mx6sl/lib/libsdk.a(gic.o)
                              /home/leon/git/swp-report/iMX6_Platform_SDK/output/mx6sl/obds/evk_rev_a/obj/apps/common/platform_init.o (gic_init)
/home/leon/git/swp-report/iMX6_Platform_SDK/output/mx6sl/lib/libsdk.a(mmu.o)
                              /home/leon/git/swp-report/iMX6_Platform_SDK/output/mx6sl/obds/evk_rev_a/obj/apps/common/platform_init.o (mmu_init)
/home/leon/git/swp-report/iMX6_Platform_SDK/output/mx6sl/lib/libsdk.a(startup.o)
                              (_start)
/home/leon/git/swp-report/iMX6_Platform_SDK/output/mx6sl/lib/libsdk.a(vectors.o)
                              /home/leon/git/swp-report/iMX6_Platform_SDK/output/mx6sl/lib/libsdk.a(startup.o) (vectors)
/home/leon/git/swp-report/iMX6_Platform_SDK/output/mx6sl/lib/libsdk.a(menu.o)
                              /home/leon/git/swp-report/iMX6_Platform_SDK/output/mx6sl/obds/evk_rev_a/obj/apps/obds/src/obds.o (menu_get_indent)
/home/leon/git/swp-report/iMX6_Platform_SDK/output/mx6sl/lib/libsdk.a(sdk_version.o)
                              /home/leon/git/swp-report/iMX6_Platform_SDK/output/mx6sl/obds/evk_rev_a/obj/apps/common/print_version.o (k_sdk_version)
/home/leon/git/swp-report/iMX6_Platform_SDK/output/mx6sl/lib/libsdk.a(system_util.o)
                              /home/leon/git/swp-report/iMX6_Platform_SDK/output/mx6sl/lib/libsdk.a(startup.o) (_sys_exit)
/home/leon/git/swp-report/iMX6_Platform_SDK/output/mx6sl/lib/libsdk.a(text_color.o)
                              /home/leon/git/swp-report/iMX6_Platform_SDK/output/mx6sl/obds/evk_rev_a/obj/apps/obds/src/obds.o (g_TextAttributeDefault)
/home/leon/git/swp-report/iMX6_Platform_SDK/output/mx6sl/lib/libsdk.a(imx-ssi.o)
                              /home/leon/git/swp-report/iMX6_Platform_SDK/output/mx6sl/obds/evk_rev_a/obj/sdk/drivers/audio/src/snd_card.o (imx_ssi_2)
/home/leon/git/swp-report/iMX6_Platform_SDK/output/mx6sl/lib/libsdk.a(imx_audmux.o)
                              /home/leon/git/swp-report/iMX6_Platform_SDK/output/mx6sl/obds/evk_rev_a/obj/apps/obds/src/tests/audio_ssi_test.o (audmux_route)
/home/leon/git/swp-report/iMX6_Platform_SDK/output/mx6sl/lib/libsdk.a(imx_spdif.o)
                              /home/leon/git/swp-report/iMX6_Platform_SDK/output/mx6sl/obds/evk_rev_a/obj/sdk/drivers/audio/src/snd_card.o (imx_spdif)
/home/leon/git/swp-report/iMX6_Platform_SDK/output/mx6sl/lib/libsdk.a(wm8962.o)
                              /home/leon/git/swp-report/iMX6_Platform_SDK/output/mx6sl/obds/evk_rev_a/obj/sdk/drivers/audio/src/snd_card.o (wm8962)
/home/leon/git/swp-report/iMX6_Platform_SDK/output/mx6sl/lib/libsdk.a(board_id.o)
                              /home/leon/git/swp-report/iMX6_Platform_SDK/output/mx6sl/obds/evk_rev_a/obj/apps/common/print_version.o (chip_name)
/home/leon/git/swp-report/iMX6_Platform_SDK/output/mx6sl/lib/libsdk.a(csi_drv.o)
                              /home/leon/git/swp-report/iMX6_Platform_SDK/output/mx6sl/obds/evk_rev_a/obj/sdk/drivers/camera/test/csi_sensor_capture.o (csi_setup)
/home/leon/git/swp-report/iMX6_Platform_SDK/output/mx6sl/lib/libsdk.a(smd_sensor.o)
                              /home/leon/git/swp-report/iMX6_Platform_SDK/output/mx6sl/obds/evk_rev_a/obj/sdk/drivers/camera/test/csi_sensor_capture.o (sensor_config)
/home/leon/git/swp-report/iMX6_Platform_SDK/output/mx6sl/lib/libsdk.a(mxc_epdc.o)
                              /home/leon/git/swp-report/iMX6_Platform_SDK/output/mx6sl/obds/evk_rev_a/obj/sdk/drivers/epdc/test/epdc_test.o (epdc_reset)
/home/leon/git/swp-report/iMX6_Platform_SDK/output/mx6sl/lib/libsdk.a(fec_drv.o)
                              /home/leon/git/swp-report/iMX6_Platform_SDK/output/mx6sl/obds/evk_rev_a/obj/sdk/drivers/fec/test/fec_test.o (imx_fec_phy_init)
/home/leon/git/swp-report/iMX6_Platform_SDK/output/mx6sl/lib/libsdk.a(gpio.o)
                              /home/leon/git/swp-report/iMX6_Platform_SDK/output/mx6sl/obds/evk_rev_a/obj/apps/obds/src/tests/gpio_led.o (gpio_set_direction)
/home/leon/git/swp-report/iMX6_Platform_SDK/output/mx6sl/lib/libsdk.a(imx6sl_gpio_map.o)
                              /home/leon/git/swp-report/iMX6_Platform_SDK/output/mx6sl/lib/libsdk.a(gpio.o) (k_gpio_mux_registers)
/home/leon/git/swp-report/iMX6_Platform_SDK/output/mx6sl/lib/libsdk.a(imx_i2c.o)
                              /home/leon/git/swp-report/iMX6_Platform_SDK/output/mx6sl/obds/evk_rev_a/obj/apps/obds/src/tests/i2c_check_light_sensor_isl29023.o (i2c_xfer)
/home/leon/git/swp-report/iMX6_Platform_SDK/output/mx6sl/lib/libsdk.a(lcdif_drv.o)
                              /home/leon/git/swp-report/iMX6_Platform_SDK/output/mx6sl/obds/evk_rev_a/obj/sdk/drivers/camera/test/csi_sensor_capture.o (lcdif_display_setup)
/home/leon/git/swp-report/iMX6_Platform_SDK/output/mx6sl/lib/libsdk.a(pxp_drv.o)
                              /home/leon/git/swp-report/iMX6_Platform_SDK/output/mx6sl/obds/evk_rev_a/obj/sdk/drivers/camera/test/csi_sensor_capture.o (pxp_disable)
/home/leon/git/swp-report/iMX6_Platform_SDK/output/mx6sl/lib/libsdk.a(ocotp.o)
                              /home/leon/git/swp-report/iMX6_Platform_SDK/output/mx6sl/obds/evk_rev_a/obj/apps/obds/src/tests/program_board_id.o (ocotp_sense_fuse)
/home/leon/git/swp-report/iMX6_Platform_SDK/output/mx6sl/lib/libsdk.a(ecspi.o)
                              /home/leon/git/swp-report/iMX6_Platform_SDK/output/mx6sl/obds/evk_rev_a/obj/apps/obds/src/tests/imx_spi_nor_test.o (ecspi_open)
/home/leon/git/swp-report/iMX6_Platform_SDK/output/mx6sl/lib/libsdk.a(timer.o)
                              /home/leon/git/swp-report/iMX6_Platform_SDK/output/mx6sl/obds/evk_rev_a/obj/apps/obds/src/tests/gpio_led.o (hal_delay_us)
/home/leon/git/swp-report/iMX6_Platform_SDK/output/mx6sl/lib/libsdk.a(imx_uart.o)
                              /home/leon/git/swp-report/iMX6_Platform_SDK/output/mx6sl/obds/evk_rev_a/obj/sdk/drivers/uart/test/uart_test.o (uart_putchar)
/home/leon/git/swp-report/iMX6_Platform_SDK/output/mx6sl/lib/libsdk.a(usb_common.o)
                              /home/leon/git/swp-report/iMX6_Platform_SDK/output/mx6sl/obds/evk_rev_a/obj/apps/obds/src/tests/usb_tests_obds.o (usb_get_port_speed)
/home/leon/git/swp-report/iMX6_Platform_SDK/output/mx6sl/lib/libsdk.a(usbh_drv.o)
                              /home/leon/git/swp-report/iMX6_Platform_SDK/output/mx6sl/obds/evk_rev_a/obj/apps/obds/src/tests/usb_tests_obds.o (usbh_init)
/home/leon/git/swp-report/iMX6_Platform_SDK/output/mx6sl/lib/libsdk.a(usdhc.o)
                              /home/leon/git/swp-report/iMX6_Platform_SDK/output/mx6sl/obds/evk_rev_a/obj/apps/obds/src/tests/mmcsd_test.o (card_detect_test_en)
/home/leon/git/swp-report/iMX6_Platform_SDK/output/mx6sl/lib/libsdk.a(usdhc_host.o)
                              /home/leon/git/swp-report/iMX6_Platform_SDK/output/mx6sl/lib/libsdk.a(usdhc.o) (usdhc1_isr)
/home/leon/git/swp-report/iMX6_Platform_SDK/output/mx6sl/lib/libsdk.a(usdhc_mmc.o)
                              /home/leon/git/swp-report/iMX6_Platform_SDK/output/mx6sl/lib/libsdk.a(usdhc.o) (mmc_init)
/home/leon/git/swp-report/iMX6_Platform_SDK/output/mx6sl/lib/libsdk.a(usdhc_sd.o)
                              /home/leon/git/swp-report/iMX6_Platform_SDK/output/mx6sl/lib/libsdk.a(usdhc.o) (sd_init)
/home/leon/git/swp-report/iMX6_Platform_SDK/output/mx6sl/lib/libsdk.a(arm_abort.o)
                              /home/leon/git/swp-report/iMX6_Platform_SDK/output/mx6sl/lib/libsdk.a(vectors.o) (data_abort_handler)
/home/leon/git/swp-report/iMX6_Platform_SDK/output/mx6sl/lib/libsdk.a(armv7_cache.o)
                              /home/leon/git/swp-report/iMX6_Platform_SDK/output/mx6sl/lib/libsdk.a(usdhc.o) (arm_dcache_state_query)
/home/leon/git/swp-report/iMX6_Platform_SDK/output/mx6sl/lib/libsdk.a(interrupt.o)
                              /home/leon/git/swp-report/iMX6_Platform_SDK/output/mx6sl/lib/libsdk.a(vectors.o) (IRQ_HDLR)
/home/leon/git/swp-report/iMX6_Platform_SDK/output/mx6sl/lib/libsdk.a(camera_profile.o)
                              /home/leon/git/swp-report/iMX6_Platform_SDK/output/mx6sl/lib/libsdk.a(smd_sensor.o) (g_camera_profiles)
/home/leon/git/swp-report/iMX6_Platform_SDK/output/mx6sl/lib/libsdk.a(epit.o)
                              /home/leon/git/swp-report/iMX6_Platform_SDK/output/mx6sl/lib/libsdk.a(timer.o) (epit_get_compare_event)
/home/leon/git/swp-report/iMX6_Platform_SDK/output/mx6sl/lib/libsdk.a(mx6x_usb.o)
                              /home/leon/git/swp-report/iMX6_Platform_SDK/output/mx6sl/lib/libsdk.a(usbh_drv.o) (usbEnableClocks)
/home/leon/git/swp-report/iMX6_Platform_SDK/output/mx6sl/lib/libsdk.a(abort_handler.o)
                              /home/leon/git/swp-report/iMX6_Platform_SDK/output/mx6sl/lib/libsdk.a(arm_abort.o) (dump_regs)
/home/leon/git/swp-report/iMX6_Platform_SDK/output/mx6sl/lib/libboard_evk_rev_a.a(board_audio.o)
                              /home/leon/git/swp-report/iMX6_Platform_SDK/output/mx6sl/lib/libsdk.a(imx_spdif.o) (spdif_get_tx_clk_freq)
/home/leon/git/swp-report/iMX6_Platform_SDK/output/mx6sl/lib/libboard_evk_rev_a.a(board_camera.o)
                              /home/leon/git/swp-report/iMX6_Platform_SDK/output/mx6sl/lib/libsdk.a(smd_sensor.o) (g_camera_i2c_port)
/home/leon/git/swp-report/iMX6_Platform_SDK/output/mx6sl/lib/libboard_evk_rev_a.a(board_display.o)
                              /home/leon/git/swp-report/iMX6_Platform_SDK/output/mx6sl/lib/libsdk.a(lcdif_drv.o) (lcdif_power_on)
/home/leon/git/swp-report/iMX6_Platform_SDK/output/mx6sl/lib/libboard_evk_rev_a.a(board_i2c.o)
                              /home/leon/git/swp-report/iMX6_Platform_SDK/output/mx6sl/lib/libsdk.a(wm8962.o) (g_wm8962_i2c_device)
/home/leon/git/swp-report/iMX6_Platform_SDK/output/mx6sl/lib/libboard_evk_rev_a.a(board_io_expanders.o)
                              /home/leon/git/swp-report/iMX6_Platform_SDK/output/mx6sl/obds/evk_rev_a/obj/apps/common/platform_init.o (board_ioexpander_init)
/home/leon/git/swp-report/iMX6_Platform_SDK/output/mx6sl/lib/libboard_evk_rev_a.a(board_usb.o)
                              /home/leon/git/swp-report/iMX6_Platform_SDK/output/mx6sl/lib/libsdk.a(usbh_drv.o) (usbEnableVbus)
/home/leon/git/swp-report/iMX6_Platform_SDK/output/mx6sl/lib/libboard_evk_rev_a.a(board_usdhc.o)
                              /home/leon/git/swp-report/iMX6_Platform_SDK/output/mx6sl/lib/libsdk.a(usdhc_host.o) (usdhc_gpio_config)
/home/leon/git/swp-report/iMX6_Platform_SDK/output/mx6sl/lib/libboard_evk_rev_a.a(dcd.o)
                              /home/leon/git/swp-report/iMX6_Platform_SDK/output/mx6sl/obds/evk_rev_a/obj/apps/common/ivt.o (input_dcd_hdr)
/home/leon/git/swp-report/iMX6_Platform_SDK/output/mx6sl/lib/libboard_evk_rev_a.a(audmux_iomux_config.o)
                              /home/leon/git/swp-report/iMX6_Platform_SDK/output/mx6sl/lib/libsdk.a(imx-ssi.o) (audmux_iomux_config)
/home/leon/git/swp-report/iMX6_Platform_SDK/output/mx6sl/lib/libboard_evk_rev_a.a(hardware_modules.o)
                              /home/leon/git/swp-report/iMX6_Platform_SDK/output/mx6sl/obds/evk_rev_a/obj/apps/common/platform_init.o (g_debug_uart_port)
/home/leon/git/swp-report/iMX6_Platform_SDK/output/mx6sl/lib/libboard_evk_rev_a.a(csi_iomux_config.o)
                              /home/leon/git/swp-report/iMX6_Platform_SDK/output/mx6sl/lib/libsdk.a(smd_sensor.o) (csi_iomux_config)
/home/leon/git/swp-report/iMX6_Platform_SDK/output/mx6sl/lib/libboard_evk_rev_a.a(ecspi_iomux_config.o)
                              /home/leon/git/swp-report/iMX6_Platform_SDK/output/mx6sl/lib/libsdk.a(ecspi.o) (ecspi_iomux_config)
/home/leon/git/swp-report/iMX6_Platform_SDK/output/mx6sl/lib/libboard_evk_rev_a.a(epdc_iomux_config.o)
                              /home/leon/git/swp-report/iMX6_Platform_SDK/output/mx6sl/obds/evk_rev_a/obj/sdk/drivers/epdc/test/epdc_test.o (epdc_iomux_config)
/home/leon/git/swp-report/iMX6_Platform_SDK/output/mx6sl/lib/libboard_evk_rev_a.a(fec_iomux_config.o)
                              /home/leon/git/swp-report/iMX6_Platform_SDK/output/mx6sl/obds/evk_rev_a/obj/sdk/drivers/fec/test/fec_test.o (fec_iomux_config)
/home/leon/git/swp-report/iMX6_Platform_SDK/output/mx6sl/lib/libboard_evk_rev_a.a(i2c_iomux_config.o)
                              /home/leon/git/swp-report/iMX6_Platform_SDK/output/mx6sl/lib/libsdk.a(imx_i2c.o) (i2c_iomux_config)
/home/leon/git/swp-report/iMX6_Platform_SDK/output/mx6sl/lib/libboard_evk_rev_a.a(iomux_config.o)
                              /home/leon/git/swp-report/iMX6_Platform_SDK/output/mx6sl/lib/libboard_evk_rev_a.a(ecspi_iomux_config.o) (ecspi3_iomux_config)
/home/leon/git/swp-report/iMX6_Platform_SDK/output/mx6sl/lib/libboard_evk_rev_a.a(kpp_iomux_config.o)
                              /home/leon/git/swp-report/iMX6_Platform_SDK/output/mx6sl/obds/evk_rev_a/obj/apps/obds/src/tests/keyboard_test.o (kpp_iomux_config)
/home/leon/git/swp-report/iMX6_Platform_SDK/output/mx6sl/lib/libboard_evk_rev_a.a(lcd_iomux_config.o)
                              /home/leon/git/swp-report/iMX6_Platform_SDK/output/mx6sl/lib/libsdk.a(lcdif_drv.o) (lcd_iomux_config)
/home/leon/git/swp-report/iMX6_Platform_SDK/output/mx6sl/lib/libboard_evk_rev_a.a(mmdc_iomux_config.o)
                              /home/leon/git/swp-report/iMX6_Platform_SDK/output/mx6sl/lib/libboard_evk_rev_a.a(iomux_config.o) (mmdc_iomux_config)
/home/leon/git/swp-report/iMX6_Platform_SDK/output/mx6sl/lib/libboard_evk_rev_a.a(pwm1_iomux_config.o)
                              /home/leon/git/swp-report/iMX6_Platform_SDK/output/mx6sl/lib/libboard_evk_rev_a.a(iomux_config.o) (pwm1_iomux_config)
/home/leon/git/swp-report/iMX6_Platform_SDK/output/mx6sl/lib/libboard_evk_rev_a.a(sjc_iomux_config.o)
                              /home/leon/git/swp-report/iMX6_Platform_SDK/output/mx6sl/lib/libboard_evk_rev_a.a(iomux_config.o) (sjc_iomux_config)
/home/leon/git/swp-report/iMX6_Platform_SDK/output/mx6sl/lib/libboard_evk_rev_a.a(spdc_iomux_config.o)
                              /home/leon/git/swp-report/iMX6_Platform_SDK/output/mx6sl/lib/libboard_evk_rev_a.a(iomux_config.o) (spdc_iomux_config)
/home/leon/git/swp-report/iMX6_Platform_SDK/output/mx6sl/lib/libboard_evk_rev_a.a(uart1_iomux_config.o)
                              /home/leon/git/swp-report/iMX6_Platform_SDK/output/mx6sl/lib/libboard_evk_rev_a.a(iomux_config.o) (uart1_iomux_config)
/home/leon/git/swp-report/iMX6_Platform_SDK/output/mx6sl/lib/libboard_evk_rev_a.a(uart_iomux_config.o)
                              /home/leon/git/swp-report/iMX6_Platform_SDK/output/mx6sl/lib/libsdk.a(imx_uart.o) (uart_iomux_config)
/home/leon/git/swp-report/iMX6_Platform_SDK/output/mx6sl/lib/libboard_evk_rev_a.a(usb_iomux_config.o)
                              /home/leon/git/swp-report/iMX6_Platform_SDK/output/mx6sl/lib/libboard_evk_rev_a.a(iomux_config.o) (usb_iomux_config)
/home/leon/git/swp-report/iMX6_Platform_SDK/output/mx6sl/lib/libboard_evk_rev_a.a(usdhc1_iomux_config.o)
                              /home/leon/git/swp-report/iMX6_Platform_SDK/output/mx6sl/lib/libboard_evk_rev_a.a(iomux_config.o) (usdhc1_iomux_config)
/home/leon/git/swp-report/iMX6_Platform_SDK/output/mx6sl/lib/libboard_evk_rev_a.a(usdhc2_iomux_config.o)
                              /home/leon/git/swp-report/iMX6_Platform_SDK/output/mx6sl/lib/libboard_evk_rev_a.a(iomux_config.o) (usdhc2_iomux_config)
/home/leon/git/swp-report/iMX6_Platform_SDK/output/mx6sl/lib/libboard_evk_rev_a.a(usdhc3_iomux_config.o)
                              /home/leon/git/swp-report/iMX6_Platform_SDK/output/mx6sl/lib/libboard_evk_rev_a.a(iomux_config.o) (usdhc3_iomux_config)
/home/leon/git/swp-report/iMX6_Platform_SDK/output/mx6sl/lib/libboard_evk_rev_a.a(usdhc_iomux_config.o)
                              /home/leon/git/swp-report/iMX6_Platform_SDK/output/mx6sl/lib/libsdk.a(usdhc_host.o) (usdhc_iomux_config)
/home/leon/git/swp-report/iMX6_Platform_SDK/output/mx6sl/lib/libboard_evk_rev_a.a(wdog1_iomux_config.o)
                              /home/leon/git/swp-report/iMX6_Platform_SDK/output/mx6sl/lib/libboard_evk_rev_a.a(iomux_config.o) (wdog1_iomux_config)
/home/leon/git/swp-report/iMX6_Platform_SDK/output/mx6sl/lib/libboard_evk_rev_a.a(ecspi1_iomux_config.o)
                              /home/leon/git/swp-report/iMX6_Platform_SDK/output/mx6sl/lib/libboard_evk_rev_a.a(ecspi_iomux_config.o) (ecspi1_iomux_config)
/home/leon/git/swp-report/iMX6_Platform_SDK/output/mx6sl/lib/libboard_evk_rev_a.a(ecspi2_iomux_config.o)
                              /home/leon/git/swp-report/iMX6_Platform_SDK/output/mx6sl/lib/libboard_evk_rev_a.a(ecspi_iomux_config.o) (ecspi2_iomux_config)
/home/leon/git/swp-report/iMX6_Platform_SDK/output/mx6sl/lib/libboard_evk_rev_a.a(gpio1_iomux_config.o)
                              /home/leon/git/swp-report/iMX6_Platform_SDK/output/mx6sl/lib/libboard_evk_rev_a.a(iomux_config.o) (gpio1_iomux_config)
/home/leon/git/swp-report/iMX6_Platform_SDK/output/mx6sl/lib/libboard_evk_rev_a.a(gpio4_iomux_config.o)
                              /home/leon/git/swp-report/iMX6_Platform_SDK/output/mx6sl/lib/libboard_evk_rev_a.a(iomux_config.o) (gpio4_iomux_config)
/home/leon/git/swp-report/iMX6_Platform_SDK/output/mx6sl/lib/libboard_evk_rev_a.a(i2c1_iomux_config.o)
                              /home/leon/git/swp-report/iMX6_Platform_SDK/output/mx6sl/lib/libboard_evk_rev_a.a(i2c_iomux_config.o) (i2c1_iomux_config)
/home/leon/git/swp-report/iMX6_Platform_SDK/output/mx6sl/lib/libboard_evk_rev_a.a(i2c2_iomux_config.o)
                              /home/leon/git/swp-report/iMX6_Platform_SDK/output/mx6sl/lib/libboard_evk_rev_a.a(i2c_iomux_config.o) (i2c2_iomux_config)
/home/leon/git/swp-report/iMX6_Platform_SDK/output/mx6sl/lib/libboard_evk_rev_a.a(i2c3_iomux_config.o)
                              /home/leon/git/swp-report/iMX6_Platform_SDK/output/mx6sl/lib/libboard_evk_rev_a.a(i2c_iomux_config.o) (i2c3_iomux_config)
/home/leon/riotboard/arm-2012.09/bin/../arm-none-eabi/lib//libc.a(lib_a-assert.o)
                              /home/leon/git/swp-report/iMX6_Platform_SDK/output/mx6sl/lib/libsdk.a(gic.o) (__assert_func)
/home/leon/riotboard/arm-2012.09/bin/../arm-none-eabi/lib//libc.a(lib_a-bzero.o)
                              /home/leon/git/swp-report/iMX6_Platform_SDK/output/mx6sl/lib/libsdk.a(mmu.o) (bzero)
/home/leon/riotboard/arm-2012.09/bin/../arm-none-eabi/lib//libc.a(lib_a-fiprintf.o)
                              /home/leon/riotboard/arm-2012.09/bin/../arm-none-eabi/lib//libc.a(lib_a-assert.o) (fiprintf)
/home/leon/riotboard/arm-2012.09/bin/../arm-none-eabi/lib//libc.a(lib_a-fputc.o)
                              /home/leon/git/swp-report/iMX6_Platform_SDK/output/mx6sl/obds/evk_rev_a/obj/apps/obds/src/tests/program_mac_address.o (fputc)
/home/leon/riotboard/arm-2012.09/bin/../arm-none-eabi/lib//libc.a(lib_a-impure.o)
                              /home/leon/git/swp-report/iMX6_Platform_SDK/output/mx6sl/obds/evk_rev_a/obj/apps/obds/src/tests/audio_ssi_test.o (_impure_ptr)
/home/leon/riotboard/arm-2012.09/bin/../arm-none-eabi/lib//libc.a(lib_a-init.o)
                              /home/leon/git/swp-report/iMX6_Platform_SDK/output/mx6sl/lib/libsdk.a(startup.o) (__libc_init_array)
/home/leon/riotboard/arm-2012.09/bin/../arm-none-eabi/lib//libc.a(lib_a-malloc.o)
                              /home/leon/git/swp-report/iMX6_Platform_SDK/output/mx6sl/obds/evk_rev_a/obj/apps/obds/src/obds.o (malloc)
/home/leon/riotboard/arm-2012.09/bin/../arm-none-eabi/lib//libc.a(lib_a-mallocr.o)
                              /home/leon/riotboard/arm-2012.09/bin/../arm-none-eabi/lib//libc.a(lib_a-malloc.o) (_malloc_r)
/home/leon/riotboard/arm-2012.09/bin/../arm-none-eabi/lib//libc.a(lib_a-memcpy.o)
                              /home/leon/git/swp-report/iMX6_Platform_SDK/output/mx6sl/obds/evk_rev_a/obj/apps/obds/src/tests/touch_screen_max11801.o (memcpy)
/home/leon/riotboard/arm-2012.09/bin/../arm-none-eabi/lib//libc.a(lib_a-memset.o)
                              /home/leon/git/swp-report/iMX6_Platform_SDK/output/mx6sl/obds/evk_rev_a/obj/apps/common/print_version.o (memset)
/home/leon/riotboard/arm-2012.09/bin/../arm-none-eabi/lib//libc.a(lib_a-mlock.o)
                              /home/leon/riotboard/arm-2012.09/bin/../arm-none-eabi/lib//libc.a(lib_a-mallocr.o) (__malloc_lock)
/home/leon/riotboard/arm-2012.09/bin/../arm-none-eabi/lib//libc.a(lib_a-printf.o)
                              /home/leon/git/swp-report/iMX6_Platform_SDK/output/mx6sl/obds/evk_rev_a/obj/apps/common/print_clock_info.o (printf)
/home/leon/riotboard/arm-2012.09/bin/../arm-none-eabi/lib//libc.a(lib_a-putc.o)
                              /home/leon/riotboard/arm-2012.09/bin/../arm-none-eabi/lib//libc.a(lib_a-fputc.o) (_putc_r)
/home/leon/riotboard/arm-2012.09/bin/../arm-none-eabi/lib//libc.a(lib_a-realloc.o)
                              /home/leon/git/swp-report/iMX6_Platform_SDK/output/mx6sl/lib/libsdk.a(system_util.o) (realloc)
/home/leon/riotboard/arm-2012.09/bin/../arm-none-eabi/lib//libc.a(lib_a-reallocr.o)
                              /home/leon/riotboard/arm-2012.09/bin/../arm-none-eabi/lib//libc.a(lib_a-realloc.o) (_realloc_r)
/home/leon/riotboard/arm-2012.09/bin/../arm-none-eabi/lib//libc.a(lib_a-rget.o)
                              /home/leon/git/swp-report/iMX6_Platform_SDK/output/mx6sl/obds/evk_rev_a/obj/apps/obds/src/tests/audio_ssi_test.o (__srget_r)
/home/leon/riotboard/arm-2012.09/bin/../arm-none-eabi/lib//libc.a(lib_a-sbrkr.o)
                              /home/leon/riotboard/arm-2012.09/bin/../arm-none-eabi/lib//libc.a(lib_a-mallocr.o) (_sbrk_r)
/home/leon/riotboard/arm-2012.09/bin/../arm-none-eabi/lib//libc.a(lib_a-sprintf.o)
                              /home/leon/git/swp-report/iMX6_Platform_SDK/output/mx6sl/obds/evk_rev_a/obj/apps/obds/src/obds.o (sprintf)
/home/leon/riotboard/arm-2012.09/bin/../arm-none-eabi/lib//libc.a(lib_a-strcat.o)
                              /home/leon/git/swp-report/iMX6_Platform_SDK/output/mx6sl/obds/evk_rev_a/obj/apps/obds/src/obds.o (strcat)
/home/leon/riotboard/arm-2012.09/bin/../arm-none-eabi/lib//libc.a(lib_a-strcmp.o)
                              /home/leon/git/swp-report/iMX6_Platform_SDK/output/mx6sl/obds/evk_rev_a/obj/apps/obds/src/obds.o (strcmp)
/home/leon/riotboard/arm-2012.09/bin/../arm-none-eabi/lib//libc.a(lib_a-strcpy.o)
                              /home/leon/git/swp-report/iMX6_Platform_SDK/output/mx6sl/obds/evk_rev_a/obj/apps/obds/src/obds.o (strcpy)
/home/leon/riotboard/arm-2012.09/bin/../arm-none-eabi/lib//libc.a(lib_a-strlen.o)
                              /home/leon/git/swp-report/iMX6_Platform_SDK/output/mx6sl/lib/libsdk.a(menu.o) (strlen)
/home/leon/riotboard/arm-2012.09/bin/../arm-none-eabi/lib//libc.a(lib_a-strncasecmp.o)
                              /home/leon/git/swp-report/iMX6_Platform_SDK/output/mx6sl/lib/libsdk.a(menu.o) (strncasecmp)
/home/leon/riotboard/arm-2012.09/bin/../arm-none-eabi/lib//libc.a(lib_a-strtok.o)
                              /home/leon/git/swp-report/iMX6_Platform_SDK/output/mx6sl/obds/evk_rev_a/obj/apps/obds/src/obds.o (strtok)
/home/leon/riotboard/arm-2012.09/bin/../arm-none-eabi/lib//libc.a(lib_a-strtok_r.o)
                              /home/leon/riotboard/arm-2012.09/bin/../arm-none-eabi/lib//libc.a(lib_a-strtok.o) (__strtok_r)
/home/leon/riotboard/arm-2012.09/bin/../arm-none-eabi/lib//libc.a(lib_a-svfprintf.o)
                              /home/leon/riotboard/arm-2012.09/bin/../arm-none-eabi/lib//libc.a(lib_a-sprintf.o) (_svfprintf_r)
/home/leon/riotboard/arm-2012.09/bin/../arm-none-eabi/lib//libc.a(lib_a-vfiprintf.o)
                              /home/leon/riotboard/arm-2012.09/bin/../arm-none-eabi/lib//libc.a(lib_a-fiprintf.o) (_vfiprintf_r)
/home/leon/riotboard/arm-2012.09/bin/../arm-none-eabi/lib//libc.a(lib_a-vfprintf.o)
                              /home/leon/riotboard/arm-2012.09/bin/../arm-none-eabi/lib//libc.a(lib_a-printf.o) (_vfprintf_r)
/home/leon/riotboard/arm-2012.09/bin/../arm-none-eabi/lib//libc.a(lib_a-vprintf.o)
                              /home/leon/git/swp-report/iMX6_Platform_SDK/output/mx6sl/obds/evk_rev_a/obj/apps/obds/src/obds.o (vprintf)
/home/leon/riotboard/arm-2012.09/bin/../arm-none-eabi/lib//libc.a(lib_a-wbuf.o)
                              /home/leon/riotboard/arm-2012.09/bin/../arm-none-eabi/lib//libc.a(lib_a-putc.o) (__swbuf_r)
/home/leon/riotboard/arm-2012.09/bin/../arm-none-eabi/lib//libc.a(lib_a-wsetup.o)
                              /home/leon/riotboard/arm-2012.09/bin/../arm-none-eabi/lib//libc.a(lib_a-vfiprintf.o) (__swsetup_r)
/home/leon/riotboard/arm-2012.09/bin/../arm-none-eabi/lib//libc.a(lib_a-abort.o)
                              /home/leon/riotboard/arm-2012.09/bin/../arm-none-eabi/lib//libc.a(lib_a-assert.o) (abort)
/home/leon/riotboard/arm-2012.09/bin/../arm-none-eabi/lib//libc.a(lib_a-ctype_.o)
                              /home/leon/riotboard/arm-2012.09/bin/../arm-none-eabi/lib//libc.a(lib_a-strncasecmp.o) (__ctype_ptr__)
/home/leon/riotboard/arm-2012.09/bin/../arm-none-eabi/lib//libc.a(lib_a-dtoa.o)
                              /home/leon/riotboard/arm-2012.09/bin/../arm-none-eabi/lib//libc.a(lib_a-svfprintf.o) (_dtoa_r)
/home/leon/riotboard/arm-2012.09/bin/../arm-none-eabi/lib//libc.a(lib_a-fflush.o)
                              /home/leon/riotboard/arm-2012.09/bin/../arm-none-eabi/lib//libc.a(lib_a-vfiprintf.o) (_fflush_r)
/home/leon/riotboard/arm-2012.09/bin/../arm-none-eabi/lib//libc.a(lib_a-findfp.o)
                              /home/leon/riotboard/arm-2012.09/bin/../arm-none-eabi/lib//libc.a(lib_a-fputc.o) (__sinit)
/home/leon/riotboard/arm-2012.09/bin/../arm-none-eabi/lib//libc.a(lib_a-fputwc.o)
                              /home/leon/riotboard/arm-2012.09/bin/../arm-none-eabi/lib//libc.a(lib_a-vfiprintf.o) (_fputwc_r)
/home/leon/riotboard/arm-2012.09/bin/../arm-none-eabi/lib//libc.a(lib_a-freer.o)
                              /home/leon/riotboard/arm-2012.09/bin/../arm-none-eabi/lib//libc.a(lib_a-malloc.o) (_free_r)
/home/leon/riotboard/arm-2012.09/bin/../arm-none-eabi/lib//libc.a(lib_a-fvwrite.o)
                              /home/leon/riotboard/arm-2012.09/bin/../arm-none-eabi/lib//libc.a(lib_a-vfiprintf.o) (__sfvwrite_r)
/home/leon/riotboard/arm-2012.09/bin/../arm-none-eabi/lib//libc.a(lib_a-fwalk.o)
                              /home/leon/riotboard/arm-2012.09/bin/../arm-none-eabi/lib//libc.a(lib_a-findfp.o) (_fwalk)
/home/leon/riotboard/arm-2012.09/bin/../arm-none-eabi/lib//libc.a(lib_a-locale.o)
                              /home/leon/riotboard/arm-2012.09/bin/../arm-none-eabi/lib//libc.a(lib_a-fputwc.o) (__locale_mb_cur_max)
/home/leon/riotboard/arm-2012.09/bin/../arm-none-eabi/lib//libc.a(lib_a-makebuf.o)
                              /home/leon/riotboard/arm-2012.09/bin/../arm-none-eabi/lib//libc.a(lib_a-wsetup.o) (__smakebuf_r)
/home/leon/riotboard/arm-2012.09/bin/../arm-none-eabi/lib//libc.a(lib_a-memchr.o)
                              /home/leon/riotboard/arm-2012.09/bin/../arm-none-eabi/lib//libc.a(lib_a-svfprintf.o) (memchr)
/home/leon/riotboard/arm-2012.09/bin/../arm-none-eabi/lib//libc.a(lib_a-memmove.o)
                              /home/leon/riotboard/arm-2012.09/bin/../arm-none-eabi/lib//libc.a(lib_a-reallocr.o) (memmove)
/home/leon/riotboard/arm-2012.09/bin/../arm-none-eabi/lib//libc.a(lib_a-mprec.o)
                              /home/leon/riotboard/arm-2012.09/bin/../arm-none-eabi/lib//libc.a(lib_a-dtoa.o) (_Balloc)
/home/leon/riotboard/arm-2012.09/bin/../arm-none-eabi/lib//libc.a(lib_a-reent.o)
                              /home/leon/riotboard/arm-2012.09/bin/../arm-none-eabi/lib//libc.a(lib_a-sbrkr.o) (errno)
/home/leon/riotboard/arm-2012.09/bin/../arm-none-eabi/lib//libc.a(lib_a-refill.o)
                              /home/leon/riotboard/arm-2012.09/bin/../arm-none-eabi/lib//libc.a(lib_a-rget.o) (__srefill_r)
/home/leon/riotboard/arm-2012.09/bin/../arm-none-eabi/lib//libc.a(lib_a-s_fpclassify.o)
                              /home/leon/riotboard/arm-2012.09/bin/../arm-none-eabi/lib//libc.a(lib_a-svfprintf.o) (__fpclassifyd)
/home/leon/riotboard/arm-2012.09/bin/../arm-none-eabi/lib//libc.a(lib_a-signal.o)
                              /home/leon/riotboard/arm-2012.09/bin/../arm-none-eabi/lib//libc.a(lib_a-abort.o) (raise)
/home/leon/riotboard/arm-2012.09/bin/../arm-none-eabi/lib//libc.a(lib_a-signalr.o)
                              /home/leon/riotboard/arm-2012.09/bin/../arm-none-eabi/lib//libc.a(lib_a-signal.o) (_kill_r)
/home/leon/riotboard/arm-2012.09/bin/../arm-none-eabi/lib//libc.a(lib_a-stdio.o)
                              /home/leon/riotboard/arm-2012.09/bin/../arm-none-eabi/lib//libc.a(lib_a-findfp.o) (__sread)
/home/leon/riotboard/arm-2012.09/bin/../arm-none-eabi/lib//libc.a(lib_a-svfiprintf.o)
                              /home/leon/riotboard/arm-2012.09/bin/../arm-none-eabi/lib//libc.a(lib_a-svfprintf.o) (__ssprint_r)
/home/leon/riotboard/arm-2012.09/bin/../arm-none-eabi/lib//libc.a(lib_a-wcrtomb.o)
                              /home/leon/riotboard/arm-2012.09/bin/../arm-none-eabi/lib//libc.a(lib_a-fputwc.o) (_wcrtomb_r)
/home/leon/riotboard/arm-2012.09/bin/../arm-none-eabi/lib//libc.a(lib_a-wctomb_r.o)
                              /home/leon/riotboard/arm-2012.09/bin/../arm-none-eabi/lib//libc.a(lib_a-wcrtomb.o) (__wctomb)
/home/leon/riotboard/arm-2012.09/bin/../arm-none-eabi/lib//libc.a(lib_a-writer.o)
                              /home/leon/riotboard/arm-2012.09/bin/../arm-none-eabi/lib//libc.a(lib_a-stdio.o) (_write_r)
/home/leon/riotboard/arm-2012.09/bin/../arm-none-eabi/lib//libc.a(lib_a-callocr.o)
                              /home/leon/riotboard/arm-2012.09/bin/../arm-none-eabi/lib//libc.a(lib_a-mprec.o) (_calloc_r)
/home/leon/riotboard/arm-2012.09/bin/../arm-none-eabi/lib//libc.a(lib_a-closer.o)
                              /home/leon/riotboard/arm-2012.09/bin/../arm-none-eabi/lib//libc.a(lib_a-stdio.o) (_close_r)
/home/leon/riotboard/arm-2012.09/bin/../arm-none-eabi/lib//libc.a(lib_a-fclose.o)
                              /home/leon/riotboard/arm-2012.09/bin/../arm-none-eabi/lib//libc.a(lib_a-findfp.o) (fclose)
/home/leon/riotboard/arm-2012.09/bin/../arm-none-eabi/lib//libc.a(lib_a-fstatr.o)
                              /home/leon/riotboard/arm-2012.09/bin/../arm-none-eabi/lib//libc.a(lib_a-makebuf.o) (_fstat_r)
/home/leon/riotboard/arm-2012.09/bin/../arm-none-eabi/lib//libc.a(lib_a-isattyr.o)
                              /home/leon/riotboard/arm-2012.09/bin/../arm-none-eabi/lib//libc.a(lib_a-makebuf.o) (_isatty_r)
/home/leon/riotboard/arm-2012.09/bin/../arm-none-eabi/lib//libc.a(lib_a-lseekr.o)
                              /home/leon/riotboard/arm-2012.09/bin/../arm-none-eabi/lib//libc.a(lib_a-stdio.o) (_lseek_r)
/home/leon/riotboard/arm-2012.09/bin/../arm-none-eabi/lib//libc.a(lib_a-readr.o)
                              /home/leon/riotboard/arm-2012.09/bin/../arm-none-eabi/lib//libc.a(lib_a-stdio.o) (_read_r)
/home/leon/riotboard/arm-2012.09/bin/../lib/gcc/arm-none-eabi/4.7.2//libgcc.a(_udivsi3.o)
                              /home/leon/git/swp-report/iMX6_Platform_SDK/output/mx6sl/obds/evk_rev_a/obj/sdk/drivers/spi/test/imx_spi_nor_atmel.o (__aeabi_uidiv)
/home/leon/riotboard/arm-2012.09/bin/../lib/gcc/arm-none-eabi/4.7.2//libgcc.a(_divsi3.o)
                              /home/leon/git/swp-report/iMX6_Platform_SDK/output/mx6sl/lib/libsdk.a(usdhc_host.o) (__aeabi_idiv)
/home/leon/riotboard/arm-2012.09/bin/../lib/gcc/arm-none-eabi/4.7.2//libgcc.a(_dvmd_tls.o)
                              /home/leon/riotboard/arm-2012.09/bin/../lib/gcc/arm-none-eabi/4.7.2//libgcc.a(_udivsi3.o) (__aeabi_idiv0)
/home/leon/riotboard/arm-2012.09/bin/../lib/gcc/arm-none-eabi/4.7.2//libgcc.a(_arm_addsubdf3.o)
                              /home/leon/riotboard/arm-2012.09/bin/../arm-none-eabi/lib//libc.a(lib_a-dtoa.o) (__aeabi_dsub)
/home/leon/riotboard/arm-2012.09/bin/../lib/gcc/arm-none-eabi/4.7.2//libgcc.a(_arm_muldivdf3.o)
                              /home/leon/riotboard/arm-2012.09/bin/../arm-none-eabi/lib//libc.a(lib_a-dtoa.o) (__aeabi_dmul)
/home/leon/riotboard/arm-2012.09/bin/../lib/gcc/arm-none-eabi/4.7.2//libgcc.a(_arm_cmpdf2.o)
                              /home/leon/riotboard/arm-2012.09/bin/../arm-none-eabi/lib//libc.a(lib_a-svfprintf.o) (__aeabi_dcmpeq)
/home/leon/riotboard/arm-2012.09/bin/../lib/gcc/arm-none-eabi/4.7.2//libgcc.a(_arm_fixdfsi.o)
                              /home/leon/riotboard/arm-2012.09/bin/../arm-none-eabi/lib//libc.a(lib_a-dtoa.o) (__aeabi_d2iz)
/home/leon/riotboard/arm-2012.09/bin/../lib/gcc/arm-none-eabi/4.7.2//libgcc.a(_aeabi_uldivmod.o)
                              /home/leon/git/swp-report/iMX6_Platform_SDK/output/mx6sl/lib/libsdk.a(timer.o) (__aeabi_uldivmod)
/home/leon/riotboard/arm-2012.09/bin/../lib/gcc/arm-none-eabi/4.7.2//libgcc.a(bpabi.o)
                              /home/leon/riotboard/arm-2012.09/bin/../lib/gcc/arm-none-eabi/4.7.2//libgcc.a(_aeabi_uldivmod.o) (__gnu_uldivmod_helper)
/home/leon/riotboard/arm-2012.09/bin/../lib/gcc/arm-none-eabi/4.7.2//libgcc.a(_divdi3.o)
                              /home/leon/riotboard/arm-2012.09/bin/../lib/gcc/arm-none-eabi/4.7.2//libgcc.a(bpabi.o) (__divdi3)
/home/leon/riotboard/arm-2012.09/bin/../lib/gcc/arm-none-eabi/4.7.2//libgcc.a(_udivdi3.o)
                              /home/leon/riotboard/arm-2012.09/bin/../lib/gcc/arm-none-eabi/4.7.2//libgcc.a(bpabi.o) (__udivdi3)
/home/leon/riotboard/arm-2012.09/bin/../lib/gcc/arm-none-eabi/4.7.2//libgcc.a(_clzsi2.o)
                              /home/leon/riotboard/arm-2012.09/bin/../lib/gcc/arm-none-eabi/4.7.2//libgcc.a(_divdi3.o) (__clzsi2)
/home/leon/git/swp-report/iMX6_Platform_SDK/output/mx6sl/lib/libsdk.a(runtime_support.o)
                              /home/leon/riotboard/arm-2012.09/bin/../arm-none-eabi/lib//libc.a(lib_a-isattyr.o) (_isatty)

Allocating common symbols
Common symbol       size              file

errno               0x4               /home/leon/riotboard/arm-2012.09/bin/../arm-none-eabi/lib//libc.a(lib_a-reent.o)

Memory Configuration

Name             Origin             Length             Attributes
OCRAM            0x00900000         0x00020000         xrw
DDR              0x80000000         0x40000000         xrw
*default*        0x00000000         0xffffffff

Linker script and memory map

LOAD /home/leon/riotboard/arm-2012.09/bin/../lib/gcc/arm-none-eabi/4.7.2//crtbegin.o
LOAD /home/leon/riotboard/arm-2012.09/bin/../lib/gcc/arm-none-eabi/4.7.2//crti.o
LOAD /home/leon/riotboard/arm-2012.09/bin/../lib/gcc/arm-none-eabi/4.7.2//crtend.o
LOAD /home/leon/riotboard/arm-2012.09/bin/../lib/gcc/arm-none-eabi/4.7.2//crtn.o

.l1_page_table  0x00900000     0x4000
                0x00900000                __l1_page_table_start = .
                0x00904000                . = (. + 0x4000)
 *fill*         0x00900000     0x4000 

.heap.ocram     0x00904000    0x1bfb8
                0x00904000                __heap_ocram_start = .
                0x0091ffb8                . = (. + 0x1bfb8)
 *fill*         0x00904000    0x1bfb8 
                0x0091ffb8                __heap_ocram_end = .

.ram_vectors    0x0091ffb8       0x48
                0x0091ffb8                __ram_vectors_start = .
                0x00920000                . = (. + 0x48)
 *fill*         0x0091ffb8       0x48 
                0x00920000                __ram_vectors_end = .
                0x80000000                _start_image_add = ORIGIN (DDR)

.ivt            0x80000000      0x420
                0x80000400                . = (. + 0x400)
 *fill*         0x80000000      0x400 
 *(.ivt)
 .ivt           0x80000400       0x20 /home/leon/git/swp-report/iMX6_Platform_SDK/output/mx6sl/obds/evk_rev_a/obj/apps/common/ivt.o
                0x80000400                input_ivt

.boot_data      0x80000420        0xc
                0x80000420                __start_boot_data = .
 *(.boot_data)
 .boot_data     0x80000420        0xc /home/leon/git/swp-report/iMX6_Platform_SDK/output/mx6sl/obds/evk_rev_a/obj/apps/common/ivt.o
                0x80000420                bd

.dcd_hdr        0x80000430        0x4
                0x80000430                __start_dcd = .
 *(.dcd_hdr)
 .dcd_hdr       0x80000430        0x4 /home/leon/git/swp-report/iMX6_Platform_SDK/output/mx6sl/lib/libboard_evk_rev_a.a(dcd.o)
                0x80000430                input_dcd_hdr

.dcd_wrt_cmd    0x80000434        0x4
 *(.dcd_wrt_cmd)
 .dcd_wrt_cmd   0x80000434        0x4 /home/leon/git/swp-report/iMX6_Platform_SDK/output/mx6sl/lib/libboard_evk_rev_a.a(dcd.o)
                0x80000434                input_dcd_wrt_cmd

.dcd_data       0x80000438      0x240
 *(.dcd_data)
 .dcd_data      0x80000438      0x240 /home/leon/git/swp-report/iMX6_Platform_SDK/output/mx6sl/lib/libboard_evk_rev_a.a(dcd.o)
                0x80000438                input_dcd

.text           0x80000678    0x415fc
 CREATE_OBJECT_SYMBOLS
 *(.startup)
 .startup       0x80000678      0x138 /home/leon/git/swp-report/iMX6_Platform_SDK/output/mx6sl/lib/libsdk.a(startup.o)
                0x80000678                _start
 *(.text .text.* .gnu.linkonce.t.*)
 .text          0x800007b0      0x128 /home/leon/riotboard/arm-2012.09/bin/../lib/gcc/arm-none-eabi/4.7.2//crtbegin.o
 .text          0x800008d8        0x0 /home/leon/riotboard/arm-2012.09/bin/../lib/gcc/arm-none-eabi/4.7.2//crti.o
 .text          0x800008d8        0x0 /home/leon/riotboard/arm-2012.09/bin/../lib/gcc/arm-none-eabi/4.7.2//crtend.o
 .text          0x800008d8        0x0 /home/leon/riotboard/arm-2012.09/bin/../lib/gcc/arm-none-eabi/4.7.2//crtn.o
 .text          0x800008d8        0x0 /home/leon/git/swp-report/iMX6_Platform_SDK/output/mx6sl/obds/evk_rev_a/obj/apps/common/ivt.o
 .text          0x800008d8       0x98 /home/leon/git/swp-report/iMX6_Platform_SDK/output/mx6sl/obds/evk_rev_a/obj/apps/common/platform_init.o
                0x800008d8                platform_init
 .text          0x80000970       0xfc /home/leon/git/swp-report/iMX6_Platform_SDK/output/mx6sl/obds/evk_rev_a/obj/apps/common/print_clock_info.o
                0x80000970                show_freq
                0x80000a5c                show_ddr_config
 .text          0x80000a6c      0x15c /home/leon/git/swp-report/iMX6_Platform_SDK/output/mx6sl/obds/evk_rev_a/obj/apps/common/print_version.o
                0x80000a6c                print_version
 .text          0x80000bc8     0x1034 /home/leon/git/swp-report/iMX6_Platform_SDK/output/mx6sl/obds/evk_rev_a/obj/apps/obds/src/obds.o
                0x80000bc8                main
                0x80000f30                free_test_results
                0x80000fc8                printf_hook
                0x80001194                prompt_run_test
                0x80001238                print_test_passed
                0x80001284                print_test_skipped
                0x800012d0                print_test_failed
                0x80001328                print_test_not_implemented
                0x80001380                run_test
                0x800015cc                report_test_results
                0x80001994                run_all_tests
                0x80001b80                select_tests
 .text          0x80001bfc      0x770 /home/leon/git/swp-report/iMX6_Platform_SDK/output/mx6sl/obds/evk_rev_a/obj/apps/obds/src/obds_utils.o
                0x80001bfc                show_boot_switch_info
 .text          0x8000236c        0x0 /home/leon/git/swp-report/iMX6_Platform_SDK/output/mx6sl/obds/evk_rev_a/obj/apps/obds/src/tests/audio_esai_test.o
 .text          0x8000236c      0x680 /home/leon/git/swp-report/iMX6_Platform_SDK/output/mx6sl/obds/evk_rev_a/obj/apps/obds/src/tests/audio_ssi_test.o
                0x8000236c                audio_test_init
                0x800024a8                i2s_audio_test
 .text          0x800029ec      0x620 /home/leon/git/swp-report/iMX6_Platform_SDK/output/mx6sl/obds/evk_rev_a/obj/apps/obds/src/tests/ddr_test.o
                0x800029ec                get_ddr_density
                0x80002ab0                ddr_test
 .text          0x8000300c       0x64 /home/leon/git/swp-report/iMX6_Platform_SDK/output/mx6sl/obds/evk_rev_a/obj/apps/obds/src/tests/flexcan_test.o
                0x8000300c                flexcan_test
 .text          0x80003070      0x1d8 /home/leon/git/swp-report/iMX6_Platform_SDK/output/mx6sl/obds/evk_rev_a/obj/apps/obds/src/tests/gpio_led.o
                0x80003070                gpio_led_test
 .text          0x80003248       0xd4 /home/leon/git/swp-report/iMX6_Platform_SDK/output/mx6sl/obds/evk_rev_a/obj/apps/obds/src/tests/gps_test.o
                0x80003248                gps_test
 .text          0x8000331c      0x5d0 /home/leon/git/swp-report/iMX6_Platform_SDK/output/mx6sl/obds/evk_rev_a/obj/apps/obds/src/tests/i2c_check_light_sensor_isl29023.o
                0x80003804                i2c_device_id_check_isl29023
 .text          0x800038ec      0x294 /home/leon/git/swp-report/iMX6_Platform_SDK/output/mx6sl/obds/evk_rev_a/obj/apps/obds/src/tests/i2c_device_barometer_ppl3115.o
                0x80003ac4                i2c_device_id_check_ppl3115
                0x80003b54                i2c_device_ppl3115_test
 .text          0x80003b80        0x0 /home/leon/git/swp-report/iMX6_Platform_SDK/output/mx6sl/obds/evk_rev_a/obj/apps/obds/src/tests/i2c_device_check_cs42888.o
 .text          0x80003b80      0x1ac /home/leon/git/swp-report/iMX6_Platform_SDK/output/mx6sl/obds/evk_rev_a/obj/apps/obds/src/tests/i2c_device_digital_compass_mag3110.o
                0x80003b80                mag3110_reg_read
                0x80003c94                i2c_device_id_check_mag3110
 .text          0x80003d2c      0x1b4 /home/leon/git/swp-report/iMX6_Platform_SDK/output/mx6sl/obds/evk_rev_a/obj/apps/obds/src/tests/i2c_device_digital_compass_mag3112.o
                0x80003d2c                mag3112_reg_read
                0x80003e40                i2c_device_id_check_mag3112
 .text          0x80003ee0      0x964 /home/leon/git/swp-report/iMX6_Platform_SDK/output/mx6sl/obds/evk_rev_a/obj/apps/obds/src/tests/i2c_device_id_check_mma8450.o
                0x800040b8                i2c_device_id_check_MMA8450
                0x80004164                mma8450_set_config
                0x8000426c                mma8450_get_accel
                0x80004678                mma8450_show_accel
 .text          0x80004844      0x970 /home/leon/git/swp-report/iMX6_Platform_SDK/output/mx6sl/obds/evk_rev_a/obj/apps/obds/src/tests/i2c_device_id_check_mma8451.o
                0x80004a1c                i2c_device_id_check_MMA8451
                0x80004ac8                mma8451_set_config
                0x80004bdc                mma8451_get_accel
                0x80004fe8                mma8451_show_accel
 .text          0x800051b4      0x6e8 /home/leon/git/swp-report/iMX6_Platform_SDK/output/mx6sl/obds/evk_rev_a/obj/apps/obds/src/tests/i2c_device_temp_sensor_emc1046.o
                0x800056e8                wait_convertion_done
                0x8000575c                i2c_device_id_check_emc1046
                0x80005870                i2c_device_emc1046_test
 .text          0x8000589c      0x36c /home/leon/git/swp-report/iMX6_Platform_SDK/output/mx6sl/obds/evk_rev_a/obj/apps/obds/src/tests/i2c_device_zigbee_mc1323.o
                0x80005adc                i2c_device_id_check_mc1323
                0x80005ba0                i2c_device_mc1323_test
 .text          0x80005c08      0x358 /home/leon/git/swp-report/iMX6_Platform_SDK/output/mx6sl/obds/evk_rev_a/obj/apps/obds/src/tests/i2c_eeprom_at24cxx_test.o
 .text          0x80005f60      0x654 /home/leon/git/swp-report/iMX6_Platform_SDK/output/mx6sl/obds/evk_rev_a/obj/apps/obds/src/tests/imx_spi_nor_test.o
                0x80005f60                spi_nor_query
                0x80005fc0                spi_nor_write
                0x80006038                spi_nor_read
                0x800060b0                spi_nor_erase
                0x8000611c                spi_nor_test
 .text          0x800065b4      0xd80 /home/leon/git/swp-report/iMX6_Platform_SDK/output/mx6sl/obds/evk_rev_a/obj/apps/obds/src/tests/keyboard_test.o
                0x800065b4                kpp_enable_rows
                0x8000662c                kpp_set_cols_opendrain
                0x800066a8                kpp_set_cols_totempole
                0x8000672c                kpp_set_data_dir
                0x80006810                kpp_clr_cols_data
                0x80006894                kpp_set_cols_data
                0x80006910                kpp_detect_keypad_pressed
                0x80006938                kpp_detect_keypad_released
                0x80006960                kpp_clr_keypad_int
                0x80006994                kpp_scan_matrix
                0x80006ba4                kpp_print_key_press_on_dc3
                0x80006e4c                kpp_print_key_press_on_evk
                0x80006fb4                kpp_trace_keypad_status
                0x800071ec                test_gpio_keyboard
 .text          0x80007334      0x3ac /home/leon/git/swp-report/iMX6_Platform_SDK/output/mx6sl/obds/evk_rev_a/obj/apps/obds/src/tests/mmcsd_test.o
                0x80007334                mmcsd_test
 .text          0x800076e0      0x658 /home/leon/git/swp-report/iMX6_Platform_SDK/output/mx6sl/obds/evk_rev_a/obj/apps/obds/src/tests/pmic_da9053.o
                0x800076e0                da9053_i2c_reg
                0x80007c30                i2c_device_id_check_DA9053
                0x80007ce8                pmic_da9053_test
 .text          0x80007d38     0x138c /home/leon/git/swp-report/iMX6_Platform_SDK/output/mx6sl/obds/evk_rev_a/obj/apps/obds/src/tests/pmic_lt3589.o
                0x80007d38                ltc3589_reg_read
                0x80007e30                ltc3589_reg_write
                0x80007f18                ltc3589_eval
                0x80008ac8                ltc3589_backlight_en
                0x80008cdc                ltc3589_camera_power_on
                0x80008ea4                sil9024_hdmi_power_on1
                0x80008fd4                ltc3589_i2c_device_id_check
                0x80009074                pmic_lt3589_test
 .text          0x800090c4      0x2f8 /home/leon/git/swp-report/iMX6_Platform_SDK/output/mx6sl/obds/evk_rev_a/obj/apps/obds/src/tests/pmic_max17135.o
                0x800090c4                max17135_reg_read
                0x800091b4                max17135_reg_write
                0x8000930c                i2c_device_id_check_MAX17135
 .text          0x800093bc      0x3a0 /home/leon/git/swp-report/iMX6_Platform_SDK/output/mx6sl/obds/evk_rev_a/obj/apps/obds/src/tests/pmic_mc13892.o
                0x800093bc                mc13892_i2c_reg
                0x800093fc                pmic_open_vgen1
                0x800094e4                pmic_open_vusb
                0x800095b0                pmic_open_vsd
                0x800096cc                device_id_check_mc13892
                0x800096fc                pmic_mc13892_test
 .text          0x8000975c      0x7e4 /home/leon/git/swp-report/iMX6_Platform_SDK/output/mx6sl/obds/evk_rev_a/obj/apps/obds/src/tests/program_board_id.o
                0x8000978c                program_board_id_fuses
                0x8000998c                program_board_id
 .text          0x80009f40      0x8cc /home/leon/git/swp-report/iMX6_Platform_SDK/output/mx6sl/obds/evk_rev_a/obj/apps/obds/src/tests/program_mac_address.o
                0x80009f70                read_mac_otp_registers
                0x8000a02c                mac_address_str
                0x8000a0cc                program_mac_address_fuses
                0x8000a344                program_mac_address
 .text          0x8000a80c      0x1fc /home/leon/git/swp-report/iMX6_Platform_SDK/output/mx6sl/obds/evk_rev_a/obj/apps/obds/src/tests/snvs_srtc_test.o
                0x8000a80c                snvs_srtc_test
 .text          0x8000aa08        0x0 /home/leon/git/swp-report/iMX6_Platform_SDK/output/mx6sl/obds/evk_rev_a/obj/apps/obds/src/tests/touch_button_test.o
 .text          0x8000aa08      0x6e0 /home/leon/git/swp-report/iMX6_Platform_SDK/output/mx6sl/obds/evk_rev_a/obj/apps/obds/src/tests/touch_screen.o
                0x8000aa08                DA9053_Write
                0x8000aaf4                DA9053_Read
                0x8000abd8                touch_init
                0x8000ac58                touch_get_xy_value
                0x8000ad94                touch_detect
                0x8000ae88                touch_screen_prompt
                0x8000afac                touch_screen_test
 .text          0x8000b0e8      0xb68 /home/leon/git/swp-report/iMX6_Platform_SDK/output/mx6sl/obds/evk_rev_a/obj/apps/obds/src/tests/touch_screen_max11801.o
                0x8000b4b0                max11801_ts_test
                0x8000b60c                max11801_reg_read_single
                0x8000b720                max11801_reg_read_multi
                0x8000b82c                max11801_reg_write
                0x8000b908                i2c_device_check_max11801_AUX
                0x8000ba28                i2c_device_check_max11801
 .text          0x8000bc50      0x4d4 /home/leon/git/swp-report/iMX6_Platform_SDK/output/mx6sl/obds/evk_rev_a/obj/apps/obds/src/tests/usb_tests_obds.o
                0x8000bc50                usbo_dev_enum_test
                0x8000bcc0                usbh_dev_enum_test
                0x8000bd30                usb_enum_device
 .text          0x8000c124      0x324 /home/leon/git/swp-report/iMX6_Platform_SDK/output/mx6sl/obds/evk_rev_a/obj/apps/obds/src/tests/weim_nor_flash_test.o
                0x8000c124                weim_nor_flash_cs_setup
                0x8000c170                eim_nor_flash_test
                0x8000c1e0                m29w256gl_auto_manu_id
                0x8000c2c8                m29w256gl_auto_dev_id
 .text          0x8000c448      0x478 /home/leon/git/swp-report/iMX6_Platform_SDK/output/mx6sl/obds/evk_rev_a/obj/sdk/common/pmic/pfuse/pf0100.o
                0x8000c448                pf0100_reg_read
                0x8000c538                pf0100_reg_write
                0x8000c628                pf0100_enable_vgen1_1v2
                0x8000c678                pf0100_enable_vgen2_1v5
                0x8000c6c8                pf0100_enable_vgen3_1v8
                0x8000c718                pf0100_enable_vgen4_1v8
                0x8000c768                pf0100_enable_vgen4_2v5
                0x8000c7b8                pf0100_enable_vgen6_2v8
                0x8000c808                pf0100_i2c_device_id_check
 .text          0x8000c8c0      0x438 /home/leon/git/swp-report/iMX6_Platform_SDK/output/mx6sl/obds/evk_rev_a/obj/sdk/drivers/audio/src/snd_card.o
 .text          0x8000ccf8        0x0 /home/leon/git/swp-report/iMX6_Platform_SDK/output/mx6sl/obds/evk_rev_a/obj/sdk/drivers/camera/test/adv7180_capture.o
 .text          0x8000ccf8      0x1f4 /home/leon/git/swp-report/iMX6_Platform_SDK/output/mx6sl/obds/evk_rev_a/obj/sdk/drivers/camera/test/camera_test.o
                0x8000ccf8                camera_test
 .text          0x8000ceec      0x120 /home/leon/git/swp-report/iMX6_Platform_SDK/output/mx6sl/obds/evk_rev_a/obj/sdk/drivers/camera/test/csi_sensor_capture.o
                0x8000ceec                csi_sensor_capture
 .text          0x8000d00c      0x464 /home/leon/git/swp-report/iMX6_Platform_SDK/output/mx6sl/obds/evk_rev_a/obj/sdk/drivers/epdc/test/epdc_test.o
                0x8000d00c                epdc_test
                0x8000d160                epdc_pvi_svga_sdr_init
                0x8000d180                epdc_update_image
                0x8000d2ac                epdc_send_mode0_to_black_update
                0x8000d348                epdc_send_image_update
                0x8000d3d8                epdc_send_erase_to_color
 .text          0x8000d470      0x570 /home/leon/git/swp-report/iMX6_Platform_SDK/output/mx6sl/obds/evk_rev_a/obj/sdk/drivers/fec/test/fec_test.o
                0x8000d6a4                fec_test
 .text          0x8000d9e0       0xf0 /home/leon/git/swp-report/iMX6_Platform_SDK/output/mx6sl/obds/evk_rev_a/obj/sdk/drivers/lcdif/test/lcdif_display.o
                0x8000d9e0                lcdif_display_test
 .text          0x8000dad0     0x10b4 /home/leon/git/swp-report/iMX6_Platform_SDK/output/mx6sl/obds/evk_rev_a/obj/sdk/drivers/spi/test/imx_spi_nor_atmel.o
                0x8000dad0                spi_nor_query_atmel
                0x8000dc14                spi_nor_write_atmel
                0x8000e5f4                spi_nor_erase_atmel
                0x8000e798                spi_nor_read_atmel
 .text          0x8000eb84      0xb00 /home/leon/git/swp-report/iMX6_Platform_SDK/output/mx6sl/obds/evk_rev_a/obj/sdk/drivers/spi/test/spi_nor_numonyx.o
                0x8000ee5c                spi_nor_query_numonyx
                0x8000ef28                spi_nor_erase_numonyx
                0x8000efb4                spi_nor_read_numonyx
                0x8000f1fc                spi_nor_write_numonyx
 .text          0x8000f684      0x24c /home/leon/git/swp-report/iMX6_Platform_SDK/output/mx6sl/obds/evk_rev_a/obj/sdk/drivers/uart/test/uart_test.o
                0x8000f684                uart_interrupt_handler
                0x8000f6dc                uart_test
 .text          0x8000f8d0     0x2938 /home/leon/git/swp-report/iMX6_Platform_SDK/output/mx6sl/obds/evk_rev_a/obj/sdk/drivers/usb/test/usb0_host_test.o
                0x8000f8d0                usb0_host_test
                0x8001015c                emuerateDevice
                0x800102dc                usbh_set_device_address
                0x800107ac                usbh_get_dev_desc
                0x80010ca4                usbh_get_config_desc
                0x800111dc                usbh_get_interface_desc
                0x800117f4                usbh_set_configuration
                0x80011cd8                usbh_get_report_desc
 .text          0x80012208      0x5b8 /home/leon/git/swp-report/iMX6_Platform_SDK/output/mx6sl/obds/evk_rev_a/obj/sdk/drivers/usb/test/usb0_host_testmodes_test.o
                0x80012208                usb0_host_testmodes_test
 .text          0x800127c0      0xcf4 /home/leon/git/swp-report/iMX6_Platform_SDK/output/mx6sl/obds/evk_rev_a/obj/sdk/drivers/usdhc/test/usdhc_test.o
                0x800127c0                mmc_sd_test
                0x800127f4                usdhc_test
 .text          0x800134b4      0x968 /home/leon/git/swp-report/iMX6_Platform_SDK/output/mx6sl/lib/libsdk.a(ccm_pll.o)
                0x800134b4                ccm_init
                0x800135d8                get_main_clock
                0x800137a4                get_peri_clock
                0x80013884                ccm_ccgr_config
                0x800138ec                clock_gating_config
                0x80013cb8                ccm_set_lpm_wakeup_source
                0x80013dac                ccm_enter_low_power
 .text          0x80013e1c      0x164 /home/leon/git/swp-report/iMX6_Platform_SDK/output/mx6sl/lib/libsdk.a(cortexA9.o)
                0x80013e1c                arm_set_interrupt_state
                0x80013e40                cpu_get_current
                0x80013e4c                enable_neon_fpu
                0x80013e68                disable_strict_align_check
                0x80013e7c                disable_L1_cache
                0x80013e9c                get_arm_private_peripheral_base
                0x80013ea4                arm_unified_tlb_invalidate
                0x80013eb4                arm_unified_tlb_invalidate_is
                0x80013ec4                arm_branch_prediction_enable
                0x80013ed4                arm_branch_prediction_disable
                0x80013ee4                arm_branch_target_cache_invalidate
                0x80013ef0                arm_branch_target_cache_invalidate_is
                0x80013efc                scu_enable
                0x80013f10                scu_join_smp
                0x80013f20                scu_leave_smp
                0x80013f30                scu_get_cpus_in_smp
                0x80013f44                scu_enable_maintenance_broadcast
                0x80013f54                scu_disable_maintenance_broadcast
                0x80013f64                scu_secure_invalidate
 .text          0x80013f80      0x5e0 /home/leon/git/swp-report/iMX6_Platform_SDK/output/mx6sl/lib/libsdk.a(gic.o)
                0x80014064                gic_enable
                0x800140c4                gic_set_irq_security
                0x8001416c                gic_enable_irq
                0x800141e8                gic_set_irq_priority
                0x80014230                gic_set_cpu_target
                0x8001433c                gic_send_sgi
                0x80014390                gic_cpu_enable
                0x800143f0                gic_set_cpu_priority_mask
                0x80014424                gic_read_irq_ack
                0x80014450                gic_write_end_of_irq
                0x80014480                gic_init
                0x80014524                gic_init_cpu
 .text          0x80014560      0x460 /home/leon/git/swp-report/iMX6_Platform_SDK/output/mx6sl/lib/libsdk.a(mmu.o)
                0x80014560                mmu_enable
                0x80014598                mmu_disable
                0x800145cc                mmu_init
                0x800146e8                mmu_map_l1_range
                0x80014900                mmu_virtual_to_physical
 .text          0x800149c0        0x0 /home/leon/git/swp-report/iMX6_Platform_SDK/output/mx6sl/lib/libsdk.a(startup.o)
 .text          0x800149c0        0x4 /home/leon/git/swp-report/iMX6_Platform_SDK/output/mx6sl/lib/libsdk.a(vectors.o)
                0x800149c0                exception_handler
 .text.vectors  0x800149c4       0x48 /home/leon/git/swp-report/iMX6_Platform_SDK/output/mx6sl/lib/libsdk.a(vectors.o)
                0x800149c4                vectors
 .text          0x80014a0c      0xc78 /home/leon/git/swp-report/iMX6_Platform_SDK/output/mx6sl/lib/libsdk.a(menu.o)
                0x80014eb4                menu_get_indent
                0x80014ed0                menuitem_cmd_showmenu
                0x80014ef4                menuitem_cmd_exitmenu
                0x80014f18                menu_append_menuitems
                0x80015038                menu_present
                0x800155d4                menu_print_menuitem
 .text          0x80015684        0x0 /home/leon/git/swp-report/iMX6_Platform_SDK/output/mx6sl/lib/libsdk.a(sdk_version.o)
 .text          0x80015684      0x914 /home/leon/git/swp-report/iMX6_Platform_SDK/output/mx6sl/lib/libsdk.a(system_util.o)
                0x80015684                _sys_exit
                0x800156a0                mybkpt
                0x800156a8                is_input_char
                0x80015828                read_input_string
                0x80015b10                get_input_hex
                0x80015d90                read_int
                0x80015ef4                jump_to_sdp
 .text          0x80015f98       0xe0 /home/leon/git/swp-report/iMX6_Platform_SDK/output/mx6sl/lib/libsdk.a(text_color.o)
                0x80015f98                printf_color
                0x80016034                get_color_supported
 .text          0x80016078     0x2990 /home/leon/git/swp-report/iMX6_Platform_SDK/output/mx6sl/lib/libsdk.a(imx-ssi.o)
                0x80017fac                ssi_init
                0x80017fec                ssi_config
                0x80018500                ssi_write_fifo
                0x800186f8                ssi_read_fifo
                0x800188b8                ssi_deinit
 .text          0x80018a08      0xc40 /home/leon/git/swp-report/iMX6_Platform_SDK/output/mx6sl/lib/libsdk.a(imx_audmux.o)
                0x80018be8                audmux_port_set
                0x80018dd4                audmux_route
 .text          0x80019648      0x708 /home/leon/git/swp-report/iMX6_Platform_SDK/output/mx6sl/lib/libsdk.a(imx_spdif.o)
                0x800199c0                spdif_init
                0x800199fc                spdif_config
                0x80019c30                spdif_write_fifo
                0x80019d2c                spdif_deinit
 .text          0x80019d50      0xb7c /home/leon/git/swp-report/iMX6_Platform_SDK/output/mx6sl/lib/libsdk.a(wm8962.o)
                0x8001a054                WM8962_dump
                0x8001a084                WM8962_DAC_configure
                0x8001a7ac                WM8962_DAC_init
                0x8001a8a0                WM8962_DAC_deinit
 .text          0x8001a8cc      0x7c4 /home/leon/git/swp-report/iMX6_Platform_SDK/output/mx6sl/lib/libsdk.a(board_id.o)
                0x8001a8cc                chip_name
                0x8001a9e4                chip_revision
                0x8001aabc                board_name
                0x8001abc0                board_revision
                0x8001ac88                board_description
                0x8001ada8                get_board_id
                0x8001ae84                show_board_id
 .text          0x8001b090      0x358 /home/leon/git/swp-report/iMX6_Platform_SDK/output/mx6sl/lib/libsdk.a(csi_drv.o)
                0x8001b104                csi_setup
                0x8001b268                csi_streamon
                0x8001b2fc                csi_streamoff
 .text          0x8001b3e8      0xa88 /home/leon/git/swp-report/iMX6_Platform_SDK/output/mx6sl/lib/libsdk.a(smd_sensor.o)
                0x8001b780                sensor_config
                0x8001b7bc                sensor_search
                0x8001b94c                sensor_init
                0x8001bac0                sensor_af_trigger
                0x8001bba0                sensor_autofocus_init
                0x8001bd20                camera_strobeflash_on
                0x8001bdfc                camera_strobeflash_off
 .text          0x8001be70      0xbc8 /home/leon/git/swp-report/iMX6_Platform_SDK/output/mx6sl/lib/libsdk.a(mxc_epdc.o)
                0x8001bf94                epdc_reset
                0x8001c14c                epdc_set_update_addr
                0x8001c178                epdc_set_update_coord
                0x8001c1b4                epdc_set_update_dimensions
                0x8001c1f0                epdc_submit_update
                0x8001c2b4                epdc_is_lut_complete
                0x8001c314                epdc_clear_lut_complete_irq
                0x8001c348                epdc_is_lut_active
                0x8001c3e4                epdc_any_luts_active
                0x8001c434                epdc_any_luts_available
                0x8001c478                epdc_get_next_lut
                0x8001c4ac                epdc_is_working_buffer_busy
                0x8001c508                epdc_is_working_buffer_complete
                0x8001c554                epdc_is_collision
                0x8001c5a0                epdc_dump_registers
                0x8001c6a8                epdc_set_vertical_timing
                0x8001c70c                epdc_init_settings
                0x8001c9b4                epdc_buffer_init
                0x8001ca0c                epdc_load_image
 .text          0x8001ca38     0x10d4 /home/leon/git/swp-report/iMX6_Platform_SDK/output/mx6sl/lib/libsdk.a(fec_drv.o)
                0x8001ca38                imx_fec_mii_read
                0x8001cb48                imx_fec_mii_write
                0x8001d01c                imx_fec_phy_init
                0x8001d190                imx_fec_get_phy_status
                0x8001d2c0                imx_fec_poll
                0x8001d3b8                imx_fec_send
                0x8001d4d0                imx_fec_recv
                0x8001d6ac                imx_fec_init
                0x8001d800                imx_fec_start
                0x8001d890                imx_fec_stop
                0x8001d8d4                imx_fec_isolate_phy
                0x8001d978                imx_fec_unisolate_phy
                0x8001da40                imx_fec_mii_type
 .text          0x8001db0c     0x1308 /home/leon/git/swp-report/iMX6_Platform_SDK/output/mx6sl/lib/libsdk.a(gpio.o)
                0x8001db3c                gpio_get_port_count
                0x8001db54                gpio_set_gpio
                0x8001dc18                gpio_set_direction
                0x8001de74                gpio_get_direction
                0x8001dfbc                gpio_set_level
                0x8001e2fc                gpio_get_level
                0x8001e45c                gpio_set_interrupt_config
                0x8001e860                gpio_set_interrupt_mask
                0x8001eaa4                gpio_get_interrupt_status
                0x8001ec00                gpio_clear_interrupt
 .text          0x8001ee14        0x0 /home/leon/git/swp-report/iMX6_Platform_SDK/output/mx6sl/lib/libsdk.a(imx6sl_gpio_map.o)
 .text          0x8001ee14     0x1798 /home/leon/git/swp-report/iMX6_Platform_SDK/output/mx6sl/lib/libsdk.a(imx_i2c.o)
                0x8001ee44                i2c_get_request_instance
                0x8001f8bc                i2c_xfer
                0x8001ffd8                i2c_read
                0x80020008                i2c_write
                0x80020038                i2c_setup_interrupt
                0x800202a4                i2c_init
 .text          0x800205ac      0xb60 /home/leon/git/swp-report/iMX6_Platform_SDK/output/mx6sl/lib/libsdk.a(lcdif_drv.o)
                0x800205ac                lcdif_csc_config
                0x80020cdc                lcdif_display_setup
                0x80021010                image_center_copy
 .text          0x8002110c      0x318 /home/leon/git/swp-report/iMX6_Platform_SDK/output/mx6sl/lib/libsdk.a(pxp_drv.o)
                0x80021214                pxp_disable
                0x80021254                pxp_csc_process
 .text          0x80021424      0x3f4 /home/leon/git/swp-report/iMX6_Platform_SDK/output/mx6sl/lib/libsdk.a(ocotp.o)
                0x80021490                Delay4Reload
                0x800216d4                ocotp_sense_fuse
                0x80021744                ocotp_fuse_blow_row
                0x800217a0                ocotp_reload_otp_shadow_registers
 .text          0x80021818     0x132c /home/leon/git/swp-report/iMX6_Platform_SDK/output/mx6sl/lib/libsdk.a(ecspi.o)
                0x80021e08                ecspi_configure
                0x80022790                ecspi_open
                0x80022848                ecspi_close
                0x80022954                ecspi_xfer
 .text          0x80022b44      0x290 /home/leon/git/swp-report/iMX6_Platform_SDK/output/mx6sl/lib/libsdk.a(timer.o)
                0x80022b44                hal_delay_us
                0x80022bb4                system_time_init
                0x80022d14                time_get_microseconds
 .text          0x80022dd4     0x2820 /home/leon/git/swp-report/iMX6_Platform_SDK/output/mx6sl/lib/libsdk.a(imx_uart.o)
                0x80022dd4                uart_get_reffreq
                0x80022ed0                uart_putchar
                0x80023020                uart_getchar
                0x80023180                uart_set_FIFO_mode
                0x80023cac                uart_set_loopback_mode
                0x80023f00                uart_setup_interrupt
                0x80023fcc                uart_init
 .text          0x800255f4      0x368 /home/leon/git/swp-report/iMX6_Platform_SDK/output/mx6sl/lib/libsdk.a(usb_common.o)
                0x800255f4                usb_get_port_speed
                0x80025750                swap32
                0x800257cc                get_menu_item
 .text          0x8002595c     0x2374 /home/leon/git/swp-report/iMX6_Platform_SDK/output/mx6sl/lib/libsdk.a(usbh_drv.o)
                0x8002595c                usbh_init
                0x800262bc                usbh_periodic_schedule_init
                0x80027138                usbh_bus_reset
                0x80027320                usbh_enable_asynchronous_schedule
                0x80027508                usbh_disable_asynchronous_schedule
                0x800276f0                usbh_disable_Periodic_list
                0x800278d8                usbh_qtd_init
                0x80027b00                usbh_qh_init
 .text          0x80027cd0     0x11b8 /home/leon/git/swp-report/iMX6_Platform_SDK/output/mx6sl/lib/libsdk.a(usdhc.o)
                0x80027ee8                set_card_access_mode
                0x80027f28                read_usdhc_adma_mode
                0x80027f48                read_usdhc_intr_mode
                0x80027f68                card_init
                0x80028118                card_emmc_init
                0x800281ac                card_cmd_config
                0x800282c0                card_get_cid
                0x80028360                card_enter_trans
                0x8002843c                card_trans_status
                0x80028538                card_get_port
                0x80028620                card_set_blklen
                0x80028704                card_data_read
                0x800289f0                card_data_write
                0x80028cf0                card_xfer_result
                0x80028de4                card_wait_xfer_done
 .text          0x80028e88     0x3484 /home/leon/git/swp-report/iMX6_Platform_SDK/output/mx6sl/lib/libsdk.a(usdhc_host.o)
                0x8002a268                usdhc1_isr
                0x8002a280                usdhc2_isr
                0x8002a298                usdhc3_isr
                0x8002a2b0                usdhc4_isr
                0x8002a2c8                host_init
                0x8002a2f8                host_init_active
                0x8002a3a0                host_send_cmd
                0x8002a7c8                host_cfg_clock
                0x8002af64                host_set_bus_width
                0x8002af9c                host_reset
                0x8002b0cc                host_read_response
                0x8002b2bc                host_cfg_block
                0x8002b538                host_clear_fifo
                0x8002b6e4                host_setup_adma
                0x8002b904                host_data_read
                0x8002be0c                host_data_write
 .text          0x8002c30c      0xe04 /home/leon/git/swp-report/iMX6_Platform_SDK/output/mx6sl/lib/libsdk.a(usdhc_mmc.o)
                0x8002c8ac                mmc_init
                0x8002c950                emmc_init
                0x8002ca7c                emmc_print_cfg_info
                0x8002ccb4                mmc_set_boot_bus_width
                0x8002cd7c                mmc_set_boot_partition
                0x8002ce7c                mmc_set_boot_ack
                0x8002cf00                mmc_voltage_validation
 .text          0x8002d110      0x800 /home/leon/git/swp-report/iMX6_Platform_SDK/output/mx6sl/lib/libsdk.a(usdhc_sd.o)
                0x8002d4a4                sd_init
                0x8002d55c                sd_voltage_validation
 .text          0x8002d910       0x98 /home/leon/git/swp-report/iMX6_Platform_SDK/output/mx6sl/lib/libsdk.a(arm_abort.o)
                0x8002d910                common_abort_handler
                0x8002d970                data_abort_handler
                0x8002d988                prefetch_abort_handler
 .text          0x8002d9a8      0x644 /home/leon/git/swp-report/iMX6_Platform_SDK/output/mx6sl/lib/libsdk.a(armv7_cache.o)
                0x8002d9a8                arm_dcache_state_query
                0x8002d9e8                arm_dcache_enable
                0x8002da30                arm_dcache_disable
                0x8002da68                arm_dcache_invalidate
                0x8002db0c                arm_dcache_invalidate_line
                0x8002db78                arm_dcache_invalidate_mlines
                0x8002dc18                arm_dcache_flush
                0x8002dcbc                arm_dcache_flush_line
                0x8002dd28                arm_dcache_flush_mlines
                0x8002ddc8                arm_icache_state_query
                0x8002de08                arm_icache_enable
                0x8002de50                arm_icache_disable
                0x8002de88                arm_icache_invalidate
                0x8002deb4                arm_icache_invalidate_is
                0x8002dee0                arm_icache_invalidate_line
                0x8002df4c                arm_icache_invalidate_mlines
 .text          0x8002dfec      0x1bc /home/leon/git/swp-report/iMX6_Platform_SDK/output/mx6sl/lib/libsdk.a(interrupt.o)
                0x8002dfec                IRQ_HDLR
                0x8002e0b4                disable_interrupt
                0x8002e0f0                enable_interrupt
                0x8002e148                register_interrupt_routine
                0x8002e17c                default_interrupt_routine
 .text          0x8002e1a8        0x0 /home/leon/git/swp-report/iMX6_Platform_SDK/output/mx6sl/lib/libsdk.a(camera_profile.o)
 .text          0x8002e1a8      0x8e0 /home/leon/git/swp-report/iMX6_Platform_SDK/output/mx6sl/lib/libsdk.a(epit.o)
                0x8002e1a8                epit_reload_counter
                0x8002e208                epit_get_counter_value
                0x8002e264                epit_set_compare_event
                0x8002e2c4                epit_get_compare_event
                0x8002e3bc                epit_counter_disable
                0x8002e580                epit_counter_enable
                0x8002e7dc                epit_setup_interrupt
                0x8002e86c                epit_init
 .text          0x8002ea88      0x2fc /home/leon/git/swp-report/iMX6_Platform_SDK/output/mx6sl/lib/libsdk.a(mx6x_usb.o)
                0x8002ea88                usbEnableClocks
                0x8002ebb0                usbEnableTransceiver
 .text          0x8002ed84      0x4bc /home/leon/git/swp-report/iMX6_Platform_SDK/output/mx6sl/lib/libsdk.a(abort_handler.o)
                0x8002ed84                dump_regs
 .text          0x8002f240       0x50 /home/leon/git/swp-report/iMX6_Platform_SDK/output/mx6sl/lib/libboard_evk_rev_a.a(board_audio.o)
                0x8002f240                spdif_get_tx_clk_freq
                0x8002f25c                spdif_clk_cfg
                0x8002f26c                audio_codec_power_on
                0x8002f280                audio_clock_config
 .text          0x8002f290      0x1b0 /home/leon/git/swp-report/iMX6_Platform_SDK/output/mx6sl/lib/libboard_evk_rev_a.a(board_camera.o)
                0x8002f290                camera_power_on
                0x8002f2d0                sensor_reset
                0x8002f354                sensor_standby
                0x8002f3bc                sensor_clock_setting
 .text          0x8002f440      0x3dc /home/leon/git/swp-report/iMX6_Platform_SDK/output/mx6sl/lib/libboard_evk_rev_a.a(board_display.o)
                0x8002f440                lcdif_power_on
                0x8002f47c                lcdif_backlight_on
                0x8002f4b8                lcdif_clock_enable
                0x8002f534                epdc_clock_setting
                0x8002f5c4                sipix_epd_clock_setting
                0x8002f644                epdc_power_supply
                0x8002f6ec                spdc_power_up
 .text          0x8002f81c        0x0 /home/leon/git/swp-report/iMX6_Platform_SDK/output/mx6sl/lib/libboard_evk_rev_a.a(board_i2c.o)
 .text          0x8002f81c       0x10 /home/leon/git/swp-report/iMX6_Platform_SDK/output/mx6sl/lib/libboard_evk_rev_a.a(board_io_expanders.o)
                0x8002f81c                board_ioexpander_init
 .text          0x8002f82c      0x168 /home/leon/git/swp-report/iMX6_Platform_SDK/output/mx6sl/lib/libboard_evk_rev_a.a(board_usb.o)
                0x8002f82c                usbEnableVbus
                0x8002f8d8                usbDisableVbus
                0x8002f984                reset_usb_hub
 .text          0x8002f994      0x180 /home/leon/git/swp-report/iMX6_Platform_SDK/output/mx6sl/lib/libboard_evk_rev_a.a(board_usdhc.o)
                0x8002f994                usdhc_gpio_config
                0x8002f9b4                usdhc_card_detected
                0x8002fa64                usdhc_write_protected
 .text          0x8002fb14        0x0 /home/leon/git/swp-report/iMX6_Platform_SDK/output/mx6sl/lib/libboard_evk_rev_a.a(dcd.o)
 .text          0x8002fb14      0x10c /home/leon/git/swp-report/iMX6_Platform_SDK/output/mx6sl/lib/libboard_evk_rev_a.a(audmux_iomux_config.o)
                0x8002fb14                audmux_iomux_config
 .text          0x8002fc20        0x0 /home/leon/git/swp-report/iMX6_Platform_SDK/output/mx6sl/lib/libboard_evk_rev_a.a(hardware_modules.o)
 .text          0x8002fc20      0x320 /home/leon/git/swp-report/iMX6_Platform_SDK/output/mx6sl/lib/libboard_evk_rev_a.a(csi_iomux_config.o)
                0x8002fc20                csi_iomux_config
 .text          0x8002ff40       0x84 /home/leon/git/swp-report/iMX6_Platform_SDK/output/mx6sl/lib/libboard_evk_rev_a.a(ecspi_iomux_config.o)
                0x8002ff40                ecspi_iomux_config
 .text          0x8002ffc4      0x5d0 /home/leon/git/swp-report/iMX6_Platform_SDK/output/mx6sl/lib/libboard_evk_rev_a.a(epdc_iomux_config.o)
                0x8002ffc4                epdc_iomux_config
 .text          0x80030594      0x1dc /home/leon/git/swp-report/iMX6_Platform_SDK/output/mx6sl/lib/libboard_evk_rev_a.a(fec_iomux_config.o)
                0x80030594                fec_iomux_config
 .text          0x80030770       0x74 /home/leon/git/swp-report/iMX6_Platform_SDK/output/mx6sl/lib/libboard_evk_rev_a.a(i2c_iomux_config.o)
                0x80030770                i2c_iomux_config
 .text          0x800307e4      0x20c /home/leon/git/swp-report/iMX6_Platform_SDK/output/mx6sl/lib/libboard_evk_rev_a.a(iomux_config.o)
                0x800307e4                iomux_config
                0x80030850                arm_iomux_config
                0x80030860                ccm_iomux_config
                0x80030870                ecspi3_iomux_config
                0x80030880                ecspi4_iomux_config
                0x80030890                eim_iomux_config
                0x800308a0                epit1_iomux_config
                0x800308b0                epit2_iomux_config
                0x800308c0                gpio2_iomux_config
                0x800308d0                gpio3_iomux_config
                0x800308e0                gpio5_iomux_config
                0x800308f0                gpt_iomux_config
                0x80030900                pmu_iomux_config
                0x80030910                pwm2_iomux_config
                0x80030920                pwm3_iomux_config
                0x80030930                pwm4_iomux_config
                0x80030940                sdma_iomux_config
                0x80030950                snvs_iomux_config
                0x80030960                spdif_iomux_config
                0x80030970                src_iomux_config
                0x80030980                uart2_iomux_config
                0x80030990                uart3_iomux_config
                0x800309a0                uart4_iomux_config
                0x800309b0                uart5_iomux_config
                0x800309c0                usdhc4_iomux_config
                0x800309d0                wdog2_iomux_config
                0x800309e0                xtalosc_iomux_config
 .text          0x800309f0      0x1b0 /home/leon/git/swp-report/iMX6_Platform_SDK/output/mx6sl/lib/libboard_evk_rev_a.a(kpp_iomux_config.o)
                0x800309f0                kpp_iomux_config
 .text          0x80030ba0      0x5b4 /home/leon/git/swp-report/iMX6_Platform_SDK/output/mx6sl/lib/libboard_evk_rev_a.a(lcd_iomux_config.o)
                0x80030ba0                lcd_iomux_config
 .text          0x80031154     0x1644 /home/leon/git/swp-report/iMX6_Platform_SDK/output/mx6sl/lib/libboard_evk_rev_a.a(mmdc_iomux_config.o)
                0x80031154                mmdc_iomux_config
 .text          0x80032798       0x34 /home/leon/git/swp-report/iMX6_Platform_SDK/output/mx6sl/lib/libboard_evk_rev_a.a(pwm1_iomux_config.o)
                0x80032798                pwm1_iomux_config
 .text          0x800327cc       0x70 /home/leon/git/swp-report/iMX6_Platform_SDK/output/mx6sl/lib/libboard_evk_rev_a.a(sjc_iomux_config.o)
                0x800327cc                sjc_iomux_config
 .text          0x8003283c      0x250 /home/leon/git/swp-report/iMX6_Platform_SDK/output/mx6sl/lib/libboard_evk_rev_a.a(spdc_iomux_config.o)
                0x8003283c                spdc_iomux_config
 .text          0x80032a8c       0x78 /home/leon/git/swp-report/iMX6_Platform_SDK/output/mx6sl/lib/libboard_evk_rev_a.a(uart1_iomux_config.o)
                0x80032a8c                uart1_iomux_config
 .text          0x80032b04       0x90 /home/leon/git/swp-report/iMX6_Platform_SDK/output/mx6sl/lib/libboard_evk_rev_a.a(uart_iomux_config.o)
                0x80032b04                uart_iomux_config
 .text          0x80032b94       0xc0 /home/leon/git/swp-report/iMX6_Platform_SDK/output/mx6sl/lib/libboard_evk_rev_a.a(usb_iomux_config.o)
                0x80032b94                usb_iomux_config
 .text          0x80032c54      0x1e0 /home/leon/git/swp-report/iMX6_Platform_SDK/output/mx6sl/lib/libboard_evk_rev_a.a(usdhc1_iomux_config.o)
                0x80032c54                usdhc1_iomux_config
 .text          0x80032e34      0x174 /home/leon/git/swp-report/iMX6_Platform_SDK/output/mx6sl/lib/libboard_evk_rev_a.a(usdhc2_iomux_config.o)
                0x80032e34                usdhc2_iomux_config
 .text          0x80032fa8      0x11c /home/leon/git/swp-report/iMX6_Platform_SDK/output/mx6sl/lib/libboard_evk_rev_a.a(usdhc3_iomux_config.o)
                0x80032fa8                usdhc3_iomux_config
 .text          0x800330c4       0x84 /home/leon/git/swp-report/iMX6_Platform_SDK/output/mx6sl/lib/libboard_evk_rev_a.a(usdhc_iomux_config.o)
                0x800330c4                usdhc_iomux_config
 .text          0x80033148       0x34 /home/leon/git/swp-report/iMX6_Platform_SDK/output/mx6sl/lib/libboard_evk_rev_a.a(wdog1_iomux_config.o)
                0x80033148                wdog1_iomux_config
 .text          0x8003317c       0xe0 /home/leon/git/swp-report/iMX6_Platform_SDK/output/mx6sl/lib/libboard_evk_rev_a.a(ecspi1_iomux_config.o)
                0x8003317c                ecspi1_iomux_config
 .text          0x8003325c       0xe0 /home/leon/git/swp-report/iMX6_Platform_SDK/output/mx6sl/lib/libboard_evk_rev_a.a(ecspi2_iomux_config.o)
                0x8003325c                ecspi2_iomux_config
 .text          0x8003333c       0x10 /home/leon/git/swp-report/iMX6_Platform_SDK/output/mx6sl/lib/libboard_evk_rev_a.a(gpio1_iomux_config.o)
                0x8003333c                gpio1_iomux_config
 .text          0x8003334c       0x10 /home/leon/git/swp-report/iMX6_Platform_SDK/output/mx6sl/lib/libboard_evk_rev_a.a(gpio4_iomux_config.o)
                0x8003334c                gpio4_iomux_config
 .text          0x8003335c       0x78 /home/leon/git/swp-report/iMX6_Platform_SDK/output/mx6sl/lib/libboard_evk_rev_a.a(i2c1_iomux_config.o)
                0x8003335c                i2c1_iomux_config
 .text          0x800333d4       0x78 /home/leon/git/swp-report/iMX6_Platform_SDK/output/mx6sl/lib/libboard_evk_rev_a.a(i2c2_iomux_config.o)
                0x800333d4                i2c2_iomux_config
 .text          0x8003344c       0x70 /home/leon/git/swp-report/iMX6_Platform_SDK/output/mx6sl/lib/libboard_evk_rev_a.a(i2c3_iomux_config.o)
                0x8003344c                i2c3_iomux_config
 .text          0x800334bc       0x68 /home/leon/riotboard/arm-2012.09/bin/../arm-none-eabi/lib//libc.a(lib_a-assert.o)
                0x800334bc                __assert_func
                0x80033514                __assert
 .text          0x80033524       0x20 /home/leon/riotboard/arm-2012.09/bin/../arm-none-eabi/lib//libc.a(lib_a-bzero.o)
                0x80033524                bzero
 .text          0x80033544       0x70 /home/leon/riotboard/arm-2012.09/bin/../arm-none-eabi/lib//libc.a(lib_a-fiprintf.o)
                0x80033544                _fiprintf_r
                0x80033574                fiprintf
 .text          0x800335b4       0x94 /home/leon/riotboard/arm-2012.09/bin/../arm-none-eabi/lib//libc.a(lib_a-fputc.o)
                0x800335b4                _fputc_r
                0x800335f8                fputc
 .text          0x80033648        0x0 /home/leon/riotboard/arm-2012.09/bin/../arm-none-eabi/lib//libc.a(lib_a-impure.o)
 .text          0x80033648       0x88 /home/leon/riotboard/arm-2012.09/bin/../arm-none-eabi/lib//libc.a(lib_a-init.o)
                0x80033648                __libc_init_array
 .text          0x800336d0       0x40 /home/leon/riotboard/arm-2012.09/bin/../arm-none-eabi/lib//libc.a(lib_a-malloc.o)
                0x800336d0                malloc
                0x800336f0                free
 .text          0x80033710      0x71c /home/leon/riotboard/arm-2012.09/bin/../arm-none-eabi/lib//libc.a(lib_a-mallocr.o)
                0x80033710                _malloc_r
 .text          0x80033e2c      0x20c /home/leon/riotboard/arm-2012.09/bin/../arm-none-eabi/lib//libc.a(lib_a-memcpy.o)
                0x80033e2c                memcpy
 .text          0x80034038      0x134 /home/leon/riotboard/arm-2012.09/bin/../arm-none-eabi/lib//libc.a(lib_a-memset.o)
                0x80034038                memset
 .text          0x8003416c        0x8 /home/leon/riotboard/arm-2012.09/bin/../arm-none-eabi/lib//libc.a(lib_a-mlock.o)
                0x8003416c                __malloc_lock
                0x80034170                __malloc_unlock
 .text          0x80034174       0x74 /home/leon/riotboard/arm-2012.09/bin/../arm-none-eabi/lib//libc.a(lib_a-printf.o)
                0x80034174                _printf_r
                0x800341a8                printf
 .text          0x800341e8      0x170 /home/leon/riotboard/arm-2012.09/bin/../arm-none-eabi/lib//libc.a(lib_a-putc.o)
                0x800341e8                _putc_r
                0x80034298                putc
 .text          0x80034358       0x28 /home/leon/riotboard/arm-2012.09/bin/../arm-none-eabi/lib//libc.a(lib_a-realloc.o)
                0x80034358                realloc
 .text          0x80034380      0x574 /home/leon/riotboard/arm-2012.09/bin/../arm-none-eabi/lib//libc.a(lib_a-reallocr.o)
                0x80034380                _realloc_r
 .text          0x800348f4       0x6c /home/leon/riotboard/arm-2012.09/bin/../arm-none-eabi/lib//libc.a(lib_a-rget.o)
                0x800348f4                __srget_r
                0x8003494c                __srget
 .text          0x80034960       0x40 /home/leon/riotboard/arm-2012.09/bin/../arm-none-eabi/lib//libc.a(lib_a-sbrkr.o)
                0x80034960                _sbrk_r
 .text          0x800349a0       0xdc /home/leon/riotboard/arm-2012.09/bin/../arm-none-eabi/lib//libc.a(lib_a-sprintf.o)
                0x800349a0                _sprintf_r
                0x80034a08                sprintf
 .text          0x80034a7c       0xa0 /home/leon/riotboard/arm-2012.09/bin/../arm-none-eabi/lib//libc.a(lib_a-strcat.o)
                0x80034a7c                strcat
 .text          0x80034b1c      0x230 /home/leon/riotboard/arm-2012.09/bin/../arm-none-eabi/lib//libc.a(lib_a-strcmp.o)
                0x80034b1c                strcmp
 .text          0x80034d4c       0xf0 /home/leon/riotboard/arm-2012.09/bin/../arm-none-eabi/lib//libc.a(lib_a-strcpy.o)
                0x80034d4c                strcpy
 .text          0x80034e3c       0x60 /home/leon/riotboard/arm-2012.09/bin/../arm-none-eabi/lib//libc.a(lib_a-strlen.o)
                0x80034e3c                strlen
 .text          0x80034e9c       0x78 /home/leon/riotboard/arm-2012.09/bin/../arm-none-eabi/lib//libc.a(lib_a-strncasecmp.o)
                0x80034e9c                strncasecmp
 .text          0x80034f14       0x24 /home/leon/riotboard/arm-2012.09/bin/../arm-none-eabi/lib//libc.a(lib_a-strtok.o)
                0x80034f14                strtok
 .text          0x80034f38       0xb8 /home/leon/riotboard/arm-2012.09/bin/../arm-none-eabi/lib//libc.a(lib_a-strtok_r.o)
                0x80034f38                __strtok_r
                0x80034fe8                strtok_r
 .text          0x80034ff0     0x1f7c /home/leon/riotboard/arm-2012.09/bin/../arm-none-eabi/lib//libc.a(lib_a-svfprintf.o)
                0x80034ff0                _svfprintf_r
 .text          0x80036f6c     0x12c4 /home/leon/riotboard/arm-2012.09/bin/../arm-none-eabi/lib//libc.a(lib_a-vfiprintf.o)
                0x80036f6c                __sprint_r
                0x80037028                _vfiprintf_r
                0x80038204                vfiprintf
 .text          0x80038230     0x2180 /home/leon/riotboard/arm-2012.09/bin/../arm-none-eabi/lib//libc.a(lib_a-vfprintf.o)
                0x80038230                _vfprintf_r
                0x8003a384                vfprintf
 .text          0x8003a3b0       0x4c /home/leon/riotboard/arm-2012.09/bin/../arm-none-eabi/lib//libc.a(lib_a-vprintf.o)
                0x8003a3b0                vprintf
                0x8003a3dc                _vprintf_r
 .text          0x8003a3fc      0x14c /home/leon/riotboard/arm-2012.09/bin/../arm-none-eabi/lib//libc.a(lib_a-wbuf.o)
                0x8003a3fc                __swbuf_r
                0x8003a52c                __swbuf
 .text          0x8003a548      0x138 /home/leon/riotboard/arm-2012.09/bin/../arm-none-eabi/lib//libc.a(lib_a-wsetup.o)
                0x8003a548                __swsetup_r
 .text          0x8003a680       0x14 /home/leon/riotboard/arm-2012.09/bin/../arm-none-eabi/lib//libc.a(lib_a-abort.o)
                0x8003a680                abort
 .text          0x8003a694        0x0 /home/leon/riotboard/arm-2012.09/bin/../arm-none-eabi/lib//libc.a(lib_a-ctype_.o)
 *fill*         0x8003a694        0x4 
 .text          0x8003a698     0x18a8 /home/leon/riotboard/arm-2012.09/bin/../arm-none-eabi/lib//libc.a(lib_a-dtoa.o)
                0x8003a878                _dtoa_r
 .text          0x8003bf40      0x26c /home/leon/riotboard/arm-2012.09/bin/../arm-none-eabi/lib//libc.a(lib_a-fflush.o)
                0x8003bf40                _fflush_r
                0x8003c16c                fflush
 .text          0x8003c1ac      0x2c4 /home/leon/riotboard/arm-2012.09/bin/../arm-none-eabi/lib//libc.a(lib_a-findfp.o)
                0x8003c1bc                _cleanup_r
                0x8003c250                __sfmoreglue
                0x8003c298                _cleanup
                0x8003c2a8                __sinit
                0x8003c320                __sfp
                0x8003c418                __sfp_lock_acquire
                0x8003c41c                __sfp_lock_release
                0x8003c420                __sinit_lock_acquire
                0x8003c424                __sinit_lock_release
                0x8003c428                __fp_lock_all
                0x8003c44c                __fp_unlock_all
 .text          0x8003c470      0x19c /home/leon/riotboard/arm-2012.09/bin/../arm-none-eabi/lib//libc.a(lib_a-fputwc.o)
                0x8003c470                _fputwc_r
                0x8003c5c0                fputwc
 .text          0x8003c60c      0x368 /home/leon/riotboard/arm-2012.09/bin/../arm-none-eabi/lib//libc.a(lib_a-freer.o)
                0x8003c60c                _malloc_trim_r
                0x8003c708                _free_r
 .text          0x8003c974      0x4c4 /home/leon/riotboard/arm-2012.09/bin/../arm-none-eabi/lib//libc.a(lib_a-fvwrite.o)
                0x8003c974                __sfvwrite_r
 .text          0x8003ce38      0x114 /home/leon/riotboard/arm-2012.09/bin/../arm-none-eabi/lib//libc.a(lib_a-fwalk.o)
                0x8003ce38                _fwalk
                0x8003cec0                _fwalk_reent
 .text          0x8003cf4c       0xd0 /home/leon/riotboard/arm-2012.09/bin/../arm-none-eabi/lib//libc.a(lib_a-locale.o)
                0x8003cf4c                _setlocale_r
                0x8003cfb8                __locale_charset
                0x8003cfc4                __locale_mb_cur_max
                0x8003cfd4                __locale_msgcharset
                0x8003cfe0                __locale_cjk_lang
                0x8003cfe8                _localeconv_r
                0x8003cff4                setlocale
                0x8003d010                localeconv
 .text          0x8003d01c      0x15c /home/leon/riotboard/arm-2012.09/bin/../arm-none-eabi/lib//libc.a(lib_a-makebuf.o)
                0x8003d01c                __smakebuf_r
 .text          0x8003d178      0x11c /home/leon/riotboard/arm-2012.09/bin/../arm-none-eabi/lib//libc.a(lib_a-memchr.o)
                0x8003d178                memchr
 .text          0x8003d294      0x134 /home/leon/riotboard/arm-2012.09/bin/../arm-none-eabi/lib//libc.a(lib_a-memmove.o)
                0x8003d294                memmove
 .text          0x8003d3c8      0xd20 /home/leon/riotboard/arm-2012.09/bin/../arm-none-eabi/lib//libc.a(lib_a-mprec.o)
                0x8003d3c8                _Balloc
                0x8003d454                _Bfree
                0x8003d470                __multadd
                0x8003d54c                __s2b
                0x8003d63c                __hi0bits
                0x8003d68c                __lo0bits
                0x8003d720                __i2b
                0x8003d744                __multiply
                0x8003d928                __pow5mult
                0x8003da1c                __lshift
                0x8003db20                __mcmp
                0x8003db84                __mdiff
                0x8003dcd0                __ulp
                0x8003dd34                __b2d
                0x8003de00                __d2b
                0x8003df08                __ratio
                0x8003df98                _mprec_log10
                0x8003dfec                __copybits
                0x8003e060                __any_on
 .text          0x8003e0e8      0x19c /home/leon/riotboard/arm-2012.09/bin/../arm-none-eabi/lib//libc.a(lib_a-reent.o)
                0x8003e0e8                cleanup_glue
                0x8003e114                _reclaim_reent
                0x8003e210                _wrapup_reent
 .text          0x8003e284      0x1cc /home/leon/riotboard/arm-2012.09/bin/../arm-none-eabi/lib//libc.a(lib_a-refill.o)
                0x8003e2ac                __srefill_r
 .text          0x8003e450       0x6c /home/leon/riotboard/arm-2012.09/bin/../arm-none-eabi/lib//libc.a(lib_a-s_fpclassify.o)
                0x8003e450                __fpclassifyd
 .text          0x8003e4bc      0x24c /home/leon/riotboard/arm-2012.09/bin/../arm-none-eabi/lib//libc.a(lib_a-signal.o)
                0x8003e4bc                _init_signal_r
                0x8003e51c                _signal_r
                0x8003e588                _raise_r
                0x8003e620                __sigtramp_r
                0x8003e6b4                raise
                0x8003e6c8                signal
                0x8003e6e4                _init_signal
                0x8003e6f4                __sigtramp
 .text          0x8003e708       0x50 /home/leon/riotboard/arm-2012.09/bin/../arm-none-eabi/lib//libc.a(lib_a-signalr.o)
                0x8003e708                _kill_r
                0x8003e748                _getpid_r
 .text          0x8003e758       0xdc /home/leon/riotboard/arm-2012.09/bin/../arm-none-eabi/lib//libc.a(lib_a-stdio.o)
                0x8003e758                __sread
                0x8003e78c                __seofread
                0x8003e794                __swrite
                0x8003e7ec                __sseek
                0x8003e820                __sclose
 .text          0x8003e834     0x1224 /home/leon/riotboard/arm-2012.09/bin/../arm-none-eabi/lib//libc.a(lib_a-svfiprintf.o)
                0x8003e834                __ssprint_r
                0x8003e9d8                _svfiprintf_r
 .text          0x8003fa58      0x134 /home/leon/riotboard/arm-2012.09/bin/../arm-none-eabi/lib//libc.a(lib_a-wcrtomb.o)
                0x8003fa58                _wcrtomb_r
                0x8003fae8                wcrtomb
 .text          0x8003fb8c       0x7c /home/leon/riotboard/arm-2012.09/bin/../arm-none-eabi/lib//libc.a(lib_a-wctomb_r.o)
                0x8003fb8c                __ascii_wctomb
                0x8003fbb8                _wctomb_r
 .text          0x8003fc08       0x44 /home/leon/riotboard/arm-2012.09/bin/../arm-none-eabi/lib//libc.a(lib_a-writer.o)
                0x8003fc08                _write_r
 .text          0x8003fc4c       0x94 /home/leon/riotboard/arm-2012.09/bin/../arm-none-eabi/lib//libc.a(lib_a-callocr.o)
                0x8003fc4c                _calloc_r
 .text          0x8003fce0       0x3c /home/leon/riotboard/arm-2012.09/bin/../arm-none-eabi/lib//libc.a(lib_a-closer.o)
                0x8003fce0                _close_r
 .text          0x8003fd1c      0x10c /home/leon/riotboard/arm-2012.09/bin/../arm-none-eabi/lib//libc.a(lib_a-fclose.o)
                0x8003fd1c                _fclose_r
                0x8003fe14                fclose
 .text          0x8003fe28       0x40 /home/leon/riotboard/arm-2012.09/bin/../arm-none-eabi/lib//libc.a(lib_a-fstatr.o)
                0x8003fe28                _fstat_r
 .text          0x8003fe68       0x3c /home/leon/riotboard/arm-2012.09/bin/../arm-none-eabi/lib//libc.a(lib_a-isattyr.o)
                0x8003fe68                _isatty_r
 .text          0x8003fea4       0x44 /home/leon/riotboard/arm-2012.09/bin/../arm-none-eabi/lib//libc.a(lib_a-lseekr.o)
                0x8003fea4                _lseek_r
 .text          0x8003fee8       0x44 /home/leon/riotboard/arm-2012.09/bin/../arm-none-eabi/lib//libc.a(lib_a-readr.o)
                0x8003fee8                _read_r
 .text          0x8003ff2c      0x114 /home/leon/riotboard/arm-2012.09/bin/../lib/gcc/arm-none-eabi/4.7.2//libgcc.a(_udivsi3.o)
                0x8003ff2c                __udivsi3
                0x8003ff2c                __aeabi_uidiv
                0x80040020                __aeabi_uidivmod
 .text          0x80040040      0x148 /home/leon/riotboard/arm-2012.09/bin/../lib/gcc/arm-none-eabi/4.7.2//libgcc.a(_divsi3.o)
                0x80040040                __aeabi_idiv
                0x80040040                __divsi3
                0x80040168                __aeabi_idivmod
 .text          0x80040188        0x4 /home/leon/riotboard/arm-2012.09/bin/../lib/gcc/arm-none-eabi/4.7.2//libgcc.a(_dvmd_tls.o)
                0x80040188                __aeabi_ldiv0
                0x80040188                __aeabi_idiv0
 .text          0x8004018c      0x41c /home/leon/riotboard/arm-2012.09/bin/../lib/gcc/arm-none-eabi/4.7.2//libgcc.a(_arm_addsubdf3.o)
                0x8004018c                __aeabi_drsub
                0x80040194                __aeabi_dsub
                0x80040194                __subdf3
                0x80040198                __adddf3
                0x80040198                __aeabi_dadd
                0x800404a8                __aeabi_ui2d
                0x800404a8                __floatunsidf
                0x800404cc                __floatsidf
                0x800404cc                __aeabi_i2d
                0x800404f4                __extendsfdf2
                0x800404f4                __aeabi_f2d
                0x80040534                __aeabi_ul2d
                0x80040534                __floatundidf
                0x80040548                __floatdidf
                0x80040548                __aeabi_l2d
 .text          0x800405a8      0x49c /home/leon/riotboard/arm-2012.09/bin/../lib/gcc/arm-none-eabi/4.7.2//libgcc.a(_arm_muldivdf3.o)
                0x800405a8                __aeabi_dmul
                0x800405a8                __muldf3
                0x80040838                __aeabi_ddiv
                0x80040838                __divdf3
 .text          0x80040a44      0x144 /home/leon/riotboard/arm-2012.09/bin/../lib/gcc/arm-none-eabi/4.7.2//libgcc.a(_arm_cmpdf2.o)
                0x80040a44                __gtdf2
                0x80040a44                __gedf2
                0x80040a4c                __ltdf2
                0x80040a4c                __ledf2
                0x80040a54                __cmpdf2
                0x80040a54                __eqdf2
                0x80040a54                __nedf2
                0x80040adc                __aeabi_cdrcmple
                0x80040af8                __aeabi_cdcmple
                0x80040af8                __aeabi_cdcmpeq
                0x80040b10                __aeabi_dcmpeq
                0x80040b28                __aeabi_dcmplt
                0x80040b40                __aeabi_dcmple
                0x80040b58                __aeabi_dcmpge
                0x80040b70                __aeabi_dcmpgt
 .text          0x80040b88       0x5c /home/leon/riotboard/arm-2012.09/bin/../lib/gcc/arm-none-eabi/4.7.2//libgcc.a(_arm_fixdfsi.o)
                0x80040b88                __fixdfsi
                0x80040b88                __aeabi_d2iz
 .text          0x80040be4       0x3c /home/leon/riotboard/arm-2012.09/bin/../lib/gcc/arm-none-eabi/4.7.2//libgcc.a(_aeabi_uldivmod.o)
                0x80040be4                __aeabi_uldivmod
 .text          0x80040c20       0x84 /home/leon/riotboard/arm-2012.09/bin/../lib/gcc/arm-none-eabi/4.7.2//libgcc.a(bpabi.o)
                0x80040c20                __gnu_ldivmod_helper
                0x80040c64                __gnu_uldivmod_helper
 .text          0x80040ca4      0x4f0 /home/leon/riotboard/arm-2012.09/bin/../lib/gcc/arm-none-eabi/4.7.2//libgcc.a(_divdi3.o)
                0x80040ca4                __divdi3
 .text          0x80041194      0x488 /home/leon/riotboard/arm-2012.09/bin/../lib/gcc/arm-none-eabi/4.7.2//libgcc.a(_udivdi3.o)
                0x80041194                __udivdi3
 .text          0x8004161c       0x48 /home/leon/riotboard/arm-2012.09/bin/../lib/gcc/arm-none-eabi/4.7.2//libgcc.a(_clzsi2.o)
                0x8004161c                __clzsi2
 .text          0x80041664      0x610 /home/leon/git/swp-report/iMX6_Platform_SDK/output/mx6sl/lib/libsdk.a(runtime_support.o)
                0x80041664                _execve
                0x800416a0                _fork
                0x800416c8                _isatty
                0x800416ec                _open
                0x80041718                _close
                0x8004173c                _lseek
                0x80041768                _fstat
                0x8004179c                _read
                0x8004186c                _write
                0x80041958                _raw_puts
                0x800419d8                _sbrk
                0x80041a88                _exit
                0x80041aa8                _kill
                0x80041ae0                _getpid
                0x80041af8                _link
                0x80041b30                _unlink
                0x80041b64                _stat
                0x80041b98                _times
                0x80041bbc                _gettimeofday
                0x80041c40                _wait
 *(.glue_7t)
 .glue_7t       0x00000000        0x0 linker stubs
 *(.glue_7)
 .glue_7        0x00000000        0x0 linker stubs
 *(.vfp11_veneer)
 .vfp11_veneer  0x00000000        0x0 linker stubs
 *(.ARM.extab* .gnu.linkonce.armextab.*)
 .ARM.extab.startup
                0x80041c74        0x0 /home/leon/git/swp-report/iMX6_Platform_SDK/output/mx6sl/lib/libsdk.a(startup.o)
 .ARM.extab     0x80041c74        0x0 /home/leon/riotboard/arm-2012.09/bin/../lib/gcc/arm-none-eabi/4.7.2//libgcc.a(_divdi3.o)
 .ARM.extab     0x80041c74        0x0 /home/leon/riotboard/arm-2012.09/bin/../lib/gcc/arm-none-eabi/4.7.2//libgcc.a(_udivdi3.o)
 *(.gcc_except_table)

.v4_bx          0x80041c74        0x0
 .v4_bx         0x00000000        0x0 linker stubs

.iplt           0x80041c74        0x0
 .iplt          0x00000000        0x0 /home/leon/riotboard/arm-2012.09/bin/../lib/gcc/arm-none-eabi/4.7.2//crtbegin.o

.ctors
 *crtbegin.o(.ctors)
 *crtbegin?.o(.ctors)
 *(EXCLUDE_FILE(*crtend?.o *crtend.o) .ctors)
 *(SORT(.ctors.*))
 *(.ctors)

.dtors
 *crtbegin.o(.dtors)
 *crtbegin?.o(.dtors)
 *(EXCLUDE_FILE(*crtend?.o *crtend.o) .dtors)
 *(SORT(.dtors.*))
 *(.dtors)

.rodata         0x80041c78     0x6c60
 *(.rodata .rodata.* .gnu.linkonce.r.*)
 .rodata        0x80041c78       0x9c /home/leon/git/swp-report/iMX6_Platform_SDK/output/mx6sl/obds/evk_rev_a/obj/apps/common/print_clock_info.o
 .rodata        0x80041d14      0x100 /home/leon/git/swp-report/iMX6_Platform_SDK/output/mx6sl/obds/evk_rev_a/obj/apps/common/print_version.o
 .rodata        0x80041e14      0x62c /home/leon/git/swp-report/iMX6_Platform_SDK/output/mx6sl/obds/evk_rev_a/obj/apps/obds/src/obds.o
                0x80042108                MenuList_All_Tests
                0x80042164                Menu_Commands
                0x8004221c                CPU_Tests
                0x80042410                MainBoard_Tests
 .rodata        0x80042440      0x318 /home/leon/git/swp-report/iMX6_Platform_SDK/output/mx6sl/obds/evk_rev_a/obj/apps/obds/src/obds_utils.o
 .rodata        0x80042758      0x368 /home/leon/git/swp-report/iMX6_Platform_SDK/output/mx6sl/obds/evk_rev_a/obj/apps/obds/src/tests/audio_ssi_test.o
                0x80042758                g_audio_ssi_test_name
 .rodata        0x80042ac0        0xc /home/leon/git/swp-report/iMX6_Platform_SDK/output/mx6sl/obds/evk_rev_a/obj/apps/obds/src/tests/ddr_test.o
                0x80042ac0                g_ddr_test_name
 .rodata        0x80042acc       0x84 /home/leon/git/swp-report/iMX6_Platform_SDK/output/mx6sl/obds/evk_rev_a/obj/apps/obds/src/tests/flexcan_test.o
                0x80042acc                g_flexcan_test_name
 .rodata        0x80042b50       0x34 /home/leon/git/swp-report/iMX6_Platform_SDK/output/mx6sl/obds/evk_rev_a/obj/apps/obds/src/tests/gpio_led.o
                0x80042b50                g_gpio_led_test_name
 .rodata        0x80042b84       0x20 /home/leon/git/swp-report/iMX6_Platform_SDK/output/mx6sl/obds/evk_rev_a/obj/apps/obds/src/tests/gps_test.o
 .rodata        0x80042ba4      0x10c /home/leon/git/swp-report/iMX6_Platform_SDK/output/mx6sl/obds/evk_rev_a/obj/apps/obds/src/tests/i2c_check_light_sensor_isl29023.o
                0x80042ba4                g_isl29023_i2c_device_id_test_name
 .rodata        0x80042cb0       0x6c /home/leon/git/swp-report/iMX6_Platform_SDK/output/mx6sl/obds/evk_rev_a/obj/apps/obds/src/tests/i2c_device_barometer_ppl3115.o
                0x80042cb0                g_ppl3115_i2c_device_id_test_name
 .rodata        0x80042d1c       0xb4 /home/leon/git/swp-report/iMX6_Platform_SDK/output/mx6sl/obds/evk_rev_a/obj/apps/obds/src/tests/i2c_device_digital_compass_mag3110.o
                0x80042d1c                g_mag3110_i2c_device_id_test_name
 .rodata        0x80042dd0       0xb4 /home/leon/git/swp-report/iMX6_Platform_SDK/output/mx6sl/obds/evk_rev_a/obj/apps/obds/src/tests/i2c_device_digital_compass_mag3112.o
                0x80042dd0                g_mag3112_i2c_device_id_test_name
 .rodata        0x80042e84      0x138 /home/leon/git/swp-report/iMX6_Platform_SDK/output/mx6sl/obds/evk_rev_a/obj/apps/obds/src/tests/i2c_device_id_check_mma8450.o
                0x80042e84                g_mma8450_i2c_device_id_test_name
 .rodata        0x80042fbc      0x138 /home/leon/git/swp-report/iMX6_Platform_SDK/output/mx6sl/obds/evk_rev_a/obj/apps/obds/src/tests/i2c_device_id_check_mma8451.o
                0x80042fbc                g_mma8451_i2c_device_id_test_name
 .rodata        0x800430f4       0xf8 /home/leon/git/swp-report/iMX6_Platform_SDK/output/mx6sl/obds/evk_rev_a/obj/apps/obds/src/tests/i2c_device_temp_sensor_emc1046.o
                0x800430f4                g_emc1046_i2c_device_id_test_name
 .rodata        0x800431ec       0x90 /home/leon/git/swp-report/iMX6_Platform_SDK/output/mx6sl/obds/evk_rev_a/obj/apps/obds/src/tests/i2c_device_zigbee_mc1323.o
 .rodata        0x8004327c       0x88 /home/leon/git/swp-report/iMX6_Platform_SDK/output/mx6sl/obds/evk_rev_a/obj/apps/obds/src/tests/i2c_eeprom_at24cxx_test.o
 .rodata        0x80043304      0x1a0 /home/leon/git/swp-report/iMX6_Platform_SDK/output/mx6sl/obds/evk_rev_a/obj/apps/obds/src/tests/imx_spi_nor_test.o
                0x80043304                g_spi_nor_test_name
 .rodata        0x800434a4      0x244 /home/leon/git/swp-report/iMX6_Platform_SDK/output/mx6sl/obds/evk_rev_a/obj/apps/obds/src/tests/keyboard_test.o
                0x800434a4                g_keypad_port_test_name
 .rodata        0x800436e8      0x23c /home/leon/git/swp-report/iMX6_Platform_SDK/output/mx6sl/obds/evk_rev_a/obj/apps/obds/src/tests/mmcsd_test.o
                0x800436e8                g_mmcsd_test_name
 .rodata        0x80043924      0x718 /home/leon/git/swp-report/iMX6_Platform_SDK/output/mx6sl/obds/evk_rev_a/obj/apps/obds/src/tests/pmic_da9053.o
 .rodata        0x8004403c      0x734 /home/leon/git/swp-report/iMX6_Platform_SDK/output/mx6sl/obds/evk_rev_a/obj/apps/obds/src/tests/pmic_lt3589.o
 .rodata        0x80044770       0x54 /home/leon/git/swp-report/iMX6_Platform_SDK/output/mx6sl/obds/evk_rev_a/obj/apps/obds/src/tests/pmic_max17135.o
                0x80044770                g_max17135_i2c_device_id_test_name
 .rodata        0x800447c4       0x48 /home/leon/git/swp-report/iMX6_Platform_SDK/output/mx6sl/obds/evk_rev_a/obj/apps/obds/src/tests/pmic_mc13892.o
 .rodata        0x8004480c      0x3e4 /home/leon/git/swp-report/iMX6_Platform_SDK/output/mx6sl/obds/evk_rev_a/obj/apps/obds/src/tests/program_board_id.o
                0x8004480c                g_program_board_id_test_name
 .rodata        0x80044bf0      0x3c8 /home/leon/git/swp-report/iMX6_Platform_SDK/output/mx6sl/obds/evk_rev_a/obj/apps/obds/src/tests/program_mac_address.o
                0x80044bf0                g_program_mac_address_test_name
 .rodata        0x80044fb8      0x1bc /home/leon/git/swp-report/iMX6_Platform_SDK/output/mx6sl/obds/evk_rev_a/obj/apps/obds/src/tests/snvs_srtc_test.o
                0x80044fb8                g_snvs_srtc_test_name
 .rodata        0x80045174      0x10c /home/leon/git/swp-report/iMX6_Platform_SDK/output/mx6sl/obds/evk_rev_a/obj/apps/obds/src/tests/touch_screen.o
 .rodata        0x80045280      0x1b0 /home/leon/git/swp-report/iMX6_Platform_SDK/output/mx6sl/obds/evk_rev_a/obj/apps/obds/src/tests/touch_screen_max11801.o
 .rodata        0x80045430      0x2ac /home/leon/git/swp-report/iMX6_Platform_SDK/output/mx6sl/obds/evk_rev_a/obj/apps/obds/src/tests/usb_tests_obds.o
                0x80045430                g_usb_otg_dev_enum_test_name
                0x80045450                g_usb_host1_dev_enum_test_name
 .rodata        0x800456dc      0x180 /home/leon/git/swp-report/iMX6_Platform_SDK/output/mx6sl/obds/evk_rev_a/obj/apps/obds/src/tests/weim_nor_flash_test.o
                0x800456dc                g_eim_NOR_flash_test_name
 .rodata        0x8004585c       0x98 /home/leon/git/swp-report/iMX6_Platform_SDK/output/mx6sl/obds/evk_rev_a/obj/sdk/common/pmic/pfuse/pf0100.o
                0x8004585c                g_pmic_pf0100_i2c_device_id_test_name
 .rodata        0x800458f4       0x84 /home/leon/git/swp-report/iMX6_Platform_SDK/output/mx6sl/obds/evk_rev_a/obj/sdk/drivers/audio/src/snd_card.o
 .rodata        0x80045978       0x88 /home/leon/git/swp-report/iMX6_Platform_SDK/output/mx6sl/obds/evk_rev_a/obj/sdk/drivers/camera/test/camera_test.o
                0x80045978                g_camera_test_name
 .rodata        0x80045a00       0x2c /home/leon/git/swp-report/iMX6_Platform_SDK/output/mx6sl/obds/evk_rev_a/obj/sdk/drivers/camera/test/csi_sensor_capture.o
 .rodata        0x80045a2c       0x68 /home/leon/git/swp-report/iMX6_Platform_SDK/output/mx6sl/obds/evk_rev_a/obj/sdk/drivers/epdc/test/epdc_test.o
                0x80045a2c                g_epdc_test_name
 .rodata        0x80045a94      0x204 /home/leon/git/swp-report/iMX6_Platform_SDK/output/mx6sl/obds/evk_rev_a/obj/sdk/drivers/fec/test/fec_test.o
                0x80045a94                g_fec_enet_test_name
 .rodata        0x80045c98       0x6c /home/leon/git/swp-report/iMX6_Platform_SDK/output/mx6sl/obds/evk_rev_a/obj/sdk/drivers/lcdif/test/lcdif_display.o
                0x80045c98                g_lcd_display_test_name
 .rodata        0x80045d04      0x194 /home/leon/git/swp-report/iMX6_Platform_SDK/output/mx6sl/obds/evk_rev_a/obj/sdk/drivers/spi/test/imx_spi_nor_atmel.o
 .rodata        0x80045e98      0x118 /home/leon/git/swp-report/iMX6_Platform_SDK/output/mx6sl/obds/evk_rev_a/obj/sdk/drivers/spi/test/spi_nor_numonyx.o
 .rodata        0x80045fb0       0xb0 /home/leon/git/swp-report/iMX6_Platform_SDK/output/mx6sl/obds/evk_rev_a/obj/sdk/drivers/uart/test/uart_test.o
                0x80045fb0                g_uart_test_name
 .rodata        0x80046060      0x218 /home/leon/git/swp-report/iMX6_Platform_SDK/output/mx6sl/obds/evk_rev_a/obj/sdk/drivers/usb/test/usb0_host_test.o
 .rodata        0x80046278       0xa8 /home/leon/git/swp-report/iMX6_Platform_SDK/output/mx6sl/obds/evk_rev_a/obj/sdk/drivers/usb/test/usb0_host_testmodes_test.o
 .rodata        0x80046320      0x38c /home/leon/git/swp-report/iMX6_Platform_SDK/output/mx6sl/obds/evk_rev_a/obj/sdk/drivers/usdhc/test/usdhc_test.o
 .rodata        0x800466ac       0x34 /home/leon/git/swp-report/iMX6_Platform_SDK/output/mx6sl/lib/libsdk.a(ccm_pll.o)
                0x800466ac                PLL1_OUTPUT
                0x800466b0                PLL2_OUTPUT
                0x800466c4                PLL3_OUTPUT
                0x800466d8                PLL4_OUTPUT
                0x800466dc                PLL5_OUTPUT
 .rodata        0x800466e0       0x64 /home/leon/git/swp-report/iMX6_Platform_SDK/output/mx6sl/lib/libsdk.a(gic.o)
 .rodata        0x80046744      0x154 /home/leon/git/swp-report/iMX6_Platform_SDK/output/mx6sl/lib/libsdk.a(menu.o)
 .rodata        0x80046898       0x50 /home/leon/git/swp-report/iMX6_Platform_SDK/output/mx6sl/lib/libsdk.a(sdk_version.o)
                0x80046898                k_sdk_version
                0x8004689c                k_sdk_copyright
 .rodata        0x800468e8       0xcc /home/leon/git/swp-report/iMX6_Platform_SDK/output/mx6sl/lib/libsdk.a(system_util.o)
 .rodata        0x800469b4       0xf4 /home/leon/git/swp-report/iMX6_Platform_SDK/output/mx6sl/lib/libsdk.a(text_color.o)
                0x800469bc                g_TextAttributeDefault
                0x800469c8                g_TextAttributeBold
                0x800469d4                g_TextAttributeDim
                0x800469e0                g_TextAttributeUnderline
                0x800469ec                g_TextAttributeBlink
                0x800469f8                g_TextAttributeReverse
                0x80046a04                g_TextAttributeHidden
                0x80046a10                g_TextColorBlack
                0x80046a1c                g_TextColorRed
                0x80046a28                g_TextColorGreen
                0x80046a34                g_TextColorYellow
                0x80046a40                g_TextColorBlue
                0x80046a4c                g_TextColorMagenta
                0x80046a58                g_TextColorCyan
                0x80046a64                g_TextColorWhite
                0x80046a74                g_TextColorOrange
                0x80046a84                g_TextColorLightBlue
                0x80046a94                g_TextColorGray
                0x80046aa4                g_TextColorPurple
 .rodata        0x80046aa8      0x1ac /home/leon/git/swp-report/iMX6_Platform_SDK/output/mx6sl/lib/libsdk.a(imx-ssi.o)
 .rodata        0x80046c54       0x58 /home/leon/git/swp-report/iMX6_Platform_SDK/output/mx6sl/lib/libsdk.a(imx_audmux.o)
 .rodata        0x80046cac       0xdc /home/leon/git/swp-report/iMX6_Platform_SDK/output/mx6sl/lib/libsdk.a(imx_spdif.o)
 .rodata        0x80046d88      0x1a4 /home/leon/git/swp-report/iMX6_Platform_SDK/output/mx6sl/lib/libsdk.a(wm8962.o)
 .rodata        0x80046f2c      0x1f8 /home/leon/git/swp-report/iMX6_Platform_SDK/output/mx6sl/lib/libsdk.a(board_id.o)
 .rodata        0x80047124       0xc4 /home/leon/git/swp-report/iMX6_Platform_SDK/output/mx6sl/lib/libsdk.a(smd_sensor.o)
 .rodata        0x800471e8       0x58 /home/leon/git/swp-report/iMX6_Platform_SDK/output/mx6sl/lib/libsdk.a(mxc_epdc.o)
 .rodata        0x80047240      0x158 /home/leon/git/swp-report/iMX6_Platform_SDK/output/mx6sl/lib/libsdk.a(fec_drv.o)
 .rodata        0x80047398       0xe0 /home/leon/git/swp-report/iMX6_Platform_SDK/output/mx6sl/lib/libsdk.a(gpio.o)
 .rodata        0x80047478      0x380 /home/leon/git/swp-report/iMX6_Platform_SDK/output/mx6sl/lib/libsdk.a(imx6sl_gpio_map.o)
                0x80047478                k_gpio_mux_registers
 .rodata        0x800477f8      0x2c4 /home/leon/git/swp-report/iMX6_Platform_SDK/output/mx6sl/lib/libsdk.a(imx_i2c.o)
 .rodata        0x80047abc       0xa4 /home/leon/git/swp-report/iMX6_Platform_SDK/output/mx6sl/lib/libsdk.a(lcdif_drv.o)
 .rodata        0x80047b60       0x74 /home/leon/git/swp-report/iMX6_Platform_SDK/output/mx6sl/lib/libsdk.a(ecspi.o)
 .rodata        0x80047bd4       0x94 /home/leon/git/swp-report/iMX6_Platform_SDK/output/mx6sl/lib/libsdk.a(usb_common.o)
 .rodata        0x80047c68       0x28 /home/leon/git/swp-report/iMX6_Platform_SDK/output/mx6sl/lib/libsdk.a(usbh_drv.o)
 .rodata        0x80047c90      0x1cc /home/leon/git/swp-report/iMX6_Platform_SDK/output/mx6sl/lib/libsdk.a(usdhc.o)
 .rodata        0x80047e5c       0x1c /home/leon/git/swp-report/iMX6_Platform_SDK/output/mx6sl/lib/libsdk.a(usdhc_host.o)
 .rodata        0x80047e78      0x20c /home/leon/git/swp-report/iMX6_Platform_SDK/output/mx6sl/lib/libsdk.a(usdhc_mmc.o)
 .rodata        0x80048084       0x58 /home/leon/git/swp-report/iMX6_Platform_SDK/output/mx6sl/lib/libsdk.a(usdhc_sd.o)
                0x80048084                sd_ocr_value
                0x80048090                sd_if_cmd_arg
 .rodata        0x800480dc       0x20 /home/leon/git/swp-report/iMX6_Platform_SDK/output/mx6sl/lib/libsdk.a(interrupt.o)
 .rodata        0x800480fc      0x230 /home/leon/git/swp-report/iMX6_Platform_SDK/output/mx6sl/lib/libsdk.a(abort_handler.o)
 .rodata        0x8004832c       0x30 /home/leon/git/swp-report/iMX6_Platform_SDK/output/mx6sl/lib/libboard_evk_rev_a.a(board_i2c.o)
                0x8004832c                g_wm8962_i2c_device
                0x80048334                g_pmic_ltc3589_i2c_device
                0x8004833c                g_pmic_da9053_i2c_device
                0x80048344                g_pmic_max17135_i2c_device
                0x8004834c                g_pmic_pf0100_i2c_device
                0x80048354                g_at24cx_i2c_device
 .rodata        0x8004835c       0x74 /home/leon/git/swp-report/iMX6_Platform_SDK/output/mx6sl/lib/libboard_evk_rev_a.a(ecspi_iomux_config.o)
 .rodata        0x800483d0       0x74 /home/leon/git/swp-report/iMX6_Platform_SDK/output/mx6sl/lib/libboard_evk_rev_a.a(i2c_iomux_config.o)
 .rodata        0x80048444       0x74 /home/leon/git/swp-report/iMX6_Platform_SDK/output/mx6sl/lib/libboard_evk_rev_a.a(uart_iomux_config.o)
 .rodata        0x800484b8       0x74 /home/leon/git/swp-report/iMX6_Platform_SDK/output/mx6sl/lib/libboard_evk_rev_a.a(usdhc_iomux_config.o)
 .rodata.str1.4
                0x8004852c       0x3f /home/leon/riotboard/arm-2012.09/bin/../arm-none-eabi/lib//libc.a(lib_a-assert.o)
                                 0x44 (size before relaxing)
 *fill*         0x8004856b        0x1 
 .rodata        0x8004856c        0x4 /home/leon/riotboard/arm-2012.09/bin/../arm-none-eabi/lib//libc.a(lib_a-impure.o)
                0x8004856c                _global_impure_ptr
 .rodata.str1.4
                0x80048570        0x2 /home/leon/riotboard/arm-2012.09/bin/../arm-none-eabi/lib//libc.a(lib_a-impure.o)
                                  0x4 (size before relaxing)
 *fill*         0x80048572        0x2 
 .rodata        0x80048574       0x20 /home/leon/riotboard/arm-2012.09/bin/../arm-none-eabi/lib//libc.a(lib_a-svfprintf.o)
 .rodata.str1.4
                0x80048594       0x42 /home/leon/riotboard/arm-2012.09/bin/../arm-none-eabi/lib//libc.a(lib_a-svfprintf.o)
                                 0x44 (size before relaxing)
 *fill*         0x800485d6        0x2 
 .rodata        0x800485d8       0x20 /home/leon/riotboard/arm-2012.09/bin/../arm-none-eabi/lib//libc.a(lib_a-vfiprintf.o)
 .rodata.str1.4
                0x00000000       0x30 /home/leon/riotboard/arm-2012.09/bin/../arm-none-eabi/lib//libc.a(lib_a-vfiprintf.o)
 .rodata        0x800485f8       0x20 /home/leon/riotboard/arm-2012.09/bin/../arm-none-eabi/lib//libc.a(lib_a-vfprintf.o)
 .rodata.str1.4
                0x00000000       0x44 /home/leon/riotboard/arm-2012.09/bin/../arm-none-eabi/lib//libc.a(lib_a-vfprintf.o)
 .rodata        0x80048618      0x104 /home/leon/riotboard/arm-2012.09/bin/../arm-none-eabi/lib//libc.a(lib_a-ctype_.o)
                0x80048618                _ctype_
 .rodata.str1.4
                0x8004871c       0x10 /home/leon/riotboard/arm-2012.09/bin/../arm-none-eabi/lib//libc.a(lib_a-dtoa.o)
                                 0x14 (size before relaxing)
 .rodata.str1.4
                0x8004872c        0xc /home/leon/riotboard/arm-2012.09/bin/../arm-none-eabi/lib//libc.a(lib_a-locale.o)
                                 0x14 (size before relaxing)
 .rodata        0x80048738      0x128 /home/leon/riotboard/arm-2012.09/bin/../arm-none-eabi/lib//libc.a(lib_a-mprec.o)
                0x80048748                __mprec_tens
                0x80048810                __mprec_tinytens
                0x80048838                __mprec_bigtens
 .rodata        0x80048860       0x20 /home/leon/riotboard/arm-2012.09/bin/../arm-none-eabi/lib//libc.a(lib_a-svfiprintf.o)
 .rodata.str1.4
                0x00000000       0x30 /home/leon/riotboard/arm-2012.09/bin/../arm-none-eabi/lib//libc.a(lib_a-svfiprintf.o)
 .rodata        0x80048880       0x20 /home/leon/git/swp-report/iMX6_Platform_SDK/output/mx6sl/lib/libsdk.a(runtime_support.o)
                0x800488a0                . = ALIGN (0x4)
 *(.init)
 .init          0x800488a0        0xc /home/leon/riotboard/arm-2012.09/bin/../lib/gcc/arm-none-eabi/4.7.2//crti.o
                0x800488a0                _init
 .init          0x800488ac        0xc /home/leon/riotboard/arm-2012.09/bin/../lib/gcc/arm-none-eabi/4.7.2//crtn.o
                0x800488b8                . = ALIGN (0x4)
                0x800488b8                __init_array_start = .
 *(SORT(.init_array.*))
 *(.init_array)
 .init_array    0x800488b8        0x4 /home/leon/riotboard/arm-2012.09/bin/../lib/gcc/arm-none-eabi/4.7.2//crtbegin.o
                0x800488bc                __init_array_end = .
                0x800488bc                . = ALIGN (0x4)
 *(.fini)
 .fini          0x800488bc        0xc /home/leon/riotboard/arm-2012.09/bin/../lib/gcc/arm-none-eabi/4.7.2//crti.o
                0x800488bc                _fini
 .fini          0x800488c8        0xc /home/leon/riotboard/arm-2012.09/bin/../lib/gcc/arm-none-eabi/4.7.2//crtn.o
                0x800488d4                . = ALIGN (0x4)
                0x800488d4                __fini_array_start = .
 *(.fini_array)
 .fini_array    0x800488d4        0x4 /home/leon/riotboard/arm-2012.09/bin/../lib/gcc/arm-none-eabi/4.7.2//crtbegin.o
 *(SORT(.fini_array.*))
                0x800488d8                __fini_array_end = .
                0x800488d8                PROVIDE (__exidx_start, .)

.eh_frame       0x800488d8        0x4
 .eh_frame      0x800488d8        0x0 /home/leon/riotboard/arm-2012.09/bin/../lib/gcc/arm-none-eabi/4.7.2//crtbegin.o
 .eh_frame      0x800488d8        0x4 /home/leon/riotboard/arm-2012.09/bin/../lib/gcc/arm-none-eabi/4.7.2//crtend.o

.ARM.exidx      0x800488dc        0x8
 *(.ARM.exidx* .gnu.linkonce.armexidx.*)
 .ARM.exidx.startup
                0x800488dc        0x8 /home/leon/git/swp-report/iMX6_Platform_SDK/output/mx6sl/lib/libsdk.a(startup.o)
 .ARM.exidx     0x800488e4        0x0 /home/leon/riotboard/arm-2012.09/bin/../lib/gcc/arm-none-eabi/4.7.2//libgcc.a(_divdi3.o)
                                  0x8 (size before relaxing)
 .ARM.exidx     0x800488e4        0x0 /home/leon/riotboard/arm-2012.09/bin/../lib/gcc/arm-none-eabi/4.7.2//libgcc.a(_udivdi3.o)
                                  0x8 (size before relaxing)
                0x800488e4                PROVIDE (__exidx_end, .)

.rel.dyn        0x800488e4        0x0
 .rel.iplt      0x00000000        0x0 /home/leon/riotboard/arm-2012.09/bin/../lib/gcc/arm-none-eabi/4.7.2//crtbegin.o

.data           0x800488e8   0x14afe0
 *(.data .data.* .gnu.linkonce.d.*)
 .data          0x800488e8        0x4 /home/leon/riotboard/arm-2012.09/bin/../lib/gcc/arm-none-eabi/4.7.2//crtbegin.o
                0x800488e8                __dso_handle
 .data          0x800488ec        0x0 /home/leon/riotboard/arm-2012.09/bin/../lib/gcc/arm-none-eabi/4.7.2//crti.o
 .data          0x800488ec        0x0 /home/leon/riotboard/arm-2012.09/bin/../lib/gcc/arm-none-eabi/4.7.2//crtend.o
 .data          0x800488ec        0x0 /home/leon/riotboard/arm-2012.09/bin/../lib/gcc/arm-none-eabi/4.7.2//crtn.o
 .data          0x800488ec        0x0 /home/leon/git/swp-report/iMX6_Platform_SDK/output/mx6sl/obds/evk_rev_a/obj/apps/common/ivt.o
 .data          0x800488ec        0x0 /home/leon/git/swp-report/iMX6_Platform_SDK/output/mx6sl/obds/evk_rev_a/obj/apps/common/platform_init.o
 .data          0x800488ec        0x0 /home/leon/git/swp-report/iMX6_Platform_SDK/output/mx6sl/obds/evk_rev_a/obj/apps/common/print_clock_info.o
 .data          0x800488ec        0x0 /home/leon/git/swp-report/iMX6_Platform_SDK/output/mx6sl/obds/evk_rev_a/obj/apps/common/print_version.o
 .data          0x800488ec        0x4 /home/leon/git/swp-report/iMX6_Platform_SDK/output/mx6sl/obds/evk_rev_a/obj/apps/obds/src/obds.o
                0x800488ec                auto_run_enable
 .data          0x800488f0        0x8 /home/leon/git/swp-report/iMX6_Platform_SDK/output/mx6sl/obds/evk_rev_a/obj/apps/obds/src/obds_utils.o
                0x800488f0                soc_sbmr1
                0x800488f4                soc_sbmr2
 .data          0x800488f8        0x0 /home/leon/git/swp-report/iMX6_Platform_SDK/output/mx6sl/obds/evk_rev_a/obj/apps/obds/src/tests/audio_esai_test.o
 .data          0x800488f8    0x275f4 /home/leon/git/swp-report/iMX6_Platform_SDK/output/mx6sl/obds/evk_rev_a/obj/apps/obds/src/tests/audio_ssi_test.o
                0x800488f8                wav_data
                0x8006fec0                pcm_para
                0x8006fecc                pcm_music
                0x8006fedc                pcm_record
 .data          0x8006feec        0x0 /home/leon/git/swp-report/iMX6_Platform_SDK/output/mx6sl/obds/evk_rev_a/obj/apps/obds/src/tests/ddr_test.o
 .data          0x8006feec        0x0 /home/leon/git/swp-report/iMX6_Platform_SDK/output/mx6sl/obds/evk_rev_a/obj/apps/obds/src/tests/flexcan_test.o
 .data          0x8006feec        0x0 /home/leon/git/swp-report/iMX6_Platform_SDK/output/mx6sl/obds/evk_rev_a/obj/apps/obds/src/tests/gpio_led.o
 .data          0x8006feec        0x4 /home/leon/git/swp-report/iMX6_Platform_SDK/output/mx6sl/obds/evk_rev_a/obj/apps/obds/src/tests/gps_test.o
 .data          0x8006fef0        0x0 /home/leon/git/swp-report/iMX6_Platform_SDK/output/mx6sl/obds/evk_rev_a/obj/apps/obds/src/tests/i2c_check_light_sensor_isl29023.o
 .data          0x8006fef0        0x0 /home/leon/git/swp-report/iMX6_Platform_SDK/output/mx6sl/obds/evk_rev_a/obj/apps/obds/src/tests/i2c_device_barometer_ppl3115.o
 .data          0x8006fef0        0x0 /home/leon/git/swp-report/iMX6_Platform_SDK/output/mx6sl/obds/evk_rev_a/obj/apps/obds/src/tests/i2c_device_check_cs42888.o
 .data          0x8006fef0        0x0 /home/leon/git/swp-report/iMX6_Platform_SDK/output/mx6sl/obds/evk_rev_a/obj/apps/obds/src/tests/i2c_device_digital_compass_mag3110.o
 .data          0x8006fef0        0x0 /home/leon/git/swp-report/iMX6_Platform_SDK/output/mx6sl/obds/evk_rev_a/obj/apps/obds/src/tests/i2c_device_digital_compass_mag3112.o
 .data          0x8006fef0        0x0 /home/leon/git/swp-report/iMX6_Platform_SDK/output/mx6sl/obds/evk_rev_a/obj/apps/obds/src/tests/i2c_device_id_check_mma8450.o
 .data          0x8006fef0        0x0 /home/leon/git/swp-report/iMX6_Platform_SDK/output/mx6sl/obds/evk_rev_a/obj/apps/obds/src/tests/i2c_device_id_check_mma8451.o
 .data          0x8006fef0        0x0 /home/leon/git/swp-report/iMX6_Platform_SDK/output/mx6sl/obds/evk_rev_a/obj/apps/obds/src/tests/i2c_device_temp_sensor_emc1046.o
 .data          0x8006fef0        0x0 /home/leon/git/swp-report/iMX6_Platform_SDK/output/mx6sl/obds/evk_rev_a/obj/apps/obds/src/tests/i2c_device_zigbee_mc1323.o
 .data          0x8006fef0        0x0 /home/leon/git/swp-report/iMX6_Platform_SDK/output/mx6sl/obds/evk_rev_a/obj/apps/obds/src/tests/i2c_eeprom_at24cxx_test.o
 .data          0x8006fef0        0x8 /home/leon/git/swp-report/iMX6_Platform_SDK/output/mx6sl/obds/evk_rev_a/obj/apps/obds/src/tests/imx_spi_nor_test.o
                0x8006fef0                AT45DB321D_id
                0x8006fef4                M25P32_id
 .data          0x8006fef8        0x0 /home/leon/git/swp-report/iMX6_Platform_SDK/output/mx6sl/obds/evk_rev_a/obj/apps/obds/src/tests/keyboard_test.o
 .data          0x8006fef8        0x0 /home/leon/git/swp-report/iMX6_Platform_SDK/output/mx6sl/obds/evk_rev_a/obj/apps/obds/src/tests/mmcsd_test.o
 .data          0x8006fef8        0x0 /home/leon/git/swp-report/iMX6_Platform_SDK/output/mx6sl/obds/evk_rev_a/obj/apps/obds/src/tests/pmic_da9053.o
 .data          0x8006fef8        0x0 /home/leon/git/swp-report/iMX6_Platform_SDK/output/mx6sl/obds/evk_rev_a/obj/apps/obds/src/tests/pmic_lt3589.o
 .data          0x8006fef8        0x0 /home/leon/git/swp-report/iMX6_Platform_SDK/output/mx6sl/obds/evk_rev_a/obj/apps/obds/src/tests/pmic_max17135.o
 .data          0x8006fef8        0x0 /home/leon/git/swp-report/iMX6_Platform_SDK/output/mx6sl/obds/evk_rev_a/obj/apps/obds/src/tests/pmic_mc13892.o
 .data          0x8006fef8        0x0 /home/leon/git/swp-report/iMX6_Platform_SDK/output/mx6sl/obds/evk_rev_a/obj/apps/obds/src/tests/program_board_id.o
 .data          0x8006fef8        0x0 /home/leon/git/swp-report/iMX6_Platform_SDK/output/mx6sl/obds/evk_rev_a/obj/apps/obds/src/tests/program_mac_address.o
 .data          0x8006fef8        0x0 /home/leon/git/swp-report/iMX6_Platform_SDK/output/mx6sl/obds/evk_rev_a/obj/apps/obds/src/tests/snvs_srtc_test.o
 .data          0x8006fef8        0x0 /home/leon/git/swp-report/iMX6_Platform_SDK/output/mx6sl/obds/evk_rev_a/obj/apps/obds/src/tests/touch_button_test.o
 .data          0x8006fef8        0x0 /home/leon/git/swp-report/iMX6_Platform_SDK/output/mx6sl/obds/evk_rev_a/obj/apps/obds/src/tests/touch_screen.o
 .data          0x8006fef8        0x0 /home/leon/git/swp-report/iMX6_Platform_SDK/output/mx6sl/obds/evk_rev_a/obj/apps/obds/src/tests/touch_screen_max11801.o
 .data          0x8006fef8        0x0 /home/leon/git/swp-report/iMX6_Platform_SDK/output/mx6sl/obds/evk_rev_a/obj/apps/obds/src/tests/usb_tests_obds.o
 .data          0x8006fef8        0x0 /home/leon/git/swp-report/iMX6_Platform_SDK/output/mx6sl/obds/evk_rev_a/obj/apps/obds/src/tests/weim_nor_flash_test.o
 .data          0x8006fef8        0x0 /home/leon/git/swp-report/iMX6_Platform_SDK/output/mx6sl/obds/evk_rev_a/obj/sdk/common/pmic/pfuse/pf0100.o
 .data          0x8006fef8       0x38 /home/leon/git/swp-report/iMX6_Platform_SDK/output/mx6sl/obds/evk_rev_a/obj/sdk/drivers/audio/src/snd_card.o
                0x8006ff10                snd_card_spdif
                0x8006ff20                snd_card_ssi_wm8962
 .data          0x8006ff30        0x0 /home/leon/git/swp-report/iMX6_Platform_SDK/output/mx6sl/obds/evk_rev_a/obj/sdk/drivers/camera/test/adv7180_capture.o
 .data          0x8006ff30        0x8 /home/leon/git/swp-report/iMX6_Platform_SDK/output/mx6sl/obds/evk_rev_a/obj/sdk/drivers/camera/test/camera_test.o
 .data          0x8006ff38        0x0 /home/leon/git/swp-report/iMX6_Platform_SDK/output/mx6sl/obds/evk_rev_a/obj/sdk/drivers/camera/test/csi_sensor_capture.o
 .data          0x8006ff38        0x0 /home/leon/git/swp-report/iMX6_Platform_SDK/output/mx6sl/obds/evk_rev_a/obj/sdk/drivers/epdc/test/epdc_test.o
 .data          0x8006ff38        0x8 /home/leon/git/swp-report/iMX6_Platform_SDK/output/mx6sl/obds/evk_rev_a/obj/sdk/drivers/fec/test/fec_test.o
 .data          0x8006ff40        0x0 /home/leon/git/swp-report/iMX6_Platform_SDK/output/mx6sl/obds/evk_rev_a/obj/sdk/drivers/lcdif/test/lcdif_display.o
 .data          0x8006ff40        0x0 /home/leon/git/swp-report/iMX6_Platform_SDK/output/mx6sl/obds/evk_rev_a/obj/sdk/drivers/spi/test/imx_spi_nor_atmel.o
 .data          0x8006ff40        0x0 /home/leon/git/swp-report/iMX6_Platform_SDK/output/mx6sl/obds/evk_rev_a/obj/sdk/drivers/spi/test/spi_nor_numonyx.o
 .data          0x8006ff40        0x4 /home/leon/git/swp-report/iMX6_Platform_SDK/output/mx6sl/obds/evk_rev_a/obj/sdk/drivers/uart/test/uart_test.o
 .data          0x8006ff44        0x0 /home/leon/git/swp-report/iMX6_Platform_SDK/output/mx6sl/obds/evk_rev_a/obj/sdk/drivers/usb/test/usb0_host_test.o
 .data          0x8006ff44       0x28 /home/leon/git/swp-report/iMX6_Platform_SDK/output/mx6sl/obds/evk_rev_a/obj/sdk/drivers/usb/test/usb0_host_testmodes_test.o
 .data          0x8006ff6c       0x68 /home/leon/git/swp-report/iMX6_Platform_SDK/output/mx6sl/obds/evk_rev_a/obj/sdk/drivers/usdhc/test/usdhc_test.o
 .data          0x8006ffd4        0x0 /home/leon/git/swp-report/iMX6_Platform_SDK/output/mx6sl/lib/libsdk.a(ccm_pll.o)
 .data          0x8006ffd4        0x0 /home/leon/git/swp-report/iMX6_Platform_SDK/output/mx6sl/lib/libsdk.a(cortexA9.o)
 .data          0x8006ffd4        0x0 /home/leon/git/swp-report/iMX6_Platform_SDK/output/mx6sl/lib/libsdk.a(gic.o)
 .data          0x8006ffd4        0x0 /home/leon/git/swp-report/iMX6_Platform_SDK/output/mx6sl/lib/libsdk.a(mmu.o)
 .data          0x8006ffd4        0x0 /home/leon/git/swp-report/iMX6_Platform_SDK/output/mx6sl/lib/libsdk.a(startup.o)
 .data          0x8006ffd4        0x0 /home/leon/git/swp-report/iMX6_Platform_SDK/output/mx6sl/lib/libsdk.a(vectors.o)
 .data          0x8006ffd4        0x4 /home/leon/git/swp-report/iMX6_Platform_SDK/output/mx6sl/lib/libsdk.a(menu.o)
 .data          0x8006ffd8        0x0 /home/leon/git/swp-report/iMX6_Platform_SDK/output/mx6sl/lib/libsdk.a(sdk_version.o)
 .data          0x8006ffd8        0x0 /home/leon/git/swp-report/iMX6_Platform_SDK/output/mx6sl/lib/libsdk.a(system_util.o)
 .data          0x8006ffd8        0x4 /home/leon/git/swp-report/iMX6_Platform_SDK/output/mx6sl/lib/libsdk.a(text_color.o)
                0x8006ffd8                is_color_supported
 .data          0x8006ffdc       0x60 /home/leon/git/swp-report/iMX6_Platform_SDK/output/mx6sl/lib/libsdk.a(imx-ssi.o)
                0x8006fff4                imx_ssi_1
                0x8007000c                imx_ssi_2
                0x80070024                imx_ssi_3
 .data          0x8007003c        0x0 /home/leon/git/swp-report/iMX6_Platform_SDK/output/mx6sl/lib/libsdk.a(imx_audmux.o)
 .data          0x8007003c       0x30 /home/leon/git/swp-report/iMX6_Platform_SDK/output/mx6sl/lib/libsdk.a(imx_spdif.o)
                0x80070054                imx_spdif
 .data          0x8007006c       0x28 /home/leon/git/swp-report/iMX6_Platform_SDK/output/mx6sl/lib/libsdk.a(wm8962.o)
                0x8007006c                wm8962_ops
                0x80070084                wm8962
 .data          0x80070094        0x0 /home/leon/git/swp-report/iMX6_Platform_SDK/output/mx6sl/lib/libsdk.a(board_id.o)
 .data          0x80070094        0x0 /home/leon/git/swp-report/iMX6_Platform_SDK/output/mx6sl/lib/libsdk.a(csi_drv.o)
 .data          0x80070094       0x30 /home/leon/git/swp-report/iMX6_Platform_SDK/output/mx6sl/lib/libsdk.a(smd_sensor.o)
                0x80070094                ov5642_strobe_on
 .data          0x800700c4    0xf2cf0 /home/leon/git/swp-report/iMX6_Platform_SDK/output/mx6sl/lib/libsdk.a(mxc_epdc.o)
                0x800700c4                wv_data
                0x801412a4                fsl_gray_600x230
 .data          0x80162db4        0x0 /home/leon/git/swp-report/iMX6_Platform_SDK/output/mx6sl/lib/libsdk.a(fec_drv.o)
 .data          0x80162db4        0x0 /home/leon/git/swp-report/iMX6_Platform_SDK/output/mx6sl/lib/libsdk.a(gpio.o)
 .data          0x80162db4        0x0 /home/leon/git/swp-report/iMX6_Platform_SDK/output/mx6sl/lib/libsdk.a(imx6sl_gpio_map.o)
 .data          0x80162db4        0x0 /home/leon/git/swp-report/iMX6_Platform_SDK/output/mx6sl/lib/libsdk.a(imx_i2c.o)
 .data          0x80162db4    0x11e1c /home/leon/git/swp-report/iMX6_Platform_SDK/output/mx6sl/lib/libsdk.a(lcdif_drv.o)
                0x80162db4                gImage_fsl
 .data          0x80174bd0        0x0 /home/leon/git/swp-report/iMX6_Platform_SDK/output/mx6sl/lib/libsdk.a(pxp_drv.o)
 .data          0x80174bd0        0x0 /home/leon/git/swp-report/iMX6_Platform_SDK/output/mx6sl/lib/libsdk.a(ocotp.o)
 .data          0x80174bd0        0x0 /home/leon/git/swp-report/iMX6_Platform_SDK/output/mx6sl/lib/libsdk.a(ecspi.o)
 .data          0x80174bd0        0x0 /home/leon/git/swp-report/iMX6_Platform_SDK/output/mx6sl/lib/libsdk.a(timer.o)
 .data          0x80174bd0        0x0 /home/leon/git/swp-report/iMX6_Platform_SDK/output/mx6sl/lib/libsdk.a(imx_uart.o)
 .data          0x80174bd0        0x0 /home/leon/git/swp-report/iMX6_Platform_SDK/output/mx6sl/lib/libsdk.a(usb_common.o)
 .data          0x80174bd0        0x0 /home/leon/git/swp-report/iMX6_Platform_SDK/output/mx6sl/lib/libsdk.a(usbh_drv.o)
 .data          0x80174bd0       0x58 /home/leon/git/swp-report/iMX6_Platform_SDK/output/mx6sl/lib/libsdk.a(usdhc.o)
                0x80174bd0                usdhc_device
                0x80174c20                card_detect_test_en
                0x80174c24                write_protect_test_en
 .data          0x80174c28        0x0 /home/leon/git/swp-report/iMX6_Platform_SDK/output/mx6sl/lib/libsdk.a(usdhc_host.o)
 .data          0x80174c28        0x4 /home/leon/git/swp-report/iMX6_Platform_SDK/output/mx6sl/lib/libsdk.a(usdhc_mmc.o)
 .data          0x80174c2c        0x0 /home/leon/git/swp-report/iMX6_Platform_SDK/output/mx6sl/lib/libsdk.a(usdhc_sd.o)
 .data          0x80174c2c        0x4 /home/leon/git/swp-report/iMX6_Platform_SDK/output/mx6sl/lib/libsdk.a(arm_abort.o)
 .data          0x80174c30        0x0 /home/leon/git/swp-report/iMX6_Platform_SDK/output/mx6sl/lib/libsdk.a(armv7_cache.o)
 .data          0x80174c30        0x0 /home/leon/git/swp-report/iMX6_Platform_SDK/output/mx6sl/lib/libsdk.a(interrupt.o)
 .data          0x80174c30    0x1e3c0 /home/leon/git/swp-report/iMX6_Platform_SDK/output/mx6sl/lib/libsdk.a(camera_profile.o)
                0x80174c30                g_ov3640_sensor_detection
                0x80174c50                g_ov5640_sensor_detection
                0x80174c70                g_ov5642_sensor_detection
                0x80174c90                g_mt9p111_sensor_detection
                0x80174ca0                g_ov3640_mode_vga_640_480_30fps
                0x80175400                g_ov5640_mode_vga_640_480_30fps
                0x80176380                g_ov5642_mode_vga_640_480_30fps
                0x801782a0                g_ov5642_af_firmware
                0x8018ef70                g_ov5642_af_trigger
                0x8018ef90                g_ov5642_af_ready
                0x8018efa0                g_mt9p111_mode_vga_640_480_30fps
                0x801926e0                g_mt9p111_af_firmware
                0x80192e20                g_mt9p111_af_trigger
                0x80192e50                g_mt9p111_af_ready
                0x80192e60                g_camera_modes
                0x80192e80                g_camera_profiles
 .data          0x80192ff0        0x0 /home/leon/git/swp-report/iMX6_Platform_SDK/output/mx6sl/lib/libsdk.a(epit.o)
 .data          0x80192ff0        0x0 /home/leon/git/swp-report/iMX6_Platform_SDK/output/mx6sl/lib/libsdk.a(mx6x_usb.o)
 .data          0x80192ff0        0x0 /home/leon/git/swp-report/iMX6_Platform_SDK/output/mx6sl/lib/libsdk.a(abort_handler.o)
 .data          0x80192ff0        0x0 /home/leon/git/swp-report/iMX6_Platform_SDK/output/mx6sl/lib/libboard_evk_rev_a.a(board_audio.o)
 .data          0x80192ff0        0x1 /home/leon/git/swp-report/iMX6_Platform_SDK/output/mx6sl/lib/libboard_evk_rev_a.a(board_camera.o)
                0x80192ff0                g_camera_i2c_port
 .data          0x80192ff1        0x0 /home/leon/git/swp-report/iMX6_Platform_SDK/output/mx6sl/lib/libboard_evk_rev_a.a(board_display.o)
 .data          0x80192ff1        0x0 /home/leon/git/swp-report/iMX6_Platform_SDK/output/mx6sl/lib/libboard_evk_rev_a.a(board_i2c.o)
 .data          0x80192ff1        0x0 /home/leon/git/swp-report/iMX6_Platform_SDK/output/mx6sl/lib/libboard_evk_rev_a.a(board_io_expanders.o)
 .data          0x80192ff1        0x0 /home/leon/git/swp-report/iMX6_Platform_SDK/output/mx6sl/lib/libboard_evk_rev_a.a(board_usb.o)
 .data          0x80192ff1        0x0 /home/leon/git/swp-report/iMX6_Platform_SDK/output/mx6sl/lib/libboard_evk_rev_a.a(board_usdhc.o)
 .data          0x80192ff1        0x0 /home/leon/git/swp-report/iMX6_Platform_SDK/output/mx6sl/lib/libboard_evk_rev_a.a(dcd.o)
 .data          0x80192ff1        0x0 /home/leon/git/swp-report/iMX6_Platform_SDK/output/mx6sl/lib/libboard_evk_rev_a.a(audmux_iomux_config.o)
 *fill*         0x80192ff1        0x3 
 .data          0x80192ff4        0x8 /home/leon/git/swp-report/iMX6_Platform_SDK/output/mx6sl/lib/libboard_evk_rev_a.a(hardware_modules.o)
                0x80192ff4                g_debug_uart_port
                0x80192ff8                g_system_timer_port
 .data          0x80192ffc        0x0 /home/leon/git/swp-report/iMX6_Platform_SDK/output/mx6sl/lib/libboard_evk_rev_a.a(csi_iomux_config.o)
 .data          0x80192ffc        0x0 /home/leon/git/swp-report/iMX6_Platform_SDK/output/mx6sl/lib/libboard_evk_rev_a.a(ecspi_iomux_config.o)
 .data          0x80192ffc        0x0 /home/leon/git/swp-report/iMX6_Platform_SDK/output/mx6sl/lib/libboard_evk_rev_a.a(epdc_iomux_config.o)
 .data          0x80192ffc        0x0 /home/leon/git/swp-report/iMX6_Platform_SDK/output/mx6sl/lib/libboard_evk_rev_a.a(fec_iomux_config.o)
 .data          0x80192ffc        0x0 /home/leon/git/swp-report/iMX6_Platform_SDK/output/mx6sl/lib/libboard_evk_rev_a.a(i2c_iomux_config.o)
 .data          0x80192ffc        0x0 /home/leon/git/swp-report/iMX6_Platform_SDK/output/mx6sl/lib/libboard_evk_rev_a.a(iomux_config.o)
 .data          0x80192ffc        0x0 /home/leon/git/swp-report/iMX6_Platform_SDK/output/mx6sl/lib/libboard_evk_rev_a.a(kpp_iomux_config.o)
 .data          0x80192ffc        0x0 /home/leon/git/swp-report/iMX6_Platform_SDK/output/mx6sl/lib/libboard_evk_rev_a.a(lcd_iomux_config.o)
 .data          0x80192ffc        0x0 /home/leon/git/swp-report/iMX6_Platform_SDK/output/mx6sl/lib/libboard_evk_rev_a.a(mmdc_iomux_config.o)
 .data          0x80192ffc        0x0 /home/leon/git/swp-report/iMX6_Platform_SDK/output/mx6sl/lib/libboard_evk_rev_a.a(pwm1_iomux_config.o)
 .data          0x80192ffc        0x0 /home/leon/git/swp-report/iMX6_Platform_SDK/output/mx6sl/lib/libboard_evk_rev_a.a(sjc_iomux_config.o)
 .data          0x80192ffc        0x0 /home/leon/git/swp-report/iMX6_Platform_SDK/output/mx6sl/lib/libboard_evk_rev_a.a(spdc_iomux_config.o)
 .data          0x80192ffc        0x0 /home/leon/git/swp-report/iMX6_Platform_SDK/output/mx6sl/lib/libboard_evk_rev_a.a(uart1_iomux_config.o)
 .data          0x80192ffc        0x0 /home/leon/git/swp-report/iMX6_Platform_SDK/output/mx6sl/lib/libboard_evk_rev_a.a(uart_iomux_config.o)
 .data          0x80192ffc        0x0 /home/leon/git/swp-report/iMX6_Platform_SDK/output/mx6sl/lib/libboard_evk_rev_a.a(usb_iomux_config.o)
 .data          0x80192ffc        0x0 /home/leon/git/swp-report/iMX6_Platform_SDK/output/mx6sl/lib/libboard_evk_rev_a.a(usdhc1_iomux_config.o)
 .data          0x80192ffc        0x0 /home/leon/git/swp-report/iMX6_Platform_SDK/output/mx6sl/lib/libboard_evk_rev_a.a(usdhc2_iomux_config.o)
 .data          0x80192ffc        0x0 /home/leon/git/swp-report/iMX6_Platform_SDK/output/mx6sl/lib/libboard_evk_rev_a.a(usdhc3_iomux_config.o)
 .data          0x80192ffc        0x0 /home/leon/git/swp-report/iMX6_Platform_SDK/output/mx6sl/lib/libboard_evk_rev_a.a(usdhc_iomux_config.o)
 .data          0x80192ffc        0x0 /home/leon/git/swp-report/iMX6_Platform_SDK/output/mx6sl/lib/libboard_evk_rev_a.a(wdog1_iomux_config.o)
 .data          0x80192ffc        0x0 /home/leon/git/swp-report/iMX6_Platform_SDK/output/mx6sl/lib/libboard_evk_rev_a.a(ecspi1_iomux_config.o)
 .data          0x80192ffc        0x0 /home/leon/git/swp-report/iMX6_Platform_SDK/output/mx6sl/lib/libboard_evk_rev_a.a(ecspi2_iomux_config.o)
 .data          0x80192ffc        0x0 /home/leon/git/swp-report/iMX6_Platform_SDK/output/mx6sl/lib/libboard_evk_rev_a.a(gpio1_iomux_config.o)
 .data          0x80192ffc        0x0 /home/leon/git/swp-report/iMX6_Platform_SDK/output/mx6sl/lib/libboard_evk_rev_a.a(gpio4_iomux_config.o)
 .data          0x80192ffc        0x0 /home/leon/git/swp-report/iMX6_Platform_SDK/output/mx6sl/lib/libboard_evk_rev_a.a(i2c1_iomux_config.o)
 .data          0x80192ffc        0x0 /home/leon/git/swp-report/iMX6_Platform_SDK/output/mx6sl/lib/libboard_evk_rev_a.a(i2c2_iomux_config.o)
 .data          0x80192ffc        0x0 /home/leon/git/swp-report/iMX6_Platform_SDK/output/mx6sl/lib/libboard_evk_rev_a.a(i2c3_iomux_config.o)
 .data          0x80192ffc        0x0 /home/leon/riotboard/arm-2012.09/bin/../arm-none-eabi/lib//libc.a(lib_a-assert.o)
 .data          0x80192ffc        0x0 /home/leon/riotboard/arm-2012.09/bin/../arm-none-eabi/lib//libc.a(lib_a-bzero.o)
 .data          0x80192ffc        0x0 /home/leon/riotboard/arm-2012.09/bin/../arm-none-eabi/lib//libc.a(lib_a-fiprintf.o)
 .data          0x80192ffc        0x0 /home/leon/riotboard/arm-2012.09/bin/../arm-none-eabi/lib//libc.a(lib_a-fputc.o)
 *fill*         0x80192ffc        0x4 
 .data          0x80193000      0x430 /home/leon/riotboard/arm-2012.09/bin/../arm-none-eabi/lib//libc.a(lib_a-impure.o)
                0x80193000                _impure_ptr
 .data          0x80193430        0x0 /home/leon/riotboard/arm-2012.09/bin/../arm-none-eabi/lib//libc.a(lib_a-init.o)
 .data          0x80193430        0x0 /home/leon/riotboard/arm-2012.09/bin/../arm-none-eabi/lib//libc.a(lib_a-malloc.o)
 .data          0x80193430      0x410 /home/leon/riotboard/arm-2012.09/bin/../arm-none-eabi/lib//libc.a(lib_a-mallocr.o)
                0x80193430                __malloc_av_
                0x80193838                __malloc_sbrk_base
                0x8019383c                __malloc_trim_threshold
 .data          0x80193840        0x0 /home/leon/riotboard/arm-2012.09/bin/../arm-none-eabi/lib//libc.a(lib_a-memcpy.o)
 .data          0x80193840        0x0 /home/leon/riotboard/arm-2012.09/bin/../arm-none-eabi/lib//libc.a(lib_a-memset.o)
 .data          0x80193840        0x0 /home/leon/riotboard/arm-2012.09/bin/../arm-none-eabi/lib//libc.a(lib_a-mlock.o)
 .data          0x80193840        0x0 /home/leon/riotboard/arm-2012.09/bin/../arm-none-eabi/lib//libc.a(lib_a-printf.o)
 .data          0x80193840        0x0 /home/leon/riotboard/arm-2012.09/bin/../arm-none-eabi/lib//libc.a(lib_a-putc.o)
 .data          0x80193840        0x0 /home/leon/riotboard/arm-2012.09/bin/../arm-none-eabi/lib//libc.a(lib_a-realloc.o)
 .data          0x80193840        0x0 /home/leon/riotboard/arm-2012.09/bin/../arm-none-eabi/lib//libc.a(lib_a-reallocr.o)
 .data          0x80193840        0x0 /home/leon/riotboard/arm-2012.09/bin/../arm-none-eabi/lib//libc.a(lib_a-rget.o)
 .data          0x80193840        0x0 /home/leon/riotboard/arm-2012.09/bin/../arm-none-eabi/lib//libc.a(lib_a-sbrkr.o)
 .data          0x80193840        0x0 /home/leon/riotboard/arm-2012.09/bin/../arm-none-eabi/lib//libc.a(lib_a-sprintf.o)
 .data          0x80193840        0x0 /home/leon/riotboard/arm-2012.09/bin/../arm-none-eabi/lib//libc.a(lib_a-strcat.o)
 .data          0x80193840        0x0 /home/leon/riotboard/arm-2012.09/bin/../arm-none-eabi/lib//libc.a(lib_a-strcmp.o)
 .data          0x80193840        0x0 /home/leon/riotboard/arm-2012.09/bin/../arm-none-eabi/lib//libc.a(lib_a-strcpy.o)
 .data          0x80193840        0x0 /home/leon/riotboard/arm-2012.09/bin/../arm-none-eabi/lib//libc.a(lib_a-strlen.o)
 .data          0x80193840        0x0 /home/leon/riotboard/arm-2012.09/bin/../arm-none-eabi/lib//libc.a(lib_a-strncasecmp.o)
 .data          0x80193840        0x0 /home/leon/riotboard/arm-2012.09/bin/../arm-none-eabi/lib//libc.a(lib_a-strtok.o)
 .data          0x80193840        0x0 /home/leon/riotboard/arm-2012.09/bin/../arm-none-eabi/lib//libc.a(lib_a-strtok_r.o)
 .data          0x80193840        0x0 /home/leon/riotboard/arm-2012.09/bin/../arm-none-eabi/lib//libc.a(lib_a-svfprintf.o)
 .data          0x80193840        0x0 /home/leon/riotboard/arm-2012.09/bin/../arm-none-eabi/lib//libc.a(lib_a-vfiprintf.o)
 .data          0x80193840        0x0 /home/leon/riotboard/arm-2012.09/bin/../arm-none-eabi/lib//libc.a(lib_a-vfprintf.o)
 .data          0x80193840        0x0 /home/leon/riotboard/arm-2012.09/bin/../arm-none-eabi/lib//libc.a(lib_a-vprintf.o)
 .data          0x80193840        0x0 /home/leon/riotboard/arm-2012.09/bin/../arm-none-eabi/lib//libc.a(lib_a-wbuf.o)
 .data          0x80193840        0x0 /home/leon/riotboard/arm-2012.09/bin/../arm-none-eabi/lib//libc.a(lib_a-wsetup.o)
 .data          0x80193840        0x0 /home/leon/riotboard/arm-2012.09/bin/../arm-none-eabi/lib//libc.a(lib_a-abort.o)
 .data          0x80193840        0x4 /home/leon/riotboard/arm-2012.09/bin/../arm-none-eabi/lib//libc.a(lib_a-ctype_.o)
                0x80193840                __ctype_ptr__
 .data          0x80193844        0x0 /home/leon/riotboard/arm-2012.09/bin/../arm-none-eabi/lib//libc.a(lib_a-dtoa.o)
 .data          0x80193844        0x0 /home/leon/riotboard/arm-2012.09/bin/../arm-none-eabi/lib//libc.a(lib_a-fflush.o)
 .data          0x80193844        0x0 /home/leon/riotboard/arm-2012.09/bin/../arm-none-eabi/lib//libc.a(lib_a-findfp.o)
 .data          0x80193844        0x0 /home/leon/riotboard/arm-2012.09/bin/../arm-none-eabi/lib//libc.a(lib_a-fputwc.o)
 .data          0x80193844        0x0 /home/leon/riotboard/arm-2012.09/bin/../arm-none-eabi/lib//libc.a(lib_a-freer.o)
 .data          0x80193844        0x0 /home/leon/riotboard/arm-2012.09/bin/../arm-none-eabi/lib//libc.a(lib_a-fvwrite.o)
 .data          0x80193844        0x0 /home/leon/riotboard/arm-2012.09/bin/../arm-none-eabi/lib//libc.a(lib_a-fwalk.o)
 .data          0x80193844       0x7c /home/leon/riotboard/arm-2012.09/bin/../arm-none-eabi/lib//libc.a(lib_a-locale.o)
                0x80193864                __mb_cur_max
 .data          0x801938c0        0x0 /home/leon/riotboard/arm-2012.09/bin/../arm-none-eabi/lib//libc.a(lib_a-makebuf.o)
 .data          0x801938c0        0x0 /home/leon/riotboard/arm-2012.09/bin/../arm-none-eabi/lib//libc.a(lib_a-memchr.o)
 .data          0x801938c0        0x0 /home/leon/riotboard/arm-2012.09/bin/../arm-none-eabi/lib//libc.a(lib_a-memmove.o)
 .data          0x801938c0        0x0 /home/leon/riotboard/arm-2012.09/bin/../arm-none-eabi/lib//libc.a(lib_a-mprec.o)
 .data          0x801938c0        0x0 /home/leon/riotboard/arm-2012.09/bin/../arm-none-eabi/lib//libc.a(lib_a-reent.o)
 .data          0x801938c0        0x0 /home/leon/riotboard/arm-2012.09/bin/../arm-none-eabi/lib//libc.a(lib_a-refill.o)
 .data          0x801938c0        0x0 /home/leon/riotboard/arm-2012.09/bin/../arm-none-eabi/lib//libc.a(lib_a-s_fpclassify.o)
 .data          0x801938c0        0x0 /home/leon/riotboard/arm-2012.09/bin/../arm-none-eabi/lib//libc.a(lib_a-signal.o)
 .data          0x801938c0        0x0 /home/leon/riotboard/arm-2012.09/bin/../arm-none-eabi/lib//libc.a(lib_a-signalr.o)
 .data          0x801938c0        0x0 /home/leon/riotboard/arm-2012.09/bin/../arm-none-eabi/lib//libc.a(lib_a-stdio.o)
 .data          0x801938c0        0x0 /home/leon/riotboard/arm-2012.09/bin/../arm-none-eabi/lib//libc.a(lib_a-svfiprintf.o)
 .data          0x801938c0        0x0 /home/leon/riotboard/arm-2012.09/bin/../arm-none-eabi/lib//libc.a(lib_a-wcrtomb.o)
 .data          0x801938c0        0x4 /home/leon/riotboard/arm-2012.09/bin/../arm-none-eabi/lib//libc.a(lib_a-wctomb_r.o)
                0x801938c0                __wctomb
 .data          0x801938c4        0x0 /home/leon/riotboard/arm-2012.09/bin/../arm-none-eabi/lib//libc.a(lib_a-writer.o)
 .data          0x801938c4        0x0 /home/leon/riotboard/arm-2012.09/bin/../arm-none-eabi/lib//libc.a(lib_a-callocr.o)
 .data          0x801938c4        0x0 /home/leon/riotboard/arm-2012.09/bin/../arm-none-eabi/lib//libc.a(lib_a-closer.o)
 .data          0x801938c4        0x0 /home/leon/riotboard/arm-2012.09/bin/../arm-none-eabi/lib//libc.a(lib_a-fclose.o)
 .data          0x801938c4        0x0 /home/leon/riotboard/arm-2012.09/bin/../arm-none-eabi/lib//libc.a(lib_a-fstatr.o)
 .data          0x801938c4        0x0 /home/leon/riotboard/arm-2012.09/bin/../arm-none-eabi/lib//libc.a(lib_a-isattyr.o)
 .data          0x801938c4        0x0 /home/leon/riotboard/arm-2012.09/bin/../arm-none-eabi/lib//libc.a(lib_a-lseekr.o)
 .data          0x801938c4        0x0 /home/leon/riotboard/arm-2012.09/bin/../arm-none-eabi/lib//libc.a(lib_a-readr.o)
 .data          0x801938c4        0x0 /home/leon/riotboard/arm-2012.09/bin/../lib/gcc/arm-none-eabi/4.7.2//libgcc.a(_udivsi3.o)
 .data          0x801938c4        0x0 /home/leon/riotboard/arm-2012.09/bin/../lib/gcc/arm-none-eabi/4.7.2//libgcc.a(_divsi3.o)
 .data          0x801938c4        0x0 /home/leon/riotboard/arm-2012.09/bin/../lib/gcc/arm-none-eabi/4.7.2//libgcc.a(_dvmd_tls.o)
 .data          0x801938c4        0x0 /home/leon/riotboard/arm-2012.09/bin/../lib/gcc/arm-none-eabi/4.7.2//libgcc.a(_arm_addsubdf3.o)
 .data          0x801938c4        0x0 /home/leon/riotboard/arm-2012.09/bin/../lib/gcc/arm-none-eabi/4.7.2//libgcc.a(_arm_muldivdf3.o)
 .data          0x801938c4        0x0 /home/leon/riotboard/arm-2012.09/bin/../lib/gcc/arm-none-eabi/4.7.2//libgcc.a(_arm_cmpdf2.o)
 .data          0x801938c4        0x0 /home/leon/riotboard/arm-2012.09/bin/../lib/gcc/arm-none-eabi/4.7.2//libgcc.a(_arm_fixdfsi.o)
 .data          0x801938c4        0x0 /home/leon/riotboard/arm-2012.09/bin/../lib/gcc/arm-none-eabi/4.7.2//libgcc.a(_aeabi_uldivmod.o)
 .data          0x801938c4        0x0 /home/leon/riotboard/arm-2012.09/bin/../lib/gcc/arm-none-eabi/4.7.2//libgcc.a(bpabi.o)
 .data          0x801938c4        0x0 /home/leon/riotboard/arm-2012.09/bin/../lib/gcc/arm-none-eabi/4.7.2//libgcc.a(_divdi3.o)
 .data          0x801938c4        0x0 /home/leon/riotboard/arm-2012.09/bin/../lib/gcc/arm-none-eabi/4.7.2//libgcc.a(_udivdi3.o)
 .data          0x801938c4        0x0 /home/leon/riotboard/arm-2012.09/bin/../lib/gcc/arm-none-eabi/4.7.2//libgcc.a(_clzsi2.o)
 .data          0x801938c4        0x4 /home/leon/git/swp-report/iMX6_Platform_SDK/output/mx6sl/lib/libsdk.a(runtime_support.o)
                0x801938c4                environ

.jcr            0x801938c8        0x4
 .jcr           0x801938c8        0x0 /home/leon/riotboard/arm-2012.09/bin/../lib/gcc/arm-none-eabi/4.7.2//crtbegin.o
 .jcr           0x801938c8        0x4 /home/leon/riotboard/arm-2012.09/bin/../lib/gcc/arm-none-eabi/4.7.2//crtend.o

.tm_clone_table
                0x801938cc        0x0
 .tm_clone_table
                0x801938cc        0x0 /home/leon/riotboard/arm-2012.09/bin/../lib/gcc/arm-none-eabi/4.7.2//crtbegin.o
 .tm_clone_table
                0x801938cc        0x0 /home/leon/riotboard/arm-2012.09/bin/../lib/gcc/arm-none-eabi/4.7.2//crtend.o

.igot.plt       0x801938cc        0x0
 .igot.plt      0x00000000        0x0 /home/leon/riotboard/arm-2012.09/bin/../lib/gcc/arm-none-eabi/4.7.2//crtbegin.o

.hab.data       0x80400000     0x2000
                0x80400000                __hab_data = .
                0x80402000                . = (. + 0x2000)
 *fill*         0x80400000     0x2000 
                0x80402000                . = ALIGN (0x20)
                0x80402000                __hab_data_end = .
                0x00402000                _image_size = (. - _start_image_add)

.bss            0x80402000   0x121300
                0x80402000                __bss_start__ = .
 *(.shbss)
 *(.bss .bss.* .gnu.linkonce.b.*)
 .bss           0x80402000       0x1c /home/leon/riotboard/arm-2012.09/bin/../lib/gcc/arm-none-eabi/4.7.2//crtbegin.o
 .bss           0x8040201c        0x0 /home/leon/riotboard/arm-2012.09/bin/../lib/gcc/arm-none-eabi/4.7.2//crti.o
 .bss           0x8040201c        0x0 /home/leon/riotboard/arm-2012.09/bin/../lib/gcc/arm-none-eabi/4.7.2//crtend.o
 .bss           0x8040201c        0x0 /home/leon/riotboard/arm-2012.09/bin/../lib/gcc/arm-none-eabi/4.7.2//crtn.o
 .bss           0x8040201c        0x0 /home/leon/git/swp-report/iMX6_Platform_SDK/output/mx6sl/obds/evk_rev_a/obj/apps/common/ivt.o
 .bss           0x8040201c        0x0 /home/leon/git/swp-report/iMX6_Platform_SDK/output/mx6sl/obds/evk_rev_a/obj/apps/common/platform_init.o
 .bss           0x8040201c        0x0 /home/leon/git/swp-report/iMX6_Platform_SDK/output/mx6sl/obds/evk_rev_a/obj/apps/common/print_clock_info.o
 .bss           0x8040201c        0x0 /home/leon/git/swp-report/iMX6_Platform_SDK/output/mx6sl/obds/evk_rev_a/obj/apps/common/print_version.o
 .bss           0x8040201c      0x7d4 /home/leon/git/swp-report/iMX6_Platform_SDK/output/mx6sl/obds/evk_rev_a/obj/apps/obds/src/obds.o
                0x8040201c                total_tests
                0x80402020                main_menuitems
                0x804024d0                obds_tests
 .bss           0x804027f0        0x0 /home/leon/git/swp-report/iMX6_Platform_SDK/output/mx6sl/obds/evk_rev_a/obj/apps/obds/src/obds_utils.o
 .bss           0x804027f0        0x0 /home/leon/git/swp-report/iMX6_Platform_SDK/output/mx6sl/obds/evk_rev_a/obj/apps/obds/src/tests/audio_esai_test.o
 .bss           0x804027f0   0x100004 /home/leon/git/swp-report/iMX6_Platform_SDK/output/mx6sl/obds/evk_rev_a/obj/apps/obds/src/tests/audio_ssi_test.o
                0x804027f0                audio_record_buf
                0x805027f0                snd_card
 .bss           0x805027f4        0x0 /home/leon/git/swp-report/iMX6_Platform_SDK/output/mx6sl/obds/evk_rev_a/obj/apps/obds/src/tests/ddr_test.o
 .bss           0x805027f4        0x0 /home/leon/git/swp-report/iMX6_Platform_SDK/output/mx6sl/obds/evk_rev_a/obj/apps/obds/src/tests/flexcan_test.o
 .bss           0x805027f4        0x0 /home/leon/git/swp-report/iMX6_Platform_SDK/output/mx6sl/obds/evk_rev_a/obj/apps/obds/src/tests/gpio_led.o
 .bss           0x805027f4        0x4 /home/leon/git/swp-report/iMX6_Platform_SDK/output/mx6sl/obds/evk_rev_a/obj/apps/obds/src/tests/gps_test.o
                0x805027f4                gps_test_enable
 .bss           0x805027f8        0x0 /home/leon/git/swp-report/iMX6_Platform_SDK/output/mx6sl/obds/evk_rev_a/obj/apps/obds/src/tests/i2c_check_light_sensor_isl29023.o
 .bss           0x805027f8        0x0 /home/leon/git/swp-report/iMX6_Platform_SDK/output/mx6sl/obds/evk_rev_a/obj/apps/obds/src/tests/i2c_device_barometer_ppl3115.o
 .bss           0x805027f8        0x0 /home/leon/git/swp-report/iMX6_Platform_SDK/output/mx6sl/obds/evk_rev_a/obj/apps/obds/src/tests/i2c_device_check_cs42888.o
 .bss           0x805027f8        0x0 /home/leon/git/swp-report/iMX6_Platform_SDK/output/mx6sl/obds/evk_rev_a/obj/apps/obds/src/tests/i2c_device_digital_compass_mag3110.o
 .bss           0x805027f8        0x0 /home/leon/git/swp-report/iMX6_Platform_SDK/output/mx6sl/obds/evk_rev_a/obj/apps/obds/src/tests/i2c_device_digital_compass_mag3112.o
 .bss           0x805027f8        0x0 /home/leon/git/swp-report/iMX6_Platform_SDK/output/mx6sl/obds/evk_rev_a/obj/apps/obds/src/tests/i2c_device_id_check_mma8450.o
 .bss           0x805027f8        0x0 /home/leon/git/swp-report/iMX6_Platform_SDK/output/mx6sl/obds/evk_rev_a/obj/apps/obds/src/tests/i2c_device_id_check_mma8451.o
 .bss           0x805027f8        0x0 /home/leon/git/swp-report/iMX6_Platform_SDK/output/mx6sl/obds/evk_rev_a/obj/apps/obds/src/tests/i2c_device_temp_sensor_emc1046.o
 .bss           0x805027f8        0x4 /home/leon/git/swp-report/iMX6_Platform_SDK/output/mx6sl/obds/evk_rev_a/obj/apps/obds/src/tests/i2c_device_zigbee_mc1323.o
                0x805027f8                buf
 .bss           0x805027fc        0x4 /home/leon/git/swp-report/iMX6_Platform_SDK/output/mx6sl/obds/evk_rev_a/obj/apps/obds/src/tests/i2c_eeprom_at24cxx_test.o
                0x805027fc                eeprom_test_enable
 .bss           0x80502800      0x408 /home/leon/git/swp-report/iMX6_Platform_SDK/output/mx6sl/obds/evk_rev_a/obj/apps/obds/src/tests/imx_spi_nor_test.o
                0x80502800                spi_nor_flash_type
                0x80502804                dev_spi_nor
                0x80502808                spi_nor_tx_buf
                0x80502a08                spi_nor_rx_buf
 .bss           0x80502c08        0x4 /home/leon/git/swp-report/iMX6_Platform_SDK/output/mx6sl/obds/evk_rev_a/obj/apps/obds/src/tests/keyboard_test.o
                0x80502c08                dc3
 .bss           0x80502c0c        0xc /home/leon/git/swp-report/iMX6_Platform_SDK/output/mx6sl/obds/evk_rev_a/obj/apps/obds/src/tests/mmcsd_test.o
                0x80502c0c                SDHC_UHSI_mode
                0x80502c10                mmcsd_bus_width
                0x80502c14                instance
 .bss           0x80502c18        0x0 /home/leon/git/swp-report/iMX6_Platform_SDK/output/mx6sl/obds/evk_rev_a/obj/apps/obds/src/tests/pmic_da9053.o
 .bss           0x80502c18        0x0 /home/leon/git/swp-report/iMX6_Platform_SDK/output/mx6sl/obds/evk_rev_a/obj/apps/obds/src/tests/pmic_lt3589.o
 .bss           0x80502c18        0x0 /home/leon/git/swp-report/iMX6_Platform_SDK/output/mx6sl/obds/evk_rev_a/obj/apps/obds/src/tests/pmic_max17135.o
 .bss           0x80502c18        0x4 /home/leon/git/swp-report/iMX6_Platform_SDK/output/mx6sl/obds/evk_rev_a/obj/apps/obds/src/tests/pmic_mc13892.o
                0x80502c18                pmic_mc13892_reg
 .bss           0x80502c1c        0x0 /home/leon/git/swp-report/iMX6_Platform_SDK/output/mx6sl/obds/evk_rev_a/obj/apps/obds/src/tests/program_board_id.o
 .bss           0x80502c1c       0x14 /home/leon/git/swp-report/iMX6_Platform_SDK/output/mx6sl/obds/evk_rev_a/obj/apps/obds/src/tests/program_mac_address.o
 .bss           0x80502c30        0x0 /home/leon/git/swp-report/iMX6_Platform_SDK/output/mx6sl/obds/evk_rev_a/obj/apps/obds/src/tests/snvs_srtc_test.o
 .bss           0x80502c30        0x0 /home/leon/git/swp-report/iMX6_Platform_SDK/output/mx6sl/obds/evk_rev_a/obj/apps/obds/src/tests/touch_button_test.o
 .bss           0x80502c30        0x4 /home/leon/git/swp-report/iMX6_Platform_SDK/output/mx6sl/obds/evk_rev_a/obj/apps/obds/src/tests/touch_screen.o
                0x80502c30                pen_status
 .bss           0x80502c34        0x0 /home/leon/git/swp-report/iMX6_Platform_SDK/output/mx6sl/obds/evk_rev_a/obj/apps/obds/src/tests/touch_screen_max11801.o
 .bss           0x80502c34        0x0 /home/leon/git/swp-report/iMX6_Platform_SDK/output/mx6sl/obds/evk_rev_a/obj/apps/obds/src/tests/usb_tests_obds.o
 .bss           0x80502c34        0x0 /home/leon/git/swp-report/iMX6_Platform_SDK/output/mx6sl/obds/evk_rev_a/obj/apps/obds/src/tests/weim_nor_flash_test.o
 .bss           0x80502c34        0x0 /home/leon/git/swp-report/iMX6_Platform_SDK/output/mx6sl/obds/evk_rev_a/obj/sdk/common/pmic/pfuse/pf0100.o
 .bss           0x80502c34        0x0 /home/leon/git/swp-report/iMX6_Platform_SDK/output/mx6sl/obds/evk_rev_a/obj/sdk/drivers/audio/src/snd_card.o
 .bss           0x80502c34        0x0 /home/leon/git/swp-report/iMX6_Platform_SDK/output/mx6sl/obds/evk_rev_a/obj/sdk/drivers/camera/test/adv7180_capture.o
 .bss           0x80502c34        0x0 /home/leon/git/swp-report/iMX6_Platform_SDK/output/mx6sl/obds/evk_rev_a/obj/sdk/drivers/camera/test/camera_test.o
 .bss           0x80502c34        0x0 /home/leon/git/swp-report/iMX6_Platform_SDK/output/mx6sl/obds/evk_rev_a/obj/sdk/drivers/camera/test/csi_sensor_capture.o
 .bss           0x80502c34        0x4 /home/leon/git/swp-report/iMX6_Platform_SDK/output/mx6sl/obds/evk_rev_a/obj/sdk/drivers/epdc/test/epdc_test.o
 .bss           0x80502c38     0x1028 /home/leon/git/swp-report/iMX6_Platform_SDK/output/mx6sl/obds/evk_rev_a/obj/sdk/drivers/fec/test/fec_test.o
 .bss           0x80503c60        0x0 /home/leon/git/swp-report/iMX6_Platform_SDK/output/mx6sl/obds/evk_rev_a/obj/sdk/drivers/lcdif/test/lcdif_display.o
 .bss           0x80503c60      0x400 /home/leon/git/swp-report/iMX6_Platform_SDK/output/mx6sl/obds/evk_rev_a/obj/sdk/drivers/spi/test/imx_spi_nor_atmel.o
 .bss           0x80504060      0x400 /home/leon/git/swp-report/iMX6_Platform_SDK/output/mx6sl/obds/evk_rev_a/obj/sdk/drivers/spi/test/spi_nor_numonyx.o
 .bss           0x80504460        0x1 /home/leon/git/swp-report/iMX6_Platform_SDK/output/mx6sl/obds/evk_rev_a/obj/sdk/drivers/uart/test/uart_test.o
 *fill*         0x80504461      0xb9f 
 .bss           0x80505000     0x1000 /home/leon/git/swp-report/iMX6_Platform_SDK/output/mx6sl/obds/evk_rev_a/obj/sdk/drivers/usb/test/usb0_host_test.o
                0x80505000                frame_list
 .bss           0x80506000        0x0 /home/leon/git/swp-report/iMX6_Platform_SDK/output/mx6sl/obds/evk_rev_a/obj/sdk/drivers/usb/test/usb0_host_testmodes_test.o
 .bss           0x80506000    0x17d00 /home/leon/git/swp-report/iMX6_Platform_SDK/output/mx6sl/obds/evk_rev_a/obj/sdk/drivers/usdhc/test/usdhc_test.o
 .bss           0x8051dd00        0x0 /home/leon/git/swp-report/iMX6_Platform_SDK/output/mx6sl/lib/libsdk.a(ccm_pll.o)
 .bss           0x8051dd00        0x0 /home/leon/git/swp-report/iMX6_Platform_SDK/output/mx6sl/lib/libsdk.a(cortexA9.o)
 .bss           0x8051dd00        0x0 /home/leon/git/swp-report/iMX6_Platform_SDK/output/mx6sl/lib/libsdk.a(gic.o)
 .bss           0x8051dd00        0x0 /home/leon/git/swp-report/iMX6_Platform_SDK/output/mx6sl/lib/libsdk.a(mmu.o)
 .bss           0x8051dd00        0x0 /home/leon/git/swp-report/iMX6_Platform_SDK/output/mx6sl/lib/libsdk.a(startup.o)
 .bss           0x8051dd00        0x0 /home/leon/git/swp-report/iMX6_Platform_SDK/output/mx6sl/lib/libsdk.a(vectors.o)
 .bss           0x8051dd00       0x7c /home/leon/git/swp-report/iMX6_Platform_SDK/output/mx6sl/lib/libsdk.a(menu.o)
 .bss           0x8051dd7c        0x0 /home/leon/git/swp-report/iMX6_Platform_SDK/output/mx6sl/lib/libsdk.a(sdk_version.o)
 .bss           0x8051dd7c        0x0 /home/leon/git/swp-report/iMX6_Platform_SDK/output/mx6sl/lib/libsdk.a(system_util.o)
 .bss           0x8051dd7c        0x0 /home/leon/git/swp-report/iMX6_Platform_SDK/output/mx6sl/lib/libsdk.a(text_color.o)
 .bss           0x8051dd7c        0x0 /home/leon/git/swp-report/iMX6_Platform_SDK/output/mx6sl/lib/libsdk.a(imx-ssi.o)
 .bss           0x8051dd7c        0x0 /home/leon/git/swp-report/iMX6_Platform_SDK/output/mx6sl/lib/libsdk.a(imx_audmux.o)
 .bss           0x8051dd7c        0x0 /home/leon/git/swp-report/iMX6_Platform_SDK/output/mx6sl/lib/libsdk.a(imx_spdif.o)
 .bss           0x8051dd7c       0x24 /home/leon/git/swp-report/iMX6_Platform_SDK/output/mx6sl/lib/libsdk.a(wm8962.o)
                0x8051dd7c                wm8962_i2c_req
 .bss           0x8051dda0        0x0 /home/leon/git/swp-report/iMX6_Platform_SDK/output/mx6sl/lib/libsdk.a(board_id.o)
 .bss           0x8051dda0        0x0 /home/leon/git/swp-report/iMX6_Platform_SDK/output/mx6sl/lib/libsdk.a(csi_drv.o)
 .bss           0x8051dda0        0x0 /home/leon/git/swp-report/iMX6_Platform_SDK/output/mx6sl/lib/libsdk.a(smd_sensor.o)
 .bss           0x8051dda0        0x0 /home/leon/git/swp-report/iMX6_Platform_SDK/output/mx6sl/lib/libsdk.a(mxc_epdc.o)
 .bss           0x8051dda0     0x5060 /home/leon/git/swp-report/iMX6_Platform_SDK/output/mx6sl/lib/libsdk.a(fec_drv.o)
 .bss           0x80522e00        0x0 /home/leon/git/swp-report/iMX6_Platform_SDK/output/mx6sl/lib/libsdk.a(gpio.o)
 .bss           0x80522e00        0x0 /home/leon/git/swp-report/iMX6_Platform_SDK/output/mx6sl/lib/libsdk.a(imx6sl_gpio_map.o)
 .bss           0x80522e00        0x0 /home/leon/git/swp-report/iMX6_Platform_SDK/output/mx6sl/lib/libsdk.a(imx_i2c.o)
 .bss           0x80522e00        0x0 /home/leon/git/swp-report/iMX6_Platform_SDK/output/mx6sl/lib/libsdk.a(lcdif_drv.o)
 .bss           0x80522e00        0x0 /home/leon/git/swp-report/iMX6_Platform_SDK/output/mx6sl/lib/libsdk.a(pxp_drv.o)
 .bss           0x80522e00        0x0 /home/leon/git/swp-report/iMX6_Platform_SDK/output/mx6sl/lib/libsdk.a(ocotp.o)
 .bss           0x80522e00        0x0 /home/leon/git/swp-report/iMX6_Platform_SDK/output/mx6sl/lib/libsdk.a(ecspi.o)
 .bss           0x80522e00        0x4 /home/leon/git/swp-report/iMX6_Platform_SDK/output/mx6sl/lib/libsdk.a(timer.o)
                0x80522e00                g_microsecondTimerMultiple
 .bss           0x80522e04        0x0 /home/leon/git/swp-report/iMX6_Platform_SDK/output/mx6sl/lib/libsdk.a(imx_uart.o)
 .bss           0x80522e04        0x0 /home/leon/git/swp-report/iMX6_Platform_SDK/output/mx6sl/lib/libsdk.a(usb_common.o)
 .bss           0x80522e04        0x0 /home/leon/git/swp-report/iMX6_Platform_SDK/output/mx6sl/lib/libsdk.a(usbh_drv.o)
 .bss           0x80522e04        0x8 /home/leon/git/swp-report/iMX6_Platform_SDK/output/mx6sl/lib/libsdk.a(usdhc.o)
 .bss           0x80522e0c        0x0 /home/leon/git/swp-report/iMX6_Platform_SDK/output/mx6sl/lib/libsdk.a(usdhc_host.o)
 .bss           0x80522e0c      0x214 /home/leon/git/swp-report/iMX6_Platform_SDK/output/mx6sl/lib/libsdk.a(usdhc_mmc.o)
 .bss           0x80523020        0x0 /home/leon/git/swp-report/iMX6_Platform_SDK/output/mx6sl/lib/libsdk.a(usdhc_sd.o)
 .bss           0x80523020        0x0 /home/leon/git/swp-report/iMX6_Platform_SDK/output/mx6sl/lib/libsdk.a(arm_abort.o)
 .bss           0x80523020        0x0 /home/leon/git/swp-report/iMX6_Platform_SDK/output/mx6sl/lib/libsdk.a(armv7_cache.o)
 .bss           0x80523020      0x290 /home/leon/git/swp-report/iMX6_Platform_SDK/output/mx6sl/lib/libsdk.a(interrupt.o)
                0x80523020                g_interrupt_handlers
                0x805232a0                g_vectNum
 .bss           0x805232b0        0x0 /home/leon/git/swp-report/iMX6_Platform_SDK/output/mx6sl/lib/libsdk.a(camera_profile.o)
 .bss           0x805232b0        0x0 /home/leon/git/swp-report/iMX6_Platform_SDK/output/mx6sl/lib/libsdk.a(epit.o)
 .bss           0x805232b0        0x0 /home/leon/git/swp-report/iMX6_Platform_SDK/output/mx6sl/lib/libsdk.a(mx6x_usb.o)
 .bss           0x805232b0        0x0 /home/leon/git/swp-report/iMX6_Platform_SDK/output/mx6sl/lib/libsdk.a(abort_handler.o)
 .bss           0x805232b0        0x0 /home/leon/git/swp-report/iMX6_Platform_SDK/output/mx6sl/lib/libboard_evk_rev_a.a(board_audio.o)
 .bss           0x805232b0        0x0 /home/leon/git/swp-report/iMX6_Platform_SDK/output/mx6sl/lib/libboard_evk_rev_a.a(board_camera.o)
 .bss           0x805232b0        0x0 /home/leon/git/swp-report/iMX6_Platform_SDK/output/mx6sl/lib/libboard_evk_rev_a.a(board_display.o)
 .bss           0x805232b0        0x0 /home/leon/git/swp-report/iMX6_Platform_SDK/output/mx6sl/lib/libboard_evk_rev_a.a(board_i2c.o)
 .bss           0x805232b0        0x0 /home/leon/git/swp-report/iMX6_Platform_SDK/output/mx6sl/lib/libboard_evk_rev_a.a(board_io_expanders.o)
 .bss           0x805232b0        0x0 /home/leon/git/swp-report/iMX6_Platform_SDK/output/mx6sl/lib/libboard_evk_rev_a.a(board_usb.o)
 .bss           0x805232b0        0x0 /home/leon/git/swp-report/iMX6_Platform_SDK/output/mx6sl/lib/libboard_evk_rev_a.a(board_usdhc.o)
 .bss           0x805232b0        0x0 /home/leon/git/swp-report/iMX6_Platform_SDK/output/mx6sl/lib/libboard_evk_rev_a.a(dcd.o)
 .bss           0x805232b0        0x0 /home/leon/git/swp-report/iMX6_Platform_SDK/output/mx6sl/lib/libboard_evk_rev_a.a(audmux_iomux_config.o)
 .bss           0x805232b0        0x0 /home/leon/git/swp-report/iMX6_Platform_SDK/output/mx6sl/lib/libboard_evk_rev_a.a(hardware_modules.o)
 .bss           0x805232b0        0x0 /home/leon/git/swp-report/iMX6_Platform_SDK/output/mx6sl/lib/libboard_evk_rev_a.a(csi_iomux_config.o)
 .bss           0x805232b0        0x0 /home/leon/git/swp-report/iMX6_Platform_SDK/output/mx6sl/lib/libboard_evk_rev_a.a(ecspi_iomux_config.o)
 .bss           0x805232b0        0x0 /home/leon/git/swp-report/iMX6_Platform_SDK/output/mx6sl/lib/libboard_evk_rev_a.a(epdc_iomux_config.o)
 .bss           0x805232b0        0x0 /home/leon/git/swp-report/iMX6_Platform_SDK/output/mx6sl/lib/libboard_evk_rev_a.a(fec_iomux_config.o)
 .bss           0x805232b0        0x0 /home/leon/git/swp-report/iMX6_Platform_SDK/output/mx6sl/lib/libboard_evk_rev_a.a(i2c_iomux_config.o)
 .bss           0x805232b0        0x0 /home/leon/git/swp-report/iMX6_Platform_SDK/output/mx6sl/lib/libboard_evk_rev_a.a(iomux_config.o)
 .bss           0x805232b0        0x0 /home/leon/git/swp-report/iMX6_Platform_SDK/output/mx6sl/lib/libboard_evk_rev_a.a(kpp_iomux_config.o)
 .bss           0x805232b0        0x0 /home/leon/git/swp-report/iMX6_Platform_SDK/output/mx6sl/lib/libboard_evk_rev_a.a(lcd_iomux_config.o)
 .bss           0x805232b0        0x0 /home/leon/git/swp-report/iMX6_Platform_SDK/output/mx6sl/lib/libboard_evk_rev_a.a(mmdc_iomux_config.o)
 .bss           0x805232b0        0x0 /home/leon/git/swp-report/iMX6_Platform_SDK/output/mx6sl/lib/libboard_evk_rev_a.a(pwm1_iomux_config.o)
 .bss           0x805232b0        0x0 /home/leon/git/swp-report/iMX6_Platform_SDK/output/mx6sl/lib/libboard_evk_rev_a.a(sjc_iomux_config.o)
 .bss           0x805232b0        0x0 /home/leon/git/swp-report/iMX6_Platform_SDK/output/mx6sl/lib/libboard_evk_rev_a.a(spdc_iomux_config.o)
 .bss           0x805232b0        0x0 /home/leon/git/swp-report/iMX6_Platform_SDK/output/mx6sl/lib/libboard_evk_rev_a.a(uart1_iomux_config.o)
 .bss           0x805232b0        0x0 /home/leon/git/swp-report/iMX6_Platform_SDK/output/mx6sl/lib/libboard_evk_rev_a.a(uart_iomux_config.o)
 .bss           0x805232b0        0x0 /home/leon/git/swp-report/iMX6_Platform_SDK/output/mx6sl/lib/libboard_evk_rev_a.a(usb_iomux_config.o)
 .bss           0x805232b0        0x0 /home/leon/git/swp-report/iMX6_Platform_SDK/output/mx6sl/lib/libboard_evk_rev_a.a(usdhc1_iomux_config.o)
 .bss           0x805232b0        0x0 /home/leon/git/swp-report/iMX6_Platform_SDK/output/mx6sl/lib/libboard_evk_rev_a.a(usdhc2_iomux_config.o)
 .bss           0x805232b0        0x0 /home/leon/git/swp-report/iMX6_Platform_SDK/output/mx6sl/lib/libboard_evk_rev_a.a(usdhc3_iomux_config.o)
 .bss           0x805232b0        0x0 /home/leon/git/swp-report/iMX6_Platform_SDK/output/mx6sl/lib/libboard_evk_rev_a.a(usdhc_iomux_config.o)
 .bss           0x805232b0        0x0 /home/leon/git/swp-report/iMX6_Platform_SDK/output/mx6sl/lib/libboard_evk_rev_a.a(wdog1_iomux_config.o)
 .bss           0x805232b0        0x0 /home/leon/git/swp-report/iMX6_Platform_SDK/output/mx6sl/lib/libboard_evk_rev_a.a(ecspi1_iomux_config.o)
 .bss           0x805232b0        0x0 /home/leon/git/swp-report/iMX6_Platform_SDK/output/mx6sl/lib/libboard_evk_rev_a.a(ecspi2_iomux_config.o)
 .bss           0x805232b0        0x0 /home/leon/git/swp-report/iMX6_Platform_SDK/output/mx6sl/lib/libboard_evk_rev_a.a(gpio1_iomux_config.o)
 .bss           0x805232b0        0x0 /home/leon/git/swp-report/iMX6_Platform_SDK/output/mx6sl/lib/libboard_evk_rev_a.a(gpio4_iomux_config.o)
 .bss           0x805232b0        0x0 /home/leon/git/swp-report/iMX6_Platform_SDK/output/mx6sl/lib/libboard_evk_rev_a.a(i2c1_iomux_config.o)
 .bss           0x805232b0        0x0 /home/leon/git/swp-report/iMX6_Platform_SDK/output/mx6sl/lib/libboard_evk_rev_a.a(i2c2_iomux_config.o)
 .bss           0x805232b0        0x0 /home/leon/git/swp-report/iMX6_Platform_SDK/output/mx6sl/lib/libboard_evk_rev_a.a(i2c3_iomux_config.o)
 .bss           0x805232b0        0x0 /home/leon/riotboard/arm-2012.09/bin/../arm-none-eabi/lib//libc.a(lib_a-assert.o)
 .bss           0x805232b0        0x0 /home/leon/riotboard/arm-2012.09/bin/../arm-none-eabi/lib//libc.a(lib_a-bzero.o)
 .bss           0x805232b0        0x0 /home/leon/riotboard/arm-2012.09/bin/../arm-none-eabi/lib//libc.a(lib_a-fiprintf.o)
 .bss           0x805232b0        0x0 /home/leon/riotboard/arm-2012.09/bin/../arm-none-eabi/lib//libc.a(lib_a-fputc.o)
 .bss           0x805232b0        0x0 /home/leon/riotboard/arm-2012.09/bin/../arm-none-eabi/lib//libc.a(lib_a-impure.o)
 .bss           0x805232b0        0x0 /home/leon/riotboard/arm-2012.09/bin/../arm-none-eabi/lib//libc.a(lib_a-init.o)
 .bss           0x805232b0        0x0 /home/leon/riotboard/arm-2012.09/bin/../arm-none-eabi/lib//libc.a(lib_a-malloc.o)
 .bss           0x805232b0       0x34 /home/leon/riotboard/arm-2012.09/bin/../arm-none-eabi/lib//libc.a(lib_a-mallocr.o)
                0x805232b0                __malloc_top_pad
                0x805232b4                __malloc_current_mallinfo
                0x805232dc                __malloc_max_sbrked_mem
                0x805232e0                __malloc_max_total_mem
 .bss           0x805232e4        0x0 /home/leon/riotboard/arm-2012.09/bin/../arm-none-eabi/lib//libc.a(lib_a-memcpy.o)
 .bss           0x805232e4        0x0 /home/leon/riotboard/arm-2012.09/bin/../arm-none-eabi/lib//libc.a(lib_a-memset.o)
 .bss           0x805232e4        0x0 /home/leon/riotboard/arm-2012.09/bin/../arm-none-eabi/lib//libc.a(lib_a-mlock.o)
 .bss           0x805232e4        0x0 /home/leon/riotboard/arm-2012.09/bin/../arm-none-eabi/lib//libc.a(lib_a-printf.o)
 .bss           0x805232e4        0x0 /home/leon/riotboard/arm-2012.09/bin/../arm-none-eabi/lib//libc.a(lib_a-putc.o)
 .bss           0x805232e4        0x0 /home/leon/riotboard/arm-2012.09/bin/../arm-none-eabi/lib//libc.a(lib_a-realloc.o)
 .bss           0x805232e4        0x0 /home/leon/riotboard/arm-2012.09/bin/../arm-none-eabi/lib//libc.a(lib_a-reallocr.o)
 .bss           0x805232e4        0x0 /home/leon/riotboard/arm-2012.09/bin/../arm-none-eabi/lib//libc.a(lib_a-rget.o)
 .bss           0x805232e4        0x0 /home/leon/riotboard/arm-2012.09/bin/../arm-none-eabi/lib//libc.a(lib_a-sbrkr.o)
 .bss           0x805232e4        0x0 /home/leon/riotboard/arm-2012.09/bin/../arm-none-eabi/lib//libc.a(lib_a-sprintf.o)
 .bss           0x805232e4        0x0 /home/leon/riotboard/arm-2012.09/bin/../arm-none-eabi/lib//libc.a(lib_a-strcat.o)
 .bss           0x805232e4        0x0 /home/leon/riotboard/arm-2012.09/bin/../arm-none-eabi/lib//libc.a(lib_a-strcmp.o)
 .bss           0x805232e4        0x0 /home/leon/riotboard/arm-2012.09/bin/../arm-none-eabi/lib//libc.a(lib_a-strcpy.o)
 .bss           0x805232e4        0x0 /home/leon/riotboard/arm-2012.09/bin/../arm-none-eabi/lib//libc.a(lib_a-strlen.o)
 .bss           0x805232e4        0x0 /home/leon/riotboard/arm-2012.09/bin/../arm-none-eabi/lib//libc.a(lib_a-strncasecmp.o)
 .bss           0x805232e4        0x0 /home/leon/riotboard/arm-2012.09/bin/../arm-none-eabi/lib//libc.a(lib_a-strtok.o)
 .bss           0x805232e4        0x0 /home/leon/riotboard/arm-2012.09/bin/../arm-none-eabi/lib//libc.a(lib_a-strtok_r.o)
 .bss           0x805232e4        0x0 /home/leon/riotboard/arm-2012.09/bin/../arm-none-eabi/lib//libc.a(lib_a-svfprintf.o)
 .bss           0x805232e4        0x0 /home/leon/riotboard/arm-2012.09/bin/../arm-none-eabi/lib//libc.a(lib_a-vfiprintf.o)
 .bss           0x805232e4        0x0 /home/leon/riotboard/arm-2012.09/bin/../arm-none-eabi/lib//libc.a(lib_a-vfprintf.o)
 .bss           0x805232e4        0x0 /home/leon/riotboard/arm-2012.09/bin/../arm-none-eabi/lib//libc.a(lib_a-vprintf.o)
 .bss           0x805232e4        0x0 /home/leon/riotboard/arm-2012.09/bin/../arm-none-eabi/lib//libc.a(lib_a-wbuf.o)
 .bss           0x805232e4        0x0 /home/leon/riotboard/arm-2012.09/bin/../arm-none-eabi/lib//libc.a(lib_a-wsetup.o)
 .bss           0x805232e4        0x0 /home/leon/riotboard/arm-2012.09/bin/../arm-none-eabi/lib//libc.a(lib_a-abort.o)
 .bss           0x805232e4        0x0 /home/leon/riotboard/arm-2012.09/bin/../arm-none-eabi/lib//libc.a(lib_a-ctype_.o)
 .bss           0x805232e4        0x0 /home/leon/riotboard/arm-2012.09/bin/../arm-none-eabi/lib//libc.a(lib_a-dtoa.o)
 .bss           0x805232e4        0x0 /home/leon/riotboard/arm-2012.09/bin/../arm-none-eabi/lib//libc.a(lib_a-fflush.o)
 .bss           0x805232e4        0x0 /home/leon/riotboard/arm-2012.09/bin/../arm-none-eabi/lib//libc.a(lib_a-findfp.o)
 .bss           0x805232e4        0x0 /home/leon/riotboard/arm-2012.09/bin/../arm-none-eabi/lib//libc.a(lib_a-fputwc.o)
 .bss           0x805232e4        0x0 /home/leon/riotboard/arm-2012.09/bin/../arm-none-eabi/lib//libc.a(lib_a-freer.o)
 .bss           0x805232e4        0x0 /home/leon/riotboard/arm-2012.09/bin/../arm-none-eabi/lib//libc.a(lib_a-fvwrite.o)
 .bss           0x805232e4        0x0 /home/leon/riotboard/arm-2012.09/bin/../arm-none-eabi/lib//libc.a(lib_a-fwalk.o)
 .bss           0x805232e4        0xc /home/leon/riotboard/arm-2012.09/bin/../arm-none-eabi/lib//libc.a(lib_a-locale.o)
                0x805232e4                _PathLocale
                0x805232e8                __mlocale_changed
                0x805232ec                __nlocale_changed
 .bss           0x805232f0        0x0 /home/leon/riotboard/arm-2012.09/bin/../arm-none-eabi/lib//libc.a(lib_a-makebuf.o)
 .bss           0x805232f0        0x0 /home/leon/riotboard/arm-2012.09/bin/../arm-none-eabi/lib//libc.a(lib_a-memchr.o)
 .bss           0x805232f0        0x0 /home/leon/riotboard/arm-2012.09/bin/../arm-none-eabi/lib//libc.a(lib_a-memmove.o)
 .bss           0x805232f0        0x0 /home/leon/riotboard/arm-2012.09/bin/../arm-none-eabi/lib//libc.a(lib_a-mprec.o)
 .bss           0x805232f0        0x0 /home/leon/riotboard/arm-2012.09/bin/../arm-none-eabi/lib//libc.a(lib_a-reent.o)
 .bss           0x805232f0        0x0 /home/leon/riotboard/arm-2012.09/bin/../arm-none-eabi/lib//libc.a(lib_a-refill.o)
 .bss           0x805232f0        0x0 /home/leon/riotboard/arm-2012.09/bin/../arm-none-eabi/lib//libc.a(lib_a-s_fpclassify.o)
 .bss           0x805232f0        0x0 /home/leon/riotboard/arm-2012.09/bin/../arm-none-eabi/lib//libc.a(lib_a-signal.o)
 .bss           0x805232f0        0x0 /home/leon/riotboard/arm-2012.09/bin/../arm-none-eabi/lib//libc.a(lib_a-signalr.o)
 .bss           0x805232f0        0x0 /home/leon/riotboard/arm-2012.09/bin/../arm-none-eabi/lib//libc.a(lib_a-stdio.o)
 .bss           0x805232f0        0x0 /home/leon/riotboard/arm-2012.09/bin/../arm-none-eabi/lib//libc.a(lib_a-svfiprintf.o)
 .bss           0x805232f0        0x0 /home/leon/riotboard/arm-2012.09/bin/../arm-none-eabi/lib//libc.a(lib_a-wcrtomb.o)
 .bss           0x805232f0        0x0 /home/leon/riotboard/arm-2012.09/bin/../arm-none-eabi/lib//libc.a(lib_a-wctomb_r.o)
 .bss           0x805232f0        0x0 /home/leon/riotboard/arm-2012.09/bin/../arm-none-eabi/lib//libc.a(lib_a-writer.o)
 .bss           0x805232f0        0x0 /home/leon/riotboard/arm-2012.09/bin/../arm-none-eabi/lib//libc.a(lib_a-callocr.o)
 .bss           0x805232f0        0x0 /home/leon/riotboard/arm-2012.09/bin/../arm-none-eabi/lib//libc.a(lib_a-closer.o)
 .bss           0x805232f0        0x0 /home/leon/riotboard/arm-2012.09/bin/../arm-none-eabi/lib//libc.a(lib_a-fclose.o)
 .bss           0x805232f0        0x0 /home/leon/riotboard/arm-2012.09/bin/../arm-none-eabi/lib//libc.a(lib_a-fstatr.o)
 .bss           0x805232f0        0x0 /home/leon/riotboard/arm-2012.09/bin/../arm-none-eabi/lib//libc.a(lib_a-isattyr.o)
 .bss           0x805232f0        0x0 /home/leon/riotboard/arm-2012.09/bin/../arm-none-eabi/lib//libc.a(lib_a-lseekr.o)
 .bss           0x805232f0        0x0 /home/leon/riotboard/arm-2012.09/bin/../arm-none-eabi/lib//libc.a(lib_a-readr.o)
 .bss           0x805232f0        0x0 /home/leon/riotboard/arm-2012.09/bin/../lib/gcc/arm-none-eabi/4.7.2//libgcc.a(_udivsi3.o)
 .bss           0x805232f0        0x0 /home/leon/riotboard/arm-2012.09/bin/../lib/gcc/arm-none-eabi/4.7.2//libgcc.a(_divsi3.o)
 .bss           0x805232f0        0x0 /home/leon/riotboard/arm-2012.09/bin/../lib/gcc/arm-none-eabi/4.7.2//libgcc.a(_dvmd_tls.o)
 .bss           0x805232f0        0x0 /home/leon/riotboard/arm-2012.09/bin/../lib/gcc/arm-none-eabi/4.7.2//libgcc.a(_arm_addsubdf3.o)
 .bss           0x805232f0        0x0 /home/leon/riotboard/arm-2012.09/bin/../lib/gcc/arm-none-eabi/4.7.2//libgcc.a(_arm_muldivdf3.o)
 .bss           0x805232f0        0x0 /home/leon/riotboard/arm-2012.09/bin/../lib/gcc/arm-none-eabi/4.7.2//libgcc.a(_arm_cmpdf2.o)
 .bss           0x805232f0        0x0 /home/leon/riotboard/arm-2012.09/bin/../lib/gcc/arm-none-eabi/4.7.2//libgcc.a(_arm_fixdfsi.o)
 .bss           0x805232f0        0x0 /home/leon/riotboard/arm-2012.09/bin/../lib/gcc/arm-none-eabi/4.7.2//libgcc.a(_aeabi_uldivmod.o)
 .bss           0x805232f0        0x0 /home/leon/riotboard/arm-2012.09/bin/../lib/gcc/arm-none-eabi/4.7.2//libgcc.a(bpabi.o)
 .bss           0x805232f0        0x0 /home/leon/riotboard/arm-2012.09/bin/../lib/gcc/arm-none-eabi/4.7.2//libgcc.a(_divdi3.o)
 .bss           0x805232f0        0x0 /home/leon/riotboard/arm-2012.09/bin/../lib/gcc/arm-none-eabi/4.7.2//libgcc.a(_udivdi3.o)
 .bss           0x805232f0        0x0 /home/leon/riotboard/arm-2012.09/bin/../lib/gcc/arm-none-eabi/4.7.2//libgcc.a(_clzsi2.o)
 .bss           0x805232f0        0xc /home/leon/git/swp-report/iMX6_Platform_SDK/output/mx6sl/lib/libsdk.a(runtime_support.o)
                0x805232f0                __env
 *(COMMON)
 COMMON         0x805232fc        0x4 /home/leon/riotboard/arm-2012.09/bin/../arm-none-eabi/lib//libc.a(lib_a-reent.o)
                0x805232fc                errno
 *(.bss)
                0x80523300                __bss_end__ = .

.stacks         0x80523300     0xc000
                0x80523300                __stacks_start = .
                0x8052f300                . = (. + 0xc000)
 *fill*         0x80523300     0xc000 
                0x8052f300                __stacks_end = .
                0x8052f300                top_of_stacks = .
                0x8052f300                free_memory_start = ALIGN (0x20)
                0x8852f300                . = (. + 0x8000000)
                0x8852f300                free_memory_end = .
                0x8852f300                _end = .
START GROUP
LOAD /home/leon/git/swp-report/iMX6_Platform_SDK/output/mx6sl/obds/evk_rev_a/obj/apps/common/ivt.o
LOAD /home/leon/git/swp-report/iMX6_Platform_SDK/output/mx6sl/obds/evk_rev_a/obj/apps/common/platform_init.o
LOAD /home/leon/git/swp-report/iMX6_Platform_SDK/output/mx6sl/obds/evk_rev_a/obj/apps/common/print_clock_info.o
LOAD /home/leon/git/swp-report/iMX6_Platform_SDK/output/mx6sl/obds/evk_rev_a/obj/apps/common/print_version.o
LOAD /home/leon/git/swp-report/iMX6_Platform_SDK/output/mx6sl/obds/evk_rev_a/obj/apps/obds/src/obds.o
LOAD /home/leon/git/swp-report/iMX6_Platform_SDK/output/mx6sl/obds/evk_rev_a/obj/apps/obds/src/obds_utils.o
LOAD /home/leon/git/swp-report/iMX6_Platform_SDK/output/mx6sl/obds/evk_rev_a/obj/apps/obds/src/tests/audio_esai_test.o
LOAD /home/leon/git/swp-report/iMX6_Platform_SDK/output/mx6sl/obds/evk_rev_a/obj/apps/obds/src/tests/audio_ssi_test.o
LOAD /home/leon/git/swp-report/iMX6_Platform_SDK/output/mx6sl/obds/evk_rev_a/obj/apps/obds/src/tests/ddr_test.o
LOAD /home/leon/git/swp-report/iMX6_Platform_SDK/output/mx6sl/obds/evk_rev_a/obj/apps/obds/src/tests/flexcan_test.o
LOAD /home/leon/git/swp-report/iMX6_Platform_SDK/output/mx6sl/obds/evk_rev_a/obj/apps/obds/src/tests/gpio_led.o
LOAD /home/leon/git/swp-report/iMX6_Platform_SDK/output/mx6sl/obds/evk_rev_a/obj/apps/obds/src/tests/gps_test.o
LOAD /home/leon/git/swp-report/iMX6_Platform_SDK/output/mx6sl/obds/evk_rev_a/obj/apps/obds/src/tests/i2c_check_light_sensor_isl29023.o
LOAD /home/leon/git/swp-report/iMX6_Platform_SDK/output/mx6sl/obds/evk_rev_a/obj/apps/obds/src/tests/i2c_device_barometer_ppl3115.o
LOAD /home/leon/git/swp-report/iMX6_Platform_SDK/output/mx6sl/obds/evk_rev_a/obj/apps/obds/src/tests/i2c_device_check_cs42888.o
LOAD /home/leon/git/swp-report/iMX6_Platform_SDK/output/mx6sl/obds/evk_rev_a/obj/apps/obds/src/tests/i2c_device_digital_compass_mag3110.o
LOAD /home/leon/git/swp-report/iMX6_Platform_SDK/output/mx6sl/obds/evk_rev_a/obj/apps/obds/src/tests/i2c_device_digital_compass_mag3112.o
LOAD /home/leon/git/swp-report/iMX6_Platform_SDK/output/mx6sl/obds/evk_rev_a/obj/apps/obds/src/tests/i2c_device_id_check_mma8450.o
LOAD /home/leon/git/swp-report/iMX6_Platform_SDK/output/mx6sl/obds/evk_rev_a/obj/apps/obds/src/tests/i2c_device_id_check_mma8451.o
LOAD /home/leon/git/swp-report/iMX6_Platform_SDK/output/mx6sl/obds/evk_rev_a/obj/apps/obds/src/tests/i2c_device_temp_sensor_emc1046.o
LOAD /home/leon/git/swp-report/iMX6_Platform_SDK/output/mx6sl/obds/evk_rev_a/obj/apps/obds/src/tests/i2c_device_zigbee_mc1323.o
LOAD /home/leon/git/swp-report/iMX6_Platform_SDK/output/mx6sl/obds/evk_rev_a/obj/apps/obds/src/tests/i2c_eeprom_at24cxx_test.o
LOAD /home/leon/git/swp-report/iMX6_Platform_SDK/output/mx6sl/obds/evk_rev_a/obj/apps/obds/src/tests/imx_spi_nor_test.o
LOAD /home/leon/git/swp-report/iMX6_Platform_SDK/output/mx6sl/obds/evk_rev_a/obj/apps/obds/src/tests/keyboard_test.o
LOAD /home/leon/git/swp-report/iMX6_Platform_SDK/output/mx6sl/obds/evk_rev_a/obj/apps/obds/src/tests/mmcsd_test.o
LOAD /home/leon/git/swp-report/iMX6_Platform_SDK/output/mx6sl/obds/evk_rev_a/obj/apps/obds/src/tests/pmic_da9053.o
LOAD /home/leon/git/swp-report/iMX6_Platform_SDK/output/mx6sl/obds/evk_rev_a/obj/apps/obds/src/tests/pmic_lt3589.o
LOAD /home/leon/git/swp-report/iMX6_Platform_SDK/output/mx6sl/obds/evk_rev_a/obj/apps/obds/src/tests/pmic_max17135.o
LOAD /home/leon/git/swp-report/iMX6_Platform_SDK/output/mx6sl/obds/evk_rev_a/obj/apps/obds/src/tests/pmic_mc13892.o
LOAD /home/leon/git/swp-report/iMX6_Platform_SDK/output/mx6sl/obds/evk_rev_a/obj/apps/obds/src/tests/program_board_id.o
LOAD /home/leon/git/swp-report/iMX6_Platform_SDK/output/mx6sl/obds/evk_rev_a/obj/apps/obds/src/tests/program_mac_address.o
LOAD /home/leon/git/swp-report/iMX6_Platform_SDK/output/mx6sl/obds/evk_rev_a/obj/apps/obds/src/tests/snvs_srtc_test.o
LOAD /home/leon/git/swp-report/iMX6_Platform_SDK/output/mx6sl/obds/evk_rev_a/obj/apps/obds/src/tests/touch_button_test.o
LOAD /home/leon/git/swp-report/iMX6_Platform_SDK/output/mx6sl/obds/evk_rev_a/obj/apps/obds/src/tests/touch_screen.o
LOAD /home/leon/git/swp-report/iMX6_Platform_SDK/output/mx6sl/obds/evk_rev_a/obj/apps/obds/src/tests/touch_screen_max11801.o
LOAD /home/leon/git/swp-report/iMX6_Platform_SDK/output/mx6sl/obds/evk_rev_a/obj/apps/obds/src/tests/usb_tests_obds.o
LOAD /home/leon/git/swp-report/iMX6_Platform_SDK/output/mx6sl/obds/evk_rev_a/obj/apps/obds/src/tests/weim_nor_flash_test.o
LOAD /home/leon/git/swp-report/iMX6_Platform_SDK/output/mx6sl/obds/evk_rev_a/obj/sdk/common/pmic/pfuse/pf0100.o
LOAD /home/leon/git/swp-report/iMX6_Platform_SDK/output/mx6sl/obds/evk_rev_a/obj/sdk/drivers/audio/src/snd_card.o
LOAD /home/leon/git/swp-report/iMX6_Platform_SDK/output/mx6sl/obds/evk_rev_a/obj/sdk/drivers/camera/test/adv7180_capture.o
LOAD /home/leon/git/swp-report/iMX6_Platform_SDK/output/mx6sl/obds/evk_rev_a/obj/sdk/drivers/camera/test/camera_test.o
LOAD /home/leon/git/swp-report/iMX6_Platform_SDK/output/mx6sl/obds/evk_rev_a/obj/sdk/drivers/camera/test/csi_sensor_capture.o
LOAD /home/leon/git/swp-report/iMX6_Platform_SDK/output/mx6sl/obds/evk_rev_a/obj/sdk/drivers/epdc/test/epdc_test.o
LOAD /home/leon/git/swp-report/iMX6_Platform_SDK/output/mx6sl/obds/evk_rev_a/obj/sdk/drivers/fec/test/fec_test.o
LOAD /home/leon/git/swp-report/iMX6_Platform_SDK/output/mx6sl/obds/evk_rev_a/obj/sdk/drivers/lcdif/test/lcdif_display.o
LOAD /home/leon/git/swp-report/iMX6_Platform_SDK/output/mx6sl/obds/evk_rev_a/obj/sdk/drivers/spi/test/imx_spi_nor_atmel.o
LOAD /home/leon/git/swp-report/iMX6_Platform_SDK/output/mx6sl/obds/evk_rev_a/obj/sdk/drivers/spi/test/spi_nor_numonyx.o
LOAD /home/leon/git/swp-report/iMX6_Platform_SDK/output/mx6sl/obds/evk_rev_a/obj/sdk/drivers/uart/test/uart_test.o
LOAD /home/leon/git/swp-report/iMX6_Platform_SDK/output/mx6sl/obds/evk_rev_a/obj/sdk/drivers/usb/test/usb0_host_test.o
LOAD /home/leon/git/swp-report/iMX6_Platform_SDK/output/mx6sl/obds/evk_rev_a/obj/sdk/drivers/usb/test/usb0_host_testmodes_test.o
LOAD /home/leon/git/swp-report/iMX6_Platform_SDK/output/mx6sl/obds/evk_rev_a/obj/sdk/drivers/usdhc/test/usdhc_test.o
LOAD /home/leon/git/swp-report/iMX6_Platform_SDK/output/mx6sl/lib/libsdk.a
LOAD /home/leon/git/swp-report/iMX6_Platform_SDK/output/mx6sl/lib/libboard_evk_rev_a.a
LOAD /home/leon/riotboard/arm-2012.09/bin/../arm-none-eabi/lib//libm.a
LOAD /home/leon/riotboard/arm-2012.09/bin/../arm-none-eabi/lib//libstdc++.a
LOAD /home/leon/riotboard/arm-2012.09/bin/../arm-none-eabi/lib//libc.a
LOAD /home/leon/riotboard/arm-2012.09/bin/../lib/gcc/arm-none-eabi/4.7.2//libgcc.a
END GROUP
OUTPUT(/home/leon/git/swp-report/iMX6_Platform_SDK/output/mx6sl/obds/evk_rev_a/obds.elf elf32-littlearm)

.ARM.attributes
                0x00000000       0x3b
 .ARM.attributes
                0x00000000       0x30 /home/leon/riotboard/arm-2012.09/bin/../lib/gcc/arm-none-eabi/4.7.2//crtbegin.o
 .ARM.attributes
                0x00000030       0x16 /home/leon/riotboard/arm-2012.09/bin/../lib/gcc/arm-none-eabi/4.7.2//crti.o
 .ARM.attributes
                0x00000046       0x30 /home/leon/riotboard/arm-2012.09/bin/../lib/gcc/arm-none-eabi/4.7.2//crtend.o
 .ARM.attributes
                0x00000076       0x18 /home/leon/riotboard/arm-2012.09/bin/../lib/gcc/arm-none-eabi/4.7.2//crtn.o
 .ARM.attributes
                0x0000008e       0x39 /home/leon/git/swp-report/iMX6_Platform_SDK/output/mx6sl/obds/evk_rev_a/obj/apps/common/ivt.o
 .ARM.attributes
                0x000000c7       0x39 /home/leon/git/swp-report/iMX6_Platform_SDK/output/mx6sl/obds/evk_rev_a/obj/apps/common/platform_init.o
 .ARM.attributes
                0x00000100       0x39 /home/leon/git/swp-report/iMX6_Platform_SDK/output/mx6sl/obds/evk_rev_a/obj/apps/common/print_clock_info.o
 .ARM.attributes
                0x00000139       0x39 /home/leon/git/swp-report/iMX6_Platform_SDK/output/mx6sl/obds/evk_rev_a/obj/apps/common/print_version.o
 .ARM.attributes
                0x00000172       0x39 /home/leon/git/swp-report/iMX6_Platform_SDK/output/mx6sl/obds/evk_rev_a/obj/apps/obds/src/obds.o
 .ARM.attributes
                0x000001ab       0x39 /home/leon/git/swp-report/iMX6_Platform_SDK/output/mx6sl/obds/evk_rev_a/obj/apps/obds/src/obds_utils.o
 .ARM.attributes
                0x000001e4       0x39 /home/leon/git/swp-report/iMX6_Platform_SDK/output/mx6sl/obds/evk_rev_a/obj/apps/obds/src/tests/audio_esai_test.o
 .ARM.attributes
                0x0000021d       0x39 /home/leon/git/swp-report/iMX6_Platform_SDK/output/mx6sl/obds/evk_rev_a/obj/apps/obds/src/tests/audio_ssi_test.o
 .ARM.attributes
                0x00000256       0x39 /home/leon/git/swp-report/iMX6_Platform_SDK/output/mx6sl/obds/evk_rev_a/obj/apps/obds/src/tests/ddr_test.o
 .ARM.attributes
                0x0000028f       0x39 /home/leon/git/swp-report/iMX6_Platform_SDK/output/mx6sl/obds/evk_rev_a/obj/apps/obds/src/tests/flexcan_test.o
 .ARM.attributes
                0x000002c8       0x39 /home/leon/git/swp-report/iMX6_Platform_SDK/output/mx6sl/obds/evk_rev_a/obj/apps/obds/src/tests/gpio_led.o
 .ARM.attributes
                0x00000301       0x39 /home/leon/git/swp-report/iMX6_Platform_SDK/output/mx6sl/obds/evk_rev_a/obj/apps/obds/src/tests/gps_test.o
 .ARM.attributes
                0x0000033a       0x39 /home/leon/git/swp-report/iMX6_Platform_SDK/output/mx6sl/obds/evk_rev_a/obj/apps/obds/src/tests/i2c_check_light_sensor_isl29023.o
 .ARM.attributes
                0x00000373       0x39 /home/leon/git/swp-report/iMX6_Platform_SDK/output/mx6sl/obds/evk_rev_a/obj/apps/obds/src/tests/i2c_device_barometer_ppl3115.o
 .ARM.attributes
                0x000003ac       0x39 /home/leon/git/swp-report/iMX6_Platform_SDK/output/mx6sl/obds/evk_rev_a/obj/apps/obds/src/tests/i2c_device_check_cs42888.o
 .ARM.attributes
                0x000003e5       0x39 /home/leon/git/swp-report/iMX6_Platform_SDK/output/mx6sl/obds/evk_rev_a/obj/apps/obds/src/tests/i2c_device_digital_compass_mag3110.o
 .ARM.attributes
                0x0000041e       0x39 /home/leon/git/swp-report/iMX6_Platform_SDK/output/mx6sl/obds/evk_rev_a/obj/apps/obds/src/tests/i2c_device_digital_compass_mag3112.o
 .ARM.attributes
                0x00000457       0x39 /home/leon/git/swp-report/iMX6_Platform_SDK/output/mx6sl/obds/evk_rev_a/obj/apps/obds/src/tests/i2c_device_id_check_mma8450.o
 .ARM.attributes
                0x00000490       0x39 /home/leon/git/swp-report/iMX6_Platform_SDK/output/mx6sl/obds/evk_rev_a/obj/apps/obds/src/tests/i2c_device_id_check_mma8451.o
 .ARM.attributes
                0x000004c9       0x39 /home/leon/git/swp-report/iMX6_Platform_SDK/output/mx6sl/obds/evk_rev_a/obj/apps/obds/src/tests/i2c_device_temp_sensor_emc1046.o
 .ARM.attributes
                0x00000502       0x39 /home/leon/git/swp-report/iMX6_Platform_SDK/output/mx6sl/obds/evk_rev_a/obj/apps/obds/src/tests/i2c_device_zigbee_mc1323.o
 .ARM.attributes
                0x0000053b       0x39 /home/leon/git/swp-report/iMX6_Platform_SDK/output/mx6sl/obds/evk_rev_a/obj/apps/obds/src/tests/i2c_eeprom_at24cxx_test.o
 .ARM.attributes
                0x00000574       0x39 /home/leon/git/swp-report/iMX6_Platform_SDK/output/mx6sl/obds/evk_rev_a/obj/apps/obds/src/tests/imx_spi_nor_test.o
 .ARM.attributes
                0x000005ad       0x39 /home/leon/git/swp-report/iMX6_Platform_SDK/output/mx6sl/obds/evk_rev_a/obj/apps/obds/src/tests/keyboard_test.o
 .ARM.attributes
                0x000005e6       0x39 /home/leon/git/swp-report/iMX6_Platform_SDK/output/mx6sl/obds/evk_rev_a/obj/apps/obds/src/tests/mmcsd_test.o
 .ARM.attributes
                0x0000061f       0x39 /home/leon/git/swp-report/iMX6_Platform_SDK/output/mx6sl/obds/evk_rev_a/obj/apps/obds/src/tests/pmic_da9053.o
 .ARM.attributes
                0x00000658       0x39 /home/leon/git/swp-report/iMX6_Platform_SDK/output/mx6sl/obds/evk_rev_a/obj/apps/obds/src/tests/pmic_lt3589.o
 .ARM.attributes
                0x00000691       0x39 /home/leon/git/swp-report/iMX6_Platform_SDK/output/mx6sl/obds/evk_rev_a/obj/apps/obds/src/tests/pmic_max17135.o
 .ARM.attributes
                0x000006ca       0x39 /home/leon/git/swp-report/iMX6_Platform_SDK/output/mx6sl/obds/evk_rev_a/obj/apps/obds/src/tests/pmic_mc13892.o
 .ARM.attributes
                0x00000703       0x39 /home/leon/git/swp-report/iMX6_Platform_SDK/output/mx6sl/obds/evk_rev_a/obj/apps/obds/src/tests/program_board_id.o
 .ARM.attributes
                0x0000073c       0x39 /home/leon/git/swp-report/iMX6_Platform_SDK/output/mx6sl/obds/evk_rev_a/obj/apps/obds/src/tests/program_mac_address.o
 .ARM.attributes
                0x00000775       0x39 /home/leon/git/swp-report/iMX6_Platform_SDK/output/mx6sl/obds/evk_rev_a/obj/apps/obds/src/tests/snvs_srtc_test.o
 .ARM.attributes
                0x000007ae       0x39 /home/leon/git/swp-report/iMX6_Platform_SDK/output/mx6sl/obds/evk_rev_a/obj/apps/obds/src/tests/touch_button_test.o
 .ARM.attributes
                0x000007e7       0x39 /home/leon/git/swp-report/iMX6_Platform_SDK/output/mx6sl/obds/evk_rev_a/obj/apps/obds/src/tests/touch_screen.o
 .ARM.attributes
                0x00000820       0x39 /home/leon/git/swp-report/iMX6_Platform_SDK/output/mx6sl/obds/evk_rev_a/obj/apps/obds/src/tests/touch_screen_max11801.o
 .ARM.attributes
                0x00000859       0x39 /home/leon/git/swp-report/iMX6_Platform_SDK/output/mx6sl/obds/evk_rev_a/obj/apps/obds/src/tests/usb_tests_obds.o
 .ARM.attributes
                0x00000892       0x39 /home/leon/git/swp-report/iMX6_Platform_SDK/output/mx6sl/obds/evk_rev_a/obj/apps/obds/src/tests/weim_nor_flash_test.o
 .ARM.attributes
                0x000008cb       0x39 /home/leon/git/swp-report/iMX6_Platform_SDK/output/mx6sl/obds/evk_rev_a/obj/sdk/common/pmic/pfuse/pf0100.o
 .ARM.attributes
                0x00000904       0x39 /home/leon/git/swp-report/iMX6_Platform_SDK/output/mx6sl/obds/evk_rev_a/obj/sdk/drivers/audio/src/snd_card.o
 .ARM.attributes
                0x0000093d       0x39 /home/leon/git/swp-report/iMX6_Platform_SDK/output/mx6sl/obds/evk_rev_a/obj/sdk/drivers/camera/test/adv7180_capture.o
 .ARM.attributes
                0x00000976       0x39 /home/leon/git/swp-report/iMX6_Platform_SDK/output/mx6sl/obds/evk_rev_a/obj/sdk/drivers/camera/test/camera_test.o
 .ARM.attributes
                0x000009af       0x39 /home/leon/git/swp-report/iMX6_Platform_SDK/output/mx6sl/obds/evk_rev_a/obj/sdk/drivers/camera/test/csi_sensor_capture.o
 .ARM.attributes
                0x000009e8       0x39 /home/leon/git/swp-report/iMX6_Platform_SDK/output/mx6sl/obds/evk_rev_a/obj/sdk/drivers/epdc/test/epdc_test.o
 .ARM.attributes
                0x00000a21       0x39 /home/leon/git/swp-report/iMX6_Platform_SDK/output/mx6sl/obds/evk_rev_a/obj/sdk/drivers/fec/test/fec_test.o
 .ARM.attributes
                0x00000a5a       0x39 /home/leon/git/swp-report/iMX6_Platform_SDK/output/mx6sl/obds/evk_rev_a/obj/sdk/drivers/lcdif/test/lcdif_display.o
 .ARM.attributes
                0x00000a93       0x39 /home/leon/git/swp-report/iMX6_Platform_SDK/output/mx6sl/obds/evk_rev_a/obj/sdk/drivers/spi/test/imx_spi_nor_atmel.o
 .ARM.attributes
                0x00000acc       0x39 /home/leon/git/swp-report/iMX6_Platform_SDK/output/mx6sl/obds/evk_rev_a/obj/sdk/drivers/spi/test/spi_nor_numonyx.o
 .ARM.attributes
                0x00000b05       0x39 /home/leon/git/swp-report/iMX6_Platform_SDK/output/mx6sl/obds/evk_rev_a/obj/sdk/drivers/uart/test/uart_test.o
 .ARM.attributes
                0x00000b3e       0x39 /home/leon/git/swp-report/iMX6_Platform_SDK/output/mx6sl/obds/evk_rev_a/obj/sdk/drivers/usb/test/usb0_host_test.o
 .ARM.attributes
                0x00000b77       0x39 /home/leon/git/swp-report/iMX6_Platform_SDK/output/mx6sl/obds/evk_rev_a/obj/sdk/drivers/usb/test/usb0_host_testmodes_test.o
 .ARM.attributes
                0x00000bb0       0x39 /home/leon/git/swp-report/iMX6_Platform_SDK/output/mx6sl/obds/evk_rev_a/obj/sdk/drivers/usdhc/test/usdhc_test.o
 .ARM.attributes
                0x00000be9       0x39 /home/leon/git/swp-report/iMX6_Platform_SDK/output/mx6sl/lib/libsdk.a(ccm_pll.o)
 .ARM.attributes
                0x00000c22       0x16 /home/leon/git/swp-report/iMX6_Platform_SDK/output/mx6sl/lib/libsdk.a(cortexA9.o)
 .ARM.attributes
                0x00000c38       0x39 /home/leon/git/swp-report/iMX6_Platform_SDK/output/mx6sl/lib/libsdk.a(gic.o)
 .ARM.attributes
                0x00000c71       0x39 /home/leon/git/swp-report/iMX6_Platform_SDK/output/mx6sl/lib/libsdk.a(mmu.o)
 .ARM.attributes
                0x00000caa       0x16 /home/leon/git/swp-report/iMX6_Platform_SDK/output/mx6sl/lib/libsdk.a(startup.o)
 .ARM.attributes
                0x00000cc0       0x14 /home/leon/git/swp-report/iMX6_Platform_SDK/output/mx6sl/lib/libsdk.a(vectors.o)
 .ARM.attributes
                0x00000cd4       0x39 /home/leon/git/swp-report/iMX6_Platform_SDK/output/mx6sl/lib/libsdk.a(menu.o)
 .ARM.attributes
                0x00000d0d       0x39 /home/leon/git/swp-report/iMX6_Platform_SDK/output/mx6sl/lib/libsdk.a(sdk_version.o)
 .ARM.attributes
                0x00000d46       0x39 /home/leon/git/swp-report/iMX6_Platform_SDK/output/mx6sl/lib/libsdk.a(system_util.o)
 .ARM.attributes
                0x00000d7f       0x39 /home/leon/git/swp-report/iMX6_Platform_SDK/output/mx6sl/lib/libsdk.a(text_color.o)
 .ARM.attributes
                0x00000db8       0x39 /home/leon/git/swp-report/iMX6_Platform_SDK/output/mx6sl/lib/libsdk.a(imx-ssi.o)
 .ARM.attributes
                0x00000df1       0x39 /home/leon/git/swp-report/iMX6_Platform_SDK/output/mx6sl/lib/libsdk.a(imx_audmux.o)
 .ARM.attributes
                0x00000e2a       0x39 /home/leon/git/swp-report/iMX6_Platform_SDK/output/mx6sl/lib/libsdk.a(imx_spdif.o)
 .ARM.attributes
                0x00000e63       0x39 /home/leon/git/swp-report/iMX6_Platform_SDK/output/mx6sl/lib/libsdk.a(wm8962.o)
 .ARM.attributes
                0x00000e9c       0x39 /home/leon/git/swp-report/iMX6_Platform_SDK/output/mx6sl/lib/libsdk.a(board_id.o)
 .ARM.attributes
                0x00000ed5       0x39 /home/leon/git/swp-report/iMX6_Platform_SDK/output/mx6sl/lib/libsdk.a(csi_drv.o)
 .ARM.attributes
                0x00000f0e       0x39 /home/leon/git/swp-report/iMX6_Platform_SDK/output/mx6sl/lib/libsdk.a(smd_sensor.o)
 .ARM.attributes
                0x00000f47       0x39 /home/leon/git/swp-report/iMX6_Platform_SDK/output/mx6sl/lib/libsdk.a(mxc_epdc.o)
 .ARM.attributes
                0x00000f80       0x39 /home/leon/git/swp-report/iMX6_Platform_SDK/output/mx6sl/lib/libsdk.a(fec_drv.o)
 .ARM.attributes
                0x00000fb9       0x39 /home/leon/git/swp-report/iMX6_Platform_SDK/output/mx6sl/lib/libsdk.a(gpio.o)
 .ARM.attributes
                0x00000ff2       0x39 /home/leon/git/swp-report/iMX6_Platform_SDK/output/mx6sl/lib/libsdk.a(imx6sl_gpio_map.o)
 .ARM.attributes
                0x0000102b       0x39 /home/leon/git/swp-report/iMX6_Platform_SDK/output/mx6sl/lib/libsdk.a(imx_i2c.o)
 .ARM.attributes
                0x00001064       0x39 /home/leon/git/swp-report/iMX6_Platform_SDK/output/mx6sl/lib/libsdk.a(lcdif_drv.o)
 .ARM.attributes
                0x0000109d       0x39 /home/leon/git/swp-report/iMX6_Platform_SDK/output/mx6sl/lib/libsdk.a(pxp_drv.o)
 .ARM.attributes
                0x000010d6       0x39 /home/leon/git/swp-report/iMX6_Platform_SDK/output/mx6sl/lib/libsdk.a(ocotp.o)
 .ARM.attributes
                0x0000110f       0x39 /home/leon/git/swp-report/iMX6_Platform_SDK/output/mx6sl/lib/libsdk.a(ecspi.o)
 .ARM.attributes
                0x00001148       0x39 /home/leon/git/swp-report/iMX6_Platform_SDK/output/mx6sl/lib/libsdk.a(timer.o)
 .ARM.attributes
                0x00001181       0x39 /home/leon/git/swp-report/iMX6_Platform_SDK/output/mx6sl/lib/libsdk.a(imx_uart.o)
 .ARM.attributes
                0x000011ba       0x39 /home/leon/git/swp-report/iMX6_Platform_SDK/output/mx6sl/lib/libsdk.a(usb_common.o)
 .ARM.attributes
                0x000011f3       0x39 /home/leon/git/swp-report/iMX6_Platform_SDK/output/mx6sl/lib/libsdk.a(usbh_drv.o)
 .ARM.attributes
                0x0000122c       0x39 /home/leon/git/swp-report/iMX6_Platform_SDK/output/mx6sl/lib/libsdk.a(usdhc.o)
 .ARM.attributes
                0x00001265       0x39 /home/leon/git/swp-report/iMX6_Platform_SDK/output/mx6sl/lib/libsdk.a(usdhc_host.o)
 .ARM.attributes
                0x0000129e       0x39 /home/leon/git/swp-report/iMX6_Platform_SDK/output/mx6sl/lib/libsdk.a(usdhc_mmc.o)
 .ARM.attributes
                0x000012d7       0x39 /home/leon/git/swp-report/iMX6_Platform_SDK/output/mx6sl/lib/libsdk.a(usdhc_sd.o)
 .ARM.attributes
                0x00001310       0x14 /home/leon/git/swp-report/iMX6_Platform_SDK/output/mx6sl/lib/libsdk.a(arm_abort.o)
 .ARM.attributes
                0x00001324       0x39 /home/leon/git/swp-report/iMX6_Platform_SDK/output/mx6sl/lib/libsdk.a(armv7_cache.o)
 .ARM.attributes
                0x0000135d       0x39 /home/leon/git/swp-report/iMX6_Platform_SDK/output/mx6sl/lib/libsdk.a(interrupt.o)
 .ARM.attributes
                0x00001396       0x39 /home/leon/git/swp-report/iMX6_Platform_SDK/output/mx6sl/lib/libsdk.a(camera_profile.o)
 .ARM.attributes
                0x000013cf       0x39 /home/leon/git/swp-report/iMX6_Platform_SDK/output/mx6sl/lib/libsdk.a(epit.o)
 .ARM.attributes
                0x00001408       0x39 /home/leon/git/swp-report/iMX6_Platform_SDK/output/mx6sl/lib/libsdk.a(mx6x_usb.o)
 .ARM.attributes
                0x00001441       0x39 /home/leon/git/swp-report/iMX6_Platform_SDK/output/mx6sl/lib/libsdk.a(abort_handler.o)
 .ARM.attributes
                0x0000147a       0x39 /home/leon/git/swp-report/iMX6_Platform_SDK/output/mx6sl/lib/libboard_evk_rev_a.a(board_audio.o)
 .ARM.attributes
                0x000014b3       0x39 /home/leon/git/swp-report/iMX6_Platform_SDK/output/mx6sl/lib/libboard_evk_rev_a.a(board_camera.o)
 .ARM.attributes
                0x000014ec       0x39 /home/leon/git/swp-report/iMX6_Platform_SDK/output/mx6sl/lib/libboard_evk_rev_a.a(board_display.o)
 .ARM.attributes
                0x00001525       0x39 /home/leon/git/swp-report/iMX6_Platform_SDK/output/mx6sl/lib/libboard_evk_rev_a.a(board_i2c.o)
 .ARM.attributes
                0x0000155e       0x39 /home/leon/git/swp-report/iMX6_Platform_SDK/output/mx6sl/lib/libboard_evk_rev_a.a(board_io_expanders.o)
 .ARM.attributes
                0x00001597       0x39 /home/leon/git/swp-report/iMX6_Platform_SDK/output/mx6sl/lib/libboard_evk_rev_a.a(board_usb.o)
 .ARM.attributes
                0x000015d0       0x39 /home/leon/git/swp-report/iMX6_Platform_SDK/output/mx6sl/lib/libboard_evk_rev_a.a(board_usdhc.o)
 .ARM.attributes
                0x00001609       0x39 /home/leon/git/swp-report/iMX6_Platform_SDK/output/mx6sl/lib/libboard_evk_rev_a.a(dcd.o)
 .ARM.attributes
                0x00001642       0x39 /home/leon/git/swp-report/iMX6_Platform_SDK/output/mx6sl/lib/libboard_evk_rev_a.a(audmux_iomux_config.o)
 .ARM.attributes
                0x0000167b       0x39 /home/leon/git/swp-report/iMX6_Platform_SDK/output/mx6sl/lib/libboard_evk_rev_a.a(hardware_modules.o)
 .ARM.attributes
                0x000016b4       0x39 /home/leon/git/swp-report/iMX6_Platform_SDK/output/mx6sl/lib/libboard_evk_rev_a.a(csi_iomux_config.o)
 .ARM.attributes
                0x000016ed       0x39 /home/leon/git/swp-report/iMX6_Platform_SDK/output/mx6sl/lib/libboard_evk_rev_a.a(ecspi_iomux_config.o)
 .ARM.attributes
                0x00001726       0x39 /home/leon/git/swp-report/iMX6_Platform_SDK/output/mx6sl/lib/libboard_evk_rev_a.a(epdc_iomux_config.o)
 .ARM.attributes
                0x0000175f       0x39 /home/leon/git/swp-report/iMX6_Platform_SDK/output/mx6sl/lib/libboard_evk_rev_a.a(fec_iomux_config.o)
 .ARM.attributes
                0x00001798       0x39 /home/leon/git/swp-report/iMX6_Platform_SDK/output/mx6sl/lib/libboard_evk_rev_a.a(i2c_iomux_config.o)
 .ARM.attributes
                0x000017d1       0x39 /home/leon/git/swp-report/iMX6_Platform_SDK/output/mx6sl/lib/libboard_evk_rev_a.a(iomux_config.o)
 .ARM.attributes
                0x0000180a       0x39 /home/leon/git/swp-report/iMX6_Platform_SDK/output/mx6sl/lib/libboard_evk_rev_a.a(kpp_iomux_config.o)
 .ARM.attributes
                0x00001843       0x39 /home/leon/git/swp-report/iMX6_Platform_SDK/output/mx6sl/lib/libboard_evk_rev_a.a(lcd_iomux_config.o)
 .ARM.attributes
                0x0000187c       0x39 /home/leon/git/swp-report/iMX6_Platform_SDK/output/mx6sl/lib/libboard_evk_rev_a.a(mmdc_iomux_config.o)
 .ARM.attributes
                0x000018b5       0x39 /home/leon/git/swp-report/iMX6_Platform_SDK/output/mx6sl/lib/libboard_evk_rev_a.a(pwm1_iomux_config.o)
 .ARM.attributes
                0x000018ee       0x39 /home/leon/git/swp-report/iMX6_Platform_SDK/output/mx6sl/lib/libboard_evk_rev_a.a(sjc_iomux_config.o)
 .ARM.attributes
                0x00001927       0x39 /home/leon/git/swp-report/iMX6_Platform_SDK/output/mx6sl/lib/libboard_evk_rev_a.a(spdc_iomux_config.o)
 .ARM.attributes
                0x00001960       0x39 /home/leon/git/swp-report/iMX6_Platform_SDK/output/mx6sl/lib/libboard_evk_rev_a.a(uart1_iomux_config.o)
 .ARM.attributes
                0x00001999       0x39 /home/leon/git/swp-report/iMX6_Platform_SDK/output/mx6sl/lib/libboard_evk_rev_a.a(uart_iomux_config.o)
 .ARM.attributes
                0x000019d2       0x39 /home/leon/git/swp-report/iMX6_Platform_SDK/output/mx6sl/lib/libboard_evk_rev_a.a(usb_iomux_config.o)
 .ARM.attributes
                0x00001a0b       0x39 /home/leon/git/swp-report/iMX6_Platform_SDK/output/mx6sl/lib/libboard_evk_rev_a.a(usdhc1_iomux_config.o)
 .ARM.attributes
                0x00001a44       0x39 /home/leon/git/swp-report/iMX6_Platform_SDK/output/mx6sl/lib/libboard_evk_rev_a.a(usdhc2_iomux_config.o)
 .ARM.attributes
                0x00001a7d       0x39 /home/leon/git/swp-report/iMX6_Platform_SDK/output/mx6sl/lib/libboard_evk_rev_a.a(usdhc3_iomux_config.o)
 .ARM.attributes
                0x00001ab6       0x39 /home/leon/git/swp-report/iMX6_Platform_SDK/output/mx6sl/lib/libboard_evk_rev_a.a(usdhc_iomux_config.o)
 .ARM.attributes
                0x00001aef       0x39 /home/leon/git/swp-report/iMX6_Platform_SDK/output/mx6sl/lib/libboard_evk_rev_a.a(wdog1_iomux_config.o)
 .ARM.attributes
                0x00001b28       0x39 /home/leon/git/swp-report/iMX6_Platform_SDK/output/mx6sl/lib/libboard_evk_rev_a.a(ecspi1_iomux_config.o)
 .ARM.attributes
                0x00001b61       0x39 /home/leon/git/swp-report/iMX6_Platform_SDK/output/mx6sl/lib/libboard_evk_rev_a.a(ecspi2_iomux_config.o)
 .ARM.attributes
                0x00001b9a       0x39 /home/leon/git/swp-report/iMX6_Platform_SDK/output/mx6sl/lib/libboard_evk_rev_a.a(gpio1_iomux_config.o)
 .ARM.attributes
                0x00001bd3       0x39 /home/leon/git/swp-report/iMX6_Platform_SDK/output/mx6sl/lib/libboard_evk_rev_a.a(gpio4_iomux_config.o)
 .ARM.attributes
                0x00001c0c       0x39 /home/leon/git/swp-report/iMX6_Platform_SDK/output/mx6sl/lib/libboard_evk_rev_a.a(i2c1_iomux_config.o)
 .ARM.attributes
                0x00001c45       0x39 /home/leon/git/swp-report/iMX6_Platform_SDK/output/mx6sl/lib/libboard_evk_rev_a.a(i2c2_iomux_config.o)
 .ARM.attributes
                0x00001c7e       0x39 /home/leon/git/swp-report/iMX6_Platform_SDK/output/mx6sl/lib/libboard_evk_rev_a.a(i2c3_iomux_config.o)
 .ARM.attributes
                0x00001cb7       0x30 /home/leon/riotboard/arm-2012.09/bin/../arm-none-eabi/lib//libc.a(lib_a-assert.o)
 .ARM.attributes
                0x00001ce7       0x30 /home/leon/riotboard/arm-2012.09/bin/../arm-none-eabi/lib//libc.a(lib_a-bzero.o)
 .ARM.attributes
                0x00001d17       0x30 /home/leon/riotboard/arm-2012.09/bin/../arm-none-eabi/lib//libc.a(lib_a-fiprintf.o)
 .ARM.attributes
                0x00001d47       0x30 /home/leon/riotboard/arm-2012.09/bin/../arm-none-eabi/lib//libc.a(lib_a-fputc.o)
 .ARM.attributes
                0x00001d77       0x30 /home/leon/riotboard/arm-2012.09/bin/../arm-none-eabi/lib//libc.a(lib_a-impure.o)
 .ARM.attributes
                0x00001da7       0x30 /home/leon/riotboard/arm-2012.09/bin/../arm-none-eabi/lib//libc.a(lib_a-init.o)
 .ARM.attributes
                0x00001dd7       0x30 /home/leon/riotboard/arm-2012.09/bin/../arm-none-eabi/lib//libc.a(lib_a-malloc.o)
 .ARM.attributes
                0x00001e07       0x30 /home/leon/riotboard/arm-2012.09/bin/../arm-none-eabi/lib//libc.a(lib_a-mallocr.o)
 .ARM.attributes
                0x00001e37       0x30 /home/leon/riotboard/arm-2012.09/bin/../arm-none-eabi/lib//libc.a(lib_a-memcpy.o)
 .ARM.attributes
                0x00001e67       0x30 /home/leon/riotboard/arm-2012.09/bin/../arm-none-eabi/lib//libc.a(lib_a-memset.o)
 .ARM.attributes
                0x00001e97       0x30 /home/leon/riotboard/arm-2012.09/bin/../arm-none-eabi/lib//libc.a(lib_a-mlock.o)
 .ARM.attributes
                0x00001ec7       0x30 /home/leon/riotboard/arm-2012.09/bin/../arm-none-eabi/lib//libc.a(lib_a-printf.o)
 .ARM.attributes
                0x00001ef7       0x30 /home/leon/riotboard/arm-2012.09/bin/../arm-none-eabi/lib//libc.a(lib_a-putc.o)
 .ARM.attributes
                0x00001f27       0x30 /home/leon/riotboard/arm-2012.09/bin/../arm-none-eabi/lib//libc.a(lib_a-realloc.o)
 .ARM.attributes
                0x00001f57       0x30 /home/leon/riotboard/arm-2012.09/bin/../arm-none-eabi/lib//libc.a(lib_a-reallocr.o)
 .ARM.attributes
                0x00001f87       0x30 /home/leon/riotboard/arm-2012.09/bin/../arm-none-eabi/lib//libc.a(lib_a-rget.o)
 .ARM.attributes
                0x00001fb7       0x30 /home/leon/riotboard/arm-2012.09/bin/../arm-none-eabi/lib//libc.a(lib_a-sbrkr.o)
 .ARM.attributes
                0x00001fe7       0x30 /home/leon/riotboard/arm-2012.09/bin/../arm-none-eabi/lib//libc.a(lib_a-sprintf.o)
 .ARM.attributes
                0x00002017       0x30 /home/leon/riotboard/arm-2012.09/bin/../arm-none-eabi/lib//libc.a(lib_a-strcat.o)
 .ARM.attributes
                0x00002047       0x30 /home/leon/riotboard/arm-2012.09/bin/../arm-none-eabi/lib//libc.a(lib_a-strcmp.o)
 .ARM.attributes
                0x00002077       0x30 /home/leon/riotboard/arm-2012.09/bin/../arm-none-eabi/lib//libc.a(lib_a-strcpy.o)
 .ARM.attributes
                0x000020a7       0x30 /home/leon/riotboard/arm-2012.09/bin/../arm-none-eabi/lib//libc.a(lib_a-strlen.o)
 .ARM.attributes
                0x000020d7       0x30 /home/leon/riotboard/arm-2012.09/bin/../arm-none-eabi/lib//libc.a(lib_a-strncasecmp.o)
 .ARM.attributes
                0x00002107       0x30 /home/leon/riotboard/arm-2012.09/bin/../arm-none-eabi/lib//libc.a(lib_a-strtok.o)
 .ARM.attributes
                0x00002137       0x30 /home/leon/riotboard/arm-2012.09/bin/../arm-none-eabi/lib//libc.a(lib_a-strtok_r.o)
 .ARM.attributes
                0x00002167       0x30 /home/leon/riotboard/arm-2012.09/bin/../arm-none-eabi/lib//libc.a(lib_a-svfprintf.o)
 .ARM.attributes
                0x00002197       0x30 /home/leon/riotboard/arm-2012.09/bin/../arm-none-eabi/lib//libc.a(lib_a-vfiprintf.o)
 .ARM.attributes
                0x000021c7       0x30 /home/leon/riotboard/arm-2012.09/bin/../arm-none-eabi/lib//libc.a(lib_a-vfprintf.o)
 .ARM.attributes
                0x000021f7       0x30 /home/leon/riotboard/arm-2012.09/bin/../arm-none-eabi/lib//libc.a(lib_a-vprintf.o)
 .ARM.attributes
                0x00002227       0x30 /home/leon/riotboard/arm-2012.09/bin/../arm-none-eabi/lib//libc.a(lib_a-wbuf.o)
 .ARM.attributes
                0x00002257       0x30 /home/leon/riotboard/arm-2012.09/bin/../arm-none-eabi/lib//libc.a(lib_a-wsetup.o)
 .ARM.attributes
                0x00002287       0x30 /home/leon/riotboard/arm-2012.09/bin/../arm-none-eabi/lib//libc.a(lib_a-abort.o)
 .ARM.attributes
                0x000022b7       0x30 /home/leon/riotboard/arm-2012.09/bin/../arm-none-eabi/lib//libc.a(lib_a-ctype_.o)
 .ARM.attributes
                0x000022e7       0x30 /home/leon/riotboard/arm-2012.09/bin/../arm-none-eabi/lib//libc.a(lib_a-dtoa.o)
 .ARM.attributes
                0x00002317       0x30 /home/leon/riotboard/arm-2012.09/bin/../arm-none-eabi/lib//libc.a(lib_a-fflush.o)
 .ARM.attributes
                0x00002347       0x30 /home/leon/riotboard/arm-2012.09/bin/../arm-none-eabi/lib//libc.a(lib_a-findfp.o)
 .ARM.attributes
                0x00002377       0x30 /home/leon/riotboard/arm-2012.09/bin/../arm-none-eabi/lib//libc.a(lib_a-fputwc.o)
 .ARM.attributes
                0x000023a7       0x30 /home/leon/riotboard/arm-2012.09/bin/../arm-none-eabi/lib//libc.a(lib_a-freer.o)
 .ARM.attributes
                0x000023d7       0x30 /home/leon/riotboard/arm-2012.09/bin/../arm-none-eabi/lib//libc.a(lib_a-fvwrite.o)
 .ARM.attributes
                0x00002407       0x30 /home/leon/riotboard/arm-2012.09/bin/../arm-none-eabi/lib//libc.a(lib_a-fwalk.o)
 .ARM.attributes
                0x00002437       0x30 /home/leon/riotboard/arm-2012.09/bin/../arm-none-eabi/lib//libc.a(lib_a-locale.o)
 .ARM.attributes
                0x00002467       0x30 /home/leon/riotboard/arm-2012.09/bin/../arm-none-eabi/lib//libc.a(lib_a-makebuf.o)
 .ARM.attributes
                0x00002497       0x30 /home/leon/riotboard/arm-2012.09/bin/../arm-none-eabi/lib//libc.a(lib_a-memchr.o)
 .ARM.attributes
                0x000024c7       0x30 /home/leon/riotboard/arm-2012.09/bin/../arm-none-eabi/lib//libc.a(lib_a-memmove.o)
 .ARM.attributes
                0x000024f7       0x30 /home/leon/riotboard/arm-2012.09/bin/../arm-none-eabi/lib//libc.a(lib_a-mprec.o)
 .ARM.attributes
                0x00002527       0x30 /home/leon/riotboard/arm-2012.09/bin/../arm-none-eabi/lib//libc.a(lib_a-reent.o)
 .ARM.attributes
                0x00002557       0x30 /home/leon/riotboard/arm-2012.09/bin/../arm-none-eabi/lib//libc.a(lib_a-refill.o)
 .ARM.attributes
                0x00002587       0x30 /home/leon/riotboard/arm-2012.09/bin/../arm-none-eabi/lib//libc.a(lib_a-s_fpclassify.o)
 .ARM.attributes
                0x000025b7       0x30 /home/leon/riotboard/arm-2012.09/bin/../arm-none-eabi/lib//libc.a(lib_a-signal.o)
 .ARM.attributes
                0x000025e7       0x30 /home/leon/riotboard/arm-2012.09/bin/../arm-none-eabi/lib//libc.a(lib_a-signalr.o)
 .ARM.attributes
                0x00002617       0x30 /home/leon/riotboard/arm-2012.09/bin/../arm-none-eabi/lib//libc.a(lib_a-stdio.o)
 .ARM.attributes
                0x00002647       0x30 /home/leon/riotboard/arm-2012.09/bin/../arm-none-eabi/lib//libc.a(lib_a-svfiprintf.o)
 .ARM.attributes
                0x00002677       0x30 /home/leon/riotboard/arm-2012.09/bin/../arm-none-eabi/lib//libc.a(lib_a-wcrtomb.o)
 .ARM.attributes
                0x000026a7       0x30 /home/leon/riotboard/arm-2012.09/bin/../arm-none-eabi/lib//libc.a(lib_a-wctomb_r.o)
 .ARM.attributes
                0x000026d7       0x30 /home/leon/riotboard/arm-2012.09/bin/../arm-none-eabi/lib//libc.a(lib_a-writer.o)
 .ARM.attributes
                0x00002707       0x30 /home/leon/riotboard/arm-2012.09/bin/../arm-none-eabi/lib//libc.a(lib_a-callocr.o)
 .ARM.attributes
                0x00002737       0x30 /home/leon/riotboard/arm-2012.09/bin/../arm-none-eabi/lib//libc.a(lib_a-closer.o)
 .ARM.attributes
                0x00002767       0x30 /home/leon/riotboard/arm-2012.09/bin/../arm-none-eabi/lib//libc.a(lib_a-fclose.o)
 .ARM.attributes
                0x00002797       0x30 /home/leon/riotboard/arm-2012.09/bin/../arm-none-eabi/lib//libc.a(lib_a-fstatr.o)
 .ARM.attributes
                0x000027c7       0x30 /home/leon/riotboard/arm-2012.09/bin/../arm-none-eabi/lib//libc.a(lib_a-isattyr.o)
 .ARM.attributes
                0x000027f7       0x30 /home/leon/riotboard/arm-2012.09/bin/../arm-none-eabi/lib//libc.a(lib_a-lseekr.o)
 .ARM.attributes
                0x00002827       0x30 /home/leon/riotboard/arm-2012.09/bin/../arm-none-eabi/lib//libc.a(lib_a-readr.o)
 .ARM.attributes
                0x00002857       0x18 /home/leon/riotboard/arm-2012.09/bin/../lib/gcc/arm-none-eabi/4.7.2//libgcc.a(_udivsi3.o)
 .ARM.attributes
                0x0000286f       0x18 /home/leon/riotboard/arm-2012.09/bin/../lib/gcc/arm-none-eabi/4.7.2//libgcc.a(_divsi3.o)
 .ARM.attributes
                0x00002887       0x18 /home/leon/riotboard/arm-2012.09/bin/../lib/gcc/arm-none-eabi/4.7.2//libgcc.a(_dvmd_tls.o)
 .ARM.attributes
                0x0000289f       0x18 /home/leon/riotboard/arm-2012.09/bin/../lib/gcc/arm-none-eabi/4.7.2//libgcc.a(_arm_addsubdf3.o)
 .ARM.attributes
                0x000028b7       0x18 /home/leon/riotboard/arm-2012.09/bin/../lib/gcc/arm-none-eabi/4.7.2//libgcc.a(_arm_muldivdf3.o)
 .ARM.attributes
                0x000028cf       0x18 /home/leon/riotboard/arm-2012.09/bin/../lib/gcc/arm-none-eabi/4.7.2//libgcc.a(_arm_cmpdf2.o)
 .ARM.attributes
                0x000028e7       0x18 /home/leon/riotboard/arm-2012.09/bin/../lib/gcc/arm-none-eabi/4.7.2//libgcc.a(_arm_fixdfsi.o)
 .ARM.attributes
                0x000028ff       0x18 /home/leon/riotboard/arm-2012.09/bin/../lib/gcc/arm-none-eabi/4.7.2//libgcc.a(_aeabi_uldivmod.o)
 .ARM.attributes
                0x00002917       0x30 /home/leon/riotboard/arm-2012.09/bin/../lib/gcc/arm-none-eabi/4.7.2//libgcc.a(bpabi.o)
 .ARM.attributes
                0x00002947       0x30 /home/leon/riotboard/arm-2012.09/bin/../lib/gcc/arm-none-eabi/4.7.2//libgcc.a(_divdi3.o)
 .ARM.attributes
                0x00002977       0x30 /home/leon/riotboard/arm-2012.09/bin/../lib/gcc/arm-none-eabi/4.7.2//libgcc.a(_udivdi3.o)
 .ARM.attributes
                0x000029a7       0x18 /home/leon/riotboard/arm-2012.09/bin/../lib/gcc/arm-none-eabi/4.7.2//libgcc.a(_clzsi2.o)
 .ARM.attributes
                0x000029bf       0x39 /home/leon/git/swp-report/iMX6_Platform_SDK/output/mx6sl/lib/libsdk.a(runtime_support.o)

.comment        0x00000000       0x30
 .comment       0x00000000       0x30 /home/leon/git/swp-report/iMX6_Platform_SDK/output/mx6sl/obds/evk_rev_a/obj/apps/common/ivt.o
                                 0x31 (size before relaxing)
 .comment       0x00000000       0x31 /home/leon/git/swp-report/iMX6_Platform_SDK/output/mx6sl/obds/evk_rev_a/obj/apps/common/platform_init.o
 .comment       0x00000000       0x31 /home/leon/git/swp-report/iMX6_Platform_SDK/output/mx6sl/obds/evk_rev_a/obj/apps/common/print_clock_info.o
 .comment       0x00000000       0x31 /home/leon/git/swp-report/iMX6_Platform_SDK/output/mx6sl/obds/evk_rev_a/obj/apps/common/print_version.o
 .comment       0x00000000       0x31 /home/leon/git/swp-report/iMX6_Platform_SDK/output/mx6sl/obds/evk_rev_a/obj/apps/obds/src/obds.o
 .comment       0x00000000       0x31 /home/leon/git/swp-report/iMX6_Platform_SDK/output/mx6sl/obds/evk_rev_a/obj/apps/obds/src/obds_utils.o
 .comment       0x00000000       0x31 /home/leon/git/swp-report/iMX6_Platform_SDK/output/mx6sl/obds/evk_rev_a/obj/apps/obds/src/tests/audio_esai_test.o
 .comment       0x00000000       0x31 /home/leon/git/swp-report/iMX6_Platform_SDK/output/mx6sl/obds/evk_rev_a/obj/apps/obds/src/tests/audio_ssi_test.o
 .comment       0x00000000       0x31 /home/leon/git/swp-report/iMX6_Platform_SDK/output/mx6sl/obds/evk_rev_a/obj/apps/obds/src/tests/ddr_test.o
 .comment       0x00000000       0x31 /home/leon/git/swp-report/iMX6_Platform_SDK/output/mx6sl/obds/evk_rev_a/obj/apps/obds/src/tests/flexcan_test.o
 .comment       0x00000000       0x31 /home/leon/git/swp-report/iMX6_Platform_SDK/output/mx6sl/obds/evk_rev_a/obj/apps/obds/src/tests/gpio_led.o
 .comment       0x00000000       0x31 /home/leon/git/swp-report/iMX6_Platform_SDK/output/mx6sl/obds/evk_rev_a/obj/apps/obds/src/tests/gps_test.o
 .comment       0x00000000       0x31 /home/leon/git/swp-report/iMX6_Platform_SDK/output/mx6sl/obds/evk_rev_a/obj/apps/obds/src/tests/i2c_check_light_sensor_isl29023.o
 .comment       0x00000000       0x31 /home/leon/git/swp-report/iMX6_Platform_SDK/output/mx6sl/obds/evk_rev_a/obj/apps/obds/src/tests/i2c_device_barometer_ppl3115.o
 .comment       0x00000000       0x31 /home/leon/git/swp-report/iMX6_Platform_SDK/output/mx6sl/obds/evk_rev_a/obj/apps/obds/src/tests/i2c_device_check_cs42888.o
 .comment       0x00000000       0x31 /home/leon/git/swp-report/iMX6_Platform_SDK/output/mx6sl/obds/evk_rev_a/obj/apps/obds/src/tests/i2c_device_digital_compass_mag3110.o
 .comment       0x00000000       0x31 /home/leon/git/swp-report/iMX6_Platform_SDK/output/mx6sl/obds/evk_rev_a/obj/apps/obds/src/tests/i2c_device_digital_compass_mag3112.o
 .comment       0x00000000       0x31 /home/leon/git/swp-report/iMX6_Platform_SDK/output/mx6sl/obds/evk_rev_a/obj/apps/obds/src/tests/i2c_device_id_check_mma8450.o
 .comment       0x00000000       0x31 /home/leon/git/swp-report/iMX6_Platform_SDK/output/mx6sl/obds/evk_rev_a/obj/apps/obds/src/tests/i2c_device_id_check_mma8451.o
 .comment       0x00000000       0x31 /home/leon/git/swp-report/iMX6_Platform_SDK/output/mx6sl/obds/evk_rev_a/obj/apps/obds/src/tests/i2c_device_temp_sensor_emc1046.o
 .comment       0x00000000       0x31 /home/leon/git/swp-report/iMX6_Platform_SDK/output/mx6sl/obds/evk_rev_a/obj/apps/obds/src/tests/i2c_device_zigbee_mc1323.o
 .comment       0x00000000       0x31 /home/leon/git/swp-report/iMX6_Platform_SDK/output/mx6sl/obds/evk_rev_a/obj/apps/obds/src/tests/i2c_eeprom_at24cxx_test.o
 .comment       0x00000000       0x31 /home/leon/git/swp-report/iMX6_Platform_SDK/output/mx6sl/obds/evk_rev_a/obj/apps/obds/src/tests/imx_spi_nor_test.o
 .comment       0x00000000       0x31 /home/leon/git/swp-report/iMX6_Platform_SDK/output/mx6sl/obds/evk_rev_a/obj/apps/obds/src/tests/keyboard_test.o
 .comment       0x00000000       0x31 /home/leon/git/swp-report/iMX6_Platform_SDK/output/mx6sl/obds/evk_rev_a/obj/apps/obds/src/tests/mmcsd_test.o
 .comment       0x00000000       0x31 /home/leon/git/swp-report/iMX6_Platform_SDK/output/mx6sl/obds/evk_rev_a/obj/apps/obds/src/tests/pmic_da9053.o
 .comment       0x00000000       0x31 /home/leon/git/swp-report/iMX6_Platform_SDK/output/mx6sl/obds/evk_rev_a/obj/apps/obds/src/tests/pmic_lt3589.o
 .comment       0x00000000       0x31 /home/leon/git/swp-report/iMX6_Platform_SDK/output/mx6sl/obds/evk_rev_a/obj/apps/obds/src/tests/pmic_max17135.o
 .comment       0x00000000       0x31 /home/leon/git/swp-report/iMX6_Platform_SDK/output/mx6sl/obds/evk_rev_a/obj/apps/obds/src/tests/pmic_mc13892.o
 .comment       0x00000000       0x31 /home/leon/git/swp-report/iMX6_Platform_SDK/output/mx6sl/obds/evk_rev_a/obj/apps/obds/src/tests/program_board_id.o
 .comment       0x00000000       0x31 /home/leon/git/swp-report/iMX6_Platform_SDK/output/mx6sl/obds/evk_rev_a/obj/apps/obds/src/tests/program_mac_address.o
 .comment       0x00000000       0x31 /home/leon/git/swp-report/iMX6_Platform_SDK/output/mx6sl/obds/evk_rev_a/obj/apps/obds/src/tests/snvs_srtc_test.o
 .comment       0x00000000       0x31 /home/leon/git/swp-report/iMX6_Platform_SDK/output/mx6sl/obds/evk_rev_a/obj/apps/obds/src/tests/touch_button_test.o
 .comment       0x00000000       0x31 /home/leon/git/swp-report/iMX6_Platform_SDK/output/mx6sl/obds/evk_rev_a/obj/apps/obds/src/tests/touch_screen.o
 .comment       0x00000000       0x31 /home/leon/git/swp-report/iMX6_Platform_SDK/output/mx6sl/obds/evk_rev_a/obj/apps/obds/src/tests/touch_screen_max11801.o
 .comment       0x00000000       0x31 /home/leon/git/swp-report/iMX6_Platform_SDK/output/mx6sl/obds/evk_rev_a/obj/apps/obds/src/tests/usb_tests_obds.o
 .comment       0x00000000       0x31 /home/leon/git/swp-report/iMX6_Platform_SDK/output/mx6sl/obds/evk_rev_a/obj/apps/obds/src/tests/weim_nor_flash_test.o
 .comment       0x00000000       0x31 /home/leon/git/swp-report/iMX6_Platform_SDK/output/mx6sl/obds/evk_rev_a/obj/sdk/common/pmic/pfuse/pf0100.o
 .comment       0x00000000       0x31 /home/leon/git/swp-report/iMX6_Platform_SDK/output/mx6sl/obds/evk_rev_a/obj/sdk/drivers/audio/src/snd_card.o
 .comment       0x00000000       0x31 /home/leon/git/swp-report/iMX6_Platform_SDK/output/mx6sl/obds/evk_rev_a/obj/sdk/drivers/camera/test/adv7180_capture.o
 .comment       0x00000000       0x31 /home/leon/git/swp-report/iMX6_Platform_SDK/output/mx6sl/obds/evk_rev_a/obj/sdk/drivers/camera/test/camera_test.o
 .comment       0x00000000       0x31 /home/leon/git/swp-report/iMX6_Platform_SDK/output/mx6sl/obds/evk_rev_a/obj/sdk/drivers/camera/test/csi_sensor_capture.o
 .comment       0x00000000       0x31 /home/leon/git/swp-report/iMX6_Platform_SDK/output/mx6sl/obds/evk_rev_a/obj/sdk/drivers/epdc/test/epdc_test.o
 .comment       0x00000000       0x31 /home/leon/git/swp-report/iMX6_Platform_SDK/output/mx6sl/obds/evk_rev_a/obj/sdk/drivers/fec/test/fec_test.o
 .comment       0x00000000       0x31 /home/leon/git/swp-report/iMX6_Platform_SDK/output/mx6sl/obds/evk_rev_a/obj/sdk/drivers/lcdif/test/lcdif_display.o
 .comment       0x00000000       0x31 /home/leon/git/swp-report/iMX6_Platform_SDK/output/mx6sl/obds/evk_rev_a/obj/sdk/drivers/spi/test/imx_spi_nor_atmel.o
 .comment       0x00000000       0x31 /home/leon/git/swp-report/iMX6_Platform_SDK/output/mx6sl/obds/evk_rev_a/obj/sdk/drivers/spi/test/spi_nor_numonyx.o
 .comment       0x00000000       0x31 /home/leon/git/swp-report/iMX6_Platform_SDK/output/mx6sl/obds/evk_rev_a/obj/sdk/drivers/uart/test/uart_test.o
 .comment       0x00000000       0x31 /home/leon/git/swp-report/iMX6_Platform_SDK/output/mx6sl/obds/evk_rev_a/obj/sdk/drivers/usb/test/usb0_host_test.o
 .comment       0x00000000       0x31 /home/leon/git/swp-report/iMX6_Platform_SDK/output/mx6sl/obds/evk_rev_a/obj/sdk/drivers/usb/test/usb0_host_testmodes_test.o
 .comment       0x00000000       0x31 /home/leon/git/swp-report/iMX6_Platform_SDK/output/mx6sl/obds/evk_rev_a/obj/sdk/drivers/usdhc/test/usdhc_test.o
 .comment       0x00000000       0x31 /home/leon/git/swp-report/iMX6_Platform_SDK/output/mx6sl/lib/libsdk.a(ccm_pll.o)
 .comment       0x00000000       0x31 /home/leon/git/swp-report/iMX6_Platform_SDK/output/mx6sl/lib/libsdk.a(gic.o)
 .comment       0x00000000       0x31 /home/leon/git/swp-report/iMX6_Platform_SDK/output/mx6sl/lib/libsdk.a(mmu.o)
 .comment       0x00000000       0x31 /home/leon/git/swp-report/iMX6_Platform_SDK/output/mx6sl/lib/libsdk.a(menu.o)
 .comment       0x00000000       0x31 /home/leon/git/swp-report/iMX6_Platform_SDK/output/mx6sl/lib/libsdk.a(sdk_version.o)
 .comment       0x00000000       0x31 /home/leon/git/swp-report/iMX6_Platform_SDK/output/mx6sl/lib/libsdk.a(system_util.o)
 .comment       0x00000000       0x31 /home/leon/git/swp-report/iMX6_Platform_SDK/output/mx6sl/lib/libsdk.a(text_color.o)
 .comment       0x00000000       0x31 /home/leon/git/swp-report/iMX6_Platform_SDK/output/mx6sl/lib/libsdk.a(imx-ssi.o)
 .comment       0x00000000       0x31 /home/leon/git/swp-report/iMX6_Platform_SDK/output/mx6sl/lib/libsdk.a(imx_audmux.o)
 .comment       0x00000000       0x31 /home/leon/git/swp-report/iMX6_Platform_SDK/output/mx6sl/lib/libsdk.a(imx_spdif.o)
 .comment       0x00000000       0x31 /home/leon/git/swp-report/iMX6_Platform_SDK/output/mx6sl/lib/libsdk.a(wm8962.o)
 .comment       0x00000000       0x31 /home/leon/git/swp-report/iMX6_Platform_SDK/output/mx6sl/lib/libsdk.a(board_id.o)
 .comment       0x00000000       0x31 /home/leon/git/swp-report/iMX6_Platform_SDK/output/mx6sl/lib/libsdk.a(csi_drv.o)
 .comment       0x00000000       0x31 /home/leon/git/swp-report/iMX6_Platform_SDK/output/mx6sl/lib/libsdk.a(smd_sensor.o)
 .comment       0x00000000       0x31 /home/leon/git/swp-report/iMX6_Platform_SDK/output/mx6sl/lib/libsdk.a(mxc_epdc.o)
 .comment       0x00000000       0x31 /home/leon/git/swp-report/iMX6_Platform_SDK/output/mx6sl/lib/libsdk.a(fec_drv.o)
 .comment       0x00000000       0x31 /home/leon/git/swp-report/iMX6_Platform_SDK/output/mx6sl/lib/libsdk.a(gpio.o)
 .comment       0x00000000       0x31 /home/leon/git/swp-report/iMX6_Platform_SDK/output/mx6sl/lib/libsdk.a(imx6sl_gpio_map.o)
 .comment       0x00000000       0x31 /home/leon/git/swp-report/iMX6_Platform_SDK/output/mx6sl/lib/libsdk.a(imx_i2c.o)
 .comment       0x00000000       0x31 /home/leon/git/swp-report/iMX6_Platform_SDK/output/mx6sl/lib/libsdk.a(lcdif_drv.o)
 .comment       0x00000000       0x31 /home/leon/git/swp-report/iMX6_Platform_SDK/output/mx6sl/lib/libsdk.a(pxp_drv.o)
 .comment       0x00000000       0x31 /home/leon/git/swp-report/iMX6_Platform_SDK/output/mx6sl/lib/libsdk.a(ocotp.o)
 .comment       0x00000000       0x31 /home/leon/git/swp-report/iMX6_Platform_SDK/output/mx6sl/lib/libsdk.a(ecspi.o)
 .comment       0x00000000       0x31 /home/leon/git/swp-report/iMX6_Platform_SDK/output/mx6sl/lib/libsdk.a(timer.o)
 .comment       0x00000000       0x31 /home/leon/git/swp-report/iMX6_Platform_SDK/output/mx6sl/lib/libsdk.a(imx_uart.o)
 .comment       0x00000000       0x31 /home/leon/git/swp-report/iMX6_Platform_SDK/output/mx6sl/lib/libsdk.a(usb_common.o)
 .comment       0x00000000       0x31 /home/leon/git/swp-report/iMX6_Platform_SDK/output/mx6sl/lib/libsdk.a(usbh_drv.o)
 .comment       0x00000000       0x31 /home/leon/git/swp-report/iMX6_Platform_SDK/output/mx6sl/lib/libsdk.a(usdhc.o)
 .comment       0x00000000       0x31 /home/leon/git/swp-report/iMX6_Platform_SDK/output/mx6sl/lib/libsdk.a(usdhc_host.o)
 .comment       0x00000000       0x31 /home/leon/git/swp-report/iMX6_Platform_SDK/output/mx6sl/lib/libsdk.a(usdhc_mmc.o)
 .comment       0x00000000       0x31 /home/leon/git/swp-report/iMX6_Platform_SDK/output/mx6sl/lib/libsdk.a(usdhc_sd.o)
 .comment       0x00000000       0x31 /home/leon/git/swp-report/iMX6_Platform_SDK/output/mx6sl/lib/libsdk.a(armv7_cache.o)
 .comment       0x00000000       0x31 /home/leon/git/swp-report/iMX6_Platform_SDK/output/mx6sl/lib/libsdk.a(interrupt.o)
 .comment       0x00000000       0x31 /home/leon/git/swp-report/iMX6_Platform_SDK/output/mx6sl/lib/libsdk.a(camera_profile.o)
 .comment       0x00000000       0x31 /home/leon/git/swp-report/iMX6_Platform_SDK/output/mx6sl/lib/libsdk.a(epit.o)
 .comment       0x00000000       0x31 /home/leon/git/swp-report/iMX6_Platform_SDK/output/mx6sl/lib/libsdk.a(mx6x_usb.o)
 .comment       0x00000000       0x31 /home/leon/git/swp-report/iMX6_Platform_SDK/output/mx6sl/lib/libsdk.a(abort_handler.o)
 .comment       0x00000000       0x31 /home/leon/git/swp-report/iMX6_Platform_SDK/output/mx6sl/lib/libboard_evk_rev_a.a(board_audio.o)
 .comment       0x00000000       0x31 /home/leon/git/swp-report/iMX6_Platform_SDK/output/mx6sl/lib/libboard_evk_rev_a.a(board_camera.o)
 .comment       0x00000000       0x31 /home/leon/git/swp-report/iMX6_Platform_SDK/output/mx6sl/lib/libboard_evk_rev_a.a(board_display.o)
 .comment       0x00000000       0x31 /home/leon/git/swp-report/iMX6_Platform_SDK/output/mx6sl/lib/libboard_evk_rev_a.a(board_i2c.o)
 .comment       0x00000000       0x31 /home/leon/git/swp-report/iMX6_Platform_SDK/output/mx6sl/lib/libboard_evk_rev_a.a(board_io_expanders.o)
 .comment       0x00000000       0x31 /home/leon/git/swp-report/iMX6_Platform_SDK/output/mx6sl/lib/libboard_evk_rev_a.a(board_usb.o)
 .comment       0x00000000       0x31 /home/leon/git/swp-report/iMX6_Platform_SDK/output/mx6sl/lib/libboard_evk_rev_a.a(board_usdhc.o)
 .comment       0x00000000       0x31 /home/leon/git/swp-report/iMX6_Platform_SDK/output/mx6sl/lib/libboard_evk_rev_a.a(dcd.o)
 .comment       0x00000000       0x31 /home/leon/git/swp-report/iMX6_Platform_SDK/output/mx6sl/lib/libboard_evk_rev_a.a(audmux_iomux_config.o)
 .comment       0x00000000       0x31 /home/leon/git/swp-report/iMX6_Platform_SDK/output/mx6sl/lib/libboard_evk_rev_a.a(hardware_modules.o)
 .comment       0x00000000       0x31 /home/leon/git/swp-report/iMX6_Platform_SDK/output/mx6sl/lib/libboard_evk_rev_a.a(csi_iomux_config.o)
 .comment       0x00000000       0x31 /home/leon/git/swp-report/iMX6_Platform_SDK/output/mx6sl/lib/libboard_evk_rev_a.a(ecspi_iomux_config.o)
 .comment       0x00000000       0x31 /home/leon/git/swp-report/iMX6_Platform_SDK/output/mx6sl/lib/libboard_evk_rev_a.a(epdc_iomux_config.o)
 .comment       0x00000000       0x31 /home/leon/git/swp-report/iMX6_Platform_SDK/output/mx6sl/lib/libboard_evk_rev_a.a(fec_iomux_config.o)
 .comment       0x00000000       0x31 /home/leon/git/swp-report/iMX6_Platform_SDK/output/mx6sl/lib/libboard_evk_rev_a.a(i2c_iomux_config.o)
 .comment       0x00000000       0x31 /home/leon/git/swp-report/iMX6_Platform_SDK/output/mx6sl/lib/libboard_evk_rev_a.a(iomux_config.o)
 .comment       0x00000000       0x31 /home/leon/git/swp-report/iMX6_Platform_SDK/output/mx6sl/lib/libboard_evk_rev_a.a(kpp_iomux_config.o)
 .comment       0x00000000       0x31 /home/leon/git/swp-report/iMX6_Platform_SDK/output/mx6sl/lib/libboard_evk_rev_a.a(lcd_iomux_config.o)
 .comment       0x00000000       0x31 /home/leon/git/swp-report/iMX6_Platform_SDK/output/mx6sl/lib/libboard_evk_rev_a.a(mmdc_iomux_config.o)
 .comment       0x00000000       0x31 /home/leon/git/swp-report/iMX6_Platform_SDK/output/mx6sl/lib/libboard_evk_rev_a.a(pwm1_iomux_config.o)
 .comment       0x00000000       0x31 /home/leon/git/swp-report/iMX6_Platform_SDK/output/mx6sl/lib/libboard_evk_rev_a.a(sjc_iomux_config.o)
 .comment       0x00000000       0x31 /home/leon/git/swp-report/iMX6_Platform_SDK/output/mx6sl/lib/libboard_evk_rev_a.a(spdc_iomux_config.o)
 .comment       0x00000000       0x31 /home/leon/git/swp-report/iMX6_Platform_SDK/output/mx6sl/lib/libboard_evk_rev_a.a(uart1_iomux_config.o)
 .comment       0x00000000       0x31 /home/leon/git/swp-report/iMX6_Platform_SDK/output/mx6sl/lib/libboard_evk_rev_a.a(uart_iomux_config.o)
 .comment       0x00000000       0x31 /home/leon/git/swp-report/iMX6_Platform_SDK/output/mx6sl/lib/libboard_evk_rev_a.a(usb_iomux_config.o)
 .comment       0x00000000       0x31 /home/leon/git/swp-report/iMX6_Platform_SDK/output/mx6sl/lib/libboard_evk_rev_a.a(usdhc1_iomux_config.o)
 .comment       0x00000000       0x31 /home/leon/git/swp-report/iMX6_Platform_SDK/output/mx6sl/lib/libboard_evk_rev_a.a(usdhc2_iomux_config.o)
 .comment       0x00000000       0x31 /home/leon/git/swp-report/iMX6_Platform_SDK/output/mx6sl/lib/libboard_evk_rev_a.a(usdhc3_iomux_config.o)
 .comment       0x00000000       0x31 /home/leon/git/swp-report/iMX6_Platform_SDK/output/mx6sl/lib/libboard_evk_rev_a.a(usdhc_iomux_config.o)
 .comment       0x00000000       0x31 /home/leon/git/swp-report/iMX6_Platform_SDK/output/mx6sl/lib/libboard_evk_rev_a.a(wdog1_iomux_config.o)
 .comment       0x00000000       0x31 /home/leon/git/swp-report/iMX6_Platform_SDK/output/mx6sl/lib/libboard_evk_rev_a.a(ecspi1_iomux_config.o)
 .comment       0x00000000       0x31 /home/leon/git/swp-report/iMX6_Platform_SDK/output/mx6sl/lib/libboard_evk_rev_a.a(ecspi2_iomux_config.o)
 .comment       0x00000000       0x31 /home/leon/git/swp-report/iMX6_Platform_SDK/output/mx6sl/lib/libboard_evk_rev_a.a(gpio1_iomux_config.o)
 .comment       0x00000000       0x31 /home/leon/git/swp-report/iMX6_Platform_SDK/output/mx6sl/lib/libboard_evk_rev_a.a(gpio4_iomux_config.o)
 .comment       0x00000000       0x31 /home/leon/git/swp-report/iMX6_Platform_SDK/output/mx6sl/lib/libboard_evk_rev_a.a(i2c1_iomux_config.o)
 .comment       0x00000000       0x31 /home/leon/git/swp-report/iMX6_Platform_SDK/output/mx6sl/lib/libboard_evk_rev_a.a(i2c2_iomux_config.o)
 .comment       0x00000000       0x31 /home/leon/git/swp-report/iMX6_Platform_SDK/output/mx6sl/lib/libboard_evk_rev_a.a(i2c3_iomux_config.o)
 .comment       0x00000000       0x31 /home/leon/git/swp-report/iMX6_Platform_SDK/output/mx6sl/lib/libsdk.a(runtime_support.o)

.debug_info     0x00000000    0x4b40d
 .debug_info    0x00000000      0x228 /home/leon/git/swp-report/iMX6_Platform_SDK/output/mx6sl/obds/evk_rev_a/obj/apps/common/ivt.o
 .debug_info    0x00000228      0x135 /home/leon/git/swp-report/iMX6_Platform_SDK/output/mx6sl/obds/evk_rev_a/obj/apps/common/platform_init.o
 .debug_info    0x0000035d      0x17b /home/leon/git/swp-report/iMX6_Platform_SDK/output/mx6sl/obds/evk_rev_a/obj/apps/common/print_clock_info.o
 .debug_info    0x000004d8      0x1bd /home/leon/git/swp-report/iMX6_Platform_SDK/output/mx6sl/obds/evk_rev_a/obj/apps/common/print_version.o
 .debug_info    0x00000695      0xb36 /home/leon/git/swp-report/iMX6_Platform_SDK/output/mx6sl/obds/evk_rev_a/obj/apps/obds/src/obds.o
 .debug_info    0x000011cb      0x1be /home/leon/git/swp-report/iMX6_Platform_SDK/output/mx6sl/obds/evk_rev_a/obj/apps/obds/src/obds_utils.o
 .debug_info    0x00001389      0xfd6 /home/leon/git/swp-report/iMX6_Platform_SDK/output/mx6sl/obds/evk_rev_a/obj/apps/obds/src/tests/audio_ssi_test.o
 .debug_info    0x0000235f      0x45c /home/leon/git/swp-report/iMX6_Platform_SDK/output/mx6sl/obds/evk_rev_a/obj/apps/obds/src/tests/ddr_test.o
 .debug_info    0x000027bb      0x13e /home/leon/git/swp-report/iMX6_Platform_SDK/output/mx6sl/obds/evk_rev_a/obj/apps/obds/src/tests/flexcan_test.o
 .debug_info    0x000028f9      0xaa3 /home/leon/git/swp-report/iMX6_Platform_SDK/output/mx6sl/obds/evk_rev_a/obj/apps/obds/src/tests/gpio_led.o
 .debug_info    0x0000339c      0x18a /home/leon/git/swp-report/iMX6_Platform_SDK/output/mx6sl/obds/evk_rev_a/obj/apps/obds/src/tests/gps_test.o
 .debug_info    0x00003526      0xd44 /home/leon/git/swp-report/iMX6_Platform_SDK/output/mx6sl/obds/evk_rev_a/obj/apps/obds/src/tests/i2c_check_light_sensor_isl29023.o
 .debug_info    0x0000426a      0x39a /home/leon/git/swp-report/iMX6_Platform_SDK/output/mx6sl/obds/evk_rev_a/obj/apps/obds/src/tests/i2c_device_barometer_ppl3115.o
 .debug_info    0x00004604      0x35c /home/leon/git/swp-report/iMX6_Platform_SDK/output/mx6sl/obds/evk_rev_a/obj/apps/obds/src/tests/i2c_device_digital_compass_mag3110.o
 .debug_info    0x00004960      0x35c /home/leon/git/swp-report/iMX6_Platform_SDK/output/mx6sl/obds/evk_rev_a/obj/apps/obds/src/tests/i2c_device_digital_compass_mag3112.o
 .debug_info    0x00004cbc      0xda7 /home/leon/git/swp-report/iMX6_Platform_SDK/output/mx6sl/obds/evk_rev_a/obj/apps/obds/src/tests/i2c_device_id_check_mma8450.o
 .debug_info    0x00005a63      0xda7 /home/leon/git/swp-report/iMX6_Platform_SDK/output/mx6sl/obds/evk_rev_a/obj/apps/obds/src/tests/i2c_device_id_check_mma8451.o
 .debug_info    0x0000680a      0x4c8 /home/leon/git/swp-report/iMX6_Platform_SDK/output/mx6sl/obds/evk_rev_a/obj/apps/obds/src/tests/i2c_device_temp_sensor_emc1046.o
 .debug_info    0x00006cd2      0x3aa /home/leon/git/swp-report/iMX6_Platform_SDK/output/mx6sl/obds/evk_rev_a/obj/apps/obds/src/tests/i2c_device_zigbee_mc1323.o
 .debug_info    0x0000707c      0x319 /home/leon/git/swp-report/iMX6_Platform_SDK/output/mx6sl/obds/evk_rev_a/obj/apps/obds/src/tests/i2c_eeprom_at24cxx_test.o
 .debug_info    0x00007395      0x476 /home/leon/git/swp-report/iMX6_Platform_SDK/output/mx6sl/obds/evk_rev_a/obj/apps/obds/src/tests/imx_spi_nor_test.o
 .debug_info    0x0000780b      0x41c /home/leon/git/swp-report/iMX6_Platform_SDK/output/mx6sl/obds/evk_rev_a/obj/apps/obds/src/tests/keyboard_test.o
 .debug_info    0x00007c27      0x18b /home/leon/git/swp-report/iMX6_Platform_SDK/output/mx6sl/obds/evk_rev_a/obj/apps/obds/src/tests/mmcsd_test.o
 .debug_info    0x00007db2      0x2ff /home/leon/git/swp-report/iMX6_Platform_SDK/output/mx6sl/obds/evk_rev_a/obj/apps/obds/src/tests/pmic_da9053.o
 .debug_info    0x000080b1      0xcfe /home/leon/git/swp-report/iMX6_Platform_SDK/output/mx6sl/obds/evk_rev_a/obj/apps/obds/src/tests/pmic_lt3589.o
 .debug_info    0x00008daf      0x317 /home/leon/git/swp-report/iMX6_Platform_SDK/output/mx6sl/obds/evk_rev_a/obj/apps/obds/src/tests/pmic_max17135.o
 .debug_info    0x000090c6      0x239 /home/leon/git/swp-report/iMX6_Platform_SDK/output/mx6sl/obds/evk_rev_a/obj/apps/obds/src/tests/pmic_mc13892.o
 .debug_info    0x000092ff      0x365 /home/leon/git/swp-report/iMX6_Platform_SDK/output/mx6sl/obds/evk_rev_a/obj/apps/obds/src/tests/program_board_id.o
 .debug_info    0x00009664      0xc96 /home/leon/git/swp-report/iMX6_Platform_SDK/output/mx6sl/obds/evk_rev_a/obj/apps/obds/src/tests/program_mac_address.o
 .debug_info    0x0000a2fa      0x534 /home/leon/git/swp-report/iMX6_Platform_SDK/output/mx6sl/obds/evk_rev_a/obj/apps/obds/src/tests/snvs_srtc_test.o
 .debug_info    0x0000a82e      0xd02 /home/leon/git/swp-report/iMX6_Platform_SDK/output/mx6sl/obds/evk_rev_a/obj/apps/obds/src/tests/touch_screen.o
 .debug_info    0x0000b530      0xefb /home/leon/git/swp-report/iMX6_Platform_SDK/output/mx6sl/obds/evk_rev_a/obj/apps/obds/src/tests/touch_screen_max11801.o
 .debug_info    0x0000c42b      0xb96 /home/leon/git/swp-report/iMX6_Platform_SDK/output/mx6sl/obds/evk_rev_a/obj/apps/obds/src/tests/usb_tests_obds.o
 .debug_info    0x0000cfc1      0x1d3 /home/leon/git/swp-report/iMX6_Platform_SDK/output/mx6sl/obds/evk_rev_a/obj/apps/obds/src/tests/weim_nor_flash_test.o
 .debug_info    0x0000d194      0x3f8 /home/leon/git/swp-report/iMX6_Platform_SDK/output/mx6sl/obds/evk_rev_a/obj/sdk/common/pmic/pfuse/pf0100.o
 .debug_info    0x0000d58c      0x75d /home/leon/git/swp-report/iMX6_Platform_SDK/output/mx6sl/obds/evk_rev_a/obj/sdk/drivers/audio/src/snd_card.o
 .debug_info    0x0000dce9      0xa77 /home/leon/git/swp-report/iMX6_Platform_SDK/output/mx6sl/obds/evk_rev_a/obj/sdk/drivers/camera/test/camera_test.o
 .debug_info    0x0000e760      0xba8 /home/leon/git/swp-report/iMX6_Platform_SDK/output/mx6sl/obds/evk_rev_a/obj/sdk/drivers/camera/test/csi_sensor_capture.o
 .debug_info    0x0000f308      0xba2 /home/leon/git/swp-report/iMX6_Platform_SDK/output/mx6sl/obds/evk_rev_a/obj/sdk/drivers/epdc/test/epdc_test.o
 .debug_info    0x0000feaa     0x153c /home/leon/git/swp-report/iMX6_Platform_SDK/output/mx6sl/obds/evk_rev_a/obj/sdk/drivers/fec/test/fec_test.o
 .debug_info    0x000113e6      0x9f5 /home/leon/git/swp-report/iMX6_Platform_SDK/output/mx6sl/obds/evk_rev_a/obj/sdk/drivers/lcdif/test/lcdif_display.o
 .debug_info    0x00011ddb      0x48a /home/leon/git/swp-report/iMX6_Platform_SDK/output/mx6sl/obds/evk_rev_a/obj/sdk/drivers/spi/test/imx_spi_nor_atmel.o
 .debug_info    0x00012265      0x359 /home/leon/git/swp-report/iMX6_Platform_SDK/output/mx6sl/obds/evk_rev_a/obj/sdk/drivers/spi/test/spi_nor_numonyx.o
 .debug_info    0x000125be      0xad8 /home/leon/git/swp-report/iMX6_Platform_SDK/output/mx6sl/obds/evk_rev_a/obj/sdk/drivers/uart/test/uart_test.o
 .debug_info    0x00013096     0x15a9 /home/leon/git/swp-report/iMX6_Platform_SDK/output/mx6sl/obds/evk_rev_a/obj/sdk/drivers/usb/test/usb0_host_test.o
 .debug_info    0x0001463f      0x78e /home/leon/git/swp-report/iMX6_Platform_SDK/output/mx6sl/obds/evk_rev_a/obj/sdk/drivers/usb/test/usb0_host_testmodes_test.o
 .debug_info    0x00014dcd      0xd3f /home/leon/git/swp-report/iMX6_Platform_SDK/output/mx6sl/obds/evk_rev_a/obj/sdk/drivers/usdhc/test/usdhc_test.o
 .debug_info    0x00015b0c     0x16b2 /home/leon/git/swp-report/iMX6_Platform_SDK/output/mx6sl/lib/libsdk.a(ccm_pll.o)
 .debug_info    0x000171be      0x7f4 /home/leon/git/swp-report/iMX6_Platform_SDK/output/mx6sl/lib/libsdk.a(gic.o)
 .debug_info    0x000179b2      0x3e7 /home/leon/git/swp-report/iMX6_Platform_SDK/output/mx6sl/lib/libsdk.a(mmu.o)
 .debug_info    0x00017d99      0xe7d /home/leon/git/swp-report/iMX6_Platform_SDK/output/mx6sl/lib/libsdk.a(menu.o)
 .debug_info    0x00018c16       0x76 /home/leon/git/swp-report/iMX6_Platform_SDK/output/mx6sl/lib/libsdk.a(sdk_version.o)
 .debug_info    0x00018c8c     0x1536 /home/leon/git/swp-report/iMX6_Platform_SDK/output/mx6sl/lib/libsdk.a(system_util.o)
 .debug_info    0x0001a1c2      0x298 /home/leon/git/swp-report/iMX6_Platform_SDK/output/mx6sl/lib/libsdk.a(text_color.o)
 .debug_info    0x0001a45a     0x166b /home/leon/git/swp-report/iMX6_Platform_SDK/output/mx6sl/lib/libsdk.a(imx-ssi.o)
 .debug_info    0x0001bac5      0xcb2 /home/leon/git/swp-report/iMX6_Platform_SDK/output/mx6sl/lib/libsdk.a(imx_audmux.o)
 .debug_info    0x0001c777     0x12c5 /home/leon/git/swp-report/iMX6_Platform_SDK/output/mx6sl/lib/libsdk.a(imx_spdif.o)
 .debug_info    0x0001da3c      0x778 /home/leon/git/swp-report/iMX6_Platform_SDK/output/mx6sl/lib/libsdk.a(wm8962.o)
 .debug_info    0x0001e1b4      0x4fe /home/leon/git/swp-report/iMX6_Platform_SDK/output/mx6sl/lib/libsdk.a(board_id.o)
 .debug_info    0x0001e6b2      0x850 /home/leon/git/swp-report/iMX6_Platform_SDK/output/mx6sl/lib/libsdk.a(csi_drv.o)
 .debug_info    0x0001ef02      0x857 /home/leon/git/swp-report/iMX6_Platform_SDK/output/mx6sl/lib/libsdk.a(smd_sensor.o)
 .debug_info    0x0001f759     0x185b /home/leon/git/swp-report/iMX6_Platform_SDK/output/mx6sl/lib/libsdk.a(mxc_epdc.o)
 .debug_info    0x00020fb4     0x174d /home/leon/git/swp-report/iMX6_Platform_SDK/output/mx6sl/lib/libsdk.a(fec_drv.o)
 .debug_info    0x00022701      0x871 /home/leon/git/swp-report/iMX6_Platform_SDK/output/mx6sl/lib/libsdk.a(gpio.o)
 .debug_info    0x00022f72       0x9f /home/leon/git/swp-report/iMX6_Platform_SDK/output/mx6sl/lib/libsdk.a(imx6sl_gpio_map.o)
 .debug_info    0x00023011      0xe21 /home/leon/git/swp-report/iMX6_Platform_SDK/output/mx6sl/lib/libsdk.a(imx_i2c.o)
 .debug_info    0x00023e32     0x151c /home/leon/git/swp-report/iMX6_Platform_SDK/output/mx6sl/lib/libsdk.a(lcdif_drv.o)
 .debug_info    0x0002534e      0xb5b /home/leon/git/swp-report/iMX6_Platform_SDK/output/mx6sl/lib/libsdk.a(pxp_drv.o)
 .debug_info    0x00025ea9      0x4eb /home/leon/git/swp-report/iMX6_Platform_SDK/output/mx6sl/lib/libsdk.a(ocotp.o)
 .debug_info    0x00026394      0x70d /home/leon/git/swp-report/iMX6_Platform_SDK/output/mx6sl/lib/libsdk.a(ecspi.o)
 .debug_info    0x00026aa1      0x319 /home/leon/git/swp-report/iMX6_Platform_SDK/output/mx6sl/lib/libsdk.a(timer.o)
 .debug_info    0x00026dba     0x11b6 /home/leon/git/swp-report/iMX6_Platform_SDK/output/mx6sl/lib/libsdk.a(imx_uart.o)
 .debug_info    0x00027f70     0x1113 /home/leon/git/swp-report/iMX6_Platform_SDK/output/mx6sl/lib/libsdk.a(usb_common.o)
 .debug_info    0x00029083     0x1741 /home/leon/git/swp-report/iMX6_Platform_SDK/output/mx6sl/lib/libsdk.a(usbh_drv.o)
 .debug_info    0x0002a7c4      0xf19 /home/leon/git/swp-report/iMX6_Platform_SDK/output/mx6sl/lib/libsdk.a(usdhc.o)
 .debug_info    0x0002b6dd     0x1b75 /home/leon/git/swp-report/iMX6_Platform_SDK/output/mx6sl/lib/libsdk.a(usdhc_host.o)
 .debug_info    0x0002d252      0x9c7 /home/leon/git/swp-report/iMX6_Platform_SDK/output/mx6sl/lib/libsdk.a(usdhc_mmc.o)
 .debug_info    0x0002dc19      0x680 /home/leon/git/swp-report/iMX6_Platform_SDK/output/mx6sl/lib/libsdk.a(usdhc_sd.o)
 .debug_info    0x0002e299      0x4cd /home/leon/git/swp-report/iMX6_Platform_SDK/output/mx6sl/lib/libsdk.a(armv7_cache.o)
 .debug_info    0x0002e766      0x63b /home/leon/git/swp-report/iMX6_Platform_SDK/output/mx6sl/lib/libsdk.a(interrupt.o)
 .debug_info    0x0002eda1      0x476 /home/leon/git/swp-report/iMX6_Platform_SDK/output/mx6sl/lib/libsdk.a(camera_profile.o)
 .debug_info    0x0002f217      0x9b7 /home/leon/git/swp-report/iMX6_Platform_SDK/output/mx6sl/lib/libsdk.a(epit.o)
 .debug_info    0x0002fbce      0x5e4 /home/leon/git/swp-report/iMX6_Platform_SDK/output/mx6sl/lib/libsdk.a(mx6x_usb.o)
 .debug_info    0x000301b2      0x234 /home/leon/git/swp-report/iMX6_Platform_SDK/output/mx6sl/lib/libsdk.a(abort_handler.o)
 .debug_info    0x000303e6       0xdd /home/leon/git/swp-report/iMX6_Platform_SDK/output/mx6sl/lib/libboard_evk_rev_a.a(board_audio.o)
 .debug_info    0x000304c3      0x306 /home/leon/git/swp-report/iMX6_Platform_SDK/output/mx6sl/lib/libboard_evk_rev_a.a(board_camera.o)
 .debug_info    0x000307c9      0x7f7 /home/leon/git/swp-report/iMX6_Platform_SDK/output/mx6sl/lib/libboard_evk_rev_a.a(board_display.o)
 .debug_info    0x00030fc0      0x142 /home/leon/git/swp-report/iMX6_Platform_SDK/output/mx6sl/lib/libboard_evk_rev_a.a(board_i2c.o)
 .debug_info    0x00031102       0x97 /home/leon/git/swp-report/iMX6_Platform_SDK/output/mx6sl/lib/libboard_evk_rev_a.a(board_io_expanders.o)
 .debug_info    0x00031199      0x4bd /home/leon/git/swp-report/iMX6_Platform_SDK/output/mx6sl/lib/libboard_evk_rev_a.a(board_usb.o)
 .debug_info    0x00031656      0x2fa /home/leon/git/swp-report/iMX6_Platform_SDK/output/mx6sl/lib/libboard_evk_rev_a.a(board_usdhc.o)
 .debug_info    0x00031950       0xeb /home/leon/git/swp-report/iMX6_Platform_SDK/output/mx6sl/lib/libboard_evk_rev_a.a(dcd.o)
 .debug_info    0x00031a3b      0xc05 /home/leon/git/swp-report/iMX6_Platform_SDK/output/mx6sl/lib/libboard_evk_rev_a.a(audmux_iomux_config.o)
 .debug_info    0x00032640       0xa1 /home/leon/git/swp-report/iMX6_Platform_SDK/output/mx6sl/lib/libboard_evk_rev_a.a(hardware_modules.o)
 .debug_info    0x000326e1     0x2095 /home/leon/git/swp-report/iMX6_Platform_SDK/output/mx6sl/lib/libboard_evk_rev_a.a(csi_iomux_config.o)
 .debug_info    0x00034776       0xcf /home/leon/git/swp-report/iMX6_Platform_SDK/output/mx6sl/lib/libboard_evk_rev_a.a(ecspi_iomux_config.o)
 .debug_info    0x00034845     0x43cb /home/leon/git/swp-report/iMX6_Platform_SDK/output/mx6sl/lib/libboard_evk_rev_a.a(epdc_iomux_config.o)
 .debug_info    0x00038c10     0x1465 /home/leon/git/swp-report/iMX6_Platform_SDK/output/mx6sl/lib/libboard_evk_rev_a.a(fec_iomux_config.o)
 .debug_info    0x0003a075       0xcf /home/leon/git/swp-report/iMX6_Platform_SDK/output/mx6sl/lib/libboard_evk_rev_a.a(i2c_iomux_config.o)
 .debug_info    0x0003a144      0x274 /home/leon/git/swp-report/iMX6_Platform_SDK/output/mx6sl/lib/libboard_evk_rev_a.a(iomux_config.o)
 .debug_info    0x0003a3b8     0x111f /home/leon/git/swp-report/iMX6_Platform_SDK/output/mx6sl/lib/libboard_evk_rev_a.a(kpp_iomux_config.o)
 .debug_info    0x0003b4d7     0x3dc3 /home/leon/git/swp-report/iMX6_Platform_SDK/output/mx6sl/lib/libboard_evk_rev_a.a(lcd_iomux_config.o)
 .debug_info    0x0003f29a     0x2f6f /home/leon/git/swp-report/iMX6_Platform_SDK/output/mx6sl/lib/libboard_evk_rev_a.a(mmdc_iomux_config.o)
 .debug_info    0x00042209      0x22d /home/leon/git/swp-report/iMX6_Platform_SDK/output/mx6sl/lib/libboard_evk_rev_a.a(pwm1_iomux_config.o)
 .debug_info    0x00042436      0x743 /home/leon/git/swp-report/iMX6_Platform_SDK/output/mx6sl/lib/libboard_evk_rev_a.a(sjc_iomux_config.o)
 .debug_info    0x00042b79     0x1aff /home/leon/git/swp-report/iMX6_Platform_SDK/output/mx6sl/lib/libboard_evk_rev_a.a(spdc_iomux_config.o)
 .debug_info    0x00044678      0x469 /home/leon/git/swp-report/iMX6_Platform_SDK/output/mx6sl/lib/libboard_evk_rev_a.a(uart1_iomux_config.o)
 .debug_info    0x00044ae1       0xcf /home/leon/git/swp-report/iMX6_Platform_SDK/output/mx6sl/lib/libboard_evk_rev_a.a(uart_iomux_config.o)
 .debug_info    0x00044bb0      0x807 /home/leon/git/swp-report/iMX6_Platform_SDK/output/mx6sl/lib/libboard_evk_rev_a.a(usb_iomux_config.o)
 .debug_info    0x000453b7     0x169b /home/leon/git/swp-report/iMX6_Platform_SDK/output/mx6sl/lib/libboard_evk_rev_a.a(usdhc1_iomux_config.o)
 .debug_info    0x00046a52     0x1179 /home/leon/git/swp-report/iMX6_Platform_SDK/output/mx6sl/lib/libboard_evk_rev_a.a(usdhc2_iomux_config.o)
 .debug_info    0x00047bcb      0xd6f /home/leon/git/swp-report/iMX6_Platform_SDK/output/mx6sl/lib/libboard_evk_rev_a.a(usdhc3_iomux_config.o)
 .debug_info    0x0004893a       0xcf /home/leon/git/swp-report/iMX6_Platform_SDK/output/mx6sl/lib/libboard_evk_rev_a.a(usdhc_iomux_config.o)
 .debug_info    0x00048a09      0x22d /home/leon/git/swp-report/iMX6_Platform_SDK/output/mx6sl/lib/libboard_evk_rev_a.a(wdog1_iomux_config.o)
 .debug_info    0x00048c36      0x8bf /home/leon/git/swp-report/iMX6_Platform_SDK/output/mx6sl/lib/libboard_evk_rev_a.a(ecspi1_iomux_config.o)
 .debug_info    0x000494f5      0x8bf /home/leon/git/swp-report/iMX6_Platform_SDK/output/mx6sl/lib/libboard_evk_rev_a.a(ecspi2_iomux_config.o)
 .debug_info    0x00049db4       0x54 /home/leon/git/swp-report/iMX6_Platform_SDK/output/mx6sl/lib/libboard_evk_rev_a.a(gpio1_iomux_config.o)
 .debug_info    0x00049e08       0x54 /home/leon/git/swp-report/iMX6_Platform_SDK/output/mx6sl/lib/libboard_evk_rev_a.a(gpio4_iomux_config.o)
 .debug_info    0x00049e5c      0x48f /home/leon/git/swp-report/iMX6_Platform_SDK/output/mx6sl/lib/libboard_evk_rev_a.a(i2c1_iomux_config.o)
 .debug_info    0x0004a2eb      0x48f /home/leon/git/swp-report/iMX6_Platform_SDK/output/mx6sl/lib/libboard_evk_rev_a.a(i2c2_iomux_config.o)
 .debug_info    0x0004a77a      0x48f /home/leon/git/swp-report/iMX6_Platform_SDK/output/mx6sl/lib/libboard_evk_rev_a.a(i2c3_iomux_config.o)
 .debug_info    0x0004ac09      0x804 /home/leon/git/swp-report/iMX6_Platform_SDK/output/mx6sl/lib/libsdk.a(runtime_support.o)

.debug_abbrev   0x00000000     0x9fec
 .debug_abbrev  0x00000000       0xe6 /home/leon/git/swp-report/iMX6_Platform_SDK/output/mx6sl/obds/evk_rev_a/obj/apps/common/ivt.o
 .debug_abbrev  0x000000e6       0x89 /home/leon/git/swp-report/iMX6_Platform_SDK/output/mx6sl/obds/evk_rev_a/obj/apps/common/platform_init.o
 .debug_abbrev  0x0000016f       0xa1 /home/leon/git/swp-report/iMX6_Platform_SDK/output/mx6sl/obds/evk_rev_a/obj/apps/common/print_clock_info.o
 .debug_abbrev  0x00000210       0xcf /home/leon/git/swp-report/iMX6_Platform_SDK/output/mx6sl/obds/evk_rev_a/obj/apps/common/print_version.o
 .debug_abbrev  0x000002df      0x213 /home/leon/git/swp-report/iMX6_Platform_SDK/output/mx6sl/obds/evk_rev_a/obj/apps/obds/src/obds.o
 .debug_abbrev  0x000004f2       0x80 /home/leon/git/swp-report/iMX6_Platform_SDK/output/mx6sl/obds/evk_rev_a/obj/apps/obds/src/obds_utils.o
 .debug_abbrev  0x00000572      0x1d2 /home/leon/git/swp-report/iMX6_Platform_SDK/output/mx6sl/obds/evk_rev_a/obj/apps/obds/src/tests/audio_ssi_test.o
 .debug_abbrev  0x00000744      0x18f /home/leon/git/swp-report/iMX6_Platform_SDK/output/mx6sl/obds/evk_rev_a/obj/apps/obds/src/tests/ddr_test.o
 .debug_abbrev  0x000008d3       0xad /home/leon/git/swp-report/iMX6_Platform_SDK/output/mx6sl/obds/evk_rev_a/obj/apps/obds/src/tests/flexcan_test.o
 .debug_abbrev  0x00000980      0x1eb /home/leon/git/swp-report/iMX6_Platform_SDK/output/mx6sl/obds/evk_rev_a/obj/apps/obds/src/tests/gpio_led.o
 .debug_abbrev  0x00000b6b       0x9c /home/leon/git/swp-report/iMX6_Platform_SDK/output/mx6sl/obds/evk_rev_a/obj/apps/obds/src/tests/gps_test.o
 .debug_abbrev  0x00000c07      0x1f0 /home/leon/git/swp-report/iMX6_Platform_SDK/output/mx6sl/obds/evk_rev_a/obj/apps/obds/src/tests/i2c_check_light_sensor_isl29023.o
 .debug_abbrev  0x00000df7      0x13c /home/leon/git/swp-report/iMX6_Platform_SDK/output/mx6sl/obds/evk_rev_a/obj/apps/obds/src/tests/i2c_device_barometer_ppl3115.o
 .debug_abbrev  0x00000f33      0x115 /home/leon/git/swp-report/iMX6_Platform_SDK/output/mx6sl/obds/evk_rev_a/obj/apps/obds/src/tests/i2c_device_digital_compass_mag3110.o
 .debug_abbrev  0x00001048      0x115 /home/leon/git/swp-report/iMX6_Platform_SDK/output/mx6sl/obds/evk_rev_a/obj/apps/obds/src/tests/i2c_device_digital_compass_mag3112.o
 .debug_abbrev  0x0000115d      0x1ff /home/leon/git/swp-report/iMX6_Platform_SDK/output/mx6sl/obds/evk_rev_a/obj/apps/obds/src/tests/i2c_device_id_check_mma8450.o
 .debug_abbrev  0x0000135c      0x1ff /home/leon/git/swp-report/iMX6_Platform_SDK/output/mx6sl/obds/evk_rev_a/obj/apps/obds/src/tests/i2c_device_id_check_mma8451.o
 .debug_abbrev  0x0000155b      0x154 /home/leon/git/swp-report/iMX6_Platform_SDK/output/mx6sl/obds/evk_rev_a/obj/apps/obds/src/tests/i2c_device_temp_sensor_emc1046.o
 .debug_abbrev  0x000016af      0x122 /home/leon/git/swp-report/iMX6_Platform_SDK/output/mx6sl/obds/evk_rev_a/obj/apps/obds/src/tests/i2c_device_zigbee_mc1323.o
 .debug_abbrev  0x000017d1      0x119 /home/leon/git/swp-report/iMX6_Platform_SDK/output/mx6sl/obds/evk_rev_a/obj/apps/obds/src/tests/i2c_eeprom_at24cxx_test.o
 .debug_abbrev  0x000018ea      0x137 /home/leon/git/swp-report/iMX6_Platform_SDK/output/mx6sl/obds/evk_rev_a/obj/apps/obds/src/tests/imx_spi_nor_test.o
 .debug_abbrev  0x00001a21      0x192 /home/leon/git/swp-report/iMX6_Platform_SDK/output/mx6sl/obds/evk_rev_a/obj/apps/obds/src/tests/keyboard_test.o
 .debug_abbrev  0x00001bb3       0xbe /home/leon/git/swp-report/iMX6_Platform_SDK/output/mx6sl/obds/evk_rev_a/obj/apps/obds/src/tests/mmcsd_test.o
 .debug_abbrev  0x00001c71      0x11b /home/leon/git/swp-report/iMX6_Platform_SDK/output/mx6sl/obds/evk_rev_a/obj/apps/obds/src/tests/pmic_da9053.o
 .debug_abbrev  0x00001d8c      0x251 /home/leon/git/swp-report/iMX6_Platform_SDK/output/mx6sl/obds/evk_rev_a/obj/apps/obds/src/tests/pmic_lt3589.o
 .debug_abbrev  0x00001fdd      0x14b /home/leon/git/swp-report/iMX6_Platform_SDK/output/mx6sl/obds/evk_rev_a/obj/apps/obds/src/tests/pmic_max17135.o
 .debug_abbrev  0x00002128      0x117 /home/leon/git/swp-report/iMX6_Platform_SDK/output/mx6sl/obds/evk_rev_a/obj/apps/obds/src/tests/pmic_mc13892.o
 .debug_abbrev  0x0000223f      0x161 /home/leon/git/swp-report/iMX6_Platform_SDK/output/mx6sl/obds/evk_rev_a/obj/apps/obds/src/tests/program_board_id.o
 .debug_abbrev  0x000023a0      0x265 /home/leon/git/swp-report/iMX6_Platform_SDK/output/mx6sl/obds/evk_rev_a/obj/apps/obds/src/tests/program_mac_address.o
 .debug_abbrev  0x00002605      0x12f /home/leon/git/swp-report/iMX6_Platform_SDK/output/mx6sl/obds/evk_rev_a/obj/apps/obds/src/tests/snvs_srtc_test.o
 .debug_abbrev  0x00002734      0x21b /home/leon/git/swp-report/iMX6_Platform_SDK/output/mx6sl/obds/evk_rev_a/obj/apps/obds/src/tests/touch_screen.o
 .debug_abbrev  0x0000294f      0x26c /home/leon/git/swp-report/iMX6_Platform_SDK/output/mx6sl/obds/evk_rev_a/obj/apps/obds/src/tests/touch_screen_max11801.o
 .debug_abbrev  0x00002bbb      0x145 /home/leon/git/swp-report/iMX6_Platform_SDK/output/mx6sl/obds/evk_rev_a/obj/apps/obds/src/tests/usb_tests_obds.o
 .debug_abbrev  0x00002d00       0xd4 /home/leon/git/swp-report/iMX6_Platform_SDK/output/mx6sl/obds/evk_rev_a/obj/apps/obds/src/tests/weim_nor_flash_test.o
 .debug_abbrev  0x00002dd4      0x126 /home/leon/git/swp-report/iMX6_Platform_SDK/output/mx6sl/obds/evk_rev_a/obj/sdk/common/pmic/pfuse/pf0100.o
 .debug_abbrev  0x00002efa      0x133 /home/leon/git/swp-report/iMX6_Platform_SDK/output/mx6sl/obds/evk_rev_a/obj/sdk/drivers/audio/src/snd_card.o
 .debug_abbrev  0x0000302d      0x1c3 /home/leon/git/swp-report/iMX6_Platform_SDK/output/mx6sl/obds/evk_rev_a/obj/sdk/drivers/camera/test/camera_test.o
 .debug_abbrev  0x000031f0      0x1b6 /home/leon/git/swp-report/iMX6_Platform_SDK/output/mx6sl/obds/evk_rev_a/obj/sdk/drivers/camera/test/csi_sensor_capture.o
 .debug_abbrev  0x000033a6      0x20a /home/leon/git/swp-report/iMX6_Platform_SDK/output/mx6sl/obds/evk_rev_a/obj/sdk/drivers/epdc/test/epdc_test.o
 .debug_abbrev  0x000035b0      0x248 /home/leon/git/swp-report/iMX6_Platform_SDK/output/mx6sl/obds/evk_rev_a/obj/sdk/drivers/fec/test/fec_test.o
 .debug_abbrev  0x000037f8      0x1ab /home/leon/git/swp-report/iMX6_Platform_SDK/output/mx6sl/obds/evk_rev_a/obj/sdk/drivers/lcdif/test/lcdif_display.o
 .debug_abbrev  0x000039a3      0x188 /home/leon/git/swp-report/iMX6_Platform_SDK/output/mx6sl/obds/evk_rev_a/obj/sdk/drivers/spi/test/imx_spi_nor_atmel.o
 .debug_abbrev  0x00003b2b      0x15b /home/leon/git/swp-report/iMX6_Platform_SDK/output/mx6sl/obds/evk_rev_a/obj/sdk/drivers/spi/test/spi_nor_numonyx.o
 .debug_abbrev  0x00003c86      0x1db /home/leon/git/swp-report/iMX6_Platform_SDK/output/mx6sl/obds/evk_rev_a/obj/sdk/drivers/uart/test/uart_test.o
 .debug_abbrev  0x00003e61      0x1b7 /home/leon/git/swp-report/iMX6_Platform_SDK/output/mx6sl/obds/evk_rev_a/obj/sdk/drivers/usb/test/usb0_host_test.o
 .debug_abbrev  0x00004018      0x129 /home/leon/git/swp-report/iMX6_Platform_SDK/output/mx6sl/obds/evk_rev_a/obj/sdk/drivers/usb/test/usb0_host_testmodes_test.o
 .debug_abbrev  0x00004141      0x243 /home/leon/git/swp-report/iMX6_Platform_SDK/output/mx6sl/obds/evk_rev_a/obj/sdk/drivers/usdhc/test/usdhc_test.o
 .debug_abbrev  0x00004384      0x199 /home/leon/git/swp-report/iMX6_Platform_SDK/output/mx6sl/lib/libsdk.a(ccm_pll.o)
 .debug_abbrev  0x0000451d      0x179 /home/leon/git/swp-report/iMX6_Platform_SDK/output/mx6sl/lib/libsdk.a(gic.o)
 .debug_abbrev  0x00004696      0x172 /home/leon/git/swp-report/iMX6_Platform_SDK/output/mx6sl/lib/libsdk.a(mmu.o)
 .debug_abbrev  0x00004808      0x2b3 /home/leon/git/swp-report/iMX6_Platform_SDK/output/mx6sl/lib/libsdk.a(menu.o)
 .debug_abbrev  0x00004abb       0x43 /home/leon/git/swp-report/iMX6_Platform_SDK/output/mx6sl/lib/libsdk.a(sdk_version.o)
 .debug_abbrev  0x00004afe      0x276 /home/leon/git/swp-report/iMX6_Platform_SDK/output/mx6sl/lib/libsdk.a(system_util.o)
 .debug_abbrev  0x00004d74       0xd0 /home/leon/git/swp-report/iMX6_Platform_SDK/output/mx6sl/lib/libsdk.a(text_color.o)
 .debug_abbrev  0x00004e44      0x267 /home/leon/git/swp-report/iMX6_Platform_SDK/output/mx6sl/lib/libsdk.a(imx-ssi.o)
 .debug_abbrev  0x000050ab      0x172 /home/leon/git/swp-report/iMX6_Platform_SDK/output/mx6sl/lib/libsdk.a(imx_audmux.o)
 .debug_abbrev  0x0000521d      0x22e /home/leon/git/swp-report/iMX6_Platform_SDK/output/mx6sl/lib/libsdk.a(imx_spdif.o)
 .debug_abbrev  0x0000544b      0x1c4 /home/leon/git/swp-report/iMX6_Platform_SDK/output/mx6sl/lib/libsdk.a(wm8962.o)
 .debug_abbrev  0x0000560f      0x13a /home/leon/git/swp-report/iMX6_Platform_SDK/output/mx6sl/lib/libsdk.a(board_id.o)
 .debug_abbrev  0x00005749      0x15b /home/leon/git/swp-report/iMX6_Platform_SDK/output/mx6sl/lib/libsdk.a(csi_drv.o)
 .debug_abbrev  0x000058a4      0x19d /home/leon/git/swp-report/iMX6_Platform_SDK/output/mx6sl/lib/libsdk.a(smd_sensor.o)
 .debug_abbrev  0x00005a41      0x277 /home/leon/git/swp-report/iMX6_Platform_SDK/output/mx6sl/lib/libsdk.a(mxc_epdc.o)
 .debug_abbrev  0x00005cb8      0x2d8 /home/leon/git/swp-report/iMX6_Platform_SDK/output/mx6sl/lib/libsdk.a(fec_drv.o)
 .debug_abbrev  0x00005f90      0x228 /home/leon/git/swp-report/iMX6_Platform_SDK/output/mx6sl/lib/libsdk.a(gpio.o)
 .debug_abbrev  0x000061b8       0x5b /home/leon/git/swp-report/iMX6_Platform_SDK/output/mx6sl/lib/libsdk.a(imx6sl_gpio_map.o)
 .debug_abbrev  0x00006213      0x2c9 /home/leon/git/swp-report/iMX6_Platform_SDK/output/mx6sl/lib/libsdk.a(imx_i2c.o)
 .debug_abbrev  0x000064dc      0x2a1 /home/leon/git/swp-report/iMX6_Platform_SDK/output/mx6sl/lib/libsdk.a(lcdif_drv.o)
 .debug_abbrev  0x0000677d      0x15e /home/leon/git/swp-report/iMX6_Platform_SDK/output/mx6sl/lib/libsdk.a(pxp_drv.o)
 .debug_abbrev  0x000068db      0x1ae /home/leon/git/swp-report/iMX6_Platform_SDK/output/mx6sl/lib/libsdk.a(ocotp.o)
 .debug_abbrev  0x00006a89      0x1f9 /home/leon/git/swp-report/iMX6_Platform_SDK/output/mx6sl/lib/libsdk.a(ecspi.o)
 .debug_abbrev  0x00006c82      0x122 /home/leon/git/swp-report/iMX6_Platform_SDK/output/mx6sl/lib/libsdk.a(timer.o)
 .debug_abbrev  0x00006da4      0x1e3 /home/leon/git/swp-report/iMX6_Platform_SDK/output/mx6sl/lib/libsdk.a(imx_uart.o)
 .debug_abbrev  0x00006f87      0x223 /home/leon/git/swp-report/iMX6_Platform_SDK/output/mx6sl/lib/libsdk.a(usb_common.o)
 .debug_abbrev  0x000071aa      0x1c8 /home/leon/git/swp-report/iMX6_Platform_SDK/output/mx6sl/lib/libsdk.a(usbh_drv.o)
 .debug_abbrev  0x00007372      0x20c /home/leon/git/swp-report/iMX6_Platform_SDK/output/mx6sl/lib/libsdk.a(usdhc.o)
 .debug_abbrev  0x0000757e      0x296 /home/leon/git/swp-report/iMX6_Platform_SDK/output/mx6sl/lib/libsdk.a(usdhc_host.o)
 .debug_abbrev  0x00007814      0x1ac /home/leon/git/swp-report/iMX6_Platform_SDK/output/mx6sl/lib/libsdk.a(usdhc_mmc.o)
 .debug_abbrev  0x000079c0      0x143 /home/leon/git/swp-report/iMX6_Platform_SDK/output/mx6sl/lib/libsdk.a(usdhc_sd.o)
 .debug_abbrev  0x00007b03      0x133 /home/leon/git/swp-report/iMX6_Platform_SDK/output/mx6sl/lib/libsdk.a(armv7_cache.o)
 .debug_abbrev  0x00007c36      0x11a /home/leon/git/swp-report/iMX6_Platform_SDK/output/mx6sl/lib/libsdk.a(interrupt.o)
 .debug_abbrev  0x00007d50       0xab /home/leon/git/swp-report/iMX6_Platform_SDK/output/mx6sl/lib/libsdk.a(camera_profile.o)
 .debug_abbrev  0x00007dfb      0x194 /home/leon/git/swp-report/iMX6_Platform_SDK/output/mx6sl/lib/libsdk.a(epit.o)
 .debug_abbrev  0x00007f8f      0x155 /home/leon/git/swp-report/iMX6_Platform_SDK/output/mx6sl/lib/libsdk.a(mx6x_usb.o)
 .debug_abbrev  0x000080e4       0xc8 /home/leon/git/swp-report/iMX6_Platform_SDK/output/mx6sl/lib/libsdk.a(abort_handler.o)
 .debug_abbrev  0x000081ac       0x74 /home/leon/git/swp-report/iMX6_Platform_SDK/output/mx6sl/lib/libboard_evk_rev_a.a(board_audio.o)
 .debug_abbrev  0x00008220       0xfb /home/leon/git/swp-report/iMX6_Platform_SDK/output/mx6sl/lib/libboard_evk_rev_a.a(board_camera.o)
 .debug_abbrev  0x0000831b      0x149 /home/leon/git/swp-report/iMX6_Platform_SDK/output/mx6sl/lib/libboard_evk_rev_a.a(board_display.o)
 .debug_abbrev  0x00008464       0x69 /home/leon/git/swp-report/iMX6_Platform_SDK/output/mx6sl/lib/libboard_evk_rev_a.a(board_i2c.o)
 .debug_abbrev  0x000084cd       0x42 /home/leon/git/swp-report/iMX6_Platform_SDK/output/mx6sl/lib/libboard_evk_rev_a.a(board_io_expanders.o)
 .debug_abbrev  0x0000850f      0x168 /home/leon/git/swp-report/iMX6_Platform_SDK/output/mx6sl/lib/libboard_evk_rev_a.a(board_usb.o)
 .debug_abbrev  0x00008677      0x107 /home/leon/git/swp-report/iMX6_Platform_SDK/output/mx6sl/lib/libboard_evk_rev_a.a(board_usdhc.o)
 .debug_abbrev  0x0000877e       0x86 /home/leon/git/swp-report/iMX6_Platform_SDK/output/mx6sl/lib/libboard_evk_rev_a.a(dcd.o)
 .debug_abbrev  0x00008804       0xa4 /home/leon/git/swp-report/iMX6_Platform_SDK/output/mx6sl/lib/libboard_evk_rev_a.a(audmux_iomux_config.o)
 .debug_abbrev  0x000088a8       0x44 /home/leon/git/swp-report/iMX6_Platform_SDK/output/mx6sl/lib/libboard_evk_rev_a.a(hardware_modules.o)
 .debug_abbrev  0x000088ec       0xf1 /home/leon/git/swp-report/iMX6_Platform_SDK/output/mx6sl/lib/libboard_evk_rev_a.a(csi_iomux_config.o)
 .debug_abbrev  0x000089dd       0x79 /home/leon/git/swp-report/iMX6_Platform_SDK/output/mx6sl/lib/libboard_evk_rev_a.a(ecspi_iomux_config.o)
 .debug_abbrev  0x00008a56       0xf1 /home/leon/git/swp-report/iMX6_Platform_SDK/output/mx6sl/lib/libboard_evk_rev_a.a(epdc_iomux_config.o)
 .debug_abbrev  0x00008b47       0xf1 /home/leon/git/swp-report/iMX6_Platform_SDK/output/mx6sl/lib/libboard_evk_rev_a.a(fec_iomux_config.o)
 .debug_abbrev  0x00008c38       0x79 /home/leon/git/swp-report/iMX6_Platform_SDK/output/mx6sl/lib/libboard_evk_rev_a.a(i2c_iomux_config.o)
 .debug_abbrev  0x00008cb1       0x42 /home/leon/git/swp-report/iMX6_Platform_SDK/output/mx6sl/lib/libboard_evk_rev_a.a(iomux_config.o)
 .debug_abbrev  0x00008cf3       0xf1 /home/leon/git/swp-report/iMX6_Platform_SDK/output/mx6sl/lib/libboard_evk_rev_a.a(kpp_iomux_config.o)
 .debug_abbrev  0x00008de4      0x106 /home/leon/git/swp-report/iMX6_Platform_SDK/output/mx6sl/lib/libboard_evk_rev_a.a(lcd_iomux_config.o)
 .debug_abbrev  0x00008eea      0x106 /home/leon/git/swp-report/iMX6_Platform_SDK/output/mx6sl/lib/libboard_evk_rev_a.a(mmdc_iomux_config.o)
 .debug_abbrev  0x00008ff0       0xf1 /home/leon/git/swp-report/iMX6_Platform_SDK/output/mx6sl/lib/libboard_evk_rev_a.a(pwm1_iomux_config.o)
 .debug_abbrev  0x000090e1       0xa4 /home/leon/git/swp-report/iMX6_Platform_SDK/output/mx6sl/lib/libboard_evk_rev_a.a(sjc_iomux_config.o)
 .debug_abbrev  0x00009185       0xa4 /home/leon/git/swp-report/iMX6_Platform_SDK/output/mx6sl/lib/libboard_evk_rev_a.a(spdc_iomux_config.o)
 .debug_abbrev  0x00009229       0xf1 /home/leon/git/swp-report/iMX6_Platform_SDK/output/mx6sl/lib/libboard_evk_rev_a.a(uart1_iomux_config.o)
 .debug_abbrev  0x0000931a       0x79 /home/leon/git/swp-report/iMX6_Platform_SDK/output/mx6sl/lib/libboard_evk_rev_a.a(uart_iomux_config.o)
 .debug_abbrev  0x00009393      0x106 /home/leon/git/swp-report/iMX6_Platform_SDK/output/mx6sl/lib/libboard_evk_rev_a.a(usb_iomux_config.o)
 .debug_abbrev  0x00009499      0x106 /home/leon/git/swp-report/iMX6_Platform_SDK/output/mx6sl/lib/libboard_evk_rev_a.a(usdhc1_iomux_config.o)
 .debug_abbrev  0x0000959f       0xf1 /home/leon/git/swp-report/iMX6_Platform_SDK/output/mx6sl/lib/libboard_evk_rev_a.a(usdhc2_iomux_config.o)
 .debug_abbrev  0x00009690       0xf1 /home/leon/git/swp-report/iMX6_Platform_SDK/output/mx6sl/lib/libboard_evk_rev_a.a(usdhc3_iomux_config.o)
 .debug_abbrev  0x00009781       0x79 /home/leon/git/swp-report/iMX6_Platform_SDK/output/mx6sl/lib/libboard_evk_rev_a.a(usdhc_iomux_config.o)
 .debug_abbrev  0x000097fa       0xf1 /home/leon/git/swp-report/iMX6_Platform_SDK/output/mx6sl/lib/libboard_evk_rev_a.a(wdog1_iomux_config.o)
 .debug_abbrev  0x000098eb       0xf1 /home/leon/git/swp-report/iMX6_Platform_SDK/output/mx6sl/lib/libboard_evk_rev_a.a(ecspi1_iomux_config.o)
 .debug_abbrev  0x000099dc       0xf1 /home/leon/git/swp-report/iMX6_Platform_SDK/output/mx6sl/lib/libboard_evk_rev_a.a(ecspi2_iomux_config.o)
 .debug_abbrev  0x00009acd       0x35 /home/leon/git/swp-report/iMX6_Platform_SDK/output/mx6sl/lib/libboard_evk_rev_a.a(gpio1_iomux_config.o)
 .debug_abbrev  0x00009b02       0x35 /home/leon/git/swp-report/iMX6_Platform_SDK/output/mx6sl/lib/libboard_evk_rev_a.a(gpio4_iomux_config.o)
 .debug_abbrev  0x00009b37       0xf1 /home/leon/git/swp-report/iMX6_Platform_SDK/output/mx6sl/lib/libboard_evk_rev_a.a(i2c1_iomux_config.o)
 .debug_abbrev  0x00009c28       0xf1 /home/leon/git/swp-report/iMX6_Platform_SDK/output/mx6sl/lib/libboard_evk_rev_a.a(i2c2_iomux_config.o)
 .debug_abbrev  0x00009d19       0xf1 /home/leon/git/swp-report/iMX6_Platform_SDK/output/mx6sl/lib/libboard_evk_rev_a.a(i2c3_iomux_config.o)
 .debug_abbrev  0x00009e0a      0x1e2 /home/leon/git/swp-report/iMX6_Platform_SDK/output/mx6sl/lib/libsdk.a(runtime_support.o)

.debug_aranges  0x00000000      0xf08
 .debug_aranges
                0x00000000       0x18 /home/leon/git/swp-report/iMX6_Platform_SDK/output/mx6sl/obds/evk_rev_a/obj/apps/common/ivt.o
 .debug_aranges
                0x00000018       0x20 /home/leon/git/swp-report/iMX6_Platform_SDK/output/mx6sl/obds/evk_rev_a/obj/apps/common/platform_init.o
 .debug_aranges
                0x00000038       0x20 /home/leon/git/swp-report/iMX6_Platform_SDK/output/mx6sl/obds/evk_rev_a/obj/apps/common/print_clock_info.o
 .debug_aranges
                0x00000058       0x20 /home/leon/git/swp-report/iMX6_Platform_SDK/output/mx6sl/obds/evk_rev_a/obj/apps/common/print_version.o
 .debug_aranges
                0x00000078       0x20 /home/leon/git/swp-report/iMX6_Platform_SDK/output/mx6sl/obds/evk_rev_a/obj/apps/obds/src/obds.o
 .debug_aranges
                0x00000098       0x20 /home/leon/git/swp-report/iMX6_Platform_SDK/output/mx6sl/obds/evk_rev_a/obj/apps/obds/src/obds_utils.o
 .debug_aranges
                0x000000b8       0x20 /home/leon/git/swp-report/iMX6_Platform_SDK/output/mx6sl/obds/evk_rev_a/obj/apps/obds/src/tests/audio_ssi_test.o
 .debug_aranges
                0x000000d8       0x20 /home/leon/git/swp-report/iMX6_Platform_SDK/output/mx6sl/obds/evk_rev_a/obj/apps/obds/src/tests/ddr_test.o
 .debug_aranges
                0x000000f8       0x20 /home/leon/git/swp-report/iMX6_Platform_SDK/output/mx6sl/obds/evk_rev_a/obj/apps/obds/src/tests/flexcan_test.o
 .debug_aranges
                0x00000118       0x20 /home/leon/git/swp-report/iMX6_Platform_SDK/output/mx6sl/obds/evk_rev_a/obj/apps/obds/src/tests/gpio_led.o
 .debug_aranges
                0x00000138       0x20 /home/leon/git/swp-report/iMX6_Platform_SDK/output/mx6sl/obds/evk_rev_a/obj/apps/obds/src/tests/gps_test.o
 .debug_aranges
                0x00000158       0x20 /home/leon/git/swp-report/iMX6_Platform_SDK/output/mx6sl/obds/evk_rev_a/obj/apps/obds/src/tests/i2c_check_light_sensor_isl29023.o
 .debug_aranges
                0x00000178       0x20 /home/leon/git/swp-report/iMX6_Platform_SDK/output/mx6sl/obds/evk_rev_a/obj/apps/obds/src/tests/i2c_device_barometer_ppl3115.o
 .debug_aranges
                0x00000198       0x20 /home/leon/git/swp-report/iMX6_Platform_SDK/output/mx6sl/obds/evk_rev_a/obj/apps/obds/src/tests/i2c_device_digital_compass_mag3110.o
 .debug_aranges
                0x000001b8       0x20 /home/leon/git/swp-report/iMX6_Platform_SDK/output/mx6sl/obds/evk_rev_a/obj/apps/obds/src/tests/i2c_device_digital_compass_mag3112.o
 .debug_aranges
                0x000001d8       0x20 /home/leon/git/swp-report/iMX6_Platform_SDK/output/mx6sl/obds/evk_rev_a/obj/apps/obds/src/tests/i2c_device_id_check_mma8450.o
 .debug_aranges
                0x000001f8       0x20 /home/leon/git/swp-report/iMX6_Platform_SDK/output/mx6sl/obds/evk_rev_a/obj/apps/obds/src/tests/i2c_device_id_check_mma8451.o
 .debug_aranges
                0x00000218       0x20 /home/leon/git/swp-report/iMX6_Platform_SDK/output/mx6sl/obds/evk_rev_a/obj/apps/obds/src/tests/i2c_device_temp_sensor_emc1046.o
 .debug_aranges
                0x00000238       0x20 /home/leon/git/swp-report/iMX6_Platform_SDK/output/mx6sl/obds/evk_rev_a/obj/apps/obds/src/tests/i2c_device_zigbee_mc1323.o
 .debug_aranges
                0x00000258       0x20 /home/leon/git/swp-report/iMX6_Platform_SDK/output/mx6sl/obds/evk_rev_a/obj/apps/obds/src/tests/i2c_eeprom_at24cxx_test.o
 .debug_aranges
                0x00000278       0x20 /home/leon/git/swp-report/iMX6_Platform_SDK/output/mx6sl/obds/evk_rev_a/obj/apps/obds/src/tests/imx_spi_nor_test.o
 .debug_aranges
                0x00000298       0x20 /home/leon/git/swp-report/iMX6_Platform_SDK/output/mx6sl/obds/evk_rev_a/obj/apps/obds/src/tests/keyboard_test.o
 .debug_aranges
                0x000002b8       0x20 /home/leon/git/swp-report/iMX6_Platform_SDK/output/mx6sl/obds/evk_rev_a/obj/apps/obds/src/tests/mmcsd_test.o
 .debug_aranges
                0x000002d8       0x20 /home/leon/git/swp-report/iMX6_Platform_SDK/output/mx6sl/obds/evk_rev_a/obj/apps/obds/src/tests/pmic_da9053.o
 .debug_aranges
                0x000002f8       0x20 /home/leon/git/swp-report/iMX6_Platform_SDK/output/mx6sl/obds/evk_rev_a/obj/apps/obds/src/tests/pmic_lt3589.o
 .debug_aranges
                0x00000318       0x20 /home/leon/git/swp-report/iMX6_Platform_SDK/output/mx6sl/obds/evk_rev_a/obj/apps/obds/src/tests/pmic_max17135.o
 .debug_aranges
                0x00000338       0x20 /home/leon/git/swp-report/iMX6_Platform_SDK/output/mx6sl/obds/evk_rev_a/obj/apps/obds/src/tests/pmic_mc13892.o
 .debug_aranges
                0x00000358       0x20 /home/leon/git/swp-report/iMX6_Platform_SDK/output/mx6sl/obds/evk_rev_a/obj/apps/obds/src/tests/program_board_id.o
 .debug_aranges
                0x00000378       0x20 /home/leon/git/swp-report/iMX6_Platform_SDK/output/mx6sl/obds/evk_rev_a/obj/apps/obds/src/tests/program_mac_address.o
 .debug_aranges
                0x00000398       0x20 /home/leon/git/swp-report/iMX6_Platform_SDK/output/mx6sl/obds/evk_rev_a/obj/apps/obds/src/tests/snvs_srtc_test.o
 .debug_aranges
                0x000003b8       0x20 /home/leon/git/swp-report/iMX6_Platform_SDK/output/mx6sl/obds/evk_rev_a/obj/apps/obds/src/tests/touch_screen.o
 .debug_aranges
                0x000003d8       0x20 /home/leon/git/swp-report/iMX6_Platform_SDK/output/mx6sl/obds/evk_rev_a/obj/apps/obds/src/tests/touch_screen_max11801.o
 .debug_aranges
                0x000003f8       0x20 /home/leon/git/swp-report/iMX6_Platform_SDK/output/mx6sl/obds/evk_rev_a/obj/apps/obds/src/tests/usb_tests_obds.o
 .debug_aranges
                0x00000418       0x20 /home/leon/git/swp-report/iMX6_Platform_SDK/output/mx6sl/obds/evk_rev_a/obj/apps/obds/src/tests/weim_nor_flash_test.o
 .debug_aranges
                0x00000438       0x20 /home/leon/git/swp-report/iMX6_Platform_SDK/output/mx6sl/obds/evk_rev_a/obj/sdk/common/pmic/pfuse/pf0100.o
 .debug_aranges
                0x00000458       0x20 /home/leon/git/swp-report/iMX6_Platform_SDK/output/mx6sl/obds/evk_rev_a/obj/sdk/drivers/audio/src/snd_card.o
 .debug_aranges
                0x00000478       0x20 /home/leon/git/swp-report/iMX6_Platform_SDK/output/mx6sl/obds/evk_rev_a/obj/sdk/drivers/camera/test/camera_test.o
 .debug_aranges
                0x00000498       0x20 /home/leon/git/swp-report/iMX6_Platform_SDK/output/mx6sl/obds/evk_rev_a/obj/sdk/drivers/camera/test/csi_sensor_capture.o
 .debug_aranges
                0x000004b8       0x20 /home/leon/git/swp-report/iMX6_Platform_SDK/output/mx6sl/obds/evk_rev_a/obj/sdk/drivers/epdc/test/epdc_test.o
 .debug_aranges
                0x000004d8       0x20 /home/leon/git/swp-report/iMX6_Platform_SDK/output/mx6sl/obds/evk_rev_a/obj/sdk/drivers/fec/test/fec_test.o
 .debug_aranges
                0x000004f8       0x20 /home/leon/git/swp-report/iMX6_Platform_SDK/output/mx6sl/obds/evk_rev_a/obj/sdk/drivers/lcdif/test/lcdif_display.o
 .debug_aranges
                0x00000518       0x20 /home/leon/git/swp-report/iMX6_Platform_SDK/output/mx6sl/obds/evk_rev_a/obj/sdk/drivers/spi/test/imx_spi_nor_atmel.o
 .debug_aranges
                0x00000538       0x20 /home/leon/git/swp-report/iMX6_Platform_SDK/output/mx6sl/obds/evk_rev_a/obj/sdk/drivers/spi/test/spi_nor_numonyx.o
 .debug_aranges
                0x00000558       0x20 /home/leon/git/swp-report/iMX6_Platform_SDK/output/mx6sl/obds/evk_rev_a/obj/sdk/drivers/uart/test/uart_test.o
 .debug_aranges
                0x00000578       0x20 /home/leon/git/swp-report/iMX6_Platform_SDK/output/mx6sl/obds/evk_rev_a/obj/sdk/drivers/usb/test/usb0_host_test.o
 .debug_aranges
                0x00000598       0x20 /home/leon/git/swp-report/iMX6_Platform_SDK/output/mx6sl/obds/evk_rev_a/obj/sdk/drivers/usb/test/usb0_host_testmodes_test.o
 .debug_aranges
                0x000005b8       0x20 /home/leon/git/swp-report/iMX6_Platform_SDK/output/mx6sl/obds/evk_rev_a/obj/sdk/drivers/usdhc/test/usdhc_test.o
 .debug_aranges
                0x000005d8       0x20 /home/leon/git/swp-report/iMX6_Platform_SDK/output/mx6sl/lib/libsdk.a(ccm_pll.o)
 .debug_aranges
                0x000005f8       0x20 /home/leon/git/swp-report/iMX6_Platform_SDK/output/mx6sl/lib/libsdk.a(gic.o)
 .debug_aranges
                0x00000618       0x20 /home/leon/git/swp-report/iMX6_Platform_SDK/output/mx6sl/lib/libsdk.a(mmu.o)
 .debug_aranges
                0x00000638       0x20 /home/leon/git/swp-report/iMX6_Platform_SDK/output/mx6sl/lib/libsdk.a(menu.o)
 .debug_aranges
                0x00000658       0x18 /home/leon/git/swp-report/iMX6_Platform_SDK/output/mx6sl/lib/libsdk.a(sdk_version.o)
 .debug_aranges
                0x00000670       0x20 /home/leon/git/swp-report/iMX6_Platform_SDK/output/mx6sl/lib/libsdk.a(system_util.o)
 .debug_aranges
                0x00000690       0x20 /home/leon/git/swp-report/iMX6_Platform_SDK/output/mx6sl/lib/libsdk.a(text_color.o)
 .debug_aranges
                0x000006b0       0x20 /home/leon/git/swp-report/iMX6_Platform_SDK/output/mx6sl/lib/libsdk.a(imx-ssi.o)
 .debug_aranges
                0x000006d0       0x20 /home/leon/git/swp-report/iMX6_Platform_SDK/output/mx6sl/lib/libsdk.a(imx_audmux.o)
 .debug_aranges
                0x000006f0       0x20 /home/leon/git/swp-report/iMX6_Platform_SDK/output/mx6sl/lib/libsdk.a(imx_spdif.o)
 .debug_aranges
                0x00000710       0x20 /home/leon/git/swp-report/iMX6_Platform_SDK/output/mx6sl/lib/libsdk.a(wm8962.o)
 .debug_aranges
                0x00000730       0x20 /home/leon/git/swp-report/iMX6_Platform_SDK/output/mx6sl/lib/libsdk.a(board_id.o)
 .debug_aranges
                0x00000750       0x20 /home/leon/git/swp-report/iMX6_Platform_SDK/output/mx6sl/lib/libsdk.a(csi_drv.o)
 .debug_aranges
                0x00000770       0x20 /home/leon/git/swp-report/iMX6_Platform_SDK/output/mx6sl/lib/libsdk.a(smd_sensor.o)
 .debug_aranges
                0x00000790       0x20 /home/leon/git/swp-report/iMX6_Platform_SDK/output/mx6sl/lib/libsdk.a(mxc_epdc.o)
 .debug_aranges
                0x000007b0       0x20 /home/leon/git/swp-report/iMX6_Platform_SDK/output/mx6sl/lib/libsdk.a(fec_drv.o)
 .debug_aranges
                0x000007d0       0x20 /home/leon/git/swp-report/iMX6_Platform_SDK/output/mx6sl/lib/libsdk.a(gpio.o)
 .debug_aranges
                0x000007f0       0x18 /home/leon/git/swp-report/iMX6_Platform_SDK/output/mx6sl/lib/libsdk.a(imx6sl_gpio_map.o)
 .debug_aranges
                0x00000808       0x20 /home/leon/git/swp-report/iMX6_Platform_SDK/output/mx6sl/lib/libsdk.a(imx_i2c.o)
 .debug_aranges
                0x00000828       0x20 /home/leon/git/swp-report/iMX6_Platform_SDK/output/mx6sl/lib/libsdk.a(lcdif_drv.o)
 .debug_aranges
                0x00000848       0x20 /home/leon/git/swp-report/iMX6_Platform_SDK/output/mx6sl/lib/libsdk.a(pxp_drv.o)
 .debug_aranges
                0x00000868       0x20 /home/leon/git/swp-report/iMX6_Platform_SDK/output/mx6sl/lib/libsdk.a(ocotp.o)
 .debug_aranges
                0x00000888       0x20 /home/leon/git/swp-report/iMX6_Platform_SDK/output/mx6sl/lib/libsdk.a(ecspi.o)
 .debug_aranges
                0x000008a8       0x20 /home/leon/git/swp-report/iMX6_Platform_SDK/output/mx6sl/lib/libsdk.a(timer.o)
 .debug_aranges
                0x000008c8       0x20 /home/leon/git/swp-report/iMX6_Platform_SDK/output/mx6sl/lib/libsdk.a(imx_uart.o)
 .debug_aranges
                0x000008e8       0x20 /home/leon/git/swp-report/iMX6_Platform_SDK/output/mx6sl/lib/libsdk.a(usb_common.o)
 .debug_aranges
                0x00000908       0x20 /home/leon/git/swp-report/iMX6_Platform_SDK/output/mx6sl/lib/libsdk.a(usbh_drv.o)
 .debug_aranges
                0x00000928       0x20 /home/leon/git/swp-report/iMX6_Platform_SDK/output/mx6sl/lib/libsdk.a(usdhc.o)
 .debug_aranges
                0x00000948       0x20 /home/leon/git/swp-report/iMX6_Platform_SDK/output/mx6sl/lib/libsdk.a(usdhc_host.o)
 .debug_aranges
                0x00000968       0x20 /home/leon/git/swp-report/iMX6_Platform_SDK/output/mx6sl/lib/libsdk.a(usdhc_mmc.o)
 .debug_aranges
                0x00000988       0x20 /home/leon/git/swp-report/iMX6_Platform_SDK/output/mx6sl/lib/libsdk.a(usdhc_sd.o)
 .debug_aranges
                0x000009a8       0x20 /home/leon/git/swp-report/iMX6_Platform_SDK/output/mx6sl/lib/libsdk.a(armv7_cache.o)
 .debug_aranges
                0x000009c8       0x20 /home/leon/git/swp-report/iMX6_Platform_SDK/output/mx6sl/lib/libsdk.a(interrupt.o)
 .debug_aranges
                0x000009e8       0x18 /home/leon/git/swp-report/iMX6_Platform_SDK/output/mx6sl/lib/libsdk.a(camera_profile.o)
 .debug_aranges
                0x00000a00       0x20 /home/leon/git/swp-report/iMX6_Platform_SDK/output/mx6sl/lib/libsdk.a(epit.o)
 .debug_aranges
                0x00000a20       0x20 /home/leon/git/swp-report/iMX6_Platform_SDK/output/mx6sl/lib/libsdk.a(mx6x_usb.o)
 .debug_aranges
                0x00000a40       0x20 /home/leon/git/swp-report/iMX6_Platform_SDK/output/mx6sl/lib/libsdk.a(abort_handler.o)
 .debug_aranges
                0x00000a60       0x20 /home/leon/git/swp-report/iMX6_Platform_SDK/output/mx6sl/lib/libboard_evk_rev_a.a(board_audio.o)
 .debug_aranges
                0x00000a80       0x20 /home/leon/git/swp-report/iMX6_Platform_SDK/output/mx6sl/lib/libboard_evk_rev_a.a(board_camera.o)
 .debug_aranges
                0x00000aa0       0x20 /home/leon/git/swp-report/iMX6_Platform_SDK/output/mx6sl/lib/libboard_evk_rev_a.a(board_display.o)
 .debug_aranges
                0x00000ac0       0x18 /home/leon/git/swp-report/iMX6_Platform_SDK/output/mx6sl/lib/libboard_evk_rev_a.a(board_i2c.o)
 .debug_aranges
                0x00000ad8       0x20 /home/leon/git/swp-report/iMX6_Platform_SDK/output/mx6sl/lib/libboard_evk_rev_a.a(board_io_expanders.o)
 .debug_aranges
                0x00000af8       0x20 /home/leon/git/swp-report/iMX6_Platform_SDK/output/mx6sl/lib/libboard_evk_rev_a.a(board_usb.o)
 .debug_aranges
                0x00000b18       0x20 /home/leon/git/swp-report/iMX6_Platform_SDK/output/mx6sl/lib/libboard_evk_rev_a.a(board_usdhc.o)
 .debug_aranges
                0x00000b38       0x18 /home/leon/git/swp-report/iMX6_Platform_SDK/output/mx6sl/lib/libboard_evk_rev_a.a(dcd.o)
 .debug_aranges
                0x00000b50       0x20 /home/leon/git/swp-report/iMX6_Platform_SDK/output/mx6sl/lib/libboard_evk_rev_a.a(audmux_iomux_config.o)
 .debug_aranges
                0x00000b70       0x18 /home/leon/git/swp-report/iMX6_Platform_SDK/output/mx6sl/lib/libboard_evk_rev_a.a(hardware_modules.o)
 .debug_aranges
                0x00000b88       0x20 /home/leon/git/swp-report/iMX6_Platform_SDK/output/mx6sl/lib/libboard_evk_rev_a.a(csi_iomux_config.o)
 .debug_aranges
                0x00000ba8       0x20 /home/leon/git/swp-report/iMX6_Platform_SDK/output/mx6sl/lib/libboard_evk_rev_a.a(ecspi_iomux_config.o)
 .debug_aranges
                0x00000bc8       0x20 /home/leon/git/swp-report/iMX6_Platform_SDK/output/mx6sl/lib/libboard_evk_rev_a.a(epdc_iomux_config.o)
 .debug_aranges
                0x00000be8       0x20 /home/leon/git/swp-report/iMX6_Platform_SDK/output/mx6sl/lib/libboard_evk_rev_a.a(fec_iomux_config.o)
 .debug_aranges
                0x00000c08       0x20 /home/leon/git/swp-report/iMX6_Platform_SDK/output/mx6sl/lib/libboard_evk_rev_a.a(i2c_iomux_config.o)
 .debug_aranges
                0x00000c28       0x20 /home/leon/git/swp-report/iMX6_Platform_SDK/output/mx6sl/lib/libboard_evk_rev_a.a(iomux_config.o)
 .debug_aranges
                0x00000c48       0x20 /home/leon/git/swp-report/iMX6_Platform_SDK/output/mx6sl/lib/libboard_evk_rev_a.a(kpp_iomux_config.o)
 .debug_aranges
                0x00000c68       0x20 /home/leon/git/swp-report/iMX6_Platform_SDK/output/mx6sl/lib/libboard_evk_rev_a.a(lcd_iomux_config.o)
 .debug_aranges
                0x00000c88       0x20 /home/leon/git/swp-report/iMX6_Platform_SDK/output/mx6sl/lib/libboard_evk_rev_a.a(mmdc_iomux_config.o)
 .debug_aranges
                0x00000ca8       0x20 /home/leon/git/swp-report/iMX6_Platform_SDK/output/mx6sl/lib/libboard_evk_rev_a.a(pwm1_iomux_config.o)
 .debug_aranges
                0x00000cc8       0x20 /home/leon/git/swp-report/iMX6_Platform_SDK/output/mx6sl/lib/libboard_evk_rev_a.a(sjc_iomux_config.o)
 .debug_aranges
                0x00000ce8       0x20 /home/leon/git/swp-report/iMX6_Platform_SDK/output/mx6sl/lib/libboard_evk_rev_a.a(spdc_iomux_config.o)
 .debug_aranges
                0x00000d08       0x20 /home/leon/git/swp-report/iMX6_Platform_SDK/output/mx6sl/lib/libboard_evk_rev_a.a(uart1_iomux_config.o)
 .debug_aranges
                0x00000d28       0x20 /home/leon/git/swp-report/iMX6_Platform_SDK/output/mx6sl/lib/libboard_evk_rev_a.a(uart_iomux_config.o)
 .debug_aranges
                0x00000d48       0x20 /home/leon/git/swp-report/iMX6_Platform_SDK/output/mx6sl/lib/libboard_evk_rev_a.a(usb_iomux_config.o)
 .debug_aranges
                0x00000d68       0x20 /home/leon/git/swp-report/iMX6_Platform_SDK/output/mx6sl/lib/libboard_evk_rev_a.a(usdhc1_iomux_config.o)
 .debug_aranges
                0x00000d88       0x20 /home/leon/git/swp-report/iMX6_Platform_SDK/output/mx6sl/lib/libboard_evk_rev_a.a(usdhc2_iomux_config.o)
 .debug_aranges
                0x00000da8       0x20 /home/leon/git/swp-report/iMX6_Platform_SDK/output/mx6sl/lib/libboard_evk_rev_a.a(usdhc3_iomux_config.o)
 .debug_aranges
                0x00000dc8       0x20 /home/leon/git/swp-report/iMX6_Platform_SDK/output/mx6sl/lib/libboard_evk_rev_a.a(usdhc_iomux_config.o)
 .debug_aranges
                0x00000de8       0x20 /home/leon/git/swp-report/iMX6_Platform_SDK/output/mx6sl/lib/libboard_evk_rev_a.a(wdog1_iomux_config.o)
 .debug_aranges
                0x00000e08       0x20 /home/leon/git/swp-report/iMX6_Platform_SDK/output/mx6sl/lib/libboard_evk_rev_a.a(ecspi1_iomux_config.o)
 .debug_aranges
                0x00000e28       0x20 /home/leon/git/swp-report/iMX6_Platform_SDK/output/mx6sl/lib/libboard_evk_rev_a.a(ecspi2_iomux_config.o)
 .debug_aranges
                0x00000e48       0x20 /home/leon/git/swp-report/iMX6_Platform_SDK/output/mx6sl/lib/libboard_evk_rev_a.a(gpio1_iomux_config.o)
 .debug_aranges
                0x00000e68       0x20 /home/leon/git/swp-report/iMX6_Platform_SDK/output/mx6sl/lib/libboard_evk_rev_a.a(gpio4_iomux_config.o)
 .debug_aranges
                0x00000e88       0x20 /home/leon/git/swp-report/iMX6_Platform_SDK/output/mx6sl/lib/libboard_evk_rev_a.a(i2c1_iomux_config.o)
 .debug_aranges
                0x00000ea8       0x20 /home/leon/git/swp-report/iMX6_Platform_SDK/output/mx6sl/lib/libboard_evk_rev_a.a(i2c2_iomux_config.o)
 .debug_aranges
                0x00000ec8       0x20 /home/leon/git/swp-report/iMX6_Platform_SDK/output/mx6sl/lib/libboard_evk_rev_a.a(i2c3_iomux_config.o)
 .debug_aranges
                0x00000ee8       0x20 /home/leon/git/swp-report/iMX6_Platform_SDK/output/mx6sl/lib/libsdk.a(runtime_support.o)

.debug_line     0x00000000    0x14364
 .debug_line    0x00000000      0x103 /home/leon/git/swp-report/iMX6_Platform_SDK/output/mx6sl/obds/evk_rev_a/obj/apps/common/ivt.o
 .debug_line    0x00000103      0x17e /home/leon/git/swp-report/iMX6_Platform_SDK/output/mx6sl/obds/evk_rev_a/obj/apps/common/platform_init.o
 .debug_line    0x00000281      0x171 /home/leon/git/swp-report/iMX6_Platform_SDK/output/mx6sl/obds/evk_rev_a/obj/apps/common/print_clock_info.o
 .debug_line    0x000003f2      0x17f /home/leon/git/swp-report/iMX6_Platform_SDK/output/mx6sl/obds/evk_rev_a/obj/apps/common/print_version.o
 .debug_line    0x00000571      0x322 /home/leon/git/swp-report/iMX6_Platform_SDK/output/mx6sl/obds/evk_rev_a/obj/apps/obds/src/obds.o
 .debug_line    0x00000893       0xfa /home/leon/git/swp-report/iMX6_Platform_SDK/output/mx6sl/obds/evk_rev_a/obj/apps/obds/src/obds_utils.o
 .debug_line    0x0000098d        0x0 /home/leon/git/swp-report/iMX6_Platform_SDK/output/mx6sl/obds/evk_rev_a/obj/apps/obds/src/tests/audio_esai_test.o
 .debug_line    0x0000098d      0x359 /home/leon/git/swp-report/iMX6_Platform_SDK/output/mx6sl/obds/evk_rev_a/obj/apps/obds/src/tests/audio_ssi_test.o
 .debug_line    0x00000ce6      0x272 /home/leon/git/swp-report/iMX6_Platform_SDK/output/mx6sl/obds/evk_rev_a/obj/apps/obds/src/tests/ddr_test.o
 .debug_line    0x00000f58       0xd1 /home/leon/git/swp-report/iMX6_Platform_SDK/output/mx6sl/obds/evk_rev_a/obj/apps/obds/src/tests/flexcan_test.o
 .debug_line    0x00001029      0x21c /home/leon/git/swp-report/iMX6_Platform_SDK/output/mx6sl/obds/evk_rev_a/obj/apps/obds/src/tests/gpio_led.o
 .debug_line    0x00001245      0x1c9 /home/leon/git/swp-report/iMX6_Platform_SDK/output/mx6sl/obds/evk_rev_a/obj/apps/obds/src/tests/gps_test.o
 .debug_line    0x0000140e      0x2d7 /home/leon/git/swp-report/iMX6_Platform_SDK/output/mx6sl/obds/evk_rev_a/obj/apps/obds/src/tests/i2c_check_light_sensor_isl29023.o
 .debug_line    0x000016e5      0x1f3 /home/leon/git/swp-report/iMX6_Platform_SDK/output/mx6sl/obds/evk_rev_a/obj/apps/obds/src/tests/i2c_device_barometer_ppl3115.o
 .debug_line    0x000018d8        0x0 /home/leon/git/swp-report/iMX6_Platform_SDK/output/mx6sl/obds/evk_rev_a/obj/apps/obds/src/tests/i2c_device_check_cs42888.o
 .debug_line    0x000018d8      0x1ea /home/leon/git/swp-report/iMX6_Platform_SDK/output/mx6sl/obds/evk_rev_a/obj/apps/obds/src/tests/i2c_device_digital_compass_mag3110.o
 .debug_line    0x00001ac2      0x1ea /home/leon/git/swp-report/iMX6_Platform_SDK/output/mx6sl/obds/evk_rev_a/obj/apps/obds/src/tests/i2c_device_digital_compass_mag3112.o
 .debug_line    0x00001cac      0x3c1 /home/leon/git/swp-report/iMX6_Platform_SDK/output/mx6sl/obds/evk_rev_a/obj/apps/obds/src/tests/i2c_device_id_check_mma8450.o
 .debug_line    0x0000206d      0x3c2 /home/leon/git/swp-report/iMX6_Platform_SDK/output/mx6sl/obds/evk_rev_a/obj/apps/obds/src/tests/i2c_device_id_check_mma8451.o
 .debug_line    0x0000242f      0x254 /home/leon/git/swp-report/iMX6_Platform_SDK/output/mx6sl/obds/evk_rev_a/obj/apps/obds/src/tests/i2c_device_temp_sensor_emc1046.o
 .debug_line    0x00002683      0x201 /home/leon/git/swp-report/iMX6_Platform_SDK/output/mx6sl/obds/evk_rev_a/obj/apps/obds/src/tests/i2c_device_zigbee_mc1323.o
 .debug_line    0x00002884      0x24a /home/leon/git/swp-report/iMX6_Platform_SDK/output/mx6sl/obds/evk_rev_a/obj/apps/obds/src/tests/i2c_eeprom_at24cxx_test.o
 .debug_line    0x00002ace      0x239 /home/leon/git/swp-report/iMX6_Platform_SDK/output/mx6sl/obds/evk_rev_a/obj/apps/obds/src/tests/imx_spi_nor_test.o
 .debug_line    0x00002d07      0x343 /home/leon/git/swp-report/iMX6_Platform_SDK/output/mx6sl/obds/evk_rev_a/obj/apps/obds/src/tests/keyboard_test.o
 .debug_line    0x0000304a      0x186 /home/leon/git/swp-report/iMX6_Platform_SDK/output/mx6sl/obds/evk_rev_a/obj/apps/obds/src/tests/mmcsd_test.o
 .debug_line    0x000031d0      0x217 /home/leon/git/swp-report/iMX6_Platform_SDK/output/mx6sl/obds/evk_rev_a/obj/apps/obds/src/tests/pmic_da9053.o
 .debug_line    0x000033e7      0x3fe /home/leon/git/swp-report/iMX6_Platform_SDK/output/mx6sl/obds/evk_rev_a/obj/apps/obds/src/tests/pmic_lt3589.o
 .debug_line    0x000037e5      0x1e2 /home/leon/git/swp-report/iMX6_Platform_SDK/output/mx6sl/obds/evk_rev_a/obj/apps/obds/src/tests/pmic_max17135.o
 .debug_line    0x000039c7       0xff /home/leon/git/swp-report/iMX6_Platform_SDK/output/mx6sl/obds/evk_rev_a/obj/apps/obds/src/tests/pmic_mc13892.o
 .debug_line    0x00003ac6      0x270 /home/leon/git/swp-report/iMX6_Platform_SDK/output/mx6sl/obds/evk_rev_a/obj/apps/obds/src/tests/program_board_id.o
 .debug_line    0x00003d36      0x34d /home/leon/git/swp-report/iMX6_Platform_SDK/output/mx6sl/obds/evk_rev_a/obj/apps/obds/src/tests/program_mac_address.o
 .debug_line    0x00004083      0x1a9 /home/leon/git/swp-report/iMX6_Platform_SDK/output/mx6sl/obds/evk_rev_a/obj/apps/obds/src/tests/snvs_srtc_test.o
 .debug_line    0x0000422c        0x0 /home/leon/git/swp-report/iMX6_Platform_SDK/output/mx6sl/obds/evk_rev_a/obj/apps/obds/src/tests/touch_button_test.o
 .debug_line    0x0000422c      0x2d3 /home/leon/git/swp-report/iMX6_Platform_SDK/output/mx6sl/obds/evk_rev_a/obj/apps/obds/src/tests/touch_screen.o
 .debug_line    0x000044ff      0x37b /home/leon/git/swp-report/iMX6_Platform_SDK/output/mx6sl/obds/evk_rev_a/obj/apps/obds/src/tests/touch_screen_max11801.o
 .debug_line    0x0000487a      0x246 /home/leon/git/swp-report/iMX6_Platform_SDK/output/mx6sl/obds/evk_rev_a/obj/apps/obds/src/tests/usb_tests_obds.o
 .debug_line    0x00004ac0      0x167 /home/leon/git/swp-report/iMX6_Platform_SDK/output/mx6sl/obds/evk_rev_a/obj/apps/obds/src/tests/weim_nor_flash_test.o
 .debug_line    0x00004c27      0x1f4 /home/leon/git/swp-report/iMX6_Platform_SDK/output/mx6sl/obds/evk_rev_a/obj/sdk/common/pmic/pfuse/pf0100.o
 .debug_line    0x00004e1b      0x1b1 /home/leon/git/swp-report/iMX6_Platform_SDK/output/mx6sl/obds/evk_rev_a/obj/sdk/drivers/audio/src/snd_card.o
 .debug_line    0x00004fcc        0x0 /home/leon/git/swp-report/iMX6_Platform_SDK/output/mx6sl/obds/evk_rev_a/obj/sdk/drivers/camera/test/adv7180_capture.o
 .debug_line    0x00004fcc      0x1e2 /home/leon/git/swp-report/iMX6_Platform_SDK/output/mx6sl/obds/evk_rev_a/obj/sdk/drivers/camera/test/camera_test.o
 .debug_line    0x000051ae      0x21a /home/leon/git/swp-report/iMX6_Platform_SDK/output/mx6sl/obds/evk_rev_a/obj/sdk/drivers/camera/test/csi_sensor_capture.o
 .debug_line    0x000053c8      0x257 /home/leon/git/swp-report/iMX6_Platform_SDK/output/mx6sl/obds/evk_rev_a/obj/sdk/drivers/epdc/test/epdc_test.o
 .debug_line    0x0000561f      0x2de /home/leon/git/swp-report/iMX6_Platform_SDK/output/mx6sl/obds/evk_rev_a/obj/sdk/drivers/fec/test/fec_test.o
 .debug_line    0x000058fd      0x1bc /home/leon/git/swp-report/iMX6_Platform_SDK/output/mx6sl/obds/evk_rev_a/obj/sdk/drivers/lcdif/test/lcdif_display.o
 .debug_line    0x00005ab9      0x2d9 /home/leon/git/swp-report/iMX6_Platform_SDK/output/mx6sl/obds/evk_rev_a/obj/sdk/drivers/spi/test/imx_spi_nor_atmel.o
 .debug_line    0x00005d92      0x22d /home/leon/git/swp-report/iMX6_Platform_SDK/output/mx6sl/obds/evk_rev_a/obj/sdk/drivers/spi/test/spi_nor_numonyx.o
 .debug_line    0x00005fbf      0x217 /home/leon/git/swp-report/iMX6_Platform_SDK/output/mx6sl/obds/evk_rev_a/obj/sdk/drivers/uart/test/uart_test.o
 .debug_line    0x000061d6      0xba2 /home/leon/git/swp-report/iMX6_Platform_SDK/output/mx6sl/obds/evk_rev_a/obj/sdk/drivers/usb/test/usb0_host_test.o
 .debug_line    0x00006d78      0x37c /home/leon/git/swp-report/iMX6_Platform_SDK/output/mx6sl/obds/evk_rev_a/obj/sdk/drivers/usb/test/usb0_host_testmodes_test.o
 .debug_line    0x000070f4      0x395 /home/leon/git/swp-report/iMX6_Platform_SDK/output/mx6sl/obds/evk_rev_a/obj/sdk/drivers/usdhc/test/usdhc_test.o
 .debug_line    0x00007489      0x22c /home/leon/git/swp-report/iMX6_Platform_SDK/output/mx6sl/lib/libsdk.a(ccm_pll.o)
 .debug_line    0x000076b5      0x165 /home/leon/git/swp-report/iMX6_Platform_SDK/output/mx6sl/lib/libsdk.a(gic.o)
 .debug_line    0x0000781a      0x188 /home/leon/git/swp-report/iMX6_Platform_SDK/output/mx6sl/lib/libsdk.a(mmu.o)
 .debug_line    0x000079a2      0x2e0 /home/leon/git/swp-report/iMX6_Platform_SDK/output/mx6sl/lib/libsdk.a(menu.o)
 .debug_line    0x00007c82       0x6a /home/leon/git/swp-report/iMX6_Platform_SDK/output/mx6sl/lib/libsdk.a(sdk_version.o)
 .debug_line    0x00007cec      0x365 /home/leon/git/swp-report/iMX6_Platform_SDK/output/mx6sl/lib/libsdk.a(system_util.o)
 .debug_line    0x00008051       0xf0 /home/leon/git/swp-report/iMX6_Platform_SDK/output/mx6sl/lib/libsdk.a(text_color.o)
 .debug_line    0x00008141     0x11d2 /home/leon/git/swp-report/iMX6_Platform_SDK/output/mx6sl/lib/libsdk.a(imx-ssi.o)
 .debug_line    0x00009313      0x457 /home/leon/git/swp-report/iMX6_Platform_SDK/output/mx6sl/lib/libsdk.a(imx_audmux.o)
 .debug_line    0x0000976a      0x227 /home/leon/git/swp-report/iMX6_Platform_SDK/output/mx6sl/lib/libsdk.a(imx_spdif.o)
 .debug_line    0x00009991      0x2ee /home/leon/git/swp-report/iMX6_Platform_SDK/output/mx6sl/lib/libsdk.a(wm8962.o)
 .debug_line    0x00009c7f      0x278 /home/leon/git/swp-report/iMX6_Platform_SDK/output/mx6sl/lib/libsdk.a(board_id.o)
 .debug_line    0x00009ef7      0x118 /home/leon/git/swp-report/iMX6_Platform_SDK/output/mx6sl/lib/libsdk.a(csi_drv.o)
 .debug_line    0x0000a00f      0x262 /home/leon/git/swp-report/iMX6_Platform_SDK/output/mx6sl/lib/libsdk.a(smd_sensor.o)
 .debug_line    0x0000a271      0x29b /home/leon/git/swp-report/iMX6_Platform_SDK/output/mx6sl/lib/libsdk.a(mxc_epdc.o)
 .debug_line    0x0000a50c      0x310 /home/leon/git/swp-report/iMX6_Platform_SDK/output/mx6sl/lib/libsdk.a(fec_drv.o)
 .debug_line    0x0000a81c      0x7ba /home/leon/git/swp-report/iMX6_Platform_SDK/output/mx6sl/lib/libsdk.a(gpio.o)
 .debug_line    0x0000afd6       0xcf /home/leon/git/swp-report/iMX6_Platform_SDK/output/mx6sl/lib/libsdk.a(imx6sl_gpio_map.o)
 .debug_line    0x0000b0a5      0x9be /home/leon/git/swp-report/iMX6_Platform_SDK/output/mx6sl/lib/libsdk.a(imx_i2c.o)
 .debug_line    0x0000ba63      0x2f1 /home/leon/git/swp-report/iMX6_Platform_SDK/output/mx6sl/lib/libsdk.a(lcdif_drv.o)
 .debug_line    0x0000bd54      0x118 /home/leon/git/swp-report/iMX6_Platform_SDK/output/mx6sl/lib/libsdk.a(pxp_drv.o)
 .debug_line    0x0000be6c      0x1ad /home/leon/git/swp-report/iMX6_Platform_SDK/output/mx6sl/lib/libsdk.a(ocotp.o)
 .debug_line    0x0000c019      0x85a /home/leon/git/swp-report/iMX6_Platform_SDK/output/mx6sl/lib/libsdk.a(ecspi.o)
 .debug_line    0x0000c873      0x200 /home/leon/git/swp-report/iMX6_Platform_SDK/output/mx6sl/lib/libsdk.a(timer.o)
 .debug_line    0x0000ca73     0x12ca /home/leon/git/swp-report/iMX6_Platform_SDK/output/mx6sl/lib/libsdk.a(imx_uart.o)
 .debug_line    0x0000dd3d      0x294 /home/leon/git/swp-report/iMX6_Platform_SDK/output/mx6sl/lib/libsdk.a(usb_common.o)
 .debug_line    0x0000dfd1      0xbb4 /home/leon/git/swp-report/iMX6_Platform_SDK/output/mx6sl/lib/libsdk.a(usbh_drv.o)
 .debug_line    0x0000eb85      0x37f /home/leon/git/swp-report/iMX6_Platform_SDK/output/mx6sl/lib/libsdk.a(usdhc.o)
 .debug_line    0x0000ef04     0x14a4 /home/leon/git/swp-report/iMX6_Platform_SDK/output/mx6sl/lib/libsdk.a(usdhc_host.o)
 .debug_line    0x000103a8      0x348 /home/leon/git/swp-report/iMX6_Platform_SDK/output/mx6sl/lib/libsdk.a(usdhc_mmc.o)
 .debug_line    0x000106f0      0x202 /home/leon/git/swp-report/iMX6_Platform_SDK/output/mx6sl/lib/libsdk.a(usdhc_sd.o)
 .debug_line    0x000108f2      0x1aa /home/leon/git/swp-report/iMX6_Platform_SDK/output/mx6sl/lib/libsdk.a(armv7_cache.o)
 .debug_line    0x00010a9c      0x180 /home/leon/git/swp-report/iMX6_Platform_SDK/output/mx6sl/lib/libsdk.a(interrupt.o)
 .debug_line    0x00010c1c      0x11f /home/leon/git/swp-report/iMX6_Platform_SDK/output/mx6sl/lib/libsdk.a(camera_profile.o)
 .debug_line    0x00010d3b      0x57f /home/leon/git/swp-report/iMX6_Platform_SDK/output/mx6sl/lib/libsdk.a(epit.o)
 .debug_line    0x000112ba      0x270 /home/leon/git/swp-report/iMX6_Platform_SDK/output/mx6sl/lib/libsdk.a(mx6x_usb.o)
 .debug_line    0x0001152a      0x24a /home/leon/git/swp-report/iMX6_Platform_SDK/output/mx6sl/lib/libsdk.a(abort_handler.o)
 .debug_line    0x00011774       0x84 /home/leon/git/swp-report/iMX6_Platform_SDK/output/mx6sl/lib/libboard_evk_rev_a.a(board_audio.o)
 .debug_line    0x000117f8      0x1fd /home/leon/git/swp-report/iMX6_Platform_SDK/output/mx6sl/lib/libboard_evk_rev_a.a(board_camera.o)
 .debug_line    0x000119f5      0x185 /home/leon/git/swp-report/iMX6_Platform_SDK/output/mx6sl/lib/libboard_evk_rev_a.a(board_display.o)
 .debug_line    0x00011b7a      0x10d /home/leon/git/swp-report/iMX6_Platform_SDK/output/mx6sl/lib/libboard_evk_rev_a.a(board_i2c.o)
 .debug_line    0x00011c87       0x81 /home/leon/git/swp-report/iMX6_Platform_SDK/output/mx6sl/lib/libboard_evk_rev_a.a(board_io_expanders.o)
 .debug_line    0x00011d08      0x14f /home/leon/git/swp-report/iMX6_Platform_SDK/output/mx6sl/lib/libboard_evk_rev_a.a(board_usb.o)
 .debug_line    0x00011e57      0x1a2 /home/leon/git/swp-report/iMX6_Platform_SDK/output/mx6sl/lib/libboard_evk_rev_a.a(board_usdhc.o)
 .debug_line    0x00011ff9      0x107 /home/leon/git/swp-report/iMX6_Platform_SDK/output/mx6sl/lib/libboard_evk_rev_a.a(dcd.o)
 .debug_line    0x00012100      0x116 /home/leon/git/swp-report/iMX6_Platform_SDK/output/mx6sl/lib/libboard_evk_rev_a.a(audmux_iomux_config.o)
 .debug_line    0x00012216       0xcb /home/leon/git/swp-report/iMX6_Platform_SDK/output/mx6sl/lib/libboard_evk_rev_a.a(hardware_modules.o)
 .debug_line    0x000122e1      0x170 /home/leon/git/swp-report/iMX6_Platform_SDK/output/mx6sl/lib/libboard_evk_rev_a.a(csi_iomux_config.o)
 .debug_line    0x00012451       0x8e /home/leon/git/swp-report/iMX6_Platform_SDK/output/mx6sl/lib/libboard_evk_rev_a.a(ecspi_iomux_config.o)
 .debug_line    0x000124df      0x1e0 /home/leon/git/swp-report/iMX6_Platform_SDK/output/mx6sl/lib/libboard_evk_rev_a.a(epdc_iomux_config.o)
 .debug_line    0x000126bf      0x137 /home/leon/git/swp-report/iMX6_Platform_SDK/output/mx6sl/lib/libboard_evk_rev_a.a(fec_iomux_config.o)
 .debug_line    0x000127f6       0x8a /home/leon/git/swp-report/iMX6_Platform_SDK/output/mx6sl/lib/libboard_evk_rev_a.a(i2c_iomux_config.o)
 .debug_line    0x00012880       0xcc /home/leon/git/swp-report/iMX6_Platform_SDK/output/mx6sl/lib/libboard_evk_rev_a.a(iomux_config.o)
 .debug_line    0x0001294c      0x12f /home/leon/git/swp-report/iMX6_Platform_SDK/output/mx6sl/lib/libboard_evk_rev_a.a(kpp_iomux_config.o)
 .debug_line    0x00012a7b      0x1e2 /home/leon/git/swp-report/iMX6_Platform_SDK/output/mx6sl/lib/libboard_evk_rev_a.a(lcd_iomux_config.o)
 .debug_line    0x00012c5d      0x401 /home/leon/git/swp-report/iMX6_Platform_SDK/output/mx6sl/lib/libboard_evk_rev_a.a(mmdc_iomux_config.o)
 .debug_line    0x0001305e       0xf0 /home/leon/git/swp-report/iMX6_Platform_SDK/output/mx6sl/lib/libboard_evk_rev_a.a(pwm1_iomux_config.o)
 .debug_line    0x0001314e       0xfa /home/leon/git/swp-report/iMX6_Platform_SDK/output/mx6sl/lib/libboard_evk_rev_a.a(sjc_iomux_config.o)
 .debug_line    0x00013248      0x14a /home/leon/git/swp-report/iMX6_Platform_SDK/output/mx6sl/lib/libboard_evk_rev_a.a(spdc_iomux_config.o)
 .debug_line    0x00013392       0xfb /home/leon/git/swp-report/iMX6_Platform_SDK/output/mx6sl/lib/libboard_evk_rev_a.a(uart1_iomux_config.o)
 .debug_line    0x0001348d       0x8e /home/leon/git/swp-report/iMX6_Platform_SDK/output/mx6sl/lib/libboard_evk_rev_a.a(uart_iomux_config.o)
 .debug_line    0x0001351b      0x107 /home/leon/git/swp-report/iMX6_Platform_SDK/output/mx6sl/lib/libboard_evk_rev_a.a(usb_iomux_config.o)
 .debug_line    0x00013622      0x138 /home/leon/git/swp-report/iMX6_Platform_SDK/output/mx6sl/lib/libboard_evk_rev_a.a(usdhc1_iomux_config.o)
 .debug_line    0x0001375a      0x126 /home/leon/git/swp-report/iMX6_Platform_SDK/output/mx6sl/lib/libboard_evk_rev_a.a(usdhc2_iomux_config.o)
 .debug_line    0x00013880      0x119 /home/leon/git/swp-report/iMX6_Platform_SDK/output/mx6sl/lib/libboard_evk_rev_a.a(usdhc3_iomux_config.o)
 .debug_line    0x00013999       0x8e /home/leon/git/swp-report/iMX6_Platform_SDK/output/mx6sl/lib/libboard_evk_rev_a.a(usdhc_iomux_config.o)
 .debug_line    0x00013a27       0xf1 /home/leon/git/swp-report/iMX6_Platform_SDK/output/mx6sl/lib/libboard_evk_rev_a.a(wdog1_iomux_config.o)
 .debug_line    0x00013b18      0x10e /home/leon/git/swp-report/iMX6_Platform_SDK/output/mx6sl/lib/libboard_evk_rev_a.a(ecspi1_iomux_config.o)
 .debug_line    0x00013c26      0x10e /home/leon/git/swp-report/iMX6_Platform_SDK/output/mx6sl/lib/libboard_evk_rev_a.a(ecspi2_iomux_config.o)
 .debug_line    0x00013d34       0x87 /home/leon/git/swp-report/iMX6_Platform_SDK/output/mx6sl/lib/libboard_evk_rev_a.a(gpio1_iomux_config.o)
 .debug_line    0x00013dbb       0x87 /home/leon/git/swp-report/iMX6_Platform_SDK/output/mx6sl/lib/libboard_evk_rev_a.a(gpio4_iomux_config.o)
 .debug_line    0x00013e42       0xfa /home/leon/git/swp-report/iMX6_Platform_SDK/output/mx6sl/lib/libboard_evk_rev_a.a(i2c1_iomux_config.o)
 .debug_line    0x00013f3c       0xfa /home/leon/git/swp-report/iMX6_Platform_SDK/output/mx6sl/lib/libboard_evk_rev_a.a(i2c2_iomux_config.o)
 .debug_line    0x00014036       0xfa /home/leon/git/swp-report/iMX6_Platform_SDK/output/mx6sl/lib/libboard_evk_rev_a.a(i2c3_iomux_config.o)
 .debug_line    0x00014130      0x234 /home/leon/git/swp-report/iMX6_Platform_SDK/output/mx6sl/lib/libsdk.a(runtime_support.o)

.debug_str      0x00000000    0x1c718
 .debug_str     0x00000000      0x150 /home/leon/git/swp-report/iMX6_Platform_SDK/output/mx6sl/obds/evk_rev_a/obj/apps/common/ivt.o
                                0x1ad (size before relaxing)
 .debug_str     0x00000150      0x146 /home/leon/git/swp-report/iMX6_Platform_SDK/output/mx6sl/obds/evk_rev_a/obj/apps/common/platform_init.o
                                0x1f5 (size before relaxing)
 .debug_str     0x00000296      0x170 /home/leon/git/swp-report/iMX6_Platform_SDK/output/mx6sl/obds/evk_rev_a/obj/apps/common/print_clock_info.o
                                0x277 (size before relaxing)
 .debug_str     0x00000406      0x11a /home/leon/git/swp-report/iMX6_Platform_SDK/output/mx6sl/obds/evk_rev_a/obj/apps/common/print_version.o
                                0x20c (size before relaxing)
 .debug_str     0x00000520      0x70f /home/leon/git/swp-report/iMX6_Platform_SDK/output/mx6sl/obds/evk_rev_a/obj/apps/obds/src/obds.o
                                0x930 (size before relaxing)
 .debug_str     0x00000c2f       0xd4 /home/leon/git/swp-report/iMX6_Platform_SDK/output/mx6sl/obds/evk_rev_a/obj/apps/obds/src/obds_utils.o
                                0x1bc (size before relaxing)
 .debug_str     0x00000d03      0x846 /home/leon/git/swp-report/iMX6_Platform_SDK/output/mx6sl/obds/evk_rev_a/obj/apps/obds/src/tests/audio_ssi_test.o
                                0xa58 (size before relaxing)
 .debug_str     0x00001549      0x1bb /home/leon/git/swp-report/iMX6_Platform_SDK/output/mx6sl/obds/evk_rev_a/obj/apps/obds/src/tests/ddr_test.o
                                0x357 (size before relaxing)
 .debug_str     0x00001704       0x80 /home/leon/git/swp-report/iMX6_Platform_SDK/output/mx6sl/obds/evk_rev_a/obj/apps/obds/src/tests/flexcan_test.o
                                0x1f1 (size before relaxing)
 .debug_str     0x00001784      0x10e /home/leon/git/swp-report/iMX6_Platform_SDK/output/mx6sl/obds/evk_rev_a/obj/apps/obds/src/tests/gpio_led.o
                                0x65d (size before relaxing)
 .debug_str     0x00001892       0x72 /home/leon/git/swp-report/iMX6_Platform_SDK/output/mx6sl/obds/evk_rev_a/obj/apps/obds/src/tests/gps_test.o
                                0x28e (size before relaxing)
 .debug_str     0x00001904      0x24e /home/leon/git/swp-report/iMX6_Platform_SDK/output/mx6sl/obds/evk_rev_a/obj/apps/obds/src/tests/i2c_check_light_sensor_isl29023.o
                                0x7e4 (size before relaxing)
 .debug_str     0x00001b52       0xd8 /home/leon/git/swp-report/iMX6_Platform_SDK/output/mx6sl/obds/evk_rev_a/obj/apps/obds/src/tests/i2c_device_barometer_ppl3115.o
                                0x3d3 (size before relaxing)
 .debug_str     0x00001c2a       0xca /home/leon/git/swp-report/iMX6_Platform_SDK/output/mx6sl/obds/evk_rev_a/obj/apps/obds/src/tests/i2c_device_digital_compass_mag3110.o
                                0x3c4 (size before relaxing)
 .debug_str     0x00001cf4       0xb4 /home/leon/git/swp-report/iMX6_Platform_SDK/output/mx6sl/obds/evk_rev_a/obj/apps/obds/src/tests/i2c_device_digital_compass_mag3112.o
                                0x3c4 (size before relaxing)
 .debug_str     0x00001da8      0x117 /home/leon/git/swp-report/iMX6_Platform_SDK/output/mx6sl/obds/evk_rev_a/obj/apps/obds/src/tests/i2c_device_id_check_mma8450.o
                                0x7fb (size before relaxing)
 .debug_str     0x00001ebf       0xf7 /home/leon/git/swp-report/iMX6_Platform_SDK/output/mx6sl/obds/evk_rev_a/obj/apps/obds/src/tests/i2c_device_id_check_mma8451.o
                                0x7fb (size before relaxing)
 .debug_str     0x00001fb6      0x1c5 /home/leon/git/swp-report/iMX6_Platform_SDK/output/mx6sl/obds/evk_rev_a/obj/apps/obds/src/tests/i2c_device_temp_sensor_emc1046.o
                                0x4ca (size before relaxing)
 .debug_str     0x0000217b       0xba /home/leon/git/swp-report/iMX6_Platform_SDK/output/mx6sl/obds/evk_rev_a/obj/apps/obds/src/tests/i2c_device_zigbee_mc1323.o
                                0x3c6 (size before relaxing)
 .debug_str     0x00002235       0xbc /home/leon/git/swp-report/iMX6_Platform_SDK/output/mx6sl/obds/evk_rev_a/obj/apps/obds/src/tests/i2c_eeprom_at24cxx_test.o
                                0x30f (size before relaxing)
 .debug_str     0x000022f1      0x19a /home/leon/git/swp-report/iMX6_Platform_SDK/output/mx6sl/obds/evk_rev_a/obj/apps/obds/src/tests/imx_spi_nor_test.o
                                0x34e (size before relaxing)
 .debug_str     0x0000248b      0x1ac /home/leon/git/swp-report/iMX6_Platform_SDK/output/mx6sl/obds/evk_rev_a/obj/apps/obds/src/tests/keyboard_test.o
                                0x346 (size before relaxing)
 .debug_str     0x00002637       0xa9 /home/leon/git/swp-report/iMX6_Platform_SDK/output/mx6sl/obds/evk_rev_a/obj/apps/obds/src/tests/mmcsd_test.o
                                0x23e (size before relaxing)
 .debug_str     0x000026e0       0xae /home/leon/git/swp-report/iMX6_Platform_SDK/output/mx6sl/obds/evk_rev_a/obj/apps/obds/src/tests/pmic_da9053.o
                                0x2ff (size before relaxing)
 .debug_str     0x0000278e      0x115 /home/leon/git/swp-report/iMX6_Platform_SDK/output/mx6sl/obds/evk_rev_a/obj/apps/obds/src/tests/pmic_lt3589.o
                                0x72d (size before relaxing)
 .debug_str     0x000028a3       0xc5 /home/leon/git/swp-report/iMX6_Platform_SDK/output/mx6sl/obds/evk_rev_a/obj/apps/obds/src/tests/pmic_max17135.o
                                0x336 (size before relaxing)
 .debug_str     0x00002968       0xda /home/leon/git/swp-report/iMX6_Platform_SDK/output/mx6sl/obds/evk_rev_a/obj/apps/obds/src/tests/pmic_mc13892.o
                                0x255 (size before relaxing)
 .debug_str     0x00002a42       0xba /home/leon/git/swp-report/iMX6_Platform_SDK/output/mx6sl/obds/evk_rev_a/obj/apps/obds/src/tests/program_board_id.o
                                0x36f (size before relaxing)
 .debug_str     0x00002afc      0x18c /home/leon/git/swp-report/iMX6_Platform_SDK/output/mx6sl/obds/evk_rev_a/obj/apps/obds/src/tests/program_mac_address.o
                                0x764 (size before relaxing)
 .debug_str     0x00002c88      0x285 /home/leon/git/swp-report/iMX6_Platform_SDK/output/mx6sl/obds/evk_rev_a/obj/apps/obds/src/tests/snvs_srtc_test.o
                                0x46a (size before relaxing)
 .debug_str     0x00002f0d       0xd4 /home/leon/git/swp-report/iMX6_Platform_SDK/output/mx6sl/obds/evk_rev_a/obj/apps/obds/src/tests/touch_screen.o
                                0x70c (size before relaxing)
 .debug_str     0x00002fe1      0x18e /home/leon/git/swp-report/iMX6_Platform_SDK/output/mx6sl/obds/evk_rev_a/obj/apps/obds/src/tests/touch_screen_max11801.o
                                0x855 (size before relaxing)
 .debug_str     0x0000316f      0x54f /home/leon/git/swp-report/iMX6_Platform_SDK/output/mx6sl/obds/evk_rev_a/obj/apps/obds/src/tests/usb_tests_obds.o
                                0x733 (size before relaxing)
 .debug_str     0x000036be       0xc8 /home/leon/git/swp-report/iMX6_Platform_SDK/output/mx6sl/obds/evk_rev_a/obj/apps/obds/src/tests/weim_nor_flash_test.o
                                0x250 (size before relaxing)
 .debug_str     0x00003786      0x172 /home/leon/git/swp-report/iMX6_Platform_SDK/output/mx6sl/obds/evk_rev_a/obj/sdk/common/pmic/pfuse/pf0100.o
                                0x3ab (size before relaxing)
 .debug_str     0x000038f8      0x16b /home/leon/git/swp-report/iMX6_Platform_SDK/output/mx6sl/obds/evk_rev_a/obj/sdk/drivers/audio/src/snd_card.o
                                0x5a0 (size before relaxing)
 .debug_str     0x00003a63       0xd3 /home/leon/git/swp-report/iMX6_Platform_SDK/output/mx6sl/obds/evk_rev_a/obj/sdk/drivers/camera/test/camera_test.o
                                0x5e5 (size before relaxing)
 .debug_str     0x00003b36      0x149 /home/leon/git/swp-report/iMX6_Platform_SDK/output/mx6sl/obds/evk_rev_a/obj/sdk/drivers/camera/test/csi_sensor_capture.o
                                0x6e4 (size before relaxing)
 .debug_str     0x00003c7f      0x161 /home/leon/git/swp-report/iMX6_Platform_SDK/output/mx6sl/obds/evk_rev_a/obj/sdk/drivers/epdc/test/epdc_test.o
                                0x675 (size before relaxing)
 .debug_str     0x00003de0      0xa4a /home/leon/git/swp-report/iMX6_Platform_SDK/output/mx6sl/obds/evk_rev_a/obj/sdk/drivers/fec/test/fec_test.o
                                0xc62 (size before relaxing)
 .debug_str     0x0000482a       0xa9 /home/leon/git/swp-report/iMX6_Platform_SDK/output/mx6sl/obds/evk_rev_a/obj/sdk/drivers/lcdif/test/lcdif_display.o
                                0x5bd (size before relaxing)
 .debug_str     0x000048d3      0x1be /home/leon/git/swp-report/iMX6_Platform_SDK/output/mx6sl/obds/evk_rev_a/obj/sdk/drivers/spi/test/imx_spi_nor_atmel.o
                                0x31f (size before relaxing)
 .debug_str     0x00004a91      0x115 /home/leon/git/swp-report/iMX6_Platform_SDK/output/mx6sl/obds/evk_rev_a/obj/sdk/drivers/spi/test/spi_nor_numonyx.o
                                0x2af (size before relaxing)
 .debug_str     0x00004ba6       0xfc /home/leon/git/swp-report/iMX6_Platform_SDK/output/mx6sl/obds/evk_rev_a/obj/sdk/drivers/uart/test/uart_test.o
                                0x6aa (size before relaxing)
 .debug_str     0x00004ca2      0x37c /home/leon/git/swp-report/iMX6_Platform_SDK/output/mx6sl/obds/evk_rev_a/obj/sdk/drivers/usb/test/usb0_host_test.o
                                0x930 (size before relaxing)
 .debug_str     0x0000501e       0x84 /home/leon/git/swp-report/iMX6_Platform_SDK/output/mx6sl/obds/evk_rev_a/obj/sdk/drivers/usb/test/usb0_host_testmodes_test.o
                                0x32c (size before relaxing)
 .debug_str     0x000050a2      0x1aa /home/leon/git/swp-report/iMX6_Platform_SDK/output/mx6sl/obds/evk_rev_a/obj/sdk/drivers/usdhc/test/usdhc_test.o
                                0x6cf (size before relaxing)
 .debug_str     0x0000524c      0x9c7 /home/leon/git/swp-report/iMX6_Platform_SDK/output/mx6sl/lib/libsdk.a(ccm_pll.o)
                                0xc0d (size before relaxing)
 .debug_str     0x00005c13      0x495 /home/leon/git/swp-report/iMX6_Platform_SDK/output/mx6sl/lib/libsdk.a(gic.o)
                                0x5f2 (size before relaxing)
 .debug_str     0x000060a8      0x256 /home/leon/git/swp-report/iMX6_Platform_SDK/output/mx6sl/lib/libsdk.a(mmu.o)
                                0x35e (size before relaxing)
 .debug_str     0x000062fe      0x22d /home/leon/git/swp-report/iMX6_Platform_SDK/output/mx6sl/lib/libsdk.a(menu.o)
                                0x85d (size before relaxing)
 .debug_str     0x0000652b       0x4a /home/leon/git/swp-report/iMX6_Platform_SDK/output/mx6sl/lib/libsdk.a(sdk_version.o)
                                 0x82 (size before relaxing)
 .debug_str     0x00006575      0x10f /home/leon/git/swp-report/iMX6_Platform_SDK/output/mx6sl/lib/libsdk.a(system_util.o)
                                0x7ac (size before relaxing)
 .debug_str     0x00006684      0x14a /home/leon/git/swp-report/iMX6_Platform_SDK/output/mx6sl/lib/libsdk.a(text_color.o)
                                0x305 (size before relaxing)
 .debug_str     0x000067ce      0x9af /home/leon/git/swp-report/iMX6_Platform_SDK/output/mx6sl/lib/libsdk.a(imx-ssi.o)
                                0xe07 (size before relaxing)
 .debug_str     0x0000717d      0x44e /home/leon/git/swp-report/iMX6_Platform_SDK/output/mx6sl/lib/libsdk.a(imx_audmux.o)
                                0x5e8 (size before relaxing)
 .debug_str     0x000075cb      0x834 /home/leon/git/swp-report/iMX6_Platform_SDK/output/mx6sl/lib/libsdk.a(imx_spdif.o)
                                0xcb0 (size before relaxing)
 .debug_str     0x00007dff      0x124 /home/leon/git/swp-report/iMX6_Platform_SDK/output/mx6sl/lib/libsdk.a(wm8962.o)
                                0x5d6 (size before relaxing)
 .debug_str     0x00007f23      0x204 /home/leon/git/swp-report/iMX6_Platform_SDK/output/mx6sl/lib/libsdk.a(board_id.o)
                                0x3d2 (size before relaxing)
 .debug_str     0x00008127      0x57f /home/leon/git/swp-report/iMX6_Platform_SDK/output/mx6sl/lib/libsdk.a(csi_drv.o)
                                0x664 (size before relaxing)
 .debug_str     0x000086a6      0x228 /home/leon/git/swp-report/iMX6_Platform_SDK/output/mx6sl/lib/libsdk.a(smd_sensor.o)
                                0x524 (size before relaxing)
 .debug_str     0x000088ce     0x1069 /home/leon/git/swp-report/iMX6_Platform_SDK/output/mx6sl/lib/libsdk.a(mxc_epdc.o)
                               0x1194 (size before relaxing)
 .debug_str     0x00009937      0x24e /home/leon/git/swp-report/iMX6_Platform_SDK/output/mx6sl/lib/libsdk.a(fec_drv.o)
                                0xc2b (size before relaxing)
 .debug_str     0x00009b85      0x36d /home/leon/git/swp-report/iMX6_Platform_SDK/output/mx6sl/lib/libsdk.a(gpio.o)
                                0x48b (size before relaxing)
 .debug_str     0x00009ef2       0x53 /home/leon/git/swp-report/iMX6_Platform_SDK/output/mx6sl/lib/libsdk.a(imx6sl_gpio_map.o)
                                0x10a (size before relaxing)
 .debug_str     0x00009f45      0xe86 /home/leon/git/swp-report/iMX6_Platform_SDK/output/mx6sl/lib/libsdk.a(imx_i2c.o)
                               0x1149 (size before relaxing)
 .debug_str     0x0000adcb      0x92b /home/leon/git/swp-report/iMX6_Platform_SDK/output/mx6sl/lib/libsdk.a(lcdif_drv.o)
                                0xe12 (size before relaxing)
 .debug_str     0x0000b6f6      0x5a7 /home/leon/git/swp-report/iMX6_Platform_SDK/output/mx6sl/lib/libsdk.a(pxp_drv.o)
                                0x752 (size before relaxing)
 .debug_str     0x0000bc9d      0x2f1 /home/leon/git/swp-report/iMX6_Platform_SDK/output/mx6sl/lib/libsdk.a(ocotp.o)
                                0x3e8 (size before relaxing)
 .debug_str     0x0000bf8e      0x2e1 /home/leon/git/swp-report/iMX6_Platform_SDK/output/mx6sl/lib/libsdk.a(ecspi.o)
                                0x4a7 (size before relaxing)
 .debug_str     0x0000c26f      0x2bb /home/leon/git/swp-report/iMX6_Platform_SDK/output/mx6sl/lib/libsdk.a(timer.o)
                                0x3f8 (size before relaxing)
 .debug_str     0x0000c52a      0x54a /home/leon/git/swp-report/iMX6_Platform_SDK/output/mx6sl/lib/libsdk.a(imx_uart.o)
                               0x139e (size before relaxing)
 .debug_str     0x0000ca74       0xca /home/leon/git/swp-report/iMX6_Platform_SDK/output/mx6sl/lib/libsdk.a(usb_common.o)
                                0x759 (size before relaxing)
 .debug_str     0x0000cb3e      0x49d /home/leon/git/swp-report/iMX6_Platform_SDK/output/mx6sl/lib/libsdk.a(usbh_drv.o)
                                0x942 (size before relaxing)
 .debug_str     0x0000cfdb      0x56a /home/leon/git/swp-report/iMX6_Platform_SDK/output/mx6sl/lib/libsdk.a(usdhc.o)
                               0x12b1 (size before relaxing)
 .debug_str     0x0000d545      0xb46 /home/leon/git/swp-report/iMX6_Platform_SDK/output/mx6sl/lib/libsdk.a(usdhc_host.o)
                                0xfb7 (size before relaxing)
 .debug_str     0x0000e08b      0x224 /home/leon/git/swp-report/iMX6_Platform_SDK/output/mx6sl/lib/libsdk.a(usdhc_mmc.o)
                                0x72e (size before relaxing)
 .debug_str     0x0000e2af       0xae /home/leon/git/swp-report/iMX6_Platform_SDK/output/mx6sl/lib/libsdk.a(usdhc_sd.o)
                                0x58d (size before relaxing)
 .debug_str     0x0000e35d      0x1ea /home/leon/git/swp-report/iMX6_Platform_SDK/output/mx6sl/lib/libsdk.a(armv7_cache.o)
                                0x2aa (size before relaxing)
 .debug_str     0x0000e547       0xd7 /home/leon/git/swp-report/iMX6_Platform_SDK/output/mx6sl/lib/libsdk.a(interrupt.o)
                                0xd35 (size before relaxing)
 .debug_str     0x0000e61e      0x1c6 /home/leon/git/swp-report/iMX6_Platform_SDK/output/mx6sl/lib/libsdk.a(camera_profile.o)
                                0x4be (size before relaxing)
 .debug_str     0x0000e7e4      0x283 /home/leon/git/swp-report/iMX6_Platform_SDK/output/mx6sl/lib/libsdk.a(epit.o)
                                0xfb6 (size before relaxing)
 .debug_str     0x0000ea67      0x1b0 /home/leon/git/swp-report/iMX6_Platform_SDK/output/mx6sl/lib/libsdk.a(mx6x_usb.o)
                                0x3df (size before relaxing)
 .debug_str     0x0000ec17       0xbc /home/leon/git/swp-report/iMX6_Platform_SDK/output/mx6sl/lib/libsdk.a(abort_handler.o)
                                0x1a1 (size before relaxing)
 .debug_str     0x0000ecd3       0xd2 /home/leon/git/swp-report/iMX6_Platform_SDK/output/mx6sl/lib/libboard_evk_rev_a.a(board_audio.o)
                                0x176 (size before relaxing)
 .debug_str     0x0000eda5      0x190 /home/leon/git/swp-report/iMX6_Platform_SDK/output/mx6sl/lib/libboard_evk_rev_a.a(board_camera.o)
                                0x3db (size before relaxing)
 .debug_str     0x0000ef35      0x1fe /home/leon/git/swp-report/iMX6_Platform_SDK/output/mx6sl/lib/libboard_evk_rev_a.a(board_display.o)
                                0x62e (size before relaxing)
 .debug_str     0x0000f133       0x48 /home/leon/git/swp-report/iMX6_Platform_SDK/output/mx6sl/lib/libboard_evk_rev_a.a(board_i2c.o)
                                0x1fc (size before relaxing)
 .debug_str     0x0000f17b       0x67 /home/leon/git/swp-report/iMX6_Platform_SDK/output/mx6sl/lib/libboard_evk_rev_a.a(board_io_expanders.o)
                                0x147 (size before relaxing)
 .debug_str     0x0000f1e2      0x24e /home/leon/git/swp-report/iMX6_Platform_SDK/output/mx6sl/lib/libboard_evk_rev_a.a(board_usb.o)
                                0x3ef (size before relaxing)
 .debug_str     0x0000f430       0x86 /home/leon/git/swp-report/iMX6_Platform_SDK/output/mx6sl/lib/libboard_evk_rev_a.a(board_usdhc.o)
                                0x246 (size before relaxing)
 .debug_str     0x0000f4b6       0xa9 /home/leon/git/swp-report/iMX6_Platform_SDK/output/mx6sl/lib/libboard_evk_rev_a.a(dcd.o)
                                0x158 (size before relaxing)
 .debug_str     0x0000f55f      0x6ac /home/leon/git/swp-report/iMX6_Platform_SDK/output/mx6sl/lib/libboard_evk_rev_a.a(audmux_iomux_config.o)
                                0x733 (size before relaxing)
 .debug_str     0x0000fc0b       0x4f /home/leon/git/swp-report/iMX6_Platform_SDK/output/mx6sl/lib/libboard_evk_rev_a.a(hardware_modules.o)
                                0x158 (size before relaxing)
 .debug_str     0x0000fc5a     0x15c1 /home/leon/git/swp-report/iMX6_Platform_SDK/output/mx6sl/lib/libboard_evk_rev_a.a(csi_iomux_config.o)
                               0x16bf (size before relaxing)
 .debug_str     0x0001121b       0xac /home/leon/git/swp-report/iMX6_Platform_SDK/output/mx6sl/lib/libboard_evk_rev_a.a(ecspi_iomux_config.o)
                                0x162 (size before relaxing)
 .debug_str     0x000112c7     0x191d /home/leon/git/swp-report/iMX6_Platform_SDK/output/mx6sl/lib/libboard_evk_rev_a.a(epdc_iomux_config.o)
                               0x28fc (size before relaxing)
 .debug_str     0x00012be4      0xcee /home/leon/git/swp-report/iMX6_Platform_SDK/output/mx6sl/lib/libboard_evk_rev_a.a(fec_iomux_config.o)
                                0xd7b (size before relaxing)
 .debug_str     0x000138d2       0x66 /home/leon/git/swp-report/iMX6_Platform_SDK/output/mx6sl/lib/libboard_evk_rev_a.a(i2c_iomux_config.o)
                                0x15e (size before relaxing)
 .debug_str     0x00013938      0x233 /home/leon/git/swp-report/iMX6_Platform_SDK/output/mx6sl/lib/libboard_evk_rev_a.a(iomux_config.o)
                                0x24c (size before relaxing)
 .debug_str     0x00013b6b      0xb16 /home/leon/git/swp-report/iMX6_Platform_SDK/output/mx6sl/lib/libboard_evk_rev_a.a(kpp_iomux_config.o)
                                0xba3 (size before relaxing)
 .debug_str     0x00014681     0x2734 /home/leon/git/swp-report/iMX6_Platform_SDK/output/mx6sl/lib/libboard_evk_rev_a.a(lcd_iomux_config.o)
                               0x27c1 (size before relaxing)
 .debug_str     0x00016db5     0x17df /home/leon/git/swp-report/iMX6_Platform_SDK/output/mx6sl/lib/libboard_evk_rev_a.a(mmdc_iomux_config.o)
                               0x1852 (size before relaxing)
 .debug_str     0x00018594      0x138 /home/leon/git/swp-report/iMX6_Platform_SDK/output/mx6sl/lib/libboard_evk_rev_a.a(pwm1_iomux_config.o)
                                0x1bf (size before relaxing)
 .debug_str     0x000186cc      0x324 /home/leon/git/swp-report/iMX6_Platform_SDK/output/mx6sl/lib/libboard_evk_rev_a.a(sjc_iomux_config.o)
                                0x39d (size before relaxing)
 .debug_str     0x000189f0       0x68 /home/leon/git/swp-report/iMX6_Platform_SDK/output/mx6sl/lib/libboard_evk_rev_a.a(spdc_iomux_config.o)
                               0x1041 (size before relaxing)
 .debug_str     0x00018a58      0x2d2 /home/leon/git/swp-report/iMX6_Platform_SDK/output/mx6sl/lib/libboard_evk_rev_a.a(uart1_iomux_config.o)
                                0x35f (size before relaxing)
 .debug_str     0x00018d2a       0x68 /home/leon/git/swp-report/iMX6_Platform_SDK/output/mx6sl/lib/libboard_evk_rev_a.a(uart_iomux_config.o)
                                0x160 (size before relaxing)
 .debug_str     0x00018d92      0x357 /home/leon/git/swp-report/iMX6_Platform_SDK/output/mx6sl/lib/libboard_evk_rev_a.a(usb_iomux_config.o)
                                0x5cc (size before relaxing)
 .debug_str     0x000190e9      0xc6d /home/leon/git/swp-report/iMX6_Platform_SDK/output/mx6sl/lib/libboard_evk_rev_a.a(usdhc1_iomux_config.o)
                                0xcfa (size before relaxing)
 .debug_str     0x00019d56      0x9af /home/leon/git/swp-report/iMX6_Platform_SDK/output/mx6sl/lib/libboard_evk_rev_a.a(usdhc2_iomux_config.o)
                                0xa3c (size before relaxing)
 .debug_str     0x0001a705      0x765 /home/leon/git/swp-report/iMX6_Platform_SDK/output/mx6sl/lib/libboard_evk_rev_a.a(usdhc3_iomux_config.o)
                                0x7f2 (size before relaxing)
 .debug_str     0x0001ae6a       0x6a /home/leon/git/swp-report/iMX6_Platform_SDK/output/mx6sl/lib/libboard_evk_rev_a.a(usdhc_iomux_config.o)
                                0x162 (size before relaxing)
 .debug_str     0x0001aed4      0x146 /home/leon/git/swp-report/iMX6_Platform_SDK/output/mx6sl/lib/libboard_evk_rev_a.a(wdog1_iomux_config.o)
                                0x1cd (size before relaxing)
 .debug_str     0x0001b01a      0x63c /home/leon/git/swp-report/iMX6_Platform_SDK/output/mx6sl/lib/libboard_evk_rev_a.a(ecspi1_iomux_config.o)
                                0x6c9 (size before relaxing)
 .debug_str     0x0001b656      0x63c /home/leon/git/swp-report/iMX6_Platform_SDK/output/mx6sl/lib/libboard_evk_rev_a.a(ecspi2_iomux_config.o)
                                0x6c9 (size before relaxing)
 .debug_str     0x0001bc92       0x6a /home/leon/git/swp-report/iMX6_Platform_SDK/output/mx6sl/lib/libboard_evk_rev_a.a(gpio1_iomux_config.o)
                                 0xad (size before relaxing)
 .debug_str     0x0001bcfc       0x6a /home/leon/git/swp-report/iMX6_Platform_SDK/output/mx6sl/lib/libboard_evk_rev_a.a(gpio4_iomux_config.o)
                                 0xad (size before relaxing)
 .debug_str     0x0001bd66      0x326 /home/leon/git/swp-report/iMX6_Platform_SDK/output/mx6sl/lib/libboard_evk_rev_a.a(i2c1_iomux_config.o)
                                0x3b3 (size before relaxing)
 .debug_str     0x0001c08c      0x326 /home/leon/git/swp-report/iMX6_Platform_SDK/output/mx6sl/lib/libboard_evk_rev_a.a(i2c2_iomux_config.o)
                                0x3b3 (size before relaxing)
 .debug_str     0x0001c3b2      0x156 /home/leon/git/swp-report/iMX6_Platform_SDK/output/mx6sl/lib/libboard_evk_rev_a.a(i2c3_iomux_config.o)
                                0x3cb (size before relaxing)
 .debug_str     0x0001c508      0x210 /home/leon/git/swp-report/iMX6_Platform_SDK/output/mx6sl/lib/libsdk.a(runtime_support.o)
                                0x3ac (size before relaxing)

.debug_loc      0x00000000     0x6904
 .debug_loc     0x00000000       0x2c /home/leon/git/swp-report/iMX6_Platform_SDK/output/mx6sl/obds/evk_rev_a/obj/apps/common/platform_init.o
 .debug_loc     0x0000002c       0x58 /home/leon/git/swp-report/iMX6_Platform_SDK/output/mx6sl/obds/evk_rev_a/obj/apps/common/print_clock_info.o
 .debug_loc     0x00000084       0x2c /home/leon/git/swp-report/iMX6_Platform_SDK/output/mx6sl/obds/evk_rev_a/obj/apps/common/print_version.o
 .debug_loc     0x000000b0      0x210 /home/leon/git/swp-report/iMX6_Platform_SDK/output/mx6sl/obds/evk_rev_a/obj/apps/obds/src/obds.o
 .debug_loc     0x000002c0       0x2c /home/leon/git/swp-report/iMX6_Platform_SDK/output/mx6sl/obds/evk_rev_a/obj/apps/obds/src/obds_utils.o
 .debug_loc     0x000002ec       0x58 /home/leon/git/swp-report/iMX6_Platform_SDK/output/mx6sl/obds/evk_rev_a/obj/apps/obds/src/tests/audio_ssi_test.o
 .debug_loc     0x00000344       0x58 /home/leon/git/swp-report/iMX6_Platform_SDK/output/mx6sl/obds/evk_rev_a/obj/apps/obds/src/tests/ddr_test.o
 .debug_loc     0x0000039c       0x2c /home/leon/git/swp-report/iMX6_Platform_SDK/output/mx6sl/obds/evk_rev_a/obj/apps/obds/src/tests/flexcan_test.o
 .debug_loc     0x000003c8       0x2c /home/leon/git/swp-report/iMX6_Platform_SDK/output/mx6sl/obds/evk_rev_a/obj/apps/obds/src/tests/gpio_led.o
 .debug_loc     0x000003f4       0x2c /home/leon/git/swp-report/iMX6_Platform_SDK/output/mx6sl/obds/evk_rev_a/obj/apps/obds/src/tests/gps_test.o
 .debug_loc     0x00000420      0x108 /home/leon/git/swp-report/iMX6_Platform_SDK/output/mx6sl/obds/evk_rev_a/obj/apps/obds/src/tests/i2c_check_light_sensor_isl29023.o
 .debug_loc     0x00000528       0xb0 /home/leon/git/swp-report/iMX6_Platform_SDK/output/mx6sl/obds/evk_rev_a/obj/apps/obds/src/tests/i2c_device_barometer_ppl3115.o
 .debug_loc     0x000005d8       0x58 /home/leon/git/swp-report/iMX6_Platform_SDK/output/mx6sl/obds/evk_rev_a/obj/apps/obds/src/tests/i2c_device_digital_compass_mag3110.o
 .debug_loc     0x00000630       0x58 /home/leon/git/swp-report/iMX6_Platform_SDK/output/mx6sl/obds/evk_rev_a/obj/apps/obds/src/tests/i2c_device_digital_compass_mag3112.o
 .debug_loc     0x00000688      0x108 /home/leon/git/swp-report/iMX6_Platform_SDK/output/mx6sl/obds/evk_rev_a/obj/apps/obds/src/tests/i2c_device_id_check_mma8450.o
 .debug_loc     0x00000790      0x108 /home/leon/git/swp-report/iMX6_Platform_SDK/output/mx6sl/obds/evk_rev_a/obj/apps/obds/src/tests/i2c_device_id_check_mma8451.o
 .debug_loc     0x00000898      0x134 /home/leon/git/swp-report/iMX6_Platform_SDK/output/mx6sl/obds/evk_rev_a/obj/apps/obds/src/tests/i2c_device_temp_sensor_emc1046.o
 .debug_loc     0x000009cc       0xb0 /home/leon/git/swp-report/iMX6_Platform_SDK/output/mx6sl/obds/evk_rev_a/obj/apps/obds/src/tests/i2c_device_zigbee_mc1323.o
 .debug_loc     0x00000a7c       0x84 /home/leon/git/swp-report/iMX6_Platform_SDK/output/mx6sl/obds/evk_rev_a/obj/apps/obds/src/tests/i2c_eeprom_at24cxx_test.o
 .debug_loc     0x00000b00       0xdc /home/leon/git/swp-report/iMX6_Platform_SDK/output/mx6sl/obds/evk_rev_a/obj/apps/obds/src/tests/imx_spi_nor_test.o
 .debug_loc     0x00000bdc      0x294 /home/leon/git/swp-report/iMX6_Platform_SDK/output/mx6sl/obds/evk_rev_a/obj/apps/obds/src/tests/keyboard_test.o
 .debug_loc     0x00000e70       0x2c /home/leon/git/swp-report/iMX6_Platform_SDK/output/mx6sl/obds/evk_rev_a/obj/apps/obds/src/tests/mmcsd_test.o
 .debug_loc     0x00000e9c       0xb0 /home/leon/git/swp-report/iMX6_Platform_SDK/output/mx6sl/obds/evk_rev_a/obj/apps/obds/src/tests/pmic_da9053.o
 .debug_loc     0x00000f4c      0x160 /home/leon/git/swp-report/iMX6_Platform_SDK/output/mx6sl/obds/evk_rev_a/obj/apps/obds/src/tests/pmic_lt3589.o
 .debug_loc     0x000010ac       0xb0 /home/leon/git/swp-report/iMX6_Platform_SDK/output/mx6sl/obds/evk_rev_a/obj/apps/obds/src/tests/pmic_max17135.o
 .debug_loc     0x0000115c      0x108 /home/leon/git/swp-report/iMX6_Platform_SDK/output/mx6sl/obds/evk_rev_a/obj/apps/obds/src/tests/pmic_mc13892.o
 .debug_loc     0x00001264       0x84 /home/leon/git/swp-report/iMX6_Platform_SDK/output/mx6sl/obds/evk_rev_a/obj/apps/obds/src/tests/program_board_id.o
 .debug_loc     0x000012e8       0xdc /home/leon/git/swp-report/iMX6_Platform_SDK/output/mx6sl/obds/evk_rev_a/obj/apps/obds/src/tests/program_mac_address.o
 .debug_loc     0x000013c4       0x2c /home/leon/git/swp-report/iMX6_Platform_SDK/output/mx6sl/obds/evk_rev_a/obj/apps/obds/src/tests/snvs_srtc_test.o
 .debug_loc     0x000013f0      0x134 /home/leon/git/swp-report/iMX6_Platform_SDK/output/mx6sl/obds/evk_rev_a/obj/apps/obds/src/tests/touch_screen.o
 .debug_loc     0x00001524      0x18c /home/leon/git/swp-report/iMX6_Platform_SDK/output/mx6sl/obds/evk_rev_a/obj/apps/obds/src/tests/touch_screen_max11801.o
 .debug_loc     0x000016b0       0x84 /home/leon/git/swp-report/iMX6_Platform_SDK/output/mx6sl/obds/evk_rev_a/obj/apps/obds/src/tests/usb_tests_obds.o
 .debug_loc     0x00001734       0xb0 /home/leon/git/swp-report/iMX6_Platform_SDK/output/mx6sl/obds/evk_rev_a/obj/apps/obds/src/tests/weim_nor_flash_test.o
 .debug_loc     0x000017e4      0x18c /home/leon/git/swp-report/iMX6_Platform_SDK/output/mx6sl/obds/evk_rev_a/obj/sdk/common/pmic/pfuse/pf0100.o
 .debug_loc     0x00001970      0x108 /home/leon/git/swp-report/iMX6_Platform_SDK/output/mx6sl/obds/evk_rev_a/obj/sdk/drivers/audio/src/snd_card.o
 .debug_loc     0x00001a78       0x2c /home/leon/git/swp-report/iMX6_Platform_SDK/output/mx6sl/obds/evk_rev_a/obj/sdk/drivers/camera/test/camera_test.o
 .debug_loc     0x00001aa4       0x2c /home/leon/git/swp-report/iMX6_Platform_SDK/output/mx6sl/obds/evk_rev_a/obj/sdk/drivers/camera/test/csi_sensor_capture.o
 .debug_loc     0x00001ad0      0x108 /home/leon/git/swp-report/iMX6_Platform_SDK/output/mx6sl/obds/evk_rev_a/obj/sdk/drivers/epdc/test/epdc_test.o
 .debug_loc     0x00001bd8       0xb0 /home/leon/git/swp-report/iMX6_Platform_SDK/output/mx6sl/obds/evk_rev_a/obj/sdk/drivers/fec/test/fec_test.o
 .debug_loc     0x00001c88       0x2c /home/leon/git/swp-report/iMX6_Platform_SDK/output/mx6sl/obds/evk_rev_a/obj/sdk/drivers/lcdif/test/lcdif_display.o
 .debug_loc     0x00001cb4      0x134 /home/leon/git/swp-report/iMX6_Platform_SDK/output/mx6sl/obds/evk_rev_a/obj/sdk/drivers/spi/test/imx_spi_nor_atmel.o
 .debug_loc     0x00001de8      0x160 /home/leon/git/swp-report/iMX6_Platform_SDK/output/mx6sl/obds/evk_rev_a/obj/sdk/drivers/spi/test/spi_nor_numonyx.o
 .debug_loc     0x00001f48       0x58 /home/leon/git/swp-report/iMX6_Platform_SDK/output/mx6sl/obds/evk_rev_a/obj/sdk/drivers/uart/test/uart_test.o
 .debug_loc     0x00001fa0      0x160 /home/leon/git/swp-report/iMX6_Platform_SDK/output/mx6sl/obds/evk_rev_a/obj/sdk/drivers/usb/test/usb0_host_test.o
 .debug_loc     0x00002100       0x2c /home/leon/git/swp-report/iMX6_Platform_SDK/output/mx6sl/obds/evk_rev_a/obj/sdk/drivers/usb/test/usb0_host_testmodes_test.o
 .debug_loc     0x0000212c      0x1e4 /home/leon/git/swp-report/iMX6_Platform_SDK/output/mx6sl/obds/evk_rev_a/obj/sdk/drivers/usdhc/test/usdhc_test.o
 .debug_loc     0x00002310      0x134 /home/leon/git/swp-report/iMX6_Platform_SDK/output/mx6sl/lib/libsdk.a(ccm_pll.o)
 .debug_loc     0x00002444      0x2ec /home/leon/git/swp-report/iMX6_Platform_SDK/output/mx6sl/lib/libsdk.a(gic.o)
 .debug_loc     0x00002730       0xdc /home/leon/git/swp-report/iMX6_Platform_SDK/output/mx6sl/lib/libsdk.a(mmu.o)
 .debug_loc     0x0000280c      0x1e4 /home/leon/git/swp-report/iMX6_Platform_SDK/output/mx6sl/lib/libsdk.a(menu.o)
 .debug_loc     0x000029f0      0x108 /home/leon/git/swp-report/iMX6_Platform_SDK/output/mx6sl/lib/libsdk.a(system_util.o)
 .debug_loc     0x00002af8       0x58 /home/leon/git/swp-report/iMX6_Platform_SDK/output/mx6sl/lib/libsdk.a(text_color.o)
 .debug_loc     0x00002b50      0x1e4 /home/leon/git/swp-report/iMX6_Platform_SDK/output/mx6sl/lib/libsdk.a(imx-ssi.o)
 .debug_loc     0x00002d34       0x84 /home/leon/git/swp-report/iMX6_Platform_SDK/output/mx6sl/lib/libsdk.a(imx_audmux.o)
 .debug_loc     0x00002db8      0x160 /home/leon/git/swp-report/iMX6_Platform_SDK/output/mx6sl/lib/libsdk.a(imx_spdif.o)
 .debug_loc     0x00002f18      0x1b8 /home/leon/git/swp-report/iMX6_Platform_SDK/output/mx6sl/lib/libsdk.a(wm8962.o)
 .debug_loc     0x000030d0      0x134 /home/leon/git/swp-report/iMX6_Platform_SDK/output/mx6sl/lib/libsdk.a(board_id.o)
 .debug_loc     0x00003204       0xb0 /home/leon/git/swp-report/iMX6_Platform_SDK/output/mx6sl/lib/libsdk.a(csi_drv.o)
 .debug_loc     0x000032b4      0x1b8 /home/leon/git/swp-report/iMX6_Platform_SDK/output/mx6sl/lib/libsdk.a(smd_sensor.o)
 .debug_loc     0x0000346c      0x4d0 /home/leon/git/swp-report/iMX6_Platform_SDK/output/mx6sl/lib/libsdk.a(mxc_epdc.o)
 .debug_loc     0x0000393c      0x2c0 /home/leon/git/swp-report/iMX6_Platform_SDK/output/mx6sl/lib/libsdk.a(fec_drv.o)
 .debug_loc     0x00003bfc      0x1e4 /home/leon/git/swp-report/iMX6_Platform_SDK/output/mx6sl/lib/libsdk.a(gpio.o)
 .debug_loc     0x00003de0      0x268 /home/leon/git/swp-report/iMX6_Platform_SDK/output/mx6sl/lib/libsdk.a(imx_i2c.o)
 .debug_loc     0x00004048      0x160 /home/leon/git/swp-report/iMX6_Platform_SDK/output/mx6sl/lib/libsdk.a(lcdif_drv.o)
 .debug_loc     0x000041a8       0xdc /home/leon/git/swp-report/iMX6_Platform_SDK/output/mx6sl/lib/libsdk.a(pxp_drv.o)
 .debug_loc     0x00004284      0x134 /home/leon/git/swp-report/iMX6_Platform_SDK/output/mx6sl/lib/libsdk.a(ocotp.o)
 .debug_loc     0x000043b8      0x134 /home/leon/git/swp-report/iMX6_Platform_SDK/output/mx6sl/lib/libsdk.a(ecspi.o)
 .debug_loc     0x000044ec       0xb0 /home/leon/git/swp-report/iMX6_Platform_SDK/output/mx6sl/lib/libsdk.a(timer.o)
 .debug_loc     0x0000459c      0x134 /home/leon/git/swp-report/iMX6_Platform_SDK/output/mx6sl/lib/libsdk.a(imx_uart.o)
 .debug_loc     0x000046d0       0x84 /home/leon/git/swp-report/iMX6_Platform_SDK/output/mx6sl/lib/libsdk.a(usb_common.o)
 .debug_loc     0x00004754      0x160 /home/leon/git/swp-report/iMX6_Platform_SDK/output/mx6sl/lib/libsdk.a(usbh_drv.o)
 .debug_loc     0x000048b4      0x318 /home/leon/git/swp-report/iMX6_Platform_SDK/output/mx6sl/lib/libsdk.a(usdhc.o)
 .debug_loc     0x00004bcc      0x44c /home/leon/git/swp-report/iMX6_Platform_SDK/output/mx6sl/lib/libsdk.a(usdhc_host.o)
 .debug_loc     0x00005018      0x23c /home/leon/git/swp-report/iMX6_Platform_SDK/output/mx6sl/lib/libsdk.a(usdhc_mmc.o)
 .debug_loc     0x00005254       0xb0 /home/leon/git/swp-report/iMX6_Platform_SDK/output/mx6sl/lib/libsdk.a(usdhc_sd.o)
 .debug_loc     0x00005304      0x2c0 /home/leon/git/swp-report/iMX6_Platform_SDK/output/mx6sl/lib/libsdk.a(armv7_cache.o)
 .debug_loc     0x000055c4       0xdc /home/leon/git/swp-report/iMX6_Platform_SDK/output/mx6sl/lib/libsdk.a(interrupt.o)
 .debug_loc     0x000056a0      0x160 /home/leon/git/swp-report/iMX6_Platform_SDK/output/mx6sl/lib/libsdk.a(epit.o)
 .debug_loc     0x00005800       0x58 /home/leon/git/swp-report/iMX6_Platform_SDK/output/mx6sl/lib/libsdk.a(mx6x_usb.o)
 .debug_loc     0x00005858       0x2c /home/leon/git/swp-report/iMX6_Platform_SDK/output/mx6sl/lib/libsdk.a(abort_handler.o)
 .debug_loc     0x00005884       0xb0 /home/leon/git/swp-report/iMX6_Platform_SDK/output/mx6sl/lib/libboard_evk_rev_a.a(board_audio.o)
 .debug_loc     0x00005934       0xb0 /home/leon/git/swp-report/iMX6_Platform_SDK/output/mx6sl/lib/libboard_evk_rev_a.a(board_camera.o)
 .debug_loc     0x000059e4      0x134 /home/leon/git/swp-report/iMX6_Platform_SDK/output/mx6sl/lib/libboard_evk_rev_a.a(board_display.o)
 .debug_loc     0x00005b18       0x2c /home/leon/git/swp-report/iMX6_Platform_SDK/output/mx6sl/lib/libboard_evk_rev_a.a(board_io_expanders.o)
 .debug_loc     0x00005b44       0x84 /home/leon/git/swp-report/iMX6_Platform_SDK/output/mx6sl/lib/libboard_evk_rev_a.a(board_usb.o)
 .debug_loc     0x00005bc8       0x84 /home/leon/git/swp-report/iMX6_Platform_SDK/output/mx6sl/lib/libboard_evk_rev_a.a(board_usdhc.o)
 .debug_loc     0x00005c4c       0x2c /home/leon/git/swp-report/iMX6_Platform_SDK/output/mx6sl/lib/libboard_evk_rev_a.a(audmux_iomux_config.o)
 .debug_loc     0x00005c78       0x2c /home/leon/git/swp-report/iMX6_Platform_SDK/output/mx6sl/lib/libboard_evk_rev_a.a(csi_iomux_config.o)
 .debug_loc     0x00005ca4       0x2c /home/leon/git/swp-report/iMX6_Platform_SDK/output/mx6sl/lib/libboard_evk_rev_a.a(ecspi_iomux_config.o)
 .debug_loc     0x00005cd0       0x2c /home/leon/git/swp-report/iMX6_Platform_SDK/output/mx6sl/lib/libboard_evk_rev_a.a(epdc_iomux_config.o)
 .debug_loc     0x00005cfc       0x2c /home/leon/git/swp-report/iMX6_Platform_SDK/output/mx6sl/lib/libboard_evk_rev_a.a(fec_iomux_config.o)
 .debug_loc     0x00005d28       0x2c /home/leon/git/swp-report/iMX6_Platform_SDK/output/mx6sl/lib/libboard_evk_rev_a.a(i2c_iomux_config.o)
 .debug_loc     0x00005d54      0x4a4 /home/leon/git/swp-report/iMX6_Platform_SDK/output/mx6sl/lib/libboard_evk_rev_a.a(iomux_config.o)
 .debug_loc     0x000061f8       0x2c /home/leon/git/swp-report/iMX6_Platform_SDK/output/mx6sl/lib/libboard_evk_rev_a.a(kpp_iomux_config.o)
 .debug_loc     0x00006224       0x2c /home/leon/git/swp-report/iMX6_Platform_SDK/output/mx6sl/lib/libboard_evk_rev_a.a(lcd_iomux_config.o)
 .debug_loc     0x00006250       0x2c /home/leon/git/swp-report/iMX6_Platform_SDK/output/mx6sl/lib/libboard_evk_rev_a.a(mmdc_iomux_config.o)
 .debug_loc     0x0000627c       0x2c /home/leon/git/swp-report/iMX6_Platform_SDK/output/mx6sl/lib/libboard_evk_rev_a.a(pwm1_iomux_config.o)
 .debug_loc     0x000062a8       0x2c /home/leon/git/swp-report/iMX6_Platform_SDK/output/mx6sl/lib/libboard_evk_rev_a.a(sjc_iomux_config.o)
 .debug_loc     0x000062d4       0x2c /home/leon/git/swp-report/iMX6_Platform_SDK/output/mx6sl/lib/libboard_evk_rev_a.a(spdc_iomux_config.o)
 .debug_loc     0x00006300       0x2c /home/leon/git/swp-report/iMX6_Platform_SDK/output/mx6sl/lib/libboard_evk_rev_a.a(uart1_iomux_config.o)
 .debug_loc     0x0000632c       0x2c /home/leon/git/swp-report/iMX6_Platform_SDK/output/mx6sl/lib/libboard_evk_rev_a.a(uart_iomux_config.o)
 .debug_loc     0x00006358       0x2c /home/leon/git/swp-report/iMX6_Platform_SDK/output/mx6sl/lib/libboard_evk_rev_a.a(usb_iomux_config.o)
 .debug_loc     0x00006384       0x2c /home/leon/git/swp-report/iMX6_Platform_SDK/output/mx6sl/lib/libboard_evk_rev_a.a(usdhc1_iomux_config.o)
 .debug_loc     0x000063b0       0x2c /home/leon/git/swp-report/iMX6_Platform_SDK/output/mx6sl/lib/libboard_evk_rev_a.a(usdhc2_iomux_config.o)
 .debug_loc     0x000063dc       0x2c /home/leon/git/swp-report/iMX6_Platform_SDK/output/mx6sl/lib/libboard_evk_rev_a.a(usdhc3_iomux_config.o)
 .debug_loc     0x00006408       0x2c /home/leon/git/swp-report/iMX6_Platform_SDK/output/mx6sl/lib/libboard_evk_rev_a.a(usdhc_iomux_config.o)
 .debug_loc     0x00006434       0x2c /home/leon/git/swp-report/iMX6_Platform_SDK/output/mx6sl/lib/libboard_evk_rev_a.a(wdog1_iomux_config.o)
 .debug_loc     0x00006460       0x2c /home/leon/git/swp-report/iMX6_Platform_SDK/output/mx6sl/lib/libboard_evk_rev_a.a(ecspi1_iomux_config.o)
 .debug_loc     0x0000648c       0x2c /home/leon/git/swp-report/iMX6_Platform_SDK/output/mx6sl/lib/libboard_evk_rev_a.a(ecspi2_iomux_config.o)
 .debug_loc     0x000064b8       0x2c /home/leon/git/swp-report/iMX6_Platform_SDK/output/mx6sl/lib/libboard_evk_rev_a.a(gpio1_iomux_config.o)
 .debug_loc     0x000064e4       0x2c /home/leon/git/swp-report/iMX6_Platform_SDK/output/mx6sl/lib/libboard_evk_rev_a.a(gpio4_iomux_config.o)
 .debug_loc     0x00006510       0x2c /home/leon/git/swp-report/iMX6_Platform_SDK/output/mx6sl/lib/libboard_evk_rev_a.a(i2c1_iomux_config.o)
 .debug_loc     0x0000653c       0x2c /home/leon/git/swp-report/iMX6_Platform_SDK/output/mx6sl/lib/libboard_evk_rev_a.a(i2c2_iomux_config.o)
 .debug_loc     0x00006568       0x2c /home/leon/git/swp-report/iMX6_Platform_SDK/output/mx6sl/lib/libboard_evk_rev_a.a(i2c3_iomux_config.o)
 .debug_loc     0x00006594      0x370 /home/leon/git/swp-report/iMX6_Platform_SDK/output/mx6sl/lib/libsdk.a(runtime_support.o)

.debug_frame    0x00000000     0x66e8
 .debug_frame   0x00000000       0x30 /home/leon/git/swp-report/iMX6_Platform_SDK/output/mx6sl/obds/evk_rev_a/obj/apps/common/platform_init.o
 .debug_frame   0x00000030       0x50 /home/leon/git/swp-report/iMX6_Platform_SDK/output/mx6sl/obds/evk_rev_a/obj/apps/common/print_clock_info.o
 .debug_frame   0x00000080       0x30 /home/leon/git/swp-report/iMX6_Platform_SDK/output/mx6sl/obds/evk_rev_a/obj/apps/common/print_version.o
 .debug_frame   0x000000b0      0x198 /home/leon/git/swp-report/iMX6_Platform_SDK/output/mx6sl/obds/evk_rev_a/obj/apps/obds/src/obds.o
 .debug_frame   0x00000248       0x30 /home/leon/git/swp-report/iMX6_Platform_SDK/output/mx6sl/obds/evk_rev_a/obj/apps/obds/src/obds_utils.o
 .debug_frame   0x00000278       0x50 /home/leon/git/swp-report/iMX6_Platform_SDK/output/mx6sl/obds/evk_rev_a/obj/apps/obds/src/tests/audio_ssi_test.o
 .debug_frame   0x000002c8       0x50 /home/leon/git/swp-report/iMX6_Platform_SDK/output/mx6sl/obds/evk_rev_a/obj/apps/obds/src/tests/ddr_test.o
 .debug_frame   0x00000318       0x30 /home/leon/git/swp-report/iMX6_Platform_SDK/output/mx6sl/obds/evk_rev_a/obj/apps/obds/src/tests/flexcan_test.o
 .debug_frame   0x00000348       0x30 /home/leon/git/swp-report/iMX6_Platform_SDK/output/mx6sl/obds/evk_rev_a/obj/apps/obds/src/tests/gpio_led.o
 .debug_frame   0x00000378       0x30 /home/leon/git/swp-report/iMX6_Platform_SDK/output/mx6sl/obds/evk_rev_a/obj/apps/obds/src/tests/gps_test.o
 .debug_frame   0x000003a8       0xd0 /home/leon/git/swp-report/iMX6_Platform_SDK/output/mx6sl/obds/evk_rev_a/obj/apps/obds/src/tests/i2c_check_light_sensor_isl29023.o
 .debug_frame   0x00000478       0x90 /home/leon/git/swp-report/iMX6_Platform_SDK/output/mx6sl/obds/evk_rev_a/obj/apps/obds/src/tests/i2c_device_barometer_ppl3115.o
 .debug_frame   0x00000508       0x50 /home/leon/git/swp-report/iMX6_Platform_SDK/output/mx6sl/obds/evk_rev_a/obj/apps/obds/src/tests/i2c_device_digital_compass_mag3110.o
 .debug_frame   0x00000558       0x50 /home/leon/git/swp-report/iMX6_Platform_SDK/output/mx6sl/obds/evk_rev_a/obj/apps/obds/src/tests/i2c_device_digital_compass_mag3112.o
 .debug_frame   0x000005a8       0xd0 /home/leon/git/swp-report/iMX6_Platform_SDK/output/mx6sl/obds/evk_rev_a/obj/apps/obds/src/tests/i2c_device_id_check_mma8450.o
 .debug_frame   0x00000678       0xd0 /home/leon/git/swp-report/iMX6_Platform_SDK/output/mx6sl/obds/evk_rev_a/obj/apps/obds/src/tests/i2c_device_id_check_mma8451.o
 .debug_frame   0x00000748       0xf0 /home/leon/git/swp-report/iMX6_Platform_SDK/output/mx6sl/obds/evk_rev_a/obj/apps/obds/src/tests/i2c_device_temp_sensor_emc1046.o
 .debug_frame   0x00000838       0x90 /home/leon/git/swp-report/iMX6_Platform_SDK/output/mx6sl/obds/evk_rev_a/obj/apps/obds/src/tests/i2c_device_zigbee_mc1323.o
 .debug_frame   0x000008c8       0x70 /home/leon/git/swp-report/iMX6_Platform_SDK/output/mx6sl/obds/evk_rev_a/obj/apps/obds/src/tests/i2c_eeprom_at24cxx_test.o
 .debug_frame   0x00000938       0xb0 /home/leon/git/swp-report/iMX6_Platform_SDK/output/mx6sl/obds/evk_rev_a/obj/apps/obds/src/tests/imx_spi_nor_test.o
 .debug_frame   0x000009e8      0x1f0 /home/leon/git/swp-report/iMX6_Platform_SDK/output/mx6sl/obds/evk_rev_a/obj/apps/obds/src/tests/keyboard_test.o
 .debug_frame   0x00000bd8       0x30 /home/leon/git/swp-report/iMX6_Platform_SDK/output/mx6sl/obds/evk_rev_a/obj/apps/obds/src/tests/mmcsd_test.o
 .debug_frame   0x00000c08       0x90 /home/leon/git/swp-report/iMX6_Platform_SDK/output/mx6sl/obds/evk_rev_a/obj/apps/obds/src/tests/pmic_da9053.o
 .debug_frame   0x00000c98      0x110 /home/leon/git/swp-report/iMX6_Platform_SDK/output/mx6sl/obds/evk_rev_a/obj/apps/obds/src/tests/pmic_lt3589.o
 .debug_frame   0x00000da8       0x90 /home/leon/git/swp-report/iMX6_Platform_SDK/output/mx6sl/obds/evk_rev_a/obj/apps/obds/src/tests/pmic_max17135.o
 .debug_frame   0x00000e38       0xd0 /home/leon/git/swp-report/iMX6_Platform_SDK/output/mx6sl/obds/evk_rev_a/obj/apps/obds/src/tests/pmic_mc13892.o
 .debug_frame   0x00000f08       0x78 /home/leon/git/swp-report/iMX6_Platform_SDK/output/mx6sl/obds/evk_rev_a/obj/apps/obds/src/tests/program_board_id.o
 .debug_frame   0x00000f80       0xb8 /home/leon/git/swp-report/iMX6_Platform_SDK/output/mx6sl/obds/evk_rev_a/obj/apps/obds/src/tests/program_mac_address.o
 .debug_frame   0x00001038       0x30 /home/leon/git/swp-report/iMX6_Platform_SDK/output/mx6sl/obds/evk_rev_a/obj/apps/obds/src/tests/snvs_srtc_test.o
 .debug_frame   0x00001068       0xf0 /home/leon/git/swp-report/iMX6_Platform_SDK/output/mx6sl/obds/evk_rev_a/obj/apps/obds/src/tests/touch_screen.o
 .debug_frame   0x00001158      0x130 /home/leon/git/swp-report/iMX6_Platform_SDK/output/mx6sl/obds/evk_rev_a/obj/apps/obds/src/tests/touch_screen_max11801.o
 .debug_frame   0x00001288       0x70 /home/leon/git/swp-report/iMX6_Platform_SDK/output/mx6sl/obds/evk_rev_a/obj/apps/obds/src/tests/usb_tests_obds.o
 .debug_frame   0x000012f8       0x90 /home/leon/git/swp-report/iMX6_Platform_SDK/output/mx6sl/obds/evk_rev_a/obj/apps/obds/src/tests/weim_nor_flash_test.o
 .debug_frame   0x00001388      0x130 /home/leon/git/swp-report/iMX6_Platform_SDK/output/mx6sl/obds/evk_rev_a/obj/sdk/common/pmic/pfuse/pf0100.o
 .debug_frame   0x000014b8       0xd0 /home/leon/git/swp-report/iMX6_Platform_SDK/output/mx6sl/obds/evk_rev_a/obj/sdk/drivers/audio/src/snd_card.o
 .debug_frame   0x00001588       0x30 /home/leon/git/swp-report/iMX6_Platform_SDK/output/mx6sl/obds/evk_rev_a/obj/sdk/drivers/camera/test/camera_test.o
 .debug_frame   0x000015b8       0x30 /home/leon/git/swp-report/iMX6_Platform_SDK/output/mx6sl/obds/evk_rev_a/obj/sdk/drivers/camera/test/csi_sensor_capture.o
 .debug_frame   0x000015e8       0xd0 /home/leon/git/swp-report/iMX6_Platform_SDK/output/mx6sl/obds/evk_rev_a/obj/sdk/drivers/epdc/test/epdc_test.o
 .debug_frame   0x000016b8       0x90 /home/leon/git/swp-report/iMX6_Platform_SDK/output/mx6sl/obds/evk_rev_a/obj/sdk/drivers/fec/test/fec_test.o
 .debug_frame   0x00001748       0x30 /home/leon/git/swp-report/iMX6_Platform_SDK/output/mx6sl/obds/evk_rev_a/obj/sdk/drivers/lcdif/test/lcdif_display.o
 .debug_frame   0x00001778       0xf0 /home/leon/git/swp-report/iMX6_Platform_SDK/output/mx6sl/obds/evk_rev_a/obj/sdk/drivers/spi/test/imx_spi_nor_atmel.o
 .debug_frame   0x00001868      0x110 /home/leon/git/swp-report/iMX6_Platform_SDK/output/mx6sl/obds/evk_rev_a/obj/sdk/drivers/spi/test/spi_nor_numonyx.o
 .debug_frame   0x00001978       0x50 /home/leon/git/swp-report/iMX6_Platform_SDK/output/mx6sl/obds/evk_rev_a/obj/sdk/drivers/uart/test/uart_test.o
 .debug_frame   0x000019c8      0x110 /home/leon/git/swp-report/iMX6_Platform_SDK/output/mx6sl/obds/evk_rev_a/obj/sdk/drivers/usb/test/usb0_host_test.o
 .debug_frame   0x00001ad8       0x30 /home/leon/git/swp-report/iMX6_Platform_SDK/output/mx6sl/obds/evk_rev_a/obj/sdk/drivers/usb/test/usb0_host_testmodes_test.o
 .debug_frame   0x00001b08      0x170 /home/leon/git/swp-report/iMX6_Platform_SDK/output/mx6sl/obds/evk_rev_a/obj/sdk/drivers/usdhc/test/usdhc_test.o
 .debug_frame   0x00001c78       0xf0 /home/leon/git/swp-report/iMX6_Platform_SDK/output/mx6sl/lib/libsdk.a(ccm_pll.o)
 .debug_frame   0x00001d68      0x230 /home/leon/git/swp-report/iMX6_Platform_SDK/output/mx6sl/lib/libsdk.a(gic.o)
 .debug_frame   0x00001f98       0xb0 /home/leon/git/swp-report/iMX6_Platform_SDK/output/mx6sl/lib/libsdk.a(mmu.o)
 .debug_frame   0x00002048      0x170 /home/leon/git/swp-report/iMX6_Platform_SDK/output/mx6sl/lib/libsdk.a(menu.o)
 .debug_frame   0x000021b8       0xe0 /home/leon/git/swp-report/iMX6_Platform_SDK/output/mx6sl/lib/libsdk.a(system_util.o)
 .debug_frame   0x00002298       0x54 /home/leon/git/swp-report/iMX6_Platform_SDK/output/mx6sl/lib/libsdk.a(text_color.o)
 .debug_frame   0x000022ec      0x170 /home/leon/git/swp-report/iMX6_Platform_SDK/output/mx6sl/lib/libsdk.a(imx-ssi.o)
 .debug_frame   0x0000245c       0x70 /home/leon/git/swp-report/iMX6_Platform_SDK/output/mx6sl/lib/libsdk.a(imx_audmux.o)
 .debug_frame   0x000024cc      0x110 /home/leon/git/swp-report/iMX6_Platform_SDK/output/mx6sl/lib/libsdk.a(imx_spdif.o)
 .debug_frame   0x000025dc      0x150 /home/leon/git/swp-report/iMX6_Platform_SDK/output/mx6sl/lib/libsdk.a(wm8962.o)
 .debug_frame   0x0000272c       0xf0 /home/leon/git/swp-report/iMX6_Platform_SDK/output/mx6sl/lib/libsdk.a(board_id.o)
 .debug_frame   0x0000281c       0x90 /home/leon/git/swp-report/iMX6_Platform_SDK/output/mx6sl/lib/libsdk.a(csi_drv.o)
 .debug_frame   0x000028ac      0x150 /home/leon/git/swp-report/iMX6_Platform_SDK/output/mx6sl/lib/libsdk.a(smd_sensor.o)
 .debug_frame   0x000029fc      0x390 /home/leon/git/swp-report/iMX6_Platform_SDK/output/mx6sl/lib/libsdk.a(mxc_epdc.o)
 .debug_frame   0x00002d8c      0x210 /home/leon/git/swp-report/iMX6_Platform_SDK/output/mx6sl/lib/libsdk.a(fec_drv.o)
 .debug_frame   0x00002f9c      0x178 /home/leon/git/swp-report/iMX6_Platform_SDK/output/mx6sl/lib/libsdk.a(gpio.o)
 .debug_frame   0x00003114      0x1d8 /home/leon/git/swp-report/iMX6_Platform_SDK/output/mx6sl/lib/libsdk.a(imx_i2c.o)
 .debug_frame   0x000032ec      0x110 /home/leon/git/swp-report/iMX6_Platform_SDK/output/mx6sl/lib/libsdk.a(lcdif_drv.o)
 .debug_frame   0x000033fc       0xb0 /home/leon/git/swp-report/iMX6_Platform_SDK/output/mx6sl/lib/libsdk.a(pxp_drv.o)
 .debug_frame   0x000034ac       0xf0 /home/leon/git/swp-report/iMX6_Platform_SDK/output/mx6sl/lib/libsdk.a(ocotp.o)
 .debug_frame   0x0000359c       0xf0 /home/leon/git/swp-report/iMX6_Platform_SDK/output/mx6sl/lib/libsdk.a(ecspi.o)
 .debug_frame   0x0000368c       0x94 /home/leon/git/swp-report/iMX6_Platform_SDK/output/mx6sl/lib/libsdk.a(timer.o)
 .debug_frame   0x00003720       0xf0 /home/leon/git/swp-report/iMX6_Platform_SDK/output/mx6sl/lib/libsdk.a(imx_uart.o)
 .debug_frame   0x00003810       0x70 /home/leon/git/swp-report/iMX6_Platform_SDK/output/mx6sl/lib/libsdk.a(usb_common.o)
 .debug_frame   0x00003880      0x110 /home/leon/git/swp-report/iMX6_Platform_SDK/output/mx6sl/lib/libsdk.a(usbh_drv.o)
 .debug_frame   0x00003990      0x250 /home/leon/git/swp-report/iMX6_Platform_SDK/output/mx6sl/lib/libsdk.a(usdhc.o)
 .debug_frame   0x00003be0      0x330 /home/leon/git/swp-report/iMX6_Platform_SDK/output/mx6sl/lib/libsdk.a(usdhc_host.o)
 .debug_frame   0x00003f10      0x1b0 /home/leon/git/swp-report/iMX6_Platform_SDK/output/mx6sl/lib/libsdk.a(usdhc_mmc.o)
 .debug_frame   0x000040c0       0x90 /home/leon/git/swp-report/iMX6_Platform_SDK/output/mx6sl/lib/libsdk.a(usdhc_sd.o)
 .debug_frame   0x00004150      0x210 /home/leon/git/swp-report/iMX6_Platform_SDK/output/mx6sl/lib/libsdk.a(armv7_cache.o)
 .debug_frame   0x00004360       0xb8 /home/leon/git/swp-report/iMX6_Platform_SDK/output/mx6sl/lib/libsdk.a(interrupt.o)
 .debug_frame   0x00004418      0x110 /home/leon/git/swp-report/iMX6_Platform_SDK/output/mx6sl/lib/libsdk.a(epit.o)
 .debug_frame   0x00004528       0x50 /home/leon/git/swp-report/iMX6_Platform_SDK/output/mx6sl/lib/libsdk.a(mx6x_usb.o)
 .debug_frame   0x00004578       0x38 /home/leon/git/swp-report/iMX6_Platform_SDK/output/mx6sl/lib/libsdk.a(abort_handler.o)
 .debug_frame   0x000045b0       0x90 /home/leon/git/swp-report/iMX6_Platform_SDK/output/mx6sl/lib/libboard_evk_rev_a.a(board_audio.o)
 .debug_frame   0x00004640       0x90 /home/leon/git/swp-report/iMX6_Platform_SDK/output/mx6sl/lib/libboard_evk_rev_a.a(board_camera.o)
 .debug_frame   0x000046d0       0xf0 /home/leon/git/swp-report/iMX6_Platform_SDK/output/mx6sl/lib/libboard_evk_rev_a.a(board_display.o)
 .debug_frame   0x000047c0       0x30 /home/leon/git/swp-report/iMX6_Platform_SDK/output/mx6sl/lib/libboard_evk_rev_a.a(board_io_expanders.o)
 .debug_frame   0x000047f0       0x70 /home/leon/git/swp-report/iMX6_Platform_SDK/output/mx6sl/lib/libboard_evk_rev_a.a(board_usb.o)
 .debug_frame   0x00004860       0x70 /home/leon/git/swp-report/iMX6_Platform_SDK/output/mx6sl/lib/libboard_evk_rev_a.a(board_usdhc.o)
 .debug_frame   0x000048d0       0x30 /home/leon/git/swp-report/iMX6_Platform_SDK/output/mx6sl/lib/libboard_evk_rev_a.a(audmux_iomux_config.o)
 .debug_frame   0x00004900       0x30 /home/leon/git/swp-report/iMX6_Platform_SDK/output/mx6sl/lib/libboard_evk_rev_a.a(csi_iomux_config.o)
 .debug_frame   0x00004930       0x30 /home/leon/git/swp-report/iMX6_Platform_SDK/output/mx6sl/lib/libboard_evk_rev_a.a(ecspi_iomux_config.o)
 .debug_frame   0x00004960       0x30 /home/leon/git/swp-report/iMX6_Platform_SDK/output/mx6sl/lib/libboard_evk_rev_a.a(epdc_iomux_config.o)
 .debug_frame   0x00004990       0x30 /home/leon/git/swp-report/iMX6_Platform_SDK/output/mx6sl/lib/libboard_evk_rev_a.a(fec_iomux_config.o)
 .debug_frame   0x000049c0       0x30 /home/leon/git/swp-report/iMX6_Platform_SDK/output/mx6sl/lib/libboard_evk_rev_a.a(i2c_iomux_config.o)
 .debug_frame   0x000049f0      0x370 /home/leon/git/swp-report/iMX6_Platform_SDK/output/mx6sl/lib/libboard_evk_rev_a.a(iomux_config.o)
 .debug_frame   0x00004d60       0x30 /home/leon/git/swp-report/iMX6_Platform_SDK/output/mx6sl/lib/libboard_evk_rev_a.a(kpp_iomux_config.o)
 .debug_frame   0x00004d90       0x30 /home/leon/git/swp-report/iMX6_Platform_SDK/output/mx6sl/lib/libboard_evk_rev_a.a(lcd_iomux_config.o)
 .debug_frame   0x00004dc0       0x30 /home/leon/git/swp-report/iMX6_Platform_SDK/output/mx6sl/lib/libboard_evk_rev_a.a(mmdc_iomux_config.o)
 .debug_frame   0x00004df0       0x30 /home/leon/git/swp-report/iMX6_Platform_SDK/output/mx6sl/lib/libboard_evk_rev_a.a(pwm1_iomux_config.o)
 .debug_frame   0x00004e20       0x30 /home/leon/git/swp-report/iMX6_Platform_SDK/output/mx6sl/lib/libboard_evk_rev_a.a(sjc_iomux_config.o)
 .debug_frame   0x00004e50       0x30 /home/leon/git/swp-report/iMX6_Platform_SDK/output/mx6sl/lib/libboard_evk_rev_a.a(spdc_iomux_config.o)
 .debug_frame   0x00004e80       0x30 /home/leon/git/swp-report/iMX6_Platform_SDK/output/mx6sl/lib/libboard_evk_rev_a.a(uart1_iomux_config.o)
 .debug_frame   0x00004eb0       0x30 /home/leon/git/swp-report/iMX6_Platform_SDK/output/mx6sl/lib/libboard_evk_rev_a.a(uart_iomux_config.o)
 .debug_frame   0x00004ee0       0x30 /home/leon/git/swp-report/iMX6_Platform_SDK/output/mx6sl/lib/libboard_evk_rev_a.a(usb_iomux_config.o)
 .debug_frame   0x00004f10       0x30 /home/leon/git/swp-report/iMX6_Platform_SDK/output/mx6sl/lib/libboard_evk_rev_a.a(usdhc1_iomux_config.o)
 .debug_frame   0x00004f40       0x30 /home/leon/git/swp-report/iMX6_Platform_SDK/output/mx6sl/lib/libboard_evk_rev_a.a(usdhc2_iomux_config.o)
 .debug_frame   0x00004f70       0x30 /home/leon/git/swp-report/iMX6_Platform_SDK/output/mx6sl/lib/libboard_evk_rev_a.a(usdhc3_iomux_config.o)
 .debug_frame   0x00004fa0       0x30 /home/leon/git/swp-report/iMX6_Platform_SDK/output/mx6sl/lib/libboard_evk_rev_a.a(usdhc_iomux_config.o)
 .debug_frame   0x00004fd0       0x30 /home/leon/git/swp-report/iMX6_Platform_SDK/output/mx6sl/lib/libboard_evk_rev_a.a(wdog1_iomux_config.o)
 .debug_frame   0x00005000       0x30 /home/leon/git/swp-report/iMX6_Platform_SDK/output/mx6sl/lib/libboard_evk_rev_a.a(ecspi1_iomux_config.o)
 .debug_frame   0x00005030       0x30 /home/leon/git/swp-report/iMX6_Platform_SDK/output/mx6sl/lib/libboard_evk_rev_a.a(ecspi2_iomux_config.o)
 .debug_frame   0x00005060       0x30 /home/leon/git/swp-report/iMX6_Platform_SDK/output/mx6sl/lib/libboard_evk_rev_a.a(gpio1_iomux_config.o)
 .debug_frame   0x00005090       0x30 /home/leon/git/swp-report/iMX6_Platform_SDK/output/mx6sl/lib/libboard_evk_rev_a.a(gpio4_iomux_config.o)
 .debug_frame   0x000050c0       0x30 /home/leon/git/swp-report/iMX6_Platform_SDK/output/mx6sl/lib/libboard_evk_rev_a.a(i2c1_iomux_config.o)
 .debug_frame   0x000050f0       0x30 /home/leon/git/swp-report/iMX6_Platform_SDK/output/mx6sl/lib/libboard_evk_rev_a.a(i2c2_iomux_config.o)
 .debug_frame   0x00005120       0x30 /home/leon/git/swp-report/iMX6_Platform_SDK/output/mx6sl/lib/libboard_evk_rev_a.a(i2c3_iomux_config.o)
 .debug_frame   0x00005150       0x40 /home/leon/riotboard/arm-2012.09/bin/../arm-none-eabi/lib//libc.a(lib_a-assert.o)
 .debug_frame   0x00005190       0x20 /home/leon/riotboard/arm-2012.09/bin/../arm-none-eabi/lib//libc.a(lib_a-bzero.o)
 .debug_frame   0x000051b0       0x54 /home/leon/riotboard/arm-2012.09/bin/../arm-none-eabi/lib//libc.a(lib_a-fiprintf.o)
 .debug_frame   0x00005204       0x48 /home/leon/riotboard/arm-2012.09/bin/../arm-none-eabi/lib//libc.a(lib_a-fputc.o)
 .debug_frame   0x0000524c       0x2c /home/leon/riotboard/arm-2012.09/bin/../arm-none-eabi/lib//libc.a(lib_a-init.o)
 .debug_frame   0x00005278       0x40 /home/leon/riotboard/arm-2012.09/bin/../arm-none-eabi/lib//libc.a(lib_a-malloc.o)
 .debug_frame   0x000052b8       0x38 /home/leon/riotboard/arm-2012.09/bin/../arm-none-eabi/lib//libc.a(lib_a-mallocr.o)
 .debug_frame   0x000052f0       0x30 /home/leon/riotboard/arm-2012.09/bin/../arm-none-eabi/lib//libc.a(lib_a-memcpy.o)
 .debug_frame   0x00005320       0x28 /home/leon/riotboard/arm-2012.09/bin/../arm-none-eabi/lib//libc.a(lib_a-memset.o)
 .debug_frame   0x00005348       0x30 /home/leon/riotboard/arm-2012.09/bin/../arm-none-eabi/lib//libc.a(lib_a-mlock.o)
 .debug_frame   0x00005378       0x58 /home/leon/riotboard/arm-2012.09/bin/../arm-none-eabi/lib//libc.a(lib_a-printf.o)
 .debug_frame   0x000053d0       0x48 /home/leon/riotboard/arm-2012.09/bin/../arm-none-eabi/lib//libc.a(lib_a-putc.o)
 .debug_frame   0x00005418       0x28 /home/leon/riotboard/arm-2012.09/bin/../arm-none-eabi/lib//libc.a(lib_a-realloc.o)
 .debug_frame   0x00005440       0x38 /home/leon/riotboard/arm-2012.09/bin/../arm-none-eabi/lib//libc.a(lib_a-reallocr.o)
 .debug_frame   0x00005478       0x3c /home/leon/riotboard/arm-2012.09/bin/../arm-none-eabi/lib//libc.a(lib_a-rget.o)
 .debug_frame   0x000054b4       0x2c /home/leon/riotboard/arm-2012.09/bin/../arm-none-eabi/lib//libc.a(lib_a-sbrkr.o)
 .debug_frame   0x000054e0       0x5c /home/leon/riotboard/arm-2012.09/bin/../arm-none-eabi/lib//libc.a(lib_a-sprintf.o)
 .debug_frame   0x0000553c       0x2c /home/leon/riotboard/arm-2012.09/bin/../arm-none-eabi/lib//libc.a(lib_a-strcat.o)
 .debug_frame   0x00005568       0x30 /home/leon/riotboard/arm-2012.09/bin/../arm-none-eabi/lib//libc.a(lib_a-strcmp.o)
 .debug_frame   0x00005598       0x20 /home/leon/riotboard/arm-2012.09/bin/../arm-none-eabi/lib//libc.a(lib_a-strcpy.o)
 .debug_frame   0x000055b8       0x20 /home/leon/riotboard/arm-2012.09/bin/../arm-none-eabi/lib//libc.a(lib_a-strlen.o)
 .debug_frame   0x000055d8       0x28 /home/leon/riotboard/arm-2012.09/bin/../arm-none-eabi/lib//libc.a(lib_a-strncasecmp.o)
 .debug_frame   0x00005600       0x28 /home/leon/riotboard/arm-2012.09/bin/../arm-none-eabi/lib//libc.a(lib_a-strtok.o)
 .debug_frame   0x00005628       0x3c /home/leon/riotboard/arm-2012.09/bin/../arm-none-eabi/lib//libc.a(lib_a-strtok_r.o)
 .debug_frame   0x00005664       0x3c /home/leon/riotboard/arm-2012.09/bin/../arm-none-eabi/lib//libc.a(lib_a-svfprintf.o)
 .debug_frame   0x000056a0       0x7c /home/leon/riotboard/arm-2012.09/bin/../arm-none-eabi/lib//libc.a(lib_a-vfiprintf.o)
 .debug_frame   0x0000571c       0x58 /home/leon/riotboard/arm-2012.09/bin/../arm-none-eabi/lib//libc.a(lib_a-vfprintf.o)
 .debug_frame   0x00005774       0x40 /home/leon/riotboard/arm-2012.09/bin/../arm-none-eabi/lib//libc.a(lib_a-vprintf.o)
 .debug_frame   0x000057b4       0x3c /home/leon/riotboard/arm-2012.09/bin/../arm-none-eabi/lib//libc.a(lib_a-wbuf.o)
 .debug_frame   0x000057f0       0x2c /home/leon/riotboard/arm-2012.09/bin/../arm-none-eabi/lib//libc.a(lib_a-wsetup.o)
 .debug_frame   0x0000581c       0x28 /home/leon/riotboard/arm-2012.09/bin/../arm-none-eabi/lib//libc.a(lib_a-abort.o)
 .debug_frame   0x00005844       0x64 /home/leon/riotboard/arm-2012.09/bin/../arm-none-eabi/lib//libc.a(lib_a-dtoa.o)
 .debug_frame   0x000058a8       0x48 /home/leon/riotboard/arm-2012.09/bin/../arm-none-eabi/lib//libc.a(lib_a-fflush.o)
 .debug_frame   0x000058f0      0x134 /home/leon/riotboard/arm-2012.09/bin/../arm-none-eabi/lib//libc.a(lib_a-findfp.o)
 .debug_frame   0x00005a24       0x50 /home/leon/riotboard/arm-2012.09/bin/../arm-none-eabi/lib//libc.a(lib_a-fputwc.o)
 .debug_frame   0x00005a74       0x50 /home/leon/riotboard/arm-2012.09/bin/../arm-none-eabi/lib//libc.a(lib_a-freer.o)
 .debug_frame   0x00005ac4       0x38 /home/leon/riotboard/arm-2012.09/bin/../arm-none-eabi/lib//libc.a(lib_a-fvwrite.o)
 .debug_frame   0x00005afc       0x54 /home/leon/riotboard/arm-2012.09/bin/../arm-none-eabi/lib//libc.a(lib_a-fwalk.o)
 .debug_frame   0x00005b50       0x98 /home/leon/riotboard/arm-2012.09/bin/../arm-none-eabi/lib//libc.a(lib_a-locale.o)
 .debug_frame   0x00005be8       0x30 /home/leon/riotboard/arm-2012.09/bin/../arm-none-eabi/lib//libc.a(lib_a-makebuf.o)
 .debug_frame   0x00005c18       0x2c /home/leon/riotboard/arm-2012.09/bin/../arm-none-eabi/lib//libc.a(lib_a-memchr.o)
 .debug_frame   0x00005c44       0x2c /home/leon/riotboard/arm-2012.09/bin/../arm-none-eabi/lib//libc.a(lib_a-memmove.o)
 .debug_frame   0x00005c70      0x220 /home/leon/riotboard/arm-2012.09/bin/../arm-none-eabi/lib//libc.a(lib_a-mprec.o)
 .debug_frame   0x00005e90       0x68 /home/leon/riotboard/arm-2012.09/bin/../arm-none-eabi/lib//libc.a(lib_a-reent.o)
 .debug_frame   0x00005ef8       0x44 /home/leon/riotboard/arm-2012.09/bin/../arm-none-eabi/lib//libc.a(lib_a-refill.o)
 .debug_frame   0x00005f3c       0x20 /home/leon/riotboard/arm-2012.09/bin/../arm-none-eabi/lib//libc.a(lib_a-s_fpclassify.o)
 .debug_frame   0x00005f5c       0xc0 /home/leon/riotboard/arm-2012.09/bin/../arm-none-eabi/lib//libc.a(lib_a-signal.o)
 .debug_frame   0x0000601c       0x44 /home/leon/riotboard/arm-2012.09/bin/../arm-none-eabi/lib//libc.a(lib_a-signalr.o)
 .debug_frame   0x00006060       0x88 /home/leon/riotboard/arm-2012.09/bin/../arm-none-eabi/lib//libc.a(lib_a-stdio.o)
 .debug_frame   0x000060e8       0x64 /home/leon/riotboard/arm-2012.09/bin/../arm-none-eabi/lib//libc.a(lib_a-svfiprintf.o)
 .debug_frame   0x0000614c       0x58 /home/leon/riotboard/arm-2012.09/bin/../arm-none-eabi/lib//libc.a(lib_a-wcrtomb.o)
 .debug_frame   0x000061a4       0x44 /home/leon/riotboard/arm-2012.09/bin/../arm-none-eabi/lib//libc.a(lib_a-wctomb_r.o)
 .debug_frame   0x000061e8       0x2c /home/leon/riotboard/arm-2012.09/bin/../arm-none-eabi/lib//libc.a(lib_a-writer.o)
 .debug_frame   0x00006214       0x28 /home/leon/riotboard/arm-2012.09/bin/../arm-none-eabi/lib//libc.a(lib_a-callocr.o)
 .debug_frame   0x0000623c       0x2c /home/leon/riotboard/arm-2012.09/bin/../arm-none-eabi/lib//libc.a(lib_a-closer.o)
 .debug_frame   0x00006268       0x3c /home/leon/riotboard/arm-2012.09/bin/../arm-none-eabi/lib//libc.a(lib_a-fclose.o)
 .debug_frame   0x000062a4       0x2c /home/leon/riotboard/arm-2012.09/bin/../arm-none-eabi/lib//libc.a(lib_a-fstatr.o)
 .debug_frame   0x000062d0       0x2c /home/leon/riotboard/arm-2012.09/bin/../arm-none-eabi/lib//libc.a(lib_a-isattyr.o)
 .debug_frame   0x000062fc       0x2c /home/leon/riotboard/arm-2012.09/bin/../arm-none-eabi/lib//libc.a(lib_a-lseekr.o)
 .debug_frame   0x00006328       0x2c /home/leon/riotboard/arm-2012.09/bin/../arm-none-eabi/lib//libc.a(lib_a-readr.o)
 .debug_frame   0x00006354       0x20 /home/leon/riotboard/arm-2012.09/bin/../lib/gcc/arm-none-eabi/4.7.2//libgcc.a(_udivsi3.o)
 .debug_frame   0x00006374       0x20 /home/leon/riotboard/arm-2012.09/bin/../lib/gcc/arm-none-eabi/4.7.2//libgcc.a(_divsi3.o)
 .debug_frame   0x00006394       0x54 /home/leon/riotboard/arm-2012.09/bin/../lib/gcc/arm-none-eabi/4.7.2//libgcc.a(bpabi.o)
 .debug_frame   0x000063e8       0x38 /home/leon/riotboard/arm-2012.09/bin/../lib/gcc/arm-none-eabi/4.7.2//libgcc.a(_divdi3.o)
 .debug_frame   0x00006420       0x38 /home/leon/riotboard/arm-2012.09/bin/../lib/gcc/arm-none-eabi/4.7.2//libgcc.a(_udivdi3.o)
 .debug_frame   0x00006458      0x290 /home/leon/git/swp-report/iMX6_Platform_SDK/output/mx6sl/lib/libsdk.a(runtime_support.o)

.debug_ranges   0x00000000       0x48
 .debug_ranges  0x00000000       0x30 /home/leon/git/swp-report/iMX6_Platform_SDK/output/mx6sl/lib/libsdk.a(menu.o)
 .debug_ranges  0x00000030       0x18 /home/leon/git/swp-report/iMX6_Platform_SDK/output/mx6sl/lib/libsdk.a(system_util.o)

Cross Reference Table

Symbol                                            File
AT45DB321D_id                                     /home/leon/git/swp-report/iMX6_Platform_SDK/output/mx6sl/obds/evk_rev_a/obj/apps/obds/src/tests/imx_spi_nor_test.o
CPU_Tests                                         /home/leon/git/swp-report/iMX6_Platform_SDK/output/mx6sl/obds/evk_rev_a/obj/apps/obds/src/obds.o
DA9053_Read                                       /home/leon/git/swp-report/iMX6_Platform_SDK/output/mx6sl/obds/evk_rev_a/obj/apps/obds/src/tests/touch_screen.o
DA9053_Write                                      /home/leon/git/swp-report/iMX6_Platform_SDK/output/mx6sl/obds/evk_rev_a/obj/apps/obds/src/tests/touch_screen.o
Delay4Reload                                      /home/leon/git/swp-report/iMX6_Platform_SDK/output/mx6sl/lib/libsdk.a(ocotp.o)
IRQ_HDLR                                          /home/leon/git/swp-report/iMX6_Platform_SDK/output/mx6sl/lib/libsdk.a(interrupt.o)
                                                  /home/leon/git/swp-report/iMX6_Platform_SDK/output/mx6sl/lib/libsdk.a(vectors.o)
M25P32_id                                         /home/leon/git/swp-report/iMX6_Platform_SDK/output/mx6sl/obds/evk_rev_a/obj/apps/obds/src/tests/imx_spi_nor_test.o
MainBoard_Tests                                   /home/leon/git/swp-report/iMX6_Platform_SDK/output/mx6sl/obds/evk_rev_a/obj/apps/obds/src/obds.o
MenuList_All_Tests                                /home/leon/git/swp-report/iMX6_Platform_SDK/output/mx6sl/obds/evk_rev_a/obj/apps/obds/src/obds.o
Menu_Commands                                     /home/leon/git/swp-report/iMX6_Platform_SDK/output/mx6sl/obds/evk_rev_a/obj/apps/obds/src/obds.o
PLL1_OUTPUT                                       /home/leon/git/swp-report/iMX6_Platform_SDK/output/mx6sl/lib/libsdk.a(ccm_pll.o)
PLL2_OUTPUT                                       /home/leon/git/swp-report/iMX6_Platform_SDK/output/mx6sl/lib/libsdk.a(ccm_pll.o)
PLL3_OUTPUT                                       /home/leon/git/swp-report/iMX6_Platform_SDK/output/mx6sl/lib/libsdk.a(ccm_pll.o)
PLL4_OUTPUT                                       /home/leon/git/swp-report/iMX6_Platform_SDK/output/mx6sl/lib/libsdk.a(ccm_pll.o)
PLL5_OUTPUT                                       /home/leon/git/swp-report/iMX6_Platform_SDK/output/mx6sl/lib/libsdk.a(ccm_pll.o)
SDHC_UHSI_mode                                    /home/leon/git/swp-report/iMX6_Platform_SDK/output/mx6sl/obds/evk_rev_a/obj/apps/obds/src/tests/mmcsd_test.o
WM8962_DAC_configure                              /home/leon/git/swp-report/iMX6_Platform_SDK/output/mx6sl/lib/libsdk.a(wm8962.o)
WM8962_DAC_deinit                                 /home/leon/git/swp-report/iMX6_Platform_SDK/output/mx6sl/lib/libsdk.a(wm8962.o)
WM8962_DAC_init                                   /home/leon/git/swp-report/iMX6_Platform_SDK/output/mx6sl/lib/libsdk.a(wm8962.o)
WM8962_dump                                       /home/leon/git/swp-report/iMX6_Platform_SDK/output/mx6sl/lib/libsdk.a(wm8962.o)
_Balloc                                           /home/leon/riotboard/arm-2012.09/bin/../arm-none-eabi/lib//libc.a(lib_a-mprec.o)
                                                  /home/leon/riotboard/arm-2012.09/bin/../arm-none-eabi/lib//libc.a(lib_a-dtoa.o)
_Bfree                                            /home/leon/riotboard/arm-2012.09/bin/../arm-none-eabi/lib//libc.a(lib_a-mprec.o)
                                                  /home/leon/riotboard/arm-2012.09/bin/../arm-none-eabi/lib//libc.a(lib_a-dtoa.o)
_ITM_deregisterTMCloneTable                       /home/leon/riotboard/arm-2012.09/bin/../lib/gcc/arm-none-eabi/4.7.2//crtbegin.o
_ITM_registerTMCloneTable                         /home/leon/riotboard/arm-2012.09/bin/../lib/gcc/arm-none-eabi/4.7.2//crtbegin.o
_Jv_RegisterClasses                               /home/leon/riotboard/arm-2012.09/bin/../lib/gcc/arm-none-eabi/4.7.2//crtbegin.o
_PathLocale                                       /home/leon/riotboard/arm-2012.09/bin/../arm-none-eabi/lib//libc.a(lib_a-locale.o)
__TMC_END__                                       /home/leon/riotboard/arm-2012.09/bin/../lib/gcc/arm-none-eabi/4.7.2//crtend.o
                                                  /home/leon/riotboard/arm-2012.09/bin/../lib/gcc/arm-none-eabi/4.7.2//crtbegin.o
__adddf3                                          /home/leon/riotboard/arm-2012.09/bin/../lib/gcc/arm-none-eabi/4.7.2//libgcc.a(_arm_addsubdf3.o)
__aeabi_cdcmpeq                                   /home/leon/riotboard/arm-2012.09/bin/../lib/gcc/arm-none-eabi/4.7.2//libgcc.a(_arm_cmpdf2.o)
__aeabi_cdcmple                                   /home/leon/riotboard/arm-2012.09/bin/../lib/gcc/arm-none-eabi/4.7.2//libgcc.a(_arm_cmpdf2.o)
__aeabi_cdrcmple                                  /home/leon/riotboard/arm-2012.09/bin/../lib/gcc/arm-none-eabi/4.7.2//libgcc.a(_arm_cmpdf2.o)
__aeabi_d2iz                                      /home/leon/riotboard/arm-2012.09/bin/../lib/gcc/arm-none-eabi/4.7.2//libgcc.a(_arm_fixdfsi.o)
                                                  /home/leon/riotboard/arm-2012.09/bin/../arm-none-eabi/lib//libc.a(lib_a-dtoa.o)
__aeabi_dadd                                      /home/leon/riotboard/arm-2012.09/bin/../lib/gcc/arm-none-eabi/4.7.2//libgcc.a(_arm_addsubdf3.o)
                                                  /home/leon/riotboard/arm-2012.09/bin/../arm-none-eabi/lib//libc.a(lib_a-dtoa.o)
__aeabi_dcmpeq                                    /home/leon/riotboard/arm-2012.09/bin/../lib/gcc/arm-none-eabi/4.7.2//libgcc.a(_arm_cmpdf2.o)
                                                  /home/leon/riotboard/arm-2012.09/bin/../arm-none-eabi/lib//libc.a(lib_a-dtoa.o)
                                                  /home/leon/riotboard/arm-2012.09/bin/../arm-none-eabi/lib//libc.a(lib_a-vfprintf.o)
                                                  /home/leon/riotboard/arm-2012.09/bin/../arm-none-eabi/lib//libc.a(lib_a-svfprintf.o)
__aeabi_dcmpge                                    /home/leon/riotboard/arm-2012.09/bin/../lib/gcc/arm-none-eabi/4.7.2//libgcc.a(_arm_cmpdf2.o)
                                                  /home/leon/riotboard/arm-2012.09/bin/../arm-none-eabi/lib//libc.a(lib_a-dtoa.o)
__aeabi_dcmpgt                                    /home/leon/riotboard/arm-2012.09/bin/../lib/gcc/arm-none-eabi/4.7.2//libgcc.a(_arm_cmpdf2.o)
                                                  /home/leon/riotboard/arm-2012.09/bin/../arm-none-eabi/lib//libc.a(lib_a-dtoa.o)
__aeabi_dcmple                                    /home/leon/riotboard/arm-2012.09/bin/../lib/gcc/arm-none-eabi/4.7.2//libgcc.a(_arm_cmpdf2.o)
__aeabi_dcmplt                                    /home/leon/riotboard/arm-2012.09/bin/../lib/gcc/arm-none-eabi/4.7.2//libgcc.a(_arm_cmpdf2.o)
                                                  /home/leon/riotboard/arm-2012.09/bin/../arm-none-eabi/lib//libc.a(lib_a-dtoa.o)
                                                  /home/leon/riotboard/arm-2012.09/bin/../arm-none-eabi/lib//libc.a(lib_a-vfprintf.o)
                                                  /home/leon/riotboard/arm-2012.09/bin/../arm-none-eabi/lib//libc.a(lib_a-svfprintf.o)
__aeabi_ddiv                                      /home/leon/riotboard/arm-2012.09/bin/../lib/gcc/arm-none-eabi/4.7.2//libgcc.a(_arm_muldivdf3.o)
                                                  /home/leon/riotboard/arm-2012.09/bin/../arm-none-eabi/lib//libc.a(lib_a-mprec.o)
                                                  /home/leon/riotboard/arm-2012.09/bin/../arm-none-eabi/lib//libc.a(lib_a-dtoa.o)
__aeabi_dmul                                      /home/leon/riotboard/arm-2012.09/bin/../lib/gcc/arm-none-eabi/4.7.2//libgcc.a(_arm_muldivdf3.o)
                                                  /home/leon/riotboard/arm-2012.09/bin/../arm-none-eabi/lib//libc.a(lib_a-mprec.o)
                                                  /home/leon/riotboard/arm-2012.09/bin/../arm-none-eabi/lib//libc.a(lib_a-dtoa.o)
__aeabi_drsub                                     /home/leon/riotboard/arm-2012.09/bin/../lib/gcc/arm-none-eabi/4.7.2//libgcc.a(_arm_addsubdf3.o)
__aeabi_dsub                                      /home/leon/riotboard/arm-2012.09/bin/../lib/gcc/arm-none-eabi/4.7.2//libgcc.a(_arm_addsubdf3.o)
                                                  /home/leon/riotboard/arm-2012.09/bin/../arm-none-eabi/lib//libc.a(lib_a-dtoa.o)
__aeabi_f2d                                       /home/leon/riotboard/arm-2012.09/bin/../lib/gcc/arm-none-eabi/4.7.2//libgcc.a(_arm_addsubdf3.o)
__aeabi_i2d                                       /home/leon/riotboard/arm-2012.09/bin/../lib/gcc/arm-none-eabi/4.7.2//libgcc.a(_arm_addsubdf3.o)
                                                  /home/leon/riotboard/arm-2012.09/bin/../arm-none-eabi/lib//libc.a(lib_a-dtoa.o)
__aeabi_idiv                                      /home/leon/riotboard/arm-2012.09/bin/../lib/gcc/arm-none-eabi/4.7.2//libgcc.a(_divsi3.o)
                                                  /home/leon/git/swp-report/iMX6_Platform_SDK/output/mx6sl/lib/libsdk.a(usdhc_host.o)
__aeabi_idiv0                                     /home/leon/riotboard/arm-2012.09/bin/../lib/gcc/arm-none-eabi/4.7.2//libgcc.a(_dvmd_tls.o)
                                                  /home/leon/riotboard/arm-2012.09/bin/../lib/gcc/arm-none-eabi/4.7.2//libgcc.a(_divsi3.o)
                                                  /home/leon/riotboard/arm-2012.09/bin/../lib/gcc/arm-none-eabi/4.7.2//libgcc.a(_udivsi3.o)
__aeabi_idivmod                                   /home/leon/riotboard/arm-2012.09/bin/../lib/gcc/arm-none-eabi/4.7.2//libgcc.a(_divsi3.o)
                                                  /home/leon/git/swp-report/iMX6_Platform_SDK/output/mx6sl/lib/libsdk.a(usdhc_host.o)
__aeabi_l2d                                       /home/leon/riotboard/arm-2012.09/bin/../lib/gcc/arm-none-eabi/4.7.2//libgcc.a(_arm_addsubdf3.o)
__aeabi_ldiv0                                     /home/leon/riotboard/arm-2012.09/bin/../lib/gcc/arm-none-eabi/4.7.2//libgcc.a(_dvmd_tls.o)
                                                  /home/leon/riotboard/arm-2012.09/bin/../lib/gcc/arm-none-eabi/4.7.2//libgcc.a(_aeabi_uldivmod.o)
__aeabi_ui2d                                      /home/leon/riotboard/arm-2012.09/bin/../lib/gcc/arm-none-eabi/4.7.2//libgcc.a(_arm_addsubdf3.o)
                                                  /home/leon/riotboard/arm-2012.09/bin/../arm-none-eabi/lib//libc.a(lib_a-dtoa.o)
__aeabi_uidiv                                     /home/leon/riotboard/arm-2012.09/bin/../lib/gcc/arm-none-eabi/4.7.2//libgcc.a(_udivsi3.o)
                                                  /home/leon/riotboard/arm-2012.09/bin/../lib/gcc/arm-none-eabi/4.7.2//libgcc.a(_udivdi3.o)
                                                  /home/leon/riotboard/arm-2012.09/bin/../lib/gcc/arm-none-eabi/4.7.2//libgcc.a(_divdi3.o)
                                                  /home/leon/riotboard/arm-2012.09/bin/../arm-none-eabi/lib//libc.a(lib_a-dtoa.o)
                                                  /home/leon/git/swp-report/iMX6_Platform_SDK/output/mx6sl/lib/libsdk.a(imx_i2c.o)
                                                  /home/leon/git/swp-report/iMX6_Platform_SDK/output/mx6sl/lib/libsdk.a(imx-ssi.o)
                                                  /home/leon/git/swp-report/iMX6_Platform_SDK/output/mx6sl/lib/libsdk.a(ccm_pll.o)
                                                  /home/leon/git/swp-report/iMX6_Platform_SDK/output/mx6sl/obds/evk_rev_a/obj/sdk/drivers/spi/test/imx_spi_nor_atmel.o
__aeabi_uidivmod                                  /home/leon/riotboard/arm-2012.09/bin/../lib/gcc/arm-none-eabi/4.7.2//libgcc.a(_udivsi3.o)
                                                  /home/leon/riotboard/arm-2012.09/bin/../lib/gcc/arm-none-eabi/4.7.2//libgcc.a(_udivdi3.o)
                                                  /home/leon/riotboard/arm-2012.09/bin/../lib/gcc/arm-none-eabi/4.7.2//libgcc.a(_divdi3.o)
                                                  /home/leon/git/swp-report/iMX6_Platform_SDK/output/mx6sl/obds/evk_rev_a/obj/sdk/drivers/spi/test/imx_spi_nor_atmel.o
__aeabi_ul2d                                      /home/leon/riotboard/arm-2012.09/bin/../lib/gcc/arm-none-eabi/4.7.2//libgcc.a(_arm_addsubdf3.o)
__aeabi_uldivmod                                  /home/leon/riotboard/arm-2012.09/bin/../lib/gcc/arm-none-eabi/4.7.2//libgcc.a(_aeabi_uldivmod.o)
                                                  /home/leon/git/swp-report/iMX6_Platform_SDK/output/mx6sl/lib/libsdk.a(runtime_support.o)
                                                  /home/leon/riotboard/arm-2012.09/bin/../arm-none-eabi/lib//libc.a(lib_a-svfiprintf.o)
                                                  /home/leon/riotboard/arm-2012.09/bin/../arm-none-eabi/lib//libc.a(lib_a-vfprintf.o)
                                                  /home/leon/riotboard/arm-2012.09/bin/../arm-none-eabi/lib//libc.a(lib_a-vfiprintf.o)
                                                  /home/leon/riotboard/arm-2012.09/bin/../arm-none-eabi/lib//libc.a(lib_a-svfprintf.o)
                                                  /home/leon/git/swp-report/iMX6_Platform_SDK/output/mx6sl/lib/libsdk.a(timer.o)
__any_on                                          /home/leon/riotboard/arm-2012.09/bin/../arm-none-eabi/lib//libc.a(lib_a-mprec.o)
__ascii_wctomb                                    /home/leon/riotboard/arm-2012.09/bin/../arm-none-eabi/lib//libc.a(lib_a-wctomb_r.o)
__assert                                          /home/leon/riotboard/arm-2012.09/bin/../arm-none-eabi/lib//libc.a(lib_a-assert.o)
__assert_func                                     /home/leon/riotboard/arm-2012.09/bin/../arm-none-eabi/lib//libc.a(lib_a-assert.o)
                                                  /home/leon/git/swp-report/iMX6_Platform_SDK/output/mx6sl/lib/libboard_evk_rev_a.a(usdhc_iomux_config.o)
                                                  /home/leon/git/swp-report/iMX6_Platform_SDK/output/mx6sl/lib/libboard_evk_rev_a.a(uart_iomux_config.o)
                                                  /home/leon/git/swp-report/iMX6_Platform_SDK/output/mx6sl/lib/libboard_evk_rev_a.a(i2c_iomux_config.o)
                                                  /home/leon/git/swp-report/iMX6_Platform_SDK/output/mx6sl/lib/libboard_evk_rev_a.a(ecspi_iomux_config.o)
                                                  /home/leon/git/swp-report/iMX6_Platform_SDK/output/mx6sl/lib/libsdk.a(gic.o)
__b2d                                             /home/leon/riotboard/arm-2012.09/bin/../arm-none-eabi/lib//libc.a(lib_a-mprec.o)
__bss_end__                                       /home/leon/git/swp-report/iMX6_Platform_SDK/output/mx6sl/lib/libsdk.a(startup.o)
__bss_start__                                     /home/leon/git/swp-report/iMX6_Platform_SDK/output/mx6sl/lib/libsdk.a(startup.o)
__clzsi2                                          /home/leon/riotboard/arm-2012.09/bin/../lib/gcc/arm-none-eabi/4.7.2//libgcc.a(_clzsi2.o)
                                                  /home/leon/riotboard/arm-2012.09/bin/../lib/gcc/arm-none-eabi/4.7.2//libgcc.a(_udivdi3.o)
                                                  /home/leon/riotboard/arm-2012.09/bin/../lib/gcc/arm-none-eabi/4.7.2//libgcc.a(_divdi3.o)
__cmpdf2                                          /home/leon/riotboard/arm-2012.09/bin/../lib/gcc/arm-none-eabi/4.7.2//libgcc.a(_arm_cmpdf2.o)
__copybits                                        /home/leon/riotboard/arm-2012.09/bin/../arm-none-eabi/lib//libc.a(lib_a-mprec.o)
__ctype_ptr__                                     /home/leon/riotboard/arm-2012.09/bin/../arm-none-eabi/lib//libc.a(lib_a-ctype_.o)
                                                  /home/leon/riotboard/arm-2012.09/bin/../arm-none-eabi/lib//libc.a(lib_a-strncasecmp.o)
__d2b                                             /home/leon/riotboard/arm-2012.09/bin/../arm-none-eabi/lib//libc.a(lib_a-mprec.o)
                                                  /home/leon/riotboard/arm-2012.09/bin/../arm-none-eabi/lib//libc.a(lib_a-dtoa.o)
__deregister_frame_info                           /home/leon/riotboard/arm-2012.09/bin/../lib/gcc/arm-none-eabi/4.7.2//crtbegin.o
__divdf3                                          /home/leon/riotboard/arm-2012.09/bin/../lib/gcc/arm-none-eabi/4.7.2//libgcc.a(_arm_muldivdf3.o)
__divdi3                                          /home/leon/riotboard/arm-2012.09/bin/../lib/gcc/arm-none-eabi/4.7.2//libgcc.a(_divdi3.o)
                                                  /home/leon/riotboard/arm-2012.09/bin/../lib/gcc/arm-none-eabi/4.7.2//libgcc.a(bpabi.o)
__divsi3                                          /home/leon/riotboard/arm-2012.09/bin/../lib/gcc/arm-none-eabi/4.7.2//libgcc.a(_divsi3.o)
__dso_handle                                      /home/leon/riotboard/arm-2012.09/bin/../lib/gcc/arm-none-eabi/4.7.2//crtbegin.o
__env                                             /home/leon/git/swp-report/iMX6_Platform_SDK/output/mx6sl/lib/libsdk.a(runtime_support.o)
__eqdf2                                           /home/leon/riotboard/arm-2012.09/bin/../lib/gcc/arm-none-eabi/4.7.2//libgcc.a(_arm_cmpdf2.o)
__extendsfdf2                                     /home/leon/riotboard/arm-2012.09/bin/../lib/gcc/arm-none-eabi/4.7.2//libgcc.a(_arm_addsubdf3.o)
__fixdfsi                                         /home/leon/riotboard/arm-2012.09/bin/../lib/gcc/arm-none-eabi/4.7.2//libgcc.a(_arm_fixdfsi.o)
__floatdidf                                       /home/leon/riotboard/arm-2012.09/bin/../lib/gcc/arm-none-eabi/4.7.2//libgcc.a(_arm_addsubdf3.o)
__floatsidf                                       /home/leon/riotboard/arm-2012.09/bin/../lib/gcc/arm-none-eabi/4.7.2//libgcc.a(_arm_addsubdf3.o)
__floatundidf                                     /home/leon/riotboard/arm-2012.09/bin/../lib/gcc/arm-none-eabi/4.7.2//libgcc.a(_arm_addsubdf3.o)
__floatunsidf                                     /home/leon/riotboard/arm-2012.09/bin/../lib/gcc/arm-none-eabi/4.7.2//libgcc.a(_arm_addsubdf3.o)
__fp_lock_all                                     /home/leon/riotboard/arm-2012.09/bin/../arm-none-eabi/lib//libc.a(lib_a-findfp.o)
__fp_unlock_all                                   /home/leon/riotboard/arm-2012.09/bin/../arm-none-eabi/lib//libc.a(lib_a-findfp.o)
__fpclassifyd                                     /home/leon/riotboard/arm-2012.09/bin/../arm-none-eabi/lib//libc.a(lib_a-s_fpclassify.o)
                                                  /home/leon/riotboard/arm-2012.09/bin/../arm-none-eabi/lib//libc.a(lib_a-vfprintf.o)
                                                  /home/leon/riotboard/arm-2012.09/bin/../arm-none-eabi/lib//libc.a(lib_a-svfprintf.o)
__gedf2                                           /home/leon/riotboard/arm-2012.09/bin/../lib/gcc/arm-none-eabi/4.7.2//libgcc.a(_arm_cmpdf2.o)
__gnu_ldivmod_helper                              /home/leon/riotboard/arm-2012.09/bin/../lib/gcc/arm-none-eabi/4.7.2//libgcc.a(bpabi.o)
__gnu_uldivmod_helper                             /home/leon/riotboard/arm-2012.09/bin/../lib/gcc/arm-none-eabi/4.7.2//libgcc.a(bpabi.o)
                                                  /home/leon/riotboard/arm-2012.09/bin/../lib/gcc/arm-none-eabi/4.7.2//libgcc.a(_aeabi_uldivmod.o)
__gtdf2                                           /home/leon/riotboard/arm-2012.09/bin/../lib/gcc/arm-none-eabi/4.7.2//libgcc.a(_arm_cmpdf2.o)
__hab_data                                        /home/leon/git/swp-report/iMX6_Platform_SDK/output/mx6sl/obds/evk_rev_a/obj/apps/common/ivt.o
__hi0bits                                         /home/leon/riotboard/arm-2012.09/bin/../arm-none-eabi/lib//libc.a(lib_a-mprec.o)
                                                  /home/leon/riotboard/arm-2012.09/bin/../arm-none-eabi/lib//libc.a(lib_a-dtoa.o)
__i2b                                             /home/leon/riotboard/arm-2012.09/bin/../arm-none-eabi/lib//libc.a(lib_a-mprec.o)
                                                  /home/leon/riotboard/arm-2012.09/bin/../arm-none-eabi/lib//libc.a(lib_a-dtoa.o)
__init_array_end                                  /home/leon/riotboard/arm-2012.09/bin/../arm-none-eabi/lib//libc.a(lib_a-init.o)
__init_array_start                                /home/leon/riotboard/arm-2012.09/bin/../arm-none-eabi/lib//libc.a(lib_a-init.o)
__l1_page_table_start                             /home/leon/git/swp-report/iMX6_Platform_SDK/output/mx6sl/lib/libsdk.a(mmu.o)
__ledf2                                           /home/leon/riotboard/arm-2012.09/bin/../lib/gcc/arm-none-eabi/4.7.2//libgcc.a(_arm_cmpdf2.o)
__libc_init_array                                 /home/leon/riotboard/arm-2012.09/bin/../arm-none-eabi/lib//libc.a(lib_a-init.o)
                                                  /home/leon/git/swp-report/iMX6_Platform_SDK/output/mx6sl/lib/libsdk.a(startup.o)
__lo0bits                                         /home/leon/riotboard/arm-2012.09/bin/../arm-none-eabi/lib//libc.a(lib_a-mprec.o)
__locale_charset                                  /home/leon/riotboard/arm-2012.09/bin/../arm-none-eabi/lib//libc.a(lib_a-locale.o)
                                                  /home/leon/riotboard/arm-2012.09/bin/../arm-none-eabi/lib//libc.a(lib_a-wctomb_r.o)
                                                  /home/leon/riotboard/arm-2012.09/bin/../arm-none-eabi/lib//libc.a(lib_a-wcrtomb.o)
__locale_cjk_lang                                 /home/leon/riotboard/arm-2012.09/bin/../arm-none-eabi/lib//libc.a(lib_a-locale.o)
__locale_mb_cur_max                               /home/leon/riotboard/arm-2012.09/bin/../arm-none-eabi/lib//libc.a(lib_a-locale.o)
                                                  /home/leon/riotboard/arm-2012.09/bin/../arm-none-eabi/lib//libc.a(lib_a-fputwc.o)
__locale_msgcharset                               /home/leon/riotboard/arm-2012.09/bin/../arm-none-eabi/lib//libc.a(lib_a-locale.o)
__lshift                                          /home/leon/riotboard/arm-2012.09/bin/../arm-none-eabi/lib//libc.a(lib_a-mprec.o)
                                                  /home/leon/riotboard/arm-2012.09/bin/../arm-none-eabi/lib//libc.a(lib_a-dtoa.o)
__ltdf2                                           /home/leon/riotboard/arm-2012.09/bin/../lib/gcc/arm-none-eabi/4.7.2//libgcc.a(_arm_cmpdf2.o)
__malloc_av_                                      /home/leon/riotboard/arm-2012.09/bin/../arm-none-eabi/lib//libc.a(lib_a-mallocr.o)
                                                  /home/leon/riotboard/arm-2012.09/bin/../arm-none-eabi/lib//libc.a(lib_a-freer.o)
                                                  /home/leon/riotboard/arm-2012.09/bin/../arm-none-eabi/lib//libc.a(lib_a-reallocr.o)
__malloc_current_mallinfo                         /home/leon/riotboard/arm-2012.09/bin/../arm-none-eabi/lib//libc.a(lib_a-mallocr.o)
                                                  /home/leon/riotboard/arm-2012.09/bin/../arm-none-eabi/lib//libc.a(lib_a-freer.o)
__malloc_lock                                     /home/leon/riotboard/arm-2012.09/bin/../arm-none-eabi/lib//libc.a(lib_a-mlock.o)
                                                  /home/leon/riotboard/arm-2012.09/bin/../arm-none-eabi/lib//libc.a(lib_a-freer.o)
                                                  /home/leon/riotboard/arm-2012.09/bin/../arm-none-eabi/lib//libc.a(lib_a-reallocr.o)
                                                  /home/leon/riotboard/arm-2012.09/bin/../arm-none-eabi/lib//libc.a(lib_a-mallocr.o)
__malloc_max_sbrked_mem                           /home/leon/riotboard/arm-2012.09/bin/../arm-none-eabi/lib//libc.a(lib_a-mallocr.o)
__malloc_max_total_mem                            /home/leon/riotboard/arm-2012.09/bin/../arm-none-eabi/lib//libc.a(lib_a-mallocr.o)
__malloc_sbrk_base                                /home/leon/riotboard/arm-2012.09/bin/../arm-none-eabi/lib//libc.a(lib_a-mallocr.o)
                                                  /home/leon/riotboard/arm-2012.09/bin/../arm-none-eabi/lib//libc.a(lib_a-freer.o)
__malloc_top_pad                                  /home/leon/riotboard/arm-2012.09/bin/../arm-none-eabi/lib//libc.a(lib_a-mallocr.o)
                                                  /home/leon/riotboard/arm-2012.09/bin/../arm-none-eabi/lib//libc.a(lib_a-freer.o)
__malloc_trim_threshold                           /home/leon/riotboard/arm-2012.09/bin/../arm-none-eabi/lib//libc.a(lib_a-mallocr.o)
                                                  /home/leon/riotboard/arm-2012.09/bin/../arm-none-eabi/lib//libc.a(lib_a-freer.o)
__malloc_unlock                                   /home/leon/riotboard/arm-2012.09/bin/../arm-none-eabi/lib//libc.a(lib_a-mlock.o)
                                                  /home/leon/riotboard/arm-2012.09/bin/../arm-none-eabi/lib//libc.a(lib_a-freer.o)
                                                  /home/leon/riotboard/arm-2012.09/bin/../arm-none-eabi/lib//libc.a(lib_a-reallocr.o)
                                                  /home/leon/riotboard/arm-2012.09/bin/../arm-none-eabi/lib//libc.a(lib_a-mallocr.o)
__mb_cur_max                                      /home/leon/riotboard/arm-2012.09/bin/../arm-none-eabi/lib//libc.a(lib_a-locale.o)
__mcmp                                            /home/leon/riotboard/arm-2012.09/bin/../arm-none-eabi/lib//libc.a(lib_a-mprec.o)
                                                  /home/leon/riotboard/arm-2012.09/bin/../arm-none-eabi/lib//libc.a(lib_a-dtoa.o)
__mdiff                                           /home/leon/riotboard/arm-2012.09/bin/../arm-none-eabi/lib//libc.a(lib_a-mprec.o)
                                                  /home/leon/riotboard/arm-2012.09/bin/../arm-none-eabi/lib//libc.a(lib_a-dtoa.o)
__mlocale_changed                                 /home/leon/riotboard/arm-2012.09/bin/../arm-none-eabi/lib//libc.a(lib_a-locale.o)
__mprec_bigtens                                   /home/leon/riotboard/arm-2012.09/bin/../arm-none-eabi/lib//libc.a(lib_a-mprec.o)
                                                  /home/leon/riotboard/arm-2012.09/bin/../arm-none-eabi/lib//libc.a(lib_a-dtoa.o)
__mprec_tens                                      /home/leon/riotboard/arm-2012.09/bin/../arm-none-eabi/lib//libc.a(lib_a-mprec.o)
                                                  /home/leon/riotboard/arm-2012.09/bin/../arm-none-eabi/lib//libc.a(lib_a-dtoa.o)
__mprec_tinytens                                  /home/leon/riotboard/arm-2012.09/bin/../arm-none-eabi/lib//libc.a(lib_a-mprec.o)
__muldf3                                          /home/leon/riotboard/arm-2012.09/bin/../lib/gcc/arm-none-eabi/4.7.2//libgcc.a(_arm_muldivdf3.o)
__multadd                                         /home/leon/riotboard/arm-2012.09/bin/../arm-none-eabi/lib//libc.a(lib_a-mprec.o)
                                                  /home/leon/riotboard/arm-2012.09/bin/../arm-none-eabi/lib//libc.a(lib_a-dtoa.o)
__multiply                                        /home/leon/riotboard/arm-2012.09/bin/../arm-none-eabi/lib//libc.a(lib_a-mprec.o)
                                                  /home/leon/riotboard/arm-2012.09/bin/../arm-none-eabi/lib//libc.a(lib_a-dtoa.o)
__nedf2                                           /home/leon/riotboard/arm-2012.09/bin/../lib/gcc/arm-none-eabi/4.7.2//libgcc.a(_arm_cmpdf2.o)
__nlocale_changed                                 /home/leon/riotboard/arm-2012.09/bin/../arm-none-eabi/lib//libc.a(lib_a-locale.o)
__pow5mult                                        /home/leon/riotboard/arm-2012.09/bin/../arm-none-eabi/lib//libc.a(lib_a-mprec.o)
                                                  /home/leon/riotboard/arm-2012.09/bin/../arm-none-eabi/lib//libc.a(lib_a-dtoa.o)
__preinit_array_end                               /home/leon/riotboard/arm-2012.09/bin/../arm-none-eabi/lib//libc.a(lib_a-init.o)
__preinit_array_start                             /home/leon/riotboard/arm-2012.09/bin/../arm-none-eabi/lib//libc.a(lib_a-init.o)
__ram_vectors_end                                 /home/leon/git/swp-report/iMX6_Platform_SDK/output/mx6sl/lib/libsdk.a(startup.o)
__ram_vectors_start                               /home/leon/git/swp-report/iMX6_Platform_SDK/output/mx6sl/lib/libsdk.a(startup.o)
__ratio                                           /home/leon/riotboard/arm-2012.09/bin/../arm-none-eabi/lib//libc.a(lib_a-mprec.o)
__register_frame_info                             /home/leon/riotboard/arm-2012.09/bin/../lib/gcc/arm-none-eabi/4.7.2//crtbegin.o
__s2b                                             /home/leon/riotboard/arm-2012.09/bin/../arm-none-eabi/lib//libc.a(lib_a-mprec.o)
__sclose                                          /home/leon/riotboard/arm-2012.09/bin/../arm-none-eabi/lib//libc.a(lib_a-stdio.o)
                                                  /home/leon/riotboard/arm-2012.09/bin/../arm-none-eabi/lib//libc.a(lib_a-findfp.o)
__seofread                                        /home/leon/riotboard/arm-2012.09/bin/../arm-none-eabi/lib//libc.a(lib_a-stdio.o)
__sfmoreglue                                      /home/leon/riotboard/arm-2012.09/bin/../arm-none-eabi/lib//libc.a(lib_a-findfp.o)
__sfp                                             /home/leon/riotboard/arm-2012.09/bin/../arm-none-eabi/lib//libc.a(lib_a-findfp.o)
__sfp_lock_acquire                                /home/leon/riotboard/arm-2012.09/bin/../arm-none-eabi/lib//libc.a(lib_a-findfp.o)
                                                  /home/leon/riotboard/arm-2012.09/bin/../arm-none-eabi/lib//libc.a(lib_a-fclose.o)
                                                  /home/leon/riotboard/arm-2012.09/bin/../arm-none-eabi/lib//libc.a(lib_a-fwalk.o)
__sfp_lock_release                                /home/leon/riotboard/arm-2012.09/bin/../arm-none-eabi/lib//libc.a(lib_a-findfp.o)
                                                  /home/leon/riotboard/arm-2012.09/bin/../arm-none-eabi/lib//libc.a(lib_a-fclose.o)
                                                  /home/leon/riotboard/arm-2012.09/bin/../arm-none-eabi/lib//libc.a(lib_a-fwalk.o)
__sfvwrite_r                                      /home/leon/riotboard/arm-2012.09/bin/../arm-none-eabi/lib//libc.a(lib_a-fvwrite.o)
                                                  /home/leon/riotboard/arm-2012.09/bin/../arm-none-eabi/lib//libc.a(lib_a-vfiprintf.o)
__sigtramp                                        /home/leon/riotboard/arm-2012.09/bin/../arm-none-eabi/lib//libc.a(lib_a-signal.o)
__sigtramp_r                                      /home/leon/riotboard/arm-2012.09/bin/../arm-none-eabi/lib//libc.a(lib_a-signal.o)
__sinit                                           /home/leon/riotboard/arm-2012.09/bin/../arm-none-eabi/lib//libc.a(lib_a-findfp.o)
                                                  /home/leon/riotboard/arm-2012.09/bin/../arm-none-eabi/lib//libc.a(lib_a-fclose.o)
                                                  /home/leon/riotboard/arm-2012.09/bin/../arm-none-eabi/lib//libc.a(lib_a-refill.o)
                                                  /home/leon/riotboard/arm-2012.09/bin/../arm-none-eabi/lib//libc.a(lib_a-fputwc.o)
                                                  /home/leon/riotboard/arm-2012.09/bin/../arm-none-eabi/lib//libc.a(lib_a-fflush.o)
                                                  /home/leon/riotboard/arm-2012.09/bin/../arm-none-eabi/lib//libc.a(lib_a-wsetup.o)
                                                  /home/leon/riotboard/arm-2012.09/bin/../arm-none-eabi/lib//libc.a(lib_a-wbuf.o)
                                                  /home/leon/riotboard/arm-2012.09/bin/../arm-none-eabi/lib//libc.a(lib_a-vfprintf.o)
                                                  /home/leon/riotboard/arm-2012.09/bin/../arm-none-eabi/lib//libc.a(lib_a-vfiprintf.o)
                                                  /home/leon/riotboard/arm-2012.09/bin/../arm-none-eabi/lib//libc.a(lib_a-rget.o)
                                                  /home/leon/riotboard/arm-2012.09/bin/../arm-none-eabi/lib//libc.a(lib_a-putc.o)
                                                  /home/leon/riotboard/arm-2012.09/bin/../arm-none-eabi/lib//libc.a(lib_a-fputc.o)
__sinit_lock_acquire                              /home/leon/riotboard/arm-2012.09/bin/../arm-none-eabi/lib//libc.a(lib_a-findfp.o)
__sinit_lock_release                              /home/leon/riotboard/arm-2012.09/bin/../arm-none-eabi/lib//libc.a(lib_a-findfp.o)
__smakebuf_r                                      /home/leon/riotboard/arm-2012.09/bin/../arm-none-eabi/lib//libc.a(lib_a-makebuf.o)
                                                  /home/leon/riotboard/arm-2012.09/bin/../arm-none-eabi/lib//libc.a(lib_a-refill.o)
                                                  /home/leon/riotboard/arm-2012.09/bin/../arm-none-eabi/lib//libc.a(lib_a-wsetup.o)
__sprint_r                                        /home/leon/riotboard/arm-2012.09/bin/../arm-none-eabi/lib//libc.a(lib_a-vfiprintf.o)
                                                  /home/leon/riotboard/arm-2012.09/bin/../arm-none-eabi/lib//libc.a(lib_a-vfprintf.o)
__sread                                           /home/leon/riotboard/arm-2012.09/bin/../arm-none-eabi/lib//libc.a(lib_a-stdio.o)
                                                  /home/leon/riotboard/arm-2012.09/bin/../arm-none-eabi/lib//libc.a(lib_a-findfp.o)
__srefill_r                                       /home/leon/riotboard/arm-2012.09/bin/../arm-none-eabi/lib//libc.a(lib_a-refill.o)
                                                  /home/leon/riotboard/arm-2012.09/bin/../arm-none-eabi/lib//libc.a(lib_a-rget.o)
__srget                                           /home/leon/riotboard/arm-2012.09/bin/../arm-none-eabi/lib//libc.a(lib_a-rget.o)
__srget_r                                         /home/leon/riotboard/arm-2012.09/bin/../arm-none-eabi/lib//libc.a(lib_a-rget.o)
                                                  /home/leon/git/swp-report/iMX6_Platform_SDK/output/mx6sl/lib/libsdk.a(usb_common.o)
                                                  /home/leon/git/swp-report/iMX6_Platform_SDK/output/mx6sl/lib/libsdk.a(lcdif_drv.o)
                                                  /home/leon/git/swp-report/iMX6_Platform_SDK/output/mx6sl/lib/libsdk.a(system_util.o)
                                                  /home/leon/git/swp-report/iMX6_Platform_SDK/output/mx6sl/lib/libsdk.a(menu.o)
                                                  /home/leon/git/swp-report/iMX6_Platform_SDK/output/mx6sl/obds/evk_rev_a/obj/sdk/drivers/usdhc/test/usdhc_test.o
                                                  /home/leon/git/swp-report/iMX6_Platform_SDK/output/mx6sl/obds/evk_rev_a/obj/sdk/drivers/uart/test/uart_test.o
                                                  /home/leon/git/swp-report/iMX6_Platform_SDK/output/mx6sl/obds/evk_rev_a/obj/sdk/drivers/lcdif/test/lcdif_display.o
                                                  /home/leon/git/swp-report/iMX6_Platform_SDK/output/mx6sl/obds/evk_rev_a/obj/sdk/drivers/epdc/test/epdc_test.o
                                                  /home/leon/git/swp-report/iMX6_Platform_SDK/output/mx6sl/obds/evk_rev_a/obj/sdk/drivers/camera/test/csi_sensor_capture.o
                                                  /home/leon/git/swp-report/iMX6_Platform_SDK/output/mx6sl/obds/evk_rev_a/obj/sdk/drivers/camera/test/camera_test.o
                                                  /home/leon/git/swp-report/iMX6_Platform_SDK/output/mx6sl/obds/evk_rev_a/obj/apps/obds/src/tests/touch_screen_max11801.o
                                                  /home/leon/git/swp-report/iMX6_Platform_SDK/output/mx6sl/obds/evk_rev_a/obj/apps/obds/src/tests/touch_screen.o
                                                  /home/leon/git/swp-report/iMX6_Platform_SDK/output/mx6sl/obds/evk_rev_a/obj/apps/obds/src/tests/program_mac_address.o
                                                  /home/leon/git/swp-report/iMX6_Platform_SDK/output/mx6sl/obds/evk_rev_a/obj/apps/obds/src/tests/pmic_lt3589.o
                                                  /home/leon/git/swp-report/iMX6_Platform_SDK/output/mx6sl/obds/evk_rev_a/obj/apps/obds/src/tests/i2c_device_id_check_mma8451.o
                                                  /home/leon/git/swp-report/iMX6_Platform_SDK/output/mx6sl/obds/evk_rev_a/obj/apps/obds/src/tests/i2c_device_id_check_mma8450.o
                                                  /home/leon/git/swp-report/iMX6_Platform_SDK/output/mx6sl/obds/evk_rev_a/obj/apps/obds/src/tests/i2c_check_light_sensor_isl29023.o
                                                  /home/leon/git/swp-report/iMX6_Platform_SDK/output/mx6sl/obds/evk_rev_a/obj/apps/obds/src/tests/gpio_led.o
                                                  /home/leon/git/swp-report/iMX6_Platform_SDK/output/mx6sl/obds/evk_rev_a/obj/apps/obds/src/tests/audio_ssi_test.o
__sseek                                           /home/leon/riotboard/arm-2012.09/bin/../arm-none-eabi/lib//libc.a(lib_a-stdio.o)
                                                  /home/leon/riotboard/arm-2012.09/bin/../arm-none-eabi/lib//libc.a(lib_a-makebuf.o)
                                                  /home/leon/riotboard/arm-2012.09/bin/../arm-none-eabi/lib//libc.a(lib_a-findfp.o)
__ssprint_r                                       /home/leon/riotboard/arm-2012.09/bin/../arm-none-eabi/lib//libc.a(lib_a-svfiprintf.o)
                                                  /home/leon/riotboard/arm-2012.09/bin/../arm-none-eabi/lib//libc.a(lib_a-svfprintf.o)
__stacks_start                                    /home/leon/git/swp-report/iMX6_Platform_SDK/output/mx6sl/lib/libsdk.a(startup.o)
__start_boot_data                                 /home/leon/git/swp-report/iMX6_Platform_SDK/output/mx6sl/obds/evk_rev_a/obj/apps/common/ivt.o
__strtok_r                                        /home/leon/riotboard/arm-2012.09/bin/../arm-none-eabi/lib//libc.a(lib_a-strtok_r.o)
                                                  /home/leon/riotboard/arm-2012.09/bin/../arm-none-eabi/lib//libc.a(lib_a-strtok.o)
__subdf3                                          /home/leon/riotboard/arm-2012.09/bin/../lib/gcc/arm-none-eabi/4.7.2//libgcc.a(_arm_addsubdf3.o)
__swbuf                                           /home/leon/riotboard/arm-2012.09/bin/../arm-none-eabi/lib//libc.a(lib_a-wbuf.o)
__swbuf_r                                         /home/leon/riotboard/arm-2012.09/bin/../arm-none-eabi/lib//libc.a(lib_a-wbuf.o)
                                                  /home/leon/riotboard/arm-2012.09/bin/../arm-none-eabi/lib//libc.a(lib_a-fputwc.o)
                                                  /home/leon/riotboard/arm-2012.09/bin/../arm-none-eabi/lib//libc.a(lib_a-putc.o)
__swrite                                          /home/leon/riotboard/arm-2012.09/bin/../arm-none-eabi/lib//libc.a(lib_a-stdio.o)
                                                  /home/leon/riotboard/arm-2012.09/bin/../arm-none-eabi/lib//libc.a(lib_a-findfp.o)
__swsetup_r                                       /home/leon/riotboard/arm-2012.09/bin/../arm-none-eabi/lib//libc.a(lib_a-wsetup.o)
                                                  /home/leon/riotboard/arm-2012.09/bin/../arm-none-eabi/lib//libc.a(lib_a-fvwrite.o)
                                                  /home/leon/riotboard/arm-2012.09/bin/../arm-none-eabi/lib//libc.a(lib_a-wbuf.o)
                                                  /home/leon/riotboard/arm-2012.09/bin/../arm-none-eabi/lib//libc.a(lib_a-vfprintf.o)
                                                  /home/leon/riotboard/arm-2012.09/bin/../arm-none-eabi/lib//libc.a(lib_a-vfiprintf.o)
__udivdi3                                         /home/leon/riotboard/arm-2012.09/bin/../lib/gcc/arm-none-eabi/4.7.2//libgcc.a(_udivdi3.o)
                                                  /home/leon/riotboard/arm-2012.09/bin/../lib/gcc/arm-none-eabi/4.7.2//libgcc.a(bpabi.o)
__udivsi3                                         /home/leon/riotboard/arm-2012.09/bin/../lib/gcc/arm-none-eabi/4.7.2//libgcc.a(_udivsi3.o)
__ulp                                             /home/leon/riotboard/arm-2012.09/bin/../arm-none-eabi/lib//libc.a(lib_a-mprec.o)
__wctomb                                          /home/leon/riotboard/arm-2012.09/bin/../arm-none-eabi/lib//libc.a(lib_a-wctomb_r.o)
                                                  /home/leon/riotboard/arm-2012.09/bin/../arm-none-eabi/lib//libc.a(lib_a-wcrtomb.o)
_calloc_r                                         /home/leon/riotboard/arm-2012.09/bin/../arm-none-eabi/lib//libc.a(lib_a-callocr.o)
                                                  /home/leon/riotboard/arm-2012.09/bin/../arm-none-eabi/lib//libc.a(lib_a-mprec.o)
_cleanup                                          /home/leon/riotboard/arm-2012.09/bin/../arm-none-eabi/lib//libc.a(lib_a-findfp.o)
_cleanup_r                                        /home/leon/riotboard/arm-2012.09/bin/../arm-none-eabi/lib//libc.a(lib_a-findfp.o)
                                                  /home/leon/riotboard/arm-2012.09/bin/../arm-none-eabi/lib//libc.a(lib_a-makebuf.o)
_close                                            /home/leon/git/swp-report/iMX6_Platform_SDK/output/mx6sl/lib/libsdk.a(runtime_support.o)
                                                  /home/leon/riotboard/arm-2012.09/bin/../arm-none-eabi/lib//libc.a(lib_a-closer.o)
_close_r                                          /home/leon/riotboard/arm-2012.09/bin/../arm-none-eabi/lib//libc.a(lib_a-closer.o)
                                                  /home/leon/riotboard/arm-2012.09/bin/../arm-none-eabi/lib//libc.a(lib_a-stdio.o)
_ctype_                                           /home/leon/riotboard/arm-2012.09/bin/../arm-none-eabi/lib//libc.a(lib_a-ctype_.o)
_dtoa_r                                           /home/leon/riotboard/arm-2012.09/bin/../arm-none-eabi/lib//libc.a(lib_a-dtoa.o)
                                                  /home/leon/riotboard/arm-2012.09/bin/../arm-none-eabi/lib//libc.a(lib_a-vfprintf.o)
                                                  /home/leon/riotboard/arm-2012.09/bin/../arm-none-eabi/lib//libc.a(lib_a-svfprintf.o)
_execve                                           /home/leon/git/swp-report/iMX6_Platform_SDK/output/mx6sl/lib/libsdk.a(runtime_support.o)
_exit                                             /home/leon/git/swp-report/iMX6_Platform_SDK/output/mx6sl/lib/libsdk.a(runtime_support.o)
                                                  /home/leon/riotboard/arm-2012.09/bin/../arm-none-eabi/lib//libc.a(lib_a-abort.o)
_fclose_r                                         /home/leon/riotboard/arm-2012.09/bin/../arm-none-eabi/lib//libc.a(lib_a-fclose.o)
_fflush_r                                         /home/leon/riotboard/arm-2012.09/bin/../arm-none-eabi/lib//libc.a(lib_a-fflush.o)
                                                  /home/leon/riotboard/arm-2012.09/bin/../arm-none-eabi/lib//libc.a(lib_a-fclose.o)
                                                  /home/leon/riotboard/arm-2012.09/bin/../arm-none-eabi/lib//libc.a(lib_a-refill.o)
                                                  /home/leon/riotboard/arm-2012.09/bin/../arm-none-eabi/lib//libc.a(lib_a-fvwrite.o)
                                                  /home/leon/riotboard/arm-2012.09/bin/../arm-none-eabi/lib//libc.a(lib_a-wbuf.o)
                                                  /home/leon/riotboard/arm-2012.09/bin/../arm-none-eabi/lib//libc.a(lib_a-vfprintf.o)
                                                  /home/leon/riotboard/arm-2012.09/bin/../arm-none-eabi/lib//libc.a(lib_a-vfiprintf.o)
_fini                                             /home/leon/riotboard/arm-2012.09/bin/../lib/gcc/arm-none-eabi/4.7.2//crti.o
_fiprintf_r                                       /home/leon/riotboard/arm-2012.09/bin/../arm-none-eabi/lib//libc.a(lib_a-fiprintf.o)
_fork                                             /home/leon/git/swp-report/iMX6_Platform_SDK/output/mx6sl/lib/libsdk.a(runtime_support.o)
_fputc_r                                          /home/leon/riotboard/arm-2012.09/bin/../arm-none-eabi/lib//libc.a(lib_a-fputc.o)
_fputwc_r                                         /home/leon/riotboard/arm-2012.09/bin/../arm-none-eabi/lib//libc.a(lib_a-fputwc.o)
                                                  /home/leon/riotboard/arm-2012.09/bin/../arm-none-eabi/lib//libc.a(lib_a-vfiprintf.o)
_free_r                                           /home/leon/riotboard/arm-2012.09/bin/../arm-none-eabi/lib//libc.a(lib_a-freer.o)
                                                  /home/leon/riotboard/arm-2012.09/bin/../arm-none-eabi/lib//libc.a(lib_a-fclose.o)
                                                  /home/leon/riotboard/arm-2012.09/bin/../arm-none-eabi/lib//libc.a(lib_a-svfiprintf.o)
                                                  /home/leon/riotboard/arm-2012.09/bin/../arm-none-eabi/lib//libc.a(lib_a-refill.o)
                                                  /home/leon/riotboard/arm-2012.09/bin/../arm-none-eabi/lib//libc.a(lib_a-reent.o)
                                                  /home/leon/riotboard/arm-2012.09/bin/../arm-none-eabi/lib//libc.a(lib_a-fvwrite.o)
                                                  /home/leon/riotboard/arm-2012.09/bin/../arm-none-eabi/lib//libc.a(lib_a-fflush.o)
                                                  /home/leon/riotboard/arm-2012.09/bin/../arm-none-eabi/lib//libc.a(lib_a-wsetup.o)
                                                  /home/leon/riotboard/arm-2012.09/bin/../arm-none-eabi/lib//libc.a(lib_a-reallocr.o)
                                                  /home/leon/riotboard/arm-2012.09/bin/../arm-none-eabi/lib//libc.a(lib_a-mallocr.o)
                                                  /home/leon/riotboard/arm-2012.09/bin/../arm-none-eabi/lib//libc.a(lib_a-malloc.o)
_fstat                                            /home/leon/git/swp-report/iMX6_Platform_SDK/output/mx6sl/lib/libsdk.a(runtime_support.o)
                                                  /home/leon/riotboard/arm-2012.09/bin/../arm-none-eabi/lib//libc.a(lib_a-fstatr.o)
_fstat_r                                          /home/leon/riotboard/arm-2012.09/bin/../arm-none-eabi/lib//libc.a(lib_a-fstatr.o)
                                                  /home/leon/riotboard/arm-2012.09/bin/../arm-none-eabi/lib//libc.a(lib_a-makebuf.o)
_fwalk                                            /home/leon/riotboard/arm-2012.09/bin/../arm-none-eabi/lib//libc.a(lib_a-fwalk.o)
                                                  /home/leon/riotboard/arm-2012.09/bin/../arm-none-eabi/lib//libc.a(lib_a-refill.o)
                                                  /home/leon/riotboard/arm-2012.09/bin/../arm-none-eabi/lib//libc.a(lib_a-findfp.o)
_fwalk_reent                                      /home/leon/riotboard/arm-2012.09/bin/../arm-none-eabi/lib//libc.a(lib_a-fwalk.o)
                                                  /home/leon/riotboard/arm-2012.09/bin/../arm-none-eabi/lib//libc.a(lib_a-fflush.o)
_getpid                                           /home/leon/git/swp-report/iMX6_Platform_SDK/output/mx6sl/lib/libsdk.a(runtime_support.o)
                                                  /home/leon/riotboard/arm-2012.09/bin/../arm-none-eabi/lib//libc.a(lib_a-signalr.o)
_getpid_r                                         /home/leon/riotboard/arm-2012.09/bin/../arm-none-eabi/lib//libc.a(lib_a-signalr.o)
                                                  /home/leon/riotboard/arm-2012.09/bin/../arm-none-eabi/lib//libc.a(lib_a-signal.o)
_gettimeofday                                     /home/leon/git/swp-report/iMX6_Platform_SDK/output/mx6sl/lib/libsdk.a(runtime_support.o)
_global_impure_ptr                                /home/leon/riotboard/arm-2012.09/bin/../arm-none-eabi/lib//libc.a(lib_a-impure.o)
                                                  /home/leon/riotboard/arm-2012.09/bin/../arm-none-eabi/lib//libc.a(lib_a-refill.o)
                                                  /home/leon/riotboard/arm-2012.09/bin/../arm-none-eabi/lib//libc.a(lib_a-findfp.o)
                                                  /home/leon/riotboard/arm-2012.09/bin/../arm-none-eabi/lib//libc.a(lib_a-fflush.o)
_image_size                                       /home/leon/git/swp-report/iMX6_Platform_SDK/output/mx6sl/obds/evk_rev_a/obj/apps/common/ivt.o
_impure_ptr                                       /home/leon/riotboard/arm-2012.09/bin/../arm-none-eabi/lib//libc.a(lib_a-impure.o)
                                                  /home/leon/riotboard/arm-2012.09/bin/../arm-none-eabi/lib//libc.a(lib_a-fclose.o)
                                                  /home/leon/riotboard/arm-2012.09/bin/../arm-none-eabi/lib//libc.a(lib_a-wcrtomb.o)
                                                  /home/leon/riotboard/arm-2012.09/bin/../arm-none-eabi/lib//libc.a(lib_a-signal.o)
                                                  /home/leon/riotboard/arm-2012.09/bin/../arm-none-eabi/lib//libc.a(lib_a-reent.o)
                                                  /home/leon/riotboard/arm-2012.09/bin/../arm-none-eabi/lib//libc.a(lib_a-locale.o)
                                                  /home/leon/riotboard/arm-2012.09/bin/../arm-none-eabi/lib//libc.a(lib_a-fputwc.o)
                                                  /home/leon/riotboard/arm-2012.09/bin/../arm-none-eabi/lib//libc.a(lib_a-findfp.o)
                                                  /home/leon/riotboard/arm-2012.09/bin/../arm-none-eabi/lib//libc.a(lib_a-fflush.o)
                                                  /home/leon/riotboard/arm-2012.09/bin/../arm-none-eabi/lib//libc.a(lib_a-wsetup.o)
                                                  /home/leon/riotboard/arm-2012.09/bin/../arm-none-eabi/lib//libc.a(lib_a-wbuf.o)
                                                  /home/leon/riotboard/arm-2012.09/bin/../arm-none-eabi/lib//libc.a(lib_a-vprintf.o)
                                                  /home/leon/riotboard/arm-2012.09/bin/../arm-none-eabi/lib//libc.a(lib_a-vfprintf.o)
                                                  /home/leon/riotboard/arm-2012.09/bin/../arm-none-eabi/lib//libc.a(lib_a-vfiprintf.o)
                                                  /home/leon/riotboard/arm-2012.09/bin/../arm-none-eabi/lib//libc.a(lib_a-strtok.o)
                                                  /home/leon/riotboard/arm-2012.09/bin/../arm-none-eabi/lib//libc.a(lib_a-sprintf.o)
                                                  /home/leon/riotboard/arm-2012.09/bin/../arm-none-eabi/lib//libc.a(lib_a-rget.o)
                                                  /home/leon/riotboard/arm-2012.09/bin/../arm-none-eabi/lib//libc.a(lib_a-realloc.o)
                                                  /home/leon/riotboard/arm-2012.09/bin/../arm-none-eabi/lib//libc.a(lib_a-putc.o)
                                                  /home/leon/riotboard/arm-2012.09/bin/../arm-none-eabi/lib//libc.a(lib_a-printf.o)
                                                  /home/leon/riotboard/arm-2012.09/bin/../arm-none-eabi/lib//libc.a(lib_a-malloc.o)
                                                  /home/leon/riotboard/arm-2012.09/bin/../arm-none-eabi/lib//libc.a(lib_a-fputc.o)
                                                  /home/leon/riotboard/arm-2012.09/bin/../arm-none-eabi/lib//libc.a(lib_a-fiprintf.o)
                                                  /home/leon/riotboard/arm-2012.09/bin/../arm-none-eabi/lib//libc.a(lib_a-assert.o)
                                                  /home/leon/git/swp-report/iMX6_Platform_SDK/output/mx6sl/lib/libsdk.a(usb_common.o)
                                                  /home/leon/git/swp-report/iMX6_Platform_SDK/output/mx6sl/lib/libsdk.a(lcdif_drv.o)
                                                  /home/leon/git/swp-report/iMX6_Platform_SDK/output/mx6sl/lib/libsdk.a(system_util.o)
                                                  /home/leon/git/swp-report/iMX6_Platform_SDK/output/mx6sl/lib/libsdk.a(menu.o)
                                                  /home/leon/git/swp-report/iMX6_Platform_SDK/output/mx6sl/obds/evk_rev_a/obj/sdk/drivers/usdhc/test/usdhc_test.o
                                                  /home/leon/git/swp-report/iMX6_Platform_SDK/output/mx6sl/obds/evk_rev_a/obj/sdk/drivers/uart/test/uart_test.o
                                                  /home/leon/git/swp-report/iMX6_Platform_SDK/output/mx6sl/obds/evk_rev_a/obj/sdk/drivers/lcdif/test/lcdif_display.o
                                                  /home/leon/git/swp-report/iMX6_Platform_SDK/output/mx6sl/obds/evk_rev_a/obj/sdk/drivers/epdc/test/epdc_test.o
                                                  /home/leon/git/swp-report/iMX6_Platform_SDK/output/mx6sl/obds/evk_rev_a/obj/sdk/drivers/camera/test/csi_sensor_capture.o
                                                  /home/leon/git/swp-report/iMX6_Platform_SDK/output/mx6sl/obds/evk_rev_a/obj/sdk/drivers/camera/test/camera_test.o
                                                  /home/leon/git/swp-report/iMX6_Platform_SDK/output/mx6sl/obds/evk_rev_a/obj/apps/obds/src/tests/touch_screen_max11801.o
                                                  /home/leon/git/swp-report/iMX6_Platform_SDK/output/mx6sl/obds/evk_rev_a/obj/apps/obds/src/tests/touch_screen.o
                                                  /home/leon/git/swp-report/iMX6_Platform_SDK/output/mx6sl/obds/evk_rev_a/obj/apps/obds/src/tests/program_mac_address.o
                                                  /home/leon/git/swp-report/iMX6_Platform_SDK/output/mx6sl/obds/evk_rev_a/obj/apps/obds/src/tests/pmic_lt3589.o
                                                  /home/leon/git/swp-report/iMX6_Platform_SDK/output/mx6sl/obds/evk_rev_a/obj/apps/obds/src/tests/i2c_device_id_check_mma8451.o
                                                  /home/leon/git/swp-report/iMX6_Platform_SDK/output/mx6sl/obds/evk_rev_a/obj/apps/obds/src/tests/i2c_device_id_check_mma8450.o
                                                  /home/leon/git/swp-report/iMX6_Platform_SDK/output/mx6sl/obds/evk_rev_a/obj/apps/obds/src/tests/i2c_check_light_sensor_isl29023.o
                                                  /home/leon/git/swp-report/iMX6_Platform_SDK/output/mx6sl/obds/evk_rev_a/obj/apps/obds/src/tests/gpio_led.o
                                                  /home/leon/git/swp-report/iMX6_Platform_SDK/output/mx6sl/obds/evk_rev_a/obj/apps/obds/src/tests/audio_ssi_test.o
_init                                             /home/leon/riotboard/arm-2012.09/bin/../lib/gcc/arm-none-eabi/4.7.2//crti.o
                                                  /home/leon/riotboard/arm-2012.09/bin/../arm-none-eabi/lib//libc.a(lib_a-init.o)
_init_signal                                      /home/leon/riotboard/arm-2012.09/bin/../arm-none-eabi/lib//libc.a(lib_a-signal.o)
_init_signal_r                                    /home/leon/riotboard/arm-2012.09/bin/../arm-none-eabi/lib//libc.a(lib_a-signal.o)
_isatty                                           /home/leon/git/swp-report/iMX6_Platform_SDK/output/mx6sl/lib/libsdk.a(runtime_support.o)
                                                  /home/leon/riotboard/arm-2012.09/bin/../arm-none-eabi/lib//libc.a(lib_a-isattyr.o)
_isatty_r                                         /home/leon/riotboard/arm-2012.09/bin/../arm-none-eabi/lib//libc.a(lib_a-isattyr.o)
                                                  /home/leon/riotboard/arm-2012.09/bin/../arm-none-eabi/lib//libc.a(lib_a-makebuf.o)
_kill                                             /home/leon/git/swp-report/iMX6_Platform_SDK/output/mx6sl/lib/libsdk.a(runtime_support.o)
                                                  /home/leon/riotboard/arm-2012.09/bin/../arm-none-eabi/lib//libc.a(lib_a-signalr.o)
_kill_r                                           /home/leon/riotboard/arm-2012.09/bin/../arm-none-eabi/lib//libc.a(lib_a-signalr.o)
                                                  /home/leon/riotboard/arm-2012.09/bin/../arm-none-eabi/lib//libc.a(lib_a-signal.o)
_link                                             /home/leon/git/swp-report/iMX6_Platform_SDK/output/mx6sl/lib/libsdk.a(runtime_support.o)
_localeconv_r                                     /home/leon/riotboard/arm-2012.09/bin/../arm-none-eabi/lib//libc.a(lib_a-locale.o)
                                                  /home/leon/riotboard/arm-2012.09/bin/../arm-none-eabi/lib//libc.a(lib_a-vfprintf.o)
                                                  /home/leon/riotboard/arm-2012.09/bin/../arm-none-eabi/lib//libc.a(lib_a-svfprintf.o)
_lseek                                            /home/leon/git/swp-report/iMX6_Platform_SDK/output/mx6sl/lib/libsdk.a(runtime_support.o)
                                                  /home/leon/riotboard/arm-2012.09/bin/../arm-none-eabi/lib//libc.a(lib_a-lseekr.o)
_lseek_r                                          /home/leon/riotboard/arm-2012.09/bin/../arm-none-eabi/lib//libc.a(lib_a-lseekr.o)
                                                  /home/leon/riotboard/arm-2012.09/bin/../arm-none-eabi/lib//libc.a(lib_a-stdio.o)
_malloc_r                                         /home/leon/riotboard/arm-2012.09/bin/../arm-none-eabi/lib//libc.a(lib_a-mallocr.o)
                                                  /home/leon/riotboard/arm-2012.09/bin/../arm-none-eabi/lib//libc.a(lib_a-callocr.o)
                                                  /home/leon/riotboard/arm-2012.09/bin/../arm-none-eabi/lib//libc.a(lib_a-svfiprintf.o)
                                                  /home/leon/riotboard/arm-2012.09/bin/../arm-none-eabi/lib//libc.a(lib_a-signal.o)
                                                  /home/leon/riotboard/arm-2012.09/bin/../arm-none-eabi/lib//libc.a(lib_a-makebuf.o)
                                                  /home/leon/riotboard/arm-2012.09/bin/../arm-none-eabi/lib//libc.a(lib_a-fvwrite.o)
                                                  /home/leon/riotboard/arm-2012.09/bin/../arm-none-eabi/lib//libc.a(lib_a-findfp.o)
                                                  /home/leon/riotboard/arm-2012.09/bin/../arm-none-eabi/lib//libc.a(lib_a-svfprintf.o)
                                                  /home/leon/riotboard/arm-2012.09/bin/../arm-none-eabi/lib//libc.a(lib_a-reallocr.o)
                                                  /home/leon/riotboard/arm-2012.09/bin/../arm-none-eabi/lib//libc.a(lib_a-malloc.o)
_malloc_trim_r                                    /home/leon/riotboard/arm-2012.09/bin/../arm-none-eabi/lib//libc.a(lib_a-freer.o)
_mprec_log10                                      /home/leon/riotboard/arm-2012.09/bin/../arm-none-eabi/lib//libc.a(lib_a-mprec.o)
_open                                             /home/leon/git/swp-report/iMX6_Platform_SDK/output/mx6sl/lib/libsdk.a(runtime_support.o)
_printf_r                                         /home/leon/riotboard/arm-2012.09/bin/../arm-none-eabi/lib//libc.a(lib_a-printf.o)
_putc_r                                           /home/leon/riotboard/arm-2012.09/bin/../arm-none-eabi/lib//libc.a(lib_a-putc.o)
                                                  /home/leon/riotboard/arm-2012.09/bin/../arm-none-eabi/lib//libc.a(lib_a-fputc.o)
_raise_r                                          /home/leon/riotboard/arm-2012.09/bin/../arm-none-eabi/lib//libc.a(lib_a-signal.o)
_raw_puts                                         /home/leon/git/swp-report/iMX6_Platform_SDK/output/mx6sl/lib/libsdk.a(runtime_support.o)
_read                                             /home/leon/git/swp-report/iMX6_Platform_SDK/output/mx6sl/lib/libsdk.a(runtime_support.o)
                                                  /home/leon/riotboard/arm-2012.09/bin/../arm-none-eabi/lib//libc.a(lib_a-readr.o)
_read_r                                           /home/leon/riotboard/arm-2012.09/bin/../arm-none-eabi/lib//libc.a(lib_a-readr.o)
                                                  /home/leon/riotboard/arm-2012.09/bin/../arm-none-eabi/lib//libc.a(lib_a-stdio.o)
_realloc_r                                        /home/leon/riotboard/arm-2012.09/bin/../arm-none-eabi/lib//libc.a(lib_a-reallocr.o)
                                                  /home/leon/riotboard/arm-2012.09/bin/../arm-none-eabi/lib//libc.a(lib_a-svfiprintf.o)
                                                  /home/leon/riotboard/arm-2012.09/bin/../arm-none-eabi/lib//libc.a(lib_a-fvwrite.o)
                                                  /home/leon/riotboard/arm-2012.09/bin/../arm-none-eabi/lib//libc.a(lib_a-realloc.o)
_reclaim_reent                                    /home/leon/riotboard/arm-2012.09/bin/../arm-none-eabi/lib//libc.a(lib_a-reent.o)
_sbrk                                             /home/leon/git/swp-report/iMX6_Platform_SDK/output/mx6sl/lib/libsdk.a(runtime_support.o)
                                                  /home/leon/riotboard/arm-2012.09/bin/../arm-none-eabi/lib//libc.a(lib_a-sbrkr.o)
_sbrk_r                                           /home/leon/riotboard/arm-2012.09/bin/../arm-none-eabi/lib//libc.a(lib_a-sbrkr.o)
                                                  /home/leon/riotboard/arm-2012.09/bin/../arm-none-eabi/lib//libc.a(lib_a-freer.o)
                                                  /home/leon/riotboard/arm-2012.09/bin/../arm-none-eabi/lib//libc.a(lib_a-mallocr.o)
_setlocale_r                                      /home/leon/riotboard/arm-2012.09/bin/../arm-none-eabi/lib//libc.a(lib_a-locale.o)
_signal_r                                         /home/leon/riotboard/arm-2012.09/bin/../arm-none-eabi/lib//libc.a(lib_a-signal.o)
_sprintf_r                                        /home/leon/riotboard/arm-2012.09/bin/../arm-none-eabi/lib//libc.a(lib_a-sprintf.o)
_start                                            /home/leon/git/swp-report/iMX6_Platform_SDK/output/mx6sl/lib/libsdk.a(startup.o)
                                                  /home/leon/git/swp-report/iMX6_Platform_SDK/output/mx6sl/lib/libsdk.a(vectors.o)
                                                  /home/leon/git/swp-report/iMX6_Platform_SDK/output/mx6sl/obds/evk_rev_a/obj/apps/common/ivt.o
_start_image_add                                  /home/leon/git/swp-report/iMX6_Platform_SDK/output/mx6sl/obds/evk_rev_a/obj/apps/common/ivt.o
_stat                                             /home/leon/git/swp-report/iMX6_Platform_SDK/output/mx6sl/lib/libsdk.a(runtime_support.o)
_svfiprintf_r                                     /home/leon/riotboard/arm-2012.09/bin/../arm-none-eabi/lib//libc.a(lib_a-svfiprintf.o)
_svfprintf_r                                      /home/leon/riotboard/arm-2012.09/bin/../arm-none-eabi/lib//libc.a(lib_a-svfprintf.o)
                                                  /home/leon/riotboard/arm-2012.09/bin/../arm-none-eabi/lib//libc.a(lib_a-sprintf.o)
_sys_exit                                         /home/leon/git/swp-report/iMX6_Platform_SDK/output/mx6sl/lib/libsdk.a(system_util.o)
                                                  /home/leon/git/swp-report/iMX6_Platform_SDK/output/mx6sl/lib/libsdk.a(runtime_support.o)
                                                  /home/leon/git/swp-report/iMX6_Platform_SDK/output/mx6sl/lib/libsdk.a(startup.o)
_times                                            /home/leon/git/swp-report/iMX6_Platform_SDK/output/mx6sl/lib/libsdk.a(runtime_support.o)
_unlink                                           /home/leon/git/swp-report/iMX6_Platform_SDK/output/mx6sl/lib/libsdk.a(runtime_support.o)
_vfiprintf_r                                      /home/leon/riotboard/arm-2012.09/bin/../arm-none-eabi/lib//libc.a(lib_a-vfiprintf.o)
                                                  /home/leon/riotboard/arm-2012.09/bin/../arm-none-eabi/lib//libc.a(lib_a-fiprintf.o)
_vfprintf_r                                       /home/leon/riotboard/arm-2012.09/bin/../arm-none-eabi/lib//libc.a(lib_a-vfprintf.o)
                                                  /home/leon/riotboard/arm-2012.09/bin/../arm-none-eabi/lib//libc.a(lib_a-vprintf.o)
                                                  /home/leon/riotboard/arm-2012.09/bin/../arm-none-eabi/lib//libc.a(lib_a-printf.o)
_vprintf_r                                        /home/leon/riotboard/arm-2012.09/bin/../arm-none-eabi/lib//libc.a(lib_a-vprintf.o)
_wait                                             /home/leon/git/swp-report/iMX6_Platform_SDK/output/mx6sl/lib/libsdk.a(runtime_support.o)
_wcrtomb_r                                        /home/leon/riotboard/arm-2012.09/bin/../arm-none-eabi/lib//libc.a(lib_a-wcrtomb.o)
                                                  /home/leon/riotboard/arm-2012.09/bin/../arm-none-eabi/lib//libc.a(lib_a-fputwc.o)
_wctomb_r                                         /home/leon/riotboard/arm-2012.09/bin/../arm-none-eabi/lib//libc.a(lib_a-wctomb_r.o)
_wrapup_reent                                     /home/leon/riotboard/arm-2012.09/bin/../arm-none-eabi/lib//libc.a(lib_a-reent.o)
_write                                            /home/leon/git/swp-report/iMX6_Platform_SDK/output/mx6sl/lib/libsdk.a(runtime_support.o)
                                                  /home/leon/riotboard/arm-2012.09/bin/../arm-none-eabi/lib//libc.a(lib_a-writer.o)
_write_r                                          /home/leon/riotboard/arm-2012.09/bin/../arm-none-eabi/lib//libc.a(lib_a-writer.o)
                                                  /home/leon/riotboard/arm-2012.09/bin/../arm-none-eabi/lib//libc.a(lib_a-stdio.o)
abort                                             /home/leon/riotboard/arm-2012.09/bin/../arm-none-eabi/lib//libc.a(lib_a-abort.o)
                                                  /home/leon/git/swp-report/iMX6_Platform_SDK/output/mx6sl/lib/libsdk.a(runtime_support.o)
                                                  /home/leon/riotboard/arm-2012.09/bin/../arm-none-eabi/lib//libc.a(lib_a-assert.o)
arm_branch_prediction_disable                     /home/leon/git/swp-report/iMX6_Platform_SDK/output/mx6sl/lib/libsdk.a(cortexA9.o)
arm_branch_prediction_enable                      /home/leon/git/swp-report/iMX6_Platform_SDK/output/mx6sl/lib/libsdk.a(cortexA9.o)
arm_branch_target_cache_invalidate                /home/leon/git/swp-report/iMX6_Platform_SDK/output/mx6sl/lib/libsdk.a(cortexA9.o)
arm_branch_target_cache_invalidate_is             /home/leon/git/swp-report/iMX6_Platform_SDK/output/mx6sl/lib/libsdk.a(cortexA9.o)
arm_dcache_disable                                /home/leon/git/swp-report/iMX6_Platform_SDK/output/mx6sl/lib/libsdk.a(armv7_cache.o)
arm_dcache_enable                                 /home/leon/git/swp-report/iMX6_Platform_SDK/output/mx6sl/lib/libsdk.a(armv7_cache.o)
arm_dcache_flush                                  /home/leon/git/swp-report/iMX6_Platform_SDK/output/mx6sl/lib/libsdk.a(armv7_cache.o)
arm_dcache_flush_line                             /home/leon/git/swp-report/iMX6_Platform_SDK/output/mx6sl/lib/libsdk.a(armv7_cache.o)
arm_dcache_flush_mlines                           /home/leon/git/swp-report/iMX6_Platform_SDK/output/mx6sl/lib/libsdk.a(armv7_cache.o)
                                                  /home/leon/git/swp-report/iMX6_Platform_SDK/output/mx6sl/lib/libsdk.a(usdhc.o)
arm_dcache_invalidate                             /home/leon/git/swp-report/iMX6_Platform_SDK/output/mx6sl/lib/libsdk.a(armv7_cache.o)
arm_dcache_invalidate_line                        /home/leon/git/swp-report/iMX6_Platform_SDK/output/mx6sl/lib/libsdk.a(armv7_cache.o)
arm_dcache_invalidate_mlines                      /home/leon/git/swp-report/iMX6_Platform_SDK/output/mx6sl/lib/libsdk.a(armv7_cache.o)
                                                  /home/leon/git/swp-report/iMX6_Platform_SDK/output/mx6sl/lib/libsdk.a(usdhc.o)
arm_dcache_state_query                            /home/leon/git/swp-report/iMX6_Platform_SDK/output/mx6sl/lib/libsdk.a(armv7_cache.o)
                                                  /home/leon/git/swp-report/iMX6_Platform_SDK/output/mx6sl/lib/libsdk.a(usdhc.o)
arm_icache_disable                                /home/leon/git/swp-report/iMX6_Platform_SDK/output/mx6sl/lib/libsdk.a(armv7_cache.o)
arm_icache_enable                                 /home/leon/git/swp-report/iMX6_Platform_SDK/output/mx6sl/lib/libsdk.a(armv7_cache.o)
arm_icache_invalidate                             /home/leon/git/swp-report/iMX6_Platform_SDK/output/mx6sl/lib/libsdk.a(armv7_cache.o)
arm_icache_invalidate_is                          /home/leon/git/swp-report/iMX6_Platform_SDK/output/mx6sl/lib/libsdk.a(armv7_cache.o)
arm_icache_invalidate_line                        /home/leon/git/swp-report/iMX6_Platform_SDK/output/mx6sl/lib/libsdk.a(armv7_cache.o)
arm_icache_invalidate_mlines                      /home/leon/git/swp-report/iMX6_Platform_SDK/output/mx6sl/lib/libsdk.a(armv7_cache.o)
arm_icache_state_query                            /home/leon/git/swp-report/iMX6_Platform_SDK/output/mx6sl/lib/libsdk.a(armv7_cache.o)
arm_iomux_config                                  /home/leon/git/swp-report/iMX6_Platform_SDK/output/mx6sl/lib/libboard_evk_rev_a.a(iomux_config.o)
arm_set_interrupt_state                           /home/leon/git/swp-report/iMX6_Platform_SDK/output/mx6sl/lib/libsdk.a(cortexA9.o)
                                                  /home/leon/git/swp-report/iMX6_Platform_SDK/output/mx6sl/obds/evk_rev_a/obj/apps/common/platform_init.o
arm_unified_tlb_invalidate                        /home/leon/git/swp-report/iMX6_Platform_SDK/output/mx6sl/lib/libsdk.a(cortexA9.o)
                                                  /home/leon/git/swp-report/iMX6_Platform_SDK/output/mx6sl/lib/libsdk.a(mmu.o)
arm_unified_tlb_invalidate_is                     /home/leon/git/swp-report/iMX6_Platform_SDK/output/mx6sl/lib/libsdk.a(cortexA9.o)
audio_clock_config                                /home/leon/git/swp-report/iMX6_Platform_SDK/output/mx6sl/lib/libboard_evk_rev_a.a(board_audio.o)
                                                  /home/leon/git/swp-report/iMX6_Platform_SDK/output/mx6sl/obds/evk_rev_a/obj/apps/obds/src/tests/audio_ssi_test.o
audio_codec_power_on                              /home/leon/git/swp-report/iMX6_Platform_SDK/output/mx6sl/lib/libboard_evk_rev_a.a(board_audio.o)
                                                  /home/leon/git/swp-report/iMX6_Platform_SDK/output/mx6sl/lib/libsdk.a(smd_sensor.o)
                                                  /home/leon/git/swp-report/iMX6_Platform_SDK/output/mx6sl/obds/evk_rev_a/obj/apps/obds/src/tests/audio_ssi_test.o
audio_record_buf                                  /home/leon/git/swp-report/iMX6_Platform_SDK/output/mx6sl/obds/evk_rev_a/obj/apps/obds/src/tests/audio_ssi_test.o
audio_test_init                                   /home/leon/git/swp-report/iMX6_Platform_SDK/output/mx6sl/obds/evk_rev_a/obj/apps/obds/src/tests/audio_ssi_test.o
audmux_iomux_config                               /home/leon/git/swp-report/iMX6_Platform_SDK/output/mx6sl/lib/libboard_evk_rev_a.a(audmux_iomux_config.o)
                                                  /home/leon/git/swp-report/iMX6_Platform_SDK/output/mx6sl/lib/libboard_evk_rev_a.a(iomux_config.o)
                                                  /home/leon/git/swp-report/iMX6_Platform_SDK/output/mx6sl/lib/libsdk.a(imx-ssi.o)
audmux_port_set                                   /home/leon/git/swp-report/iMX6_Platform_SDK/output/mx6sl/lib/libsdk.a(imx_audmux.o)
audmux_route                                      /home/leon/git/swp-report/iMX6_Platform_SDK/output/mx6sl/lib/libsdk.a(imx_audmux.o)
                                                  /home/leon/git/swp-report/iMX6_Platform_SDK/output/mx6sl/obds/evk_rev_a/obj/apps/obds/src/tests/audio_ssi_test.o
auto_run_enable                                   /home/leon/git/swp-report/iMX6_Platform_SDK/output/mx6sl/obds/evk_rev_a/obj/apps/obds/src/obds.o
                                                  /home/leon/git/swp-report/iMX6_Platform_SDK/output/mx6sl/obds/evk_rev_a/obj/apps/obds/src/tests/i2c_eeprom_at24cxx_test.o
                                                  /home/leon/git/swp-report/iMX6_Platform_SDK/output/mx6sl/obds/evk_rev_a/obj/apps/obds/src/tests/gps_test.o
bd                                                /home/leon/git/swp-report/iMX6_Platform_SDK/output/mx6sl/obds/evk_rev_a/obj/apps/common/ivt.o
board_description                                 /home/leon/git/swp-report/iMX6_Platform_SDK/output/mx6sl/lib/libsdk.a(board_id.o)
board_ioexpander_init                             /home/leon/git/swp-report/iMX6_Platform_SDK/output/mx6sl/lib/libboard_evk_rev_a.a(board_io_expanders.o)
                                                  /home/leon/git/swp-report/iMX6_Platform_SDK/output/mx6sl/obds/evk_rev_a/obj/apps/common/platform_init.o
board_name                                        /home/leon/git/swp-report/iMX6_Platform_SDK/output/mx6sl/lib/libsdk.a(board_id.o)
                                                  /home/leon/git/swp-report/iMX6_Platform_SDK/output/mx6sl/obds/evk_rev_a/obj/apps/obds/src/tests/program_board_id.o
                                                  /home/leon/git/swp-report/iMX6_Platform_SDK/output/mx6sl/obds/evk_rev_a/obj/apps/obds/src/obds.o
                                                  /home/leon/git/swp-report/iMX6_Platform_SDK/output/mx6sl/obds/evk_rev_a/obj/apps/common/print_version.o
board_revision                                    /home/leon/git/swp-report/iMX6_Platform_SDK/output/mx6sl/lib/libsdk.a(board_id.o)
                                                  /home/leon/git/swp-report/iMX6_Platform_SDK/output/mx6sl/obds/evk_rev_a/obj/apps/obds/src/tests/program_board_id.o
                                                  /home/leon/git/swp-report/iMX6_Platform_SDK/output/mx6sl/obds/evk_rev_a/obj/apps/obds/src/obds.o
                                                  /home/leon/git/swp-report/iMX6_Platform_SDK/output/mx6sl/obds/evk_rev_a/obj/apps/common/print_version.o
buf                                               /home/leon/git/swp-report/iMX6_Platform_SDK/output/mx6sl/obds/evk_rev_a/obj/apps/obds/src/tests/i2c_device_zigbee_mc1323.o
bzero                                             /home/leon/riotboard/arm-2012.09/bin/../arm-none-eabi/lib//libc.a(lib_a-bzero.o)
                                                  /home/leon/git/swp-report/iMX6_Platform_SDK/output/mx6sl/lib/libsdk.a(mmu.o)
camera_power_on                                   /home/leon/git/swp-report/iMX6_Platform_SDK/output/mx6sl/lib/libboard_evk_rev_a.a(board_camera.o)
                                                  /home/leon/git/swp-report/iMX6_Platform_SDK/output/mx6sl/lib/libsdk.a(smd_sensor.o)
camera_strobeflash_off                            /home/leon/git/swp-report/iMX6_Platform_SDK/output/mx6sl/lib/libsdk.a(smd_sensor.o)
camera_strobeflash_on                             /home/leon/git/swp-report/iMX6_Platform_SDK/output/mx6sl/lib/libsdk.a(smd_sensor.o)
camera_test                                       /home/leon/git/swp-report/iMX6_Platform_SDK/output/mx6sl/obds/evk_rev_a/obj/sdk/drivers/camera/test/camera_test.o
                                                  /home/leon/git/swp-report/iMX6_Platform_SDK/output/mx6sl/obds/evk_rev_a/obj/apps/obds/src/obds.o
card_cmd_config                                   /home/leon/git/swp-report/iMX6_Platform_SDK/output/mx6sl/lib/libsdk.a(usdhc.o)
                                                  /home/leon/git/swp-report/iMX6_Platform_SDK/output/mx6sl/lib/libsdk.a(usdhc_sd.o)
                                                  /home/leon/git/swp-report/iMX6_Platform_SDK/output/mx6sl/lib/libsdk.a(usdhc_mmc.o)
card_data_read                                    /home/leon/git/swp-report/iMX6_Platform_SDK/output/mx6sl/lib/libsdk.a(usdhc.o)
                                                  /home/leon/git/swp-report/iMX6_Platform_SDK/output/mx6sl/obds/evk_rev_a/obj/sdk/drivers/usdhc/test/usdhc_test.o
card_data_write                                   /home/leon/git/swp-report/iMX6_Platform_SDK/output/mx6sl/lib/libsdk.a(usdhc.o)
                                                  /home/leon/git/swp-report/iMX6_Platform_SDK/output/mx6sl/obds/evk_rev_a/obj/sdk/drivers/usdhc/test/usdhc_test.o
card_detect_test_en                               /home/leon/git/swp-report/iMX6_Platform_SDK/output/mx6sl/lib/libsdk.a(usdhc.o)
                                                  /home/leon/git/swp-report/iMX6_Platform_SDK/output/mx6sl/obds/evk_rev_a/obj/apps/obds/src/tests/mmcsd_test.o
card_emmc_init                                    /home/leon/git/swp-report/iMX6_Platform_SDK/output/mx6sl/lib/libsdk.a(usdhc.o)
                                                  /home/leon/git/swp-report/iMX6_Platform_SDK/output/mx6sl/obds/evk_rev_a/obj/sdk/drivers/usdhc/test/usdhc_test.o
card_enter_trans                                  /home/leon/git/swp-report/iMX6_Platform_SDK/output/mx6sl/lib/libsdk.a(usdhc.o)
                                                  /home/leon/git/swp-report/iMX6_Platform_SDK/output/mx6sl/lib/libsdk.a(usdhc_sd.o)
                                                  /home/leon/git/swp-report/iMX6_Platform_SDK/output/mx6sl/lib/libsdk.a(usdhc_mmc.o)
card_get_cid                                      /home/leon/git/swp-report/iMX6_Platform_SDK/output/mx6sl/lib/libsdk.a(usdhc.o)
                                                  /home/leon/git/swp-report/iMX6_Platform_SDK/output/mx6sl/lib/libsdk.a(usdhc_sd.o)
                                                  /home/leon/git/swp-report/iMX6_Platform_SDK/output/mx6sl/lib/libsdk.a(usdhc_mmc.o)
card_get_port                                     /home/leon/git/swp-report/iMX6_Platform_SDK/output/mx6sl/lib/libsdk.a(usdhc.o)
                                                  /home/leon/git/swp-report/iMX6_Platform_SDK/output/mx6sl/lib/libsdk.a(usdhc_sd.o)
                                                  /home/leon/git/swp-report/iMX6_Platform_SDK/output/mx6sl/lib/libsdk.a(usdhc_mmc.o)
                                                  /home/leon/git/swp-report/iMX6_Platform_SDK/output/mx6sl/lib/libsdk.a(usdhc_host.o)
card_init                                         /home/leon/git/swp-report/iMX6_Platform_SDK/output/mx6sl/lib/libsdk.a(usdhc.o)
                                                  /home/leon/git/swp-report/iMX6_Platform_SDK/output/mx6sl/obds/evk_rev_a/obj/sdk/drivers/usdhc/test/usdhc_test.o
card_set_blklen                                   /home/leon/git/swp-report/iMX6_Platform_SDK/output/mx6sl/lib/libsdk.a(usdhc.o)
card_trans_status                                 /home/leon/git/swp-report/iMX6_Platform_SDK/output/mx6sl/lib/libsdk.a(usdhc.o)
                                                  /home/leon/git/swp-report/iMX6_Platform_SDK/output/mx6sl/lib/libsdk.a(usdhc_mmc.o)
card_wait_xfer_done                               /home/leon/git/swp-report/iMX6_Platform_SDK/output/mx6sl/lib/libsdk.a(usdhc.o)
card_xfer_result                                  /home/leon/git/swp-report/iMX6_Platform_SDK/output/mx6sl/lib/libsdk.a(usdhc.o)
                                                  /home/leon/git/swp-report/iMX6_Platform_SDK/output/mx6sl/obds/evk_rev_a/obj/sdk/drivers/usdhc/test/usdhc_test.o
ccm_ccgr_config                                   /home/leon/git/swp-report/iMX6_Platform_SDK/output/mx6sl/lib/libsdk.a(ccm_pll.o)
ccm_enter_low_power                               /home/leon/git/swp-report/iMX6_Platform_SDK/output/mx6sl/lib/libsdk.a(ccm_pll.o)
ccm_init                                          /home/leon/git/swp-report/iMX6_Platform_SDK/output/mx6sl/lib/libsdk.a(ccm_pll.o)
                                                  /home/leon/git/swp-report/iMX6_Platform_SDK/output/mx6sl/obds/evk_rev_a/obj/apps/common/platform_init.o
ccm_iomux_config                                  /home/leon/git/swp-report/iMX6_Platform_SDK/output/mx6sl/lib/libboard_evk_rev_a.a(iomux_config.o)
ccm_set_lpm_wakeup_source                         /home/leon/git/swp-report/iMX6_Platform_SDK/output/mx6sl/lib/libsdk.a(ccm_pll.o)
chip_name                                         /home/leon/git/swp-report/iMX6_Platform_SDK/output/mx6sl/lib/libsdk.a(board_id.o)
                                                  /home/leon/git/swp-report/iMX6_Platform_SDK/output/mx6sl/obds/evk_rev_a/obj/apps/obds/src/tests/program_board_id.o
                                                  /home/leon/git/swp-report/iMX6_Platform_SDK/output/mx6sl/obds/evk_rev_a/obj/apps/obds/src/obds.o
                                                  /home/leon/git/swp-report/iMX6_Platform_SDK/output/mx6sl/obds/evk_rev_a/obj/apps/common/print_version.o
chip_revision                                     /home/leon/git/swp-report/iMX6_Platform_SDK/output/mx6sl/lib/libsdk.a(board_id.o)
                                                  /home/leon/git/swp-report/iMX6_Platform_SDK/output/mx6sl/obds/evk_rev_a/obj/apps/obds/src/tests/program_board_id.o
                                                  /home/leon/git/swp-report/iMX6_Platform_SDK/output/mx6sl/obds/evk_rev_a/obj/apps/obds/src/obds.o
                                                  /home/leon/git/swp-report/iMX6_Platform_SDK/output/mx6sl/obds/evk_rev_a/obj/apps/common/print_version.o
cleanup_glue                                      /home/leon/riotboard/arm-2012.09/bin/../arm-none-eabi/lib//libc.a(lib_a-reent.o)
clock_gating_config                               /home/leon/git/swp-report/iMX6_Platform_SDK/output/mx6sl/lib/libsdk.a(ccm_pll.o)
                                                  /home/leon/git/swp-report/iMX6_Platform_SDK/output/mx6sl/lib/libsdk.a(epit.o)
                                                  /home/leon/git/swp-report/iMX6_Platform_SDK/output/mx6sl/lib/libsdk.a(imx_uart.o)
                                                  /home/leon/git/swp-report/iMX6_Platform_SDK/output/mx6sl/lib/libsdk.a(ecspi.o)
                                                  /home/leon/git/swp-report/iMX6_Platform_SDK/output/mx6sl/lib/libsdk.a(imx_i2c.o)
common_abort_handler                              /home/leon/git/swp-report/iMX6_Platform_SDK/output/mx6sl/lib/libsdk.a(arm_abort.o)
cpu_get_current                                   /home/leon/git/swp-report/iMX6_Platform_SDK/output/mx6sl/lib/libsdk.a(cortexA9.o)
csi_iomux_config                                  /home/leon/git/swp-report/iMX6_Platform_SDK/output/mx6sl/lib/libboard_evk_rev_a.a(csi_iomux_config.o)
                                                  /home/leon/git/swp-report/iMX6_Platform_SDK/output/mx6sl/lib/libboard_evk_rev_a.a(iomux_config.o)
                                                  /home/leon/git/swp-report/iMX6_Platform_SDK/output/mx6sl/lib/libsdk.a(smd_sensor.o)
csi_sensor_capture                                /home/leon/git/swp-report/iMX6_Platform_SDK/output/mx6sl/obds/evk_rev_a/obj/sdk/drivers/camera/test/csi_sensor_capture.o
                                                  /home/leon/git/swp-report/iMX6_Platform_SDK/output/mx6sl/obds/evk_rev_a/obj/sdk/drivers/camera/test/camera_test.o
csi_setup                                         /home/leon/git/swp-report/iMX6_Platform_SDK/output/mx6sl/lib/libsdk.a(csi_drv.o)
                                                  /home/leon/git/swp-report/iMX6_Platform_SDK/output/mx6sl/obds/evk_rev_a/obj/sdk/drivers/camera/test/csi_sensor_capture.o
csi_streamoff                                     /home/leon/git/swp-report/iMX6_Platform_SDK/output/mx6sl/lib/libsdk.a(csi_drv.o)
                                                  /home/leon/git/swp-report/iMX6_Platform_SDK/output/mx6sl/obds/evk_rev_a/obj/sdk/drivers/camera/test/csi_sensor_capture.o
csi_streamon                                      /home/leon/git/swp-report/iMX6_Platform_SDK/output/mx6sl/lib/libsdk.a(csi_drv.o)
                                                  /home/leon/git/swp-report/iMX6_Platform_SDK/output/mx6sl/obds/evk_rev_a/obj/sdk/drivers/camera/test/csi_sensor_capture.o
da9053_i2c_reg                                    /home/leon/git/swp-report/iMX6_Platform_SDK/output/mx6sl/obds/evk_rev_a/obj/apps/obds/src/tests/pmic_da9053.o
data_abort_handler                                /home/leon/git/swp-report/iMX6_Platform_SDK/output/mx6sl/lib/libsdk.a(arm_abort.o)
                                                  /home/leon/git/swp-report/iMX6_Platform_SDK/output/mx6sl/lib/libsdk.a(vectors.o)
dc3                                               /home/leon/git/swp-report/iMX6_Platform_SDK/output/mx6sl/obds/evk_rev_a/obj/apps/obds/src/tests/keyboard_test.o
ddr_test                                          /home/leon/git/swp-report/iMX6_Platform_SDK/output/mx6sl/obds/evk_rev_a/obj/apps/obds/src/tests/ddr_test.o
                                                  /home/leon/git/swp-report/iMX6_Platform_SDK/output/mx6sl/obds/evk_rev_a/obj/apps/obds/src/obds.o
default_interrupt_routine                         /home/leon/git/swp-report/iMX6_Platform_SDK/output/mx6sl/lib/libsdk.a(interrupt.o)
dev_spi_nor                                       /home/leon/git/swp-report/iMX6_Platform_SDK/output/mx6sl/obds/evk_rev_a/obj/apps/obds/src/tests/imx_spi_nor_test.o
                                                  /home/leon/git/swp-report/iMX6_Platform_SDK/output/mx6sl/obds/evk_rev_a/obj/sdk/drivers/spi/test/spi_nor_numonyx.o
                                                  /home/leon/git/swp-report/iMX6_Platform_SDK/output/mx6sl/obds/evk_rev_a/obj/sdk/drivers/spi/test/imx_spi_nor_atmel.o
device_id_check_mc13892                           /home/leon/git/swp-report/iMX6_Platform_SDK/output/mx6sl/obds/evk_rev_a/obj/apps/obds/src/tests/pmic_mc13892.o
disable_L1_cache                                  /home/leon/git/swp-report/iMX6_Platform_SDK/output/mx6sl/lib/libsdk.a(cortexA9.o)
disable_interrupt                                 /home/leon/git/swp-report/iMX6_Platform_SDK/output/mx6sl/lib/libsdk.a(interrupt.o)
                                                  /home/leon/git/swp-report/iMX6_Platform_SDK/output/mx6sl/lib/libsdk.a(epit.o)
                                                  /home/leon/git/swp-report/iMX6_Platform_SDK/output/mx6sl/lib/libsdk.a(usdhc.o)
                                                  /home/leon/git/swp-report/iMX6_Platform_SDK/output/mx6sl/lib/libsdk.a(imx_uart.o)
                                                  /home/leon/git/swp-report/iMX6_Platform_SDK/output/mx6sl/lib/libsdk.a(imx_i2c.o)
disable_strict_align_check                        /home/leon/git/swp-report/iMX6_Platform_SDK/output/mx6sl/lib/libsdk.a(cortexA9.o)
                                                  /home/leon/git/swp-report/iMX6_Platform_SDK/output/mx6sl/obds/evk_rev_a/obj/apps/common/platform_init.o
dump_regs                                         /home/leon/git/swp-report/iMX6_Platform_SDK/output/mx6sl/lib/libsdk.a(abort_handler.o)
                                                  /home/leon/git/swp-report/iMX6_Platform_SDK/output/mx6sl/lib/libsdk.a(arm_abort.o)
ecspi1_iomux_config                               /home/leon/git/swp-report/iMX6_Platform_SDK/output/mx6sl/lib/libboard_evk_rev_a.a(ecspi1_iomux_config.o)
                                                  /home/leon/git/swp-report/iMX6_Platform_SDK/output/mx6sl/lib/libboard_evk_rev_a.a(iomux_config.o)
                                                  /home/leon/git/swp-report/iMX6_Platform_SDK/output/mx6sl/lib/libboard_evk_rev_a.a(ecspi_iomux_config.o)
ecspi2_iomux_config                               /home/leon/git/swp-report/iMX6_Platform_SDK/output/mx6sl/lib/libboard_evk_rev_a.a(ecspi2_iomux_config.o)
                                                  /home/leon/git/swp-report/iMX6_Platform_SDK/output/mx6sl/lib/libboard_evk_rev_a.a(iomux_config.o)
                                                  /home/leon/git/swp-report/iMX6_Platform_SDK/output/mx6sl/lib/libboard_evk_rev_a.a(ecspi_iomux_config.o)
ecspi3_iomux_config                               /home/leon/git/swp-report/iMX6_Platform_SDK/output/mx6sl/lib/libboard_evk_rev_a.a(iomux_config.o)
                                                  /home/leon/git/swp-report/iMX6_Platform_SDK/output/mx6sl/lib/libboard_evk_rev_a.a(ecspi_iomux_config.o)
ecspi4_iomux_config                               /home/leon/git/swp-report/iMX6_Platform_SDK/output/mx6sl/lib/libboard_evk_rev_a.a(iomux_config.o)
                                                  /home/leon/git/swp-report/iMX6_Platform_SDK/output/mx6sl/lib/libboard_evk_rev_a.a(ecspi_iomux_config.o)
ecspi_close                                       /home/leon/git/swp-report/iMX6_Platform_SDK/output/mx6sl/lib/libsdk.a(ecspi.o)
ecspi_configure                                   /home/leon/git/swp-report/iMX6_Platform_SDK/output/mx6sl/lib/libsdk.a(ecspi.o)
ecspi_iomux_config                                /home/leon/git/swp-report/iMX6_Platform_SDK/output/mx6sl/lib/libboard_evk_rev_a.a(ecspi_iomux_config.o)
                                                  /home/leon/git/swp-report/iMX6_Platform_SDK/output/mx6sl/lib/libsdk.a(ecspi.o)
ecspi_open                                        /home/leon/git/swp-report/iMX6_Platform_SDK/output/mx6sl/lib/libsdk.a(ecspi.o)
                                                  /home/leon/git/swp-report/iMX6_Platform_SDK/output/mx6sl/obds/evk_rev_a/obj/apps/obds/src/tests/imx_spi_nor_test.o
ecspi_xfer                                        /home/leon/git/swp-report/iMX6_Platform_SDK/output/mx6sl/lib/libsdk.a(ecspi.o)
                                                  /home/leon/git/swp-report/iMX6_Platform_SDK/output/mx6sl/obds/evk_rev_a/obj/sdk/drivers/spi/test/spi_nor_numonyx.o
                                                  /home/leon/git/swp-report/iMX6_Platform_SDK/output/mx6sl/obds/evk_rev_a/obj/sdk/drivers/spi/test/imx_spi_nor_atmel.o
eeprom_test_enable                                /home/leon/git/swp-report/iMX6_Platform_SDK/output/mx6sl/obds/evk_rev_a/obj/apps/obds/src/tests/i2c_eeprom_at24cxx_test.o
eim_iomux_config                                  /home/leon/git/swp-report/iMX6_Platform_SDK/output/mx6sl/lib/libboard_evk_rev_a.a(iomux_config.o)
                                                  /home/leon/git/swp-report/iMX6_Platform_SDK/output/mx6sl/obds/evk_rev_a/obj/apps/obds/src/tests/weim_nor_flash_test.o
eim_nor_flash_test                                /home/leon/git/swp-report/iMX6_Platform_SDK/output/mx6sl/obds/evk_rev_a/obj/apps/obds/src/tests/weim_nor_flash_test.o
emmc_init                                         /home/leon/git/swp-report/iMX6_Platform_SDK/output/mx6sl/lib/libsdk.a(usdhc_mmc.o)
                                                  /home/leon/git/swp-report/iMX6_Platform_SDK/output/mx6sl/lib/libsdk.a(usdhc.o)
emmc_print_cfg_info                               /home/leon/git/swp-report/iMX6_Platform_SDK/output/mx6sl/lib/libsdk.a(usdhc_mmc.o)
                                                  /home/leon/git/swp-report/iMX6_Platform_SDK/output/mx6sl/obds/evk_rev_a/obj/sdk/drivers/usdhc/test/usdhc_test.o
emuerateDevice                                    /home/leon/git/swp-report/iMX6_Platform_SDK/output/mx6sl/obds/evk_rev_a/obj/sdk/drivers/usb/test/usb0_host_test.o
enable_interrupt                                  /home/leon/git/swp-report/iMX6_Platform_SDK/output/mx6sl/lib/libsdk.a(interrupt.o)
                                                  /home/leon/git/swp-report/iMX6_Platform_SDK/output/mx6sl/lib/libsdk.a(epit.o)
                                                  /home/leon/git/swp-report/iMX6_Platform_SDK/output/mx6sl/lib/libsdk.a(usdhc.o)
                                                  /home/leon/git/swp-report/iMX6_Platform_SDK/output/mx6sl/lib/libsdk.a(imx_uart.o)
                                                  /home/leon/git/swp-report/iMX6_Platform_SDK/output/mx6sl/lib/libsdk.a(imx_i2c.o)
enable_neon_fpu                                   /home/leon/git/swp-report/iMX6_Platform_SDK/output/mx6sl/lib/libsdk.a(cortexA9.o)
                                                  /home/leon/git/swp-report/iMX6_Platform_SDK/output/mx6sl/obds/evk_rev_a/obj/apps/common/platform_init.o
environ                                           /home/leon/git/swp-report/iMX6_Platform_SDK/output/mx6sl/lib/libsdk.a(runtime_support.o)
epdc_any_luts_active                              /home/leon/git/swp-report/iMX6_Platform_SDK/output/mx6sl/lib/libsdk.a(mxc_epdc.o)
epdc_any_luts_available                           /home/leon/git/swp-report/iMX6_Platform_SDK/output/mx6sl/lib/libsdk.a(mxc_epdc.o)
epdc_buffer_init                                  /home/leon/git/swp-report/iMX6_Platform_SDK/output/mx6sl/lib/libsdk.a(mxc_epdc.o)
                                                  /home/leon/git/swp-report/iMX6_Platform_SDK/output/mx6sl/obds/evk_rev_a/obj/sdk/drivers/epdc/test/epdc_test.o
epdc_clear_lut_complete_irq                       /home/leon/git/swp-report/iMX6_Platform_SDK/output/mx6sl/lib/libsdk.a(mxc_epdc.o)
epdc_clock_setting                                /home/leon/git/swp-report/iMX6_Platform_SDK/output/mx6sl/lib/libboard_evk_rev_a.a(board_display.o)
                                                  /home/leon/git/swp-report/iMX6_Platform_SDK/output/mx6sl/obds/evk_rev_a/obj/sdk/drivers/epdc/test/epdc_test.o
epdc_dump_registers                               /home/leon/git/swp-report/iMX6_Platform_SDK/output/mx6sl/lib/libsdk.a(mxc_epdc.o)
epdc_get_next_lut                                 /home/leon/git/swp-report/iMX6_Platform_SDK/output/mx6sl/lib/libsdk.a(mxc_epdc.o)
                                                  /home/leon/git/swp-report/iMX6_Platform_SDK/output/mx6sl/obds/evk_rev_a/obj/sdk/drivers/epdc/test/epdc_test.o
epdc_init_settings                                /home/leon/git/swp-report/iMX6_Platform_SDK/output/mx6sl/lib/libsdk.a(mxc_epdc.o)
                                                  /home/leon/git/swp-report/iMX6_Platform_SDK/output/mx6sl/obds/evk_rev_a/obj/sdk/drivers/epdc/test/epdc_test.o
epdc_iomux_config                                 /home/leon/git/swp-report/iMX6_Platform_SDK/output/mx6sl/lib/libboard_evk_rev_a.a(epdc_iomux_config.o)
                                                  /home/leon/git/swp-report/iMX6_Platform_SDK/output/mx6sl/lib/libboard_evk_rev_a.a(iomux_config.o)
                                                  /home/leon/git/swp-report/iMX6_Platform_SDK/output/mx6sl/obds/evk_rev_a/obj/sdk/drivers/epdc/test/epdc_test.o
epdc_is_collision                                 /home/leon/git/swp-report/iMX6_Platform_SDK/output/mx6sl/lib/libsdk.a(mxc_epdc.o)
epdc_is_lut_active                                /home/leon/git/swp-report/iMX6_Platform_SDK/output/mx6sl/lib/libsdk.a(mxc_epdc.o)
                                                  /home/leon/git/swp-report/iMX6_Platform_SDK/output/mx6sl/obds/evk_rev_a/obj/sdk/drivers/epdc/test/epdc_test.o
epdc_is_lut_complete                              /home/leon/git/swp-report/iMX6_Platform_SDK/output/mx6sl/lib/libsdk.a(mxc_epdc.o)
epdc_is_working_buffer_busy                       /home/leon/git/swp-report/iMX6_Platform_SDK/output/mx6sl/lib/libsdk.a(mxc_epdc.o)
                                                  /home/leon/git/swp-report/iMX6_Platform_SDK/output/mx6sl/obds/evk_rev_a/obj/sdk/drivers/epdc/test/epdc_test.o
epdc_is_working_buffer_complete                   /home/leon/git/swp-report/iMX6_Platform_SDK/output/mx6sl/lib/libsdk.a(mxc_epdc.o)
epdc_load_image                                   /home/leon/git/swp-report/iMX6_Platform_SDK/output/mx6sl/lib/libsdk.a(mxc_epdc.o)
                                                  /home/leon/git/swp-report/iMX6_Platform_SDK/output/mx6sl/obds/evk_rev_a/obj/sdk/drivers/epdc/test/epdc_test.o
epdc_power_supply                                 /home/leon/git/swp-report/iMX6_Platform_SDK/output/mx6sl/lib/libboard_evk_rev_a.a(board_display.o)
                                                  /home/leon/git/swp-report/iMX6_Platform_SDK/output/mx6sl/obds/evk_rev_a/obj/sdk/drivers/epdc/test/epdc_test.o
epdc_pvi_svga_sdr_init                            /home/leon/git/swp-report/iMX6_Platform_SDK/output/mx6sl/obds/evk_rev_a/obj/sdk/drivers/epdc/test/epdc_test.o
epdc_reset                                        /home/leon/git/swp-report/iMX6_Platform_SDK/output/mx6sl/lib/libsdk.a(mxc_epdc.o)
                                                  /home/leon/git/swp-report/iMX6_Platform_SDK/output/mx6sl/obds/evk_rev_a/obj/sdk/drivers/epdc/test/epdc_test.o
epdc_send_erase_to_color                          /home/leon/git/swp-report/iMX6_Platform_SDK/output/mx6sl/obds/evk_rev_a/obj/sdk/drivers/epdc/test/epdc_test.o
epdc_send_image_update                            /home/leon/git/swp-report/iMX6_Platform_SDK/output/mx6sl/obds/evk_rev_a/obj/sdk/drivers/epdc/test/epdc_test.o
epdc_send_mode0_to_black_update                   /home/leon/git/swp-report/iMX6_Platform_SDK/output/mx6sl/obds/evk_rev_a/obj/sdk/drivers/epdc/test/epdc_test.o
epdc_set_update_addr                              /home/leon/git/swp-report/iMX6_Platform_SDK/output/mx6sl/lib/libsdk.a(mxc_epdc.o)
                                                  /home/leon/git/swp-report/iMX6_Platform_SDK/output/mx6sl/obds/evk_rev_a/obj/sdk/drivers/epdc/test/epdc_test.o
epdc_set_update_coord                             /home/leon/git/swp-report/iMX6_Platform_SDK/output/mx6sl/lib/libsdk.a(mxc_epdc.o)
                                                  /home/leon/git/swp-report/iMX6_Platform_SDK/output/mx6sl/obds/evk_rev_a/obj/sdk/drivers/epdc/test/epdc_test.o
epdc_set_update_dimensions                        /home/leon/git/swp-report/iMX6_Platform_SDK/output/mx6sl/lib/libsdk.a(mxc_epdc.o)
                                                  /home/leon/git/swp-report/iMX6_Platform_SDK/output/mx6sl/obds/evk_rev_a/obj/sdk/drivers/epdc/test/epdc_test.o
epdc_set_vertical_timing                          /home/leon/git/swp-report/iMX6_Platform_SDK/output/mx6sl/lib/libsdk.a(mxc_epdc.o)
epdc_submit_update                                /home/leon/git/swp-report/iMX6_Platform_SDK/output/mx6sl/lib/libsdk.a(mxc_epdc.o)
                                                  /home/leon/git/swp-report/iMX6_Platform_SDK/output/mx6sl/obds/evk_rev_a/obj/sdk/drivers/epdc/test/epdc_test.o
epdc_test                                         /home/leon/git/swp-report/iMX6_Platform_SDK/output/mx6sl/obds/evk_rev_a/obj/sdk/drivers/epdc/test/epdc_test.o
                                                  /home/leon/git/swp-report/iMX6_Platform_SDK/output/mx6sl/obds/evk_rev_a/obj/apps/obds/src/obds.o
epdc_update_image                                 /home/leon/git/swp-report/iMX6_Platform_SDK/output/mx6sl/obds/evk_rev_a/obj/sdk/drivers/epdc/test/epdc_test.o
epit1_iomux_config                                /home/leon/git/swp-report/iMX6_Platform_SDK/output/mx6sl/lib/libboard_evk_rev_a.a(iomux_config.o)
epit2_iomux_config                                /home/leon/git/swp-report/iMX6_Platform_SDK/output/mx6sl/lib/libboard_evk_rev_a.a(iomux_config.o)
epit_counter_disable                              /home/leon/git/swp-report/iMX6_Platform_SDK/output/mx6sl/lib/libsdk.a(epit.o)
                                                  /home/leon/git/swp-report/iMX6_Platform_SDK/output/mx6sl/lib/libsdk.a(timer.o)
epit_counter_enable                               /home/leon/git/swp-report/iMX6_Platform_SDK/output/mx6sl/lib/libsdk.a(epit.o)
                                                  /home/leon/git/swp-report/iMX6_Platform_SDK/output/mx6sl/lib/libsdk.a(timer.o)
epit_get_compare_event                            /home/leon/git/swp-report/iMX6_Platform_SDK/output/mx6sl/lib/libsdk.a(epit.o)
                                                  /home/leon/git/swp-report/iMX6_Platform_SDK/output/mx6sl/lib/libsdk.a(timer.o)
epit_get_counter_value                            /home/leon/git/swp-report/iMX6_Platform_SDK/output/mx6sl/lib/libsdk.a(epit.o)
epit_init                                         /home/leon/git/swp-report/iMX6_Platform_SDK/output/mx6sl/lib/libsdk.a(epit.o)
                                                  /home/leon/git/swp-report/iMX6_Platform_SDK/output/mx6sl/lib/libsdk.a(timer.o)
epit_reload_counter                               /home/leon/git/swp-report/iMX6_Platform_SDK/output/mx6sl/lib/libsdk.a(epit.o)
epit_set_compare_event                            /home/leon/git/swp-report/iMX6_Platform_SDK/output/mx6sl/lib/libsdk.a(epit.o)
epit_setup_interrupt                              /home/leon/git/swp-report/iMX6_Platform_SDK/output/mx6sl/lib/libsdk.a(epit.o)
errno                                             /home/leon/git/swp-report/iMX6_Platform_SDK/output/mx6sl/lib/libsdk.a(runtime_support.o)
                                                  /home/leon/riotboard/arm-2012.09/bin/../arm-none-eabi/lib//libc.a(lib_a-readr.o)
                                                  /home/leon/riotboard/arm-2012.09/bin/../arm-none-eabi/lib//libc.a(lib_a-lseekr.o)
                                                  /home/leon/riotboard/arm-2012.09/bin/../arm-none-eabi/lib//libc.a(lib_a-isattyr.o)
                                                  /home/leon/riotboard/arm-2012.09/bin/../arm-none-eabi/lib//libc.a(lib_a-fstatr.o)
                                                  /home/leon/riotboard/arm-2012.09/bin/../arm-none-eabi/lib//libc.a(lib_a-closer.o)
                                                  /home/leon/riotboard/arm-2012.09/bin/../arm-none-eabi/lib//libc.a(lib_a-writer.o)
                                                  /home/leon/riotboard/arm-2012.09/bin/../arm-none-eabi/lib//libc.a(lib_a-signalr.o)
                                                  /home/leon/riotboard/arm-2012.09/bin/../arm-none-eabi/lib//libc.a(lib_a-reent.o)
                                                  /home/leon/riotboard/arm-2012.09/bin/../arm-none-eabi/lib//libc.a(lib_a-sbrkr.o)
exception_handler                                 /home/leon/git/swp-report/iMX6_Platform_SDK/output/mx6sl/lib/libsdk.a(vectors.o)
fclose                                            /home/leon/riotboard/arm-2012.09/bin/../arm-none-eabi/lib//libc.a(lib_a-fclose.o)
                                                  /home/leon/riotboard/arm-2012.09/bin/../arm-none-eabi/lib//libc.a(lib_a-findfp.o)
fec_iomux_config                                  /home/leon/git/swp-report/iMX6_Platform_SDK/output/mx6sl/lib/libboard_evk_rev_a.a(fec_iomux_config.o)
                                                  /home/leon/git/swp-report/iMX6_Platform_SDK/output/mx6sl/lib/libboard_evk_rev_a.a(iomux_config.o)
                                                  /home/leon/git/swp-report/iMX6_Platform_SDK/output/mx6sl/obds/evk_rev_a/obj/sdk/drivers/fec/test/fec_test.o
fec_test                                          /home/leon/git/swp-report/iMX6_Platform_SDK/output/mx6sl/obds/evk_rev_a/obj/sdk/drivers/fec/test/fec_test.o
                                                  /home/leon/git/swp-report/iMX6_Platform_SDK/output/mx6sl/obds/evk_rev_a/obj/apps/obds/src/obds.o
fflush                                            /home/leon/riotboard/arm-2012.09/bin/../arm-none-eabi/lib//libc.a(lib_a-fflush.o)
                                                  /home/leon/riotboard/arm-2012.09/bin/../arm-none-eabi/lib//libc.a(lib_a-refill.o)
fiprintf                                          /home/leon/riotboard/arm-2012.09/bin/../arm-none-eabi/lib//libc.a(lib_a-fiprintf.o)
                                                  /home/leon/riotboard/arm-2012.09/bin/../arm-none-eabi/lib//libc.a(lib_a-assert.o)
flexcan_test                                      /home/leon/git/swp-report/iMX6_Platform_SDK/output/mx6sl/obds/evk_rev_a/obj/apps/obds/src/tests/flexcan_test.o
fputc                                             /home/leon/riotboard/arm-2012.09/bin/../arm-none-eabi/lib//libc.a(lib_a-fputc.o)
                                                  /home/leon/git/swp-report/iMX6_Platform_SDK/output/mx6sl/lib/libsdk.a(system_util.o)
                                                  /home/leon/git/swp-report/iMX6_Platform_SDK/output/mx6sl/lib/libsdk.a(menu.o)
                                                  /home/leon/git/swp-report/iMX6_Platform_SDK/output/mx6sl/obds/evk_rev_a/obj/apps/obds/src/tests/program_mac_address.o
fputwc                                            /home/leon/riotboard/arm-2012.09/bin/../arm-none-eabi/lib//libc.a(lib_a-fputwc.o)
frame_list                                        /home/leon/git/swp-report/iMX6_Platform_SDK/output/mx6sl/obds/evk_rev_a/obj/sdk/drivers/usb/test/usb0_host_test.o
free                                              /home/leon/riotboard/arm-2012.09/bin/../arm-none-eabi/lib//libc.a(lib_a-malloc.o)
                                                  /home/leon/git/swp-report/iMX6_Platform_SDK/output/mx6sl/lib/libsdk.a(usbh_drv.o)
                                                  /home/leon/git/swp-report/iMX6_Platform_SDK/output/mx6sl/obds/evk_rev_a/obj/sdk/drivers/usb/test/usb0_host_test.o
                                                  /home/leon/git/swp-report/iMX6_Platform_SDK/output/mx6sl/obds/evk_rev_a/obj/apps/obds/src/tests/usb_tests_obds.o
                                                  /home/leon/git/swp-report/iMX6_Platform_SDK/output/mx6sl/obds/evk_rev_a/obj/apps/obds/src/obds.o
free_memory_end                                   /home/leon/git/swp-report/iMX6_Platform_SDK/output/mx6sl/lib/libsdk.a(runtime_support.o)
free_memory_start                                 /home/leon/git/swp-report/iMX6_Platform_SDK/output/mx6sl/lib/libsdk.a(runtime_support.o)
free_test_results                                 /home/leon/git/swp-report/iMX6_Platform_SDK/output/mx6sl/obds/evk_rev_a/obj/apps/obds/src/obds.o
fsl_gray_600x230                                  /home/leon/git/swp-report/iMX6_Platform_SDK/output/mx6sl/lib/libsdk.a(mxc_epdc.o)
gImage_fsl                                        /home/leon/git/swp-report/iMX6_Platform_SDK/output/mx6sl/lib/libsdk.a(lcdif_drv.o)
g_TextAttributeBlink                              /home/leon/git/swp-report/iMX6_Platform_SDK/output/mx6sl/lib/libsdk.a(text_color.o)
g_TextAttributeBold                               /home/leon/git/swp-report/iMX6_Platform_SDK/output/mx6sl/lib/libsdk.a(text_color.o)
                                                  /home/leon/git/swp-report/iMX6_Platform_SDK/output/mx6sl/lib/libsdk.a(system_util.o)
                                                  /home/leon/git/swp-report/iMX6_Platform_SDK/output/mx6sl/lib/libsdk.a(menu.o)
                                                  /home/leon/git/swp-report/iMX6_Platform_SDK/output/mx6sl/obds/evk_rev_a/obj/apps/obds/src/tests/program_mac_address.o
                                                  /home/leon/git/swp-report/iMX6_Platform_SDK/output/mx6sl/obds/evk_rev_a/obj/apps/obds/src/tests/program_board_id.o
                                                  /home/leon/git/swp-report/iMX6_Platform_SDK/output/mx6sl/obds/evk_rev_a/obj/apps/obds/src/obds.o
g_TextAttributeDefault                            /home/leon/git/swp-report/iMX6_Platform_SDK/output/mx6sl/lib/libsdk.a(text_color.o)
                                                  /home/leon/git/swp-report/iMX6_Platform_SDK/output/mx6sl/lib/libsdk.a(menu.o)
                                                  /home/leon/git/swp-report/iMX6_Platform_SDK/output/mx6sl/obds/evk_rev_a/obj/apps/obds/src/tests/snvs_srtc_test.o
                                                  /home/leon/git/swp-report/iMX6_Platform_SDK/output/mx6sl/obds/evk_rev_a/obj/apps/obds/src/obds.o
g_TextAttributeDim                                /home/leon/git/swp-report/iMX6_Platform_SDK/output/mx6sl/lib/libsdk.a(text_color.o)
                                                  /home/leon/git/swp-report/iMX6_Platform_SDK/output/mx6sl/obds/evk_rev_a/obj/apps/obds/src/obds.o
g_TextAttributeHidden                             /home/leon/git/swp-report/iMX6_Platform_SDK/output/mx6sl/lib/libsdk.a(text_color.o)
g_TextAttributeReverse                            /home/leon/git/swp-report/iMX6_Platform_SDK/output/mx6sl/lib/libsdk.a(text_color.o)
g_TextAttributeUnderline                          /home/leon/git/swp-report/iMX6_Platform_SDK/output/mx6sl/lib/libsdk.a(text_color.o)
g_TextColorBlack                                  /home/leon/git/swp-report/iMX6_Platform_SDK/output/mx6sl/lib/libsdk.a(text_color.o)
g_TextColorBlue                                   /home/leon/git/swp-report/iMX6_Platform_SDK/output/mx6sl/lib/libsdk.a(text_color.o)
                                                  /home/leon/git/swp-report/iMX6_Platform_SDK/output/mx6sl/lib/libsdk.a(menu.o)
g_TextColorCyan                                   /home/leon/git/swp-report/iMX6_Platform_SDK/output/mx6sl/lib/libsdk.a(text_color.o)
g_TextColorGray                                   /home/leon/git/swp-report/iMX6_Platform_SDK/output/mx6sl/lib/libsdk.a(text_color.o)
                                                  /home/leon/git/swp-report/iMX6_Platform_SDK/output/mx6sl/obds/evk_rev_a/obj/apps/obds/src/obds.o
g_TextColorGreen                                  /home/leon/git/swp-report/iMX6_Platform_SDK/output/mx6sl/lib/libsdk.a(text_color.o)
                                                  /home/leon/git/swp-report/iMX6_Platform_SDK/output/mx6sl/obds/evk_rev_a/obj/apps/obds/src/obds.o
g_TextColorLightBlue                              /home/leon/git/swp-report/iMX6_Platform_SDK/output/mx6sl/lib/libsdk.a(text_color.o)
g_TextColorMagenta                                /home/leon/git/swp-report/iMX6_Platform_SDK/output/mx6sl/lib/libsdk.a(text_color.o)
                                                  /home/leon/git/swp-report/iMX6_Platform_SDK/output/mx6sl/lib/libsdk.a(menu.o)
g_TextColorOrange                                 /home/leon/git/swp-report/iMX6_Platform_SDK/output/mx6sl/lib/libsdk.a(text_color.o)
g_TextColorPurple                                 /home/leon/git/swp-report/iMX6_Platform_SDK/output/mx6sl/lib/libsdk.a(text_color.o)
g_TextColorRed                                    /home/leon/git/swp-report/iMX6_Platform_SDK/output/mx6sl/lib/libsdk.a(text_color.o)
                                                  /home/leon/git/swp-report/iMX6_Platform_SDK/output/mx6sl/lib/libsdk.a(system_util.o)
                                                  /home/leon/git/swp-report/iMX6_Platform_SDK/output/mx6sl/lib/libsdk.a(menu.o)
                                                  /home/leon/git/swp-report/iMX6_Platform_SDK/output/mx6sl/obds/evk_rev_a/obj/apps/obds/src/tests/program_mac_address.o
                                                  /home/leon/git/swp-report/iMX6_Platform_SDK/output/mx6sl/obds/evk_rev_a/obj/apps/obds/src/tests/program_board_id.o
                                                  /home/leon/git/swp-report/iMX6_Platform_SDK/output/mx6sl/obds/evk_rev_a/obj/apps/obds/src/obds.o
g_TextColorWhite                                  /home/leon/git/swp-report/iMX6_Platform_SDK/output/mx6sl/lib/libsdk.a(text_color.o)
g_TextColorYellow                                 /home/leon/git/swp-report/iMX6_Platform_SDK/output/mx6sl/lib/libsdk.a(text_color.o)
                                                  /home/leon/git/swp-report/iMX6_Platform_SDK/output/mx6sl/lib/libsdk.a(menu.o)
                                                  /home/leon/git/swp-report/iMX6_Platform_SDK/output/mx6sl/obds/evk_rev_a/obj/apps/obds/src/tests/snvs_srtc_test.o
                                                  /home/leon/git/swp-report/iMX6_Platform_SDK/output/mx6sl/obds/evk_rev_a/obj/apps/obds/src/obds.o
g_at24cx_i2c_device                               /home/leon/git/swp-report/iMX6_Platform_SDK/output/mx6sl/lib/libboard_evk_rev_a.a(board_i2c.o)
                                                  /home/leon/git/swp-report/iMX6_Platform_SDK/output/mx6sl/obds/evk_rev_a/obj/apps/obds/src/tests/i2c_eeprom_at24cxx_test.o
g_audio_ssi_test_name                             /home/leon/git/swp-report/iMX6_Platform_SDK/output/mx6sl/obds/evk_rev_a/obj/apps/obds/src/tests/audio_ssi_test.o
                                                  /home/leon/git/swp-report/iMX6_Platform_SDK/output/mx6sl/obds/evk_rev_a/obj/apps/obds/src/obds.o
g_camera_i2c_port                                 /home/leon/git/swp-report/iMX6_Platform_SDK/output/mx6sl/lib/libboard_evk_rev_a.a(board_camera.o)
                                                  /home/leon/git/swp-report/iMX6_Platform_SDK/output/mx6sl/lib/libsdk.a(smd_sensor.o)
g_camera_modes                                    /home/leon/git/swp-report/iMX6_Platform_SDK/output/mx6sl/lib/libsdk.a(camera_profile.o)
g_camera_profiles                                 /home/leon/git/swp-report/iMX6_Platform_SDK/output/mx6sl/lib/libsdk.a(camera_profile.o)
                                                  /home/leon/git/swp-report/iMX6_Platform_SDK/output/mx6sl/lib/libsdk.a(smd_sensor.o)
g_camera_test_name                                /home/leon/git/swp-report/iMX6_Platform_SDK/output/mx6sl/obds/evk_rev_a/obj/sdk/drivers/camera/test/camera_test.o
                                                  /home/leon/git/swp-report/iMX6_Platform_SDK/output/mx6sl/obds/evk_rev_a/obj/apps/obds/src/obds.o
g_ddr_test_name                                   /home/leon/git/swp-report/iMX6_Platform_SDK/output/mx6sl/obds/evk_rev_a/obj/apps/obds/src/tests/ddr_test.o
                                                  /home/leon/git/swp-report/iMX6_Platform_SDK/output/mx6sl/obds/evk_rev_a/obj/apps/obds/src/obds.o
g_debug_uart_port                                 /home/leon/git/swp-report/iMX6_Platform_SDK/output/mx6sl/lib/libboard_evk_rev_a.a(hardware_modules.o)
                                                  /home/leon/git/swp-report/iMX6_Platform_SDK/output/mx6sl/lib/libsdk.a(runtime_support.o)
                                                  /home/leon/git/swp-report/iMX6_Platform_SDK/output/mx6sl/lib/libsdk.a(system_util.o)
                                                  /home/leon/git/swp-report/iMX6_Platform_SDK/output/mx6sl/obds/evk_rev_a/obj/apps/common/print_clock_info.o
                                                  /home/leon/git/swp-report/iMX6_Platform_SDK/output/mx6sl/obds/evk_rev_a/obj/apps/common/platform_init.o
g_eim_NOR_flash_test_name                         /home/leon/git/swp-report/iMX6_Platform_SDK/output/mx6sl/obds/evk_rev_a/obj/apps/obds/src/tests/weim_nor_flash_test.o
g_emc1046_i2c_device_id_test_name                 /home/leon/git/swp-report/iMX6_Platform_SDK/output/mx6sl/obds/evk_rev_a/obj/apps/obds/src/tests/i2c_device_temp_sensor_emc1046.o
g_epdc_test_name                                  /home/leon/git/swp-report/iMX6_Platform_SDK/output/mx6sl/obds/evk_rev_a/obj/sdk/drivers/epdc/test/epdc_test.o
                                                  /home/leon/git/swp-report/iMX6_Platform_SDK/output/mx6sl/obds/evk_rev_a/obj/apps/obds/src/obds.o
g_fec_enet_test_name                              /home/leon/git/swp-report/iMX6_Platform_SDK/output/mx6sl/obds/evk_rev_a/obj/sdk/drivers/fec/test/fec_test.o
                                                  /home/leon/git/swp-report/iMX6_Platform_SDK/output/mx6sl/obds/evk_rev_a/obj/apps/obds/src/obds.o
g_flexcan_test_name                               /home/leon/git/swp-report/iMX6_Platform_SDK/output/mx6sl/obds/evk_rev_a/obj/apps/obds/src/tests/flexcan_test.o
g_gpio_led_test_name                              /home/leon/git/swp-report/iMX6_Platform_SDK/output/mx6sl/obds/evk_rev_a/obj/apps/obds/src/tests/gpio_led.o
g_interrupt_handlers                              /home/leon/git/swp-report/iMX6_Platform_SDK/output/mx6sl/lib/libsdk.a(interrupt.o)
g_isl29023_i2c_device_id_test_name                /home/leon/git/swp-report/iMX6_Platform_SDK/output/mx6sl/obds/evk_rev_a/obj/apps/obds/src/tests/i2c_check_light_sensor_isl29023.o
g_keypad_port_test_name                           /home/leon/git/swp-report/iMX6_Platform_SDK/output/mx6sl/obds/evk_rev_a/obj/apps/obds/src/tests/keyboard_test.o
                                                  /home/leon/git/swp-report/iMX6_Platform_SDK/output/mx6sl/obds/evk_rev_a/obj/apps/obds/src/obds.o
g_lcd_display_test_name                           /home/leon/git/swp-report/iMX6_Platform_SDK/output/mx6sl/obds/evk_rev_a/obj/sdk/drivers/lcdif/test/lcdif_display.o
                                                  /home/leon/git/swp-report/iMX6_Platform_SDK/output/mx6sl/obds/evk_rev_a/obj/apps/obds/src/obds.o
g_mag3110_i2c_device_id_test_name                 /home/leon/git/swp-report/iMX6_Platform_SDK/output/mx6sl/obds/evk_rev_a/obj/apps/obds/src/tests/i2c_device_digital_compass_mag3110.o
g_mag3112_i2c_device_id_test_name                 /home/leon/git/swp-report/iMX6_Platform_SDK/output/mx6sl/obds/evk_rev_a/obj/apps/obds/src/tests/i2c_device_digital_compass_mag3112.o
g_max17135_i2c_device_id_test_name                /home/leon/git/swp-report/iMX6_Platform_SDK/output/mx6sl/obds/evk_rev_a/obj/apps/obds/src/tests/pmic_max17135.o
                                                  /home/leon/git/swp-report/iMX6_Platform_SDK/output/mx6sl/obds/evk_rev_a/obj/apps/obds/src/obds.o
g_microsecondTimerMultiple                        /home/leon/git/swp-report/iMX6_Platform_SDK/output/mx6sl/lib/libsdk.a(timer.o)
g_mma8450_i2c_device_id_test_name                 /home/leon/git/swp-report/iMX6_Platform_SDK/output/mx6sl/obds/evk_rev_a/obj/apps/obds/src/tests/i2c_device_id_check_mma8450.o
                                                  /home/leon/git/swp-report/iMX6_Platform_SDK/output/mx6sl/obds/evk_rev_a/obj/apps/obds/src/obds.o
g_mma8451_i2c_device_id_test_name                 /home/leon/git/swp-report/iMX6_Platform_SDK/output/mx6sl/obds/evk_rev_a/obj/apps/obds/src/tests/i2c_device_id_check_mma8451.o
g_mmcsd_test_name                                 /home/leon/git/swp-report/iMX6_Platform_SDK/output/mx6sl/obds/evk_rev_a/obj/apps/obds/src/tests/mmcsd_test.o
                                                  /home/leon/git/swp-report/iMX6_Platform_SDK/output/mx6sl/obds/evk_rev_a/obj/apps/obds/src/obds.o
g_mt9p111_af_firmware                             /home/leon/git/swp-report/iMX6_Platform_SDK/output/mx6sl/lib/libsdk.a(camera_profile.o)
g_mt9p111_af_ready                                /home/leon/git/swp-report/iMX6_Platform_SDK/output/mx6sl/lib/libsdk.a(camera_profile.o)
g_mt9p111_af_trigger                              /home/leon/git/swp-report/iMX6_Platform_SDK/output/mx6sl/lib/libsdk.a(camera_profile.o)
g_mt9p111_mode_vga_640_480_30fps                  /home/leon/git/swp-report/iMX6_Platform_SDK/output/mx6sl/lib/libsdk.a(camera_profile.o)
g_mt9p111_sensor_detection                        /home/leon/git/swp-report/iMX6_Platform_SDK/output/mx6sl/lib/libsdk.a(camera_profile.o)
g_ov3640_mode_vga_640_480_30fps                   /home/leon/git/swp-report/iMX6_Platform_SDK/output/mx6sl/lib/libsdk.a(camera_profile.o)
g_ov3640_sensor_detection                         /home/leon/git/swp-report/iMX6_Platform_SDK/output/mx6sl/lib/libsdk.a(camera_profile.o)
g_ov5640_mode_vga_640_480_30fps                   /home/leon/git/swp-report/iMX6_Platform_SDK/output/mx6sl/lib/libsdk.a(camera_profile.o)
g_ov5640_sensor_detection                         /home/leon/git/swp-report/iMX6_Platform_SDK/output/mx6sl/lib/libsdk.a(camera_profile.o)
g_ov5642_af_firmware                              /home/leon/git/swp-report/iMX6_Platform_SDK/output/mx6sl/lib/libsdk.a(camera_profile.o)
g_ov5642_af_ready                                 /home/leon/git/swp-report/iMX6_Platform_SDK/output/mx6sl/lib/libsdk.a(camera_profile.o)
g_ov5642_af_trigger                               /home/leon/git/swp-report/iMX6_Platform_SDK/output/mx6sl/lib/libsdk.a(camera_profile.o)
g_ov5642_mode_vga_640_480_30fps                   /home/leon/git/swp-report/iMX6_Platform_SDK/output/mx6sl/lib/libsdk.a(camera_profile.o)
g_ov5642_sensor_detection                         /home/leon/git/swp-report/iMX6_Platform_SDK/output/mx6sl/lib/libsdk.a(camera_profile.o)
g_pmic_da9053_i2c_device                          /home/leon/git/swp-report/iMX6_Platform_SDK/output/mx6sl/lib/libboard_evk_rev_a.a(board_i2c.o)
                                                  /home/leon/git/swp-report/iMX6_Platform_SDK/output/mx6sl/obds/evk_rev_a/obj/apps/obds/src/tests/touch_screen.o
                                                  /home/leon/git/swp-report/iMX6_Platform_SDK/output/mx6sl/obds/evk_rev_a/obj/apps/obds/src/tests/pmic_da9053.o
g_pmic_ltc3589_i2c_device                         /home/leon/git/swp-report/iMX6_Platform_SDK/output/mx6sl/lib/libboard_evk_rev_a.a(board_i2c.o)
                                                  /home/leon/git/swp-report/iMX6_Platform_SDK/output/mx6sl/obds/evk_rev_a/obj/apps/obds/src/tests/pmic_lt3589.o
g_pmic_max17135_i2c_device                        /home/leon/git/swp-report/iMX6_Platform_SDK/output/mx6sl/lib/libboard_evk_rev_a.a(board_i2c.o)
                                                  /home/leon/git/swp-report/iMX6_Platform_SDK/output/mx6sl/obds/evk_rev_a/obj/apps/obds/src/tests/pmic_max17135.o
g_pmic_pf0100_i2c_device                          /home/leon/git/swp-report/iMX6_Platform_SDK/output/mx6sl/lib/libboard_evk_rev_a.a(board_i2c.o)
                                                  /home/leon/git/swp-report/iMX6_Platform_SDK/output/mx6sl/obds/evk_rev_a/obj/sdk/common/pmic/pfuse/pf0100.o
g_pmic_pf0100_i2c_device_id_test_name             /home/leon/git/swp-report/iMX6_Platform_SDK/output/mx6sl/obds/evk_rev_a/obj/sdk/common/pmic/pfuse/pf0100.o
                                                  /home/leon/git/swp-report/iMX6_Platform_SDK/output/mx6sl/obds/evk_rev_a/obj/apps/obds/src/obds.o
g_ppl3115_i2c_device_id_test_name                 /home/leon/git/swp-report/iMX6_Platform_SDK/output/mx6sl/obds/evk_rev_a/obj/apps/obds/src/tests/i2c_device_barometer_ppl3115.o
g_program_board_id_test_name                      /home/leon/git/swp-report/iMX6_Platform_SDK/output/mx6sl/obds/evk_rev_a/obj/apps/obds/src/tests/program_board_id.o
                                                  /home/leon/git/swp-report/iMX6_Platform_SDK/output/mx6sl/obds/evk_rev_a/obj/apps/obds/src/obds.o
g_program_mac_address_test_name                   /home/leon/git/swp-report/iMX6_Platform_SDK/output/mx6sl/obds/evk_rev_a/obj/apps/obds/src/tests/program_mac_address.o
                                                  /home/leon/git/swp-report/iMX6_Platform_SDK/output/mx6sl/obds/evk_rev_a/obj/apps/obds/src/obds.o
g_snvs_srtc_test_name                             /home/leon/git/swp-report/iMX6_Platform_SDK/output/mx6sl/obds/evk_rev_a/obj/apps/obds/src/tests/snvs_srtc_test.o
                                                  /home/leon/git/swp-report/iMX6_Platform_SDK/output/mx6sl/obds/evk_rev_a/obj/apps/obds/src/obds.o
g_spi_nor_test_name                               /home/leon/git/swp-report/iMX6_Platform_SDK/output/mx6sl/obds/evk_rev_a/obj/apps/obds/src/tests/imx_spi_nor_test.o
                                                  /home/leon/git/swp-report/iMX6_Platform_SDK/output/mx6sl/obds/evk_rev_a/obj/apps/obds/src/obds.o
g_system_timer_port                               /home/leon/git/swp-report/iMX6_Platform_SDK/output/mx6sl/lib/libboard_evk_rev_a.a(hardware_modules.o)
                                                  /home/leon/git/swp-report/iMX6_Platform_SDK/output/mx6sl/lib/libsdk.a(timer.o)
g_uart_test_name                                  /home/leon/git/swp-report/iMX6_Platform_SDK/output/mx6sl/obds/evk_rev_a/obj/sdk/drivers/uart/test/uart_test.o
                                                  /home/leon/git/swp-report/iMX6_Platform_SDK/output/mx6sl/obds/evk_rev_a/obj/apps/obds/src/obds.o
g_usb_host1_dev_enum_test_name                    /home/leon/git/swp-report/iMX6_Platform_SDK/output/mx6sl/obds/evk_rev_a/obj/apps/obds/src/tests/usb_tests_obds.o
                                                  /home/leon/git/swp-report/iMX6_Platform_SDK/output/mx6sl/obds/evk_rev_a/obj/apps/obds/src/obds.o
g_usb_otg_dev_enum_test_name                      /home/leon/git/swp-report/iMX6_Platform_SDK/output/mx6sl/obds/evk_rev_a/obj/apps/obds/src/tests/usb_tests_obds.o
                                                  /home/leon/git/swp-report/iMX6_Platform_SDK/output/mx6sl/obds/evk_rev_a/obj/apps/obds/src/obds.o
g_vectNum                                         /home/leon/git/swp-report/iMX6_Platform_SDK/output/mx6sl/lib/libsdk.a(interrupt.o)
g_wm8962_i2c_device                               /home/leon/git/swp-report/iMX6_Platform_SDK/output/mx6sl/lib/libboard_evk_rev_a.a(board_i2c.o)
                                                  /home/leon/git/swp-report/iMX6_Platform_SDK/output/mx6sl/lib/libsdk.a(wm8962.o)
get_arm_private_peripheral_base                   /home/leon/git/swp-report/iMX6_Platform_SDK/output/mx6sl/lib/libsdk.a(cortexA9.o)
                                                  /home/leon/git/swp-report/iMX6_Platform_SDK/output/mx6sl/lib/libsdk.a(gic.o)
get_board_id                                      /home/leon/git/swp-report/iMX6_Platform_SDK/output/mx6sl/lib/libsdk.a(board_id.o)
                                                  /home/leon/git/swp-report/iMX6_Platform_SDK/output/mx6sl/obds/evk_rev_a/obj/apps/obds/src/tests/program_board_id.o
                                                  /home/leon/git/swp-report/iMX6_Platform_SDK/output/mx6sl/obds/evk_rev_a/obj/apps/obds/src/obds.o
                                                  /home/leon/git/swp-report/iMX6_Platform_SDK/output/mx6sl/obds/evk_rev_a/obj/apps/common/print_version.o
get_color_supported                               /home/leon/git/swp-report/iMX6_Platform_SDK/output/mx6sl/lib/libsdk.a(text_color.o)
get_ddr_density                                   /home/leon/git/swp-report/iMX6_Platform_SDK/output/mx6sl/obds/evk_rev_a/obj/apps/obds/src/tests/ddr_test.o
get_input_hex                                     /home/leon/git/swp-report/iMX6_Platform_SDK/output/mx6sl/lib/libsdk.a(system_util.o)
get_main_clock                                    /home/leon/git/swp-report/iMX6_Platform_SDK/output/mx6sl/lib/libsdk.a(ccm_pll.o)
                                                  /home/leon/git/swp-report/iMX6_Platform_SDK/output/mx6sl/lib/libsdk.a(timer.o)
                                                  /home/leon/git/swp-report/iMX6_Platform_SDK/output/mx6sl/lib/libsdk.a(imx_i2c.o)
                                                  /home/leon/git/swp-report/iMX6_Platform_SDK/output/mx6sl/lib/libsdk.a(fec_drv.o)
                                                  /home/leon/git/swp-report/iMX6_Platform_SDK/output/mx6sl/obds/evk_rev_a/obj/apps/common/print_clock_info.o
get_menu_item                                     /home/leon/git/swp-report/iMX6_Platform_SDK/output/mx6sl/lib/libsdk.a(usb_common.o)
                                                  /home/leon/git/swp-report/iMX6_Platform_SDK/output/mx6sl/obds/evk_rev_a/obj/sdk/drivers/usb/test/usb0_host_testmodes_test.o
get_peri_clock                                    /home/leon/git/swp-report/iMX6_Platform_SDK/output/mx6sl/lib/libsdk.a(ccm_pll.o)
                                                  /home/leon/git/swp-report/iMX6_Platform_SDK/output/mx6sl/lib/libsdk.a(imx_uart.o)
                                                  /home/leon/git/swp-report/iMX6_Platform_SDK/output/mx6sl/obds/evk_rev_a/obj/apps/common/print_clock_info.o
gic_cpu_enable                                    /home/leon/git/swp-report/iMX6_Platform_SDK/output/mx6sl/lib/libsdk.a(gic.o)
gic_enable                                        /home/leon/git/swp-report/iMX6_Platform_SDK/output/mx6sl/lib/libsdk.a(gic.o)
gic_enable_irq                                    /home/leon/git/swp-report/iMX6_Platform_SDK/output/mx6sl/lib/libsdk.a(gic.o)
                                                  /home/leon/git/swp-report/iMX6_Platform_SDK/output/mx6sl/lib/libsdk.a(interrupt.o)
gic_init                                          /home/leon/git/swp-report/iMX6_Platform_SDK/output/mx6sl/lib/libsdk.a(gic.o)
                                                  /home/leon/git/swp-report/iMX6_Platform_SDK/output/mx6sl/obds/evk_rev_a/obj/apps/common/platform_init.o
gic_init_cpu                                      /home/leon/git/swp-report/iMX6_Platform_SDK/output/mx6sl/lib/libsdk.a(gic.o)
gic_read_irq_ack                                  /home/leon/git/swp-report/iMX6_Platform_SDK/output/mx6sl/lib/libsdk.a(gic.o)
                                                  /home/leon/git/swp-report/iMX6_Platform_SDK/output/mx6sl/lib/libsdk.a(interrupt.o)
gic_send_sgi                                      /home/leon/git/swp-report/iMX6_Platform_SDK/output/mx6sl/lib/libsdk.a(gic.o)
gic_set_cpu_priority_mask                         /home/leon/git/swp-report/iMX6_Platform_SDK/output/mx6sl/lib/libsdk.a(gic.o)
gic_set_cpu_target                                /home/leon/git/swp-report/iMX6_Platform_SDK/output/mx6sl/lib/libsdk.a(gic.o)
                                                  /home/leon/git/swp-report/iMX6_Platform_SDK/output/mx6sl/lib/libsdk.a(interrupt.o)
gic_set_irq_priority                              /home/leon/git/swp-report/iMX6_Platform_SDK/output/mx6sl/lib/libsdk.a(gic.o)
                                                  /home/leon/git/swp-report/iMX6_Platform_SDK/output/mx6sl/lib/libsdk.a(interrupt.o)
gic_set_irq_security                              /home/leon/git/swp-report/iMX6_Platform_SDK/output/mx6sl/lib/libsdk.a(gic.o)
                                                  /home/leon/git/swp-report/iMX6_Platform_SDK/output/mx6sl/lib/libsdk.a(interrupt.o)
gic_write_end_of_irq                              /home/leon/git/swp-report/iMX6_Platform_SDK/output/mx6sl/lib/libsdk.a(gic.o)
                                                  /home/leon/git/swp-report/iMX6_Platform_SDK/output/mx6sl/lib/libsdk.a(interrupt.o)
gpio1_iomux_config                                /home/leon/git/swp-report/iMX6_Platform_SDK/output/mx6sl/lib/libboard_evk_rev_a.a(gpio1_iomux_config.o)
                                                  /home/leon/git/swp-report/iMX6_Platform_SDK/output/mx6sl/lib/libboard_evk_rev_a.a(iomux_config.o)
gpio2_iomux_config                                /home/leon/git/swp-report/iMX6_Platform_SDK/output/mx6sl/lib/libboard_evk_rev_a.a(iomux_config.o)
gpio3_iomux_config                                /home/leon/git/swp-report/iMX6_Platform_SDK/output/mx6sl/lib/libboard_evk_rev_a.a(iomux_config.o)
gpio4_iomux_config                                /home/leon/git/swp-report/iMX6_Platform_SDK/output/mx6sl/lib/libboard_evk_rev_a.a(gpio4_iomux_config.o)
                                                  /home/leon/git/swp-report/iMX6_Platform_SDK/output/mx6sl/lib/libboard_evk_rev_a.a(iomux_config.o)
gpio5_iomux_config                                /home/leon/git/swp-report/iMX6_Platform_SDK/output/mx6sl/lib/libboard_evk_rev_a.a(iomux_config.o)
gpio_clear_interrupt                              /home/leon/git/swp-report/iMX6_Platform_SDK/output/mx6sl/lib/libsdk.a(gpio.o)
gpio_get_direction                                /home/leon/git/swp-report/iMX6_Platform_SDK/output/mx6sl/lib/libsdk.a(gpio.o)
gpio_get_interrupt_status                         /home/leon/git/swp-report/iMX6_Platform_SDK/output/mx6sl/lib/libsdk.a(gpio.o)
gpio_get_level                                    /home/leon/git/swp-report/iMX6_Platform_SDK/output/mx6sl/lib/libsdk.a(gpio.o)
                                                  /home/leon/git/swp-report/iMX6_Platform_SDK/output/mx6sl/obds/evk_rev_a/obj/apps/obds/src/tests/touch_screen_max11801.o
gpio_get_port_count                               /home/leon/git/swp-report/iMX6_Platform_SDK/output/mx6sl/lib/libsdk.a(gpio.o)
gpio_led_test                                     /home/leon/git/swp-report/iMX6_Platform_SDK/output/mx6sl/obds/evk_rev_a/obj/apps/obds/src/tests/gpio_led.o
gpio_set_direction                                /home/leon/git/swp-report/iMX6_Platform_SDK/output/mx6sl/lib/libsdk.a(gpio.o)
                                                  /home/leon/git/swp-report/iMX6_Platform_SDK/output/mx6sl/lib/libboard_evk_rev_a.a(board_display.o)
                                                  /home/leon/git/swp-report/iMX6_Platform_SDK/output/mx6sl/lib/libboard_evk_rev_a.a(board_camera.o)
                                                  /home/leon/git/swp-report/iMX6_Platform_SDK/output/mx6sl/obds/evk_rev_a/obj/sdk/drivers/fec/test/fec_test.o
                                                  /home/leon/git/swp-report/iMX6_Platform_SDK/output/mx6sl/obds/evk_rev_a/obj/apps/obds/src/tests/gpio_led.o
gpio_set_gpio                                     /home/leon/git/swp-report/iMX6_Platform_SDK/output/mx6sl/lib/libsdk.a(gpio.o)
                                                  /home/leon/git/swp-report/iMX6_Platform_SDK/output/mx6sl/lib/libboard_evk_rev_a.a(board_display.o)
                                                  /home/leon/git/swp-report/iMX6_Platform_SDK/output/mx6sl/lib/libboard_evk_rev_a.a(board_camera.o)
gpio_set_interrupt_config                         /home/leon/git/swp-report/iMX6_Platform_SDK/output/mx6sl/lib/libsdk.a(gpio.o)
gpio_set_interrupt_mask                           /home/leon/git/swp-report/iMX6_Platform_SDK/output/mx6sl/lib/libsdk.a(gpio.o)
gpio_set_level                                    /home/leon/git/swp-report/iMX6_Platform_SDK/output/mx6sl/lib/libsdk.a(gpio.o)
                                                  /home/leon/git/swp-report/iMX6_Platform_SDK/output/mx6sl/lib/libboard_evk_rev_a.a(board_display.o)
                                                  /home/leon/git/swp-report/iMX6_Platform_SDK/output/mx6sl/lib/libboard_evk_rev_a.a(board_camera.o)
                                                  /home/leon/git/swp-report/iMX6_Platform_SDK/output/mx6sl/obds/evk_rev_a/obj/sdk/drivers/fec/test/fec_test.o
                                                  /home/leon/git/swp-report/iMX6_Platform_SDK/output/mx6sl/obds/evk_rev_a/obj/apps/obds/src/tests/gpio_led.o
gps_test                                          /home/leon/git/swp-report/iMX6_Platform_SDK/output/mx6sl/obds/evk_rev_a/obj/apps/obds/src/tests/gps_test.o
gps_test_enable                                   /home/leon/git/swp-report/iMX6_Platform_SDK/output/mx6sl/obds/evk_rev_a/obj/apps/obds/src/tests/gps_test.o
gpt_iomux_config                                  /home/leon/git/swp-report/iMX6_Platform_SDK/output/mx6sl/lib/libboard_evk_rev_a.a(iomux_config.o)
hal_delay_us                                      /home/leon/git/swp-report/iMX6_Platform_SDK/output/mx6sl/lib/libsdk.a(timer.o)
                                                  /home/leon/git/swp-report/iMX6_Platform_SDK/output/mx6sl/lib/libboard_evk_rev_a.a(board_camera.o)
                                                  /home/leon/git/swp-report/iMX6_Platform_SDK/output/mx6sl/lib/libsdk.a(usdhc_sd.o)
                                                  /home/leon/git/swp-report/iMX6_Platform_SDK/output/mx6sl/lib/libsdk.a(usdhc_mmc.o)
                                                  /home/leon/git/swp-report/iMX6_Platform_SDK/output/mx6sl/lib/libsdk.a(usdhc_host.o)
                                                  /home/leon/git/swp-report/iMX6_Platform_SDK/output/mx6sl/lib/libsdk.a(ecspi.o)
                                                  /home/leon/git/swp-report/iMX6_Platform_SDK/output/mx6sl/lib/libsdk.a(pxp_drv.o)
                                                  /home/leon/git/swp-report/iMX6_Platform_SDK/output/mx6sl/lib/libsdk.a(lcdif_drv.o)
                                                  /home/leon/git/swp-report/iMX6_Platform_SDK/output/mx6sl/lib/libsdk.a(fec_drv.o)
                                                  /home/leon/git/swp-report/iMX6_Platform_SDK/output/mx6sl/lib/libsdk.a(smd_sensor.o)
                                                  /home/leon/git/swp-report/iMX6_Platform_SDK/output/mx6sl/lib/libsdk.a(csi_drv.o)
                                                  /home/leon/git/swp-report/iMX6_Platform_SDK/output/mx6sl/lib/libsdk.a(wm8962.o)
                                                  /home/leon/git/swp-report/iMX6_Platform_SDK/output/mx6sl/obds/evk_rev_a/obj/sdk/drivers/spi/test/spi_nor_numonyx.o
                                                  /home/leon/git/swp-report/iMX6_Platform_SDK/output/mx6sl/obds/evk_rev_a/obj/sdk/drivers/fec/test/fec_test.o
                                                  /home/leon/git/swp-report/iMX6_Platform_SDK/output/mx6sl/obds/evk_rev_a/obj/apps/obds/src/tests/touch_screen_max11801.o
                                                  /home/leon/git/swp-report/iMX6_Platform_SDK/output/mx6sl/obds/evk_rev_a/obj/apps/obds/src/tests/touch_screen.o
                                                  /home/leon/git/swp-report/iMX6_Platform_SDK/output/mx6sl/obds/evk_rev_a/obj/apps/obds/src/tests/snvs_srtc_test.o
                                                  /home/leon/git/swp-report/iMX6_Platform_SDK/output/mx6sl/obds/evk_rev_a/obj/apps/obds/src/tests/keyboard_test.o
                                                  /home/leon/git/swp-report/iMX6_Platform_SDK/output/mx6sl/obds/evk_rev_a/obj/apps/obds/src/tests/i2c_device_temp_sensor_emc1046.o
                                                  /home/leon/git/swp-report/iMX6_Platform_SDK/output/mx6sl/obds/evk_rev_a/obj/apps/obds/src/tests/i2c_device_id_check_mma8451.o
                                                  /home/leon/git/swp-report/iMX6_Platform_SDK/output/mx6sl/obds/evk_rev_a/obj/apps/obds/src/tests/i2c_check_light_sensor_isl29023.o
                                                  /home/leon/git/swp-report/iMX6_Platform_SDK/output/mx6sl/obds/evk_rev_a/obj/apps/obds/src/tests/gpio_led.o
host_cfg_block                                    /home/leon/git/swp-report/iMX6_Platform_SDK/output/mx6sl/lib/libsdk.a(usdhc_host.o)
                                                  /home/leon/git/swp-report/iMX6_Platform_SDK/output/mx6sl/lib/libsdk.a(usdhc_mmc.o)
                                                  /home/leon/git/swp-report/iMX6_Platform_SDK/output/mx6sl/lib/libsdk.a(usdhc.o)
host_cfg_clock                                    /home/leon/git/swp-report/iMX6_Platform_SDK/output/mx6sl/lib/libsdk.a(usdhc_host.o)
                                                  /home/leon/git/swp-report/iMX6_Platform_SDK/output/mx6sl/lib/libsdk.a(usdhc_sd.o)
                                                  /home/leon/git/swp-report/iMX6_Platform_SDK/output/mx6sl/lib/libsdk.a(usdhc_mmc.o)
                                                  /home/leon/git/swp-report/iMX6_Platform_SDK/output/mx6sl/lib/libsdk.a(usdhc.o)
host_clear_fifo                                   /home/leon/git/swp-report/iMX6_Platform_SDK/output/mx6sl/lib/libsdk.a(usdhc_host.o)
                                                  /home/leon/git/swp-report/iMX6_Platform_SDK/output/mx6sl/lib/libsdk.a(usdhc.o)
host_data_read                                    /home/leon/git/swp-report/iMX6_Platform_SDK/output/mx6sl/lib/libsdk.a(usdhc_host.o)
                                                  /home/leon/git/swp-report/iMX6_Platform_SDK/output/mx6sl/lib/libsdk.a(usdhc_mmc.o)
                                                  /home/leon/git/swp-report/iMX6_Platform_SDK/output/mx6sl/lib/libsdk.a(usdhc.o)
host_data_write                                   /home/leon/git/swp-report/iMX6_Platform_SDK/output/mx6sl/lib/libsdk.a(usdhc_host.o)
                                                  /home/leon/git/swp-report/iMX6_Platform_SDK/output/mx6sl/lib/libsdk.a(usdhc.o)
host_init                                         /home/leon/git/swp-report/iMX6_Platform_SDK/output/mx6sl/lib/libsdk.a(usdhc_host.o)
                                                  /home/leon/git/swp-report/iMX6_Platform_SDK/output/mx6sl/lib/libsdk.a(usdhc.o)
host_init_active                                  /home/leon/git/swp-report/iMX6_Platform_SDK/output/mx6sl/lib/libsdk.a(usdhc_host.o)
                                                  /home/leon/git/swp-report/iMX6_Platform_SDK/output/mx6sl/lib/libsdk.a(usdhc.o)
host_read_response                                /home/leon/git/swp-report/iMX6_Platform_SDK/output/mx6sl/lib/libsdk.a(usdhc_host.o)
                                                  /home/leon/git/swp-report/iMX6_Platform_SDK/output/mx6sl/lib/libsdk.a(usdhc_sd.o)
                                                  /home/leon/git/swp-report/iMX6_Platform_SDK/output/mx6sl/lib/libsdk.a(usdhc_mmc.o)
                                                  /home/leon/git/swp-report/iMX6_Platform_SDK/output/mx6sl/lib/libsdk.a(usdhc.o)
host_reset                                        /home/leon/git/swp-report/iMX6_Platform_SDK/output/mx6sl/lib/libsdk.a(usdhc_host.o)
                                                  /home/leon/git/swp-report/iMX6_Platform_SDK/output/mx6sl/lib/libsdk.a(usdhc.o)
host_send_cmd                                     /home/leon/git/swp-report/iMX6_Platform_SDK/output/mx6sl/lib/libsdk.a(usdhc_host.o)
                                                  /home/leon/git/swp-report/iMX6_Platform_SDK/output/mx6sl/lib/libsdk.a(usdhc_sd.o)
                                                  /home/leon/git/swp-report/iMX6_Platform_SDK/output/mx6sl/lib/libsdk.a(usdhc_mmc.o)
                                                  /home/leon/git/swp-report/iMX6_Platform_SDK/output/mx6sl/lib/libsdk.a(usdhc.o)
host_set_bus_width                                /home/leon/git/swp-report/iMX6_Platform_SDK/output/mx6sl/lib/libsdk.a(usdhc_host.o)
                                                  /home/leon/git/swp-report/iMX6_Platform_SDK/output/mx6sl/lib/libsdk.a(usdhc_sd.o)
                                                  /home/leon/git/swp-report/iMX6_Platform_SDK/output/mx6sl/lib/libsdk.a(usdhc_mmc.o)
host_setup_adma                                   /home/leon/git/swp-report/iMX6_Platform_SDK/output/mx6sl/lib/libsdk.a(usdhc_host.o)
                                                  /home/leon/git/swp-report/iMX6_Platform_SDK/output/mx6sl/lib/libsdk.a(usdhc.o)
i2c1_iomux_config                                 /home/leon/git/swp-report/iMX6_Platform_SDK/output/mx6sl/lib/libboard_evk_rev_a.a(i2c1_iomux_config.o)
                                                  /home/leon/git/swp-report/iMX6_Platform_SDK/output/mx6sl/lib/libboard_evk_rev_a.a(iomux_config.o)
                                                  /home/leon/git/swp-report/iMX6_Platform_SDK/output/mx6sl/lib/libboard_evk_rev_a.a(i2c_iomux_config.o)
i2c2_iomux_config                                 /home/leon/git/swp-report/iMX6_Platform_SDK/output/mx6sl/lib/libboard_evk_rev_a.a(i2c2_iomux_config.o)
                                                  /home/leon/git/swp-report/iMX6_Platform_SDK/output/mx6sl/lib/libboard_evk_rev_a.a(iomux_config.o)
                                                  /home/leon/git/swp-report/iMX6_Platform_SDK/output/mx6sl/lib/libboard_evk_rev_a.a(i2c_iomux_config.o)
i2c3_iomux_config                                 /home/leon/git/swp-report/iMX6_Platform_SDK/output/mx6sl/lib/libboard_evk_rev_a.a(i2c3_iomux_config.o)
                                                  /home/leon/git/swp-report/iMX6_Platform_SDK/output/mx6sl/lib/libboard_evk_rev_a.a(iomux_config.o)
                                                  /home/leon/git/swp-report/iMX6_Platform_SDK/output/mx6sl/lib/libboard_evk_rev_a.a(i2c_iomux_config.o)
i2c_device_check_max11801                         /home/leon/git/swp-report/iMX6_Platform_SDK/output/mx6sl/obds/evk_rev_a/obj/apps/obds/src/tests/touch_screen_max11801.o
i2c_device_check_max11801_AUX                     /home/leon/git/swp-report/iMX6_Platform_SDK/output/mx6sl/obds/evk_rev_a/obj/apps/obds/src/tests/touch_screen_max11801.o
i2c_device_emc1046_test                           /home/leon/git/swp-report/iMX6_Platform_SDK/output/mx6sl/obds/evk_rev_a/obj/apps/obds/src/tests/i2c_device_temp_sensor_emc1046.o
i2c_device_id_check_DA9053                        /home/leon/git/swp-report/iMX6_Platform_SDK/output/mx6sl/obds/evk_rev_a/obj/apps/obds/src/tests/pmic_da9053.o
i2c_device_id_check_MAX17135                      /home/leon/git/swp-report/iMX6_Platform_SDK/output/mx6sl/obds/evk_rev_a/obj/apps/obds/src/tests/pmic_max17135.o
                                                  /home/leon/git/swp-report/iMX6_Platform_SDK/output/mx6sl/obds/evk_rev_a/obj/apps/obds/src/obds.o
i2c_device_id_check_MMA8450                       /home/leon/git/swp-report/iMX6_Platform_SDK/output/mx6sl/obds/evk_rev_a/obj/apps/obds/src/tests/i2c_device_id_check_mma8450.o
                                                  /home/leon/git/swp-report/iMX6_Platform_SDK/output/mx6sl/obds/evk_rev_a/obj/apps/obds/src/obds.o
i2c_device_id_check_MMA8451                       /home/leon/git/swp-report/iMX6_Platform_SDK/output/mx6sl/obds/evk_rev_a/obj/apps/obds/src/tests/i2c_device_id_check_mma8451.o
i2c_device_id_check_emc1046                       /home/leon/git/swp-report/iMX6_Platform_SDK/output/mx6sl/obds/evk_rev_a/obj/apps/obds/src/tests/i2c_device_temp_sensor_emc1046.o
i2c_device_id_check_isl29023                      /home/leon/git/swp-report/iMX6_Platform_SDK/output/mx6sl/obds/evk_rev_a/obj/apps/obds/src/tests/i2c_check_light_sensor_isl29023.o
i2c_device_id_check_mag3110                       /home/leon/git/swp-report/iMX6_Platform_SDK/output/mx6sl/obds/evk_rev_a/obj/apps/obds/src/tests/i2c_device_digital_compass_mag3110.o
i2c_device_id_check_mag3112                       /home/leon/git/swp-report/iMX6_Platform_SDK/output/mx6sl/obds/evk_rev_a/obj/apps/obds/src/tests/i2c_device_digital_compass_mag3112.o
i2c_device_id_check_mc1323                        /home/leon/git/swp-report/iMX6_Platform_SDK/output/mx6sl/obds/evk_rev_a/obj/apps/obds/src/tests/i2c_device_zigbee_mc1323.o
i2c_device_id_check_ppl3115                       /home/leon/git/swp-report/iMX6_Platform_SDK/output/mx6sl/obds/evk_rev_a/obj/apps/obds/src/tests/i2c_device_barometer_ppl3115.o
i2c_device_mc1323_test                            /home/leon/git/swp-report/iMX6_Platform_SDK/output/mx6sl/obds/evk_rev_a/obj/apps/obds/src/tests/i2c_device_zigbee_mc1323.o
i2c_device_ppl3115_test                           /home/leon/git/swp-report/iMX6_Platform_SDK/output/mx6sl/obds/evk_rev_a/obj/apps/obds/src/tests/i2c_device_barometer_ppl3115.o
i2c_get_request_instance                          /home/leon/git/swp-report/iMX6_Platform_SDK/output/mx6sl/lib/libsdk.a(imx_i2c.o)
i2c_init                                          /home/leon/git/swp-report/iMX6_Platform_SDK/output/mx6sl/lib/libsdk.a(imx_i2c.o)
                                                  /home/leon/git/swp-report/iMX6_Platform_SDK/output/mx6sl/lib/libsdk.a(smd_sensor.o)
                                                  /home/leon/git/swp-report/iMX6_Platform_SDK/output/mx6sl/lib/libsdk.a(wm8962.o)
                                                  /home/leon/git/swp-report/iMX6_Platform_SDK/output/mx6sl/obds/evk_rev_a/obj/sdk/common/pmic/pfuse/pf0100.o
                                                  /home/leon/git/swp-report/iMX6_Platform_SDK/output/mx6sl/obds/evk_rev_a/obj/apps/obds/src/tests/touch_screen_max11801.o
                                                  /home/leon/git/swp-report/iMX6_Platform_SDK/output/mx6sl/obds/evk_rev_a/obj/apps/obds/src/tests/touch_screen.o
                                                  /home/leon/git/swp-report/iMX6_Platform_SDK/output/mx6sl/obds/evk_rev_a/obj/apps/obds/src/tests/pmic_max17135.o
                                                  /home/leon/git/swp-report/iMX6_Platform_SDK/output/mx6sl/obds/evk_rev_a/obj/apps/obds/src/tests/pmic_lt3589.o
                                                  /home/leon/git/swp-report/iMX6_Platform_SDK/output/mx6sl/obds/evk_rev_a/obj/apps/obds/src/tests/pmic_da9053.o
                                                  /home/leon/git/swp-report/iMX6_Platform_SDK/output/mx6sl/obds/evk_rev_a/obj/apps/obds/src/tests/i2c_eeprom_at24cxx_test.o
                                                  /home/leon/git/swp-report/iMX6_Platform_SDK/output/mx6sl/obds/evk_rev_a/obj/apps/obds/src/tests/i2c_device_zigbee_mc1323.o
                                                  /home/leon/git/swp-report/iMX6_Platform_SDK/output/mx6sl/obds/evk_rev_a/obj/apps/obds/src/tests/i2c_device_temp_sensor_emc1046.o
                                                  /home/leon/git/swp-report/iMX6_Platform_SDK/output/mx6sl/obds/evk_rev_a/obj/apps/obds/src/tests/i2c_device_id_check_mma8451.o
                                                  /home/leon/git/swp-report/iMX6_Platform_SDK/output/mx6sl/obds/evk_rev_a/obj/apps/obds/src/tests/i2c_device_id_check_mma8450.o
                                                  /home/leon/git/swp-report/iMX6_Platform_SDK/output/mx6sl/obds/evk_rev_a/obj/apps/obds/src/tests/i2c_device_digital_compass_mag3112.o
                                                  /home/leon/git/swp-report/iMX6_Platform_SDK/output/mx6sl/obds/evk_rev_a/obj/apps/obds/src/tests/i2c_device_digital_compass_mag3110.o
                                                  /home/leon/git/swp-report/iMX6_Platform_SDK/output/mx6sl/obds/evk_rev_a/obj/apps/obds/src/tests/i2c_device_barometer_ppl3115.o
                                                  /home/leon/git/swp-report/iMX6_Platform_SDK/output/mx6sl/obds/evk_rev_a/obj/apps/obds/src/tests/i2c_check_light_sensor_isl29023.o
i2c_iomux_config                                  /home/leon/git/swp-report/iMX6_Platform_SDK/output/mx6sl/lib/libboard_evk_rev_a.a(i2c_iomux_config.o)
                                                  /home/leon/git/swp-report/iMX6_Platform_SDK/output/mx6sl/lib/libsdk.a(imx_i2c.o)
i2c_read                                          /home/leon/git/swp-report/iMX6_Platform_SDK/output/mx6sl/lib/libsdk.a(imx_i2c.o)
i2c_setup_interrupt                               /home/leon/git/swp-report/iMX6_Platform_SDK/output/mx6sl/lib/libsdk.a(imx_i2c.o)
i2c_write                                         /home/leon/git/swp-report/iMX6_Platform_SDK/output/mx6sl/lib/libsdk.a(imx_i2c.o)
i2c_xfer                                          /home/leon/git/swp-report/iMX6_Platform_SDK/output/mx6sl/lib/libsdk.a(imx_i2c.o)
                                                  /home/leon/git/swp-report/iMX6_Platform_SDK/output/mx6sl/lib/libsdk.a(smd_sensor.o)
                                                  /home/leon/git/swp-report/iMX6_Platform_SDK/output/mx6sl/lib/libsdk.a(wm8962.o)
                                                  /home/leon/git/swp-report/iMX6_Platform_SDK/output/mx6sl/obds/evk_rev_a/obj/sdk/common/pmic/pfuse/pf0100.o
                                                  /home/leon/git/swp-report/iMX6_Platform_SDK/output/mx6sl/obds/evk_rev_a/obj/apps/obds/src/tests/touch_screen_max11801.o
                                                  /home/leon/git/swp-report/iMX6_Platform_SDK/output/mx6sl/obds/evk_rev_a/obj/apps/obds/src/tests/touch_screen.o
                                                  /home/leon/git/swp-report/iMX6_Platform_SDK/output/mx6sl/obds/evk_rev_a/obj/apps/obds/src/tests/pmic_max17135.o
                                                  /home/leon/git/swp-report/iMX6_Platform_SDK/output/mx6sl/obds/evk_rev_a/obj/apps/obds/src/tests/pmic_lt3589.o
                                                  /home/leon/git/swp-report/iMX6_Platform_SDK/output/mx6sl/obds/evk_rev_a/obj/apps/obds/src/tests/pmic_da9053.o
                                                  /home/leon/git/swp-report/iMX6_Platform_SDK/output/mx6sl/obds/evk_rev_a/obj/apps/obds/src/tests/i2c_eeprom_at24cxx_test.o
                                                  /home/leon/git/swp-report/iMX6_Platform_SDK/output/mx6sl/obds/evk_rev_a/obj/apps/obds/src/tests/i2c_device_zigbee_mc1323.o
                                                  /home/leon/git/swp-report/iMX6_Platform_SDK/output/mx6sl/obds/evk_rev_a/obj/apps/obds/src/tests/i2c_device_temp_sensor_emc1046.o
                                                  /home/leon/git/swp-report/iMX6_Platform_SDK/output/mx6sl/obds/evk_rev_a/obj/apps/obds/src/tests/i2c_device_id_check_mma8451.o
                                                  /home/leon/git/swp-report/iMX6_Platform_SDK/output/mx6sl/obds/evk_rev_a/obj/apps/obds/src/tests/i2c_device_id_check_mma8450.o
                                                  /home/leon/git/swp-report/iMX6_Platform_SDK/output/mx6sl/obds/evk_rev_a/obj/apps/obds/src/tests/i2c_device_digital_compass_mag3112.o
                                                  /home/leon/git/swp-report/iMX6_Platform_SDK/output/mx6sl/obds/evk_rev_a/obj/apps/obds/src/tests/i2c_device_digital_compass_mag3110.o
                                                  /home/leon/git/swp-report/iMX6_Platform_SDK/output/mx6sl/obds/evk_rev_a/obj/apps/obds/src/tests/i2c_device_barometer_ppl3115.o
                                                  /home/leon/git/swp-report/iMX6_Platform_SDK/output/mx6sl/obds/evk_rev_a/obj/apps/obds/src/tests/i2c_check_light_sensor_isl29023.o
i2s_audio_test                                    /home/leon/git/swp-report/iMX6_Platform_SDK/output/mx6sl/obds/evk_rev_a/obj/apps/obds/src/tests/audio_ssi_test.o
                                                  /home/leon/git/swp-report/iMX6_Platform_SDK/output/mx6sl/obds/evk_rev_a/obj/apps/obds/src/obds.o
image_center_copy                                 /home/leon/git/swp-report/iMX6_Platform_SDK/output/mx6sl/lib/libsdk.a(lcdif_drv.o)
                                                  /home/leon/git/swp-report/iMX6_Platform_SDK/output/mx6sl/obds/evk_rev_a/obj/sdk/drivers/lcdif/test/lcdif_display.o
imx_fec_get_phy_status                            /home/leon/git/swp-report/iMX6_Platform_SDK/output/mx6sl/lib/libsdk.a(fec_drv.o)
imx_fec_init                                      /home/leon/git/swp-report/iMX6_Platform_SDK/output/mx6sl/lib/libsdk.a(fec_drv.o)
                                                  /home/leon/git/swp-report/iMX6_Platform_SDK/output/mx6sl/obds/evk_rev_a/obj/sdk/drivers/fec/test/fec_test.o
imx_fec_isolate_phy                               /home/leon/git/swp-report/iMX6_Platform_SDK/output/mx6sl/lib/libsdk.a(fec_drv.o)
imx_fec_mii_read                                  /home/leon/git/swp-report/iMX6_Platform_SDK/output/mx6sl/lib/libsdk.a(fec_drv.o)
imx_fec_mii_type                                  /home/leon/git/swp-report/iMX6_Platform_SDK/output/mx6sl/lib/libsdk.a(fec_drv.o)
                                                  /home/leon/git/swp-report/iMX6_Platform_SDK/output/mx6sl/obds/evk_rev_a/obj/sdk/drivers/fec/test/fec_test.o
imx_fec_mii_write                                 /home/leon/git/swp-report/iMX6_Platform_SDK/output/mx6sl/lib/libsdk.a(fec_drv.o)
imx_fec_phy_init                                  /home/leon/git/swp-report/iMX6_Platform_SDK/output/mx6sl/lib/libsdk.a(fec_drv.o)
                                                  /home/leon/git/swp-report/iMX6_Platform_SDK/output/mx6sl/obds/evk_rev_a/obj/sdk/drivers/fec/test/fec_test.o
imx_fec_poll                                      /home/leon/git/swp-report/iMX6_Platform_SDK/output/mx6sl/lib/libsdk.a(fec_drv.o)
                                                  /home/leon/git/swp-report/iMX6_Platform_SDK/output/mx6sl/obds/evk_rev_a/obj/sdk/drivers/fec/test/fec_test.o
imx_fec_recv                                      /home/leon/git/swp-report/iMX6_Platform_SDK/output/mx6sl/lib/libsdk.a(fec_drv.o)
                                                  /home/leon/git/swp-report/iMX6_Platform_SDK/output/mx6sl/obds/evk_rev_a/obj/sdk/drivers/fec/test/fec_test.o
imx_fec_send                                      /home/leon/git/swp-report/iMX6_Platform_SDK/output/mx6sl/lib/libsdk.a(fec_drv.o)
                                                  /home/leon/git/swp-report/iMX6_Platform_SDK/output/mx6sl/obds/evk_rev_a/obj/sdk/drivers/fec/test/fec_test.o
imx_fec_start                                     /home/leon/git/swp-report/iMX6_Platform_SDK/output/mx6sl/lib/libsdk.a(fec_drv.o)
                                                  /home/leon/git/swp-report/iMX6_Platform_SDK/output/mx6sl/obds/evk_rev_a/obj/sdk/drivers/fec/test/fec_test.o
imx_fec_stop                                      /home/leon/git/swp-report/iMX6_Platform_SDK/output/mx6sl/lib/libsdk.a(fec_drv.o)
                                                  /home/leon/git/swp-report/iMX6_Platform_SDK/output/mx6sl/obds/evk_rev_a/obj/sdk/drivers/fec/test/fec_test.o
imx_fec_unisolate_phy                             /home/leon/git/swp-report/iMX6_Platform_SDK/output/mx6sl/lib/libsdk.a(fec_drv.o)
imx_spdif                                         /home/leon/git/swp-report/iMX6_Platform_SDK/output/mx6sl/lib/libsdk.a(imx_spdif.o)
                                                  /home/leon/git/swp-report/iMX6_Platform_SDK/output/mx6sl/obds/evk_rev_a/obj/sdk/drivers/audio/src/snd_card.o
imx_ssi_1                                         /home/leon/git/swp-report/iMX6_Platform_SDK/output/mx6sl/lib/libsdk.a(imx-ssi.o)
imx_ssi_2                                         /home/leon/git/swp-report/iMX6_Platform_SDK/output/mx6sl/lib/libsdk.a(imx-ssi.o)
                                                  /home/leon/git/swp-report/iMX6_Platform_SDK/output/mx6sl/obds/evk_rev_a/obj/sdk/drivers/audio/src/snd_card.o
imx_ssi_3                                         /home/leon/git/swp-report/iMX6_Platform_SDK/output/mx6sl/lib/libsdk.a(imx-ssi.o)
input_dcd                                         /home/leon/git/swp-report/iMX6_Platform_SDK/output/mx6sl/lib/libboard_evk_rev_a.a(dcd.o)
input_dcd_hdr                                     /home/leon/git/swp-report/iMX6_Platform_SDK/output/mx6sl/lib/libboard_evk_rev_a.a(dcd.o)
                                                  /home/leon/git/swp-report/iMX6_Platform_SDK/output/mx6sl/obds/evk_rev_a/obj/apps/common/ivt.o
input_dcd_wrt_cmd                                 /home/leon/git/swp-report/iMX6_Platform_SDK/output/mx6sl/lib/libboard_evk_rev_a.a(dcd.o)
input_ivt                                         /home/leon/git/swp-report/iMX6_Platform_SDK/output/mx6sl/obds/evk_rev_a/obj/apps/common/ivt.o
instance                                          /home/leon/git/swp-report/iMX6_Platform_SDK/output/mx6sl/obds/evk_rev_a/obj/apps/obds/src/tests/mmcsd_test.o
iomux_config                                      /home/leon/git/swp-report/iMX6_Platform_SDK/output/mx6sl/lib/libboard_evk_rev_a.a(iomux_config.o)
is_color_supported                                /home/leon/git/swp-report/iMX6_Platform_SDK/output/mx6sl/lib/libsdk.a(text_color.o)
is_input_char                                     /home/leon/git/swp-report/iMX6_Platform_SDK/output/mx6sl/lib/libsdk.a(system_util.o)
                                                  /home/leon/git/swp-report/iMX6_Platform_SDK/output/mx6sl/obds/evk_rev_a/obj/sdk/drivers/fec/test/fec_test.o
                                                  /home/leon/git/swp-report/iMX6_Platform_SDK/output/mx6sl/obds/evk_rev_a/obj/apps/obds/src/tests/program_mac_address.o
                                                  /home/leon/git/swp-report/iMX6_Platform_SDK/output/mx6sl/obds/evk_rev_a/obj/apps/obds/src/tests/program_board_id.o
                                                  /home/leon/git/swp-report/iMX6_Platform_SDK/output/mx6sl/obds/evk_rev_a/obj/apps/obds/src/tests/pmic_da9053.o
                                                  /home/leon/git/swp-report/iMX6_Platform_SDK/output/mx6sl/obds/evk_rev_a/obj/apps/obds/src/tests/mmcsd_test.o
                                                  /home/leon/git/swp-report/iMX6_Platform_SDK/output/mx6sl/obds/evk_rev_a/obj/apps/obds/src/tests/keyboard_test.o
                                                  /home/leon/git/swp-report/iMX6_Platform_SDK/output/mx6sl/obds/evk_rev_a/obj/apps/obds/src/tests/i2c_eeprom_at24cxx_test.o
                                                  /home/leon/git/swp-report/iMX6_Platform_SDK/output/mx6sl/obds/evk_rev_a/obj/apps/obds/src/tests/gps_test.o
                                                  /home/leon/git/swp-report/iMX6_Platform_SDK/output/mx6sl/obds/evk_rev_a/obj/apps/obds/src/tests/audio_ssi_test.o
                                                  /home/leon/git/swp-report/iMX6_Platform_SDK/output/mx6sl/obds/evk_rev_a/obj/apps/obds/src/obds.o
jump_to_sdp                                       /home/leon/git/swp-report/iMX6_Platform_SDK/output/mx6sl/lib/libsdk.a(system_util.o)
k_gpio_mux_registers                              /home/leon/git/swp-report/iMX6_Platform_SDK/output/mx6sl/lib/libsdk.a(imx6sl_gpio_map.o)
                                                  /home/leon/git/swp-report/iMX6_Platform_SDK/output/mx6sl/lib/libsdk.a(gpio.o)
k_sdk_copyright                                   /home/leon/git/swp-report/iMX6_Platform_SDK/output/mx6sl/lib/libsdk.a(sdk_version.o)
                                                  /home/leon/git/swp-report/iMX6_Platform_SDK/output/mx6sl/obds/evk_rev_a/obj/apps/common/print_version.o
k_sdk_version                                     /home/leon/git/swp-report/iMX6_Platform_SDK/output/mx6sl/lib/libsdk.a(sdk_version.o)
                                                  /home/leon/git/swp-report/iMX6_Platform_SDK/output/mx6sl/obds/evk_rev_a/obj/apps/common/print_version.o
kpp_clr_cols_data                                 /home/leon/git/swp-report/iMX6_Platform_SDK/output/mx6sl/obds/evk_rev_a/obj/apps/obds/src/tests/keyboard_test.o
kpp_clr_keypad_int                                /home/leon/git/swp-report/iMX6_Platform_SDK/output/mx6sl/obds/evk_rev_a/obj/apps/obds/src/tests/keyboard_test.o
kpp_detect_keypad_pressed                         /home/leon/git/swp-report/iMX6_Platform_SDK/output/mx6sl/obds/evk_rev_a/obj/apps/obds/src/tests/keyboard_test.o
kpp_detect_keypad_released                        /home/leon/git/swp-report/iMX6_Platform_SDK/output/mx6sl/obds/evk_rev_a/obj/apps/obds/src/tests/keyboard_test.o
kpp_enable_rows                                   /home/leon/git/swp-report/iMX6_Platform_SDK/output/mx6sl/obds/evk_rev_a/obj/apps/obds/src/tests/keyboard_test.o
kpp_iomux_config                                  /home/leon/git/swp-report/iMX6_Platform_SDK/output/mx6sl/lib/libboard_evk_rev_a.a(kpp_iomux_config.o)
                                                  /home/leon/git/swp-report/iMX6_Platform_SDK/output/mx6sl/lib/libboard_evk_rev_a.a(iomux_config.o)
                                                  /home/leon/git/swp-report/iMX6_Platform_SDK/output/mx6sl/obds/evk_rev_a/obj/apps/obds/src/tests/keyboard_test.o
kpp_print_key_press_on_dc3                        /home/leon/git/swp-report/iMX6_Platform_SDK/output/mx6sl/obds/evk_rev_a/obj/apps/obds/src/tests/keyboard_test.o
kpp_print_key_press_on_evk                        /home/leon/git/swp-report/iMX6_Platform_SDK/output/mx6sl/obds/evk_rev_a/obj/apps/obds/src/tests/keyboard_test.o
kpp_scan_matrix                                   /home/leon/git/swp-report/iMX6_Platform_SDK/output/mx6sl/obds/evk_rev_a/obj/apps/obds/src/tests/keyboard_test.o
kpp_set_cols_data                                 /home/leon/git/swp-report/iMX6_Platform_SDK/output/mx6sl/obds/evk_rev_a/obj/apps/obds/src/tests/keyboard_test.o
kpp_set_cols_opendrain                            /home/leon/git/swp-report/iMX6_Platform_SDK/output/mx6sl/obds/evk_rev_a/obj/apps/obds/src/tests/keyboard_test.o
kpp_set_cols_totempole                            /home/leon/git/swp-report/iMX6_Platform_SDK/output/mx6sl/obds/evk_rev_a/obj/apps/obds/src/tests/keyboard_test.o
kpp_set_data_dir                                  /home/leon/git/swp-report/iMX6_Platform_SDK/output/mx6sl/obds/evk_rev_a/obj/apps/obds/src/tests/keyboard_test.o
kpp_trace_keypad_status                           /home/leon/git/swp-report/iMX6_Platform_SDK/output/mx6sl/obds/evk_rev_a/obj/apps/obds/src/tests/keyboard_test.o
lcd_iomux_config                                  /home/leon/git/swp-report/iMX6_Platform_SDK/output/mx6sl/lib/libboard_evk_rev_a.a(lcd_iomux_config.o)
                                                  /home/leon/git/swp-report/iMX6_Platform_SDK/output/mx6sl/lib/libboard_evk_rev_a.a(iomux_config.o)
                                                  /home/leon/git/swp-report/iMX6_Platform_SDK/output/mx6sl/lib/libsdk.a(lcdif_drv.o)
lcdif_backlight_on                                /home/leon/git/swp-report/iMX6_Platform_SDK/output/mx6sl/lib/libboard_evk_rev_a.a(board_display.o)
                                                  /home/leon/git/swp-report/iMX6_Platform_SDK/output/mx6sl/lib/libsdk.a(lcdif_drv.o)
lcdif_clock_enable                                /home/leon/git/swp-report/iMX6_Platform_SDK/output/mx6sl/lib/libboard_evk_rev_a.a(board_display.o)
                                                  /home/leon/git/swp-report/iMX6_Platform_SDK/output/mx6sl/lib/libsdk.a(lcdif_drv.o)
lcdif_csc_config                                  /home/leon/git/swp-report/iMX6_Platform_SDK/output/mx6sl/lib/libsdk.a(lcdif_drv.o)
lcdif_display_setup                               /home/leon/git/swp-report/iMX6_Platform_SDK/output/mx6sl/lib/libsdk.a(lcdif_drv.o)
                                                  /home/leon/git/swp-report/iMX6_Platform_SDK/output/mx6sl/obds/evk_rev_a/obj/sdk/drivers/lcdif/test/lcdif_display.o
                                                  /home/leon/git/swp-report/iMX6_Platform_SDK/output/mx6sl/obds/evk_rev_a/obj/sdk/drivers/camera/test/csi_sensor_capture.o
lcdif_display_test                                /home/leon/git/swp-report/iMX6_Platform_SDK/output/mx6sl/obds/evk_rev_a/obj/sdk/drivers/lcdif/test/lcdif_display.o
                                                  /home/leon/git/swp-report/iMX6_Platform_SDK/output/mx6sl/obds/evk_rev_a/obj/apps/obds/src/obds.o
lcdif_power_on                                    /home/leon/git/swp-report/iMX6_Platform_SDK/output/mx6sl/lib/libboard_evk_rev_a.a(board_display.o)
                                                  /home/leon/git/swp-report/iMX6_Platform_SDK/output/mx6sl/lib/libsdk.a(lcdif_drv.o)
localeconv                                        /home/leon/riotboard/arm-2012.09/bin/../arm-none-eabi/lib//libc.a(lib_a-locale.o)
ltc3589_backlight_en                              /home/leon/git/swp-report/iMX6_Platform_SDK/output/mx6sl/obds/evk_rev_a/obj/apps/obds/src/tests/pmic_lt3589.o
ltc3589_camera_power_on                           /home/leon/git/swp-report/iMX6_Platform_SDK/output/mx6sl/obds/evk_rev_a/obj/apps/obds/src/tests/pmic_lt3589.o
ltc3589_eval                                      /home/leon/git/swp-report/iMX6_Platform_SDK/output/mx6sl/obds/evk_rev_a/obj/apps/obds/src/tests/pmic_lt3589.o
ltc3589_i2c_device_id_check                       /home/leon/git/swp-report/iMX6_Platform_SDK/output/mx6sl/obds/evk_rev_a/obj/apps/obds/src/tests/pmic_lt3589.o
ltc3589_reg_read                                  /home/leon/git/swp-report/iMX6_Platform_SDK/output/mx6sl/obds/evk_rev_a/obj/apps/obds/src/tests/pmic_lt3589.o
ltc3589_reg_write                                 /home/leon/git/swp-report/iMX6_Platform_SDK/output/mx6sl/obds/evk_rev_a/obj/apps/obds/src/tests/pmic_lt3589.o
m29w256gl_auto_dev_id                             /home/leon/git/swp-report/iMX6_Platform_SDK/output/mx6sl/obds/evk_rev_a/obj/apps/obds/src/tests/weim_nor_flash_test.o
m29w256gl_auto_manu_id                            /home/leon/git/swp-report/iMX6_Platform_SDK/output/mx6sl/obds/evk_rev_a/obj/apps/obds/src/tests/weim_nor_flash_test.o
mac_address_str                                   /home/leon/git/swp-report/iMX6_Platform_SDK/output/mx6sl/obds/evk_rev_a/obj/apps/obds/src/tests/program_mac_address.o
mag3110_reg_read                                  /home/leon/git/swp-report/iMX6_Platform_SDK/output/mx6sl/obds/evk_rev_a/obj/apps/obds/src/tests/i2c_device_digital_compass_mag3110.o
mag3112_reg_read                                  /home/leon/git/swp-report/iMX6_Platform_SDK/output/mx6sl/obds/evk_rev_a/obj/apps/obds/src/tests/i2c_device_digital_compass_mag3112.o
main                                              /home/leon/git/swp-report/iMX6_Platform_SDK/output/mx6sl/obds/evk_rev_a/obj/apps/obds/src/obds.o
                                                  /home/leon/git/swp-report/iMX6_Platform_SDK/output/mx6sl/lib/libsdk.a(startup.o)
main_menuitems                                    /home/leon/git/swp-report/iMX6_Platform_SDK/output/mx6sl/obds/evk_rev_a/obj/apps/obds/src/obds.o
malloc                                            /home/leon/riotboard/arm-2012.09/bin/../arm-none-eabi/lib//libc.a(lib_a-malloc.o)
                                                  /home/leon/git/swp-report/iMX6_Platform_SDK/output/mx6sl/lib/libsdk.a(usbh_drv.o)
                                                  /home/leon/git/swp-report/iMX6_Platform_SDK/output/mx6sl/lib/libsdk.a(system_util.o)
                                                  /home/leon/git/swp-report/iMX6_Platform_SDK/output/mx6sl/obds/evk_rev_a/obj/sdk/drivers/usb/test/usb0_host_test.o
                                                  /home/leon/git/swp-report/iMX6_Platform_SDK/output/mx6sl/obds/evk_rev_a/obj/apps/obds/src/tests/usb_tests_obds.o
                                                  /home/leon/git/swp-report/iMX6_Platform_SDK/output/mx6sl/obds/evk_rev_a/obj/apps/obds/src/obds.o
max11801_reg_read_multi                           /home/leon/git/swp-report/iMX6_Platform_SDK/output/mx6sl/obds/evk_rev_a/obj/apps/obds/src/tests/touch_screen_max11801.o
max11801_reg_read_single                          /home/leon/git/swp-report/iMX6_Platform_SDK/output/mx6sl/obds/evk_rev_a/obj/apps/obds/src/tests/touch_screen_max11801.o
max11801_reg_write                                /home/leon/git/swp-report/iMX6_Platform_SDK/output/mx6sl/obds/evk_rev_a/obj/apps/obds/src/tests/touch_screen_max11801.o
max11801_ts_test                                  /home/leon/git/swp-report/iMX6_Platform_SDK/output/mx6sl/obds/evk_rev_a/obj/apps/obds/src/tests/touch_screen_max11801.o
max17135_reg_read                                 /home/leon/git/swp-report/iMX6_Platform_SDK/output/mx6sl/obds/evk_rev_a/obj/apps/obds/src/tests/pmic_max17135.o
max17135_reg_write                                /home/leon/git/swp-report/iMX6_Platform_SDK/output/mx6sl/obds/evk_rev_a/obj/apps/obds/src/tests/pmic_max17135.o
mc13892_i2c_reg                                   /home/leon/git/swp-report/iMX6_Platform_SDK/output/mx6sl/obds/evk_rev_a/obj/apps/obds/src/tests/pmic_mc13892.o
memchr                                            /home/leon/riotboard/arm-2012.09/bin/../arm-none-eabi/lib//libc.a(lib_a-memchr.o)
                                                  /home/leon/riotboard/arm-2012.09/bin/../arm-none-eabi/lib//libc.a(lib_a-svfiprintf.o)
                                                  /home/leon/riotboard/arm-2012.09/bin/../arm-none-eabi/lib//libc.a(lib_a-fvwrite.o)
                                                  /home/leon/riotboard/arm-2012.09/bin/../arm-none-eabi/lib//libc.a(lib_a-vfprintf.o)
                                                  /home/leon/riotboard/arm-2012.09/bin/../arm-none-eabi/lib//libc.a(lib_a-vfiprintf.o)
                                                  /home/leon/riotboard/arm-2012.09/bin/../arm-none-eabi/lib//libc.a(lib_a-svfprintf.o)
memcpy                                            /home/leon/riotboard/arm-2012.09/bin/../arm-none-eabi/lib//libc.a(lib_a-memcpy.o)
                                                  /home/leon/riotboard/arm-2012.09/bin/../arm-none-eabi/lib//libc.a(lib_a-svfiprintf.o)
                                                  /home/leon/riotboard/arm-2012.09/bin/../arm-none-eabi/lib//libc.a(lib_a-mprec.o)
                                                  /home/leon/riotboard/arm-2012.09/bin/../arm-none-eabi/lib//libc.a(lib_a-fvwrite.o)
                                                  /home/leon/riotboard/arm-2012.09/bin/../arm-none-eabi/lib//libc.a(lib_a-dtoa.o)
                                                  /home/leon/git/swp-report/iMX6_Platform_SDK/output/mx6sl/lib/libsdk.a(lcdif_drv.o)
                                                  /home/leon/git/swp-report/iMX6_Platform_SDK/output/mx6sl/lib/libsdk.a(fec_drv.o)
                                                  /home/leon/git/swp-report/iMX6_Platform_SDK/output/mx6sl/lib/libsdk.a(mxc_epdc.o)
                                                  /home/leon/git/swp-report/iMX6_Platform_SDK/output/mx6sl/lib/libsdk.a(menu.o)
                                                  /home/leon/git/swp-report/iMX6_Platform_SDK/output/mx6sl/obds/evk_rev_a/obj/sdk/drivers/spi/test/imx_spi_nor_atmel.o
                                                  /home/leon/git/swp-report/iMX6_Platform_SDK/output/mx6sl/obds/evk_rev_a/obj/sdk/drivers/fec/test/fec_test.o
                                                  /home/leon/git/swp-report/iMX6_Platform_SDK/output/mx6sl/obds/evk_rev_a/obj/apps/obds/src/tests/touch_screen_max11801.o
memmove                                           /home/leon/riotboard/arm-2012.09/bin/../arm-none-eabi/lib//libc.a(lib_a-memmove.o)
                                                  /home/leon/riotboard/arm-2012.09/bin/../arm-none-eabi/lib//libc.a(lib_a-svfiprintf.o)
                                                  /home/leon/riotboard/arm-2012.09/bin/../arm-none-eabi/lib//libc.a(lib_a-fvwrite.o)
                                                  /home/leon/riotboard/arm-2012.09/bin/../arm-none-eabi/lib//libc.a(lib_a-reallocr.o)
memset                                            /home/leon/riotboard/arm-2012.09/bin/../arm-none-eabi/lib//libc.a(lib_a-memset.o)
                                                  /home/leon/riotboard/arm-2012.09/bin/../arm-none-eabi/lib//libc.a(lib_a-callocr.o)
                                                  /home/leon/riotboard/arm-2012.09/bin/../arm-none-eabi/lib//libc.a(lib_a-findfp.o)
                                                  /home/leon/git/swp-report/iMX6_Platform_SDK/output/mx6sl/lib/libsdk.a(lcdif_drv.o)
                                                  /home/leon/git/swp-report/iMX6_Platform_SDK/output/mx6sl/lib/libsdk.a(mxc_epdc.o)
                                                  /home/leon/git/swp-report/iMX6_Platform_SDK/output/mx6sl/lib/libsdk.a(board_id.o)
                                                  /home/leon/git/swp-report/iMX6_Platform_SDK/output/mx6sl/lib/libsdk.a(imx_spdif.o)
                                                  /home/leon/git/swp-report/iMX6_Platform_SDK/output/mx6sl/lib/libsdk.a(menu.o)
                                                  /home/leon/git/swp-report/iMX6_Platform_SDK/output/mx6sl/obds/evk_rev_a/obj/sdk/drivers/usdhc/test/usdhc_test.o
                                                  /home/leon/git/swp-report/iMX6_Platform_SDK/output/mx6sl/obds/evk_rev_a/obj/sdk/drivers/spi/test/spi_nor_numonyx.o
                                                  /home/leon/git/swp-report/iMX6_Platform_SDK/output/mx6sl/obds/evk_rev_a/obj/sdk/drivers/fec/test/fec_test.o
                                                  /home/leon/git/swp-report/iMX6_Platform_SDK/output/mx6sl/obds/evk_rev_a/obj/apps/obds/src/tests/usb_tests_obds.o
                                                  /home/leon/git/swp-report/iMX6_Platform_SDK/output/mx6sl/obds/evk_rev_a/obj/apps/obds/src/tests/keyboard_test.o
                                                  /home/leon/git/swp-report/iMX6_Platform_SDK/output/mx6sl/obds/evk_rev_a/obj/apps/obds/src/tests/imx_spi_nor_test.o
                                                  /home/leon/git/swp-report/iMX6_Platform_SDK/output/mx6sl/obds/evk_rev_a/obj/apps/obds/src/obds.o
                                                  /home/leon/git/swp-report/iMX6_Platform_SDK/output/mx6sl/obds/evk_rev_a/obj/apps/common/print_version.o
menu_append_menuitems                             /home/leon/git/swp-report/iMX6_Platform_SDK/output/mx6sl/lib/libsdk.a(menu.o)
                                                  /home/leon/git/swp-report/iMX6_Platform_SDK/output/mx6sl/obds/evk_rev_a/obj/apps/obds/src/obds.o
menu_get_indent                                   /home/leon/git/swp-report/iMX6_Platform_SDK/output/mx6sl/lib/libsdk.a(menu.o)
                                                  /home/leon/git/swp-report/iMX6_Platform_SDK/output/mx6sl/lib/libsdk.a(usdhc.o)
                                                  /home/leon/git/swp-report/iMX6_Platform_SDK/output/mx6sl/obds/evk_rev_a/obj/sdk/drivers/usdhc/test/usdhc_test.o
                                                  /home/leon/git/swp-report/iMX6_Platform_SDK/output/mx6sl/obds/evk_rev_a/obj/sdk/drivers/uart/test/uart_test.o
                                                  /home/leon/git/swp-report/iMX6_Platform_SDK/output/mx6sl/obds/evk_rev_a/obj/sdk/drivers/lcdif/test/lcdif_display.o
                                                  /home/leon/git/swp-report/iMX6_Platform_SDK/output/mx6sl/obds/evk_rev_a/obj/sdk/drivers/fec/test/fec_test.o
                                                  /home/leon/git/swp-report/iMX6_Platform_SDK/output/mx6sl/obds/evk_rev_a/obj/sdk/drivers/epdc/test/epdc_test.o
                                                  /home/leon/git/swp-report/iMX6_Platform_SDK/output/mx6sl/obds/evk_rev_a/obj/sdk/common/pmic/pfuse/pf0100.o
                                                  /home/leon/git/swp-report/iMX6_Platform_SDK/output/mx6sl/obds/evk_rev_a/obj/apps/obds/src/tests/weim_nor_flash_test.o
                                                  /home/leon/git/swp-report/iMX6_Platform_SDK/output/mx6sl/obds/evk_rev_a/obj/apps/obds/src/tests/touch_screen.o
                                                  /home/leon/git/swp-report/iMX6_Platform_SDK/output/mx6sl/obds/evk_rev_a/obj/apps/obds/src/tests/snvs_srtc_test.o
                                                  /home/leon/git/swp-report/iMX6_Platform_SDK/output/mx6sl/obds/evk_rev_a/obj/apps/obds/src/tests/program_mac_address.o
                                                  /home/leon/git/swp-report/iMX6_Platform_SDK/output/mx6sl/obds/evk_rev_a/obj/apps/obds/src/tests/program_board_id.o
                                                  /home/leon/git/swp-report/iMX6_Platform_SDK/output/mx6sl/obds/evk_rev_a/obj/apps/obds/src/tests/pmic_mc13892.o
                                                  /home/leon/git/swp-report/iMX6_Platform_SDK/output/mx6sl/obds/evk_rev_a/obj/apps/obds/src/tests/pmic_max17135.o
                                                  /home/leon/git/swp-report/iMX6_Platform_SDK/output/mx6sl/obds/evk_rev_a/obj/apps/obds/src/tests/mmcsd_test.o
                                                  /home/leon/git/swp-report/iMX6_Platform_SDK/output/mx6sl/obds/evk_rev_a/obj/apps/obds/src/tests/keyboard_test.o
                                                  /home/leon/git/swp-report/iMX6_Platform_SDK/output/mx6sl/obds/evk_rev_a/obj/apps/obds/src/tests/imx_spi_nor_test.o
                                                  /home/leon/git/swp-report/iMX6_Platform_SDK/output/mx6sl/obds/evk_rev_a/obj/apps/obds/src/tests/i2c_device_zigbee_mc1323.o
                                                  /home/leon/git/swp-report/iMX6_Platform_SDK/output/mx6sl/obds/evk_rev_a/obj/apps/obds/src/tests/i2c_device_id_check_mma8451.o
                                                  /home/leon/git/swp-report/iMX6_Platform_SDK/output/mx6sl/obds/evk_rev_a/obj/apps/obds/src/tests/i2c_device_id_check_mma8450.o
                                                  /home/leon/git/swp-report/iMX6_Platform_SDK/output/mx6sl/obds/evk_rev_a/obj/apps/obds/src/tests/i2c_device_digital_compass_mag3112.o
                                                  /home/leon/git/swp-report/iMX6_Platform_SDK/output/mx6sl/obds/evk_rev_a/obj/apps/obds/src/tests/i2c_device_digital_compass_mag3110.o
                                                  /home/leon/git/swp-report/iMX6_Platform_SDK/output/mx6sl/obds/evk_rev_a/obj/apps/obds/src/tests/i2c_check_light_sensor_isl29023.o
                                                  /home/leon/git/swp-report/iMX6_Platform_SDK/output/mx6sl/obds/evk_rev_a/obj/apps/obds/src/tests/gpio_led.o
                                                  /home/leon/git/swp-report/iMX6_Platform_SDK/output/mx6sl/obds/evk_rev_a/obj/apps/obds/src/tests/flexcan_test.o
                                                  /home/leon/git/swp-report/iMX6_Platform_SDK/output/mx6sl/obds/evk_rev_a/obj/apps/obds/src/tests/audio_ssi_test.o
                                                  /home/leon/git/swp-report/iMX6_Platform_SDK/output/mx6sl/obds/evk_rev_a/obj/apps/obds/src/obds.o
menu_present                                      /home/leon/git/swp-report/iMX6_Platform_SDK/output/mx6sl/lib/libsdk.a(menu.o)
                                                  /home/leon/git/swp-report/iMX6_Platform_SDK/output/mx6sl/obds/evk_rev_a/obj/apps/obds/src/obds.o
menu_print_menuitem                               /home/leon/git/swp-report/iMX6_Platform_SDK/output/mx6sl/lib/libsdk.a(menu.o)
menuitem_cmd_exitmenu                             /home/leon/git/swp-report/iMX6_Platform_SDK/output/mx6sl/lib/libsdk.a(menu.o)
                                                  /home/leon/git/swp-report/iMX6_Platform_SDK/output/mx6sl/obds/evk_rev_a/obj/apps/obds/src/obds.o
menuitem_cmd_showmenu                             /home/leon/git/swp-report/iMX6_Platform_SDK/output/mx6sl/lib/libsdk.a(menu.o)
                                                  /home/leon/git/swp-report/iMX6_Platform_SDK/output/mx6sl/obds/evk_rev_a/obj/apps/obds/src/obds.o
mma8450_get_accel                                 /home/leon/git/swp-report/iMX6_Platform_SDK/output/mx6sl/obds/evk_rev_a/obj/apps/obds/src/tests/i2c_device_id_check_mma8450.o
mma8450_set_config                                /home/leon/git/swp-report/iMX6_Platform_SDK/output/mx6sl/obds/evk_rev_a/obj/apps/obds/src/tests/i2c_device_id_check_mma8450.o
mma8450_show_accel                                /home/leon/git/swp-report/iMX6_Platform_SDK/output/mx6sl/obds/evk_rev_a/obj/apps/obds/src/tests/i2c_device_id_check_mma8450.o
mma8451_get_accel                                 /home/leon/git/swp-report/iMX6_Platform_SDK/output/mx6sl/obds/evk_rev_a/obj/apps/obds/src/tests/i2c_device_id_check_mma8451.o
mma8451_set_config                                /home/leon/git/swp-report/iMX6_Platform_SDK/output/mx6sl/obds/evk_rev_a/obj/apps/obds/src/tests/i2c_device_id_check_mma8451.o
mma8451_show_accel                                /home/leon/git/swp-report/iMX6_Platform_SDK/output/mx6sl/obds/evk_rev_a/obj/apps/obds/src/tests/i2c_device_id_check_mma8451.o
mmc_init                                          /home/leon/git/swp-report/iMX6_Platform_SDK/output/mx6sl/lib/libsdk.a(usdhc_mmc.o)
                                                  /home/leon/git/swp-report/iMX6_Platform_SDK/output/mx6sl/lib/libsdk.a(usdhc.o)
mmc_sd_test                                       /home/leon/git/swp-report/iMX6_Platform_SDK/output/mx6sl/obds/evk_rev_a/obj/sdk/drivers/usdhc/test/usdhc_test.o
                                                  /home/leon/git/swp-report/iMX6_Platform_SDK/output/mx6sl/obds/evk_rev_a/obj/apps/obds/src/tests/mmcsd_test.o
mmc_set_boot_ack                                  /home/leon/git/swp-report/iMX6_Platform_SDK/output/mx6sl/lib/libsdk.a(usdhc_mmc.o)
                                                  /home/leon/git/swp-report/iMX6_Platform_SDK/output/mx6sl/obds/evk_rev_a/obj/sdk/drivers/usdhc/test/usdhc_test.o
mmc_set_boot_bus_width                            /home/leon/git/swp-report/iMX6_Platform_SDK/output/mx6sl/lib/libsdk.a(usdhc_mmc.o)
                                                  /home/leon/git/swp-report/iMX6_Platform_SDK/output/mx6sl/obds/evk_rev_a/obj/sdk/drivers/usdhc/test/usdhc_test.o
mmc_set_boot_partition                            /home/leon/git/swp-report/iMX6_Platform_SDK/output/mx6sl/lib/libsdk.a(usdhc_mmc.o)
                                                  /home/leon/git/swp-report/iMX6_Platform_SDK/output/mx6sl/obds/evk_rev_a/obj/sdk/drivers/usdhc/test/usdhc_test.o
mmc_voltage_validation                            /home/leon/git/swp-report/iMX6_Platform_SDK/output/mx6sl/lib/libsdk.a(usdhc_mmc.o)
                                                  /home/leon/git/swp-report/iMX6_Platform_SDK/output/mx6sl/lib/libsdk.a(usdhc.o)
mmcsd_bus_width                                   /home/leon/git/swp-report/iMX6_Platform_SDK/output/mx6sl/obds/evk_rev_a/obj/apps/obds/src/tests/mmcsd_test.o
mmcsd_test                                        /home/leon/git/swp-report/iMX6_Platform_SDK/output/mx6sl/obds/evk_rev_a/obj/apps/obds/src/tests/mmcsd_test.o
                                                  /home/leon/git/swp-report/iMX6_Platform_SDK/output/mx6sl/obds/evk_rev_a/obj/apps/obds/src/obds.o
mmdc_iomux_config                                 /home/leon/git/swp-report/iMX6_Platform_SDK/output/mx6sl/lib/libboard_evk_rev_a.a(mmdc_iomux_config.o)
                                                  /home/leon/git/swp-report/iMX6_Platform_SDK/output/mx6sl/lib/libboard_evk_rev_a.a(iomux_config.o)
mmu_disable                                       /home/leon/git/swp-report/iMX6_Platform_SDK/output/mx6sl/lib/libsdk.a(mmu.o)
mmu_enable                                        /home/leon/git/swp-report/iMX6_Platform_SDK/output/mx6sl/lib/libsdk.a(mmu.o)
mmu_init                                          /home/leon/git/swp-report/iMX6_Platform_SDK/output/mx6sl/lib/libsdk.a(mmu.o)
                                                  /home/leon/git/swp-report/iMX6_Platform_SDK/output/mx6sl/obds/evk_rev_a/obj/apps/common/platform_init.o
mmu_map_l1_range                                  /home/leon/git/swp-report/iMX6_Platform_SDK/output/mx6sl/lib/libsdk.a(mmu.o)
mmu_virtual_to_physical                           /home/leon/git/swp-report/iMX6_Platform_SDK/output/mx6sl/lib/libsdk.a(mmu.o)
mybkpt                                            /home/leon/git/swp-report/iMX6_Platform_SDK/output/mx6sl/lib/libsdk.a(system_util.o)
obds_tests                                        /home/leon/git/swp-report/iMX6_Platform_SDK/output/mx6sl/obds/evk_rev_a/obj/apps/obds/src/obds.o
ocotp_fuse_blow_row                               /home/leon/git/swp-report/iMX6_Platform_SDK/output/mx6sl/lib/libsdk.a(ocotp.o)
                                                  /home/leon/git/swp-report/iMX6_Platform_SDK/output/mx6sl/obds/evk_rev_a/obj/apps/obds/src/tests/program_mac_address.o
                                                  /home/leon/git/swp-report/iMX6_Platform_SDK/output/mx6sl/obds/evk_rev_a/obj/apps/obds/src/tests/program_board_id.o
ocotp_reload_otp_shadow_registers                 /home/leon/git/swp-report/iMX6_Platform_SDK/output/mx6sl/lib/libsdk.a(ocotp.o)
                                                  /home/leon/git/swp-report/iMX6_Platform_SDK/output/mx6sl/obds/evk_rev_a/obj/apps/obds/src/tests/program_mac_address.o
                                                  /home/leon/git/swp-report/iMX6_Platform_SDK/output/mx6sl/obds/evk_rev_a/obj/apps/obds/src/tests/program_board_id.o
ocotp_sense_fuse                                  /home/leon/git/swp-report/iMX6_Platform_SDK/output/mx6sl/lib/libsdk.a(ocotp.o)
                                                  /home/leon/git/swp-report/iMX6_Platform_SDK/output/mx6sl/obds/evk_rev_a/obj/apps/obds/src/tests/program_mac_address.o
                                                  /home/leon/git/swp-report/iMX6_Platform_SDK/output/mx6sl/obds/evk_rev_a/obj/apps/obds/src/tests/program_board_id.o
ov5642_strobe_on                                  /home/leon/git/swp-report/iMX6_Platform_SDK/output/mx6sl/lib/libsdk.a(smd_sensor.o)
pcm_music                                         /home/leon/git/swp-report/iMX6_Platform_SDK/output/mx6sl/obds/evk_rev_a/obj/apps/obds/src/tests/audio_ssi_test.o
pcm_para                                          /home/leon/git/swp-report/iMX6_Platform_SDK/output/mx6sl/obds/evk_rev_a/obj/apps/obds/src/tests/audio_ssi_test.o
pcm_record                                        /home/leon/git/swp-report/iMX6_Platform_SDK/output/mx6sl/obds/evk_rev_a/obj/apps/obds/src/tests/audio_ssi_test.o
pen_status                                        /home/leon/git/swp-report/iMX6_Platform_SDK/output/mx6sl/obds/evk_rev_a/obj/apps/obds/src/tests/touch_screen.o
pf0100_enable_vgen1_1v2                           /home/leon/git/swp-report/iMX6_Platform_SDK/output/mx6sl/obds/evk_rev_a/obj/sdk/common/pmic/pfuse/pf0100.o
pf0100_enable_vgen2_1v5                           /home/leon/git/swp-report/iMX6_Platform_SDK/output/mx6sl/obds/evk_rev_a/obj/sdk/common/pmic/pfuse/pf0100.o
                                                  /home/leon/git/swp-report/iMX6_Platform_SDK/output/mx6sl/lib/libboard_evk_rev_a.a(board_camera.o)
pf0100_enable_vgen3_1v8                           /home/leon/git/swp-report/iMX6_Platform_SDK/output/mx6sl/obds/evk_rev_a/obj/sdk/common/pmic/pfuse/pf0100.o
                                                  /home/leon/git/swp-report/iMX6_Platform_SDK/output/mx6sl/lib/libboard_evk_rev_a.a(board_audio.o)
pf0100_enable_vgen4_1v8                           /home/leon/git/swp-report/iMX6_Platform_SDK/output/mx6sl/obds/evk_rev_a/obj/sdk/common/pmic/pfuse/pf0100.o
                                                  /home/leon/git/swp-report/iMX6_Platform_SDK/output/mx6sl/lib/libboard_evk_rev_a.a(board_camera.o)
pf0100_enable_vgen4_2v5                           /home/leon/git/swp-report/iMX6_Platform_SDK/output/mx6sl/obds/evk_rev_a/obj/sdk/common/pmic/pfuse/pf0100.o
pf0100_enable_vgen6_2v8                           /home/leon/git/swp-report/iMX6_Platform_SDK/output/mx6sl/obds/evk_rev_a/obj/sdk/common/pmic/pfuse/pf0100.o
                                                  /home/leon/git/swp-report/iMX6_Platform_SDK/output/mx6sl/lib/libboard_evk_rev_a.a(board_camera.o)
pf0100_i2c_device_id_check                        /home/leon/git/swp-report/iMX6_Platform_SDK/output/mx6sl/obds/evk_rev_a/obj/sdk/common/pmic/pfuse/pf0100.o
                                                  /home/leon/git/swp-report/iMX6_Platform_SDK/output/mx6sl/obds/evk_rev_a/obj/apps/obds/src/obds.o
pf0100_reg_read                                   /home/leon/git/swp-report/iMX6_Platform_SDK/output/mx6sl/obds/evk_rev_a/obj/sdk/common/pmic/pfuse/pf0100.o
pf0100_reg_write                                  /home/leon/git/swp-report/iMX6_Platform_SDK/output/mx6sl/obds/evk_rev_a/obj/sdk/common/pmic/pfuse/pf0100.o
platform_init                                     /home/leon/git/swp-report/iMX6_Platform_SDK/output/mx6sl/obds/evk_rev_a/obj/apps/common/platform_init.o
                                                  /home/leon/git/swp-report/iMX6_Platform_SDK/output/mx6sl/obds/evk_rev_a/obj/apps/obds/src/obds.o
pmic_da9053_test                                  /home/leon/git/swp-report/iMX6_Platform_SDK/output/mx6sl/obds/evk_rev_a/obj/apps/obds/src/tests/pmic_da9053.o
pmic_lt3589_test                                  /home/leon/git/swp-report/iMX6_Platform_SDK/output/mx6sl/obds/evk_rev_a/obj/apps/obds/src/tests/pmic_lt3589.o
pmic_mc13892_reg                                  /home/leon/git/swp-report/iMX6_Platform_SDK/output/mx6sl/obds/evk_rev_a/obj/apps/obds/src/tests/pmic_mc13892.o
pmic_mc13892_test                                 /home/leon/git/swp-report/iMX6_Platform_SDK/output/mx6sl/obds/evk_rev_a/obj/apps/obds/src/tests/pmic_mc13892.o
pmic_open_vgen1                                   /home/leon/git/swp-report/iMX6_Platform_SDK/output/mx6sl/obds/evk_rev_a/obj/apps/obds/src/tests/pmic_mc13892.o
pmic_open_vsd                                     /home/leon/git/swp-report/iMX6_Platform_SDK/output/mx6sl/obds/evk_rev_a/obj/apps/obds/src/tests/pmic_mc13892.o
pmic_open_vusb                                    /home/leon/git/swp-report/iMX6_Platform_SDK/output/mx6sl/obds/evk_rev_a/obj/apps/obds/src/tests/pmic_mc13892.o
pmu_iomux_config                                  /home/leon/git/swp-report/iMX6_Platform_SDK/output/mx6sl/lib/libboard_evk_rev_a.a(iomux_config.o)
prefetch_abort_handler                            /home/leon/git/swp-report/iMX6_Platform_SDK/output/mx6sl/lib/libsdk.a(arm_abort.o)
                                                  /home/leon/git/swp-report/iMX6_Platform_SDK/output/mx6sl/lib/libsdk.a(vectors.o)
print_test_failed                                 /home/leon/git/swp-report/iMX6_Platform_SDK/output/mx6sl/obds/evk_rev_a/obj/apps/obds/src/obds.o
print_test_not_implemented                        /home/leon/git/swp-report/iMX6_Platform_SDK/output/mx6sl/obds/evk_rev_a/obj/apps/obds/src/obds.o
print_test_passed                                 /home/leon/git/swp-report/iMX6_Platform_SDK/output/mx6sl/obds/evk_rev_a/obj/apps/obds/src/obds.o
print_test_skipped                                /home/leon/git/swp-report/iMX6_Platform_SDK/output/mx6sl/obds/evk_rev_a/obj/apps/obds/src/obds.o
print_version                                     /home/leon/git/swp-report/iMX6_Platform_SDK/output/mx6sl/obds/evk_rev_a/obj/apps/common/print_version.o
                                                  /home/leon/git/swp-report/iMX6_Platform_SDK/output/mx6sl/obds/evk_rev_a/obj/apps/obds/src/obds.o
printf                                            /home/leon/riotboard/arm-2012.09/bin/../arm-none-eabi/lib//libc.a(lib_a-printf.o)
                                                  /home/leon/git/swp-report/iMX6_Platform_SDK/output/mx6sl/lib/libsdk.a(abort_handler.o)
                                                  /home/leon/git/swp-report/iMX6_Platform_SDK/output/mx6sl/lib/libsdk.a(interrupt.o)
                                                  /home/leon/git/swp-report/iMX6_Platform_SDK/output/mx6sl/lib/libsdk.a(usdhc_sd.o)
                                                  /home/leon/git/swp-report/iMX6_Platform_SDK/output/mx6sl/lib/libsdk.a(usdhc_mmc.o)
                                                  /home/leon/git/swp-report/iMX6_Platform_SDK/output/mx6sl/lib/libsdk.a(usdhc_host.o)
                                                  /home/leon/git/swp-report/iMX6_Platform_SDK/output/mx6sl/lib/libsdk.a(usdhc.o)
                                                  /home/leon/git/swp-report/iMX6_Platform_SDK/output/mx6sl/lib/libsdk.a(usbh_drv.o)
                                                  /home/leon/git/swp-report/iMX6_Platform_SDK/output/mx6sl/lib/libsdk.a(usb_common.o)
                                                  /home/leon/git/swp-report/iMX6_Platform_SDK/output/mx6sl/lib/libsdk.a(ecspi.o)
                                                  /home/leon/git/swp-report/iMX6_Platform_SDK/output/mx6sl/lib/libsdk.a(lcdif_drv.o)
                                                  /home/leon/git/swp-report/iMX6_Platform_SDK/output/mx6sl/lib/libsdk.a(gpio.o)
                                                  /home/leon/git/swp-report/iMX6_Platform_SDK/output/mx6sl/lib/libsdk.a(fec_drv.o)
                                                  /home/leon/git/swp-report/iMX6_Platform_SDK/output/mx6sl/lib/libsdk.a(mxc_epdc.o)
                                                  /home/leon/git/swp-report/iMX6_Platform_SDK/output/mx6sl/lib/libsdk.a(smd_sensor.o)
                                                  /home/leon/git/swp-report/iMX6_Platform_SDK/output/mx6sl/lib/libsdk.a(board_id.o)
                                                  /home/leon/git/swp-report/iMX6_Platform_SDK/output/mx6sl/lib/libsdk.a(wm8962.o)
                                                  /home/leon/git/swp-report/iMX6_Platform_SDK/output/mx6sl/lib/libsdk.a(imx_spdif.o)
                                                  /home/leon/git/swp-report/iMX6_Platform_SDK/output/mx6sl/lib/libsdk.a(imx_audmux.o)
                                                  /home/leon/git/swp-report/iMX6_Platform_SDK/output/mx6sl/lib/libsdk.a(imx-ssi.o)
                                                  /home/leon/git/swp-report/iMX6_Platform_SDK/output/mx6sl/lib/libsdk.a(text_color.o)
                                                  /home/leon/git/swp-report/iMX6_Platform_SDK/output/mx6sl/lib/libsdk.a(system_util.o)
                                                  /home/leon/git/swp-report/iMX6_Platform_SDK/output/mx6sl/lib/libsdk.a(menu.o)
                                                  /home/leon/git/swp-report/iMX6_Platform_SDK/output/mx6sl/obds/evk_rev_a/obj/sdk/drivers/usdhc/test/usdhc_test.o
                                                  /home/leon/git/swp-report/iMX6_Platform_SDK/output/mx6sl/obds/evk_rev_a/obj/sdk/drivers/usb/test/usb0_host_testmodes_test.o
                                                  /home/leon/git/swp-report/iMX6_Platform_SDK/output/mx6sl/obds/evk_rev_a/obj/sdk/drivers/usb/test/usb0_host_test.o
                                                  /home/leon/git/swp-report/iMX6_Platform_SDK/output/mx6sl/obds/evk_rev_a/obj/sdk/drivers/uart/test/uart_test.o
                                                  /home/leon/git/swp-report/iMX6_Platform_SDK/output/mx6sl/obds/evk_rev_a/obj/sdk/drivers/spi/test/spi_nor_numonyx.o
                                                  /home/leon/git/swp-report/iMX6_Platform_SDK/output/mx6sl/obds/evk_rev_a/obj/sdk/drivers/spi/test/imx_spi_nor_atmel.o
                                                  /home/leon/git/swp-report/iMX6_Platform_SDK/output/mx6sl/obds/evk_rev_a/obj/sdk/drivers/lcdif/test/lcdif_display.o
                                                  /home/leon/git/swp-report/iMX6_Platform_SDK/output/mx6sl/obds/evk_rev_a/obj/sdk/drivers/fec/test/fec_test.o
                                                  /home/leon/git/swp-report/iMX6_Platform_SDK/output/mx6sl/obds/evk_rev_a/obj/sdk/drivers/epdc/test/epdc_test.o
                                                  /home/leon/git/swp-report/iMX6_Platform_SDK/output/mx6sl/obds/evk_rev_a/obj/sdk/drivers/camera/test/csi_sensor_capture.o
                                                  /home/leon/git/swp-report/iMX6_Platform_SDK/output/mx6sl/obds/evk_rev_a/obj/sdk/drivers/camera/test/camera_test.o
                                                  /home/leon/git/swp-report/iMX6_Platform_SDK/output/mx6sl/obds/evk_rev_a/obj/sdk/drivers/audio/src/snd_card.o
                                                  /home/leon/git/swp-report/iMX6_Platform_SDK/output/mx6sl/obds/evk_rev_a/obj/sdk/common/pmic/pfuse/pf0100.o
                                                  /home/leon/git/swp-report/iMX6_Platform_SDK/output/mx6sl/obds/evk_rev_a/obj/apps/obds/src/tests/weim_nor_flash_test.o
                                                  /home/leon/git/swp-report/iMX6_Platform_SDK/output/mx6sl/obds/evk_rev_a/obj/apps/obds/src/tests/usb_tests_obds.o
                                                  /home/leon/git/swp-report/iMX6_Platform_SDK/output/mx6sl/obds/evk_rev_a/obj/apps/obds/src/tests/touch_screen_max11801.o
                                                  /home/leon/git/swp-report/iMX6_Platform_SDK/output/mx6sl/obds/evk_rev_a/obj/apps/obds/src/tests/touch_screen.o
                                                  /home/leon/git/swp-report/iMX6_Platform_SDK/output/mx6sl/obds/evk_rev_a/obj/apps/obds/src/tests/snvs_srtc_test.o
                                                  /home/leon/git/swp-report/iMX6_Platform_SDK/output/mx6sl/obds/evk_rev_a/obj/apps/obds/src/tests/program_mac_address.o
                                                  /home/leon/git/swp-report/iMX6_Platform_SDK/output/mx6sl/obds/evk_rev_a/obj/apps/obds/src/tests/program_board_id.o
                                                  /home/leon/git/swp-report/iMX6_Platform_SDK/output/mx6sl/obds/evk_rev_a/obj/apps/obds/src/tests/pmic_mc13892.o
                                                  /home/leon/git/swp-report/iMX6_Platform_SDK/output/mx6sl/obds/evk_rev_a/obj/apps/obds/src/tests/pmic_max17135.o
                                                  /home/leon/git/swp-report/iMX6_Platform_SDK/output/mx6sl/obds/evk_rev_a/obj/apps/obds/src/tests/pmic_lt3589.o
                                                  /home/leon/git/swp-report/iMX6_Platform_SDK/output/mx6sl/obds/evk_rev_a/obj/apps/obds/src/tests/pmic_da9053.o
                                                  /home/leon/git/swp-report/iMX6_Platform_SDK/output/mx6sl/obds/evk_rev_a/obj/apps/obds/src/tests/mmcsd_test.o
                                                  /home/leon/git/swp-report/iMX6_Platform_SDK/output/mx6sl/obds/evk_rev_a/obj/apps/obds/src/tests/keyboard_test.o
                                                  /home/leon/git/swp-report/iMX6_Platform_SDK/output/mx6sl/obds/evk_rev_a/obj/apps/obds/src/tests/imx_spi_nor_test.o
                                                  /home/leon/git/swp-report/iMX6_Platform_SDK/output/mx6sl/obds/evk_rev_a/obj/apps/obds/src/tests/i2c_eeprom_at24cxx_test.o
                                                  /home/leon/git/swp-report/iMX6_Platform_SDK/output/mx6sl/obds/evk_rev_a/obj/apps/obds/src/tests/i2c_device_zigbee_mc1323.o
                                                  /home/leon/git/swp-report/iMX6_Platform_SDK/output/mx6sl/obds/evk_rev_a/obj/apps/obds/src/tests/i2c_device_temp_sensor_emc1046.o
                                                  /home/leon/git/swp-report/iMX6_Platform_SDK/output/mx6sl/obds/evk_rev_a/obj/apps/obds/src/tests/i2c_device_id_check_mma8451.o
                                                  /home/leon/git/swp-report/iMX6_Platform_SDK/output/mx6sl/obds/evk_rev_a/obj/apps/obds/src/tests/i2c_device_id_check_mma8450.o
                                                  /home/leon/git/swp-report/iMX6_Platform_SDK/output/mx6sl/obds/evk_rev_a/obj/apps/obds/src/tests/i2c_device_digital_compass_mag3112.o
                                                  /home/leon/git/swp-report/iMX6_Platform_SDK/output/mx6sl/obds/evk_rev_a/obj/apps/obds/src/tests/i2c_device_digital_compass_mag3110.o
                                                  /home/leon/git/swp-report/iMX6_Platform_SDK/output/mx6sl/obds/evk_rev_a/obj/apps/obds/src/tests/i2c_device_barometer_ppl3115.o
                                                  /home/leon/git/swp-report/iMX6_Platform_SDK/output/mx6sl/obds/evk_rev_a/obj/apps/obds/src/tests/i2c_check_light_sensor_isl29023.o
                                                  /home/leon/git/swp-report/iMX6_Platform_SDK/output/mx6sl/obds/evk_rev_a/obj/apps/obds/src/tests/gps_test.o
                                                  /home/leon/git/swp-report/iMX6_Platform_SDK/output/mx6sl/obds/evk_rev_a/obj/apps/obds/src/tests/gpio_led.o
                                                  /home/leon/git/swp-report/iMX6_Platform_SDK/output/mx6sl/obds/evk_rev_a/obj/apps/obds/src/tests/flexcan_test.o
                                                  /home/leon/git/swp-report/iMX6_Platform_SDK/output/mx6sl/obds/evk_rev_a/obj/apps/obds/src/tests/audio_ssi_test.o
                                                  /home/leon/git/swp-report/iMX6_Platform_SDK/output/mx6sl/obds/evk_rev_a/obj/apps/obds/src/obds_utils.o
                                                  /home/leon/git/swp-report/iMX6_Platform_SDK/output/mx6sl/obds/evk_rev_a/obj/apps/obds/src/obds.o
                                                  /home/leon/git/swp-report/iMX6_Platform_SDK/output/mx6sl/obds/evk_rev_a/obj/apps/common/print_version.o
                                                  /home/leon/git/swp-report/iMX6_Platform_SDK/output/mx6sl/obds/evk_rev_a/obj/apps/common/print_clock_info.o
printf_color                                      /home/leon/git/swp-report/iMX6_Platform_SDK/output/mx6sl/lib/libsdk.a(text_color.o)
                                                  /home/leon/git/swp-report/iMX6_Platform_SDK/output/mx6sl/lib/libsdk.a(system_util.o)
                                                  /home/leon/git/swp-report/iMX6_Platform_SDK/output/mx6sl/lib/libsdk.a(menu.o)
                                                  /home/leon/git/swp-report/iMX6_Platform_SDK/output/mx6sl/obds/evk_rev_a/obj/apps/obds/src/tests/program_mac_address.o
                                                  /home/leon/git/swp-report/iMX6_Platform_SDK/output/mx6sl/obds/evk_rev_a/obj/apps/obds/src/tests/program_board_id.o
                                                  /home/leon/git/swp-report/iMX6_Platform_SDK/output/mx6sl/obds/evk_rev_a/obj/apps/obds/src/obds.o
printf_hook                                       /home/leon/git/swp-report/iMX6_Platform_SDK/output/mx6sl/obds/evk_rev_a/obj/apps/obds/src/obds.o
program_board_id                                  /home/leon/git/swp-report/iMX6_Platform_SDK/output/mx6sl/obds/evk_rev_a/obj/apps/obds/src/tests/program_board_id.o
                                                  /home/leon/git/swp-report/iMX6_Platform_SDK/output/mx6sl/obds/evk_rev_a/obj/apps/obds/src/obds.o
program_board_id_fuses                            /home/leon/git/swp-report/iMX6_Platform_SDK/output/mx6sl/obds/evk_rev_a/obj/apps/obds/src/tests/program_board_id.o
program_mac_address                               /home/leon/git/swp-report/iMX6_Platform_SDK/output/mx6sl/obds/evk_rev_a/obj/apps/obds/src/tests/program_mac_address.o
                                                  /home/leon/git/swp-report/iMX6_Platform_SDK/output/mx6sl/obds/evk_rev_a/obj/apps/obds/src/obds.o
program_mac_address_fuses                         /home/leon/git/swp-report/iMX6_Platform_SDK/output/mx6sl/obds/evk_rev_a/obj/apps/obds/src/tests/program_mac_address.o
prompt_run_test                                   /home/leon/git/swp-report/iMX6_Platform_SDK/output/mx6sl/obds/evk_rev_a/obj/apps/obds/src/obds.o
                                                  /home/leon/git/swp-report/iMX6_Platform_SDK/output/mx6sl/obds/evk_rev_a/obj/apps/obds/src/tests/touch_screen.o
                                                  /home/leon/git/swp-report/iMX6_Platform_SDK/output/mx6sl/obds/evk_rev_a/obj/apps/obds/src/tests/pmic_mc13892.o
                                                  /home/leon/git/swp-report/iMX6_Platform_SDK/output/mx6sl/obds/evk_rev_a/obj/apps/obds/src/tests/pmic_lt3589.o
                                                  /home/leon/git/swp-report/iMX6_Platform_SDK/output/mx6sl/obds/evk_rev_a/obj/apps/obds/src/tests/pmic_da9053.o
                                                  /home/leon/git/swp-report/iMX6_Platform_SDK/output/mx6sl/obds/evk_rev_a/obj/apps/obds/src/tests/i2c_device_zigbee_mc1323.o
putc                                              /home/leon/riotboard/arm-2012.09/bin/../arm-none-eabi/lib//libc.a(lib_a-putc.o)
pwm1_iomux_config                                 /home/leon/git/swp-report/iMX6_Platform_SDK/output/mx6sl/lib/libboard_evk_rev_a.a(pwm1_iomux_config.o)
                                                  /home/leon/git/swp-report/iMX6_Platform_SDK/output/mx6sl/lib/libboard_evk_rev_a.a(iomux_config.o)
pwm2_iomux_config                                 /home/leon/git/swp-report/iMX6_Platform_SDK/output/mx6sl/lib/libboard_evk_rev_a.a(iomux_config.o)
pwm3_iomux_config                                 /home/leon/git/swp-report/iMX6_Platform_SDK/output/mx6sl/lib/libboard_evk_rev_a.a(iomux_config.o)
pwm4_iomux_config                                 /home/leon/git/swp-report/iMX6_Platform_SDK/output/mx6sl/lib/libboard_evk_rev_a.a(iomux_config.o)
pxp_csc_process                                   /home/leon/git/swp-report/iMX6_Platform_SDK/output/mx6sl/lib/libsdk.a(pxp_drv.o)
                                                  /home/leon/git/swp-report/iMX6_Platform_SDK/output/mx6sl/obds/evk_rev_a/obj/sdk/drivers/camera/test/csi_sensor_capture.o
pxp_disable                                       /home/leon/git/swp-report/iMX6_Platform_SDK/output/mx6sl/lib/libsdk.a(pxp_drv.o)
                                                  /home/leon/git/swp-report/iMX6_Platform_SDK/output/mx6sl/obds/evk_rev_a/obj/sdk/drivers/camera/test/csi_sensor_capture.o
raise                                             /home/leon/riotboard/arm-2012.09/bin/../arm-none-eabi/lib//libc.a(lib_a-signal.o)
                                                  /home/leon/riotboard/arm-2012.09/bin/../arm-none-eabi/lib//libc.a(lib_a-abort.o)
read_input_string                                 /home/leon/git/swp-report/iMX6_Platform_SDK/output/mx6sl/lib/libsdk.a(system_util.o)
read_int                                          /home/leon/git/swp-report/iMX6_Platform_SDK/output/mx6sl/lib/libsdk.a(system_util.o)
read_mac_otp_registers                            /home/leon/git/swp-report/iMX6_Platform_SDK/output/mx6sl/obds/evk_rev_a/obj/apps/obds/src/tests/program_mac_address.o
read_usdhc_adma_mode                              /home/leon/git/swp-report/iMX6_Platform_SDK/output/mx6sl/lib/libsdk.a(usdhc.o)
                                                  /home/leon/git/swp-report/iMX6_Platform_SDK/output/mx6sl/lib/libsdk.a(usdhc_host.o)
read_usdhc_intr_mode                              /home/leon/git/swp-report/iMX6_Platform_SDK/output/mx6sl/lib/libsdk.a(usdhc.o)
                                                  /home/leon/git/swp-report/iMX6_Platform_SDK/output/mx6sl/lib/libsdk.a(usdhc_host.o)
                                                  /home/leon/git/swp-report/iMX6_Platform_SDK/output/mx6sl/obds/evk_rev_a/obj/sdk/drivers/usdhc/test/usdhc_test.o
realloc                                           /home/leon/riotboard/arm-2012.09/bin/../arm-none-eabi/lib//libc.a(lib_a-realloc.o)
                                                  /home/leon/git/swp-report/iMX6_Platform_SDK/output/mx6sl/lib/libsdk.a(system_util.o)
register_interrupt_routine                        /home/leon/git/swp-report/iMX6_Platform_SDK/output/mx6sl/lib/libsdk.a(interrupt.o)
                                                  /home/leon/git/swp-report/iMX6_Platform_SDK/output/mx6sl/lib/libsdk.a(epit.o)
                                                  /home/leon/git/swp-report/iMX6_Platform_SDK/output/mx6sl/lib/libsdk.a(usdhc.o)
                                                  /home/leon/git/swp-report/iMX6_Platform_SDK/output/mx6sl/lib/libsdk.a(imx_uart.o)
                                                  /home/leon/git/swp-report/iMX6_Platform_SDK/output/mx6sl/lib/libsdk.a(imx_i2c.o)
report_test_results                               /home/leon/git/swp-report/iMX6_Platform_SDK/output/mx6sl/obds/evk_rev_a/obj/apps/obds/src/obds.o
reset_usb_hub                                     /home/leon/git/swp-report/iMX6_Platform_SDK/output/mx6sl/lib/libboard_evk_rev_a.a(board_usb.o)
run_all_tests                                     /home/leon/git/swp-report/iMX6_Platform_SDK/output/mx6sl/obds/evk_rev_a/obj/apps/obds/src/obds.o
run_test                                          /home/leon/git/swp-report/iMX6_Platform_SDK/output/mx6sl/obds/evk_rev_a/obj/apps/obds/src/obds.o
scu_disable_maintenance_broadcast                 /home/leon/git/swp-report/iMX6_Platform_SDK/output/mx6sl/lib/libsdk.a(cortexA9.o)
scu_enable                                        /home/leon/git/swp-report/iMX6_Platform_SDK/output/mx6sl/lib/libsdk.a(cortexA9.o)
scu_enable_maintenance_broadcast                  /home/leon/git/swp-report/iMX6_Platform_SDK/output/mx6sl/lib/libsdk.a(cortexA9.o)
scu_get_cpus_in_smp                               /home/leon/git/swp-report/iMX6_Platform_SDK/output/mx6sl/lib/libsdk.a(cortexA9.o)
scu_join_smp                                      /home/leon/git/swp-report/iMX6_Platform_SDK/output/mx6sl/lib/libsdk.a(cortexA9.o)
scu_leave_smp                                     /home/leon/git/swp-report/iMX6_Platform_SDK/output/mx6sl/lib/libsdk.a(cortexA9.o)
scu_secure_invalidate                             /home/leon/git/swp-report/iMX6_Platform_SDK/output/mx6sl/lib/libsdk.a(cortexA9.o)
sd_if_cmd_arg                                     /home/leon/git/swp-report/iMX6_Platform_SDK/output/mx6sl/lib/libsdk.a(usdhc_sd.o)
sd_init                                           /home/leon/git/swp-report/iMX6_Platform_SDK/output/mx6sl/lib/libsdk.a(usdhc_sd.o)
                                                  /home/leon/git/swp-report/iMX6_Platform_SDK/output/mx6sl/lib/libsdk.a(usdhc.o)
sd_ocr_value                                      /home/leon/git/swp-report/iMX6_Platform_SDK/output/mx6sl/lib/libsdk.a(usdhc_sd.o)
sd_voltage_validation                             /home/leon/git/swp-report/iMX6_Platform_SDK/output/mx6sl/lib/libsdk.a(usdhc_sd.o)
                                                  /home/leon/git/swp-report/iMX6_Platform_SDK/output/mx6sl/lib/libsdk.a(usdhc.o)
sdma_iomux_config                                 /home/leon/git/swp-report/iMX6_Platform_SDK/output/mx6sl/lib/libboard_evk_rev_a.a(iomux_config.o)
select_tests                                      /home/leon/git/swp-report/iMX6_Platform_SDK/output/mx6sl/obds/evk_rev_a/obj/apps/obds/src/obds.o
sensor_af_trigger                                 /home/leon/git/swp-report/iMX6_Platform_SDK/output/mx6sl/lib/libsdk.a(smd_sensor.o)
sensor_autofocus_init                             /home/leon/git/swp-report/iMX6_Platform_SDK/output/mx6sl/lib/libsdk.a(smd_sensor.o)
sensor_clock_setting                              /home/leon/git/swp-report/iMX6_Platform_SDK/output/mx6sl/lib/libboard_evk_rev_a.a(board_camera.o)
                                                  /home/leon/git/swp-report/iMX6_Platform_SDK/output/mx6sl/lib/libsdk.a(smd_sensor.o)
sensor_config                                     /home/leon/git/swp-report/iMX6_Platform_SDK/output/mx6sl/lib/libsdk.a(smd_sensor.o)
                                                  /home/leon/git/swp-report/iMX6_Platform_SDK/output/mx6sl/obds/evk_rev_a/obj/sdk/drivers/camera/test/csi_sensor_capture.o
sensor_init                                       /home/leon/git/swp-report/iMX6_Platform_SDK/output/mx6sl/lib/libsdk.a(smd_sensor.o)
sensor_reset                                      /home/leon/git/swp-report/iMX6_Platform_SDK/output/mx6sl/lib/libboard_evk_rev_a.a(board_camera.o)
                                                  /home/leon/git/swp-report/iMX6_Platform_SDK/output/mx6sl/lib/libsdk.a(smd_sensor.o)
sensor_search                                     /home/leon/git/swp-report/iMX6_Platform_SDK/output/mx6sl/lib/libsdk.a(smd_sensor.o)
                                                  /home/leon/git/swp-report/iMX6_Platform_SDK/output/mx6sl/obds/evk_rev_a/obj/sdk/drivers/camera/test/csi_sensor_capture.o
sensor_standby                                    /home/leon/git/swp-report/iMX6_Platform_SDK/output/mx6sl/lib/libboard_evk_rev_a.a(board_camera.o)
set_card_access_mode                              /home/leon/git/swp-report/iMX6_Platform_SDK/output/mx6sl/lib/libsdk.a(usdhc.o)
                                                  /home/leon/git/swp-report/iMX6_Platform_SDK/output/mx6sl/obds/evk_rev_a/obj/sdk/drivers/usdhc/test/usdhc_test.o
setlocale                                         /home/leon/riotboard/arm-2012.09/bin/../arm-none-eabi/lib//libc.a(lib_a-locale.o)
show_board_id                                     /home/leon/git/swp-report/iMX6_Platform_SDK/output/mx6sl/lib/libsdk.a(board_id.o)
                                                  /home/leon/git/swp-report/iMX6_Platform_SDK/output/mx6sl/obds/evk_rev_a/obj/apps/obds/src/tests/program_board_id.o
show_boot_switch_info                             /home/leon/git/swp-report/iMX6_Platform_SDK/output/mx6sl/obds/evk_rev_a/obj/apps/obds/src/obds_utils.o
                                                  /home/leon/git/swp-report/iMX6_Platform_SDK/output/mx6sl/obds/evk_rev_a/obj/apps/obds/src/obds.o
show_ddr_config                                   /home/leon/git/swp-report/iMX6_Platform_SDK/output/mx6sl/obds/evk_rev_a/obj/apps/common/print_clock_info.o
                                                  /home/leon/git/swp-report/iMX6_Platform_SDK/output/mx6sl/obds/evk_rev_a/obj/apps/obds/src/obds.o
show_freq                                         /home/leon/git/swp-report/iMX6_Platform_SDK/output/mx6sl/obds/evk_rev_a/obj/apps/common/print_clock_info.o
                                                  /home/leon/git/swp-report/iMX6_Platform_SDK/output/mx6sl/obds/evk_rev_a/obj/apps/obds/src/obds.o
signal                                            /home/leon/riotboard/arm-2012.09/bin/../arm-none-eabi/lib//libc.a(lib_a-signal.o)
sil9024_hdmi_power_on1                            /home/leon/git/swp-report/iMX6_Platform_SDK/output/mx6sl/obds/evk_rev_a/obj/apps/obds/src/tests/pmic_lt3589.o
sipix_epd_clock_setting                           /home/leon/git/swp-report/iMX6_Platform_SDK/output/mx6sl/lib/libboard_evk_rev_a.a(board_display.o)
sjc_iomux_config                                  /home/leon/git/swp-report/iMX6_Platform_SDK/output/mx6sl/lib/libboard_evk_rev_a.a(sjc_iomux_config.o)
                                                  /home/leon/git/swp-report/iMX6_Platform_SDK/output/mx6sl/lib/libboard_evk_rev_a.a(iomux_config.o)
snd_card                                          /home/leon/git/swp-report/iMX6_Platform_SDK/output/mx6sl/obds/evk_rev_a/obj/apps/obds/src/tests/audio_ssi_test.o
snd_card_spdif                                    /home/leon/git/swp-report/iMX6_Platform_SDK/output/mx6sl/obds/evk_rev_a/obj/sdk/drivers/audio/src/snd_card.o
snd_card_ssi_wm8962                               /home/leon/git/swp-report/iMX6_Platform_SDK/output/mx6sl/obds/evk_rev_a/obj/sdk/drivers/audio/src/snd_card.o
                                                  /home/leon/git/swp-report/iMX6_Platform_SDK/output/mx6sl/obds/evk_rev_a/obj/apps/obds/src/tests/audio_ssi_test.o
snvs_iomux_config                                 /home/leon/git/swp-report/iMX6_Platform_SDK/output/mx6sl/lib/libboard_evk_rev_a.a(iomux_config.o)
snvs_srtc_test                                    /home/leon/git/swp-report/iMX6_Platform_SDK/output/mx6sl/obds/evk_rev_a/obj/apps/obds/src/tests/snvs_srtc_test.o
                                                  /home/leon/git/swp-report/iMX6_Platform_SDK/output/mx6sl/obds/evk_rev_a/obj/apps/obds/src/obds.o
soc_sbmr1                                         /home/leon/git/swp-report/iMX6_Platform_SDK/output/mx6sl/obds/evk_rev_a/obj/apps/obds/src/obds_utils.o
soc_sbmr2                                         /home/leon/git/swp-report/iMX6_Platform_SDK/output/mx6sl/obds/evk_rev_a/obj/apps/obds/src/obds_utils.o
spdc_iomux_config                                 /home/leon/git/swp-report/iMX6_Platform_SDK/output/mx6sl/lib/libboard_evk_rev_a.a(spdc_iomux_config.o)
                                                  /home/leon/git/swp-report/iMX6_Platform_SDK/output/mx6sl/lib/libboard_evk_rev_a.a(iomux_config.o)
spdc_power_up                                     /home/leon/git/swp-report/iMX6_Platform_SDK/output/mx6sl/lib/libboard_evk_rev_a.a(board_display.o)
spdif_clk_cfg                                     /home/leon/git/swp-report/iMX6_Platform_SDK/output/mx6sl/lib/libboard_evk_rev_a.a(board_audio.o)
                                                  /home/leon/git/swp-report/iMX6_Platform_SDK/output/mx6sl/lib/libsdk.a(imx_spdif.o)
spdif_config                                      /home/leon/git/swp-report/iMX6_Platform_SDK/output/mx6sl/lib/libsdk.a(imx_spdif.o)
spdif_deinit                                      /home/leon/git/swp-report/iMX6_Platform_SDK/output/mx6sl/lib/libsdk.a(imx_spdif.o)
spdif_get_tx_clk_freq                             /home/leon/git/swp-report/iMX6_Platform_SDK/output/mx6sl/lib/libboard_evk_rev_a.a(board_audio.o)
                                                  /home/leon/git/swp-report/iMX6_Platform_SDK/output/mx6sl/lib/libsdk.a(imx_spdif.o)
spdif_init                                        /home/leon/git/swp-report/iMX6_Platform_SDK/output/mx6sl/lib/libsdk.a(imx_spdif.o)
spdif_iomux_config                                /home/leon/git/swp-report/iMX6_Platform_SDK/output/mx6sl/lib/libboard_evk_rev_a.a(iomux_config.o)
                                                  /home/leon/git/swp-report/iMX6_Platform_SDK/output/mx6sl/lib/libsdk.a(imx_spdif.o)
spdif_write_fifo                                  /home/leon/git/swp-report/iMX6_Platform_SDK/output/mx6sl/lib/libsdk.a(imx_spdif.o)
spi_nor_erase                                     /home/leon/git/swp-report/iMX6_Platform_SDK/output/mx6sl/obds/evk_rev_a/obj/apps/obds/src/tests/imx_spi_nor_test.o
spi_nor_erase_atmel                               /home/leon/git/swp-report/iMX6_Platform_SDK/output/mx6sl/obds/evk_rev_a/obj/sdk/drivers/spi/test/imx_spi_nor_atmel.o
                                                  /home/leon/git/swp-report/iMX6_Platform_SDK/output/mx6sl/obds/evk_rev_a/obj/apps/obds/src/tests/imx_spi_nor_test.o
spi_nor_erase_numonyx                             /home/leon/git/swp-report/iMX6_Platform_SDK/output/mx6sl/obds/evk_rev_a/obj/sdk/drivers/spi/test/spi_nor_numonyx.o
                                                  /home/leon/git/swp-report/iMX6_Platform_SDK/output/mx6sl/obds/evk_rev_a/obj/apps/obds/src/tests/imx_spi_nor_test.o
spi_nor_flash_type                                /home/leon/git/swp-report/iMX6_Platform_SDK/output/mx6sl/obds/evk_rev_a/obj/apps/obds/src/tests/imx_spi_nor_test.o
spi_nor_query                                     /home/leon/git/swp-report/iMX6_Platform_SDK/output/mx6sl/obds/evk_rev_a/obj/apps/obds/src/tests/imx_spi_nor_test.o
spi_nor_query_atmel                               /home/leon/git/swp-report/iMX6_Platform_SDK/output/mx6sl/obds/evk_rev_a/obj/sdk/drivers/spi/test/imx_spi_nor_atmel.o
                                                  /home/leon/git/swp-report/iMX6_Platform_SDK/output/mx6sl/obds/evk_rev_a/obj/apps/obds/src/tests/imx_spi_nor_test.o
spi_nor_query_numonyx                             /home/leon/git/swp-report/iMX6_Platform_SDK/output/mx6sl/obds/evk_rev_a/obj/sdk/drivers/spi/test/spi_nor_numonyx.o
                                                  /home/leon/git/swp-report/iMX6_Platform_SDK/output/mx6sl/obds/evk_rev_a/obj/apps/obds/src/tests/imx_spi_nor_test.o
spi_nor_read                                      /home/leon/git/swp-report/iMX6_Platform_SDK/output/mx6sl/obds/evk_rev_a/obj/apps/obds/src/tests/imx_spi_nor_test.o
spi_nor_read_atmel                                /home/leon/git/swp-report/iMX6_Platform_SDK/output/mx6sl/obds/evk_rev_a/obj/sdk/drivers/spi/test/imx_spi_nor_atmel.o
                                                  /home/leon/git/swp-report/iMX6_Platform_SDK/output/mx6sl/obds/evk_rev_a/obj/apps/obds/src/tests/imx_spi_nor_test.o
spi_nor_read_numonyx                              /home/leon/git/swp-report/iMX6_Platform_SDK/output/mx6sl/obds/evk_rev_a/obj/sdk/drivers/spi/test/spi_nor_numonyx.o
                                                  /home/leon/git/swp-report/iMX6_Platform_SDK/output/mx6sl/obds/evk_rev_a/obj/apps/obds/src/tests/imx_spi_nor_test.o
spi_nor_rx_buf                                    /home/leon/git/swp-report/iMX6_Platform_SDK/output/mx6sl/obds/evk_rev_a/obj/apps/obds/src/tests/imx_spi_nor_test.o
spi_nor_test                                      /home/leon/git/swp-report/iMX6_Platform_SDK/output/mx6sl/obds/evk_rev_a/obj/apps/obds/src/tests/imx_spi_nor_test.o
                                                  /home/leon/git/swp-report/iMX6_Platform_SDK/output/mx6sl/obds/evk_rev_a/obj/apps/obds/src/obds.o
spi_nor_tx_buf                                    /home/leon/git/swp-report/iMX6_Platform_SDK/output/mx6sl/obds/evk_rev_a/obj/apps/obds/src/tests/imx_spi_nor_test.o
spi_nor_write                                     /home/leon/git/swp-report/iMX6_Platform_SDK/output/mx6sl/obds/evk_rev_a/obj/apps/obds/src/tests/imx_spi_nor_test.o
spi_nor_write_atmel                               /home/leon/git/swp-report/iMX6_Platform_SDK/output/mx6sl/obds/evk_rev_a/obj/sdk/drivers/spi/test/imx_spi_nor_atmel.o
                                                  /home/leon/git/swp-report/iMX6_Platform_SDK/output/mx6sl/obds/evk_rev_a/obj/apps/obds/src/tests/imx_spi_nor_test.o
spi_nor_write_numonyx                             /home/leon/git/swp-report/iMX6_Platform_SDK/output/mx6sl/obds/evk_rev_a/obj/sdk/drivers/spi/test/spi_nor_numonyx.o
                                                  /home/leon/git/swp-report/iMX6_Platform_SDK/output/mx6sl/obds/evk_rev_a/obj/apps/obds/src/tests/imx_spi_nor_test.o
sprintf                                           /home/leon/riotboard/arm-2012.09/bin/../arm-none-eabi/lib//libc.a(lib_a-sprintf.o)
                                                  /home/leon/git/swp-report/iMX6_Platform_SDK/output/mx6sl/lib/libsdk.a(board_id.o)
                                                  /home/leon/git/swp-report/iMX6_Platform_SDK/output/mx6sl/obds/evk_rev_a/obj/apps/obds/src/tests/program_mac_address.o
                                                  /home/leon/git/swp-report/iMX6_Platform_SDK/output/mx6sl/obds/evk_rev_a/obj/apps/obds/src/obds.o
src_iomux_config                                  /home/leon/git/swp-report/iMX6_Platform_SDK/output/mx6sl/lib/libboard_evk_rev_a.a(iomux_config.o)
ssi_config                                        /home/leon/git/swp-report/iMX6_Platform_SDK/output/mx6sl/lib/libsdk.a(imx-ssi.o)
ssi_deinit                                        /home/leon/git/swp-report/iMX6_Platform_SDK/output/mx6sl/lib/libsdk.a(imx-ssi.o)
ssi_init                                          /home/leon/git/swp-report/iMX6_Platform_SDK/output/mx6sl/lib/libsdk.a(imx-ssi.o)
ssi_read_fifo                                     /home/leon/git/swp-report/iMX6_Platform_SDK/output/mx6sl/lib/libsdk.a(imx-ssi.o)
ssi_write_fifo                                    /home/leon/git/swp-report/iMX6_Platform_SDK/output/mx6sl/lib/libsdk.a(imx-ssi.o)
strcat                                            /home/leon/riotboard/arm-2012.09/bin/../arm-none-eabi/lib//libc.a(lib_a-strcat.o)
                                                  /home/leon/git/swp-report/iMX6_Platform_SDK/output/mx6sl/obds/evk_rev_a/obj/apps/obds/src/obds.o
strcmp                                            /home/leon/riotboard/arm-2012.09/bin/../arm-none-eabi/lib//libc.a(lib_a-strcmp.o)
                                                  /home/leon/riotboard/arm-2012.09/bin/../arm-none-eabi/lib//libc.a(lib_a-locale.o)
                                                  /home/leon/git/swp-report/iMX6_Platform_SDK/output/mx6sl/obds/evk_rev_a/obj/apps/obds/src/obds.o
strcpy                                            /home/leon/riotboard/arm-2012.09/bin/../arm-none-eabi/lib//libc.a(lib_a-strcpy.o)
                                                  /home/leon/riotboard/arm-2012.09/bin/../arm-none-eabi/lib//libc.a(lib_a-strcat.o)
                                                  /home/leon/git/swp-report/iMX6_Platform_SDK/output/mx6sl/obds/evk_rev_a/obj/apps/obds/src/obds.o
strlen                                            /home/leon/riotboard/arm-2012.09/bin/../arm-none-eabi/lib//libc.a(lib_a-strlen.o)
                                                  /home/leon/git/swp-report/iMX6_Platform_SDK/output/mx6sl/lib/libsdk.a(runtime_support.o)
                                                  /home/leon/riotboard/arm-2012.09/bin/../arm-none-eabi/lib//libc.a(lib_a-svfiprintf.o)
                                                  /home/leon/riotboard/arm-2012.09/bin/../arm-none-eabi/lib//libc.a(lib_a-vfprintf.o)
                                                  /home/leon/riotboard/arm-2012.09/bin/../arm-none-eabi/lib//libc.a(lib_a-vfiprintf.o)
                                                  /home/leon/riotboard/arm-2012.09/bin/../arm-none-eabi/lib//libc.a(lib_a-svfprintf.o)
                                                  /home/leon/git/swp-report/iMX6_Platform_SDK/output/mx6sl/lib/libsdk.a(menu.o)
strncasecmp                                       /home/leon/riotboard/arm-2012.09/bin/../arm-none-eabi/lib//libc.a(lib_a-strncasecmp.o)
                                                  /home/leon/git/swp-report/iMX6_Platform_SDK/output/mx6sl/lib/libsdk.a(menu.o)
strtok                                            /home/leon/riotboard/arm-2012.09/bin/../arm-none-eabi/lib//libc.a(lib_a-strtok.o)
                                                  /home/leon/git/swp-report/iMX6_Platform_SDK/output/mx6sl/obds/evk_rev_a/obj/apps/obds/src/obds.o
strtok_r                                          /home/leon/riotboard/arm-2012.09/bin/../arm-none-eabi/lib//libc.a(lib_a-strtok_r.o)
swap32                                            /home/leon/git/swp-report/iMX6_Platform_SDK/output/mx6sl/lib/libsdk.a(usb_common.o)
system_time_init                                  /home/leon/git/swp-report/iMX6_Platform_SDK/output/mx6sl/lib/libsdk.a(timer.o)
                                                  /home/leon/git/swp-report/iMX6_Platform_SDK/output/mx6sl/obds/evk_rev_a/obj/apps/common/platform_init.o
test_gpio_keyboard                                /home/leon/git/swp-report/iMX6_Platform_SDK/output/mx6sl/obds/evk_rev_a/obj/apps/obds/src/tests/keyboard_test.o
                                                  /home/leon/git/swp-report/iMX6_Platform_SDK/output/mx6sl/obds/evk_rev_a/obj/apps/obds/src/obds.o
time_get_microseconds                             /home/leon/git/swp-report/iMX6_Platform_SDK/output/mx6sl/lib/libsdk.a(timer.o)
                                                  /home/leon/git/swp-report/iMX6_Platform_SDK/output/mx6sl/lib/libsdk.a(runtime_support.o)
top_of_stacks                                     /home/leon/git/swp-report/iMX6_Platform_SDK/output/mx6sl/lib/libsdk.a(startup.o)
total_tests                                       /home/leon/git/swp-report/iMX6_Platform_SDK/output/mx6sl/obds/evk_rev_a/obj/apps/obds/src/obds.o
touch_detect                                      /home/leon/git/swp-report/iMX6_Platform_SDK/output/mx6sl/obds/evk_rev_a/obj/apps/obds/src/tests/touch_screen.o
touch_get_xy_value                                /home/leon/git/swp-report/iMX6_Platform_SDK/output/mx6sl/obds/evk_rev_a/obj/apps/obds/src/tests/touch_screen.o
touch_init                                        /home/leon/git/swp-report/iMX6_Platform_SDK/output/mx6sl/obds/evk_rev_a/obj/apps/obds/src/tests/touch_screen.o
touch_screen_prompt                               /home/leon/git/swp-report/iMX6_Platform_SDK/output/mx6sl/obds/evk_rev_a/obj/apps/obds/src/tests/touch_screen.o
touch_screen_test                                 /home/leon/git/swp-report/iMX6_Platform_SDK/output/mx6sl/obds/evk_rev_a/obj/apps/obds/src/tests/touch_screen.o
uart1_iomux_config                                /home/leon/git/swp-report/iMX6_Platform_SDK/output/mx6sl/lib/libboard_evk_rev_a.a(uart1_iomux_config.o)
                                                  /home/leon/git/swp-report/iMX6_Platform_SDK/output/mx6sl/lib/libboard_evk_rev_a.a(uart_iomux_config.o)
                                                  /home/leon/git/swp-report/iMX6_Platform_SDK/output/mx6sl/lib/libboard_evk_rev_a.a(iomux_config.o)
uart2_iomux_config                                /home/leon/git/swp-report/iMX6_Platform_SDK/output/mx6sl/lib/libboard_evk_rev_a.a(iomux_config.o)
                                                  /home/leon/git/swp-report/iMX6_Platform_SDK/output/mx6sl/lib/libboard_evk_rev_a.a(uart_iomux_config.o)
                                                  /home/leon/git/swp-report/iMX6_Platform_SDK/output/mx6sl/obds/evk_rev_a/obj/apps/obds/src/tests/gps_test.o
uart3_iomux_config                                /home/leon/git/swp-report/iMX6_Platform_SDK/output/mx6sl/lib/libboard_evk_rev_a.a(iomux_config.o)
                                                  /home/leon/git/swp-report/iMX6_Platform_SDK/output/mx6sl/lib/libboard_evk_rev_a.a(uart_iomux_config.o)
uart4_iomux_config                                /home/leon/git/swp-report/iMX6_Platform_SDK/output/mx6sl/lib/libboard_evk_rev_a.a(iomux_config.o)
                                                  /home/leon/git/swp-report/iMX6_Platform_SDK/output/mx6sl/lib/libboard_evk_rev_a.a(uart_iomux_config.o)
uart5_iomux_config                                /home/leon/git/swp-report/iMX6_Platform_SDK/output/mx6sl/lib/libboard_evk_rev_a.a(iomux_config.o)
                                                  /home/leon/git/swp-report/iMX6_Platform_SDK/output/mx6sl/lib/libboard_evk_rev_a.a(uart_iomux_config.o)
uart_get_reffreq                                  /home/leon/git/swp-report/iMX6_Platform_SDK/output/mx6sl/lib/libsdk.a(imx_uart.o)
uart_getchar                                      /home/leon/git/swp-report/iMX6_Platform_SDK/output/mx6sl/lib/libsdk.a(imx_uart.o)
                                                  /home/leon/git/swp-report/iMX6_Platform_SDK/output/mx6sl/lib/libsdk.a(runtime_support.o)
                                                  /home/leon/git/swp-report/iMX6_Platform_SDK/output/mx6sl/lib/libsdk.a(system_util.o)
                                                  /home/leon/git/swp-report/iMX6_Platform_SDK/output/mx6sl/obds/evk_rev_a/obj/sdk/drivers/uart/test/uart_test.o
                                                  /home/leon/git/swp-report/iMX6_Platform_SDK/output/mx6sl/obds/evk_rev_a/obj/apps/common/platform_init.o
uart_init                                         /home/leon/git/swp-report/iMX6_Platform_SDK/output/mx6sl/lib/libsdk.a(imx_uart.o)
                                                  /home/leon/git/swp-report/iMX6_Platform_SDK/output/mx6sl/obds/evk_rev_a/obj/sdk/drivers/uart/test/uart_test.o
                                                  /home/leon/git/swp-report/iMX6_Platform_SDK/output/mx6sl/obds/evk_rev_a/obj/apps/obds/src/tests/gps_test.o
                                                  /home/leon/git/swp-report/iMX6_Platform_SDK/output/mx6sl/obds/evk_rev_a/obj/apps/common/platform_init.o
uart_interrupt_handler                            /home/leon/git/swp-report/iMX6_Platform_SDK/output/mx6sl/obds/evk_rev_a/obj/sdk/drivers/uart/test/uart_test.o
uart_iomux_config                                 /home/leon/git/swp-report/iMX6_Platform_SDK/output/mx6sl/lib/libboard_evk_rev_a.a(uart_iomux_config.o)
                                                  /home/leon/git/swp-report/iMX6_Platform_SDK/output/mx6sl/lib/libsdk.a(imx_uart.o)
uart_putchar                                      /home/leon/git/swp-report/iMX6_Platform_SDK/output/mx6sl/lib/libsdk.a(imx_uart.o)
                                                  /home/leon/git/swp-report/iMX6_Platform_SDK/output/mx6sl/lib/libsdk.a(runtime_support.o)
                                                  /home/leon/git/swp-report/iMX6_Platform_SDK/output/mx6sl/obds/evk_rev_a/obj/sdk/drivers/uart/test/uart_test.o
uart_set_FIFO_mode                                /home/leon/git/swp-report/iMX6_Platform_SDK/output/mx6sl/lib/libsdk.a(imx_uart.o)
                                                  /home/leon/git/swp-report/iMX6_Platform_SDK/output/mx6sl/obds/evk_rev_a/obj/sdk/drivers/uart/test/uart_test.o
uart_set_loopback_mode                            /home/leon/git/swp-report/iMX6_Platform_SDK/output/mx6sl/lib/libsdk.a(imx_uart.o)
                                                  /home/leon/git/swp-report/iMX6_Platform_SDK/output/mx6sl/obds/evk_rev_a/obj/sdk/drivers/uart/test/uart_test.o
uart_setup_interrupt                              /home/leon/git/swp-report/iMX6_Platform_SDK/output/mx6sl/lib/libsdk.a(imx_uart.o)
                                                  /home/leon/git/swp-report/iMX6_Platform_SDK/output/mx6sl/obds/evk_rev_a/obj/sdk/drivers/uart/test/uart_test.o
uart_test                                         /home/leon/git/swp-report/iMX6_Platform_SDK/output/mx6sl/obds/evk_rev_a/obj/sdk/drivers/uart/test/uart_test.o
                                                  /home/leon/git/swp-report/iMX6_Platform_SDK/output/mx6sl/obds/evk_rev_a/obj/apps/obds/src/obds.o
usb0_host_test                                    /home/leon/git/swp-report/iMX6_Platform_SDK/output/mx6sl/obds/evk_rev_a/obj/sdk/drivers/usb/test/usb0_host_test.o
usb0_host_testmodes_test                          /home/leon/git/swp-report/iMX6_Platform_SDK/output/mx6sl/obds/evk_rev_a/obj/sdk/drivers/usb/test/usb0_host_testmodes_test.o
usbDisableVbus                                    /home/leon/git/swp-report/iMX6_Platform_SDK/output/mx6sl/lib/libboard_evk_rev_a.a(board_usb.o)
usbEnableClocks                                   /home/leon/git/swp-report/iMX6_Platform_SDK/output/mx6sl/lib/libsdk.a(mx6x_usb.o)
                                                  /home/leon/git/swp-report/iMX6_Platform_SDK/output/mx6sl/lib/libsdk.a(usbh_drv.o)
usbEnableTransceiver                              /home/leon/git/swp-report/iMX6_Platform_SDK/output/mx6sl/lib/libsdk.a(mx6x_usb.o)
                                                  /home/leon/git/swp-report/iMX6_Platform_SDK/output/mx6sl/lib/libsdk.a(usbh_drv.o)
usbEnableVbus                                     /home/leon/git/swp-report/iMX6_Platform_SDK/output/mx6sl/lib/libboard_evk_rev_a.a(board_usb.o)
                                                  /home/leon/git/swp-report/iMX6_Platform_SDK/output/mx6sl/lib/libsdk.a(usbh_drv.o)
usb_enum_device                                   /home/leon/git/swp-report/iMX6_Platform_SDK/output/mx6sl/obds/evk_rev_a/obj/apps/obds/src/tests/usb_tests_obds.o
usb_get_port_speed                                /home/leon/git/swp-report/iMX6_Platform_SDK/output/mx6sl/lib/libsdk.a(usb_common.o)
                                                  /home/leon/git/swp-report/iMX6_Platform_SDK/output/mx6sl/obds/evk_rev_a/obj/sdk/drivers/usb/test/usb0_host_test.o
                                                  /home/leon/git/swp-report/iMX6_Platform_SDK/output/mx6sl/obds/evk_rev_a/obj/apps/obds/src/tests/usb_tests_obds.o
usb_iomux_config                                  /home/leon/git/swp-report/iMX6_Platform_SDK/output/mx6sl/lib/libboard_evk_rev_a.a(usb_iomux_config.o)
                                                  /home/leon/git/swp-report/iMX6_Platform_SDK/output/mx6sl/lib/libboard_evk_rev_a.a(iomux_config.o)
usbh_bus_reset                                    /home/leon/git/swp-report/iMX6_Platform_SDK/output/mx6sl/lib/libsdk.a(usbh_drv.o)
                                                  /home/leon/git/swp-report/iMX6_Platform_SDK/output/mx6sl/obds/evk_rev_a/obj/sdk/drivers/usb/test/usb0_host_test.o
                                                  /home/leon/git/swp-report/iMX6_Platform_SDK/output/mx6sl/obds/evk_rev_a/obj/apps/obds/src/tests/usb_tests_obds.o
usbh_dev_enum_test                                /home/leon/git/swp-report/iMX6_Platform_SDK/output/mx6sl/obds/evk_rev_a/obj/apps/obds/src/tests/usb_tests_obds.o
                                                  /home/leon/git/swp-report/iMX6_Platform_SDK/output/mx6sl/obds/evk_rev_a/obj/apps/obds/src/obds.o
usbh_disable_Periodic_list                        /home/leon/git/swp-report/iMX6_Platform_SDK/output/mx6sl/lib/libsdk.a(usbh_drv.o)
usbh_disable_asynchronous_schedule                /home/leon/git/swp-report/iMX6_Platform_SDK/output/mx6sl/lib/libsdk.a(usbh_drv.o)
                                                  /home/leon/git/swp-report/iMX6_Platform_SDK/output/mx6sl/obds/evk_rev_a/obj/sdk/drivers/usb/test/usb0_host_test.o
                                                  /home/leon/git/swp-report/iMX6_Platform_SDK/output/mx6sl/obds/evk_rev_a/obj/apps/obds/src/tests/usb_tests_obds.o
usbh_enable_asynchronous_schedule                 /home/leon/git/swp-report/iMX6_Platform_SDK/output/mx6sl/lib/libsdk.a(usbh_drv.o)
                                                  /home/leon/git/swp-report/iMX6_Platform_SDK/output/mx6sl/obds/evk_rev_a/obj/sdk/drivers/usb/test/usb0_host_test.o
                                                  /home/leon/git/swp-report/iMX6_Platform_SDK/output/mx6sl/obds/evk_rev_a/obj/apps/obds/src/tests/usb_tests_obds.o
usbh_get_config_desc                              /home/leon/git/swp-report/iMX6_Platform_SDK/output/mx6sl/obds/evk_rev_a/obj/sdk/drivers/usb/test/usb0_host_test.o
usbh_get_dev_desc                                 /home/leon/git/swp-report/iMX6_Platform_SDK/output/mx6sl/obds/evk_rev_a/obj/sdk/drivers/usb/test/usb0_host_test.o
                                                  /home/leon/git/swp-report/iMX6_Platform_SDK/output/mx6sl/obds/evk_rev_a/obj/apps/obds/src/tests/usb_tests_obds.o
usbh_get_interface_desc                           /home/leon/git/swp-report/iMX6_Platform_SDK/output/mx6sl/obds/evk_rev_a/obj/sdk/drivers/usb/test/usb0_host_test.o
usbh_get_report_desc                              /home/leon/git/swp-report/iMX6_Platform_SDK/output/mx6sl/obds/evk_rev_a/obj/sdk/drivers/usb/test/usb0_host_test.o
usbh_init                                         /home/leon/git/swp-report/iMX6_Platform_SDK/output/mx6sl/lib/libsdk.a(usbh_drv.o)
                                                  /home/leon/git/swp-report/iMX6_Platform_SDK/output/mx6sl/obds/evk_rev_a/obj/sdk/drivers/usb/test/usb0_host_testmodes_test.o
                                                  /home/leon/git/swp-report/iMX6_Platform_SDK/output/mx6sl/obds/evk_rev_a/obj/sdk/drivers/usb/test/usb0_host_test.o
                                                  /home/leon/git/swp-report/iMX6_Platform_SDK/output/mx6sl/obds/evk_rev_a/obj/apps/obds/src/tests/usb_tests_obds.o
usbh_periodic_schedule_init                       /home/leon/git/swp-report/iMX6_Platform_SDK/output/mx6sl/lib/libsdk.a(usbh_drv.o)
                                                  /home/leon/git/swp-report/iMX6_Platform_SDK/output/mx6sl/obds/evk_rev_a/obj/sdk/drivers/usb/test/usb0_host_test.o
usbh_qh_init                                      /home/leon/git/swp-report/iMX6_Platform_SDK/output/mx6sl/lib/libsdk.a(usbh_drv.o)
                                                  /home/leon/git/swp-report/iMX6_Platform_SDK/output/mx6sl/obds/evk_rev_a/obj/sdk/drivers/usb/test/usb0_host_test.o
                                                  /home/leon/git/swp-report/iMX6_Platform_SDK/output/mx6sl/obds/evk_rev_a/obj/apps/obds/src/tests/usb_tests_obds.o
usbh_qtd_init                                     /home/leon/git/swp-report/iMX6_Platform_SDK/output/mx6sl/lib/libsdk.a(usbh_drv.o)
                                                  /home/leon/git/swp-report/iMX6_Platform_SDK/output/mx6sl/obds/evk_rev_a/obj/sdk/drivers/usb/test/usb0_host_test.o
usbh_set_configuration                            /home/leon/git/swp-report/iMX6_Platform_SDK/output/mx6sl/obds/evk_rev_a/obj/sdk/drivers/usb/test/usb0_host_test.o
usbh_set_device_address                           /home/leon/git/swp-report/iMX6_Platform_SDK/output/mx6sl/obds/evk_rev_a/obj/sdk/drivers/usb/test/usb0_host_test.o
usbo_dev_enum_test                                /home/leon/git/swp-report/iMX6_Platform_SDK/output/mx6sl/obds/evk_rev_a/obj/apps/obds/src/tests/usb_tests_obds.o
                                                  /home/leon/git/swp-report/iMX6_Platform_SDK/output/mx6sl/obds/evk_rev_a/obj/apps/obds/src/obds.o
usdhc1_iomux_config                               /home/leon/git/swp-report/iMX6_Platform_SDK/output/mx6sl/lib/libboard_evk_rev_a.a(usdhc1_iomux_config.o)
                                                  /home/leon/git/swp-report/iMX6_Platform_SDK/output/mx6sl/lib/libboard_evk_rev_a.a(usdhc_iomux_config.o)
                                                  /home/leon/git/swp-report/iMX6_Platform_SDK/output/mx6sl/lib/libboard_evk_rev_a.a(iomux_config.o)
usdhc1_isr                                        /home/leon/git/swp-report/iMX6_Platform_SDK/output/mx6sl/lib/libsdk.a(usdhc_host.o)
                                                  /home/leon/git/swp-report/iMX6_Platform_SDK/output/mx6sl/lib/libsdk.a(usdhc.o)
usdhc2_iomux_config                               /home/leon/git/swp-report/iMX6_Platform_SDK/output/mx6sl/lib/libboard_evk_rev_a.a(usdhc2_iomux_config.o)
                                                  /home/leon/git/swp-report/iMX6_Platform_SDK/output/mx6sl/lib/libboard_evk_rev_a.a(usdhc_iomux_config.o)
                                                  /home/leon/git/swp-report/iMX6_Platform_SDK/output/mx6sl/lib/libboard_evk_rev_a.a(iomux_config.o)
usdhc2_isr                                        /home/leon/git/swp-report/iMX6_Platform_SDK/output/mx6sl/lib/libsdk.a(usdhc_host.o)
                                                  /home/leon/git/swp-report/iMX6_Platform_SDK/output/mx6sl/lib/libsdk.a(usdhc.o)
usdhc3_iomux_config                               /home/leon/git/swp-report/iMX6_Platform_SDK/output/mx6sl/lib/libboard_evk_rev_a.a(usdhc3_iomux_config.o)
                                                  /home/leon/git/swp-report/iMX6_Platform_SDK/output/mx6sl/lib/libboard_evk_rev_a.a(usdhc_iomux_config.o)
                                                  /home/leon/git/swp-report/iMX6_Platform_SDK/output/mx6sl/lib/libboard_evk_rev_a.a(iomux_config.o)
usdhc3_isr                                        /home/leon/git/swp-report/iMX6_Platform_SDK/output/mx6sl/lib/libsdk.a(usdhc_host.o)
                                                  /home/leon/git/swp-report/iMX6_Platform_SDK/output/mx6sl/lib/libsdk.a(usdhc.o)
usdhc4_iomux_config                               /home/leon/git/swp-report/iMX6_Platform_SDK/output/mx6sl/lib/libboard_evk_rev_a.a(iomux_config.o)
                                                  /home/leon/git/swp-report/iMX6_Platform_SDK/output/mx6sl/lib/libboard_evk_rev_a.a(usdhc_iomux_config.o)
usdhc4_isr                                        /home/leon/git/swp-report/iMX6_Platform_SDK/output/mx6sl/lib/libsdk.a(usdhc_host.o)
                                                  /home/leon/git/swp-report/iMX6_Platform_SDK/output/mx6sl/lib/libsdk.a(usdhc.o)
usdhc_card_detected                               /home/leon/git/swp-report/iMX6_Platform_SDK/output/mx6sl/lib/libboard_evk_rev_a.a(board_usdhc.o)
                                                  /home/leon/git/swp-report/iMX6_Platform_SDK/output/mx6sl/lib/libsdk.a(usdhc.o)
                                                  /home/leon/git/swp-report/iMX6_Platform_SDK/output/mx6sl/obds/evk_rev_a/obj/apps/obds/src/tests/mmcsd_test.o
usdhc_device                                      /home/leon/git/swp-report/iMX6_Platform_SDK/output/mx6sl/lib/libsdk.a(usdhc.o)
                                                  /home/leon/git/swp-report/iMX6_Platform_SDK/output/mx6sl/lib/libsdk.a(usdhc_sd.o)
                                                  /home/leon/git/swp-report/iMX6_Platform_SDK/output/mx6sl/lib/libsdk.a(usdhc_mmc.o)
                                                  /home/leon/git/swp-report/iMX6_Platform_SDK/output/mx6sl/lib/libsdk.a(usdhc_host.o)
usdhc_gpio_config                                 /home/leon/git/swp-report/iMX6_Platform_SDK/output/mx6sl/lib/libboard_evk_rev_a.a(board_usdhc.o)
                                                  /home/leon/git/swp-report/iMX6_Platform_SDK/output/mx6sl/lib/libsdk.a(usdhc_host.o)
usdhc_iomux_config                                /home/leon/git/swp-report/iMX6_Platform_SDK/output/mx6sl/lib/libboard_evk_rev_a.a(usdhc_iomux_config.o)
                                                  /home/leon/git/swp-report/iMX6_Platform_SDK/output/mx6sl/lib/libsdk.a(usdhc_host.o)
usdhc_test                                        /home/leon/git/swp-report/iMX6_Platform_SDK/output/mx6sl/obds/evk_rev_a/obj/sdk/drivers/usdhc/test/usdhc_test.o
usdhc_write_protected                             /home/leon/git/swp-report/iMX6_Platform_SDK/output/mx6sl/lib/libboard_evk_rev_a.a(board_usdhc.o)
                                                  /home/leon/git/swp-report/iMX6_Platform_SDK/output/mx6sl/lib/libsdk.a(usdhc.o)
                                                  /home/leon/git/swp-report/iMX6_Platform_SDK/output/mx6sl/obds/evk_rev_a/obj/apps/obds/src/tests/mmcsd_test.o
vectors                                           /home/leon/git/swp-report/iMX6_Platform_SDK/output/mx6sl/lib/libsdk.a(vectors.o)
                                                  /home/leon/git/swp-report/iMX6_Platform_SDK/output/mx6sl/lib/libsdk.a(startup.o)
vfiprintf                                         /home/leon/riotboard/arm-2012.09/bin/../arm-none-eabi/lib//libc.a(lib_a-vfiprintf.o)
vfprintf                                          /home/leon/riotboard/arm-2012.09/bin/../arm-none-eabi/lib//libc.a(lib_a-vfprintf.o)
vprintf                                           /home/leon/riotboard/arm-2012.09/bin/../arm-none-eabi/lib//libc.a(lib_a-vprintf.o)
                                                  /home/leon/git/swp-report/iMX6_Platform_SDK/output/mx6sl/lib/libsdk.a(imx_i2c.o)
                                                  /home/leon/git/swp-report/iMX6_Platform_SDK/output/mx6sl/lib/libsdk.a(gpio.o)
                                                  /home/leon/git/swp-report/iMX6_Platform_SDK/output/mx6sl/lib/libsdk.a(text_color.o)
                                                  /home/leon/git/swp-report/iMX6_Platform_SDK/output/mx6sl/obds/evk_rev_a/obj/apps/obds/src/tests/program_mac_address.o
                                                  /home/leon/git/swp-report/iMX6_Platform_SDK/output/mx6sl/obds/evk_rev_a/obj/apps/obds/src/tests/program_board_id.o
                                                  /home/leon/git/swp-report/iMX6_Platform_SDK/output/mx6sl/obds/evk_rev_a/obj/apps/obds/src/obds.o
wait_convertion_done                              /home/leon/git/swp-report/iMX6_Platform_SDK/output/mx6sl/obds/evk_rev_a/obj/apps/obds/src/tests/i2c_device_temp_sensor_emc1046.o
wav_data                                          /home/leon/git/swp-report/iMX6_Platform_SDK/output/mx6sl/obds/evk_rev_a/obj/apps/obds/src/tests/audio_ssi_test.o
wcrtomb                                           /home/leon/riotboard/arm-2012.09/bin/../arm-none-eabi/lib//libc.a(lib_a-wcrtomb.o)
wdog1_iomux_config                                /home/leon/git/swp-report/iMX6_Platform_SDK/output/mx6sl/lib/libboard_evk_rev_a.a(wdog1_iomux_config.o)
                                                  /home/leon/git/swp-report/iMX6_Platform_SDK/output/mx6sl/lib/libboard_evk_rev_a.a(iomux_config.o)
wdog2_iomux_config                                /home/leon/git/swp-report/iMX6_Platform_SDK/output/mx6sl/lib/libboard_evk_rev_a.a(iomux_config.o)
weim_nor_flash_cs_setup                           /home/leon/git/swp-report/iMX6_Platform_SDK/output/mx6sl/obds/evk_rev_a/obj/apps/obds/src/tests/weim_nor_flash_test.o
wm8962                                            /home/leon/git/swp-report/iMX6_Platform_SDK/output/mx6sl/lib/libsdk.a(wm8962.o)
                                                  /home/leon/git/swp-report/iMX6_Platform_SDK/output/mx6sl/obds/evk_rev_a/obj/sdk/drivers/audio/src/snd_card.o
wm8962_i2c_req                                    /home/leon/git/swp-report/iMX6_Platform_SDK/output/mx6sl/lib/libsdk.a(wm8962.o)
wm8962_ops                                        /home/leon/git/swp-report/iMX6_Platform_SDK/output/mx6sl/lib/libsdk.a(wm8962.o)
write_protect_test_en                             /home/leon/git/swp-report/iMX6_Platform_SDK/output/mx6sl/lib/libsdk.a(usdhc.o)
                                                  /home/leon/git/swp-report/iMX6_Platform_SDK/output/mx6sl/obds/evk_rev_a/obj/apps/obds/src/tests/mmcsd_test.o
wv_data                                           /home/leon/git/swp-report/iMX6_Platform_SDK/output/mx6sl/lib/libsdk.a(mxc_epdc.o)
xtalosc_iomux_config                              /home/leon/git/swp-report/iMX6_Platform_SDK/output/mx6sl/lib/libboard_evk_rev_a.a(iomux_config.o)
