Archive member included because of file (symbol)

/home/leon/git/swp-report/iMX6_Platform_SDK/output/mx6sdl/lib/libsdk.a(max7310.o)
                              /home/leon/git/swp-report/iMX6_Platform_SDK/output/mx6sdl/obds/evb_rev_a/obj/sdk/common/ioexpander/test/max7310_test.o (max7310_reg_read)
/home/leon/git/swp-report/iMX6_Platform_SDK/output/mx6sdl/lib/libsdk.a(ccm_pll.o)
                              /home/leon/git/swp-report/iMX6_Platform_SDK/output/mx6sdl/obds/evb_rev_a/obj/apps/common/platform_init.o (ccm_init)
/home/leon/git/swp-report/iMX6_Platform_SDK/output/mx6sdl/lib/libsdk.a(cortexA9.o)
                              /home/leon/git/swp-report/iMX6_Platform_SDK/output/mx6sdl/obds/evb_rev_a/obj/apps/common/platform_init.o (arm_set_interrupt_state)
/home/leon/git/swp-report/iMX6_Platform_SDK/output/mx6sdl/lib/libsdk.a(gic.o)
                              /home/leon/git/swp-report/iMX6_Platform_SDK/output/mx6sdl/obds/evb_rev_a/obj/apps/common/platform_init.o (gic_init)
/home/leon/git/swp-report/iMX6_Platform_SDK/output/mx6sdl/lib/libsdk.a(interrupt.o)
                              /home/leon/git/swp-report/iMX6_Platform_SDK/output/mx6sdl/obds/evb_rev_a/obj/sdk/drivers/hdmi/test/hdmi_test.o (disable_interrupt)
/home/leon/git/swp-report/iMX6_Platform_SDK/output/mx6sdl/lib/libsdk.a(mmu.o)
                              /home/leon/git/swp-report/iMX6_Platform_SDK/output/mx6sdl/obds/evb_rev_a/obj/apps/common/platform_init.o (mmu_init)
/home/leon/git/swp-report/iMX6_Platform_SDK/output/mx6sdl/lib/libsdk.a(startup.o)
                              (_start)
/home/leon/git/swp-report/iMX6_Platform_SDK/output/mx6sdl/lib/libsdk.a(vectors.o)
                              /home/leon/git/swp-report/iMX6_Platform_SDK/output/mx6sdl/lib/libsdk.a(startup.o) (vectors)
/home/leon/git/swp-report/iMX6_Platform_SDK/output/mx6sdl/lib/libsdk.a(menu.o)
                              /home/leon/git/swp-report/iMX6_Platform_SDK/output/mx6sdl/obds/evb_rev_a/obj/apps/obds/src/obds.o (menu_get_indent)
/home/leon/git/swp-report/iMX6_Platform_SDK/output/mx6sdl/lib/libsdk.a(sdk_version.o)
                              /home/leon/git/swp-report/iMX6_Platform_SDK/output/mx6sdl/obds/evb_rev_a/obj/apps/common/print_version.o (k_sdk_version)
/home/leon/git/swp-report/iMX6_Platform_SDK/output/mx6sdl/lib/libsdk.a(system_util.o)
                              /home/leon/git/swp-report/iMX6_Platform_SDK/output/mx6sdl/lib/libsdk.a(startup.o) (_sys_exit)
/home/leon/git/swp-report/iMX6_Platform_SDK/output/mx6sdl/lib/libsdk.a(text_color.o)
                              /home/leon/git/swp-report/iMX6_Platform_SDK/output/mx6sdl/obds/evb_rev_a/obj/apps/obds/src/obds.o (g_TextAttributeDefault)
/home/leon/git/swp-report/iMX6_Platform_SDK/output/mx6sdl/lib/libsdk.a(cs42888.o)
                              /home/leon/git/swp-report/iMX6_Platform_SDK/output/mx6sdl/obds/evb_rev_a/obj/apps/obds/src/tests/i2c_device_check_cs42888.o (cs42888_init)
/home/leon/git/swp-report/iMX6_Platform_SDK/output/mx6sdl/lib/libsdk.a(imx-ssi.o)
                              /home/leon/git/swp-report/iMX6_Platform_SDK/output/mx6sdl/obds/evb_rev_a/obj/sdk/drivers/audio/src/snd_card.o (imx_ssi_2)
/home/leon/git/swp-report/iMX6_Platform_SDK/output/mx6sdl/lib/libsdk.a(imx_esai.o)
                              /home/leon/git/swp-report/iMX6_Platform_SDK/output/mx6sdl/obds/evb_rev_a/obj/sdk/drivers/audio/src/snd_card.o (imx_esai_1)
/home/leon/git/swp-report/iMX6_Platform_SDK/output/mx6sdl/lib/libsdk.a(imx_spdif.o)
                              /home/leon/git/swp-report/iMX6_Platform_SDK/output/mx6sdl/obds/evb_rev_a/obj/sdk/drivers/audio/src/snd_card.o (imx_spdif)
/home/leon/git/swp-report/iMX6_Platform_SDK/output/mx6sdl/lib/libsdk.a(sgtl5000.o)
                              /home/leon/git/swp-report/iMX6_Platform_SDK/output/mx6sdl/obds/evb_rev_a/obj/sdk/drivers/audio/src/snd_card.o (sgtl5000)
/home/leon/git/swp-report/iMX6_Platform_SDK/output/mx6sdl/lib/libsdk.a(wm8958_dac.o)
                              /home/leon/git/swp-report/iMX6_Platform_SDK/output/mx6sdl/obds/evb_rev_a/obj/sdk/drivers/audio/src/snd_card.o (wm8958)
/home/leon/git/swp-report/iMX6_Platform_SDK/output/mx6sdl/lib/libsdk.a(wm8962.o)
                              /home/leon/git/swp-report/iMX6_Platform_SDK/output/mx6sdl/obds/evb_rev_a/obj/sdk/drivers/audio/src/snd_card.o (wm8962)
/home/leon/git/swp-report/iMX6_Platform_SDK/output/mx6sdl/lib/libsdk.a(board_id.o)
                              /home/leon/git/swp-report/iMX6_Platform_SDK/output/mx6sdl/obds/evb_rev_a/obj/apps/common/print_version.o (chip_name)
/home/leon/git/swp-report/iMX6_Platform_SDK/output/mx6sdl/lib/libsdk.a(smd_sensor.o)
                              /home/leon/git/swp-report/iMX6_Platform_SDK/output/mx6sdl/obds/evb_rev_a/obj/sdk/drivers/camera/test/sensor_capture.o (sensor_config)
/home/leon/git/swp-report/iMX6_Platform_SDK/output/mx6sdl/lib/libsdk.a(enet_drv.o)
                              /home/leon/git/swp-report/iMX6_Platform_SDK/output/mx6sdl/obds/evb_rev_a/obj/apps/obds/src/tests/enet_mx6dldq_test.o (imx_enet_phy_init)
/home/leon/git/swp-report/iMX6_Platform_SDK/output/mx6sdl/lib/libsdk.a(mxc_epdc.o)
                              /home/leon/git/swp-report/iMX6_Platform_SDK/output/mx6sdl/obds/evb_rev_a/obj/sdk/drivers/epdc/test/epdc_test.o (epdc_reset)
/home/leon/git/swp-report/iMX6_Platform_SDK/output/mx6sdl/lib/libsdk.a(gpio.o)
                              /home/leon/git/swp-report/iMX6_Platform_SDK/output/mx6sdl/obds/evb_rev_a/obj/apps/obds/src/tests/android_buttons_test.o (gpio_set_direction)
/home/leon/git/swp-report/iMX6_Platform_SDK/output/mx6sdl/lib/libsdk.a(imx6sdl_gpio_map.o)
                              /home/leon/git/swp-report/iMX6_Platform_SDK/output/mx6sdl/lib/libsdk.a(gpio.o) (k_gpio_mux_registers)
/home/leon/git/swp-report/iMX6_Platform_SDK/output/mx6sdl/lib/libsdk.a(hdmi_tx.o)
                              /home/leon/git/swp-report/iMX6_Platform_SDK/output/mx6sdl/obds/evb_rev_a/obj/apps/obds/src/tests/display_test.o (hdmi_config_input_source)
/home/leon/git/swp-report/iMX6_Platform_SDK/output/mx6sdl/lib/libsdk.a(hdmi_tx_audio.o)
                              /home/leon/git/swp-report/iMX6_Platform_SDK/output/mx6sdl/obds/evb_rev_a/obj/apps/obds/src/tests/display_test.o (hdmi_audio_mute)
/home/leon/git/swp-report/iMX6_Platform_SDK/output/mx6sdl/lib/libsdk.a(hdmi_tx_phy.o)
                              /home/leon/git/swp-report/iMX6_Platform_SDK/output/mx6sdl/obds/evb_rev_a/obj/apps/obds/src/tests/display_test.o (hdmi_phy_init)
/home/leon/git/swp-report/iMX6_Platform_SDK/output/mx6sdl/lib/libsdk.a(imx_i2c.o)
                              /home/leon/git/swp-report/iMX6_Platform_SDK/output/mx6sdl/obds/evb_rev_a/obj/apps/obds/src/tests/fm_tuner_si476x_test.o (i2c_xfer)
/home/leon/git/swp-report/iMX6_Platform_SDK/output/mx6sdl/lib/libsdk.a(ips_disp_panel.o)
                              /home/leon/git/swp-report/iMX6_Platform_SDK/output/mx6sdl/obds/evb_rev_a/obj/apps/obds/src/tests/display_test.o (search_panel)
/home/leon/git/swp-report/iMX6_Platform_SDK/output/mx6sdl/lib/libsdk.a(ipu_common.o)
                              /home/leon/git/swp-report/iMX6_Platform_SDK/output/mx6sdl/obds/evb_rev_a/obj/apps/obds/src/tests/display_test.o (ipu_enable_display)
/home/leon/git/swp-report/iMX6_Platform_SDK/output/mx6sdl/lib/libsdk.a(ipu_csi.o)
                              /home/leon/git/swp-report/iMX6_Platform_SDK/output/mx6sdl/lib/libsdk.a(ipu_common.o) (ipu_csi_config)
/home/leon/git/swp-report/iMX6_Platform_SDK/output/mx6sdl/lib/libsdk.a(ipu_dc.o)
                              /home/leon/git/swp-report/iMX6_Platform_SDK/output/mx6sdl/lib/libsdk.a(ipu_common.o) (ipu_dc_config)
/home/leon/git/swp-report/iMX6_Platform_SDK/output/mx6sdl/lib/libsdk.a(ipu_di.o)
                              /home/leon/git/swp-report/iMX6_Platform_SDK/output/mx6sdl/lib/libsdk.a(ipu_common.o) (ipu_di_config)
/home/leon/git/swp-report/iMX6_Platform_SDK/output/mx6sdl/lib/libsdk.a(ipu_dmfc.o)
                              /home/leon/git/swp-report/iMX6_Platform_SDK/output/mx6sdl/lib/libsdk.a(ipu_common.o) (ipu_dmfc_config)
/home/leon/git/swp-report/iMX6_Platform_SDK/output/mx6sdl/lib/libsdk.a(ipu_dp.o)
                              /home/leon/git/swp-report/iMX6_Platform_SDK/output/mx6sdl/lib/libsdk.a(ipu_common.o) (ipu_dp_config)
/home/leon/git/swp-report/iMX6_Platform_SDK/output/mx6sdl/lib/libsdk.a(ipu_idmac.o)
                              /home/leon/git/swp-report/iMX6_Platform_SDK/output/mx6sdl/lib/libsdk.a(ipu_common.o) (ipu_cpmem_set_field)
/home/leon/git/swp-report/iMX6_Platform_SDK/output/mx6sdl/lib/libsdk.a(ipu_vdi.o)
                              /home/leon/git/swp-report/iMX6_Platform_SDK/output/mx6sdl/lib/libsdk.a(ipu_common.o) (ips_deinterlace_proc)
/home/leon/git/swp-report/iMX6_Platform_SDK/output/mx6sdl/lib/libsdk.a(ldb.o)
                              /home/leon/git/swp-report/iMX6_Platform_SDK/output/mx6sdl/lib/libsdk.a(ips_disp_panel.o) (ldb_config)
/home/leon/git/swp-report/iMX6_Platform_SDK/output/mx6sdl/lib/libsdk.a(ocotp.o)
                              /home/leon/git/swp-report/iMX6_Platform_SDK/output/mx6sdl/obds/evb_rev_a/obj/apps/obds/src/tests/program_board_id.o (ocotp_sense_fuse)
/home/leon/git/swp-report/iMX6_Platform_SDK/output/mx6sdl/lib/libsdk.a(ecspi.o)
                              /home/leon/git/swp-report/iMX6_Platform_SDK/output/mx6sdl/obds/evb_rev_a/obj/apps/obds/src/tests/imx_spi_nor_test.o (ecspi_open)
/home/leon/git/swp-report/iMX6_Platform_SDK/output/mx6sdl/lib/libsdk.a(timer.o)
                              /home/leon/git/swp-report/iMX6_Platform_SDK/output/mx6sdl/obds/evb_rev_a/obj/apps/obds/src/tests/enet_mx6dldq_test.o (hal_delay_us)
/home/leon/git/swp-report/iMX6_Platform_SDK/output/mx6sdl/lib/libsdk.a(imx_uart.o)
                              /home/leon/git/swp-report/iMX6_Platform_SDK/output/mx6sdl/obds/evb_rev_a/obj/sdk/drivers/uart/test/uart_test.o (uart_putchar)
/home/leon/git/swp-report/iMX6_Platform_SDK/output/mx6sdl/lib/libsdk.a(usb_common.o)
                              /home/leon/git/swp-report/iMX6_Platform_SDK/output/mx6sdl/obds/evb_rev_a/obj/apps/obds/src/tests/usb_tests_obds.o (usb_get_port_speed)
/home/leon/git/swp-report/iMX6_Platform_SDK/output/mx6sdl/lib/libsdk.a(usbh_drv.o)
                              /home/leon/git/swp-report/iMX6_Platform_SDK/output/mx6sdl/obds/evb_rev_a/obj/apps/obds/src/tests/usb_tests_obds.o (usbh_init)
/home/leon/git/swp-report/iMX6_Platform_SDK/output/mx6sdl/lib/libsdk.a(usdhc.o)
                              /home/leon/git/swp-report/iMX6_Platform_SDK/output/mx6sdl/obds/evb_rev_a/obj/apps/obds/src/tests/mmcsd_test.o (card_detect_test_en)
/home/leon/git/swp-report/iMX6_Platform_SDK/output/mx6sdl/lib/libsdk.a(usdhc_host.o)
                              /home/leon/git/swp-report/iMX6_Platform_SDK/output/mx6sdl/lib/libsdk.a(usdhc.o) (usdhc1_isr)
/home/leon/git/swp-report/iMX6_Platform_SDK/output/mx6sdl/lib/libsdk.a(usdhc_mmc.o)
                              /home/leon/git/swp-report/iMX6_Platform_SDK/output/mx6sdl/lib/libsdk.a(usdhc.o) (mmc_init)
/home/leon/git/swp-report/iMX6_Platform_SDK/output/mx6sdl/lib/libsdk.a(usdhc_sd.o)
                              /home/leon/git/swp-report/iMX6_Platform_SDK/output/mx6sdl/lib/libsdk.a(usdhc.o) (sd_init)
/home/leon/git/swp-report/iMX6_Platform_SDK/output/mx6sdl/lib/libsdk.a(adv7180.o)
                              /home/leon/git/swp-report/iMX6_Platform_SDK/output/mx6sdl/obds/evb_rev_a/obj/sdk/drivers/camera/test/adv7180_capture.o (video_fmts)
/home/leon/git/swp-report/iMX6_Platform_SDK/output/mx6sdl/lib/libsdk.a(arm_abort.o)
                              /home/leon/git/swp-report/iMX6_Platform_SDK/output/mx6sdl/lib/libsdk.a(vectors.o) (data_abort_handler)
/home/leon/git/swp-report/iMX6_Platform_SDK/output/mx6sdl/lib/libsdk.a(armv7_cache.o)
                              /home/leon/git/swp-report/iMX6_Platform_SDK/output/mx6sdl/lib/libsdk.a(usdhc.o) (arm_dcache_state_query)
/home/leon/git/swp-report/iMX6_Platform_SDK/output/mx6sdl/lib/libsdk.a(camera_profile.o)
                              /home/leon/git/swp-report/iMX6_Platform_SDK/output/mx6sdl/lib/libsdk.a(smd_sensor.o) (g_camera_profiles)
/home/leon/git/swp-report/iMX6_Platform_SDK/output/mx6sdl/lib/libsdk.a(hdmi_common.o)
                              /home/leon/git/swp-report/iMX6_Platform_SDK/output/mx6sdl/lib/libsdk.a(hdmi_tx.o) (isColorSpaceConversion)
/home/leon/git/swp-report/iMX6_Platform_SDK/output/mx6sdl/lib/libsdk.a(ipu_ic.o)
                              /home/leon/git/swp-report/iMX6_Platform_SDK/output/mx6sdl/lib/libsdk.a(ipu_vdi.o) (ipu_ic_enable)
/home/leon/git/swp-report/iMX6_Platform_SDK/output/mx6sdl/lib/libsdk.a(epit.o)
                              /home/leon/git/swp-report/iMX6_Platform_SDK/output/mx6sdl/lib/libsdk.a(timer.o) (epit_get_compare_event)
/home/leon/git/swp-report/iMX6_Platform_SDK/output/mx6sdl/lib/libsdk.a(mx6x_usb.o)
                              /home/leon/git/swp-report/iMX6_Platform_SDK/output/mx6sdl/lib/libsdk.a(usbh_drv.o) (usbEnableClocks)
/home/leon/git/swp-report/iMX6_Platform_SDK/output/mx6sdl/lib/libsdk.a(abort_handler.o)
                              /home/leon/git/swp-report/iMX6_Platform_SDK/output/mx6sdl/lib/libsdk.a(arm_abort.o) (dump_regs)
/home/leon/git/swp-report/iMX6_Platform_SDK/output/mx6sdl/lib/libboard_evb_rev_a.a(board_audio.o)
                              /home/leon/git/swp-report/iMX6_Platform_SDK/output/mx6sdl/lib/libsdk.a(sgtl5000.o) (SGTL5000PowerUp_and_clockinit)
/home/leon/git/swp-report/iMX6_Platform_SDK/output/mx6sdl/lib/libboard_evb_rev_a.a(board_buttons.o)
                              /home/leon/git/swp-report/iMX6_Platform_SDK/output/mx6sdl/obds/evb_rev_a/obj/apps/obds/src/tests/android_buttons_test.o (android_buttons_iomux_config)
/home/leon/git/swp-report/iMX6_Platform_SDK/output/mx6sdl/lib/libboard_evb_rev_a.a(board_camera.o)
                              /home/leon/git/swp-report/iMX6_Platform_SDK/output/mx6sdl/lib/libsdk.a(smd_sensor.o) (g_camera_i2c_port)
/home/leon/git/swp-report/iMX6_Platform_SDK/output/mx6sdl/lib/libboard_evb_rev_a.a(board_display.o)
                              /home/leon/git/swp-report/iMX6_Platform_SDK/output/mx6sdl/lib/libsdk.a(ips_disp_panel.o) (lvds_power_on)
/home/leon/git/swp-report/iMX6_Platform_SDK/output/mx6sdl/lib/libboard_evb_rev_a.a(board_hdmi.o)
                              /home/leon/git/swp-report/iMX6_Platform_SDK/output/mx6sdl/lib/libsdk.a(ips_disp_panel.o) (hdmi_pgm_iomux)
/home/leon/git/swp-report/iMX6_Platform_SDK/output/mx6sdl/lib/libboard_evb_rev_a.a(board_i2c.o)
                              /home/leon/git/swp-report/iMX6_Platform_SDK/output/mx6sdl/lib/libsdk.a(wm8958_dac.o) (g_wm8958_i2c_device)
/home/leon/git/swp-report/iMX6_Platform_SDK/output/mx6sdl/lib/libboard_evb_rev_a.a(board_io_expanders.o)
                              /home/leon/git/swp-report/iMX6_Platform_SDK/output/mx6sdl/obds/evb_rev_a/obj/sdk/common/ioexpander/test/max7310_test.o (max7310_i2c_req_array)
/home/leon/git/swp-report/iMX6_Platform_SDK/output/mx6sdl/lib/libboard_evb_rev_a.a(board_mipi.o)
                              /home/leon/git/swp-report/iMX6_Platform_SDK/output/mx6sdl/lib/libsdk.a(ips_disp_panel.o) (mipi_backlight_en)
/home/leon/git/swp-report/iMX6_Platform_SDK/output/mx6sdl/lib/libboard_evb_rev_a.a(board_network.o)
                              /home/leon/git/swp-report/iMX6_Platform_SDK/output/mx6sdl/obds/evb_rev_a/obj/apps/obds/src/tests/enet_mx6dldq_test.o (imx_KSZ9021RN_reset)
/home/leon/git/swp-report/iMX6_Platform_SDK/output/mx6sdl/lib/libboard_evb_rev_a.a(board_usb.o)
                              /home/leon/git/swp-report/iMX6_Platform_SDK/output/mx6sdl/lib/libsdk.a(usbh_drv.o) (usbEnableVbus)
/home/leon/git/swp-report/iMX6_Platform_SDK/output/mx6sdl/lib/libboard_evb_rev_a.a(board_usdhc.o)
                              /home/leon/git/swp-report/iMX6_Platform_SDK/output/mx6sdl/lib/libsdk.a(usdhc_host.o) (usdhc_gpio_config)
/home/leon/git/swp-report/iMX6_Platform_SDK/output/mx6sdl/lib/libboard_evb_rev_a.a(hardware_modules.o)
                              /home/leon/git/swp-report/iMX6_Platform_SDK/output/mx6sdl/obds/evb_rev_a/obj/apps/common/platform_init.o (g_debug_uart_port)
/home/leon/git/swp-report/iMX6_Platform_SDK/output/mx6sdl/lib/libboard_evb_rev_a.a(dcd.o)
                              /home/leon/git/swp-report/iMX6_Platform_SDK/output/mx6sdl/obds/evb_rev_a/obj/apps/common/ivt.o (input_dcd_hdr)
/home/leon/git/swp-report/iMX6_Platform_SDK/output/mx6sdl/lib/libboard_evb_rev_a.a(ecspi_iomux_config.o)
                              /home/leon/git/swp-report/iMX6_Platform_SDK/output/mx6sdl/lib/libsdk.a(ecspi.o) (ecspi_iomux_config)
/home/leon/git/swp-report/iMX6_Platform_SDK/output/mx6sdl/lib/libboard_evb_rev_a.a(enet_iomux_config.o)
                              /home/leon/git/swp-report/iMX6_Platform_SDK/output/mx6sdl/lib/libboard_evb_rev_a.a(board_network.o) (enet_iomux_config)
/home/leon/git/swp-report/iMX6_Platform_SDK/output/mx6sdl/lib/libboard_evb_rev_a.a(esai_iomux_config.o)
                              /home/leon/git/swp-report/iMX6_Platform_SDK/output/mx6sdl/lib/libsdk.a(imx_esai.o) (esai_iomux_config)
/home/leon/git/swp-report/iMX6_Platform_SDK/output/mx6sdl/lib/libboard_evb_rev_a.a(i2c_iomux_config.o)
                              /home/leon/git/swp-report/iMX6_Platform_SDK/output/mx6sdl/lib/libsdk.a(imx_i2c.o) (i2c_iomux_config)
/home/leon/git/swp-report/iMX6_Platform_SDK/output/mx6sdl/lib/libboard_evb_rev_a.a(iomux_config.o)
                              /home/leon/git/swp-report/iMX6_Platform_SDK/output/mx6sdl/lib/libsdk.a(imx-ssi.o) (audmux_iomux_config)
/home/leon/git/swp-report/iMX6_Platform_SDK/output/mx6sdl/lib/libboard_evb_rev_a.a(ipu1_iomux_config.o)
                              /home/leon/git/swp-report/iMX6_Platform_SDK/output/mx6sdl/obds/evb_rev_a/obj/sdk/drivers/camera/test/adv7180_capture.o (ipu1_iomux_config)
/home/leon/git/swp-report/iMX6_Platform_SDK/output/mx6sdl/lib/libboard_evb_rev_a.a(ipu_iomux_config.o)
                              /home/leon/git/swp-report/iMX6_Platform_SDK/output/mx6sdl/obds/evb_rev_a/obj/apps/obds/src/tests/display_test.o (ipu_iomux_config)
/home/leon/git/swp-report/iMX6_Platform_SDK/output/mx6sdl/lib/libboard_evb_rev_a.a(kpp_iomux_config.o)
                              /home/leon/git/swp-report/iMX6_Platform_SDK/output/mx6sdl/lib/libboard_evb_rev_a.a(iomux_config.o) (kpp_iomux_config)
/home/leon/git/swp-report/iMX6_Platform_SDK/output/mx6sdl/lib/libboard_evb_rev_a.a(mlb_iomux_config.o)
                              /home/leon/git/swp-report/iMX6_Platform_SDK/output/mx6sdl/lib/libboard_evb_rev_a.a(iomux_config.o) (mlb_iomux_config)
/home/leon/git/swp-report/iMX6_Platform_SDK/output/mx6sdl/lib/libboard_evb_rev_a.a(mmdc_iomux_config.o)
                              /home/leon/git/swp-report/iMX6_Platform_SDK/output/mx6sdl/lib/libboard_evb_rev_a.a(iomux_config.o) (mmdc_iomux_config)
/home/leon/git/swp-report/iMX6_Platform_SDK/output/mx6sdl/lib/libboard_evb_rev_a.a(pwm1_iomux_config.o)
                              /home/leon/git/swp-report/iMX6_Platform_SDK/output/mx6sdl/lib/libboard_evb_rev_a.a(iomux_config.o) (pwm1_iomux_config)
/home/leon/git/swp-report/iMX6_Platform_SDK/output/mx6sdl/lib/libboard_evb_rev_a.a(sjc_iomux_config.o)
                              /home/leon/git/swp-report/iMX6_Platform_SDK/output/mx6sdl/lib/libboard_evb_rev_a.a(iomux_config.o) (sjc_iomux_config)
/home/leon/git/swp-report/iMX6_Platform_SDK/output/mx6sdl/lib/libboard_evb_rev_a.a(spdif_iomux_config.o)
                              /home/leon/git/swp-report/iMX6_Platform_SDK/output/mx6sdl/lib/libsdk.a(imx_spdif.o) (spdif_iomux_config)
/home/leon/git/swp-report/iMX6_Platform_SDK/output/mx6sdl/lib/libboard_evb_rev_a.a(uart2_iomux_config.o)
                              /home/leon/git/swp-report/iMX6_Platform_SDK/output/mx6sdl/obds/evb_rev_a/obj/apps/obds/src/tests/gps_test.o (uart2_iomux_config)
/home/leon/git/swp-report/iMX6_Platform_SDK/output/mx6sdl/lib/libboard_evb_rev_a.a(uart4_iomux_config.o)
                              /home/leon/git/swp-report/iMX6_Platform_SDK/output/mx6sdl/lib/libboard_evb_rev_a.a(iomux_config.o) (uart4_iomux_config)
/home/leon/git/swp-report/iMX6_Platform_SDK/output/mx6sdl/lib/libboard_evb_rev_a.a(uart_iomux_config.o)
                              /home/leon/git/swp-report/iMX6_Platform_SDK/output/mx6sdl/lib/libsdk.a(imx_uart.o) (uart_iomux_config)
/home/leon/git/swp-report/iMX6_Platform_SDK/output/mx6sdl/lib/libboard_evb_rev_a.a(usb_iomux_config.o)
                              /home/leon/git/swp-report/iMX6_Platform_SDK/output/mx6sdl/lib/libboard_evb_rev_a.a(iomux_config.o) (usb_iomux_config)
/home/leon/git/swp-report/iMX6_Platform_SDK/output/mx6sdl/lib/libboard_evb_rev_a.a(usdhc1_iomux_config.o)
                              /home/leon/git/swp-report/iMX6_Platform_SDK/output/mx6sdl/lib/libboard_evb_rev_a.a(iomux_config.o) (usdhc1_iomux_config)
/home/leon/git/swp-report/iMX6_Platform_SDK/output/mx6sdl/lib/libboard_evb_rev_a.a(usdhc2_iomux_config.o)
                              /home/leon/git/swp-report/iMX6_Platform_SDK/output/mx6sdl/lib/libboard_evb_rev_a.a(iomux_config.o) (usdhc2_iomux_config)
/home/leon/git/swp-report/iMX6_Platform_SDK/output/mx6sdl/lib/libboard_evb_rev_a.a(usdhc3_iomux_config.o)
                              /home/leon/git/swp-report/iMX6_Platform_SDK/output/mx6sdl/lib/libboard_evb_rev_a.a(iomux_config.o) (usdhc3_iomux_config)
/home/leon/git/swp-report/iMX6_Platform_SDK/output/mx6sdl/lib/libboard_evb_rev_a.a(usdhc4_iomux_config.o)
                              /home/leon/git/swp-report/iMX6_Platform_SDK/output/mx6sdl/lib/libboard_evb_rev_a.a(iomux_config.o) (usdhc4_iomux_config)
/home/leon/git/swp-report/iMX6_Platform_SDK/output/mx6sdl/lib/libboard_evb_rev_a.a(usdhc_iomux_config.o)
                              /home/leon/git/swp-report/iMX6_Platform_SDK/output/mx6sdl/lib/libsdk.a(usdhc_host.o) (usdhc_iomux_config)
/home/leon/git/swp-report/iMX6_Platform_SDK/output/mx6sdl/lib/libboard_evb_rev_a.a(ccm_iomux_config.o)
                              /home/leon/git/swp-report/iMX6_Platform_SDK/output/mx6sdl/lib/libboard_evb_rev_a.a(iomux_config.o) (ccm_iomux_config)
/home/leon/git/swp-report/iMX6_Platform_SDK/output/mx6sdl/lib/libboard_evb_rev_a.a(ecspi1_iomux_config.o)
                              /home/leon/git/swp-report/iMX6_Platform_SDK/output/mx6sdl/lib/libboard_evb_rev_a.a(ecspi_iomux_config.o) (ecspi1_iomux_config)
/home/leon/git/swp-report/iMX6_Platform_SDK/output/mx6sdl/lib/libboard_evb_rev_a.a(flexcan1_iomux_config.o)
                              /home/leon/git/swp-report/iMX6_Platform_SDK/output/mx6sdl/lib/libboard_evb_rev_a.a(iomux_config.o) (flexcan1_iomux_config)
/home/leon/git/swp-report/iMX6_Platform_SDK/output/mx6sdl/lib/libboard_evb_rev_a.a(flexcan2_iomux_config.o)
                              /home/leon/git/swp-report/iMX6_Platform_SDK/output/mx6sdl/lib/libboard_evb_rev_a.a(iomux_config.o) (flexcan2_iomux_config)
/home/leon/git/swp-report/iMX6_Platform_SDK/output/mx6sdl/lib/libboard_evb_rev_a.a(gpio3_iomux_config.o)
                              /home/leon/git/swp-report/iMX6_Platform_SDK/output/mx6sdl/lib/libboard_evb_rev_a.a(iomux_config.o) (gpio3_iomux_config)
/home/leon/git/swp-report/iMX6_Platform_SDK/output/mx6sdl/lib/libboard_evb_rev_a.a(gpio4_iomux_config.o)
                              /home/leon/git/swp-report/iMX6_Platform_SDK/output/mx6sdl/lib/libboard_evb_rev_a.a(iomux_config.o) (gpio4_iomux_config)
/home/leon/git/swp-report/iMX6_Platform_SDK/output/mx6sdl/lib/libboard_evb_rev_a.a(gpio5_iomux_config.o)
                              /home/leon/git/swp-report/iMX6_Platform_SDK/output/mx6sdl/lib/libboard_evb_rev_a.a(iomux_config.o) (gpio5_iomux_config)
/home/leon/git/swp-report/iMX6_Platform_SDK/output/mx6sdl/lib/libboard_evb_rev_a.a(gpio6_iomux_config.o)
                              /home/leon/git/swp-report/iMX6_Platform_SDK/output/mx6sdl/lib/libboard_evb_rev_a.a(iomux_config.o) (gpio6_iomux_config)
/home/leon/git/swp-report/iMX6_Platform_SDK/output/mx6sdl/lib/libboard_evb_rev_a.a(gpmi_iomux_config.o)
                              /home/leon/git/swp-report/iMX6_Platform_SDK/output/mx6sdl/lib/libboard_evb_rev_a.a(iomux_config.o) (gpmi_iomux_config)
/home/leon/git/swp-report/iMX6_Platform_SDK/output/mx6sdl/lib/libboard_evb_rev_a.a(hdmi_iomux_config.o)
                              /home/leon/git/swp-report/iMX6_Platform_SDK/output/mx6sdl/lib/libboard_evb_rev_a.a(iomux_config.o) (hdmi_iomux_config)
/home/leon/git/swp-report/iMX6_Platform_SDK/output/mx6sdl/lib/libboard_evb_rev_a.a(i2c1_iomux_config.o)
                              /home/leon/git/swp-report/iMX6_Platform_SDK/output/mx6sdl/lib/libboard_evb_rev_a.a(i2c_iomux_config.o) (i2c1_iomux_config)
/home/leon/git/swp-report/iMX6_Platform_SDK/output/mx6sdl/lib/libboard_evb_rev_a.a(i2c2_iomux_config.o)
                              /home/leon/git/swp-report/iMX6_Platform_SDK/output/mx6sdl/lib/libboard_evb_rev_a.a(i2c_iomux_config.o) (i2c2_iomux_config)
/home/leon/git/swp-report/iMX6_Platform_SDK/output/mx6sdl/lib/libboard_evb_rev_a.a(i2c3_iomux_config.o)
                              /home/leon/git/swp-report/iMX6_Platform_SDK/output/mx6sdl/lib/libboard_evb_rev_a.a(i2c_iomux_config.o) (i2c3_iomux_config)
/home/leon/riotboard/arm-2012.09/bin/../arm-none-eabi/lib//libc.a(lib_a-assert.o)
                              /home/leon/git/swp-report/iMX6_Platform_SDK/output/mx6sdl/lib/libsdk.a(gic.o) (__assert_func)
/home/leon/riotboard/arm-2012.09/bin/../arm-none-eabi/lib//libc.a(lib_a-bzero.o)
                              /home/leon/git/swp-report/iMX6_Platform_SDK/output/mx6sdl/lib/libsdk.a(mmu.o) (bzero)
/home/leon/riotboard/arm-2012.09/bin/../arm-none-eabi/lib//libc.a(lib_a-fiprintf.o)
                              /home/leon/riotboard/arm-2012.09/bin/../arm-none-eabi/lib//libc.a(lib_a-assert.o) (fiprintf)
/home/leon/riotboard/arm-2012.09/bin/../arm-none-eabi/lib//libc.a(lib_a-fputc.o)
                              /home/leon/git/swp-report/iMX6_Platform_SDK/output/mx6sdl/obds/evb_rev_a/obj/apps/obds/src/tests/program_mac_address.o (fputc)
/home/leon/riotboard/arm-2012.09/bin/../arm-none-eabi/lib//libc.a(lib_a-impure.o)
                              /home/leon/git/swp-report/iMX6_Platform_SDK/output/mx6sdl/obds/evb_rev_a/obj/apps/obds/src/tests/android_buttons_test.o (_impure_ptr)
/home/leon/riotboard/arm-2012.09/bin/../arm-none-eabi/lib//libc.a(lib_a-init.o)
                              /home/leon/git/swp-report/iMX6_Platform_SDK/output/mx6sdl/lib/libsdk.a(startup.o) (__libc_init_array)
/home/leon/riotboard/arm-2012.09/bin/../arm-none-eabi/lib//libc.a(lib_a-malloc.o)
                              /home/leon/git/swp-report/iMX6_Platform_SDK/output/mx6sdl/obds/evb_rev_a/obj/apps/obds/src/obds.o (malloc)
/home/leon/riotboard/arm-2012.09/bin/../arm-none-eabi/lib//libc.a(lib_a-mallocr.o)
                              /home/leon/riotboard/arm-2012.09/bin/../arm-none-eabi/lib//libc.a(lib_a-malloc.o) (_malloc_r)
/home/leon/riotboard/arm-2012.09/bin/../arm-none-eabi/lib//libc.a(lib_a-memcpy.o)
                              /home/leon/git/swp-report/iMX6_Platform_SDK/output/mx6sdl/obds/evb_rev_a/obj/apps/obds/src/tests/audio_esai_test.o (memcpy)
/home/leon/riotboard/arm-2012.09/bin/../arm-none-eabi/lib//libc.a(lib_a-memset.o)
                              /home/leon/git/swp-report/iMX6_Platform_SDK/output/mx6sdl/obds/evb_rev_a/obj/apps/common/print_version.o (memset)
/home/leon/riotboard/arm-2012.09/bin/../arm-none-eabi/lib//libc.a(lib_a-mlock.o)
                              /home/leon/riotboard/arm-2012.09/bin/../arm-none-eabi/lib//libc.a(lib_a-mallocr.o) (__malloc_lock)
/home/leon/riotboard/arm-2012.09/bin/../arm-none-eabi/lib//libc.a(lib_a-printf.o)
                              /home/leon/git/swp-report/iMX6_Platform_SDK/output/mx6sdl/obds/evb_rev_a/obj/apps/common/print_clock_info.o (printf)
/home/leon/riotboard/arm-2012.09/bin/../arm-none-eabi/lib//libc.a(lib_a-putc.o)
                              /home/leon/riotboard/arm-2012.09/bin/../arm-none-eabi/lib//libc.a(lib_a-fputc.o) (_putc_r)
/home/leon/riotboard/arm-2012.09/bin/../arm-none-eabi/lib//libc.a(lib_a-realloc.o)
                              /home/leon/git/swp-report/iMX6_Platform_SDK/output/mx6sdl/lib/libsdk.a(system_util.o) (realloc)
/home/leon/riotboard/arm-2012.09/bin/../arm-none-eabi/lib//libc.a(lib_a-reallocr.o)
                              /home/leon/riotboard/arm-2012.09/bin/../arm-none-eabi/lib//libc.a(lib_a-realloc.o) (_realloc_r)
/home/leon/riotboard/arm-2012.09/bin/../arm-none-eabi/lib//libc.a(lib_a-rget.o)
                              /home/leon/git/swp-report/iMX6_Platform_SDK/output/mx6sdl/obds/evb_rev_a/obj/apps/obds/src/tests/android_buttons_test.o (__srget_r)
/home/leon/riotboard/arm-2012.09/bin/../arm-none-eabi/lib//libc.a(lib_a-sbrkr.o)
                              /home/leon/riotboard/arm-2012.09/bin/../arm-none-eabi/lib//libc.a(lib_a-mallocr.o) (_sbrk_r)
/home/leon/riotboard/arm-2012.09/bin/../arm-none-eabi/lib//libc.a(lib_a-sprintf.o)
                              /home/leon/git/swp-report/iMX6_Platform_SDK/output/mx6sdl/obds/evb_rev_a/obj/apps/obds/src/obds.o (sprintf)
/home/leon/riotboard/arm-2012.09/bin/../arm-none-eabi/lib//libc.a(lib_a-strcat.o)
                              /home/leon/git/swp-report/iMX6_Platform_SDK/output/mx6sdl/obds/evb_rev_a/obj/apps/obds/src/obds.o (strcat)
/home/leon/riotboard/arm-2012.09/bin/../arm-none-eabi/lib//libc.a(lib_a-strcmp.o)
                              /home/leon/git/swp-report/iMX6_Platform_SDK/output/mx6sdl/obds/evb_rev_a/obj/apps/obds/src/obds.o (strcmp)
/home/leon/riotboard/arm-2012.09/bin/../arm-none-eabi/lib//libc.a(lib_a-strcpy.o)
                              /home/leon/git/swp-report/iMX6_Platform_SDK/output/mx6sdl/obds/evb_rev_a/obj/apps/obds/src/obds.o (strcpy)
/home/leon/riotboard/arm-2012.09/bin/../arm-none-eabi/lib//libc.a(lib_a-strlen.o)
                              /home/leon/git/swp-report/iMX6_Platform_SDK/output/mx6sdl/lib/libsdk.a(menu.o) (strlen)
/home/leon/riotboard/arm-2012.09/bin/../arm-none-eabi/lib//libc.a(lib_a-strncasecmp.o)
                              /home/leon/git/swp-report/iMX6_Platform_SDK/output/mx6sdl/lib/libsdk.a(menu.o) (strncasecmp)
/home/leon/riotboard/arm-2012.09/bin/../arm-none-eabi/lib//libc.a(lib_a-strtok.o)
                              /home/leon/git/swp-report/iMX6_Platform_SDK/output/mx6sdl/obds/evb_rev_a/obj/apps/obds/src/obds.o (strtok)
/home/leon/riotboard/arm-2012.09/bin/../arm-none-eabi/lib//libc.a(lib_a-strtok_r.o)
                              /home/leon/riotboard/arm-2012.09/bin/../arm-none-eabi/lib//libc.a(lib_a-strtok.o) (__strtok_r)
/home/leon/riotboard/arm-2012.09/bin/../arm-none-eabi/lib//libc.a(lib_a-svfprintf.o)
                              /home/leon/riotboard/arm-2012.09/bin/../arm-none-eabi/lib//libc.a(lib_a-sprintf.o) (_svfprintf_r)
/home/leon/riotboard/arm-2012.09/bin/../arm-none-eabi/lib//libc.a(lib_a-vfiprintf.o)
                              /home/leon/riotboard/arm-2012.09/bin/../arm-none-eabi/lib//libc.a(lib_a-fiprintf.o) (_vfiprintf_r)
/home/leon/riotboard/arm-2012.09/bin/../arm-none-eabi/lib//libc.a(lib_a-vfprintf.o)
                              /home/leon/riotboard/arm-2012.09/bin/../arm-none-eabi/lib//libc.a(lib_a-printf.o) (_vfprintf_r)
/home/leon/riotboard/arm-2012.09/bin/../arm-none-eabi/lib//libc.a(lib_a-vprintf.o)
                              /home/leon/git/swp-report/iMX6_Platform_SDK/output/mx6sdl/obds/evb_rev_a/obj/apps/obds/src/obds.o (vprintf)
/home/leon/riotboard/arm-2012.09/bin/../arm-none-eabi/lib//libc.a(lib_a-wbuf.o)
                              /home/leon/riotboard/arm-2012.09/bin/../arm-none-eabi/lib//libc.a(lib_a-putc.o) (__swbuf_r)
/home/leon/riotboard/arm-2012.09/bin/../arm-none-eabi/lib//libc.a(lib_a-wsetup.o)
                              /home/leon/riotboard/arm-2012.09/bin/../arm-none-eabi/lib//libc.a(lib_a-vfiprintf.o) (__swsetup_r)
/home/leon/riotboard/arm-2012.09/bin/../arm-none-eabi/lib//libc.a(lib_a-abort.o)
                              /home/leon/riotboard/arm-2012.09/bin/../arm-none-eabi/lib//libc.a(lib_a-assert.o) (abort)
/home/leon/riotboard/arm-2012.09/bin/../arm-none-eabi/lib//libc.a(lib_a-ctype_.o)
                              /home/leon/riotboard/arm-2012.09/bin/../arm-none-eabi/lib//libc.a(lib_a-strncasecmp.o) (__ctype_ptr__)
/home/leon/riotboard/arm-2012.09/bin/../arm-none-eabi/lib//libc.a(lib_a-dtoa.o)
                              /home/leon/riotboard/arm-2012.09/bin/../arm-none-eabi/lib//libc.a(lib_a-svfprintf.o) (_dtoa_r)
/home/leon/riotboard/arm-2012.09/bin/../arm-none-eabi/lib//libc.a(lib_a-fflush.o)
                              /home/leon/riotboard/arm-2012.09/bin/../arm-none-eabi/lib//libc.a(lib_a-vfiprintf.o) (_fflush_r)
/home/leon/riotboard/arm-2012.09/bin/../arm-none-eabi/lib//libc.a(lib_a-findfp.o)
                              /home/leon/riotboard/arm-2012.09/bin/../arm-none-eabi/lib//libc.a(lib_a-fputc.o) (__sinit)
/home/leon/riotboard/arm-2012.09/bin/../arm-none-eabi/lib//libc.a(lib_a-fputwc.o)
                              /home/leon/riotboard/arm-2012.09/bin/../arm-none-eabi/lib//libc.a(lib_a-vfiprintf.o) (_fputwc_r)
/home/leon/riotboard/arm-2012.09/bin/../arm-none-eabi/lib//libc.a(lib_a-freer.o)
                              /home/leon/riotboard/arm-2012.09/bin/../arm-none-eabi/lib//libc.a(lib_a-malloc.o) (_free_r)
/home/leon/riotboard/arm-2012.09/bin/../arm-none-eabi/lib//libc.a(lib_a-fvwrite.o)
                              /home/leon/riotboard/arm-2012.09/bin/../arm-none-eabi/lib//libc.a(lib_a-vfiprintf.o) (__sfvwrite_r)
/home/leon/riotboard/arm-2012.09/bin/../arm-none-eabi/lib//libc.a(lib_a-fwalk.o)
                              /home/leon/riotboard/arm-2012.09/bin/../arm-none-eabi/lib//libc.a(lib_a-findfp.o) (_fwalk)
/home/leon/riotboard/arm-2012.09/bin/../arm-none-eabi/lib//libc.a(lib_a-locale.o)
                              /home/leon/riotboard/arm-2012.09/bin/../arm-none-eabi/lib//libc.a(lib_a-fputwc.o) (__locale_mb_cur_max)
/home/leon/riotboard/arm-2012.09/bin/../arm-none-eabi/lib//libc.a(lib_a-makebuf.o)
                              /home/leon/riotboard/arm-2012.09/bin/../arm-none-eabi/lib//libc.a(lib_a-wsetup.o) (__smakebuf_r)
/home/leon/riotboard/arm-2012.09/bin/../arm-none-eabi/lib//libc.a(lib_a-memchr.o)
                              /home/leon/riotboard/arm-2012.09/bin/../arm-none-eabi/lib//libc.a(lib_a-svfprintf.o) (memchr)
/home/leon/riotboard/arm-2012.09/bin/../arm-none-eabi/lib//libc.a(lib_a-memmove.o)
                              /home/leon/riotboard/arm-2012.09/bin/../arm-none-eabi/lib//libc.a(lib_a-reallocr.o) (memmove)
/home/leon/riotboard/arm-2012.09/bin/../arm-none-eabi/lib//libc.a(lib_a-mprec.o)
                              /home/leon/riotboard/arm-2012.09/bin/../arm-none-eabi/lib//libc.a(lib_a-dtoa.o) (_Balloc)
/home/leon/riotboard/arm-2012.09/bin/../arm-none-eabi/lib//libc.a(lib_a-reent.o)
                              /home/leon/riotboard/arm-2012.09/bin/../arm-none-eabi/lib//libc.a(lib_a-sbrkr.o) (errno)
/home/leon/riotboard/arm-2012.09/bin/../arm-none-eabi/lib//libc.a(lib_a-refill.o)
                              /home/leon/riotboard/arm-2012.09/bin/../arm-none-eabi/lib//libc.a(lib_a-rget.o) (__srefill_r)
/home/leon/riotboard/arm-2012.09/bin/../arm-none-eabi/lib//libc.a(lib_a-s_fpclassify.o)
                              /home/leon/riotboard/arm-2012.09/bin/../arm-none-eabi/lib//libc.a(lib_a-svfprintf.o) (__fpclassifyd)
/home/leon/riotboard/arm-2012.09/bin/../arm-none-eabi/lib//libc.a(lib_a-signal.o)
                              /home/leon/riotboard/arm-2012.09/bin/../arm-none-eabi/lib//libc.a(lib_a-abort.o) (raise)
/home/leon/riotboard/arm-2012.09/bin/../arm-none-eabi/lib//libc.a(lib_a-signalr.o)
                              /home/leon/riotboard/arm-2012.09/bin/../arm-none-eabi/lib//libc.a(lib_a-signal.o) (_kill_r)
/home/leon/riotboard/arm-2012.09/bin/../arm-none-eabi/lib//libc.a(lib_a-stdio.o)
                              /home/leon/riotboard/arm-2012.09/bin/../arm-none-eabi/lib//libc.a(lib_a-findfp.o) (__sread)
/home/leon/riotboard/arm-2012.09/bin/../arm-none-eabi/lib//libc.a(lib_a-svfiprintf.o)
                              /home/leon/riotboard/arm-2012.09/bin/../arm-none-eabi/lib//libc.a(lib_a-svfprintf.o) (__ssprint_r)
/home/leon/riotboard/arm-2012.09/bin/../arm-none-eabi/lib//libc.a(lib_a-wcrtomb.o)
                              /home/leon/riotboard/arm-2012.09/bin/../arm-none-eabi/lib//libc.a(lib_a-fputwc.o) (_wcrtomb_r)
/home/leon/riotboard/arm-2012.09/bin/../arm-none-eabi/lib//libc.a(lib_a-wctomb_r.o)
                              /home/leon/riotboard/arm-2012.09/bin/../arm-none-eabi/lib//libc.a(lib_a-wcrtomb.o) (__wctomb)
/home/leon/riotboard/arm-2012.09/bin/../arm-none-eabi/lib//libc.a(lib_a-writer.o)
                              /home/leon/riotboard/arm-2012.09/bin/../arm-none-eabi/lib//libc.a(lib_a-stdio.o) (_write_r)
/home/leon/riotboard/arm-2012.09/bin/../arm-none-eabi/lib//libc.a(lib_a-callocr.o)
                              /home/leon/riotboard/arm-2012.09/bin/../arm-none-eabi/lib//libc.a(lib_a-mprec.o) (_calloc_r)
/home/leon/riotboard/arm-2012.09/bin/../arm-none-eabi/lib//libc.a(lib_a-closer.o)
                              /home/leon/riotboard/arm-2012.09/bin/../arm-none-eabi/lib//libc.a(lib_a-stdio.o) (_close_r)
/home/leon/riotboard/arm-2012.09/bin/../arm-none-eabi/lib//libc.a(lib_a-fclose.o)
                              /home/leon/riotboard/arm-2012.09/bin/../arm-none-eabi/lib//libc.a(lib_a-findfp.o) (fclose)
/home/leon/riotboard/arm-2012.09/bin/../arm-none-eabi/lib//libc.a(lib_a-fstatr.o)
                              /home/leon/riotboard/arm-2012.09/bin/../arm-none-eabi/lib//libc.a(lib_a-makebuf.o) (_fstat_r)
/home/leon/riotboard/arm-2012.09/bin/../arm-none-eabi/lib//libc.a(lib_a-isattyr.o)
                              /home/leon/riotboard/arm-2012.09/bin/../arm-none-eabi/lib//libc.a(lib_a-makebuf.o) (_isatty_r)
/home/leon/riotboard/arm-2012.09/bin/../arm-none-eabi/lib//libc.a(lib_a-lseekr.o)
                              /home/leon/riotboard/arm-2012.09/bin/../arm-none-eabi/lib//libc.a(lib_a-stdio.o) (_lseek_r)
/home/leon/riotboard/arm-2012.09/bin/../arm-none-eabi/lib//libc.a(lib_a-readr.o)
                              /home/leon/riotboard/arm-2012.09/bin/../arm-none-eabi/lib//libc.a(lib_a-stdio.o) (_read_r)
/home/leon/riotboard/arm-2012.09/bin/../lib/gcc/arm-none-eabi/4.7.2//libgcc.a(_udivsi3.o)
                              /home/leon/git/swp-report/iMX6_Platform_SDK/output/mx6sdl/obds/evb_rev_a/obj/sdk/drivers/spi/test/imx_spi_nor_atmel.o (__aeabi_uidiv)
/home/leon/riotboard/arm-2012.09/bin/../lib/gcc/arm-none-eabi/4.7.2//libgcc.a(_divsi3.o)
                              /home/leon/git/swp-report/iMX6_Platform_SDK/output/mx6sdl/lib/libsdk.a(ipu_common.o) (__aeabi_idiv)
/home/leon/riotboard/arm-2012.09/bin/../lib/gcc/arm-none-eabi/4.7.2//libgcc.a(_dvmd_tls.o)
                              /home/leon/riotboard/arm-2012.09/bin/../lib/gcc/arm-none-eabi/4.7.2//libgcc.a(_udivsi3.o) (__aeabi_idiv0)
/home/leon/riotboard/arm-2012.09/bin/../lib/gcc/arm-none-eabi/4.7.2//libgcc.a(_arm_addsubdf3.o)
                              /home/leon/riotboard/arm-2012.09/bin/../arm-none-eabi/lib//libc.a(lib_a-dtoa.o) (__aeabi_dsub)
/home/leon/riotboard/arm-2012.09/bin/../lib/gcc/arm-none-eabi/4.7.2//libgcc.a(_arm_muldivdf3.o)
                              /home/leon/riotboard/arm-2012.09/bin/../arm-none-eabi/lib//libc.a(lib_a-dtoa.o) (__aeabi_dmul)
/home/leon/riotboard/arm-2012.09/bin/../lib/gcc/arm-none-eabi/4.7.2//libgcc.a(_arm_cmpdf2.o)
                              /home/leon/riotboard/arm-2012.09/bin/../arm-none-eabi/lib//libc.a(lib_a-svfprintf.o) (__aeabi_dcmpeq)
/home/leon/riotboard/arm-2012.09/bin/../lib/gcc/arm-none-eabi/4.7.2//libgcc.a(_arm_fixdfsi.o)
                              /home/leon/riotboard/arm-2012.09/bin/../arm-none-eabi/lib//libc.a(lib_a-dtoa.o) (__aeabi_d2iz)
/home/leon/riotboard/arm-2012.09/bin/../lib/gcc/arm-none-eabi/4.7.2//libgcc.a(_aeabi_uldivmod.o)
                              /home/leon/git/swp-report/iMX6_Platform_SDK/output/mx6sdl/lib/libsdk.a(timer.o) (__aeabi_uldivmod)
/home/leon/riotboard/arm-2012.09/bin/../lib/gcc/arm-none-eabi/4.7.2//libgcc.a(bpabi.o)
                              /home/leon/riotboard/arm-2012.09/bin/../lib/gcc/arm-none-eabi/4.7.2//libgcc.a(_aeabi_uldivmod.o) (__gnu_uldivmod_helper)
/home/leon/riotboard/arm-2012.09/bin/../lib/gcc/arm-none-eabi/4.7.2//libgcc.a(_divdi3.o)
                              /home/leon/riotboard/arm-2012.09/bin/../lib/gcc/arm-none-eabi/4.7.2//libgcc.a(bpabi.o) (__divdi3)
/home/leon/riotboard/arm-2012.09/bin/../lib/gcc/arm-none-eabi/4.7.2//libgcc.a(_udivdi3.o)
                              /home/leon/riotboard/arm-2012.09/bin/../lib/gcc/arm-none-eabi/4.7.2//libgcc.a(bpabi.o) (__udivdi3)
/home/leon/riotboard/arm-2012.09/bin/../lib/gcc/arm-none-eabi/4.7.2//libgcc.a(_clzsi2.o)
                              /home/leon/riotboard/arm-2012.09/bin/../lib/gcc/arm-none-eabi/4.7.2//libgcc.a(_divdi3.o) (__clzsi2)
/home/leon/git/swp-report/iMX6_Platform_SDK/output/mx6sdl/lib/libsdk.a(runtime_support.o)
                              /home/leon/riotboard/arm-2012.09/bin/../arm-none-eabi/lib//libc.a(lib_a-isattyr.o) (_isatty)

Allocating common symbols
Common symbol       size              file

errno               0x4               /home/leon/riotboard/arm-2012.09/bin/../arm-none-eabi/lib//libc.a(lib_a-reent.o)

Memory Configuration

Name             Origin             Length             Attributes
OCRAM            0x00900000         0x00020000         xrw
DDR              0x10000000         0x40000000         xrw
*default*        0x00000000         0xffffffff

Linker script and memory map

LOAD /home/leon/riotboard/arm-2012.09/bin/../lib/gcc/arm-none-eabi/4.7.2//crtbegin.o
LOAD /home/leon/riotboard/arm-2012.09/bin/../lib/gcc/arm-none-eabi/4.7.2//crti.o
LOAD /home/leon/riotboard/arm-2012.09/bin/../lib/gcc/arm-none-eabi/4.7.2//crtend.o
LOAD /home/leon/riotboard/arm-2012.09/bin/../lib/gcc/arm-none-eabi/4.7.2//crtn.o

.l1_page_table  0x00900000     0x4000
                0x00900000                __l1_page_table_start = .
                0x00904000                . = (. + 0x4000)
 *fill*         0x00900000     0x4000 

.heap.ocram     0x00904000    0x1bfb8
                0x00904000                __heap_ocram_start = .
                0x0091ffb8                . = (. + 0x1bfb8)
 *fill*         0x00904000    0x1bfb8 
                0x0091ffb8                __heap_ocram_end = .

.ram_vectors    0x0091ffb8       0x48
                0x0091ffb8                __ram_vectors_start = .
                0x00920000                . = (. + 0x48)
 *fill*         0x0091ffb8       0x48 
                0x00920000                __ram_vectors_end = .
                0x10000000                _start_image_add = ORIGIN (DDR)

.ivt            0x10000000      0x420
                0x10000400                . = (. + 0x400)
 *fill*         0x10000000      0x400 
 *(.ivt)
 .ivt           0x10000400       0x20 /home/leon/git/swp-report/iMX6_Platform_SDK/output/mx6sdl/obds/evb_rev_a/obj/apps/common/ivt.o
                0x10000400                input_ivt

.boot_data      0x10000420        0xc
                0x10000420                __start_boot_data = .
 *(.boot_data)
 .boot_data     0x10000420        0xc /home/leon/git/swp-report/iMX6_Platform_SDK/output/mx6sdl/obds/evb_rev_a/obj/apps/common/ivt.o
                0x10000420                bd

.dcd_hdr        0x10000430        0x4
                0x10000430                __start_dcd = .
 *(.dcd_hdr)
 .dcd_hdr       0x10000430        0x4 /home/leon/git/swp-report/iMX6_Platform_SDK/output/mx6sdl/lib/libboard_evb_rev_a.a(dcd.o)
                0x10000430                input_dcd_hdr

.dcd_wrt_cmd    0x10000434        0x4
 *(.dcd_wrt_cmd)
 .dcd_wrt_cmd   0x10000434        0x4 /home/leon/git/swp-report/iMX6_Platform_SDK/output/mx6sdl/lib/libboard_evb_rev_a.a(dcd.o)
                0x10000434                input_dcd_wrt_cmd

.dcd_data       0x10000438      0x2d8
 *(.dcd_data)
 .dcd_data      0x10000438      0x2d8 /home/leon/git/swp-report/iMX6_Platform_SDK/output/mx6sdl/lib/libboard_evb_rev_a.a(dcd.o)
                0x10000438                input_dcd

.text           0x10000710    0x5bb74
 CREATE_OBJECT_SYMBOLS
 *(.startup)
 .startup       0x10000710      0x138 /home/leon/git/swp-report/iMX6_Platform_SDK/output/mx6sdl/lib/libsdk.a(startup.o)
                0x10000710                _start
 *(.text .text.* .gnu.linkonce.t.*)
 .text          0x10000848      0x128 /home/leon/riotboard/arm-2012.09/bin/../lib/gcc/arm-none-eabi/4.7.2//crtbegin.o
 .text          0x10000970        0x0 /home/leon/riotboard/arm-2012.09/bin/../lib/gcc/arm-none-eabi/4.7.2//crti.o
 .text          0x10000970        0x0 /home/leon/riotboard/arm-2012.09/bin/../lib/gcc/arm-none-eabi/4.7.2//crtend.o
 .text          0x10000970        0x0 /home/leon/riotboard/arm-2012.09/bin/../lib/gcc/arm-none-eabi/4.7.2//crtn.o
 .text          0x10000970        0x0 /home/leon/git/swp-report/iMX6_Platform_SDK/output/mx6sdl/obds/evb_rev_a/obj/apps/common/ivt.o
 .text          0x10000970       0xbc /home/leon/git/swp-report/iMX6_Platform_SDK/output/mx6sdl/obds/evb_rev_a/obj/apps/common/platform_init.o
                0x10000970                platform_init
 .text          0x10000a2c       0xfc /home/leon/git/swp-report/iMX6_Platform_SDK/output/mx6sdl/obds/evb_rev_a/obj/apps/common/print_clock_info.o
                0x10000a2c                show_freq
                0x10000b18                show_ddr_config
 .text          0x10000b28      0x15c /home/leon/git/swp-report/iMX6_Platform_SDK/output/mx6sdl/obds/evb_rev_a/obj/apps/common/print_version.o
                0x10000b28                print_version
 .text          0x10000c84     0x10c0 /home/leon/git/swp-report/iMX6_Platform_SDK/output/mx6sdl/obds/evb_rev_a/obj/apps/obds/src/obds.o
                0x10000c84                main
                0x10000fec                free_test_results
                0x10001084                printf_hook
                0x10001250                prompt_run_test
                0x100012f4                print_test_passed
                0x10001340                print_test_skipped
                0x1000138c                print_test_failed
                0x100013e4                print_test_not_implemented
                0x1000143c                run_test
                0x10001688                report_test_results
                0x10001a50                run_all_tests
                0x10001cdc                select_tests
 .text          0x10001d44      0x770 /home/leon/git/swp-report/iMX6_Platform_SDK/output/mx6sdl/obds/evb_rev_a/obj/apps/obds/src/obds_utils.o
                0x10001d44                show_boot_switch_info
 .text          0x100024b4      0x330 /home/leon/git/swp-report/iMX6_Platform_SDK/output/mx6sdl/obds/evb_rev_a/obj/apps/obds/src/tests/android_buttons_test.o
                0x100024b4                configure_android_button
                0x1000251c                init_android_buttons
                0x1000256c                check_android_button_status
                0x100026b8                android_buttons_test
 .text          0x100027e4      0xe24 /home/leon/git/swp-report/iMX6_Platform_SDK/output/mx6sdl/obds/evb_rev_a/obj/apps/obds/src/tests/audio_esai_test.o
                0x100027e4                esai_test
 .text          0x10003608      0x3e4 /home/leon/git/swp-report/iMX6_Platform_SDK/output/mx6sdl/obds/evb_rev_a/obj/apps/obds/src/tests/audio_ssi_test.o
                0x10003608                audio_test_init
                0x1000372c                i2s_audio_test
 .text          0x100039ec      0x610 /home/leon/git/swp-report/iMX6_Platform_SDK/output/mx6sdl/obds/evb_rev_a/obj/apps/obds/src/tests/ddr_test.o
                0x100039ec                get_ddr_density
                0x10003ab0                ddr_test
 .text          0x10003ffc      0x2e4 /home/leon/git/swp-report/iMX6_Platform_SDK/output/mx6sdl/obds/evb_rev_a/obj/apps/obds/src/tests/deserializer_ds90ur124.o
                0x10003ffc                deserializer_io_config
                0x10004010                ds90ur124_init
                0x10004044                ds90ur124_receive_cnx_test
                0x10004208                ds90ur124_test_main
 .text          0x100042e0      0x744 /home/leon/git/swp-report/iMX6_Platform_SDK/output/mx6sdl/obds/evb_rev_a/obj/apps/obds/src/tests/display_test.o
                0x100042e0                hdmi_720p_init
                0x10004878                ipu_display_test_main
 .text          0x10004a24      0x978 /home/leon/git/swp-report/iMX6_Platform_SDK/output/mx6sdl/obds/evb_rev_a/obj/apps/obds/src/tests/enet_mx6dldq_test.o
                0x10004bb8                enet_test_main
                0x10004e58                ar8031_test_main
                0x10005108                KSZ9021RN_test_main
 .text          0x1000539c       0x64 /home/leon/git/swp-report/iMX6_Platform_SDK/output/mx6sdl/obds/evb_rev_a/obj/apps/obds/src/tests/flexcan_test.o
                0x1000539c                flexcan_test
 .text          0x10005400      0x278 /home/leon/git/swp-report/iMX6_Platform_SDK/output/mx6sdl/obds/evb_rev_a/obj/apps/obds/src/tests/fm_tuner_si476x_test.o
                0x100055e4                si476x_test_main
 .text          0x10005678      0x1d8 /home/leon/git/swp-report/iMX6_Platform_SDK/output/mx6sdl/obds/evb_rev_a/obj/apps/obds/src/tests/gpio_led.o
                0x10005678                gpio_led_test
 .text          0x10005850       0xd4 /home/leon/git/swp-report/iMX6_Platform_SDK/output/mx6sdl/obds/evb_rev_a/obj/apps/obds/src/tests/gps_test.o
                0x10005850                gps_test
 .text          0x10005924      0x5d0 /home/leon/git/swp-report/iMX6_Platform_SDK/output/mx6sdl/obds/evb_rev_a/obj/apps/obds/src/tests/i2c_check_light_sensor_isl29023.o
                0x10005e0c                i2c_device_id_check_isl29023
 .text          0x10005ef4      0x294 /home/leon/git/swp-report/iMX6_Platform_SDK/output/mx6sdl/obds/evb_rev_a/obj/apps/obds/src/tests/i2c_device_barometer_ppl3115.o
                0x100060cc                i2c_device_id_check_ppl3115
                0x1000615c                i2c_device_ppl3115_test
 .text          0x10006188       0x70 /home/leon/git/swp-report/iMX6_Platform_SDK/output/mx6sdl/obds/evb_rev_a/obj/apps/obds/src/tests/i2c_device_check_cs42888.o
                0x10006188                i2c_device_check_cs42888
 .text          0x100061f8      0x1ac /home/leon/git/swp-report/iMX6_Platform_SDK/output/mx6sdl/obds/evb_rev_a/obj/apps/obds/src/tests/i2c_device_digital_compass_mag3110.o
                0x100061f8                mag3110_reg_read
                0x1000630c                i2c_device_id_check_mag3110
 .text          0x100063a4      0x1b4 /home/leon/git/swp-report/iMX6_Platform_SDK/output/mx6sdl/obds/evb_rev_a/obj/apps/obds/src/tests/i2c_device_digital_compass_mag3112.o
                0x100063a4                mag3112_reg_read
                0x100064b8                i2c_device_id_check_mag3112
 .text          0x10006558      0x964 /home/leon/git/swp-report/iMX6_Platform_SDK/output/mx6sdl/obds/evb_rev_a/obj/apps/obds/src/tests/i2c_device_id_check_mma8450.o
                0x10006730                i2c_device_id_check_MMA8450
                0x100067dc                mma8450_set_config
                0x100068e4                mma8450_get_accel
                0x10006cf0                mma8450_show_accel
 .text          0x10006ebc      0x970 /home/leon/git/swp-report/iMX6_Platform_SDK/output/mx6sdl/obds/evb_rev_a/obj/apps/obds/src/tests/i2c_device_id_check_mma8451.o
                0x10007094                i2c_device_id_check_MMA8451
                0x10007140                mma8451_set_config
                0x10007254                mma8451_get_accel
                0x10007660                mma8451_show_accel
 .text          0x1000782c      0x89c /home/leon/git/swp-report/iMX6_Platform_SDK/output/mx6sdl/obds/evb_rev_a/obj/apps/obds/src/tests/i2c_device_id_check_p1003_tsc.o
                0x1000782c                p1003_version_reg_read
                0x1000799c                p1003_version_reg_write
                0x10007b18                i2c_device_id_check_p1003
                0x10007c64                p1003_get_touch
                0x10007ec4                p1003_show_touch
 .text          0x100080c8      0x6e8 /home/leon/git/swp-report/iMX6_Platform_SDK/output/mx6sdl/obds/evb_rev_a/obj/apps/obds/src/tests/i2c_device_temp_sensor_emc1046.o
                0x100085fc                wait_convertion_done
                0x10008670                i2c_device_id_check_emc1046
                0x10008784                i2c_device_emc1046_test
 .text          0x100087b0      0x36c /home/leon/git/swp-report/iMX6_Platform_SDK/output/mx6sdl/obds/evb_rev_a/obj/apps/obds/src/tests/i2c_device_zigbee_mc1323.o
                0x100089f0                i2c_device_id_check_mc1323
                0x10008ab4                i2c_device_mc1323_test
 .text          0x10008b1c      0x3e8 /home/leon/git/swp-report/iMX6_Platform_SDK/output/mx6sdl/obds/evb_rev_a/obj/apps/obds/src/tests/i2c_eeprom_at24cxx_test.o
 .text          0x10008f04      0x654 /home/leon/git/swp-report/iMX6_Platform_SDK/output/mx6sdl/obds/evb_rev_a/obj/apps/obds/src/tests/imx_spi_nor_test.o
                0x10008f04                spi_nor_query
                0x10008f64                spi_nor_write
                0x10008fdc                spi_nor_read
                0x10009054                spi_nor_erase
                0x100090c0                spi_nor_test
 .text          0x10009558      0x3b4 /home/leon/git/swp-report/iMX6_Platform_SDK/output/mx6sdl/obds/evb_rev_a/obj/apps/obds/src/tests/mlb_os81050.o
                0x10009558                mlb_io_config
                0x10009568                os81050_i2c_init
                0x100095f0                os81050_read_status
                0x1000974c                os81050_get_message
                0x1000986c                os81050_test_main
 .text          0x1000990c      0x2b8 /home/leon/git/swp-report/iMX6_Platform_SDK/output/mx6sdl/obds/evb_rev_a/obj/apps/obds/src/tests/mmcsd_test.o
                0x1000990c                mmcsd_test
 .text          0x10009bc4      0x658 /home/leon/git/swp-report/iMX6_Platform_SDK/output/mx6sdl/obds/evb_rev_a/obj/apps/obds/src/tests/pmic_da9053.o
                0x10009bc4                da9053_i2c_reg
                0x1000a114                i2c_device_id_check_DA9053
                0x1000a1cc                pmic_da9053_test
 .text          0x1000a21c     0x138c /home/leon/git/swp-report/iMX6_Platform_SDK/output/mx6sdl/obds/evb_rev_a/obj/apps/obds/src/tests/pmic_lt3589.o
                0x1000a21c                ltc3589_reg_read
                0x1000a314                ltc3589_reg_write
                0x1000a3fc                ltc3589_eval
                0x1000afac                ltc3589_backlight_en
                0x1000b1c0                ltc3589_camera_power_on
                0x1000b388                sil9024_hdmi_power_on1
                0x1000b4b8                ltc3589_i2c_device_id_check
                0x1000b558                pmic_lt3589_test
 .text          0x1000b5a8      0x2f8 /home/leon/git/swp-report/iMX6_Platform_SDK/output/mx6sdl/obds/evb_rev_a/obj/apps/obds/src/tests/pmic_max17135.o
                0x1000b5a8                max17135_reg_read
                0x1000b698                max17135_reg_write
                0x1000b7f0                i2c_device_id_check_MAX17135
 .text          0x1000b8a0      0x3a0 /home/leon/git/swp-report/iMX6_Platform_SDK/output/mx6sdl/obds/evb_rev_a/obj/apps/obds/src/tests/pmic_mc13892.o
                0x1000b8a0                mc13892_i2c_reg
                0x1000b8e0                pmic_open_vgen1
                0x1000b9c8                pmic_open_vusb
                0x1000ba94                pmic_open_vsd
                0x1000bbb0                device_id_check_mc13892
                0x1000bbe0                pmic_mc13892_test
 .text          0x1000bc40      0x77c /home/leon/git/swp-report/iMX6_Platform_SDK/output/mx6sdl/obds/evb_rev_a/obj/apps/obds/src/tests/program_board_id.o
                0x1000bc70                program_board_id_fuses
                0x1000be70                program_board_id
 .text          0x1000c3bc      0x8cc /home/leon/git/swp-report/iMX6_Platform_SDK/output/mx6sdl/obds/evb_rev_a/obj/apps/obds/src/tests/program_mac_address.o
                0x1000c3ec                read_mac_otp_registers
                0x1000c4a8                mac_address_str
                0x1000c548                program_mac_address_fuses
                0x1000c7c0                program_mac_address
 .text          0x1000cc88      0x1fc /home/leon/git/swp-report/iMX6_Platform_SDK/output/mx6sdl/obds/evb_rev_a/obj/apps/obds/src/tests/snvs_srtc_test.o
                0x1000cc88                snvs_srtc_test
 .text          0x1000ce84        0x0 /home/leon/git/swp-report/iMX6_Platform_SDK/output/mx6sdl/obds/evb_rev_a/obj/apps/obds/src/tests/touch_button_test.o
 .text          0x1000ce84      0x6e0 /home/leon/git/swp-report/iMX6_Platform_SDK/output/mx6sdl/obds/evb_rev_a/obj/apps/obds/src/tests/touch_screen.o
                0x1000ce84                DA9053_Write
                0x1000cf70                DA9053_Read
                0x1000d054                touch_init
                0x1000d0d4                touch_get_xy_value
                0x1000d210                touch_detect
                0x1000d304                touch_screen_prompt
                0x1000d428                touch_screen_test
 .text          0x1000d564      0xb68 /home/leon/git/swp-report/iMX6_Platform_SDK/output/mx6sdl/obds/evb_rev_a/obj/apps/obds/src/tests/touch_screen_max11801.o
                0x1000d92c                max11801_ts_test
                0x1000da88                max11801_reg_read_single
                0x1000db9c                max11801_reg_read_multi
                0x1000dca8                max11801_reg_write
                0x1000dd84                i2c_device_check_max11801_AUX
                0x1000dea4                i2c_device_check_max11801
 .text          0x1000e0cc      0x524 /home/leon/git/swp-report/iMX6_Platform_SDK/output/mx6sdl/obds/evb_rev_a/obj/apps/obds/src/tests/usb_tests_obds.o
                0x1000e0cc                usbo_dev_enum_test
                0x1000e13c                usbh_dev_enum_test
                0x1000e1ac                usb_enum_device
 .text          0x1000e5f0      0x148 /home/leon/git/swp-report/iMX6_Platform_SDK/output/mx6sdl/obds/evb_rev_a/obj/apps/obds/src/tests/video_dec_ARD_MB_reset_button.o
                0x1000e5f0                ard_mb_reset_test
 .text          0x1000e738       0xa0 /home/leon/git/swp-report/iMX6_Platform_SDK/output/mx6sdl/obds/evb_rev_a/obj/apps/obds/src/tests/video_dec_ARD_MBrst_from_cpu_expander.o
                0x1000e738                ard_mb_expander_reset_test
 .text          0x1000e7d8      0x468 /home/leon/git/swp-report/iMX6_Platform_SDK/output/mx6sdl/obds/evb_rev_a/obj/apps/obds/src/tests/video_dec_adv7180.o
                0x1000e7d8                adv7180_i2c_init_obds
                0x1000e838                adv7180_reg_read
                0x1000e8e8                adv7180_reg_write
                0x1000e9a0                adv7180_set_tristate_output
                0x1000e9bc                adv7180_i2c_device_id_check
                0x1000ea18                adv7180_set_gpio_output
                0x1000eaa4                adv7180_test_main
 .text          0x1000ec40      0x324 /home/leon/git/swp-report/iMX6_Platform_SDK/output/mx6sdl/obds/evb_rev_a/obj/apps/obds/src/tests/weim_nor_flash_test.o
                0x1000ec40                weim_nor_flash_cs_setup
                0x1000ec8c                eim_nor_flash_test
                0x1000ecfc                m29w256gl_auto_manu_id
                0x1000ede4                m29w256gl_auto_dev_id
 .text          0x1000ef64       0xfc /home/leon/git/swp-report/iMX6_Platform_SDK/output/mx6sdl/obds/evb_rev_a/obj/sdk/common/ioexpander/test/max7310_test.o
                0x1000ef64                max7310_i2c_device_id_check
 .text          0x1000f060      0x478 /home/leon/git/swp-report/iMX6_Platform_SDK/output/mx6sdl/obds/evb_rev_a/obj/sdk/common/pmic/pfuse/pf0100.o
                0x1000f060                pf0100_reg_read
                0x1000f150                pf0100_reg_write
                0x1000f240                pf0100_enable_vgen1_1v2
                0x1000f290                pf0100_enable_vgen2_1v5
                0x1000f2e0                pf0100_enable_vgen3_1v8
                0x1000f330                pf0100_enable_vgen4_1v8
                0x1000f380                pf0100_enable_vgen4_2v5
                0x1000f3d0                pf0100_enable_vgen6_2v8
                0x1000f420                pf0100_i2c_device_id_check
 .text          0x1000f4d8      0x438 /home/leon/git/swp-report/iMX6_Platform_SDK/output/mx6sdl/obds/evb_rev_a/obj/sdk/drivers/audio/src/snd_card.o
 .text          0x1000f910      0x300 /home/leon/git/swp-report/iMX6_Platform_SDK/output/mx6sdl/obds/evb_rev_a/obj/sdk/drivers/camera/test/adv7180_capture.o
                0x1000f910                adv7180_capture
 .text          0x1000fc10      0x204 /home/leon/git/swp-report/iMX6_Platform_SDK/output/mx6sdl/obds/evb_rev_a/obj/sdk/drivers/camera/test/camera_test.o
                0x1000fc10                camera_test
 .text          0x1000fe14      0x2f0 /home/leon/git/swp-report/iMX6_Platform_SDK/output/mx6sdl/obds/evb_rev_a/obj/sdk/drivers/camera/test/csi_test_mode.o
                0x1000fe14                csi_test_mode
 .text          0x10010104      0x2b8 /home/leon/git/swp-report/iMX6_Platform_SDK/output/mx6sdl/obds/evb_rev_a/obj/sdk/drivers/camera/test/sensor_capture.o
                0x10010104                sensor_capture
 .text          0x100103bc      0x460 /home/leon/git/swp-report/iMX6_Platform_SDK/output/mx6sdl/obds/evb_rev_a/obj/sdk/drivers/epdc/test/epdc_test.o
                0x100103bc                epdc_test
                0x1001050c                epdc_pvi_svga_sdr_init
                0x1001052c                epdc_update_image
                0x10010658                epdc_send_mode0_to_black_update
                0x100106f4                epdc_send_image_update
                0x10010784                epdc_send_erase_to_color
 .text          0x1001081c      0x82c /home/leon/git/swp-report/iMX6_Platform_SDK/output/mx6sdl/obds/evb_rev_a/obj/sdk/drivers/hdmi/test/hdmi_test.o
                0x1001081c                hdmi_test
                0x10010b88                init_hdmi_interrupt
                0x10010c38                hdmi_tx_ISR
                0x10010cc8                hdmi_1080P60_video_output
                0x10010e88                hdmi_720P60_video_output
 .text          0x10011048      0x540 /home/leon/git/swp-report/iMX6_Platform_SDK/output/mx6sdl/obds/evb_rev_a/obj/sdk/drivers/hdmi/test/init_dma_data.o
                0x10011048                init_dma_data
 .text          0x10011588      0xb98 /home/leon/git/swp-report/iMX6_Platform_SDK/output/mx6sdl/obds/evb_rev_a/obj/sdk/drivers/ipu/test/ips_display.o
                0x10011588                ips_display_test
                0x100116c4                ips_hdmi_stream
                0x10011824                ips_hdmi_720P60_stream
                0x10011a88                ips_hdmi_1080P60_stream
                0x10011c80                ips_ext_hdmi_transmitter_1080P60_stream
                0x10011e40                ips_hannstar_xga_yuv_stream
                0x10012080                ips_mipi_wvga_rgb_stream
 .text          0x10012120      0x538 /home/leon/git/swp-report/iMX6_Platform_SDK/output/mx6sdl/obds/evb_rev_a/obj/sdk/drivers/ipu/test/ipu_image.o
                0x10012120                load_centralized_image
                0x1001225c                load_foreground_image
                0x100122a8                load_horiz_image
                0x10012418                set_background_margin
                0x10012508                load_vert_image
 .text          0x10012658     0x10b4 /home/leon/git/swp-report/iMX6_Platform_SDK/output/mx6sdl/obds/evb_rev_a/obj/sdk/drivers/spi/test/imx_spi_nor_atmel.o
                0x10012658                spi_nor_query_atmel
                0x1001279c                spi_nor_write_atmel
                0x1001317c                spi_nor_erase_atmel
                0x10013320                spi_nor_read_atmel
 .text          0x1001370c      0xb00 /home/leon/git/swp-report/iMX6_Platform_SDK/output/mx6sdl/obds/evb_rev_a/obj/sdk/drivers/spi/test/spi_nor_numonyx.o
                0x100139e4                spi_nor_query_numonyx
                0x10013ab0                spi_nor_erase_numonyx
                0x10013b3c                spi_nor_read_numonyx
                0x10013d84                spi_nor_write_numonyx
 .text          0x1001420c      0x24c /home/leon/git/swp-report/iMX6_Platform_SDK/output/mx6sdl/obds/evb_rev_a/obj/sdk/drivers/uart/test/uart_test.o
                0x1001420c                uart_interrupt_handler
                0x10014264                uart_test
 .text          0x10014458     0x39f0 /home/leon/git/swp-report/iMX6_Platform_SDK/output/mx6sdl/obds/evb_rev_a/obj/sdk/drivers/usb/test/usb0_host_test.o
                0x10014458                usb0_host_test
                0x10014f8c                emuerateDevice
                0x1001510c                usbh_set_device_address
                0x10015834                usbh_get_dev_desc
                0x10015f84                usbh_get_config_desc
                0x10016714                usbh_get_interface_desc
                0x10016f84                usbh_set_configuration
                0x100176c0                usbh_get_report_desc
 .text          0x10017e48      0x978 /home/leon/git/swp-report/iMX6_Platform_SDK/output/mx6sdl/obds/evb_rev_a/obj/sdk/drivers/usb/test/usb0_host_testmodes_test.o
                0x10017e48                usb0_host_testmodes_test
 .text          0x100187c0      0xcf4 /home/leon/git/swp-report/iMX6_Platform_SDK/output/mx6sdl/obds/evb_rev_a/obj/sdk/drivers/usdhc/test/usdhc_test.o
                0x100187c0                mmc_sd_test
                0x100187f4                usdhc_test
 .text          0x100194b4      0x264 /home/leon/git/swp-report/iMX6_Platform_SDK/output/mx6sdl/lib/libsdk.a(max7310.o)
                0x100194b4                max7310_reg_read
                0x10019518                max7310_reg_write
                0x10019584                max7310_init
                0x10019664                max7310_set_gpio_output
 .text          0x10019718      0xc64 /home/leon/git/swp-report/iMX6_Platform_SDK/output/mx6sdl/lib/libsdk.a(ccm_pll.o)
                0x10019718                ccm_init
                0x1001983c                get_main_clock
                0x10019acc                get_peri_clock
                0x10019c7c                ccm_ccgr_config
                0x10019ce4                clock_gating_config
                0x1001a11c                ccm_set_lpm_wakeup_source
                0x1001a210                ccm_enter_low_power
                0x1001a280                ipu_hsp_clk_config
                0x1001a2a0                gpu_clock_config
 .text          0x1001a37c      0x164 /home/leon/git/swp-report/iMX6_Platform_SDK/output/mx6sdl/lib/libsdk.a(cortexA9.o)
                0x1001a37c                arm_set_interrupt_state
                0x1001a3a0                cpu_get_current
                0x1001a3ac                enable_neon_fpu
                0x1001a3c8                disable_strict_align_check
                0x1001a3dc                disable_L1_cache
                0x1001a3fc                get_arm_private_peripheral_base
                0x1001a404                arm_unified_tlb_invalidate
                0x1001a414                arm_unified_tlb_invalidate_is
                0x1001a424                arm_branch_prediction_enable
                0x1001a434                arm_branch_prediction_disable
                0x1001a444                arm_branch_target_cache_invalidate
                0x1001a450                arm_branch_target_cache_invalidate_is
                0x1001a45c                scu_enable
                0x1001a470                scu_join_smp
                0x1001a480                scu_leave_smp
                0x1001a490                scu_get_cpus_in_smp
                0x1001a4a4                scu_enable_maintenance_broadcast
                0x1001a4b4                scu_disable_maintenance_broadcast
                0x1001a4c4                scu_secure_invalidate
 .text          0x1001a4e0      0x5e0 /home/leon/git/swp-report/iMX6_Platform_SDK/output/mx6sdl/lib/libsdk.a(gic.o)
                0x1001a5c4                gic_enable
                0x1001a624                gic_set_irq_security
                0x1001a6cc                gic_enable_irq
                0x1001a748                gic_set_irq_priority
                0x1001a790                gic_set_cpu_target
                0x1001a89c                gic_send_sgi
                0x1001a8f0                gic_cpu_enable
                0x1001a950                gic_set_cpu_priority_mask
                0x1001a984                gic_read_irq_ack
                0x1001a9b0                gic_write_end_of_irq
                0x1001a9e0                gic_init
                0x1001aa84                gic_init_cpu
 .text          0x1001aac0      0x1bc /home/leon/git/swp-report/iMX6_Platform_SDK/output/mx6sdl/lib/libsdk.a(interrupt.o)
                0x1001aac0                IRQ_HDLR
                0x1001ab88                disable_interrupt
                0x1001abc4                enable_interrupt
                0x1001ac1c                register_interrupt_routine
                0x1001ac50                default_interrupt_routine
 .text          0x1001ac7c      0x460 /home/leon/git/swp-report/iMX6_Platform_SDK/output/mx6sdl/lib/libsdk.a(mmu.o)
                0x1001ac7c                mmu_enable
                0x1001acb4                mmu_disable
                0x1001ace8                mmu_init
                0x1001ae04                mmu_map_l1_range
                0x1001b01c                mmu_virtual_to_physical
 .text          0x1001b0dc        0x0 /home/leon/git/swp-report/iMX6_Platform_SDK/output/mx6sdl/lib/libsdk.a(startup.o)
 .text          0x1001b0dc        0x4 /home/leon/git/swp-report/iMX6_Platform_SDK/output/mx6sdl/lib/libsdk.a(vectors.o)
                0x1001b0dc                exception_handler
 .text.vectors  0x1001b0e0       0x48 /home/leon/git/swp-report/iMX6_Platform_SDK/output/mx6sdl/lib/libsdk.a(vectors.o)
                0x1001b0e0                vectors
 .text          0x1001b128      0xc78 /home/leon/git/swp-report/iMX6_Platform_SDK/output/mx6sdl/lib/libsdk.a(menu.o)
                0x1001b5d0                menu_get_indent
                0x1001b5ec                menuitem_cmd_showmenu
                0x1001b610                menuitem_cmd_exitmenu
                0x1001b634                menu_append_menuitems
                0x1001b754                menu_present
                0x1001bcf0                menu_print_menuitem
 .text          0x1001bda0        0x0 /home/leon/git/swp-report/iMX6_Platform_SDK/output/mx6sdl/lib/libsdk.a(sdk_version.o)
 .text          0x1001bda0      0x914 /home/leon/git/swp-report/iMX6_Platform_SDK/output/mx6sdl/lib/libsdk.a(system_util.o)
                0x1001bda0                _sys_exit
                0x1001bdbc                mybkpt
                0x1001bdc4                is_input_char
                0x1001bf44                read_input_string
                0x1001c22c                get_input_hex
                0x1001c4ac                read_int
                0x1001c610                jump_to_sdp
 .text          0x1001c6b4       0xe0 /home/leon/git/swp-report/iMX6_Platform_SDK/output/mx6sdl/lib/libsdk.a(text_color.o)
                0x1001c6b4                printf_color
                0x1001c750                get_color_supported
 .text          0x1001c794      0x408 /home/leon/git/swp-report/iMX6_Platform_SDK/output/mx6sdl/lib/libsdk.a(cs42888.o)
                0x1001c8dc                cs42888_init
                0x1001c914                cs42888_dev_info
                0x1001c968                cs42888_config
                0x1001cb4c                cs42888_deinit
 .text          0x1001cb9c     0x2990 /home/leon/git/swp-report/iMX6_Platform_SDK/output/mx6sdl/lib/libsdk.a(imx-ssi.o)
                0x1001ead0                ssi_init
                0x1001eb10                ssi_config
                0x1001f024                ssi_write_fifo
                0x1001f21c                ssi_read_fifo
                0x1001f3dc                ssi_deinit
 .text          0x1001f52c      0xe0c /home/leon/git/swp-report/iMX6_Platform_SDK/output/mx6sdl/lib/libsdk.a(imx_esai.o)
                0x1001fd84                esai_config
                0x100200ec                esai_init
                0x10020128                esai_deinit
                0x1002014c                esai_write_fifo
 .text          0x10020338      0x708 /home/leon/git/swp-report/iMX6_Platform_SDK/output/mx6sdl/lib/libsdk.a(imx_spdif.o)
                0x100206b0                spdif_init
                0x100206ec                spdif_config
                0x10020920                spdif_write_fifo
                0x10020a1c                spdif_deinit
 .text          0x10020a40     0x1100 /home/leon/git/swp-report/iMX6_Platform_SDK/output/mx6sdl/lib/libsdk.a(sgtl5000.o)
                0x1002143c                sgtl5000_init
                0x100219b0                sgtl5000_i2s_config
                0x10021b0c                sgtl5000_deinit
 .text          0x10021b40      0xeb4 /home/leon/git/swp-report/iMX6_Platform_SDK/output/mx6sdl/lib/libsdk.a(wm8958_dac.o)
                0x10021cec                WM8958_dump
                0x10022230                WM8958_DAC_configure
                0x10022960                WM8958_DAC_init
                0x100229c8                WM8958_DAC_deinit
 .text          0x100229f4      0xb7c /home/leon/git/swp-report/iMX6_Platform_SDK/output/mx6sdl/lib/libsdk.a(wm8962.o)
                0x10022cf8                WM8962_dump
                0x10022d28                WM8962_DAC_configure
                0x10023450                WM8962_DAC_init
                0x10023544                WM8962_DAC_deinit
 .text          0x10023570      0x7c4 /home/leon/git/swp-report/iMX6_Platform_SDK/output/mx6sdl/lib/libsdk.a(board_id.o)
                0x10023570                chip_name
                0x10023688                chip_revision
                0x10023760                board_name
                0x10023864                board_revision
                0x1002392c                board_description
                0x10023a4c                get_board_id
                0x10023b28                show_board_id
 .text          0x10023d34      0xa88 /home/leon/git/swp-report/iMX6_Platform_SDK/output/mx6sdl/lib/libsdk.a(smd_sensor.o)
                0x100240cc                sensor_config
                0x10024108                sensor_search
                0x10024298                sensor_init
                0x1002440c                sensor_af_trigger
                0x100244ec                sensor_autofocus_init
                0x1002466c                camera_strobeflash_on
                0x10024748                camera_strobeflash_off
 .text          0x100247bc     0x17e0 /home/leon/git/swp-report/iMX6_Platform_SDK/output/mx6sdl/lib/libsdk.a(enet_drv.o)
                0x100247bc                imx_enet_mii_read
                0x100248cc                imx_enet_mii_write
                0x10024da0                enet_phy_rework_ar8031
                0x10024f14                enet_phy_rework_ksz9021
                0x10025008                imx_enet_phy_init
                0x10025288                imx_enet_get_phy_status
                0x100255b0                imx_enet_phy_enable_external_loopback
                0x100256cc                imx_enet_poll
                0x100257c4                imx_enet_send
                0x100258dc                imx_enet_recv
                0x10025ab8                imx_enet_init
                0x10025c0c                imx_enet_start
                0x10025ca0                imx_enet_stop
                0x10025ce4                imx_enet_isolate_phy
                0x10025d88                imx_enet_unisolate_phy
                0x10025e50                imx_enet_mii_type
 .text          0x10025f9c      0xbb4 /home/leon/git/swp-report/iMX6_Platform_SDK/output/mx6sdl/lib/libsdk.a(mxc_epdc.o)
                0x100260c0                epdc_reset
                0x10026268                epdc_set_update_addr
                0x10026294                epdc_set_update_coord
                0x100262d0                epdc_set_update_dimensions
                0x1002630c                epdc_submit_update
                0x100263d0                epdc_is_lut_complete
                0x10026430                epdc_clear_lut_complete_irq
                0x10026464                epdc_is_lut_active
                0x10026500                epdc_any_luts_active
                0x10026550                epdc_any_luts_available
                0x10026594                epdc_get_next_lut
                0x100265c8                epdc_is_working_buffer_busy
                0x10026624                epdc_is_working_buffer_complete
                0x10026670                epdc_is_collision
                0x100266bc                epdc_dump_registers
                0x100267c4                epdc_set_vertical_timing
                0x10026828                epdc_init_settings
                0x10026ad0                epdc_buffer_init
                0x10026b28                epdc_load_image
 .text          0x10026b50     0x1308 /home/leon/git/swp-report/iMX6_Platform_SDK/output/mx6sdl/lib/libsdk.a(gpio.o)
                0x10026b80                gpio_get_port_count
                0x10026b98                gpio_set_gpio
                0x10026c5c                gpio_set_direction
                0x10026eb8                gpio_get_direction
                0x10027000                gpio_set_level
                0x10027340                gpio_get_level
                0x100274a0                gpio_set_interrupt_config
                0x100278a4                gpio_set_interrupt_mask
                0x10027ae8                gpio_get_interrupt_status
                0x10027c44                gpio_clear_interrupt
 .text          0x10027e58        0x0 /home/leon/git/swp-report/iMX6_Platform_SDK/output/mx6sdl/lib/libsdk.a(imx6sdl_gpio_map.o)
 .text          0x10027e58     0x1334 /home/leon/git/swp-report/iMX6_Platform_SDK/output/mx6sdl/lib/libsdk.a(hdmi_tx.o)
                0x10027e58                hdmi_config_input_source
                0x10027e98                hdmi_video_sample
                0x100280e0                update_csc_coeffs
                0x100285f4                hdmi_video_csc
                0x10028794                hdmi_video_packetize
                0x10028b60                preamble_filter_set
                0x10028c20                hdmi_av_frame_composer
                0x10029068                hdmi_tx_hdcp_config
                0x100290d4                hdmi_config_force_video
                0x1002912c                hdmi_config_forced_pixels
 .text          0x1002918c      0xd24 /home/leon/git/swp-report/iMX6_Platform_SDK/output/mx6sdl/lib/libsdk.a(hdmi_tx_audio.o)
                0x1002918c                hdmi_audio_mute
                0x100291dc                audio_PacketLayout
                0x1002921c                audio_DMA_InterruptMask
                0x1002924c                audio_DMA_InterruptPolarity
                0x1002927c                audio_DMA_ResetFIFO
                0x100292a0                audio_clk_N
                0x10029300                audio_clk_CTS
                0x100293a0                audio_ComputeN
                0x100296c0                audio_ComputeCTS
                0x100298fc                audio_DMA_StartAddr
                0x10029974                audio_DMA_StopAddr
                0x100299ec                audio_DMA_LockEnable
                0x10029a2c                audio_DMA_BurstMode
                0x10029a6c                audio_DMA_IncrType
                0x10029aac                audio_DMA_Threshold
                0x10029adc                audio_DMA_SetCONF1
                0x10029b0c                audio_DMA_Start
                0x10029b30                audio_Configure
                0x10029be8                Audio_ChannelCount
                0x10029cd8                audio_Configure_DMA
                0x10029e70                audio_info_config
 .text          0x10029eb0     0x14fc /home/leon/git/swp-report/iMX6_Platform_SDK/output/mx6sdl/lib/libsdk.a(hdmi_tx_phy.o)
                0x10029eb0                hdmi_phy_int_mask
                0x1002b318                hdmi_phy_init
 .text          0x1002b3ac     0x1798 /home/leon/git/swp-report/iMX6_Platform_SDK/output/mx6sdl/lib/libsdk.a(imx_i2c.o)
                0x1002b3dc                i2c_get_request_instance
                0x1002be54                i2c_xfer
                0x1002c570                i2c_read
                0x1002c5a0                i2c_write
                0x1002c5d0                i2c_setup_interrupt
                0x1002c83c                i2c_init
 .text          0x1002cb44      0x474 /home/leon/git/swp-report/iMX6_Platform_SDK/output/mx6sdl/lib/libsdk.a(ips_disp_panel.o)
                0x1002cdd8                search_panel
                0x1002ce98                list_panel
                0x1002cf30                get_panel_by_id
 .text          0x1002cfb8      0xf90 /home/leon/git/swp-report/iMX6_Platform_SDK/output/mx6sdl/lib/libsdk.a(ipu_common.o)
                0x1002cfb8                need_csc
                0x1002d020                ipu_write_field
                0x1002d0c4                ipu_read
                0x1002d11c                ipu_write
                0x1002d170                ipu_enable_display
                0x1002d1dc                ipu_disable_display
                0x1002d25c                ipu_sw_reset
                0x1002d33c                ipu_display_setup
                0x1002d4b0                ipu_dual_display_setup
                0x1002d5b4                ipu_capture_setup
                0x1002d9f8                ipu_capture_streamoff
                0x1002dacc                ipu_mipi_csi2_setup
                0x1002dcc4                ipu1_ch0_eobnd_isr
                0x1002dea0                ipu_ch0_eobnd_interrupt_register
 .text          0x1002df48      0xcb8 /home/leon/git/swp-report/iMX6_Platform_SDK/output/mx6sdl/lib/libsdk.a(ipu_csi.o)
                0x1002df48                ipu_csi_config
                0x1002e58c                ipu_smfc_fifo_allocate
                0x1002e6e8                ipu_capture_disp_link
                0x1002e814                ipu_disable_csi
                0x1002e880                ipu_disable_smfc
                0x1002e8b4                ipu_csi_test_mode_color
 .text          0x1002ec00     0x1bd8 /home/leon/git/swp-report/iMX6_Platform_SDK/output/mx6sdl/lib/libsdk.a(ipu_dc.o)
                0x1002ec00                ipu_dc_config
                0x1002eef0                ipu_dc_write_channel_config
                0x1002f1a8                ipu_dc_display_config
                0x1002f33c                ipu_dc_map
                0x1002f6d0                ipu_dc_microcode_config
                0x1003047c                ipu_dc_microcode_event
 .text          0x100307d8      0xfd8 /home/leon/git/swp-report/iMX6_Platform_SDK/output/mx6sdl/lib/libsdk.a(ipu_di.o)
                0x100307d8                ipu_di_config
                0x10030e08                ipu_di_waveform_config
                0x10030ed0                ipu_di_screen_set
                0x10030f64                ipu_di_pointer_config
                0x100310b4                ipu_di_bsclk_gen
                0x100311ec                ipu_di_sync_config
                0x100314f4                ipu_di_interface_set
 .text          0x100317b0      0x3e0 /home/leon/git/swp-report/iMX6_Platform_SDK/output/mx6sdl/lib/libsdk.a(ipu_dmfc.o)
                0x100317b0                ipu_dmfc_config
                0x10031a44                ipu_dmfc_alloc
 .text          0x10031b90      0x59c /home/leon/git/swp-report/iMX6_Platform_SDK/output/mx6sdl/lib/libsdk.a(ipu_dp.o)
                0x10031b90                ipu_dp_config
                0x10031be4                ipu_dp_csc_config
                0x10031f88                ipu_dp_fg_config
 .text          0x1003212c     0x2828 /home/leon/git/swp-report/iMX6_Platform_SDK/output/mx6sdl/lib/libsdk.a(ipu_idmac.o)
                0x1003212c                ipu_cpmem_set_field
                0x10032258                ipu_cpmem_mod_field
                0x100323e4                ipu_cpmem_read_field
                0x10032540                ipu_channel_buf_ready
                0x100326b8                ipu_channel_buf_not_ready
                0x10032830                ipu_idmac_channel_mode_sel
                0x100328b8                ipu_idmac_channel_enable
                0x10032940                ipu_idmac_channel_busy
                0x100329ec                ipu_general_idmac_config
                0x10032ed0                ipu_disp_bg_idmac_config
                0x10032fb8                ipu_disp_fg_idmac_config
                0x100330a0                ipu_dma_update_buffer
                0x10033194                ipu_idmac_chan_cur_buff
                0x10033228                ipu_rotate_idmac_config
                0x1003335c                ipu_resize_idmac_config
                0x10033498                ipu_deinterlace_idmac_config
                0x100335ec                ipu_idma_pixel_format_config
 .text          0x10034954      0x598 /home/leon/git/swp-report/iMX6_Platform_SDK/output/mx6sdl/lib/libsdk.a(ipu_vdi.o)
                0x10034954                ipu_deinterlace_3_fields
                0x100349a4                ipu_vdi_set_top_field_man
                0x10034a18                ipu_vdi_set_motion
                0x10034b20                ipu_vdi_init
                0x10034c64                ipu_vdi_uninit
                0x10034cac                ips_deinterlace_proc
 .text          0x10034eec      0x4ac /home/leon/git/swp-report/iMX6_Platform_SDK/output/mx6sdl/lib/libsdk.a(ldb.o)
                0x100350bc                ldb_config
                0x100352f4                ldb_set_vs_polarity
 .text          0x10035398      0x3f4 /home/leon/git/swp-report/iMX6_Platform_SDK/output/mx6sdl/lib/libsdk.a(ocotp.o)
                0x10035404                Delay4Reload
                0x10035648                ocotp_sense_fuse
                0x100356b8                ocotp_fuse_blow_row
                0x10035714                ocotp_reload_otp_shadow_registers
 .text          0x1003578c     0x132c /home/leon/git/swp-report/iMX6_Platform_SDK/output/mx6sdl/lib/libsdk.a(ecspi.o)
                0x10035d7c                ecspi_configure
                0x10036704                ecspi_open
                0x100367bc                ecspi_close
                0x100368c8                ecspi_xfer
 .text          0x10036ab8      0x290 /home/leon/git/swp-report/iMX6_Platform_SDK/output/mx6sdl/lib/libsdk.a(timer.o)
                0x10036ab8                hal_delay_us
                0x10036b28                system_time_init
                0x10036c88                time_get_microseconds
 .text          0x10036d48     0x2820 /home/leon/git/swp-report/iMX6_Platform_SDK/output/mx6sdl/lib/libsdk.a(imx_uart.o)
                0x10036d48                uart_get_reffreq
                0x10036e44                uart_putchar
                0x10036f94                uart_getchar
                0x100370f4                uart_set_FIFO_mode
                0x10037c20                uart_set_loopback_mode
                0x10037e74                uart_setup_interrupt
                0x10037f40                uart_init
 .text          0x10039568      0x3a8 /home/leon/git/swp-report/iMX6_Platform_SDK/output/mx6sdl/lib/libsdk.a(usb_common.o)
                0x10039568                usb_get_port_speed
                0x10039704                swap32
                0x10039780                get_menu_item
 .text          0x10039910     0x37f0 /home/leon/git/swp-report/iMX6_Platform_SDK/output/mx6sdl/lib/libsdk.a(usbh_drv.o)
                0x10039910                usbh_init
                0x1003a8a0                usbh_periodic_schedule_init
                0x1003c0f8                usbh_bus_reset
                0x1003c3fc                usbh_enable_asynchronous_schedule
                0x1003c700                usbh_disable_asynchronous_schedule
                0x1003ca04                usbh_disable_Periodic_list
                0x1003cd08                usbh_qtd_init
                0x1003cf30                usbh_qh_init
 .text          0x1003d100     0x11b8 /home/leon/git/swp-report/iMX6_Platform_SDK/output/mx6sdl/lib/libsdk.a(usdhc.o)
                0x1003d318                set_card_access_mode
                0x1003d358                read_usdhc_adma_mode
                0x1003d378                read_usdhc_intr_mode
                0x1003d398                card_init
                0x1003d548                card_emmc_init
                0x1003d5dc                card_cmd_config
                0x1003d6f0                card_get_cid
                0x1003d790                card_enter_trans
                0x1003d86c                card_trans_status
                0x1003d968                card_get_port
                0x1003da50                card_set_blklen
                0x1003db34                card_data_read
                0x1003de20                card_data_write
                0x1003e120                card_xfer_result
                0x1003e214                card_wait_xfer_done
 .text          0x1003e2b8     0x3484 /home/leon/git/swp-report/iMX6_Platform_SDK/output/mx6sdl/lib/libsdk.a(usdhc_host.o)
                0x1003f698                usdhc1_isr
                0x1003f6b0                usdhc2_isr
                0x1003f6c8                usdhc3_isr
                0x1003f6e0                usdhc4_isr
                0x1003f6f8                host_init
                0x1003f728                host_init_active
                0x1003f7d0                host_send_cmd
                0x1003fbf8                host_cfg_clock
                0x10040394                host_set_bus_width
                0x100403cc                host_reset
                0x100404fc                host_read_response
                0x100406ec                host_cfg_block
                0x10040968                host_clear_fifo
                0x10040b14                host_setup_adma
                0x10040d34                host_data_read
                0x1004123c                host_data_write
 .text          0x1004173c      0xe04 /home/leon/git/swp-report/iMX6_Platform_SDK/output/mx6sdl/lib/libsdk.a(usdhc_mmc.o)
                0x10041cdc                mmc_init
                0x10041d80                emmc_init
                0x10041eac                emmc_print_cfg_info
                0x100420e4                mmc_set_boot_bus_width
                0x100421ac                mmc_set_boot_partition
                0x100422ac                mmc_set_boot_ack
                0x10042330                mmc_voltage_validation
 .text          0x10042540      0x800 /home/leon/git/swp-report/iMX6_Platform_SDK/output/mx6sdl/lib/libsdk.a(usdhc_sd.o)
                0x100428d4                sd_init
                0x1004298c                sd_voltage_validation
 .text          0x10042d40      0x614 /home/leon/git/swp-report/iMX6_Platform_SDK/output/mx6sdl/lib/libsdk.a(adv7180.o)
                0x100430e0                adv7180_init
                0x10043194                adv7180_get_std
                0x10043224                adv7180_is_interlaced_mode
 .text          0x10043354       0x98 /home/leon/git/swp-report/iMX6_Platform_SDK/output/mx6sdl/lib/libsdk.a(arm_abort.o)
                0x10043354                common_abort_handler
                0x100433b4                data_abort_handler
                0x100433cc                prefetch_abort_handler
 .text          0x100433ec      0x644 /home/leon/git/swp-report/iMX6_Platform_SDK/output/mx6sdl/lib/libsdk.a(armv7_cache.o)
                0x100433ec                arm_dcache_state_query
                0x1004342c                arm_dcache_enable
                0x10043474                arm_dcache_disable
                0x100434ac                arm_dcache_invalidate
                0x10043550                arm_dcache_invalidate_line
                0x100435bc                arm_dcache_invalidate_mlines
                0x1004365c                arm_dcache_flush
                0x10043700                arm_dcache_flush_line
                0x1004376c                arm_dcache_flush_mlines
                0x1004380c                arm_icache_state_query
                0x1004384c                arm_icache_enable
                0x10043894                arm_icache_disable
                0x100438cc                arm_icache_invalidate
                0x100438f8                arm_icache_invalidate_is
                0x10043924                arm_icache_invalidate_line
                0x10043990                arm_icache_invalidate_mlines
 .text          0x10043a30        0x0 /home/leon/git/swp-report/iMX6_Platform_SDK/output/mx6sdl/lib/libsdk.a(camera_profile.o)
 .text          0x10043a30     0x1e94 /home/leon/git/swp-report/iMX6_Platform_SDK/output/mx6sdl/lib/libsdk.a(hdmi_common.o)
                0x10043a30                isColorSpaceConversion
                0x10043a6c                isColorSpaceDecimation
                0x10043aa8                isColorSpaceInterpolation
                0x10043afc                isPixelRepetition
                0x10043b34                hdmi_set_video_mode
 .text          0x100458c4     0x167c /home/leon/git/swp-report/iMX6_Platform_SDK/output/mx6sdl/lib/libsdk.a(ipu_ic.o)
                0x100458c4                ipu_ic_enable
                0x10045910                ipu_ic_rotation_config
                0x10045b1c                ipu_ic_resize_config
                0x10046070                ipu_ic_deinterlace_config
                0x1004624c                ipu_ic_calc_resize_coeffs
                0x10046364                ipu_ic_config_resize_rate
                0x1004648c                ipu_ic_combine_config
                0x10046648                ipu_ic_csc_config
                0x10046d40                ipu_ic_task_enable
 .text          0x10046f40      0x8e0 /home/leon/git/swp-report/iMX6_Platform_SDK/output/mx6sdl/lib/libsdk.a(epit.o)
                0x10046f40                epit_reload_counter
                0x10046fa0                epit_get_counter_value
                0x10046ffc                epit_set_compare_event
                0x1004705c                epit_get_compare_event
                0x10047154                epit_counter_disable
                0x10047318                epit_counter_enable
                0x10047574                epit_setup_interrupt
                0x10047604                epit_init
 .text          0x10047820      0x2fc /home/leon/git/swp-report/iMX6_Platform_SDK/output/mx6sdl/lib/libsdk.a(mx6x_usb.o)
                0x10047820                usbEnableClocks
                0x10047948                usbEnableTransceiver
 .text          0x10047b1c      0x4bc /home/leon/git/swp-report/iMX6_Platform_SDK/output/mx6sdl/lib/libsdk.a(abort_handler.o)
                0x10047b1c                dump_regs
 .text          0x10047fd8      0x100 /home/leon/git/swp-report/iMX6_Platform_SDK/output/mx6sdl/lib/libboard_evb_rev_a.a(board_audio.o)
                0x10047fd8                SGTL5000PowerUp_and_clockinit
                0x10047fe8                spdif_get_tx_clk_freq
                0x10048004                audio_codec_power_on
                0x10048014                audio_clock_config
                0x10048024                spdif_clk_cfg
                0x10048088                esai_codec_power_on
                0x100480a0                esai_clk_sel_gate_on
 .text          0x100480d8       0x9c /home/leon/git/swp-report/iMX6_Platform_SDK/output/mx6sdl/lib/libboard_evb_rev_a.a(board_buttons.o)
                0x100480d8                android_buttons_iomux_config
 .text          0x10048174      0x38c /home/leon/git/swp-report/iMX6_Platform_SDK/output/mx6sdl/lib/libboard_evb_rev_a.a(board_camera.o)
                0x10048174                camera_power_on
                0x10048184                csi_port0_iomux_config
                0x100481b8                camera_ipu1_iomux_config
                0x10048354                sensor_reset
                0x100483ec                sensor_standby
                0x10048468                sensor_clock_setting
 .text          0x10048500      0x444 /home/leon/git/swp-report/iMX6_Platform_SDK/output/mx6sdl/lib/libboard_evb_rev_a.a(board_display.o)
                0x10048500                lvds_power_on
                0x10048560                disable_para_panel
                0x100485b0                tftlcd_backlight_en
                0x1004868c                tftlcd_reset
                0x10048724                ldb_clock_config
                0x10048820                epdc_clock_setting
                0x1004889c                epdc_power_supply
 .text          0x10048944      0x200 /home/leon/git/swp-report/iMX6_Platform_SDK/output/mx6sdl/lib/libboard_evb_rev_a.a(board_hdmi.o)
                0x10048944                hdmi_tx_cec_pgm_iomux
                0x10048988                hdmi_tx_ddc_pgm_iomux
                0x10048a00                hdmi_tx_phydtb_pgm_iomux
                0x10048a50                hdmi_pgm_iomux
                0x10048a70                ext_hdmi_transmitter_power_on
                0x10048a80                hdmi_clock_set
 .text          0x10048b44        0x0 /home/leon/git/swp-report/iMX6_Platform_SDK/output/mx6sdl/lib/libboard_evb_rev_a.a(board_i2c.o)
 .text          0x10048b44       0x80 /home/leon/git/swp-report/iMX6_Platform_SDK/output/mx6sdl/lib/libboard_evb_rev_a.a(board_io_expanders.o)
                0x10048b44                board_ioexpander_init
                0x10048bb4                board_ioexpander_iomux_config
 .text          0x10048bc4      0x1dc /home/leon/git/swp-report/iMX6_Platform_SDK/output/mx6sdl/lib/libboard_evb_rev_a.a(board_mipi.o)
                0x10048bc4                mipi_cam_power_on
                0x10048c28                mipi_backlight_en
                0x10048c58                mipi_display_reset
                0x10048cc8                mipi_clock_set
                0x10048cf8                mipi_csi2_clock_set
 .text          0x10048da0       0x5c /home/leon/git/swp-report/iMX6_Platform_SDK/output/mx6sdl/lib/libboard_evb_rev_a.a(board_network.o)
                0x10048da0                imx_ar8031_iomux
                0x10048db4                imx_KSZ9021RN_reset
                0x10048dc4                imx_ar8031_reset
                0x10048dd4                imx_enet_iomux
                0x10048de8                imx_enet_phy_reset
 .text          0x10048dfc      0x128 /home/leon/git/swp-report/iMX6_Platform_SDK/output/mx6sdl/lib/libboard_evb_rev_a.a(board_usb.o)
                0x10048dfc                usbEnableVbus
                0x10048ea8                usbDisableVbus
                0x10048f14                reset_usb_hub
 .text          0x10048f24      0x1a4 /home/leon/git/swp-report/iMX6_Platform_SDK/output/mx6sdl/lib/libboard_evb_rev_a.a(board_usdhc.o)
                0x10048f24                usdhc_gpio_config
                0x10048f68                usdhc_card_detected
                0x10049018                usdhc_write_protected
 .text          0x100490c8        0x0 /home/leon/git/swp-report/iMX6_Platform_SDK/output/mx6sdl/lib/libboard_evb_rev_a.a(hardware_modules.o)
 .text          0x100490c8        0x0 /home/leon/git/swp-report/iMX6_Platform_SDK/output/mx6sdl/lib/libboard_evb_rev_a.a(dcd.o)
 .text          0x100490c8       0x84 /home/leon/git/swp-report/iMX6_Platform_SDK/output/mx6sdl/lib/libboard_evb_rev_a.a(ecspi_iomux_config.o)
                0x100490c8                ecspi_iomux_config
 .text          0x1004914c      0x3bc /home/leon/git/swp-report/iMX6_Platform_SDK/output/mx6sdl/lib/libboard_evb_rev_a.a(enet_iomux_config.o)
                0x1004914c                enet_iomux_config
 .text          0x10049508      0x280 /home/leon/git/swp-report/iMX6_Platform_SDK/output/mx6sdl/lib/libboard_evb_rev_a.a(esai_iomux_config.o)
                0x10049508                esai_iomux_config
 .text          0x10049788       0x84 /home/leon/git/swp-report/iMX6_Platform_SDK/output/mx6sdl/lib/libboard_evb_rev_a.a(i2c_iomux_config.o)
                0x10049788                i2c_iomux_config
 .text          0x1004980c      0x2c4 /home/leon/git/swp-report/iMX6_Platform_SDK/output/mx6sdl/lib/libboard_evb_rev_a.a(iomux_config.o)
                0x1004980c                iomux_config
                0x10049890                arm_iomux_config
                0x100498a0                asrc_iomux_config
                0x100498b0                audmux_iomux_config
                0x100498c0                dcic1_iomux_config
                0x100498d0                dcic2_iomux_config
                0x100498e0                ecspi2_iomux_config
                0x100498f0                ecspi3_iomux_config
                0x10049900                ecspi4_iomux_config
                0x10049910                eim_iomux_config
                0x10049920                epdc_iomux_config
                0x10049930                epit1_iomux_config
                0x10049940                epit2_iomux_config
                0x10049950                gpio1_iomux_config
                0x10049960                gpio2_iomux_config
                0x10049970                gpio7_iomux_config
                0x10049980                gpt_iomux_config
                0x10049990                i2c4_iomux_config
                0x100499a0                lcd_iomux_config
                0x100499b0                ldb_iomux_config
                0x100499c0                mipi_csi_iomux_config
                0x100499d0                mipi_dsi_iomux_config
                0x100499e0                mipi_hsi_iomux_config
                0x100499f0                pcie_iomux_config
                0x10049a00                pmu_iomux_config
                0x10049a10                pwm2_iomux_config
                0x10049a20                pwm3_iomux_config
                0x10049a30                pwm4_iomux_config
                0x10049a40                sdma_iomux_config
                0x10049a50                snvs_iomux_config
                0x10049a60                src_iomux_config
                0x10049a70                uart1_iomux_config
                0x10049a80                uart3_iomux_config
                0x10049a90                uart5_iomux_config
                0x10049aa0                wdog1_iomux_config
                0x10049ab0                wdog2_iomux_config
                0x10049ac0                xtalosc_iomux_config
 .text          0x10049ad0      0x5f8 /home/leon/git/swp-report/iMX6_Platform_SDK/output/mx6sdl/lib/libboard_evb_rev_a.a(ipu1_iomux_config.o)
                0x10049ad0                ipu1_iomux_config
 .text          0x1004a0c8       0x54 /home/leon/git/swp-report/iMX6_Platform_SDK/output/mx6sdl/lib/libboard_evb_rev_a.a(ipu_iomux_config.o)
                0x1004a0c8                ipu_iomux_config
 .text          0x1004a11c      0x148 /home/leon/git/swp-report/iMX6_Platform_SDK/output/mx6sdl/lib/libboard_evb_rev_a.a(kpp_iomux_config.o)
                0x1004a11c                kpp_iomux_config
 .text          0x1004a264       0xac /home/leon/git/swp-report/iMX6_Platform_SDK/output/mx6sdl/lib/libboard_evb_rev_a.a(mlb_iomux_config.o)
                0x1004a264                mlb_iomux_config
 .text          0x1004a310     0x2484 /home/leon/git/swp-report/iMX6_Platform_SDK/output/mx6sdl/lib/libboard_evb_rev_a.a(mmdc_iomux_config.o)
                0x1004a310                mmdc_iomux_config
 .text          0x1004c794       0x34 /home/leon/git/swp-report/iMX6_Platform_SDK/output/mx6sdl/lib/libboard_evb_rev_a.a(pwm1_iomux_config.o)
                0x1004c794                pwm1_iomux_config
 .text          0x1004c7c8       0x70 /home/leon/git/swp-report/iMX6_Platform_SDK/output/mx6sdl/lib/libboard_evb_rev_a.a(sjc_iomux_config.o)
                0x1004c7c8                sjc_iomux_config
 .text          0x1004c838       0xe0 /home/leon/git/swp-report/iMX6_Platform_SDK/output/mx6sdl/lib/libboard_evb_rev_a.a(spdif_iomux_config.o)
                0x1004c838                spdif_iomux_config
 .text          0x1004c918       0xe0 /home/leon/git/swp-report/iMX6_Platform_SDK/output/mx6sdl/lib/libboard_evb_rev_a.a(uart2_iomux_config.o)
                0x1004c918                uart2_iomux_config
 .text          0x1004c9f8       0x78 /home/leon/git/swp-report/iMX6_Platform_SDK/output/mx6sdl/lib/libboard_evb_rev_a.a(uart4_iomux_config.o)
                0x1004c9f8                uart4_iomux_config
 .text          0x1004ca70       0x90 /home/leon/git/swp-report/iMX6_Platform_SDK/output/mx6sdl/lib/libboard_evb_rev_a.a(uart_iomux_config.o)
                0x1004ca70                uart_iomux_config
 .text          0x1004cb00       0x9c /home/leon/git/swp-report/iMX6_Platform_SDK/output/mx6sdl/lib/libboard_evb_rev_a.a(usb_iomux_config.o)
                0x1004cb00                usb_iomux_config
 .text          0x1004cb9c      0x188 /home/leon/git/swp-report/iMX6_Platform_SDK/output/mx6sdl/lib/libboard_evb_rev_a.a(usdhc1_iomux_config.o)
                0x1004cb9c                usdhc1_iomux_config
 .text          0x1004cd24      0x1ac /home/leon/git/swp-report/iMX6_Platform_SDK/output/mx6sdl/lib/libboard_evb_rev_a.a(usdhc2_iomux_config.o)
                0x1004cd24                usdhc2_iomux_config
 .text          0x1004ced0      0x1d0 /home/leon/git/swp-report/iMX6_Platform_SDK/output/mx6sdl/lib/libboard_evb_rev_a.a(usdhc3_iomux_config.o)
                0x1004ced0                usdhc3_iomux_config
 .text          0x1004d0a0      0x188 /home/leon/git/swp-report/iMX6_Platform_SDK/output/mx6sdl/lib/libboard_evb_rev_a.a(usdhc4_iomux_config.o)
                0x1004d0a0                usdhc4_iomux_config
 .text          0x1004d228       0x84 /home/leon/git/swp-report/iMX6_Platform_SDK/output/mx6sdl/lib/libboard_evb_rev_a.a(usdhc_iomux_config.o)
                0x1004d228                usdhc_iomux_config
 .text          0x1004d2ac       0x34 /home/leon/git/swp-report/iMX6_Platform_SDK/output/mx6sdl/lib/libboard_evb_rev_a.a(ccm_iomux_config.o)
                0x1004d2ac                ccm_iomux_config
 .text          0x1004d2e0      0x114 /home/leon/git/swp-report/iMX6_Platform_SDK/output/mx6sdl/lib/libboard_evb_rev_a.a(ecspi1_iomux_config.o)
                0x1004d2e0                ecspi1_iomux_config
 .text          0x1004d3f4       0x68 /home/leon/git/swp-report/iMX6_Platform_SDK/output/mx6sdl/lib/libboard_evb_rev_a.a(flexcan1_iomux_config.o)
                0x1004d3f4                flexcan1_iomux_config
 .text          0x1004d45c       0x68 /home/leon/git/swp-report/iMX6_Platform_SDK/output/mx6sdl/lib/libboard_evb_rev_a.a(flexcan2_iomux_config.o)
                0x1004d45c                flexcan2_iomux_config
 .text          0x1004d4c4       0x58 /home/leon/git/swp-report/iMX6_Platform_SDK/output/mx6sdl/lib/libboard_evb_rev_a.a(gpio3_iomux_config.o)
                0x1004d4c4                gpio3_iomux_config
 .text          0x1004d51c       0x58 /home/leon/git/swp-report/iMX6_Platform_SDK/output/mx6sdl/lib/libboard_evb_rev_a.a(gpio4_iomux_config.o)
                0x1004d51c                gpio4_iomux_config
 .text          0x1004d574       0xa0 /home/leon/git/swp-report/iMX6_Platform_SDK/output/mx6sdl/lib/libboard_evb_rev_a.a(gpio5_iomux_config.o)
                0x1004d574                gpio5_iomux_config
 .text          0x1004d614       0x58 /home/leon/git/swp-report/iMX6_Platform_SDK/output/mx6sdl/lib/libboard_evb_rev_a.a(gpio6_iomux_config.o)
                0x1004d614                gpio6_iomux_config
 .text          0x1004d66c      0x2bc /home/leon/git/swp-report/iMX6_Platform_SDK/output/mx6sdl/lib/libboard_evb_rev_a.a(gpmi_iomux_config.o)
                0x1004d66c                gpmi_iomux_config
 .text          0x1004d928       0x40 /home/leon/git/swp-report/iMX6_Platform_SDK/output/mx6sdl/lib/libboard_evb_rev_a.a(hdmi_iomux_config.o)
                0x1004d928                hdmi_iomux_config
 .text          0x1004d968       0x78 /home/leon/git/swp-report/iMX6_Platform_SDK/output/mx6sdl/lib/libboard_evb_rev_a.a(i2c1_iomux_config.o)
                0x1004d968                i2c1_iomux_config
 .text          0x1004d9e0       0x78 /home/leon/git/swp-report/iMX6_Platform_SDK/output/mx6sdl/lib/libboard_evb_rev_a.a(i2c2_iomux_config.o)
                0x1004d9e0                i2c2_iomux_config
 .text          0x1004da58       0x78 /home/leon/git/swp-report/iMX6_Platform_SDK/output/mx6sdl/lib/libboard_evb_rev_a.a(i2c3_iomux_config.o)
                0x1004da58                i2c3_iomux_config
 .text          0x1004dad0       0x68 /home/leon/riotboard/arm-2012.09/bin/../arm-none-eabi/lib//libc.a(lib_a-assert.o)
                0x1004dad0                __assert_func
                0x1004db28                __assert
 .text          0x1004db38       0x20 /home/leon/riotboard/arm-2012.09/bin/../arm-none-eabi/lib//libc.a(lib_a-bzero.o)
                0x1004db38                bzero
 .text          0x1004db58       0x70 /home/leon/riotboard/arm-2012.09/bin/../arm-none-eabi/lib//libc.a(lib_a-fiprintf.o)
                0x1004db58                _fiprintf_r
                0x1004db88                fiprintf
 .text          0x1004dbc8       0x94 /home/leon/riotboard/arm-2012.09/bin/../arm-none-eabi/lib//libc.a(lib_a-fputc.o)
                0x1004dbc8                _fputc_r
                0x1004dc0c                fputc
 .text          0x1004dc5c        0x0 /home/leon/riotboard/arm-2012.09/bin/../arm-none-eabi/lib//libc.a(lib_a-impure.o)
 .text          0x1004dc5c       0x88 /home/leon/riotboard/arm-2012.09/bin/../arm-none-eabi/lib//libc.a(lib_a-init.o)
                0x1004dc5c                __libc_init_array
 .text          0x1004dce4       0x40 /home/leon/riotboard/arm-2012.09/bin/../arm-none-eabi/lib//libc.a(lib_a-malloc.o)
                0x1004dce4                malloc
                0x1004dd04                free
 .text          0x1004dd24      0x71c /home/leon/riotboard/arm-2012.09/bin/../arm-none-eabi/lib//libc.a(lib_a-mallocr.o)
                0x1004dd24                _malloc_r
 .text          0x1004e440      0x20c /home/leon/riotboard/arm-2012.09/bin/../arm-none-eabi/lib//libc.a(lib_a-memcpy.o)
                0x1004e440                memcpy
 .text          0x1004e64c      0x134 /home/leon/riotboard/arm-2012.09/bin/../arm-none-eabi/lib//libc.a(lib_a-memset.o)
                0x1004e64c                memset
 .text          0x1004e780        0x8 /home/leon/riotboard/arm-2012.09/bin/../arm-none-eabi/lib//libc.a(lib_a-mlock.o)
                0x1004e780                __malloc_lock
                0x1004e784                __malloc_unlock
 .text          0x1004e788       0x74 /home/leon/riotboard/arm-2012.09/bin/../arm-none-eabi/lib//libc.a(lib_a-printf.o)
                0x1004e788                _printf_r
                0x1004e7bc                printf
 .text          0x1004e7fc      0x170 /home/leon/riotboard/arm-2012.09/bin/../arm-none-eabi/lib//libc.a(lib_a-putc.o)
                0x1004e7fc                _putc_r
                0x1004e8ac                putc
 .text          0x1004e96c       0x28 /home/leon/riotboard/arm-2012.09/bin/../arm-none-eabi/lib//libc.a(lib_a-realloc.o)
                0x1004e96c                realloc
 .text          0x1004e994      0x574 /home/leon/riotboard/arm-2012.09/bin/../arm-none-eabi/lib//libc.a(lib_a-reallocr.o)
                0x1004e994                _realloc_r
 .text          0x1004ef08       0x6c /home/leon/riotboard/arm-2012.09/bin/../arm-none-eabi/lib//libc.a(lib_a-rget.o)
                0x1004ef08                __srget_r
                0x1004ef60                __srget
 .text          0x1004ef74       0x40 /home/leon/riotboard/arm-2012.09/bin/../arm-none-eabi/lib//libc.a(lib_a-sbrkr.o)
                0x1004ef74                _sbrk_r
 .text          0x1004efb4       0xdc /home/leon/riotboard/arm-2012.09/bin/../arm-none-eabi/lib//libc.a(lib_a-sprintf.o)
                0x1004efb4                _sprintf_r
                0x1004f01c                sprintf
 .text          0x1004f090       0xa0 /home/leon/riotboard/arm-2012.09/bin/../arm-none-eabi/lib//libc.a(lib_a-strcat.o)
                0x1004f090                strcat
 .text          0x1004f130      0x230 /home/leon/riotboard/arm-2012.09/bin/../arm-none-eabi/lib//libc.a(lib_a-strcmp.o)
                0x1004f130                strcmp
 .text          0x1004f360       0xf0 /home/leon/riotboard/arm-2012.09/bin/../arm-none-eabi/lib//libc.a(lib_a-strcpy.o)
                0x1004f360                strcpy
 .text          0x1004f450       0x60 /home/leon/riotboard/arm-2012.09/bin/../arm-none-eabi/lib//libc.a(lib_a-strlen.o)
                0x1004f450                strlen
 .text          0x1004f4b0       0x78 /home/leon/riotboard/arm-2012.09/bin/../arm-none-eabi/lib//libc.a(lib_a-strncasecmp.o)
                0x1004f4b0                strncasecmp
 .text          0x1004f528       0x24 /home/leon/riotboard/arm-2012.09/bin/../arm-none-eabi/lib//libc.a(lib_a-strtok.o)
                0x1004f528                strtok
 .text          0x1004f54c       0xb8 /home/leon/riotboard/arm-2012.09/bin/../arm-none-eabi/lib//libc.a(lib_a-strtok_r.o)
                0x1004f54c                __strtok_r
                0x1004f5fc                strtok_r
 .text          0x1004f604     0x1f7c /home/leon/riotboard/arm-2012.09/bin/../arm-none-eabi/lib//libc.a(lib_a-svfprintf.o)
                0x1004f604                _svfprintf_r
 .text          0x10051580     0x12c4 /home/leon/riotboard/arm-2012.09/bin/../arm-none-eabi/lib//libc.a(lib_a-vfiprintf.o)
                0x10051580                __sprint_r
                0x1005163c                _vfiprintf_r
                0x10052818                vfiprintf
 .text          0x10052844     0x2180 /home/leon/riotboard/arm-2012.09/bin/../arm-none-eabi/lib//libc.a(lib_a-vfprintf.o)
                0x10052844                _vfprintf_r
                0x10054998                vfprintf
 .text          0x100549c4       0x4c /home/leon/riotboard/arm-2012.09/bin/../arm-none-eabi/lib//libc.a(lib_a-vprintf.o)
                0x100549c4                vprintf
                0x100549f0                _vprintf_r
 .text          0x10054a10      0x14c /home/leon/riotboard/arm-2012.09/bin/../arm-none-eabi/lib//libc.a(lib_a-wbuf.o)
                0x10054a10                __swbuf_r
                0x10054b40                __swbuf
 .text          0x10054b5c      0x138 /home/leon/riotboard/arm-2012.09/bin/../arm-none-eabi/lib//libc.a(lib_a-wsetup.o)
                0x10054b5c                __swsetup_r
 .text          0x10054c94       0x14 /home/leon/riotboard/arm-2012.09/bin/../arm-none-eabi/lib//libc.a(lib_a-abort.o)
                0x10054c94                abort
 .text          0x10054ca8        0x0 /home/leon/riotboard/arm-2012.09/bin/../arm-none-eabi/lib//libc.a(lib_a-ctype_.o)
 .text          0x10054ca8     0x18a8 /home/leon/riotboard/arm-2012.09/bin/../arm-none-eabi/lib//libc.a(lib_a-dtoa.o)
                0x10054e88                _dtoa_r
 .text          0x10056550      0x26c /home/leon/riotboard/arm-2012.09/bin/../arm-none-eabi/lib//libc.a(lib_a-fflush.o)
                0x10056550                _fflush_r
                0x1005677c                fflush
 .text          0x100567bc      0x2c4 /home/leon/riotboard/arm-2012.09/bin/../arm-none-eabi/lib//libc.a(lib_a-findfp.o)
                0x100567cc                _cleanup_r
                0x10056860                __sfmoreglue
                0x100568a8                _cleanup
                0x100568b8                __sinit
                0x10056930                __sfp
                0x10056a28                __sfp_lock_acquire
                0x10056a2c                __sfp_lock_release
                0x10056a30                __sinit_lock_acquire
                0x10056a34                __sinit_lock_release
                0x10056a38                __fp_lock_all
                0x10056a5c                __fp_unlock_all
 .text          0x10056a80      0x19c /home/leon/riotboard/arm-2012.09/bin/../arm-none-eabi/lib//libc.a(lib_a-fputwc.o)
                0x10056a80                _fputwc_r
                0x10056bd0                fputwc
 .text          0x10056c1c      0x368 /home/leon/riotboard/arm-2012.09/bin/../arm-none-eabi/lib//libc.a(lib_a-freer.o)
                0x10056c1c                _malloc_trim_r
                0x10056d18                _free_r
 .text          0x10056f84      0x4c4 /home/leon/riotboard/arm-2012.09/bin/../arm-none-eabi/lib//libc.a(lib_a-fvwrite.o)
                0x10056f84                __sfvwrite_r
 .text          0x10057448      0x114 /home/leon/riotboard/arm-2012.09/bin/../arm-none-eabi/lib//libc.a(lib_a-fwalk.o)
                0x10057448                _fwalk
                0x100574d0                _fwalk_reent
 .text          0x1005755c       0xd0 /home/leon/riotboard/arm-2012.09/bin/../arm-none-eabi/lib//libc.a(lib_a-locale.o)
                0x1005755c                _setlocale_r
                0x100575c8                __locale_charset
                0x100575d4                __locale_mb_cur_max
                0x100575e4                __locale_msgcharset
                0x100575f0                __locale_cjk_lang
                0x100575f8                _localeconv_r
                0x10057604                setlocale
                0x10057620                localeconv
 .text          0x1005762c      0x15c /home/leon/riotboard/arm-2012.09/bin/../arm-none-eabi/lib//libc.a(lib_a-makebuf.o)
                0x1005762c                __smakebuf_r
 .text          0x10057788      0x11c /home/leon/riotboard/arm-2012.09/bin/../arm-none-eabi/lib//libc.a(lib_a-memchr.o)
                0x10057788                memchr
 .text          0x100578a4      0x134 /home/leon/riotboard/arm-2012.09/bin/../arm-none-eabi/lib//libc.a(lib_a-memmove.o)
                0x100578a4                memmove
 .text          0x100579d8      0xd20 /home/leon/riotboard/arm-2012.09/bin/../arm-none-eabi/lib//libc.a(lib_a-mprec.o)
                0x100579d8                _Balloc
                0x10057a64                _Bfree
                0x10057a80                __multadd
                0x10057b5c                __s2b
                0x10057c4c                __hi0bits
                0x10057c9c                __lo0bits
                0x10057d30                __i2b
                0x10057d54                __multiply
                0x10057f38                __pow5mult
                0x1005802c                __lshift
                0x10058130                __mcmp
                0x10058194                __mdiff
                0x100582e0                __ulp
                0x10058344                __b2d
                0x10058410                __d2b
                0x10058518                __ratio
                0x100585a8                _mprec_log10
                0x100585fc                __copybits
                0x10058670                __any_on
 .text          0x100586f8      0x19c /home/leon/riotboard/arm-2012.09/bin/../arm-none-eabi/lib//libc.a(lib_a-reent.o)
                0x100586f8                cleanup_glue
                0x10058724                _reclaim_reent
                0x10058820                _wrapup_reent
 .text          0x10058894      0x1cc /home/leon/riotboard/arm-2012.09/bin/../arm-none-eabi/lib//libc.a(lib_a-refill.o)
                0x100588bc                __srefill_r
 .text          0x10058a60       0x6c /home/leon/riotboard/arm-2012.09/bin/../arm-none-eabi/lib//libc.a(lib_a-s_fpclassify.o)
                0x10058a60                __fpclassifyd
 .text          0x10058acc      0x24c /home/leon/riotboard/arm-2012.09/bin/../arm-none-eabi/lib//libc.a(lib_a-signal.o)
                0x10058acc                _init_signal_r
                0x10058b2c                _signal_r
                0x10058b98                _raise_r
                0x10058c30                __sigtramp_r
                0x10058cc4                raise
                0x10058cd8                signal
                0x10058cf4                _init_signal
                0x10058d04                __sigtramp
 .text          0x10058d18       0x50 /home/leon/riotboard/arm-2012.09/bin/../arm-none-eabi/lib//libc.a(lib_a-signalr.o)
                0x10058d18                _kill_r
                0x10058d58                _getpid_r
 .text          0x10058d68       0xdc /home/leon/riotboard/arm-2012.09/bin/../arm-none-eabi/lib//libc.a(lib_a-stdio.o)
                0x10058d68                __sread
                0x10058d9c                __seofread
                0x10058da4                __swrite
                0x10058dfc                __sseek
                0x10058e30                __sclose
 .text          0x10058e44     0x1224 /home/leon/riotboard/arm-2012.09/bin/../arm-none-eabi/lib//libc.a(lib_a-svfiprintf.o)
                0x10058e44                __ssprint_r
                0x10058fe8                _svfiprintf_r
 .text          0x1005a068      0x134 /home/leon/riotboard/arm-2012.09/bin/../arm-none-eabi/lib//libc.a(lib_a-wcrtomb.o)
                0x1005a068                _wcrtomb_r
                0x1005a0f8                wcrtomb
 .text          0x1005a19c       0x7c /home/leon/riotboard/arm-2012.09/bin/../arm-none-eabi/lib//libc.a(lib_a-wctomb_r.o)
                0x1005a19c                __ascii_wctomb
                0x1005a1c8                _wctomb_r
 .text          0x1005a218       0x44 /home/leon/riotboard/arm-2012.09/bin/../arm-none-eabi/lib//libc.a(lib_a-writer.o)
                0x1005a218                _write_r
 .text          0x1005a25c       0x94 /home/leon/riotboard/arm-2012.09/bin/../arm-none-eabi/lib//libc.a(lib_a-callocr.o)
                0x1005a25c                _calloc_r
 .text          0x1005a2f0       0x3c /home/leon/riotboard/arm-2012.09/bin/../arm-none-eabi/lib//libc.a(lib_a-closer.o)
                0x1005a2f0                _close_r
 .text          0x1005a32c      0x10c /home/leon/riotboard/arm-2012.09/bin/../arm-none-eabi/lib//libc.a(lib_a-fclose.o)
                0x1005a32c                _fclose_r
                0x1005a424                fclose
 .text          0x1005a438       0x40 /home/leon/riotboard/arm-2012.09/bin/../arm-none-eabi/lib//libc.a(lib_a-fstatr.o)
                0x1005a438                _fstat_r
 .text          0x1005a478       0x3c /home/leon/riotboard/arm-2012.09/bin/../arm-none-eabi/lib//libc.a(lib_a-isattyr.o)
                0x1005a478                _isatty_r
 .text          0x1005a4b4       0x44 /home/leon/riotboard/arm-2012.09/bin/../arm-none-eabi/lib//libc.a(lib_a-lseekr.o)
                0x1005a4b4                _lseek_r
 .text          0x1005a4f8       0x44 /home/leon/riotboard/arm-2012.09/bin/../arm-none-eabi/lib//libc.a(lib_a-readr.o)
                0x1005a4f8                _read_r
 .text          0x1005a53c      0x114 /home/leon/riotboard/arm-2012.09/bin/../lib/gcc/arm-none-eabi/4.7.2//libgcc.a(_udivsi3.o)
                0x1005a53c                __udivsi3
                0x1005a53c                __aeabi_uidiv
                0x1005a630                __aeabi_uidivmod
 .text          0x1005a650      0x148 /home/leon/riotboard/arm-2012.09/bin/../lib/gcc/arm-none-eabi/4.7.2//libgcc.a(_divsi3.o)
                0x1005a650                __aeabi_idiv
                0x1005a650                __divsi3
                0x1005a778                __aeabi_idivmod
 .text          0x1005a798        0x4 /home/leon/riotboard/arm-2012.09/bin/../lib/gcc/arm-none-eabi/4.7.2//libgcc.a(_dvmd_tls.o)
                0x1005a798                __aeabi_ldiv0
                0x1005a798                __aeabi_idiv0
 .text          0x1005a79c      0x41c /home/leon/riotboard/arm-2012.09/bin/../lib/gcc/arm-none-eabi/4.7.2//libgcc.a(_arm_addsubdf3.o)
                0x1005a79c                __aeabi_drsub
                0x1005a7a4                __aeabi_dsub
                0x1005a7a4                __subdf3
                0x1005a7a8                __adddf3
                0x1005a7a8                __aeabi_dadd
                0x1005aab8                __aeabi_ui2d
                0x1005aab8                __floatunsidf
                0x1005aadc                __floatsidf
                0x1005aadc                __aeabi_i2d
                0x1005ab04                __extendsfdf2
                0x1005ab04                __aeabi_f2d
                0x1005ab44                __aeabi_ul2d
                0x1005ab44                __floatundidf
                0x1005ab58                __floatdidf
                0x1005ab58                __aeabi_l2d
 .text          0x1005abb8      0x49c /home/leon/riotboard/arm-2012.09/bin/../lib/gcc/arm-none-eabi/4.7.2//libgcc.a(_arm_muldivdf3.o)
                0x1005abb8                __aeabi_dmul
                0x1005abb8                __muldf3
                0x1005ae48                __aeabi_ddiv
                0x1005ae48                __divdf3
 .text          0x1005b054      0x144 /home/leon/riotboard/arm-2012.09/bin/../lib/gcc/arm-none-eabi/4.7.2//libgcc.a(_arm_cmpdf2.o)
                0x1005b054                __gtdf2
                0x1005b054                __gedf2
                0x1005b05c                __ltdf2
                0x1005b05c                __ledf2
                0x1005b064                __cmpdf2
                0x1005b064                __eqdf2
                0x1005b064                __nedf2
                0x1005b0ec                __aeabi_cdrcmple
                0x1005b108                __aeabi_cdcmple
                0x1005b108                __aeabi_cdcmpeq
                0x1005b120                __aeabi_dcmpeq
                0x1005b138                __aeabi_dcmplt
                0x1005b150                __aeabi_dcmple
                0x1005b168                __aeabi_dcmpge
                0x1005b180                __aeabi_dcmpgt
 .text          0x1005b198       0x5c /home/leon/riotboard/arm-2012.09/bin/../lib/gcc/arm-none-eabi/4.7.2//libgcc.a(_arm_fixdfsi.o)
                0x1005b198                __fixdfsi
                0x1005b198                __aeabi_d2iz
 .text          0x1005b1f4       0x3c /home/leon/riotboard/arm-2012.09/bin/../lib/gcc/arm-none-eabi/4.7.2//libgcc.a(_aeabi_uldivmod.o)
                0x1005b1f4                __aeabi_uldivmod
 .text          0x1005b230       0x84 /home/leon/riotboard/arm-2012.09/bin/../lib/gcc/arm-none-eabi/4.7.2//libgcc.a(bpabi.o)
                0x1005b230                __gnu_ldivmod_helper
                0x1005b274                __gnu_uldivmod_helper
 .text          0x1005b2b4      0x4f0 /home/leon/riotboard/arm-2012.09/bin/../lib/gcc/arm-none-eabi/4.7.2//libgcc.a(_divdi3.o)
                0x1005b2b4                __divdi3
 .text          0x1005b7a4      0x488 /home/leon/riotboard/arm-2012.09/bin/../lib/gcc/arm-none-eabi/4.7.2//libgcc.a(_udivdi3.o)
                0x1005b7a4                __udivdi3
 .text          0x1005bc2c       0x48 /home/leon/riotboard/arm-2012.09/bin/../lib/gcc/arm-none-eabi/4.7.2//libgcc.a(_clzsi2.o)
                0x1005bc2c                __clzsi2
 .text          0x1005bc74      0x610 /home/leon/git/swp-report/iMX6_Platform_SDK/output/mx6sdl/lib/libsdk.a(runtime_support.o)
                0x1005bc74                _execve
                0x1005bcb0                _fork
                0x1005bcd8                _isatty
                0x1005bcfc                _open
                0x1005bd28                _close
                0x1005bd4c                _lseek
                0x1005bd78                _fstat
                0x1005bdac                _read
                0x1005be7c                _write
                0x1005bf68                _raw_puts
                0x1005bfe8                _sbrk
                0x1005c098                _exit
                0x1005c0b8                _kill
                0x1005c0f0                _getpid
                0x1005c108                _link
                0x1005c140                _unlink
                0x1005c174                _stat
                0x1005c1a8                _times
                0x1005c1cc                _gettimeofday
                0x1005c250                _wait
 *(.glue_7t)
 .glue_7t       0x00000000        0x0 linker stubs
 *(.glue_7)
 .glue_7        0x00000000        0x0 linker stubs
 *(.vfp11_veneer)
 .vfp11_veneer  0x00000000        0x0 linker stubs
 *(.ARM.extab* .gnu.linkonce.armextab.*)
 .ARM.extab.startup
                0x1005c284        0x0 /home/leon/git/swp-report/iMX6_Platform_SDK/output/mx6sdl/lib/libsdk.a(startup.o)
 .ARM.extab     0x1005c284        0x0 /home/leon/riotboard/arm-2012.09/bin/../lib/gcc/arm-none-eabi/4.7.2//libgcc.a(_divdi3.o)
 .ARM.extab     0x1005c284        0x0 /home/leon/riotboard/arm-2012.09/bin/../lib/gcc/arm-none-eabi/4.7.2//libgcc.a(_udivdi3.o)
 *(.gcc_except_table)

.v4_bx          0x1005c284        0x0
 .v4_bx         0x00000000        0x0 linker stubs

.iplt           0x1005c284        0x0
 .iplt          0x00000000        0x0 /home/leon/riotboard/arm-2012.09/bin/../lib/gcc/arm-none-eabi/4.7.2//crtbegin.o

.ctors
 *crtbegin.o(.ctors)
 *crtbegin?.o(.ctors)
 *(EXCLUDE_FILE(*crtend?.o *crtend.o) .ctors)
 *(SORT(.ctors.*))
 *(.ctors)

.dtors
 *crtbegin.o(.dtors)
 *crtbegin?.o(.dtors)
 *(EXCLUDE_FILE(*crtend?.o *crtend.o) .dtors)
 *(SORT(.dtors.*))
 *(.dtors)

.rodata         0x1005c288    0x3bf10
 *(.rodata .rodata.* .gnu.linkonce.r.*)
 .rodata        0x1005c288       0x9c /home/leon/git/swp-report/iMX6_Platform_SDK/output/mx6sdl/obds/evb_rev_a/obj/apps/common/print_clock_info.o
 .rodata        0x1005c324      0x100 /home/leon/git/swp-report/iMX6_Platform_SDK/output/mx6sdl/obds/evb_rev_a/obj/apps/common/print_version.o
 .rodata        0x1005c424      0x488 /home/leon/git/swp-report/iMX6_Platform_SDK/output/mx6sdl/obds/evb_rev_a/obj/apps/obds/src/obds.o
                0x1005c7f0                MenuList_All_Tests
                0x1005c84c                Menu_Commands
 .rodata        0x1005c8ac      0x318 /home/leon/git/swp-report/iMX6_Platform_SDK/output/mx6sdl/obds/evb_rev_a/obj/apps/obds/src/obds_utils.o
 .rodata        0x1005cbc4      0x1c0 /home/leon/git/swp-report/iMX6_Platform_SDK/output/mx6sdl/obds/evb_rev_a/obj/apps/obds/src/tests/android_buttons_test.o
                0x1005cbc4                g_android_buttons_test_name
 .rodata        0x1005cd84      0x400 /home/leon/git/swp-report/iMX6_Platform_SDK/output/mx6sdl/obds/evb_rev_a/obj/apps/obds/src/tests/audio_esai_test.o
                0x1005cd84                g_audio_esai_test_name
 .rodata        0x1005d184      0x22c /home/leon/git/swp-report/iMX6_Platform_SDK/output/mx6sdl/obds/evb_rev_a/obj/apps/obds/src/tests/audio_ssi_test.o
                0x1005d184                g_audio_ssi_test_name
 .rodata        0x1005d3b0        0xc /home/leon/git/swp-report/iMX6_Platform_SDK/output/mx6sdl/obds/evb_rev_a/obj/apps/obds/src/tests/ddr_test.o
                0x1005d3b0                g_ddr_test_name
 .rodata        0x1005d3bc      0x1c0 /home/leon/git/swp-report/iMX6_Platform_SDK/output/mx6sdl/obds/evb_rev_a/obj/apps/obds/src/tests/deserializer_ds90ur124.o
 .rodata        0x1005d57c      0x22c /home/leon/git/swp-report/iMX6_Platform_SDK/output/mx6sdl/obds/evb_rev_a/obj/apps/obds/src/tests/display_test.o
                0x1005d57c                g_ipu_display_tests_name
 .rodata        0x1005d7a8      0x2d8 /home/leon/git/swp-report/iMX6_Platform_SDK/output/mx6sdl/obds/evb_rev_a/obj/apps/obds/src/tests/enet_mx6dldq_test.o
                0x1005d7a8                g_ar8031_test_name
                0x1005d7c8                g_KSZ9021RN_test_name
 .rodata        0x1005da80       0x84 /home/leon/git/swp-report/iMX6_Platform_SDK/output/mx6sdl/obds/evb_rev_a/obj/apps/obds/src/tests/flexcan_test.o
                0x1005da80                g_flexcan_test_name
 .rodata        0x1005db04       0x50 /home/leon/git/swp-report/iMX6_Platform_SDK/output/mx6sdl/obds/evb_rev_a/obj/apps/obds/src/tests/fm_tuner_si476x_test.o
 .rodata        0x1005db54       0x34 /home/leon/git/swp-report/iMX6_Platform_SDK/output/mx6sdl/obds/evb_rev_a/obj/apps/obds/src/tests/gpio_led.o
                0x1005db54                g_gpio_led_test_name
 .rodata        0x1005db88       0x20 /home/leon/git/swp-report/iMX6_Platform_SDK/output/mx6sdl/obds/evb_rev_a/obj/apps/obds/src/tests/gps_test.o
 .rodata        0x1005dba8      0x10c /home/leon/git/swp-report/iMX6_Platform_SDK/output/mx6sdl/obds/evb_rev_a/obj/apps/obds/src/tests/i2c_check_light_sensor_isl29023.o
                0x1005dba8                g_isl29023_i2c_device_id_test_name
 .rodata        0x1005dcb4       0x6c /home/leon/git/swp-report/iMX6_Platform_SDK/output/mx6sdl/obds/evb_rev_a/obj/apps/obds/src/tests/i2c_device_barometer_ppl3115.o
                0x1005dcb4                g_ppl3115_i2c_device_id_test_name
 .rodata        0x1005dd20       0x1c /home/leon/git/swp-report/iMX6_Platform_SDK/output/mx6sdl/obds/evb_rev_a/obj/apps/obds/src/tests/i2c_device_check_cs42888.o
                0x1005dd20                g_cs42888_i2c_device_id_test_name
 .rodata        0x1005dd3c       0xb4 /home/leon/git/swp-report/iMX6_Platform_SDK/output/mx6sdl/obds/evb_rev_a/obj/apps/obds/src/tests/i2c_device_digital_compass_mag3110.o
                0x1005dd3c                g_mag3110_i2c_device_id_test_name
 .rodata        0x1005ddf0       0xb4 /home/leon/git/swp-report/iMX6_Platform_SDK/output/mx6sdl/obds/evb_rev_a/obj/apps/obds/src/tests/i2c_device_digital_compass_mag3112.o
                0x1005ddf0                g_mag3112_i2c_device_id_test_name
 .rodata        0x1005dea4      0x138 /home/leon/git/swp-report/iMX6_Platform_SDK/output/mx6sdl/obds/evb_rev_a/obj/apps/obds/src/tests/i2c_device_id_check_mma8450.o
                0x1005dea4                g_mma8450_i2c_device_id_test_name
 .rodata        0x1005dfdc      0x138 /home/leon/git/swp-report/iMX6_Platform_SDK/output/mx6sdl/obds/evb_rev_a/obj/apps/obds/src/tests/i2c_device_id_check_mma8451.o
                0x1005dfdc                g_mma8451_i2c_device_id_test_name
 .rodata        0x1005e114      0x234 /home/leon/git/swp-report/iMX6_Platform_SDK/output/mx6sdl/obds/evb_rev_a/obj/apps/obds/src/tests/i2c_device_id_check_p1003_tsc.o
                0x1005e114                g_hs_tsc_p1003_i2c_device_id_test_name
 .rodata        0x1005e348       0xf8 /home/leon/git/swp-report/iMX6_Platform_SDK/output/mx6sdl/obds/evb_rev_a/obj/apps/obds/src/tests/i2c_device_temp_sensor_emc1046.o
                0x1005e348                g_emc1046_i2c_device_id_test_name
 .rodata        0x1005e440       0x90 /home/leon/git/swp-report/iMX6_Platform_SDK/output/mx6sdl/obds/evb_rev_a/obj/apps/obds/src/tests/i2c_device_zigbee_mc1323.o
 .rodata        0x1005e4d0       0x88 /home/leon/git/swp-report/iMX6_Platform_SDK/output/mx6sdl/obds/evb_rev_a/obj/apps/obds/src/tests/i2c_eeprom_at24cxx_test.o
 .rodata        0x1005e558      0x1a0 /home/leon/git/swp-report/iMX6_Platform_SDK/output/mx6sdl/obds/evb_rev_a/obj/apps/obds/src/tests/imx_spi_nor_test.o
                0x1005e558                g_spi_nor_test_name
 .rodata        0x1005e6f8       0x54 /home/leon/git/swp-report/iMX6_Platform_SDK/output/mx6sdl/obds/evb_rev_a/obj/apps/obds/src/tests/mlb_os81050.o
 .rodata        0x1005e74c      0x218 /home/leon/git/swp-report/iMX6_Platform_SDK/output/mx6sdl/obds/evb_rev_a/obj/apps/obds/src/tests/mmcsd_test.o
                0x1005e74c                g_mmcsd_test_name
 .rodata        0x1005e964      0x718 /home/leon/git/swp-report/iMX6_Platform_SDK/output/mx6sdl/obds/evb_rev_a/obj/apps/obds/src/tests/pmic_da9053.o
 .rodata        0x1005f07c      0x734 /home/leon/git/swp-report/iMX6_Platform_SDK/output/mx6sdl/obds/evb_rev_a/obj/apps/obds/src/tests/pmic_lt3589.o
 .rodata        0x1005f7b0       0x54 /home/leon/git/swp-report/iMX6_Platform_SDK/output/mx6sdl/obds/evb_rev_a/obj/apps/obds/src/tests/pmic_max17135.o
                0x1005f7b0                g_max17135_i2c_device_id_test_name
 .rodata        0x1005f804       0x48 /home/leon/git/swp-report/iMX6_Platform_SDK/output/mx6sdl/obds/evb_rev_a/obj/apps/obds/src/tests/pmic_mc13892.o
 .rodata        0x1005f84c      0x2dc /home/leon/git/swp-report/iMX6_Platform_SDK/output/mx6sdl/obds/evb_rev_a/obj/apps/obds/src/tests/program_board_id.o
                0x1005f84c                g_program_board_id_test_name
 .rodata        0x1005fb28      0x3c8 /home/leon/git/swp-report/iMX6_Platform_SDK/output/mx6sdl/obds/evb_rev_a/obj/apps/obds/src/tests/program_mac_address.o
                0x1005fb28                g_program_mac_address_test_name
 .rodata        0x1005fef0      0x1bc /home/leon/git/swp-report/iMX6_Platform_SDK/output/mx6sdl/obds/evb_rev_a/obj/apps/obds/src/tests/snvs_srtc_test.o
                0x1005fef0                g_snvs_srtc_test_name
 .rodata        0x100600ac      0x10c /home/leon/git/swp-report/iMX6_Platform_SDK/output/mx6sdl/obds/evb_rev_a/obj/apps/obds/src/tests/touch_screen.o
 .rodata        0x100601b8      0x1b0 /home/leon/git/swp-report/iMX6_Platform_SDK/output/mx6sdl/obds/evb_rev_a/obj/apps/obds/src/tests/touch_screen_max11801.o
 .rodata        0x10060368      0x2b0 /home/leon/git/swp-report/iMX6_Platform_SDK/output/mx6sdl/obds/evb_rev_a/obj/apps/obds/src/tests/usb_tests_obds.o
                0x10060368                g_usb_otg_dev_enum_test_name
                0x10060388                g_usb_host1_dev_enum_test_name
 .rodata        0x10060618      0x150 /home/leon/git/swp-report/iMX6_Platform_SDK/output/mx6sdl/obds/evb_rev_a/obj/apps/obds/src/tests/video_dec_ARD_MB_reset_button.o
                0x10060618                g_ard_main_board_reset_button_test
 .rodata        0x10060768       0x68 /home/leon/git/swp-report/iMX6_Platform_SDK/output/mx6sdl/obds/evb_rev_a/obj/apps/obds/src/tests/video_dec_ARD_MBrst_from_cpu_expander.o
                0x10060768                g_ard_mb_expander_reset_test_name
 .rodata        0x100607d0       0x94 /home/leon/git/swp-report/iMX6_Platform_SDK/output/mx6sdl/obds/evb_rev_a/obj/apps/obds/src/tests/video_dec_adv7180.o
                0x100607d0                g_video_dec_test_name
 .rodata        0x10060864      0x180 /home/leon/git/swp-report/iMX6_Platform_SDK/output/mx6sdl/obds/evb_rev_a/obj/apps/obds/src/tests/weim_nor_flash_test.o
                0x10060864                g_eim_NOR_flash_test_name
 .rodata        0x100609e4       0x74 /home/leon/git/swp-report/iMX6_Platform_SDK/output/mx6sdl/obds/evb_rev_a/obj/sdk/common/ioexpander/test/max7310_test.o
                0x100609e4                g_max7310_i2c_device_id_test_name
 .rodata        0x10060a58       0x98 /home/leon/git/swp-report/iMX6_Platform_SDK/output/mx6sdl/obds/evb_rev_a/obj/sdk/common/pmic/pfuse/pf0100.o
                0x10060a58                g_pmic_pf0100_i2c_device_id_test_name
 .rodata        0x10060af0       0xe4 /home/leon/git/swp-report/iMX6_Platform_SDK/output/mx6sdl/obds/evb_rev_a/obj/sdk/drivers/audio/src/snd_card.o
 .rodata        0x10060bd4       0xe0 /home/leon/git/swp-report/iMX6_Platform_SDK/output/mx6sdl/obds/evb_rev_a/obj/sdk/drivers/camera/test/adv7180_capture.o
 .rodata        0x10060cb4       0x94 /home/leon/git/swp-report/iMX6_Platform_SDK/output/mx6sdl/obds/evb_rev_a/obj/sdk/drivers/camera/test/camera_test.o
                0x10060cb4                g_camera_test_name
 .rodata        0x10060d48      0x118 /home/leon/git/swp-report/iMX6_Platform_SDK/output/mx6sdl/obds/evb_rev_a/obj/sdk/drivers/camera/test/csi_test_mode.o
 .rodata        0x10060e60      0x118 /home/leon/git/swp-report/iMX6_Platform_SDK/output/mx6sdl/obds/evb_rev_a/obj/sdk/drivers/camera/test/sensor_capture.o
 .rodata        0x10060f78       0x68 /home/leon/git/swp-report/iMX6_Platform_SDK/output/mx6sdl/obds/evb_rev_a/obj/sdk/drivers/epdc/test/epdc_test.o
                0x10060f78                g_epdc_test_name
 .rodata        0x10060fe0       0x98 /home/leon/git/swp-report/iMX6_Platform_SDK/output/mx6sdl/obds/evb_rev_a/obj/sdk/drivers/hdmi/test/hdmi_test.o
 .rodata        0x10061078     0x403c /home/leon/git/swp-report/iMX6_Platform_SDK/output/mx6sdl/obds/evb_rev_a/obj/sdk/drivers/hdmi/test/init_dma_data.o
                0x10061078                gAudio_sample
 .rodata        0x100650b4       0xa0 /home/leon/git/swp-report/iMX6_Platform_SDK/output/mx6sdl/obds/evb_rev_a/obj/sdk/drivers/ipu/test/ips_display.o
 .rodata        0x10065154    0x2f2dc /home/leon/git/swp-report/iMX6_Platform_SDK/output/mx6sdl/obds/evb_rev_a/obj/sdk/drivers/ipu/test/ipu_image.o
                0x10076f70                gImage_foretext
 .rodata        0x10094430      0x194 /home/leon/git/swp-report/iMX6_Platform_SDK/output/mx6sdl/obds/evb_rev_a/obj/sdk/drivers/spi/test/imx_spi_nor_atmel.o
 .rodata        0x100945c4      0x118 /home/leon/git/swp-report/iMX6_Platform_SDK/output/mx6sdl/obds/evb_rev_a/obj/sdk/drivers/spi/test/spi_nor_numonyx.o
 .rodata        0x100946dc       0xb0 /home/leon/git/swp-report/iMX6_Platform_SDK/output/mx6sdl/obds/evb_rev_a/obj/sdk/drivers/uart/test/uart_test.o
                0x100946dc                g_uart_test_name
 .rodata        0x1009478c      0x218 /home/leon/git/swp-report/iMX6_Platform_SDK/output/mx6sdl/obds/evb_rev_a/obj/sdk/drivers/usb/test/usb0_host_test.o
 .rodata        0x100949a4       0xa8 /home/leon/git/swp-report/iMX6_Platform_SDK/output/mx6sdl/obds/evb_rev_a/obj/sdk/drivers/usb/test/usb0_host_testmodes_test.o
 .rodata        0x10094a4c      0x38c /home/leon/git/swp-report/iMX6_Platform_SDK/output/mx6sdl/obds/evb_rev_a/obj/sdk/drivers/usdhc/test/usdhc_test.o
 .rodata        0x10094dd8       0x34 /home/leon/git/swp-report/iMX6_Platform_SDK/output/mx6sdl/lib/libsdk.a(ccm_pll.o)
                0x10094dd8                PLL1_OUTPUT
                0x10094ddc                PLL2_OUTPUT
                0x10094df0                PLL3_OUTPUT
                0x10094e04                PLL4_OUTPUT
                0x10094e08                PLL5_OUTPUT
 .rodata        0x10094e0c       0x64 /home/leon/git/swp-report/iMX6_Platform_SDK/output/mx6sdl/lib/libsdk.a(gic.o)
 .rodata        0x10094e70       0x20 /home/leon/git/swp-report/iMX6_Platform_SDK/output/mx6sdl/lib/libsdk.a(interrupt.o)
 .rodata        0x10094e90      0x154 /home/leon/git/swp-report/iMX6_Platform_SDK/output/mx6sdl/lib/libsdk.a(menu.o)
 .rodata        0x10094fe4       0x50 /home/leon/git/swp-report/iMX6_Platform_SDK/output/mx6sdl/lib/libsdk.a(sdk_version.o)
                0x10094fe4                k_sdk_version
                0x10094fe8                k_sdk_copyright
 .rodata        0x10095034       0xcc /home/leon/git/swp-report/iMX6_Platform_SDK/output/mx6sdl/lib/libsdk.a(system_util.o)
 .rodata        0x10095100       0xf4 /home/leon/git/swp-report/iMX6_Platform_SDK/output/mx6sdl/lib/libsdk.a(text_color.o)
                0x10095108                g_TextAttributeDefault
                0x10095114                g_TextAttributeBold
                0x10095120                g_TextAttributeDim
                0x1009512c                g_TextAttributeUnderline
                0x10095138                g_TextAttributeBlink
                0x10095144                g_TextAttributeReverse
                0x10095150                g_TextAttributeHidden
                0x1009515c                g_TextColorBlack
                0x10095168                g_TextColorRed
                0x10095174                g_TextColorGreen
                0x10095180                g_TextColorYellow
                0x1009518c                g_TextColorBlue
                0x10095198                g_TextColorMagenta
                0x100951a4                g_TextColorCyan
                0x100951b0                g_TextColorWhite
                0x100951c0                g_TextColorOrange
                0x100951d0                g_TextColorLightBlue
                0x100951e0                g_TextColorGray
                0x100951f0                g_TextColorPurple
 .rodata        0x100951f4       0x28 /home/leon/git/swp-report/iMX6_Platform_SDK/output/mx6sdl/lib/libsdk.a(cs42888.o)
 .rodata        0x1009521c      0x1ac /home/leon/git/swp-report/iMX6_Platform_SDK/output/mx6sdl/lib/libsdk.a(imx-ssi.o)
 .rodata        0x100953c8       0xf0 /home/leon/git/swp-report/iMX6_Platform_SDK/output/mx6sdl/lib/libsdk.a(imx_esai.o)
 .rodata        0x100954b8       0xdc /home/leon/git/swp-report/iMX6_Platform_SDK/output/mx6sdl/lib/libsdk.a(imx_spdif.o)
 .rodata        0x10095594      0x200 /home/leon/git/swp-report/iMX6_Platform_SDK/output/mx6sdl/lib/libsdk.a(sgtl5000.o)
 .rodata        0x10095794      0x66c /home/leon/git/swp-report/iMX6_Platform_SDK/output/mx6sdl/lib/libsdk.a(wm8958_dac.o)
 .rodata        0x10095e00      0x1a4 /home/leon/git/swp-report/iMX6_Platform_SDK/output/mx6sdl/lib/libsdk.a(wm8962.o)
 .rodata        0x10095fa4      0x1f8 /home/leon/git/swp-report/iMX6_Platform_SDK/output/mx6sdl/lib/libsdk.a(board_id.o)
 .rodata        0x1009619c       0xc4 /home/leon/git/swp-report/iMX6_Platform_SDK/output/mx6sdl/lib/libsdk.a(smd_sensor.o)
 .rodata        0x10096260      0x1c4 /home/leon/git/swp-report/iMX6_Platform_SDK/output/mx6sdl/lib/libsdk.a(enet_drv.o)
 .rodata        0x10096424       0x58 /home/leon/git/swp-report/iMX6_Platform_SDK/output/mx6sdl/lib/libsdk.a(mxc_epdc.o)
 .rodata        0x1009647c       0xe0 /home/leon/git/swp-report/iMX6_Platform_SDK/output/mx6sdl/lib/libsdk.a(gpio.o)
 .rodata        0x1009655c      0x380 /home/leon/git/swp-report/iMX6_Platform_SDK/output/mx6sdl/lib/libsdk.a(imx6sdl_gpio_map.o)
                0x1009655c                k_gpio_mux_registers
 .rodata        0x100968dc       0xb4 /home/leon/git/swp-report/iMX6_Platform_SDK/output/mx6sdl/lib/libsdk.a(hdmi_tx.o)
 .rodata        0x10096990       0x3c /home/leon/git/swp-report/iMX6_Platform_SDK/output/mx6sdl/lib/libsdk.a(hdmi_tx_audio.o)
 .rodata        0x100969cc       0xec /home/leon/git/swp-report/iMX6_Platform_SDK/output/mx6sdl/lib/libsdk.a(hdmi_tx_phy.o)
 .rodata        0x10096ab8      0x2c4 /home/leon/git/swp-report/iMX6_Platform_SDK/output/mx6sdl/lib/libsdk.a(imx_i2c.o)
 .rodata        0x10096d7c       0x54 /home/leon/git/swp-report/iMX6_Platform_SDK/output/mx6sdl/lib/libsdk.a(ips_disp_panel.o)
 .rodata        0x10096dd0       0x74 /home/leon/git/swp-report/iMX6_Platform_SDK/output/mx6sdl/lib/libsdk.a(ipu_common.o)
 .rodata        0x10096e44       0xc0 /home/leon/git/swp-report/iMX6_Platform_SDK/output/mx6sdl/lib/libsdk.a(ipu_csi.o)
 .rodata        0x10096f04       0x9c /home/leon/git/swp-report/iMX6_Platform_SDK/output/mx6sdl/lib/libsdk.a(ipu_dc.o)
 .rodata        0x10096fa0       0x18 /home/leon/git/swp-report/iMX6_Platform_SDK/output/mx6sdl/lib/libsdk.a(ipu_di.o)
 .rodata        0x10096fb8       0x78 /home/leon/git/swp-report/iMX6_Platform_SDK/output/mx6sdl/lib/libsdk.a(ipu_dp.o)
 .rodata        0x10097030       0x38 /home/leon/git/swp-report/iMX6_Platform_SDK/output/mx6sdl/lib/libsdk.a(ipu_idmac.o)
 .rodata        0x10097068       0x68 /home/leon/git/swp-report/iMX6_Platform_SDK/output/mx6sdl/lib/libsdk.a(ldb.o)
 .rodata        0x100970d0       0x74 /home/leon/git/swp-report/iMX6_Platform_SDK/output/mx6sdl/lib/libsdk.a(ecspi.o)
 .rodata        0x10097144       0x94 /home/leon/git/swp-report/iMX6_Platform_SDK/output/mx6sdl/lib/libsdk.a(usb_common.o)
 .rodata        0x100971d8       0x28 /home/leon/git/swp-report/iMX6_Platform_SDK/output/mx6sdl/lib/libsdk.a(usbh_drv.o)
 .rodata        0x10097200      0x1cc /home/leon/git/swp-report/iMX6_Platform_SDK/output/mx6sdl/lib/libsdk.a(usdhc.o)
 .rodata        0x100973cc       0x1c /home/leon/git/swp-report/iMX6_Platform_SDK/output/mx6sdl/lib/libsdk.a(usdhc_host.o)
 .rodata        0x100973e8      0x20c /home/leon/git/swp-report/iMX6_Platform_SDK/output/mx6sdl/lib/libsdk.a(usdhc_mmc.o)
 .rodata        0x100975f4       0x58 /home/leon/git/swp-report/iMX6_Platform_SDK/output/mx6sdl/lib/libsdk.a(usdhc_sd.o)
                0x100975f4                sd_ocr_value
                0x10097600                sd_if_cmd_arg
 .rodata        0x1009764c       0x68 /home/leon/git/swp-report/iMX6_Platform_SDK/output/mx6sdl/lib/libsdk.a(adv7180.o)
 .rodata        0x100976b4       0x10 /home/leon/git/swp-report/iMX6_Platform_SDK/output/mx6sdl/lib/libsdk.a(hdmi_common.o)
 .rodata        0x100976c4      0x1bc /home/leon/git/swp-report/iMX6_Platform_SDK/output/mx6sdl/lib/libsdk.a(ipu_ic.o)
 .rodata        0x10097880      0x230 /home/leon/git/swp-report/iMX6_Platform_SDK/output/mx6sdl/lib/libsdk.a(abort_handler.o)
 .rodata        0x10097ab0       0x64 /home/leon/git/swp-report/iMX6_Platform_SDK/output/mx6sdl/lib/libboard_evb_rev_a.a(board_display.o)
 .rodata        0x10097b14       0x28 /home/leon/git/swp-report/iMX6_Platform_SDK/output/mx6sdl/lib/libboard_evb_rev_a.a(board_hdmi.o)
 .rodata        0x10097b3c       0x68 /home/leon/git/swp-report/iMX6_Platform_SDK/output/mx6sdl/lib/libboard_evb_rev_a.a(board_i2c.o)
                0x10097b3c                g_wm8958_i2c_device
                0x10097b44                g_wm8962_i2c_device
                0x10097b4c                g_sgtl5000_i2c_device
                0x10097b54                g_cs42888_i2c_device
                0x10097b5c                g_pmic_ltc3589_i2c_device
                0x10097b64                g_pmic_da9053_i2c_device
                0x10097b6c                g_pmic_max17135_i2c_device
                0x10097b74                g_pmic_pf0100_i2c_device
                0x10097b7c                g_adv7180_i2c_device
                0x10097b84                g_os81050_i2c_device
                0x10097b8c                g_p1003_tsc_i2c_device
                0x10097b94                g_at24cx_i2c_device
                0x10097b9c                g_si476x_i2c_device
 .rodata        0x10097ba4       0x74 /home/leon/git/swp-report/iMX6_Platform_SDK/output/mx6sdl/lib/libboard_evb_rev_a.a(ecspi_iomux_config.o)
 .rodata        0x10097c18       0x74 /home/leon/git/swp-report/iMX6_Platform_SDK/output/mx6sdl/lib/libboard_evb_rev_a.a(i2c_iomux_config.o)
 .rodata        0x10097c8c       0x74 /home/leon/git/swp-report/iMX6_Platform_SDK/output/mx6sdl/lib/libboard_evb_rev_a.a(ipu_iomux_config.o)
 .rodata        0x10097d00       0x74 /home/leon/git/swp-report/iMX6_Platform_SDK/output/mx6sdl/lib/libboard_evb_rev_a.a(uart_iomux_config.o)
 .rodata        0x10097d74       0x74 /home/leon/git/swp-report/iMX6_Platform_SDK/output/mx6sdl/lib/libboard_evb_rev_a.a(usdhc_iomux_config.o)
 .rodata.str1.4
                0x10097de8       0x3f /home/leon/riotboard/arm-2012.09/bin/../arm-none-eabi/lib//libc.a(lib_a-assert.o)
                                 0x44 (size before relaxing)
 *fill*         0x10097e27        0x1 
 .rodata        0x10097e28        0x4 /home/leon/riotboard/arm-2012.09/bin/../arm-none-eabi/lib//libc.a(lib_a-impure.o)
                0x10097e28                _global_impure_ptr
 .rodata.str1.4
                0x10097e2c        0x2 /home/leon/riotboard/arm-2012.09/bin/../arm-none-eabi/lib//libc.a(lib_a-impure.o)
                                  0x4 (size before relaxing)
 *fill*         0x10097e2e        0x2 
 .rodata        0x10097e30       0x20 /home/leon/riotboard/arm-2012.09/bin/../arm-none-eabi/lib//libc.a(lib_a-svfprintf.o)
 .rodata.str1.4
                0x10097e50       0x42 /home/leon/riotboard/arm-2012.09/bin/../arm-none-eabi/lib//libc.a(lib_a-svfprintf.o)
                                 0x44 (size before relaxing)
 *fill*         0x10097e92        0x2 
 .rodata        0x10097e94       0x20 /home/leon/riotboard/arm-2012.09/bin/../arm-none-eabi/lib//libc.a(lib_a-vfiprintf.o)
 .rodata.str1.4
                0x00000000       0x30 /home/leon/riotboard/arm-2012.09/bin/../arm-none-eabi/lib//libc.a(lib_a-vfiprintf.o)
 .rodata        0x10097eb4       0x20 /home/leon/riotboard/arm-2012.09/bin/../arm-none-eabi/lib//libc.a(lib_a-vfprintf.o)
 .rodata.str1.4
                0x00000000       0x44 /home/leon/riotboard/arm-2012.09/bin/../arm-none-eabi/lib//libc.a(lib_a-vfprintf.o)
 .rodata        0x10097ed4      0x104 /home/leon/riotboard/arm-2012.09/bin/../arm-none-eabi/lib//libc.a(lib_a-ctype_.o)
                0x10097ed4                _ctype_
 .rodata.str1.4
                0x10097fd8       0x10 /home/leon/riotboard/arm-2012.09/bin/../arm-none-eabi/lib//libc.a(lib_a-dtoa.o)
                                 0x14 (size before relaxing)
 .rodata.str1.4
                0x10097fe8        0xc /home/leon/riotboard/arm-2012.09/bin/../arm-none-eabi/lib//libc.a(lib_a-locale.o)
                                 0x14 (size before relaxing)
 *fill*         0x10097ff4        0x4 
 .rodata        0x10097ff8      0x128 /home/leon/riotboard/arm-2012.09/bin/../arm-none-eabi/lib//libc.a(lib_a-mprec.o)
                0x10098008                __mprec_tens
                0x100980d0                __mprec_tinytens
                0x100980f8                __mprec_bigtens
 .rodata        0x10098120       0x20 /home/leon/riotboard/arm-2012.09/bin/../arm-none-eabi/lib//libc.a(lib_a-svfiprintf.o)
 .rodata.str1.4
                0x00000000       0x30 /home/leon/riotboard/arm-2012.09/bin/../arm-none-eabi/lib//libc.a(lib_a-svfiprintf.o)
 .rodata        0x10098140       0x20 /home/leon/git/swp-report/iMX6_Platform_SDK/output/mx6sdl/lib/libsdk.a(runtime_support.o)
                0x10098160                . = ALIGN (0x4)
 *(.init)
 .init          0x10098160        0xc /home/leon/riotboard/arm-2012.09/bin/../lib/gcc/arm-none-eabi/4.7.2//crti.o
                0x10098160                _init
 .init          0x1009816c        0xc /home/leon/riotboard/arm-2012.09/bin/../lib/gcc/arm-none-eabi/4.7.2//crtn.o
                0x10098178                . = ALIGN (0x4)
                0x10098178                __init_array_start = .
 *(SORT(.init_array.*))
 *(.init_array)
 .init_array    0x10098178        0x4 /home/leon/riotboard/arm-2012.09/bin/../lib/gcc/arm-none-eabi/4.7.2//crtbegin.o
                0x1009817c                __init_array_end = .
                0x1009817c                . = ALIGN (0x4)
 *(.fini)
 .fini          0x1009817c        0xc /home/leon/riotboard/arm-2012.09/bin/../lib/gcc/arm-none-eabi/4.7.2//crti.o
                0x1009817c                _fini
 .fini          0x10098188        0xc /home/leon/riotboard/arm-2012.09/bin/../lib/gcc/arm-none-eabi/4.7.2//crtn.o
                0x10098194                . = ALIGN (0x4)
                0x10098194                __fini_array_start = .
 *(.fini_array)
 .fini_array    0x10098194        0x4 /home/leon/riotboard/arm-2012.09/bin/../lib/gcc/arm-none-eabi/4.7.2//crtbegin.o
 *(SORT(.fini_array.*))
                0x10098198                __fini_array_end = .
                0x10098198                PROVIDE (__exidx_start, .)

.eh_frame       0x10098198        0x4
 .eh_frame      0x10098198        0x0 /home/leon/riotboard/arm-2012.09/bin/../lib/gcc/arm-none-eabi/4.7.2//crtbegin.o
 .eh_frame      0x10098198        0x4 /home/leon/riotboard/arm-2012.09/bin/../lib/gcc/arm-none-eabi/4.7.2//crtend.o

.ARM.exidx      0x1009819c        0x8
 *(.ARM.exidx* .gnu.linkonce.armexidx.*)
 .ARM.exidx.startup
                0x1009819c        0x8 /home/leon/git/swp-report/iMX6_Platform_SDK/output/mx6sdl/lib/libsdk.a(startup.o)
 .ARM.exidx     0x100981a4        0x0 /home/leon/riotboard/arm-2012.09/bin/../lib/gcc/arm-none-eabi/4.7.2//libgcc.a(_divdi3.o)
                                  0x8 (size before relaxing)
 .ARM.exidx     0x100981a4        0x0 /home/leon/riotboard/arm-2012.09/bin/../lib/gcc/arm-none-eabi/4.7.2//libgcc.a(_udivdi3.o)
                                  0x8 (size before relaxing)
                0x100981a4                PROVIDE (__exidx_end, .)

.rel.dyn        0x100981a4        0x0
 .rel.iplt      0x00000000        0x0 /home/leon/riotboard/arm-2012.09/bin/../lib/gcc/arm-none-eabi/4.7.2//crtbegin.o

.data           0x100981a8   0x14b678
 *(.data .data.* .gnu.linkonce.d.*)
 .data          0x100981a8        0x4 /home/leon/riotboard/arm-2012.09/bin/../lib/gcc/arm-none-eabi/4.7.2//crtbegin.o
                0x100981a8                __dso_handle
 .data          0x100981ac        0x0 /home/leon/riotboard/arm-2012.09/bin/../lib/gcc/arm-none-eabi/4.7.2//crti.o
 .data          0x100981ac        0x0 /home/leon/riotboard/arm-2012.09/bin/../lib/gcc/arm-none-eabi/4.7.2//crtend.o
 .data          0x100981ac        0x0 /home/leon/riotboard/arm-2012.09/bin/../lib/gcc/arm-none-eabi/4.7.2//crtn.o
 .data          0x100981ac        0x0 /home/leon/git/swp-report/iMX6_Platform_SDK/output/mx6sdl/obds/evb_rev_a/obj/apps/common/ivt.o
 .data          0x100981ac        0x0 /home/leon/git/swp-report/iMX6_Platform_SDK/output/mx6sdl/obds/evb_rev_a/obj/apps/common/platform_init.o
 .data          0x100981ac        0x0 /home/leon/git/swp-report/iMX6_Platform_SDK/output/mx6sdl/obds/evb_rev_a/obj/apps/common/print_clock_info.o
 .data          0x100981ac        0x0 /home/leon/git/swp-report/iMX6_Platform_SDK/output/mx6sdl/obds/evb_rev_a/obj/apps/common/print_version.o
 .data          0x100981ac        0x4 /home/leon/git/swp-report/iMX6_Platform_SDK/output/mx6sdl/obds/evb_rev_a/obj/apps/obds/src/obds.o
                0x100981ac                auto_run_enable
 .data          0x100981b0        0x8 /home/leon/git/swp-report/iMX6_Platform_SDK/output/mx6sdl/obds/evb_rev_a/obj/apps/obds/src/obds_utils.o
                0x100981b0                soc_sbmr1
                0x100981b4                soc_sbmr2
 .data          0x100981b8        0x0 /home/leon/git/swp-report/iMX6_Platform_SDK/output/mx6sdl/obds/evb_rev_a/obj/apps/obds/src/tests/android_buttons_test.o
 .data          0x100981b8        0x0 /home/leon/git/swp-report/iMX6_Platform_SDK/output/mx6sdl/obds/evb_rev_a/obj/apps/obds/src/tests/audio_esai_test.o
 .data          0x100981b8    0x275f4 /home/leon/git/swp-report/iMX6_Platform_SDK/output/mx6sdl/obds/evb_rev_a/obj/apps/obds/src/tests/audio_ssi_test.o
                0x100981b8                wav_data
                0x100bf780                pcm_para
                0x100bf78c                pcm_music
                0x100bf79c                pcm_record
 .data          0x100bf7ac        0x0 /home/leon/git/swp-report/iMX6_Platform_SDK/output/mx6sdl/obds/evb_rev_a/obj/apps/obds/src/tests/ddr_test.o
 .data          0x100bf7ac        0x0 /home/leon/git/swp-report/iMX6_Platform_SDK/output/mx6sdl/obds/evb_rev_a/obj/apps/obds/src/tests/deserializer_ds90ur124.o
 .data          0x100bf7ac    0x11e38 /home/leon/git/swp-report/iMX6_Platform_SDK/output/mx6sdl/obds/evb_rev_a/obj/apps/obds/src/tests/display_test.o
                0x100bf7ac                gImage_fsl
 .data          0x100d15e4        0x8 /home/leon/git/swp-report/iMX6_Platform_SDK/output/mx6sdl/obds/evb_rev_a/obj/apps/obds/src/tests/enet_mx6dldq_test.o
 .data          0x100d15ec        0x0 /home/leon/git/swp-report/iMX6_Platform_SDK/output/mx6sdl/obds/evb_rev_a/obj/apps/obds/src/tests/flexcan_test.o
 .data          0x100d15ec        0x0 /home/leon/git/swp-report/iMX6_Platform_SDK/output/mx6sdl/obds/evb_rev_a/obj/apps/obds/src/tests/fm_tuner_si476x_test.o
 .data          0x100d15ec        0x0 /home/leon/git/swp-report/iMX6_Platform_SDK/output/mx6sdl/obds/evb_rev_a/obj/apps/obds/src/tests/gpio_led.o
 .data          0x100d15ec        0x4 /home/leon/git/swp-report/iMX6_Platform_SDK/output/mx6sdl/obds/evb_rev_a/obj/apps/obds/src/tests/gps_test.o
 .data          0x100d15f0        0x0 /home/leon/git/swp-report/iMX6_Platform_SDK/output/mx6sdl/obds/evb_rev_a/obj/apps/obds/src/tests/i2c_check_light_sensor_isl29023.o
 .data          0x100d15f0        0x0 /home/leon/git/swp-report/iMX6_Platform_SDK/output/mx6sdl/obds/evb_rev_a/obj/apps/obds/src/tests/i2c_device_barometer_ppl3115.o
 .data          0x100d15f0        0x0 /home/leon/git/swp-report/iMX6_Platform_SDK/output/mx6sdl/obds/evb_rev_a/obj/apps/obds/src/tests/i2c_device_check_cs42888.o
 .data          0x100d15f0        0x0 /home/leon/git/swp-report/iMX6_Platform_SDK/output/mx6sdl/obds/evb_rev_a/obj/apps/obds/src/tests/i2c_device_digital_compass_mag3110.o
 .data          0x100d15f0        0x0 /home/leon/git/swp-report/iMX6_Platform_SDK/output/mx6sdl/obds/evb_rev_a/obj/apps/obds/src/tests/i2c_device_digital_compass_mag3112.o
 .data          0x100d15f0        0x0 /home/leon/git/swp-report/iMX6_Platform_SDK/output/mx6sdl/obds/evb_rev_a/obj/apps/obds/src/tests/i2c_device_id_check_mma8450.o
 .data          0x100d15f0        0x0 /home/leon/git/swp-report/iMX6_Platform_SDK/output/mx6sdl/obds/evb_rev_a/obj/apps/obds/src/tests/i2c_device_id_check_mma8451.o
 .data          0x100d15f0        0x0 /home/leon/git/swp-report/iMX6_Platform_SDK/output/mx6sdl/obds/evb_rev_a/obj/apps/obds/src/tests/i2c_device_id_check_p1003_tsc.o
 .data          0x100d15f0        0x0 /home/leon/git/swp-report/iMX6_Platform_SDK/output/mx6sdl/obds/evb_rev_a/obj/apps/obds/src/tests/i2c_device_temp_sensor_emc1046.o
 .data          0x100d15f0        0x0 /home/leon/git/swp-report/iMX6_Platform_SDK/output/mx6sdl/obds/evb_rev_a/obj/apps/obds/src/tests/i2c_device_zigbee_mc1323.o
 .data          0x100d15f0        0x0 /home/leon/git/swp-report/iMX6_Platform_SDK/output/mx6sdl/obds/evb_rev_a/obj/apps/obds/src/tests/i2c_eeprom_at24cxx_test.o
 .data          0x100d15f0        0x8 /home/leon/git/swp-report/iMX6_Platform_SDK/output/mx6sdl/obds/evb_rev_a/obj/apps/obds/src/tests/imx_spi_nor_test.o
                0x100d15f0                AT45DB321D_id
                0x100d15f4                M25P32_id
 .data          0x100d15f8        0x8 /home/leon/git/swp-report/iMX6_Platform_SDK/output/mx6sdl/obds/evb_rev_a/obj/apps/obds/src/tests/mlb_os81050.o
 .data          0x100d1600        0x0 /home/leon/git/swp-report/iMX6_Platform_SDK/output/mx6sdl/obds/evb_rev_a/obj/apps/obds/src/tests/mmcsd_test.o
 .data          0x100d1600        0x0 /home/leon/git/swp-report/iMX6_Platform_SDK/output/mx6sdl/obds/evb_rev_a/obj/apps/obds/src/tests/pmic_da9053.o
 .data          0x100d1600        0x0 /home/leon/git/swp-report/iMX6_Platform_SDK/output/mx6sdl/obds/evb_rev_a/obj/apps/obds/src/tests/pmic_lt3589.o
 .data          0x100d1600        0x0 /home/leon/git/swp-report/iMX6_Platform_SDK/output/mx6sdl/obds/evb_rev_a/obj/apps/obds/src/tests/pmic_max17135.o
 .data          0x100d1600        0x0 /home/leon/git/swp-report/iMX6_Platform_SDK/output/mx6sdl/obds/evb_rev_a/obj/apps/obds/src/tests/pmic_mc13892.o
 .data          0x100d1600        0x0 /home/leon/git/swp-report/iMX6_Platform_SDK/output/mx6sdl/obds/evb_rev_a/obj/apps/obds/src/tests/program_board_id.o
 .data          0x100d1600        0x0 /home/leon/git/swp-report/iMX6_Platform_SDK/output/mx6sdl/obds/evb_rev_a/obj/apps/obds/src/tests/program_mac_address.o
 .data          0x100d1600        0x0 /home/leon/git/swp-report/iMX6_Platform_SDK/output/mx6sdl/obds/evb_rev_a/obj/apps/obds/src/tests/snvs_srtc_test.o
 .data          0x100d1600        0x0 /home/leon/git/swp-report/iMX6_Platform_SDK/output/mx6sdl/obds/evb_rev_a/obj/apps/obds/src/tests/touch_button_test.o
 .data          0x100d1600        0x0 /home/leon/git/swp-report/iMX6_Platform_SDK/output/mx6sdl/obds/evb_rev_a/obj/apps/obds/src/tests/touch_screen.o
 .data          0x100d1600        0x0 /home/leon/git/swp-report/iMX6_Platform_SDK/output/mx6sdl/obds/evb_rev_a/obj/apps/obds/src/tests/touch_screen_max11801.o
 .data          0x100d1600        0x0 /home/leon/git/swp-report/iMX6_Platform_SDK/output/mx6sdl/obds/evb_rev_a/obj/apps/obds/src/tests/usb_tests_obds.o
 .data          0x100d1600        0x0 /home/leon/git/swp-report/iMX6_Platform_SDK/output/mx6sdl/obds/evb_rev_a/obj/apps/obds/src/tests/video_dec_ARD_MB_reset_button.o
 .data          0x100d1600        0x0 /home/leon/git/swp-report/iMX6_Platform_SDK/output/mx6sdl/obds/evb_rev_a/obj/apps/obds/src/tests/video_dec_ARD_MBrst_from_cpu_expander.o
 .data          0x100d1600        0x0 /home/leon/git/swp-report/iMX6_Platform_SDK/output/mx6sdl/obds/evb_rev_a/obj/apps/obds/src/tests/video_dec_adv7180.o
 .data          0x100d1600        0x0 /home/leon/git/swp-report/iMX6_Platform_SDK/output/mx6sdl/obds/evb_rev_a/obj/apps/obds/src/tests/weim_nor_flash_test.o
 .data          0x100d1600        0x0 /home/leon/git/swp-report/iMX6_Platform_SDK/output/mx6sdl/obds/evb_rev_a/obj/sdk/common/ioexpander/test/max7310_test.o
 .data          0x100d1600        0x0 /home/leon/git/swp-report/iMX6_Platform_SDK/output/mx6sdl/obds/evb_rev_a/obj/sdk/common/pmic/pfuse/pf0100.o
 .data          0x100d1600       0x68 /home/leon/git/swp-report/iMX6_Platform_SDK/output/mx6sdl/obds/evb_rev_a/obj/sdk/drivers/audio/src/snd_card.o
                0x100d1618                snd_card_esai
                0x100d1628                snd_card_spdif
                0x100d1638                snd_card_ssi_sgtl5000
                0x100d1648                snd_card_ssi_wm8958
                0x100d1658                snd_card_ssi_wm8962
 .data          0x100d1668        0x0 /home/leon/git/swp-report/iMX6_Platform_SDK/output/mx6sdl/obds/evb_rev_a/obj/sdk/drivers/camera/test/adv7180_capture.o
 .data          0x100d1668       0x10 /home/leon/git/swp-report/iMX6_Platform_SDK/output/mx6sdl/obds/evb_rev_a/obj/sdk/drivers/camera/test/camera_test.o
 .data          0x100d1678        0x0 /home/leon/git/swp-report/iMX6_Platform_SDK/output/mx6sdl/obds/evb_rev_a/obj/sdk/drivers/camera/test/csi_test_mode.o
 .data          0x100d1678        0x0 /home/leon/git/swp-report/iMX6_Platform_SDK/output/mx6sdl/obds/evb_rev_a/obj/sdk/drivers/camera/test/sensor_capture.o
 .data          0x100d1678        0x0 /home/leon/git/swp-report/iMX6_Platform_SDK/output/mx6sdl/obds/evb_rev_a/obj/sdk/drivers/epdc/test/epdc_test.o
 .data          0x100d1678        0x0 /home/leon/git/swp-report/iMX6_Platform_SDK/output/mx6sdl/obds/evb_rev_a/obj/sdk/drivers/hdmi/test/hdmi_test.o
 .data          0x100d1678        0x0 /home/leon/git/swp-report/iMX6_Platform_SDK/output/mx6sdl/obds/evb_rev_a/obj/sdk/drivers/hdmi/test/init_dma_data.o
 .data          0x100d1678        0x0 /home/leon/git/swp-report/iMX6_Platform_SDK/output/mx6sdl/obds/evb_rev_a/obj/sdk/drivers/ipu/test/ips_display.o
 .data          0x100d1678        0x0 /home/leon/git/swp-report/iMX6_Platform_SDK/output/mx6sdl/obds/evb_rev_a/obj/sdk/drivers/ipu/test/ipu_image.o
 .data          0x100d1678        0x0 /home/leon/git/swp-report/iMX6_Platform_SDK/output/mx6sdl/obds/evb_rev_a/obj/sdk/drivers/spi/test/imx_spi_nor_atmel.o
 .data          0x100d1678        0x0 /home/leon/git/swp-report/iMX6_Platform_SDK/output/mx6sdl/obds/evb_rev_a/obj/sdk/drivers/spi/test/spi_nor_numonyx.o
 .data          0x100d1678        0x4 /home/leon/git/swp-report/iMX6_Platform_SDK/output/mx6sdl/obds/evb_rev_a/obj/sdk/drivers/uart/test/uart_test.o
 .data          0x100d167c        0x0 /home/leon/git/swp-report/iMX6_Platform_SDK/output/mx6sdl/obds/evb_rev_a/obj/sdk/drivers/usb/test/usb0_host_test.o
 .data          0x100d167c       0x28 /home/leon/git/swp-report/iMX6_Platform_SDK/output/mx6sdl/obds/evb_rev_a/obj/sdk/drivers/usb/test/usb0_host_testmodes_test.o
 .data          0x100d16a4       0x68 /home/leon/git/swp-report/iMX6_Platform_SDK/output/mx6sdl/obds/evb_rev_a/obj/sdk/drivers/usdhc/test/usdhc_test.o
 .data          0x100d170c        0x0 /home/leon/git/swp-report/iMX6_Platform_SDK/output/mx6sdl/lib/libsdk.a(max7310.o)
 .data          0x100d170c        0x0 /home/leon/git/swp-report/iMX6_Platform_SDK/output/mx6sdl/lib/libsdk.a(ccm_pll.o)
 .data          0x100d170c        0x0 /home/leon/git/swp-report/iMX6_Platform_SDK/output/mx6sdl/lib/libsdk.a(cortexA9.o)
 .data          0x100d170c        0x0 /home/leon/git/swp-report/iMX6_Platform_SDK/output/mx6sdl/lib/libsdk.a(gic.o)
 .data          0x100d170c        0x0 /home/leon/git/swp-report/iMX6_Platform_SDK/output/mx6sdl/lib/libsdk.a(interrupt.o)
 .data          0x100d170c        0x0 /home/leon/git/swp-report/iMX6_Platform_SDK/output/mx6sdl/lib/libsdk.a(mmu.o)
 .data          0x100d170c        0x0 /home/leon/git/swp-report/iMX6_Platform_SDK/output/mx6sdl/lib/libsdk.a(startup.o)
 .data          0x100d170c        0x0 /home/leon/git/swp-report/iMX6_Platform_SDK/output/mx6sdl/lib/libsdk.a(vectors.o)
 .data          0x100d170c        0x4 /home/leon/git/swp-report/iMX6_Platform_SDK/output/mx6sdl/lib/libsdk.a(menu.o)
 .data          0x100d1710        0x0 /home/leon/git/swp-report/iMX6_Platform_SDK/output/mx6sdl/lib/libsdk.a(sdk_version.o)
 .data          0x100d1710        0x0 /home/leon/git/swp-report/iMX6_Platform_SDK/output/mx6sdl/lib/libsdk.a(system_util.o)
 .data          0x100d1710        0x4 /home/leon/git/swp-report/iMX6_Platform_SDK/output/mx6sdl/lib/libsdk.a(text_color.o)
                0x100d1710                is_color_supported
 .data          0x100d1714       0x28 /home/leon/git/swp-report/iMX6_Platform_SDK/output/mx6sdl/lib/libsdk.a(cs42888.o)
                0x100d1714                cs42888_ops
                0x100d172c                cs42888
 .data          0x100d173c       0x60 /home/leon/git/swp-report/iMX6_Platform_SDK/output/mx6sdl/lib/libsdk.a(imx-ssi.o)
                0x100d1754                imx_ssi_1
                0x100d176c                imx_ssi_2
                0x100d1784                imx_ssi_3
 .data          0x100d179c       0x30 /home/leon/git/swp-report/iMX6_Platform_SDK/output/mx6sdl/lib/libsdk.a(imx_esai.o)
                0x100d17b4                imx_esai_1
 .data          0x100d17cc       0x30 /home/leon/git/swp-report/iMX6_Platform_SDK/output/mx6sdl/lib/libsdk.a(imx_spdif.o)
                0x100d17e4                imx_spdif
 .data          0x100d17fc       0x28 /home/leon/git/swp-report/iMX6_Platform_SDK/output/mx6sdl/lib/libsdk.a(sgtl5000.o)
                0x100d17fc                sgtl5000_ops
                0x100d1814                sgtl5000
 .data          0x100d1824       0x28 /home/leon/git/swp-report/iMX6_Platform_SDK/output/mx6sdl/lib/libsdk.a(wm8958_dac.o)
                0x100d1824                wm8958_ops
                0x100d183c                wm8958
 .data          0x100d184c       0x28 /home/leon/git/swp-report/iMX6_Platform_SDK/output/mx6sdl/lib/libsdk.a(wm8962.o)
                0x100d184c                wm8962_ops
                0x100d1864                wm8962
 .data          0x100d1874        0x0 /home/leon/git/swp-report/iMX6_Platform_SDK/output/mx6sdl/lib/libsdk.a(board_id.o)
 .data          0x100d1874       0x30 /home/leon/git/swp-report/iMX6_Platform_SDK/output/mx6sdl/lib/libsdk.a(smd_sensor.o)
                0x100d1874                ov5642_strobe_on
 .data          0x100d18a4        0x0 /home/leon/git/swp-report/iMX6_Platform_SDK/output/mx6sdl/lib/libsdk.a(enet_drv.o)
 .data          0x100d18a4    0xf2cf0 /home/leon/git/swp-report/iMX6_Platform_SDK/output/mx6sdl/lib/libsdk.a(mxc_epdc.o)
                0x100d18a4                wv_data
                0x101a2a84                fsl_gray_600x230
 .data          0x101c4594        0x0 /home/leon/git/swp-report/iMX6_Platform_SDK/output/mx6sdl/lib/libsdk.a(gpio.o)
 .data          0x101c4594        0x0 /home/leon/git/swp-report/iMX6_Platform_SDK/output/mx6sdl/lib/libsdk.a(imx6sdl_gpio_map.o)
 .data          0x101c4594        0x0 /home/leon/git/swp-report/iMX6_Platform_SDK/output/mx6sdl/lib/libsdk.a(hdmi_tx.o)
 .data          0x101c4594        0x0 /home/leon/git/swp-report/iMX6_Platform_SDK/output/mx6sdl/lib/libsdk.a(hdmi_tx_audio.o)
 .data          0x101c4594        0x0 /home/leon/git/swp-report/iMX6_Platform_SDK/output/mx6sdl/lib/libsdk.a(hdmi_tx_phy.o)
 .data          0x101c4594        0x0 /home/leon/git/swp-report/iMX6_Platform_SDK/output/mx6sdl/lib/libsdk.a(imx_i2c.o)
 .data          0x101c4594      0x368 /home/leon/git/swp-report/iMX6_Platform_SDK/output/mx6sdl/lib/libsdk.a(ips_disp_panel.o)
                0x101c4594                disp_dev_list
                0x101c48f8                num_of_panels
 .data          0x101c48fc        0x0 /home/leon/git/swp-report/iMX6_Platform_SDK/output/mx6sdl/lib/libsdk.a(ipu_common.o)
 .data          0x101c48fc        0x0 /home/leon/git/swp-report/iMX6_Platform_SDK/output/mx6sdl/lib/libsdk.a(ipu_csi.o)
 .data          0x101c48fc        0x0 /home/leon/git/swp-report/iMX6_Platform_SDK/output/mx6sdl/lib/libsdk.a(ipu_dc.o)
 .data          0x101c48fc        0x0 /home/leon/git/swp-report/iMX6_Platform_SDK/output/mx6sdl/lib/libsdk.a(ipu_di.o)
 .data          0x101c48fc        0x0 /home/leon/git/swp-report/iMX6_Platform_SDK/output/mx6sdl/lib/libsdk.a(ipu_dmfc.o)
 .data          0x101c48fc        0x0 /home/leon/git/swp-report/iMX6_Platform_SDK/output/mx6sdl/lib/libsdk.a(ipu_dp.o)
 .data          0x101c48fc        0x0 /home/leon/git/swp-report/iMX6_Platform_SDK/output/mx6sdl/lib/libsdk.a(ipu_idmac.o)
 .data          0x101c48fc        0x0 /home/leon/git/swp-report/iMX6_Platform_SDK/output/mx6sdl/lib/libsdk.a(ipu_vdi.o)
 .data          0x101c48fc        0x0 /home/leon/git/swp-report/iMX6_Platform_SDK/output/mx6sdl/lib/libsdk.a(ldb.o)
 .data          0x101c48fc        0x0 /home/leon/git/swp-report/iMX6_Platform_SDK/output/mx6sdl/lib/libsdk.a(ocotp.o)
 .data          0x101c48fc        0x0 /home/leon/git/swp-report/iMX6_Platform_SDK/output/mx6sdl/lib/libsdk.a(ecspi.o)
 .data          0x101c48fc        0x0 /home/leon/git/swp-report/iMX6_Platform_SDK/output/mx6sdl/lib/libsdk.a(timer.o)
 .data          0x101c48fc        0x0 /home/leon/git/swp-report/iMX6_Platform_SDK/output/mx6sdl/lib/libsdk.a(imx_uart.o)
 .data          0x101c48fc        0x0 /home/leon/git/swp-report/iMX6_Platform_SDK/output/mx6sdl/lib/libsdk.a(usb_common.o)
 .data          0x101c48fc        0x0 /home/leon/git/swp-report/iMX6_Platform_SDK/output/mx6sdl/lib/libsdk.a(usbh_drv.o)
 .data          0x101c48fc       0x58 /home/leon/git/swp-report/iMX6_Platform_SDK/output/mx6sdl/lib/libsdk.a(usdhc.o)
                0x101c48fc                usdhc_device
                0x101c494c                card_detect_test_en
                0x101c4950                write_protect_test_en
 .data          0x101c4954        0x0 /home/leon/git/swp-report/iMX6_Platform_SDK/output/mx6sdl/lib/libsdk.a(usdhc_host.o)
 .data          0x101c4954        0x4 /home/leon/git/swp-report/iMX6_Platform_SDK/output/mx6sdl/lib/libsdk.a(usdhc_mmc.o)
 .data          0x101c4958        0x0 /home/leon/git/swp-report/iMX6_Platform_SDK/output/mx6sdl/lib/libsdk.a(usdhc_sd.o)
 .data          0x101c4958      0x230 /home/leon/git/swp-report/iMX6_Platform_SDK/output/mx6sdl/lib/libsdk.a(adv7180.o)
                0x101c4958                video_fmts
                0x101c49ac                adv7180_work_mode
 .data          0x101c4b88        0x4 /home/leon/git/swp-report/iMX6_Platform_SDK/output/mx6sdl/lib/libsdk.a(arm_abort.o)
 .data          0x101c4b8c        0x0 /home/leon/git/swp-report/iMX6_Platform_SDK/output/mx6sdl/lib/libsdk.a(armv7_cache.o)
 .data          0x101c4b8c    0x1e3c0 /home/leon/git/swp-report/iMX6_Platform_SDK/output/mx6sdl/lib/libsdk.a(camera_profile.o)
                0x101c4b8c                g_ov3640_sensor_detection
                0x101c4bac                g_ov5640_sensor_detection
                0x101c4bcc                g_ov5642_sensor_detection
                0x101c4bec                g_mt9p111_sensor_detection
                0x101c4bfc                g_ov3640_mode_vga_640_480_30fps
                0x101c535c                g_ov5640_mode_vga_640_480_30fps
                0x101c62dc                g_ov5642_mode_vga_640_480_30fps
                0x101c81fc                g_ov5642_af_firmware
                0x101deecc                g_ov5642_af_trigger
                0x101deeec                g_ov5642_af_ready
                0x101deefc                g_mt9p111_mode_vga_640_480_30fps
                0x101e263c                g_mt9p111_af_firmware
                0x101e2d7c                g_mt9p111_af_trigger
                0x101e2dac                g_mt9p111_af_ready
                0x101e2dbc                g_camera_modes
                0x101e2ddc                g_camera_profiles
 .data          0x101e2f4c        0x0 /home/leon/git/swp-report/iMX6_Platform_SDK/output/mx6sdl/lib/libsdk.a(hdmi_common.o)
 .data          0x101e2f4c        0x0 /home/leon/git/swp-report/iMX6_Platform_SDK/output/mx6sdl/lib/libsdk.a(ipu_ic.o)
 .data          0x101e2f4c        0x0 /home/leon/git/swp-report/iMX6_Platform_SDK/output/mx6sdl/lib/libsdk.a(epit.o)
 .data          0x101e2f4c        0x0 /home/leon/git/swp-report/iMX6_Platform_SDK/output/mx6sdl/lib/libsdk.a(mx6x_usb.o)
 .data          0x101e2f4c        0x0 /home/leon/git/swp-report/iMX6_Platform_SDK/output/mx6sdl/lib/libsdk.a(abort_handler.o)
 .data          0x101e2f4c        0x0 /home/leon/git/swp-report/iMX6_Platform_SDK/output/mx6sdl/lib/libboard_evb_rev_a.a(board_audio.o)
 .data          0x101e2f4c        0x0 /home/leon/git/swp-report/iMX6_Platform_SDK/output/mx6sdl/lib/libboard_evb_rev_a.a(board_buttons.o)
 .data          0x101e2f4c        0x1 /home/leon/git/swp-report/iMX6_Platform_SDK/output/mx6sdl/lib/libboard_evb_rev_a.a(board_camera.o)
                0x101e2f4c                g_camera_i2c_port
 .data          0x101e2f4d        0x0 /home/leon/git/swp-report/iMX6_Platform_SDK/output/mx6sdl/lib/libboard_evb_rev_a.a(board_display.o)
 .data          0x101e2f4d        0x0 /home/leon/git/swp-report/iMX6_Platform_SDK/output/mx6sdl/lib/libboard_evb_rev_a.a(board_hdmi.o)
 .data          0x101e2f4d        0x0 /home/leon/git/swp-report/iMX6_Platform_SDK/output/mx6sdl/lib/libboard_evb_rev_a.a(board_i2c.o)
 .data          0x101e2f4d        0x0 /home/leon/git/swp-report/iMX6_Platform_SDK/output/mx6sdl/lib/libboard_evb_rev_a.a(board_io_expanders.o)
 .data          0x101e2f4d        0x0 /home/leon/git/swp-report/iMX6_Platform_SDK/output/mx6sdl/lib/libboard_evb_rev_a.a(board_mipi.o)
 .data          0x101e2f4d        0x0 /home/leon/git/swp-report/iMX6_Platform_SDK/output/mx6sdl/lib/libboard_evb_rev_a.a(board_network.o)
 .data          0x101e2f4d        0x0 /home/leon/git/swp-report/iMX6_Platform_SDK/output/mx6sdl/lib/libboard_evb_rev_a.a(board_usb.o)
 .data          0x101e2f4d        0x0 /home/leon/git/swp-report/iMX6_Platform_SDK/output/mx6sdl/lib/libboard_evb_rev_a.a(board_usdhc.o)
 *fill*         0x101e2f4d        0x3 
 .data          0x101e2f50        0x8 /home/leon/git/swp-report/iMX6_Platform_SDK/output/mx6sdl/lib/libboard_evb_rev_a.a(hardware_modules.o)
                0x101e2f50                g_debug_uart_port
                0x101e2f54                g_system_timer_port
 .data          0x101e2f58        0x0 /home/leon/git/swp-report/iMX6_Platform_SDK/output/mx6sdl/lib/libboard_evb_rev_a.a(dcd.o)
 .data          0x101e2f58        0x0 /home/leon/git/swp-report/iMX6_Platform_SDK/output/mx6sdl/lib/libboard_evb_rev_a.a(ecspi_iomux_config.o)
 .data          0x101e2f58        0x0 /home/leon/git/swp-report/iMX6_Platform_SDK/output/mx6sdl/lib/libboard_evb_rev_a.a(enet_iomux_config.o)
 .data          0x101e2f58        0x0 /home/leon/git/swp-report/iMX6_Platform_SDK/output/mx6sdl/lib/libboard_evb_rev_a.a(esai_iomux_config.o)
 .data          0x101e2f58        0x0 /home/leon/git/swp-report/iMX6_Platform_SDK/output/mx6sdl/lib/libboard_evb_rev_a.a(i2c_iomux_config.o)
 .data          0x101e2f58        0x0 /home/leon/git/swp-report/iMX6_Platform_SDK/output/mx6sdl/lib/libboard_evb_rev_a.a(iomux_config.o)
 .data          0x101e2f58        0x0 /home/leon/git/swp-report/iMX6_Platform_SDK/output/mx6sdl/lib/libboard_evb_rev_a.a(ipu1_iomux_config.o)
 .data          0x101e2f58        0x0 /home/leon/git/swp-report/iMX6_Platform_SDK/output/mx6sdl/lib/libboard_evb_rev_a.a(ipu_iomux_config.o)
 .data          0x101e2f58        0x0 /home/leon/git/swp-report/iMX6_Platform_SDK/output/mx6sdl/lib/libboard_evb_rev_a.a(kpp_iomux_config.o)
 .data          0x101e2f58        0x0 /home/leon/git/swp-report/iMX6_Platform_SDK/output/mx6sdl/lib/libboard_evb_rev_a.a(mlb_iomux_config.o)
 .data          0x101e2f58        0x0 /home/leon/git/swp-report/iMX6_Platform_SDK/output/mx6sdl/lib/libboard_evb_rev_a.a(mmdc_iomux_config.o)
 .data          0x101e2f58        0x0 /home/leon/git/swp-report/iMX6_Platform_SDK/output/mx6sdl/lib/libboard_evb_rev_a.a(pwm1_iomux_config.o)
 .data          0x101e2f58        0x0 /home/leon/git/swp-report/iMX6_Platform_SDK/output/mx6sdl/lib/libboard_evb_rev_a.a(sjc_iomux_config.o)
 .data          0x101e2f58        0x0 /home/leon/git/swp-report/iMX6_Platform_SDK/output/mx6sdl/lib/libboard_evb_rev_a.a(spdif_iomux_config.o)
 .data          0x101e2f58        0x0 /home/leon/git/swp-report/iMX6_Platform_SDK/output/mx6sdl/lib/libboard_evb_rev_a.a(uart2_iomux_config.o)
 .data          0x101e2f58        0x0 /home/leon/git/swp-report/iMX6_Platform_SDK/output/mx6sdl/lib/libboard_evb_rev_a.a(uart4_iomux_config.o)
 .data          0x101e2f58        0x0 /home/leon/git/swp-report/iMX6_Platform_SDK/output/mx6sdl/lib/libboard_evb_rev_a.a(uart_iomux_config.o)
 .data          0x101e2f58        0x0 /home/leon/git/swp-report/iMX6_Platform_SDK/output/mx6sdl/lib/libboard_evb_rev_a.a(usb_iomux_config.o)
 .data          0x101e2f58        0x0 /home/leon/git/swp-report/iMX6_Platform_SDK/output/mx6sdl/lib/libboard_evb_rev_a.a(usdhc1_iomux_config.o)
 .data          0x101e2f58        0x0 /home/leon/git/swp-report/iMX6_Platform_SDK/output/mx6sdl/lib/libboard_evb_rev_a.a(usdhc2_iomux_config.o)
 .data          0x101e2f58        0x0 /home/leon/git/swp-report/iMX6_Platform_SDK/output/mx6sdl/lib/libboard_evb_rev_a.a(usdhc3_iomux_config.o)
 .data          0x101e2f58        0x0 /home/leon/git/swp-report/iMX6_Platform_SDK/output/mx6sdl/lib/libboard_evb_rev_a.a(usdhc4_iomux_config.o)
 .data          0x101e2f58        0x0 /home/leon/git/swp-report/iMX6_Platform_SDK/output/mx6sdl/lib/libboard_evb_rev_a.a(usdhc_iomux_config.o)
 .data          0x101e2f58        0x0 /home/leon/git/swp-report/iMX6_Platform_SDK/output/mx6sdl/lib/libboard_evb_rev_a.a(ccm_iomux_config.o)
 .data          0x101e2f58        0x0 /home/leon/git/swp-report/iMX6_Platform_SDK/output/mx6sdl/lib/libboard_evb_rev_a.a(ecspi1_iomux_config.o)
 .data          0x101e2f58        0x0 /home/leon/git/swp-report/iMX6_Platform_SDK/output/mx6sdl/lib/libboard_evb_rev_a.a(flexcan1_iomux_config.o)
 .data          0x101e2f58        0x0 /home/leon/git/swp-report/iMX6_Platform_SDK/output/mx6sdl/lib/libboard_evb_rev_a.a(flexcan2_iomux_config.o)
 .data          0x101e2f58        0x0 /home/leon/git/swp-report/iMX6_Platform_SDK/output/mx6sdl/lib/libboard_evb_rev_a.a(gpio3_iomux_config.o)
 .data          0x101e2f58        0x0 /home/leon/git/swp-report/iMX6_Platform_SDK/output/mx6sdl/lib/libboard_evb_rev_a.a(gpio4_iomux_config.o)
 .data          0x101e2f58        0x0 /home/leon/git/swp-report/iMX6_Platform_SDK/output/mx6sdl/lib/libboard_evb_rev_a.a(gpio5_iomux_config.o)
 .data          0x101e2f58        0x0 /home/leon/git/swp-report/iMX6_Platform_SDK/output/mx6sdl/lib/libboard_evb_rev_a.a(gpio6_iomux_config.o)
 .data          0x101e2f58        0x0 /home/leon/git/swp-report/iMX6_Platform_SDK/output/mx6sdl/lib/libboard_evb_rev_a.a(gpmi_iomux_config.o)
 .data          0x101e2f58        0x0 /home/leon/git/swp-report/iMX6_Platform_SDK/output/mx6sdl/lib/libboard_evb_rev_a.a(hdmi_iomux_config.o)
 .data          0x101e2f58        0x0 /home/leon/git/swp-report/iMX6_Platform_SDK/output/mx6sdl/lib/libboard_evb_rev_a.a(i2c1_iomux_config.o)
 .data          0x101e2f58        0x0 /home/leon/git/swp-report/iMX6_Platform_SDK/output/mx6sdl/lib/libboard_evb_rev_a.a(i2c2_iomux_config.o)
 .data          0x101e2f58        0x0 /home/leon/git/swp-report/iMX6_Platform_SDK/output/mx6sdl/lib/libboard_evb_rev_a.a(i2c3_iomux_config.o)
 .data          0x101e2f58        0x0 /home/leon/riotboard/arm-2012.09/bin/../arm-none-eabi/lib//libc.a(lib_a-assert.o)
 .data          0x101e2f58        0x0 /home/leon/riotboard/arm-2012.09/bin/../arm-none-eabi/lib//libc.a(lib_a-bzero.o)
 .data          0x101e2f58        0x0 /home/leon/riotboard/arm-2012.09/bin/../arm-none-eabi/lib//libc.a(lib_a-fiprintf.o)
 .data          0x101e2f58        0x0 /home/leon/riotboard/arm-2012.09/bin/../arm-none-eabi/lib//libc.a(lib_a-fputc.o)
 .data          0x101e2f58      0x430 /home/leon/riotboard/arm-2012.09/bin/../arm-none-eabi/lib//libc.a(lib_a-impure.o)
                0x101e2f58                _impure_ptr
 .data          0x101e3388        0x0 /home/leon/riotboard/arm-2012.09/bin/../arm-none-eabi/lib//libc.a(lib_a-init.o)
 .data          0x101e3388        0x0 /home/leon/riotboard/arm-2012.09/bin/../arm-none-eabi/lib//libc.a(lib_a-malloc.o)
 .data          0x101e3388      0x410 /home/leon/riotboard/arm-2012.09/bin/../arm-none-eabi/lib//libc.a(lib_a-mallocr.o)
                0x101e3388                __malloc_av_
                0x101e3790                __malloc_sbrk_base
                0x101e3794                __malloc_trim_threshold
 .data          0x101e3798        0x0 /home/leon/riotboard/arm-2012.09/bin/../arm-none-eabi/lib//libc.a(lib_a-memcpy.o)
 .data          0x101e3798        0x0 /home/leon/riotboard/arm-2012.09/bin/../arm-none-eabi/lib//libc.a(lib_a-memset.o)
 .data          0x101e3798        0x0 /home/leon/riotboard/arm-2012.09/bin/../arm-none-eabi/lib//libc.a(lib_a-mlock.o)
 .data          0x101e3798        0x0 /home/leon/riotboard/arm-2012.09/bin/../arm-none-eabi/lib//libc.a(lib_a-printf.o)
 .data          0x101e3798        0x0 /home/leon/riotboard/arm-2012.09/bin/../arm-none-eabi/lib//libc.a(lib_a-putc.o)
 .data          0x101e3798        0x0 /home/leon/riotboard/arm-2012.09/bin/../arm-none-eabi/lib//libc.a(lib_a-realloc.o)
 .data          0x101e3798        0x0 /home/leon/riotboard/arm-2012.09/bin/../arm-none-eabi/lib//libc.a(lib_a-reallocr.o)
 .data          0x101e3798        0x0 /home/leon/riotboard/arm-2012.09/bin/../arm-none-eabi/lib//libc.a(lib_a-rget.o)
 .data          0x101e3798        0x0 /home/leon/riotboard/arm-2012.09/bin/../arm-none-eabi/lib//libc.a(lib_a-sbrkr.o)
 .data          0x101e3798        0x0 /home/leon/riotboard/arm-2012.09/bin/../arm-none-eabi/lib//libc.a(lib_a-sprintf.o)
 .data          0x101e3798        0x0 /home/leon/riotboard/arm-2012.09/bin/../arm-none-eabi/lib//libc.a(lib_a-strcat.o)
 .data          0x101e3798        0x0 /home/leon/riotboard/arm-2012.09/bin/../arm-none-eabi/lib//libc.a(lib_a-strcmp.o)
 .data          0x101e3798        0x0 /home/leon/riotboard/arm-2012.09/bin/../arm-none-eabi/lib//libc.a(lib_a-strcpy.o)
 .data          0x101e3798        0x0 /home/leon/riotboard/arm-2012.09/bin/../arm-none-eabi/lib//libc.a(lib_a-strlen.o)
 .data          0x101e3798        0x0 /home/leon/riotboard/arm-2012.09/bin/../arm-none-eabi/lib//libc.a(lib_a-strncasecmp.o)
 .data          0x101e3798        0x0 /home/leon/riotboard/arm-2012.09/bin/../arm-none-eabi/lib//libc.a(lib_a-strtok.o)
 .data          0x101e3798        0x0 /home/leon/riotboard/arm-2012.09/bin/../arm-none-eabi/lib//libc.a(lib_a-strtok_r.o)
 .data          0x101e3798        0x0 /home/leon/riotboard/arm-2012.09/bin/../arm-none-eabi/lib//libc.a(lib_a-svfprintf.o)
 .data          0x101e3798        0x0 /home/leon/riotboard/arm-2012.09/bin/../arm-none-eabi/lib//libc.a(lib_a-vfiprintf.o)
 .data          0x101e3798        0x0 /home/leon/riotboard/arm-2012.09/bin/../arm-none-eabi/lib//libc.a(lib_a-vfprintf.o)
 .data          0x101e3798        0x0 /home/leon/riotboard/arm-2012.09/bin/../arm-none-eabi/lib//libc.a(lib_a-vprintf.o)
 .data          0x101e3798        0x0 /home/leon/riotboard/arm-2012.09/bin/../arm-none-eabi/lib//libc.a(lib_a-wbuf.o)
 .data          0x101e3798        0x0 /home/leon/riotboard/arm-2012.09/bin/../arm-none-eabi/lib//libc.a(lib_a-wsetup.o)
 .data          0x101e3798        0x0 /home/leon/riotboard/arm-2012.09/bin/../arm-none-eabi/lib//libc.a(lib_a-abort.o)
 .data          0x101e3798        0x4 /home/leon/riotboard/arm-2012.09/bin/../arm-none-eabi/lib//libc.a(lib_a-ctype_.o)
                0x101e3798                __ctype_ptr__
 .data          0x101e379c        0x0 /home/leon/riotboard/arm-2012.09/bin/../arm-none-eabi/lib//libc.a(lib_a-dtoa.o)
 .data          0x101e379c        0x0 /home/leon/riotboard/arm-2012.09/bin/../arm-none-eabi/lib//libc.a(lib_a-fflush.o)
 .data          0x101e379c        0x0 /home/leon/riotboard/arm-2012.09/bin/../arm-none-eabi/lib//libc.a(lib_a-findfp.o)
 .data          0x101e379c        0x0 /home/leon/riotboard/arm-2012.09/bin/../arm-none-eabi/lib//libc.a(lib_a-fputwc.o)
 .data          0x101e379c        0x0 /home/leon/riotboard/arm-2012.09/bin/../arm-none-eabi/lib//libc.a(lib_a-freer.o)
 .data          0x101e379c        0x0 /home/leon/riotboard/arm-2012.09/bin/../arm-none-eabi/lib//libc.a(lib_a-fvwrite.o)
 .data          0x101e379c        0x0 /home/leon/riotboard/arm-2012.09/bin/../arm-none-eabi/lib//libc.a(lib_a-fwalk.o)
 .data          0x101e379c       0x7c /home/leon/riotboard/arm-2012.09/bin/../arm-none-eabi/lib//libc.a(lib_a-locale.o)
                0x101e37bc                __mb_cur_max
 .data          0x101e3818        0x0 /home/leon/riotboard/arm-2012.09/bin/../arm-none-eabi/lib//libc.a(lib_a-makebuf.o)
 .data          0x101e3818        0x0 /home/leon/riotboard/arm-2012.09/bin/../arm-none-eabi/lib//libc.a(lib_a-memchr.o)
 .data          0x101e3818        0x0 /home/leon/riotboard/arm-2012.09/bin/../arm-none-eabi/lib//libc.a(lib_a-memmove.o)
 .data          0x101e3818        0x0 /home/leon/riotboard/arm-2012.09/bin/../arm-none-eabi/lib//libc.a(lib_a-mprec.o)
 .data          0x101e3818        0x0 /home/leon/riotboard/arm-2012.09/bin/../arm-none-eabi/lib//libc.a(lib_a-reent.o)
 .data          0x101e3818        0x0 /home/leon/riotboard/arm-2012.09/bin/../arm-none-eabi/lib//libc.a(lib_a-refill.o)
 .data          0x101e3818        0x0 /home/leon/riotboard/arm-2012.09/bin/../arm-none-eabi/lib//libc.a(lib_a-s_fpclassify.o)
 .data          0x101e3818        0x0 /home/leon/riotboard/arm-2012.09/bin/../arm-none-eabi/lib//libc.a(lib_a-signal.o)
 .data          0x101e3818        0x0 /home/leon/riotboard/arm-2012.09/bin/../arm-none-eabi/lib//libc.a(lib_a-signalr.o)
 .data          0x101e3818        0x0 /home/leon/riotboard/arm-2012.09/bin/../arm-none-eabi/lib//libc.a(lib_a-stdio.o)
 .data          0x101e3818        0x0 /home/leon/riotboard/arm-2012.09/bin/../arm-none-eabi/lib//libc.a(lib_a-svfiprintf.o)
 .data          0x101e3818        0x0 /home/leon/riotboard/arm-2012.09/bin/../arm-none-eabi/lib//libc.a(lib_a-wcrtomb.o)
 .data          0x101e3818        0x4 /home/leon/riotboard/arm-2012.09/bin/../arm-none-eabi/lib//libc.a(lib_a-wctomb_r.o)
                0x101e3818                __wctomb
 .data          0x101e381c        0x0 /home/leon/riotboard/arm-2012.09/bin/../arm-none-eabi/lib//libc.a(lib_a-writer.o)
 .data          0x101e381c        0x0 /home/leon/riotboard/arm-2012.09/bin/../arm-none-eabi/lib//libc.a(lib_a-callocr.o)
 .data          0x101e381c        0x0 /home/leon/riotboard/arm-2012.09/bin/../arm-none-eabi/lib//libc.a(lib_a-closer.o)
 .data          0x101e381c        0x0 /home/leon/riotboard/arm-2012.09/bin/../arm-none-eabi/lib//libc.a(lib_a-fclose.o)
 .data          0x101e381c        0x0 /home/leon/riotboard/arm-2012.09/bin/../arm-none-eabi/lib//libc.a(lib_a-fstatr.o)
 .data          0x101e381c        0x0 /home/leon/riotboard/arm-2012.09/bin/../arm-none-eabi/lib//libc.a(lib_a-isattyr.o)
 .data          0x101e381c        0x0 /home/leon/riotboard/arm-2012.09/bin/../arm-none-eabi/lib//libc.a(lib_a-lseekr.o)
 .data          0x101e381c        0x0 /home/leon/riotboard/arm-2012.09/bin/../arm-none-eabi/lib//libc.a(lib_a-readr.o)
 .data          0x101e381c        0x0 /home/leon/riotboard/arm-2012.09/bin/../lib/gcc/arm-none-eabi/4.7.2//libgcc.a(_udivsi3.o)
 .data          0x101e381c        0x0 /home/leon/riotboard/arm-2012.09/bin/../lib/gcc/arm-none-eabi/4.7.2//libgcc.a(_divsi3.o)
 .data          0x101e381c        0x0 /home/leon/riotboard/arm-2012.09/bin/../lib/gcc/arm-none-eabi/4.7.2//libgcc.a(_dvmd_tls.o)
 .data          0x101e381c        0x0 /home/leon/riotboard/arm-2012.09/bin/../lib/gcc/arm-none-eabi/4.7.2//libgcc.a(_arm_addsubdf3.o)
 .data          0x101e381c        0x0 /home/leon/riotboard/arm-2012.09/bin/../lib/gcc/arm-none-eabi/4.7.2//libgcc.a(_arm_muldivdf3.o)
 .data          0x101e381c        0x0 /home/leon/riotboard/arm-2012.09/bin/../lib/gcc/arm-none-eabi/4.7.2//libgcc.a(_arm_cmpdf2.o)
 .data          0x101e381c        0x0 /home/leon/riotboard/arm-2012.09/bin/../lib/gcc/arm-none-eabi/4.7.2//libgcc.a(_arm_fixdfsi.o)
 .data          0x101e381c        0x0 /home/leon/riotboard/arm-2012.09/bin/../lib/gcc/arm-none-eabi/4.7.2//libgcc.a(_aeabi_uldivmod.o)
 .data          0x101e381c        0x0 /home/leon/riotboard/arm-2012.09/bin/../lib/gcc/arm-none-eabi/4.7.2//libgcc.a(bpabi.o)
 .data          0x101e381c        0x0 /home/leon/riotboard/arm-2012.09/bin/../lib/gcc/arm-none-eabi/4.7.2//libgcc.a(_divdi3.o)
 .data          0x101e381c        0x0 /home/leon/riotboard/arm-2012.09/bin/../lib/gcc/arm-none-eabi/4.7.2//libgcc.a(_udivdi3.o)
 .data          0x101e381c        0x0 /home/leon/riotboard/arm-2012.09/bin/../lib/gcc/arm-none-eabi/4.7.2//libgcc.a(_clzsi2.o)
 .data          0x101e381c        0x4 /home/leon/git/swp-report/iMX6_Platform_SDK/output/mx6sdl/lib/libsdk.a(runtime_support.o)
                0x101e381c                environ

.jcr            0x101e3820        0x4
 .jcr           0x101e3820        0x0 /home/leon/riotboard/arm-2012.09/bin/../lib/gcc/arm-none-eabi/4.7.2//crtbegin.o
 .jcr           0x101e3820        0x4 /home/leon/riotboard/arm-2012.09/bin/../lib/gcc/arm-none-eabi/4.7.2//crtend.o

.tm_clone_table
                0x101e3824        0x0
 .tm_clone_table
                0x101e3824        0x0 /home/leon/riotboard/arm-2012.09/bin/../lib/gcc/arm-none-eabi/4.7.2//crtbegin.o
 .tm_clone_table
                0x101e3824        0x0 /home/leon/riotboard/arm-2012.09/bin/../lib/gcc/arm-none-eabi/4.7.2//crtend.o

.igot.plt       0x101e3824        0x0
 .igot.plt      0x00000000        0x0 /home/leon/riotboard/arm-2012.09/bin/../lib/gcc/arm-none-eabi/4.7.2//crtbegin.o

.hab.data       0x10400000     0x2000
                0x10400000                __hab_data = .
                0x10402000                . = (. + 0x2000)
 *fill*         0x10400000     0x2000 
                0x10402000                . = ALIGN (0x20)
                0x10402000                __hab_data_end = .
                0x00402000                _image_size = (. - _start_image_add)

.bss            0x10402000   0x1213e8
                0x10402000                __bss_start__ = .
 *(.shbss)
 *(.bss .bss.* .gnu.linkonce.b.*)
 .bss           0x10402000       0x1c /home/leon/riotboard/arm-2012.09/bin/../lib/gcc/arm-none-eabi/4.7.2//crtbegin.o
 .bss           0x1040201c        0x0 /home/leon/riotboard/arm-2012.09/bin/../lib/gcc/arm-none-eabi/4.7.2//crti.o
 .bss           0x1040201c        0x0 /home/leon/riotboard/arm-2012.09/bin/../lib/gcc/arm-none-eabi/4.7.2//crtend.o
 .bss           0x1040201c        0x0 /home/leon/riotboard/arm-2012.09/bin/../lib/gcc/arm-none-eabi/4.7.2//crtn.o
 .bss           0x1040201c        0x0 /home/leon/git/swp-report/iMX6_Platform_SDK/output/mx6sdl/obds/evb_rev_a/obj/apps/common/ivt.o
 .bss           0x1040201c        0x0 /home/leon/git/swp-report/iMX6_Platform_SDK/output/mx6sdl/obds/evb_rev_a/obj/apps/common/platform_init.o
 .bss           0x1040201c        0x0 /home/leon/git/swp-report/iMX6_Platform_SDK/output/mx6sdl/obds/evb_rev_a/obj/apps/common/print_clock_info.o
 .bss           0x1040201c        0x0 /home/leon/git/swp-report/iMX6_Platform_SDK/output/mx6sdl/obds/evb_rev_a/obj/apps/common/print_version.o
 .bss           0x1040201c      0x7d4 /home/leon/git/swp-report/iMX6_Platform_SDK/output/mx6sdl/obds/evb_rev_a/obj/apps/obds/src/obds.o
                0x1040201c                total_tests
                0x10402020                main_menuitems
                0x104024d0                obds_tests
 .bss           0x104027f0        0x0 /home/leon/git/swp-report/iMX6_Platform_SDK/output/mx6sdl/obds/evb_rev_a/obj/apps/obds/src/obds_utils.o
 .bss           0x104027f0        0x0 /home/leon/git/swp-report/iMX6_Platform_SDK/output/mx6sdl/obds/evb_rev_a/obj/apps/obds/src/tests/android_buttons_test.o
 .bss           0x104027f0        0x0 /home/leon/git/swp-report/iMX6_Platform_SDK/output/mx6sdl/obds/evb_rev_a/obj/apps/obds/src/tests/audio_esai_test.o
 .bss           0x104027f0   0x100004 /home/leon/git/swp-report/iMX6_Platform_SDK/output/mx6sdl/obds/evb_rev_a/obj/apps/obds/src/tests/audio_ssi_test.o
                0x104027f0                audio_record_buf
                0x105027f0                snd_card
 .bss           0x105027f4        0x0 /home/leon/git/swp-report/iMX6_Platform_SDK/output/mx6sdl/obds/evb_rev_a/obj/apps/obds/src/tests/ddr_test.o
 .bss           0x105027f4        0x4 /home/leon/git/swp-report/iMX6_Platform_SDK/output/mx6sdl/obds/evb_rev_a/obj/apps/obds/src/tests/deserializer_ds90ur124.o
                0x105027f4                ds90ur124_test_enable
 .bss           0x105027f8       0x70 /home/leon/git/swp-report/iMX6_Platform_SDK/output/mx6sdl/obds/evb_rev_a/obj/apps/obds/src/tests/display_test.o
                0x105027f8                panel_name
                0x10502818                ipu_display_panel
 .bss           0x10502868     0x1028 /home/leon/git/swp-report/iMX6_Platform_SDK/output/mx6sdl/obds/evb_rev_a/obj/apps/obds/src/tests/enet_mx6dldq_test.o
 .bss           0x10503890        0x0 /home/leon/git/swp-report/iMX6_Platform_SDK/output/mx6sdl/obds/evb_rev_a/obj/apps/obds/src/tests/flexcan_test.o
 .bss           0x10503890       0x28 /home/leon/git/swp-report/iMX6_Platform_SDK/output/mx6sdl/obds/evb_rev_a/obj/apps/obds/src/tests/fm_tuner_si476x_test.o
                0x10503890                si476x_i2c_req
                0x105038b4                si476x_test_enable
 .bss           0x105038b8        0x0 /home/leon/git/swp-report/iMX6_Platform_SDK/output/mx6sdl/obds/evb_rev_a/obj/apps/obds/src/tests/gpio_led.o
 .bss           0x105038b8        0x4 /home/leon/git/swp-report/iMX6_Platform_SDK/output/mx6sdl/obds/evb_rev_a/obj/apps/obds/src/tests/gps_test.o
                0x105038b8                gps_test_enable
 .bss           0x105038bc        0x0 /home/leon/git/swp-report/iMX6_Platform_SDK/output/mx6sdl/obds/evb_rev_a/obj/apps/obds/src/tests/i2c_check_light_sensor_isl29023.o
 .bss           0x105038bc        0x0 /home/leon/git/swp-report/iMX6_Platform_SDK/output/mx6sdl/obds/evb_rev_a/obj/apps/obds/src/tests/i2c_device_barometer_ppl3115.o
 .bss           0x105038bc        0x0 /home/leon/git/swp-report/iMX6_Platform_SDK/output/mx6sdl/obds/evb_rev_a/obj/apps/obds/src/tests/i2c_device_check_cs42888.o
 .bss           0x105038bc        0x0 /home/leon/git/swp-report/iMX6_Platform_SDK/output/mx6sdl/obds/evb_rev_a/obj/apps/obds/src/tests/i2c_device_digital_compass_mag3110.o
 .bss           0x105038bc        0x0 /home/leon/git/swp-report/iMX6_Platform_SDK/output/mx6sdl/obds/evb_rev_a/obj/apps/obds/src/tests/i2c_device_digital_compass_mag3112.o
 .bss           0x105038bc        0x0 /home/leon/git/swp-report/iMX6_Platform_SDK/output/mx6sdl/obds/evb_rev_a/obj/apps/obds/src/tests/i2c_device_id_check_mma8450.o
 .bss           0x105038bc        0x0 /home/leon/git/swp-report/iMX6_Platform_SDK/output/mx6sdl/obds/evb_rev_a/obj/apps/obds/src/tests/i2c_device_id_check_mma8451.o
 .bss           0x105038bc        0x8 /home/leon/git/swp-report/iMX6_Platform_SDK/output/mx6sdl/obds/evb_rev_a/obj/apps/obds/src/tests/i2c_device_id_check_p1003_tsc.o
 .bss           0x105038c4        0x0 /home/leon/git/swp-report/iMX6_Platform_SDK/output/mx6sdl/obds/evb_rev_a/obj/apps/obds/src/tests/i2c_device_temp_sensor_emc1046.o
 .bss           0x105038c4        0x4 /home/leon/git/swp-report/iMX6_Platform_SDK/output/mx6sdl/obds/evb_rev_a/obj/apps/obds/src/tests/i2c_device_zigbee_mc1323.o
                0x105038c4                buf
 .bss           0x105038c8        0x4 /home/leon/git/swp-report/iMX6_Platform_SDK/output/mx6sdl/obds/evb_rev_a/obj/apps/obds/src/tests/i2c_eeprom_at24cxx_test.o
                0x105038c8                eeprom_test_enable
 .bss           0x105038cc      0x408 /home/leon/git/swp-report/iMX6_Platform_SDK/output/mx6sdl/obds/evb_rev_a/obj/apps/obds/src/tests/imx_spi_nor_test.o
                0x105038cc                spi_nor_flash_type
                0x105038d0                dev_spi_nor
                0x105038d4                spi_nor_tx_buf
                0x10503ad4                spi_nor_rx_buf
 .bss           0x10503cd4       0x28 /home/leon/git/swp-report/iMX6_Platform_SDK/output/mx6sdl/obds/evb_rev_a/obj/apps/obds/src/tests/mlb_os81050.o
                0x10503cf8                mlb_os81050_test_enable
 .bss           0x10503cfc        0xc /home/leon/git/swp-report/iMX6_Platform_SDK/output/mx6sdl/obds/evb_rev_a/obj/apps/obds/src/tests/mmcsd_test.o
                0x10503cfc                SDHC_UHSI_mode
                0x10503d00                mmcsd_bus_width
                0x10503d04                instance
 .bss           0x10503d08        0x0 /home/leon/git/swp-report/iMX6_Platform_SDK/output/mx6sdl/obds/evb_rev_a/obj/apps/obds/src/tests/pmic_da9053.o
 .bss           0x10503d08        0x0 /home/leon/git/swp-report/iMX6_Platform_SDK/output/mx6sdl/obds/evb_rev_a/obj/apps/obds/src/tests/pmic_lt3589.o
 .bss           0x10503d08        0x0 /home/leon/git/swp-report/iMX6_Platform_SDK/output/mx6sdl/obds/evb_rev_a/obj/apps/obds/src/tests/pmic_max17135.o
 .bss           0x10503d08        0x4 /home/leon/git/swp-report/iMX6_Platform_SDK/output/mx6sdl/obds/evb_rev_a/obj/apps/obds/src/tests/pmic_mc13892.o
                0x10503d08                pmic_mc13892_reg
 .bss           0x10503d0c        0x0 /home/leon/git/swp-report/iMX6_Platform_SDK/output/mx6sdl/obds/evb_rev_a/obj/apps/obds/src/tests/program_board_id.o
 .bss           0x10503d0c       0x14 /home/leon/git/swp-report/iMX6_Platform_SDK/output/mx6sdl/obds/evb_rev_a/obj/apps/obds/src/tests/program_mac_address.o
 .bss           0x10503d20        0x0 /home/leon/git/swp-report/iMX6_Platform_SDK/output/mx6sdl/obds/evb_rev_a/obj/apps/obds/src/tests/snvs_srtc_test.o
 .bss           0x10503d20        0x0 /home/leon/git/swp-report/iMX6_Platform_SDK/output/mx6sdl/obds/evb_rev_a/obj/apps/obds/src/tests/touch_button_test.o
 .bss           0x10503d20        0x4 /home/leon/git/swp-report/iMX6_Platform_SDK/output/mx6sdl/obds/evb_rev_a/obj/apps/obds/src/tests/touch_screen.o
                0x10503d20                pen_status
 .bss           0x10503d24        0x0 /home/leon/git/swp-report/iMX6_Platform_SDK/output/mx6sdl/obds/evb_rev_a/obj/apps/obds/src/tests/touch_screen_max11801.o
 .bss           0x10503d24        0x0 /home/leon/git/swp-report/iMX6_Platform_SDK/output/mx6sdl/obds/evb_rev_a/obj/apps/obds/src/tests/usb_tests_obds.o
 .bss           0x10503d24        0x0 /home/leon/git/swp-report/iMX6_Platform_SDK/output/mx6sdl/obds/evb_rev_a/obj/apps/obds/src/tests/video_dec_ARD_MB_reset_button.o
 .bss           0x10503d24        0x0 /home/leon/git/swp-report/iMX6_Platform_SDK/output/mx6sdl/obds/evb_rev_a/obj/apps/obds/src/tests/video_dec_ARD_MBrst_from_cpu_expander.o
 .bss           0x10503d24       0x24 /home/leon/git/swp-report/iMX6_Platform_SDK/output/mx6sdl/obds/evb_rev_a/obj/apps/obds/src/tests/video_dec_adv7180.o
 .bss           0x10503d48        0x0 /home/leon/git/swp-report/iMX6_Platform_SDK/output/mx6sdl/obds/evb_rev_a/obj/apps/obds/src/tests/weim_nor_flash_test.o
 .bss           0x10503d48        0x0 /home/leon/git/swp-report/iMX6_Platform_SDK/output/mx6sdl/obds/evb_rev_a/obj/sdk/common/ioexpander/test/max7310_test.o
 .bss           0x10503d48        0x0 /home/leon/git/swp-report/iMX6_Platform_SDK/output/mx6sdl/obds/evb_rev_a/obj/sdk/common/pmic/pfuse/pf0100.o
 .bss           0x10503d48        0x0 /home/leon/git/swp-report/iMX6_Platform_SDK/output/mx6sdl/obds/evb_rev_a/obj/sdk/drivers/audio/src/snd_card.o
 .bss           0x10503d48        0x0 /home/leon/git/swp-report/iMX6_Platform_SDK/output/mx6sdl/obds/evb_rev_a/obj/sdk/drivers/camera/test/adv7180_capture.o
 .bss           0x10503d48        0x0 /home/leon/git/swp-report/iMX6_Platform_SDK/output/mx6sdl/obds/evb_rev_a/obj/sdk/drivers/camera/test/camera_test.o
 .bss           0x10503d48        0x0 /home/leon/git/swp-report/iMX6_Platform_SDK/output/mx6sdl/obds/evb_rev_a/obj/sdk/drivers/camera/test/csi_test_mode.o
 .bss           0x10503d48        0x0 /home/leon/git/swp-report/iMX6_Platform_SDK/output/mx6sdl/obds/evb_rev_a/obj/sdk/drivers/camera/test/sensor_capture.o
 .bss           0x10503d48        0x4 /home/leon/git/swp-report/iMX6_Platform_SDK/output/mx6sdl/obds/evb_rev_a/obj/sdk/drivers/epdc/test/epdc_test.o
 .bss           0x10503d4c        0x0 /home/leon/git/swp-report/iMX6_Platform_SDK/output/mx6sdl/obds/evb_rev_a/obj/sdk/drivers/hdmi/test/hdmi_test.o
 .bss           0x10503d4c        0x0 /home/leon/git/swp-report/iMX6_Platform_SDK/output/mx6sdl/obds/evb_rev_a/obj/sdk/drivers/hdmi/test/init_dma_data.o
 .bss           0x10503d4c        0x0 /home/leon/git/swp-report/iMX6_Platform_SDK/output/mx6sdl/obds/evb_rev_a/obj/sdk/drivers/ipu/test/ips_display.o
 .bss           0x10503d4c        0x0 /home/leon/git/swp-report/iMX6_Platform_SDK/output/mx6sdl/obds/evb_rev_a/obj/sdk/drivers/ipu/test/ipu_image.o
 .bss           0x10503d4c      0x400 /home/leon/git/swp-report/iMX6_Platform_SDK/output/mx6sdl/obds/evb_rev_a/obj/sdk/drivers/spi/test/imx_spi_nor_atmel.o
 .bss           0x1050414c      0x400 /home/leon/git/swp-report/iMX6_Platform_SDK/output/mx6sdl/obds/evb_rev_a/obj/sdk/drivers/spi/test/spi_nor_numonyx.o
 .bss           0x1050454c        0x1 /home/leon/git/swp-report/iMX6_Platform_SDK/output/mx6sdl/obds/evb_rev_a/obj/sdk/drivers/uart/test/uart_test.o
 *fill*         0x1050454d      0xab3 
 .bss           0x10505000     0x1000 /home/leon/git/swp-report/iMX6_Platform_SDK/output/mx6sdl/obds/evb_rev_a/obj/sdk/drivers/usb/test/usb0_host_test.o
                0x10505000                frame_list
 .bss           0x10506000        0x0 /home/leon/git/swp-report/iMX6_Platform_SDK/output/mx6sdl/obds/evb_rev_a/obj/sdk/drivers/usb/test/usb0_host_testmodes_test.o
 .bss           0x10506000    0x17d00 /home/leon/git/swp-report/iMX6_Platform_SDK/output/mx6sdl/obds/evb_rev_a/obj/sdk/drivers/usdhc/test/usdhc_test.o
 .bss           0x1051dd00        0x4 /home/leon/git/swp-report/iMX6_Platform_SDK/output/mx6sdl/lib/libsdk.a(max7310.o)
 .bss           0x1051dd04        0x0 /home/leon/git/swp-report/iMX6_Platform_SDK/output/mx6sdl/lib/libsdk.a(ccm_pll.o)
 .bss           0x1051dd04        0x0 /home/leon/git/swp-report/iMX6_Platform_SDK/output/mx6sdl/lib/libsdk.a(cortexA9.o)
 .bss           0x1051dd04        0x0 /home/leon/git/swp-report/iMX6_Platform_SDK/output/mx6sdl/lib/libsdk.a(gic.o)
 .bss           0x1051dd04      0x290 /home/leon/git/swp-report/iMX6_Platform_SDK/output/mx6sdl/lib/libsdk.a(interrupt.o)
                0x1051dd04                g_interrupt_handlers
                0x1051df84                g_vectNum
 .bss           0x1051df94        0x0 /home/leon/git/swp-report/iMX6_Platform_SDK/output/mx6sdl/lib/libsdk.a(mmu.o)
 .bss           0x1051df94        0x0 /home/leon/git/swp-report/iMX6_Platform_SDK/output/mx6sdl/lib/libsdk.a(startup.o)
 .bss           0x1051df94        0x0 /home/leon/git/swp-report/iMX6_Platform_SDK/output/mx6sdl/lib/libsdk.a(vectors.o)
 .bss           0x1051df94       0x7c /home/leon/git/swp-report/iMX6_Platform_SDK/output/mx6sdl/lib/libsdk.a(menu.o)
 .bss           0x1051e010        0x0 /home/leon/git/swp-report/iMX6_Platform_SDK/output/mx6sdl/lib/libsdk.a(sdk_version.o)
 .bss           0x1051e010        0x0 /home/leon/git/swp-report/iMX6_Platform_SDK/output/mx6sdl/lib/libsdk.a(system_util.o)
 .bss           0x1051e010        0x0 /home/leon/git/swp-report/iMX6_Platform_SDK/output/mx6sdl/lib/libsdk.a(text_color.o)
 .bss           0x1051e010       0x24 /home/leon/git/swp-report/iMX6_Platform_SDK/output/mx6sdl/lib/libsdk.a(cs42888.o)
                0x1051e010                cs42888_i2c_req
 .bss           0x1051e034        0x0 /home/leon/git/swp-report/iMX6_Platform_SDK/output/mx6sdl/lib/libsdk.a(imx-ssi.o)
 .bss           0x1051e034        0x0 /home/leon/git/swp-report/iMX6_Platform_SDK/output/mx6sdl/lib/libsdk.a(imx_esai.o)
 .bss           0x1051e034        0x0 /home/leon/git/swp-report/iMX6_Platform_SDK/output/mx6sdl/lib/libsdk.a(imx_spdif.o)
 .bss           0x1051e034       0x28 /home/leon/git/swp-report/iMX6_Platform_SDK/output/mx6sdl/lib/libsdk.a(sgtl5000.o)
                0x1051e034                sgtl5000_i2c_req
 .bss           0x1051e05c       0x24 /home/leon/git/swp-report/iMX6_Platform_SDK/output/mx6sdl/lib/libsdk.a(wm8958_dac.o)
                0x1051e05c                wm8958_i2c_req
 .bss           0x1051e080       0x24 /home/leon/git/swp-report/iMX6_Platform_SDK/output/mx6sdl/lib/libsdk.a(wm8962.o)
                0x1051e080                wm8962_i2c_req
 .bss           0x1051e0a4        0x0 /home/leon/git/swp-report/iMX6_Platform_SDK/output/mx6sdl/lib/libsdk.a(board_id.o)
 .bss           0x1051e0a4        0x0 /home/leon/git/swp-report/iMX6_Platform_SDK/output/mx6sdl/lib/libsdk.a(smd_sensor.o)
 *fill*         0x1051e0a4       0x1c 
 .bss           0x1051e0c0     0x5060 /home/leon/git/swp-report/iMX6_Platform_SDK/output/mx6sdl/lib/libsdk.a(enet_drv.o)
 .bss           0x10523120        0x0 /home/leon/git/swp-report/iMX6_Platform_SDK/output/mx6sdl/lib/libsdk.a(mxc_epdc.o)
 .bss           0x10523120        0x0 /home/leon/git/swp-report/iMX6_Platform_SDK/output/mx6sdl/lib/libsdk.a(gpio.o)
 .bss           0x10523120        0x0 /home/leon/git/swp-report/iMX6_Platform_SDK/output/mx6sdl/lib/libsdk.a(imx6sdl_gpio_map.o)
 .bss           0x10523120        0x0 /home/leon/git/swp-report/iMX6_Platform_SDK/output/mx6sdl/lib/libsdk.a(hdmi_tx.o)
 .bss           0x10523120        0x0 /home/leon/git/swp-report/iMX6_Platform_SDK/output/mx6sdl/lib/libsdk.a(hdmi_tx_audio.o)
 .bss           0x10523120        0x0 /home/leon/git/swp-report/iMX6_Platform_SDK/output/mx6sdl/lib/libsdk.a(hdmi_tx_phy.o)
 .bss           0x10523120        0x0 /home/leon/git/swp-report/iMX6_Platform_SDK/output/mx6sdl/lib/libsdk.a(imx_i2c.o)
 .bss           0x10523120        0x0 /home/leon/git/swp-report/iMX6_Platform_SDK/output/mx6sdl/lib/libsdk.a(ips_disp_panel.o)
 .bss           0x10523120       0x10 /home/leon/git/swp-report/iMX6_Platform_SDK/output/mx6sdl/lib/libsdk.a(ipu_common.o)
                0x10523120                csi_vdi_direct_path
                0x10523124                csi_dma_band_mode
 .bss           0x10523130        0x0 /home/leon/git/swp-report/iMX6_Platform_SDK/output/mx6sdl/lib/libsdk.a(ipu_csi.o)
 .bss           0x10523130        0x0 /home/leon/git/swp-report/iMX6_Platform_SDK/output/mx6sdl/lib/libsdk.a(ipu_dc.o)
 .bss           0x10523130        0x0 /home/leon/git/swp-report/iMX6_Platform_SDK/output/mx6sdl/lib/libsdk.a(ipu_di.o)
 .bss           0x10523130        0x0 /home/leon/git/swp-report/iMX6_Platform_SDK/output/mx6sdl/lib/libsdk.a(ipu_dmfc.o)
 .bss           0x10523130        0x0 /home/leon/git/swp-report/iMX6_Platform_SDK/output/mx6sdl/lib/libsdk.a(ipu_dp.o)
 .bss           0x10523130        0x0 /home/leon/git/swp-report/iMX6_Platform_SDK/output/mx6sdl/lib/libsdk.a(ipu_idmac.o)
 .bss           0x10523130        0x0 /home/leon/git/swp-report/iMX6_Platform_SDK/output/mx6sdl/lib/libsdk.a(ipu_vdi.o)
 .bss           0x10523130        0x0 /home/leon/git/swp-report/iMX6_Platform_SDK/output/mx6sdl/lib/libsdk.a(ldb.o)
 .bss           0x10523130        0x0 /home/leon/git/swp-report/iMX6_Platform_SDK/output/mx6sdl/lib/libsdk.a(ocotp.o)
 .bss           0x10523130        0x0 /home/leon/git/swp-report/iMX6_Platform_SDK/output/mx6sdl/lib/libsdk.a(ecspi.o)
 .bss           0x10523130        0x4 /home/leon/git/swp-report/iMX6_Platform_SDK/output/mx6sdl/lib/libsdk.a(timer.o)
                0x10523130                g_microsecondTimerMultiple
 .bss           0x10523134        0x0 /home/leon/git/swp-report/iMX6_Platform_SDK/output/mx6sdl/lib/libsdk.a(imx_uart.o)
 .bss           0x10523134        0x0 /home/leon/git/swp-report/iMX6_Platform_SDK/output/mx6sdl/lib/libsdk.a(usb_common.o)
 .bss           0x10523134        0x0 /home/leon/git/swp-report/iMX6_Platform_SDK/output/mx6sdl/lib/libsdk.a(usbh_drv.o)
 .bss           0x10523134        0x8 /home/leon/git/swp-report/iMX6_Platform_SDK/output/mx6sdl/lib/libsdk.a(usdhc.o)
 .bss           0x1052313c        0x0 /home/leon/git/swp-report/iMX6_Platform_SDK/output/mx6sdl/lib/libsdk.a(usdhc_host.o)
 .bss           0x1052313c      0x214 /home/leon/git/swp-report/iMX6_Platform_SDK/output/mx6sdl/lib/libsdk.a(usdhc_mmc.o)
 .bss           0x10523350        0x0 /home/leon/git/swp-report/iMX6_Platform_SDK/output/mx6sdl/lib/libsdk.a(usdhc_sd.o)
 .bss           0x10523350        0x0 /home/leon/git/swp-report/iMX6_Platform_SDK/output/mx6sdl/lib/libsdk.a(adv7180.o)
 .bss           0x10523350        0x0 /home/leon/git/swp-report/iMX6_Platform_SDK/output/mx6sdl/lib/libsdk.a(arm_abort.o)
 .bss           0x10523350        0x0 /home/leon/git/swp-report/iMX6_Platform_SDK/output/mx6sdl/lib/libsdk.a(armv7_cache.o)
 .bss           0x10523350        0x0 /home/leon/git/swp-report/iMX6_Platform_SDK/output/mx6sdl/lib/libsdk.a(camera_profile.o)
 .bss           0x10523350        0x0 /home/leon/git/swp-report/iMX6_Platform_SDK/output/mx6sdl/lib/libsdk.a(hdmi_common.o)
 .bss           0x10523350        0x0 /home/leon/git/swp-report/iMX6_Platform_SDK/output/mx6sdl/lib/libsdk.a(ipu_ic.o)
 .bss           0x10523350        0x0 /home/leon/git/swp-report/iMX6_Platform_SDK/output/mx6sdl/lib/libsdk.a(epit.o)
 .bss           0x10523350        0x0 /home/leon/git/swp-report/iMX6_Platform_SDK/output/mx6sdl/lib/libsdk.a(mx6x_usb.o)
 .bss           0x10523350        0x0 /home/leon/git/swp-report/iMX6_Platform_SDK/output/mx6sdl/lib/libsdk.a(abort_handler.o)
 .bss           0x10523350        0x0 /home/leon/git/swp-report/iMX6_Platform_SDK/output/mx6sdl/lib/libboard_evb_rev_a.a(board_audio.o)
 .bss           0x10523350        0x0 /home/leon/git/swp-report/iMX6_Platform_SDK/output/mx6sdl/lib/libboard_evb_rev_a.a(board_buttons.o)
 .bss           0x10523350        0x0 /home/leon/git/swp-report/iMX6_Platform_SDK/output/mx6sdl/lib/libboard_evb_rev_a.a(board_camera.o)
 .bss           0x10523350        0x0 /home/leon/git/swp-report/iMX6_Platform_SDK/output/mx6sdl/lib/libboard_evb_rev_a.a(board_display.o)
 .bss           0x10523350        0x0 /home/leon/git/swp-report/iMX6_Platform_SDK/output/mx6sdl/lib/libboard_evb_rev_a.a(board_hdmi.o)
 .bss           0x10523350        0x0 /home/leon/git/swp-report/iMX6_Platform_SDK/output/mx6sdl/lib/libboard_evb_rev_a.a(board_i2c.o)
 .bss           0x10523350       0x48 /home/leon/git/swp-report/iMX6_Platform_SDK/output/mx6sdl/lib/libboard_evb_rev_a.a(board_io_expanders.o)
                0x10523350                max7310_i2c_req_array
 .bss           0x10523398        0x0 /home/leon/git/swp-report/iMX6_Platform_SDK/output/mx6sdl/lib/libboard_evb_rev_a.a(board_mipi.o)
 .bss           0x10523398        0x0 /home/leon/git/swp-report/iMX6_Platform_SDK/output/mx6sdl/lib/libboard_evb_rev_a.a(board_network.o)
 .bss           0x10523398        0x0 /home/leon/git/swp-report/iMX6_Platform_SDK/output/mx6sdl/lib/libboard_evb_rev_a.a(board_usb.o)
 .bss           0x10523398        0x0 /home/leon/git/swp-report/iMX6_Platform_SDK/output/mx6sdl/lib/libboard_evb_rev_a.a(board_usdhc.o)
 .bss           0x10523398        0x0 /home/leon/git/swp-report/iMX6_Platform_SDK/output/mx6sdl/lib/libboard_evb_rev_a.a(hardware_modules.o)
 .bss           0x10523398        0x0 /home/leon/git/swp-report/iMX6_Platform_SDK/output/mx6sdl/lib/libboard_evb_rev_a.a(dcd.o)
 .bss           0x10523398        0x0 /home/leon/git/swp-report/iMX6_Platform_SDK/output/mx6sdl/lib/libboard_evb_rev_a.a(ecspi_iomux_config.o)
 .bss           0x10523398        0x0 /home/leon/git/swp-report/iMX6_Platform_SDK/output/mx6sdl/lib/libboard_evb_rev_a.a(enet_iomux_config.o)
 .bss           0x10523398        0x0 /home/leon/git/swp-report/iMX6_Platform_SDK/output/mx6sdl/lib/libboard_evb_rev_a.a(esai_iomux_config.o)
 .bss           0x10523398        0x0 /home/leon/git/swp-report/iMX6_Platform_SDK/output/mx6sdl/lib/libboard_evb_rev_a.a(i2c_iomux_config.o)
 .bss           0x10523398        0x0 /home/leon/git/swp-report/iMX6_Platform_SDK/output/mx6sdl/lib/libboard_evb_rev_a.a(iomux_config.o)
 .bss           0x10523398        0x0 /home/leon/git/swp-report/iMX6_Platform_SDK/output/mx6sdl/lib/libboard_evb_rev_a.a(ipu1_iomux_config.o)
 .bss           0x10523398        0x0 /home/leon/git/swp-report/iMX6_Platform_SDK/output/mx6sdl/lib/libboard_evb_rev_a.a(ipu_iomux_config.o)
 .bss           0x10523398        0x0 /home/leon/git/swp-report/iMX6_Platform_SDK/output/mx6sdl/lib/libboard_evb_rev_a.a(kpp_iomux_config.o)
 .bss           0x10523398        0x0 /home/leon/git/swp-report/iMX6_Platform_SDK/output/mx6sdl/lib/libboard_evb_rev_a.a(mlb_iomux_config.o)
 .bss           0x10523398        0x0 /home/leon/git/swp-report/iMX6_Platform_SDK/output/mx6sdl/lib/libboard_evb_rev_a.a(mmdc_iomux_config.o)
 .bss           0x10523398        0x0 /home/leon/git/swp-report/iMX6_Platform_SDK/output/mx6sdl/lib/libboard_evb_rev_a.a(pwm1_iomux_config.o)
 .bss           0x10523398        0x0 /home/leon/git/swp-report/iMX6_Platform_SDK/output/mx6sdl/lib/libboard_evb_rev_a.a(sjc_iomux_config.o)
 .bss           0x10523398        0x0 /home/leon/git/swp-report/iMX6_Platform_SDK/output/mx6sdl/lib/libboard_evb_rev_a.a(spdif_iomux_config.o)
 .bss           0x10523398        0x0 /home/leon/git/swp-report/iMX6_Platform_SDK/output/mx6sdl/lib/libboard_evb_rev_a.a(uart2_iomux_config.o)
 .bss           0x10523398        0x0 /home/leon/git/swp-report/iMX6_Platform_SDK/output/mx6sdl/lib/libboard_evb_rev_a.a(uart4_iomux_config.o)
 .bss           0x10523398        0x0 /home/leon/git/swp-report/iMX6_Platform_SDK/output/mx6sdl/lib/libboard_evb_rev_a.a(uart_iomux_config.o)
 .bss           0x10523398        0x0 /home/leon/git/swp-report/iMX6_Platform_SDK/output/mx6sdl/lib/libboard_evb_rev_a.a(usb_iomux_config.o)
 .bss           0x10523398        0x0 /home/leon/git/swp-report/iMX6_Platform_SDK/output/mx6sdl/lib/libboard_evb_rev_a.a(usdhc1_iomux_config.o)
 .bss           0x10523398        0x0 /home/leon/git/swp-report/iMX6_Platform_SDK/output/mx6sdl/lib/libboard_evb_rev_a.a(usdhc2_iomux_config.o)
 .bss           0x10523398        0x0 /home/leon/git/swp-report/iMX6_Platform_SDK/output/mx6sdl/lib/libboard_evb_rev_a.a(usdhc3_iomux_config.o)
 .bss           0x10523398        0x0 /home/leon/git/swp-report/iMX6_Platform_SDK/output/mx6sdl/lib/libboard_evb_rev_a.a(usdhc4_iomux_config.o)
 .bss           0x10523398        0x0 /home/leon/git/swp-report/iMX6_Platform_SDK/output/mx6sdl/lib/libboard_evb_rev_a.a(usdhc_iomux_config.o)
 .bss           0x10523398        0x0 /home/leon/git/swp-report/iMX6_Platform_SDK/output/mx6sdl/lib/libboard_evb_rev_a.a(ccm_iomux_config.o)
 .bss           0x10523398        0x0 /home/leon/git/swp-report/iMX6_Platform_SDK/output/mx6sdl/lib/libboard_evb_rev_a.a(ecspi1_iomux_config.o)
 .bss           0x10523398        0x0 /home/leon/git/swp-report/iMX6_Platform_SDK/output/mx6sdl/lib/libboard_evb_rev_a.a(flexcan1_iomux_config.o)
 .bss           0x10523398        0x0 /home/leon/git/swp-report/iMX6_Platform_SDK/output/mx6sdl/lib/libboard_evb_rev_a.a(flexcan2_iomux_config.o)
 .bss           0x10523398        0x0 /home/leon/git/swp-report/iMX6_Platform_SDK/output/mx6sdl/lib/libboard_evb_rev_a.a(gpio3_iomux_config.o)
 .bss           0x10523398        0x0 /home/leon/git/swp-report/iMX6_Platform_SDK/output/mx6sdl/lib/libboard_evb_rev_a.a(gpio4_iomux_config.o)
 .bss           0x10523398        0x0 /home/leon/git/swp-report/iMX6_Platform_SDK/output/mx6sdl/lib/libboard_evb_rev_a.a(gpio5_iomux_config.o)
 .bss           0x10523398        0x0 /home/leon/git/swp-report/iMX6_Platform_SDK/output/mx6sdl/lib/libboard_evb_rev_a.a(gpio6_iomux_config.o)
 .bss           0x10523398        0x0 /home/leon/git/swp-report/iMX6_Platform_SDK/output/mx6sdl/lib/libboard_evb_rev_a.a(gpmi_iomux_config.o)
 .bss           0x10523398        0x0 /home/leon/git/swp-report/iMX6_Platform_SDK/output/mx6sdl/lib/libboard_evb_rev_a.a(hdmi_iomux_config.o)
 .bss           0x10523398        0x0 /home/leon/git/swp-report/iMX6_Platform_SDK/output/mx6sdl/lib/libboard_evb_rev_a.a(i2c1_iomux_config.o)
 .bss           0x10523398        0x0 /home/leon/git/swp-report/iMX6_Platform_SDK/output/mx6sdl/lib/libboard_evb_rev_a.a(i2c2_iomux_config.o)
 .bss           0x10523398        0x0 /home/leon/git/swp-report/iMX6_Platform_SDK/output/mx6sdl/lib/libboard_evb_rev_a.a(i2c3_iomux_config.o)
 .bss           0x10523398        0x0 /home/leon/riotboard/arm-2012.09/bin/../arm-none-eabi/lib//libc.a(lib_a-assert.o)
 .bss           0x10523398        0x0 /home/leon/riotboard/arm-2012.09/bin/../arm-none-eabi/lib//libc.a(lib_a-bzero.o)
 .bss           0x10523398        0x0 /home/leon/riotboard/arm-2012.09/bin/../arm-none-eabi/lib//libc.a(lib_a-fiprintf.o)
 .bss           0x10523398        0x0 /home/leon/riotboard/arm-2012.09/bin/../arm-none-eabi/lib//libc.a(lib_a-fputc.o)
 .bss           0x10523398        0x0 /home/leon/riotboard/arm-2012.09/bin/../arm-none-eabi/lib//libc.a(lib_a-impure.o)
 .bss           0x10523398        0x0 /home/leon/riotboard/arm-2012.09/bin/../arm-none-eabi/lib//libc.a(lib_a-init.o)
 .bss           0x10523398        0x0 /home/leon/riotboard/arm-2012.09/bin/../arm-none-eabi/lib//libc.a(lib_a-malloc.o)
 .bss           0x10523398       0x34 /home/leon/riotboard/arm-2012.09/bin/../arm-none-eabi/lib//libc.a(lib_a-mallocr.o)
                0x10523398                __malloc_top_pad
                0x1052339c                __malloc_current_mallinfo
                0x105233c4                __malloc_max_sbrked_mem
                0x105233c8                __malloc_max_total_mem
 .bss           0x105233cc        0x0 /home/leon/riotboard/arm-2012.09/bin/../arm-none-eabi/lib//libc.a(lib_a-memcpy.o)
 .bss           0x105233cc        0x0 /home/leon/riotboard/arm-2012.09/bin/../arm-none-eabi/lib//libc.a(lib_a-memset.o)
 .bss           0x105233cc        0x0 /home/leon/riotboard/arm-2012.09/bin/../arm-none-eabi/lib//libc.a(lib_a-mlock.o)
 .bss           0x105233cc        0x0 /home/leon/riotboard/arm-2012.09/bin/../arm-none-eabi/lib//libc.a(lib_a-printf.o)
 .bss           0x105233cc        0x0 /home/leon/riotboard/arm-2012.09/bin/../arm-none-eabi/lib//libc.a(lib_a-putc.o)
 .bss           0x105233cc        0x0 /home/leon/riotboard/arm-2012.09/bin/../arm-none-eabi/lib//libc.a(lib_a-realloc.o)
 .bss           0x105233cc        0x0 /home/leon/riotboard/arm-2012.09/bin/../arm-none-eabi/lib//libc.a(lib_a-reallocr.o)
 .bss           0x105233cc        0x0 /home/leon/riotboard/arm-2012.09/bin/../arm-none-eabi/lib//libc.a(lib_a-rget.o)
 .bss           0x105233cc        0x0 /home/leon/riotboard/arm-2012.09/bin/../arm-none-eabi/lib//libc.a(lib_a-sbrkr.o)
 .bss           0x105233cc        0x0 /home/leon/riotboard/arm-2012.09/bin/../arm-none-eabi/lib//libc.a(lib_a-sprintf.o)
 .bss           0x105233cc        0x0 /home/leon/riotboard/arm-2012.09/bin/../arm-none-eabi/lib//libc.a(lib_a-strcat.o)
 .bss           0x105233cc        0x0 /home/leon/riotboard/arm-2012.09/bin/../arm-none-eabi/lib//libc.a(lib_a-strcmp.o)
 .bss           0x105233cc        0x0 /home/leon/riotboard/arm-2012.09/bin/../arm-none-eabi/lib//libc.a(lib_a-strcpy.o)
 .bss           0x105233cc        0x0 /home/leon/riotboard/arm-2012.09/bin/../arm-none-eabi/lib//libc.a(lib_a-strlen.o)
 .bss           0x105233cc        0x0 /home/leon/riotboard/arm-2012.09/bin/../arm-none-eabi/lib//libc.a(lib_a-strncasecmp.o)
 .bss           0x105233cc        0x0 /home/leon/riotboard/arm-2012.09/bin/../arm-none-eabi/lib//libc.a(lib_a-strtok.o)
 .bss           0x105233cc        0x0 /home/leon/riotboard/arm-2012.09/bin/../arm-none-eabi/lib//libc.a(lib_a-strtok_r.o)
 .bss           0x105233cc        0x0 /home/leon/riotboard/arm-2012.09/bin/../arm-none-eabi/lib//libc.a(lib_a-svfprintf.o)
 .bss           0x105233cc        0x0 /home/leon/riotboard/arm-2012.09/bin/../arm-none-eabi/lib//libc.a(lib_a-vfiprintf.o)
 .bss           0x105233cc        0x0 /home/leon/riotboard/arm-2012.09/bin/../arm-none-eabi/lib//libc.a(lib_a-vfprintf.o)
 .bss           0x105233cc        0x0 /home/leon/riotboard/arm-2012.09/bin/../arm-none-eabi/lib//libc.a(lib_a-vprintf.o)
 .bss           0x105233cc        0x0 /home/leon/riotboard/arm-2012.09/bin/../arm-none-eabi/lib//libc.a(lib_a-wbuf.o)
 .bss           0x105233cc        0x0 /home/leon/riotboard/arm-2012.09/bin/../arm-none-eabi/lib//libc.a(lib_a-wsetup.o)
 .bss           0x105233cc        0x0 /home/leon/riotboard/arm-2012.09/bin/../arm-none-eabi/lib//libc.a(lib_a-abort.o)
 .bss           0x105233cc        0x0 /home/leon/riotboard/arm-2012.09/bin/../arm-none-eabi/lib//libc.a(lib_a-ctype_.o)
 .bss           0x105233cc        0x0 /home/leon/riotboard/arm-2012.09/bin/../arm-none-eabi/lib//libc.a(lib_a-dtoa.o)
 .bss           0x105233cc        0x0 /home/leon/riotboard/arm-2012.09/bin/../arm-none-eabi/lib//libc.a(lib_a-fflush.o)
 .bss           0x105233cc        0x0 /home/leon/riotboard/arm-2012.09/bin/../arm-none-eabi/lib//libc.a(lib_a-findfp.o)
 .bss           0x105233cc        0x0 /home/leon/riotboard/arm-2012.09/bin/../arm-none-eabi/lib//libc.a(lib_a-fputwc.o)
 .bss           0x105233cc        0x0 /home/leon/riotboard/arm-2012.09/bin/../arm-none-eabi/lib//libc.a(lib_a-freer.o)
 .bss           0x105233cc        0x0 /home/leon/riotboard/arm-2012.09/bin/../arm-none-eabi/lib//libc.a(lib_a-fvwrite.o)
 .bss           0x105233cc        0x0 /home/leon/riotboard/arm-2012.09/bin/../arm-none-eabi/lib//libc.a(lib_a-fwalk.o)
 .bss           0x105233cc        0xc /home/leon/riotboard/arm-2012.09/bin/../arm-none-eabi/lib//libc.a(lib_a-locale.o)
                0x105233cc                _PathLocale
                0x105233d0                __mlocale_changed
                0x105233d4                __nlocale_changed
 .bss           0x105233d8        0x0 /home/leon/riotboard/arm-2012.09/bin/../arm-none-eabi/lib//libc.a(lib_a-makebuf.o)
 .bss           0x105233d8        0x0 /home/leon/riotboard/arm-2012.09/bin/../arm-none-eabi/lib//libc.a(lib_a-memchr.o)
 .bss           0x105233d8        0x0 /home/leon/riotboard/arm-2012.09/bin/../arm-none-eabi/lib//libc.a(lib_a-memmove.o)
 .bss           0x105233d8        0x0 /home/leon/riotboard/arm-2012.09/bin/../arm-none-eabi/lib//libc.a(lib_a-mprec.o)
 .bss           0x105233d8        0x0 /home/leon/riotboard/arm-2012.09/bin/../arm-none-eabi/lib//libc.a(lib_a-reent.o)
 .bss           0x105233d8        0x0 /home/leon/riotboard/arm-2012.09/bin/../arm-none-eabi/lib//libc.a(lib_a-refill.o)
 .bss           0x105233d8        0x0 /home/leon/riotboard/arm-2012.09/bin/../arm-none-eabi/lib//libc.a(lib_a-s_fpclassify.o)
 .bss           0x105233d8        0x0 /home/leon/riotboard/arm-2012.09/bin/../arm-none-eabi/lib//libc.a(lib_a-signal.o)
 .bss           0x105233d8        0x0 /home/leon/riotboard/arm-2012.09/bin/../arm-none-eabi/lib//libc.a(lib_a-signalr.o)
 .bss           0x105233d8        0x0 /home/leon/riotboard/arm-2012.09/bin/../arm-none-eabi/lib//libc.a(lib_a-stdio.o)
 .bss           0x105233d8        0x0 /home/leon/riotboard/arm-2012.09/bin/../arm-none-eabi/lib//libc.a(lib_a-svfiprintf.o)
 .bss           0x105233d8        0x0 /home/leon/riotboard/arm-2012.09/bin/../arm-none-eabi/lib//libc.a(lib_a-wcrtomb.o)
 .bss           0x105233d8        0x0 /home/leon/riotboard/arm-2012.09/bin/../arm-none-eabi/lib//libc.a(lib_a-wctomb_r.o)
 .bss           0x105233d8        0x0 /home/leon/riotboard/arm-2012.09/bin/../arm-none-eabi/lib//libc.a(lib_a-writer.o)
 .bss           0x105233d8        0x0 /home/leon/riotboard/arm-2012.09/bin/../arm-none-eabi/lib//libc.a(lib_a-callocr.o)
 .bss           0x105233d8        0x0 /home/leon/riotboard/arm-2012.09/bin/../arm-none-eabi/lib//libc.a(lib_a-closer.o)
 .bss           0x105233d8        0x0 /home/leon/riotboard/arm-2012.09/bin/../arm-none-eabi/lib//libc.a(lib_a-fclose.o)
 .bss           0x105233d8        0x0 /home/leon/riotboard/arm-2012.09/bin/../arm-none-eabi/lib//libc.a(lib_a-fstatr.o)
 .bss           0x105233d8        0x0 /home/leon/riotboard/arm-2012.09/bin/../arm-none-eabi/lib//libc.a(lib_a-isattyr.o)
 .bss           0x105233d8        0x0 /home/leon/riotboard/arm-2012.09/bin/../arm-none-eabi/lib//libc.a(lib_a-lseekr.o)
 .bss           0x105233d8        0x0 /home/leon/riotboard/arm-2012.09/bin/../arm-none-eabi/lib//libc.a(lib_a-readr.o)
 .bss           0x105233d8        0x0 /home/leon/riotboard/arm-2012.09/bin/../lib/gcc/arm-none-eabi/4.7.2//libgcc.a(_udivsi3.o)
 .bss           0x105233d8        0x0 /home/leon/riotboard/arm-2012.09/bin/../lib/gcc/arm-none-eabi/4.7.2//libgcc.a(_divsi3.o)
 .bss           0x105233d8        0x0 /home/leon/riotboard/arm-2012.09/bin/../lib/gcc/arm-none-eabi/4.7.2//libgcc.a(_dvmd_tls.o)
 .bss           0x105233d8        0x0 /home/leon/riotboard/arm-2012.09/bin/../lib/gcc/arm-none-eabi/4.7.2//libgcc.a(_arm_addsubdf3.o)
 .bss           0x105233d8        0x0 /home/leon/riotboard/arm-2012.09/bin/../lib/gcc/arm-none-eabi/4.7.2//libgcc.a(_arm_muldivdf3.o)
 .bss           0x105233d8        0x0 /home/leon/riotboard/arm-2012.09/bin/../lib/gcc/arm-none-eabi/4.7.2//libgcc.a(_arm_cmpdf2.o)
 .bss           0x105233d8        0x0 /home/leon/riotboard/arm-2012.09/bin/../lib/gcc/arm-none-eabi/4.7.2//libgcc.a(_arm_fixdfsi.o)
 .bss           0x105233d8        0x0 /home/leon/riotboard/arm-2012.09/bin/../lib/gcc/arm-none-eabi/4.7.2//libgcc.a(_aeabi_uldivmod.o)
 .bss           0x105233d8        0x0 /home/leon/riotboard/arm-2012.09/bin/../lib/gcc/arm-none-eabi/4.7.2//libgcc.a(bpabi.o)
 .bss           0x105233d8        0x0 /home/leon/riotboard/arm-2012.09/bin/../lib/gcc/arm-none-eabi/4.7.2//libgcc.a(_divdi3.o)
 .bss           0x105233d8        0x0 /home/leon/riotboard/arm-2012.09/bin/../lib/gcc/arm-none-eabi/4.7.2//libgcc.a(_udivdi3.o)
 .bss           0x105233d8        0x0 /home/leon/riotboard/arm-2012.09/bin/../lib/gcc/arm-none-eabi/4.7.2//libgcc.a(_clzsi2.o)
 .bss           0x105233d8        0xc /home/leon/git/swp-report/iMX6_Platform_SDK/output/mx6sdl/lib/libsdk.a(runtime_support.o)
                0x105233d8                __env
 *(COMMON)
 COMMON         0x105233e4        0x4 /home/leon/riotboard/arm-2012.09/bin/../arm-none-eabi/lib//libc.a(lib_a-reent.o)
                0x105233e4                errno
 *(.bss)
                0x105233e8                __bss_end__ = .

.stacks         0x105233e8     0xc000
                0x105233e8                __stacks_start = .
                0x1052f3e8                . = (. + 0xc000)
 *fill*         0x105233e8     0xc000 
                0x1052f3e8                __stacks_end = .
                0x1052f3e8                top_of_stacks = .
                0x1052f400                free_memory_start = ALIGN (0x20)
                0x1852f3e8                . = (. + 0x8000000)
                0x1852f3e8                free_memory_end = .
                0x1852f3e8                _end = .
START GROUP
LOAD /home/leon/git/swp-report/iMX6_Platform_SDK/output/mx6sdl/obds/evb_rev_a/obj/apps/common/ivt.o
LOAD /home/leon/git/swp-report/iMX6_Platform_SDK/output/mx6sdl/obds/evb_rev_a/obj/apps/common/platform_init.o
LOAD /home/leon/git/swp-report/iMX6_Platform_SDK/output/mx6sdl/obds/evb_rev_a/obj/apps/common/print_clock_info.o
LOAD /home/leon/git/swp-report/iMX6_Platform_SDK/output/mx6sdl/obds/evb_rev_a/obj/apps/common/print_version.o
LOAD /home/leon/git/swp-report/iMX6_Platform_SDK/output/mx6sdl/obds/evb_rev_a/obj/apps/obds/src/obds.o
LOAD /home/leon/git/swp-report/iMX6_Platform_SDK/output/mx6sdl/obds/evb_rev_a/obj/apps/obds/src/obds_utils.o
LOAD /home/leon/git/swp-report/iMX6_Platform_SDK/output/mx6sdl/obds/evb_rev_a/obj/apps/obds/src/tests/android_buttons_test.o
LOAD /home/leon/git/swp-report/iMX6_Platform_SDK/output/mx6sdl/obds/evb_rev_a/obj/apps/obds/src/tests/audio_esai_test.o
LOAD /home/leon/git/swp-report/iMX6_Platform_SDK/output/mx6sdl/obds/evb_rev_a/obj/apps/obds/src/tests/audio_ssi_test.o
LOAD /home/leon/git/swp-report/iMX6_Platform_SDK/output/mx6sdl/obds/evb_rev_a/obj/apps/obds/src/tests/ddr_test.o
LOAD /home/leon/git/swp-report/iMX6_Platform_SDK/output/mx6sdl/obds/evb_rev_a/obj/apps/obds/src/tests/deserializer_ds90ur124.o
LOAD /home/leon/git/swp-report/iMX6_Platform_SDK/output/mx6sdl/obds/evb_rev_a/obj/apps/obds/src/tests/display_test.o
LOAD /home/leon/git/swp-report/iMX6_Platform_SDK/output/mx6sdl/obds/evb_rev_a/obj/apps/obds/src/tests/enet_mx6dldq_test.o
LOAD /home/leon/git/swp-report/iMX6_Platform_SDK/output/mx6sdl/obds/evb_rev_a/obj/apps/obds/src/tests/flexcan_test.o
LOAD /home/leon/git/swp-report/iMX6_Platform_SDK/output/mx6sdl/obds/evb_rev_a/obj/apps/obds/src/tests/fm_tuner_si476x_test.o
LOAD /home/leon/git/swp-report/iMX6_Platform_SDK/output/mx6sdl/obds/evb_rev_a/obj/apps/obds/src/tests/gpio_led.o
LOAD /home/leon/git/swp-report/iMX6_Platform_SDK/output/mx6sdl/obds/evb_rev_a/obj/apps/obds/src/tests/gps_test.o
LOAD /home/leon/git/swp-report/iMX6_Platform_SDK/output/mx6sdl/obds/evb_rev_a/obj/apps/obds/src/tests/i2c_check_light_sensor_isl29023.o
LOAD /home/leon/git/swp-report/iMX6_Platform_SDK/output/mx6sdl/obds/evb_rev_a/obj/apps/obds/src/tests/i2c_device_barometer_ppl3115.o
LOAD /home/leon/git/swp-report/iMX6_Platform_SDK/output/mx6sdl/obds/evb_rev_a/obj/apps/obds/src/tests/i2c_device_check_cs42888.o
LOAD /home/leon/git/swp-report/iMX6_Platform_SDK/output/mx6sdl/obds/evb_rev_a/obj/apps/obds/src/tests/i2c_device_digital_compass_mag3110.o
LOAD /home/leon/git/swp-report/iMX6_Platform_SDK/output/mx6sdl/obds/evb_rev_a/obj/apps/obds/src/tests/i2c_device_digital_compass_mag3112.o
LOAD /home/leon/git/swp-report/iMX6_Platform_SDK/output/mx6sdl/obds/evb_rev_a/obj/apps/obds/src/tests/i2c_device_id_check_mma8450.o
LOAD /home/leon/git/swp-report/iMX6_Platform_SDK/output/mx6sdl/obds/evb_rev_a/obj/apps/obds/src/tests/i2c_device_id_check_mma8451.o
LOAD /home/leon/git/swp-report/iMX6_Platform_SDK/output/mx6sdl/obds/evb_rev_a/obj/apps/obds/src/tests/i2c_device_id_check_p1003_tsc.o
LOAD /home/leon/git/swp-report/iMX6_Platform_SDK/output/mx6sdl/obds/evb_rev_a/obj/apps/obds/src/tests/i2c_device_temp_sensor_emc1046.o
LOAD /home/leon/git/swp-report/iMX6_Platform_SDK/output/mx6sdl/obds/evb_rev_a/obj/apps/obds/src/tests/i2c_device_zigbee_mc1323.o
LOAD /home/leon/git/swp-report/iMX6_Platform_SDK/output/mx6sdl/obds/evb_rev_a/obj/apps/obds/src/tests/i2c_eeprom_at24cxx_test.o
LOAD /home/leon/git/swp-report/iMX6_Platform_SDK/output/mx6sdl/obds/evb_rev_a/obj/apps/obds/src/tests/imx_spi_nor_test.o
LOAD /home/leon/git/swp-report/iMX6_Platform_SDK/output/mx6sdl/obds/evb_rev_a/obj/apps/obds/src/tests/mlb_os81050.o
LOAD /home/leon/git/swp-report/iMX6_Platform_SDK/output/mx6sdl/obds/evb_rev_a/obj/apps/obds/src/tests/mmcsd_test.o
LOAD /home/leon/git/swp-report/iMX6_Platform_SDK/output/mx6sdl/obds/evb_rev_a/obj/apps/obds/src/tests/pmic_da9053.o
LOAD /home/leon/git/swp-report/iMX6_Platform_SDK/output/mx6sdl/obds/evb_rev_a/obj/apps/obds/src/tests/pmic_lt3589.o
LOAD /home/leon/git/swp-report/iMX6_Platform_SDK/output/mx6sdl/obds/evb_rev_a/obj/apps/obds/src/tests/pmic_max17135.o
LOAD /home/leon/git/swp-report/iMX6_Platform_SDK/output/mx6sdl/obds/evb_rev_a/obj/apps/obds/src/tests/pmic_mc13892.o
LOAD /home/leon/git/swp-report/iMX6_Platform_SDK/output/mx6sdl/obds/evb_rev_a/obj/apps/obds/src/tests/program_board_id.o
LOAD /home/leon/git/swp-report/iMX6_Platform_SDK/output/mx6sdl/obds/evb_rev_a/obj/apps/obds/src/tests/program_mac_address.o
LOAD /home/leon/git/swp-report/iMX6_Platform_SDK/output/mx6sdl/obds/evb_rev_a/obj/apps/obds/src/tests/snvs_srtc_test.o
LOAD /home/leon/git/swp-report/iMX6_Platform_SDK/output/mx6sdl/obds/evb_rev_a/obj/apps/obds/src/tests/touch_button_test.o
LOAD /home/leon/git/swp-report/iMX6_Platform_SDK/output/mx6sdl/obds/evb_rev_a/obj/apps/obds/src/tests/touch_screen.o
LOAD /home/leon/git/swp-report/iMX6_Platform_SDK/output/mx6sdl/obds/evb_rev_a/obj/apps/obds/src/tests/touch_screen_max11801.o
LOAD /home/leon/git/swp-report/iMX6_Platform_SDK/output/mx6sdl/obds/evb_rev_a/obj/apps/obds/src/tests/usb_tests_obds.o
LOAD /home/leon/git/swp-report/iMX6_Platform_SDK/output/mx6sdl/obds/evb_rev_a/obj/apps/obds/src/tests/video_dec_ARD_MB_reset_button.o
LOAD /home/leon/git/swp-report/iMX6_Platform_SDK/output/mx6sdl/obds/evb_rev_a/obj/apps/obds/src/tests/video_dec_ARD_MBrst_from_cpu_expander.o
LOAD /home/leon/git/swp-report/iMX6_Platform_SDK/output/mx6sdl/obds/evb_rev_a/obj/apps/obds/src/tests/video_dec_adv7180.o
LOAD /home/leon/git/swp-report/iMX6_Platform_SDK/output/mx6sdl/obds/evb_rev_a/obj/apps/obds/src/tests/weim_nor_flash_test.o
LOAD /home/leon/git/swp-report/iMX6_Platform_SDK/output/mx6sdl/obds/evb_rev_a/obj/sdk/common/ioexpander/test/max7310_test.o
LOAD /home/leon/git/swp-report/iMX6_Platform_SDK/output/mx6sdl/obds/evb_rev_a/obj/sdk/common/pmic/pfuse/pf0100.o
LOAD /home/leon/git/swp-report/iMX6_Platform_SDK/output/mx6sdl/obds/evb_rev_a/obj/sdk/drivers/audio/src/snd_card.o
LOAD /home/leon/git/swp-report/iMX6_Platform_SDK/output/mx6sdl/obds/evb_rev_a/obj/sdk/drivers/camera/test/adv7180_capture.o
LOAD /home/leon/git/swp-report/iMX6_Platform_SDK/output/mx6sdl/obds/evb_rev_a/obj/sdk/drivers/camera/test/camera_test.o
LOAD /home/leon/git/swp-report/iMX6_Platform_SDK/output/mx6sdl/obds/evb_rev_a/obj/sdk/drivers/camera/test/csi_test_mode.o
LOAD /home/leon/git/swp-report/iMX6_Platform_SDK/output/mx6sdl/obds/evb_rev_a/obj/sdk/drivers/camera/test/sensor_capture.o
LOAD /home/leon/git/swp-report/iMX6_Platform_SDK/output/mx6sdl/obds/evb_rev_a/obj/sdk/drivers/epdc/test/epdc_test.o
LOAD /home/leon/git/swp-report/iMX6_Platform_SDK/output/mx6sdl/obds/evb_rev_a/obj/sdk/drivers/hdmi/test/hdmi_test.o
LOAD /home/leon/git/swp-report/iMX6_Platform_SDK/output/mx6sdl/obds/evb_rev_a/obj/sdk/drivers/hdmi/test/init_dma_data.o
LOAD /home/leon/git/swp-report/iMX6_Platform_SDK/output/mx6sdl/obds/evb_rev_a/obj/sdk/drivers/ipu/test/ips_display.o
LOAD /home/leon/git/swp-report/iMX6_Platform_SDK/output/mx6sdl/obds/evb_rev_a/obj/sdk/drivers/ipu/test/ipu_image.o
LOAD /home/leon/git/swp-report/iMX6_Platform_SDK/output/mx6sdl/obds/evb_rev_a/obj/sdk/drivers/spi/test/imx_spi_nor_atmel.o
LOAD /home/leon/git/swp-report/iMX6_Platform_SDK/output/mx6sdl/obds/evb_rev_a/obj/sdk/drivers/spi/test/spi_nor_numonyx.o
LOAD /home/leon/git/swp-report/iMX6_Platform_SDK/output/mx6sdl/obds/evb_rev_a/obj/sdk/drivers/uart/test/uart_test.o
LOAD /home/leon/git/swp-report/iMX6_Platform_SDK/output/mx6sdl/obds/evb_rev_a/obj/sdk/drivers/usb/test/usb0_host_test.o
LOAD /home/leon/git/swp-report/iMX6_Platform_SDK/output/mx6sdl/obds/evb_rev_a/obj/sdk/drivers/usb/test/usb0_host_testmodes_test.o
LOAD /home/leon/git/swp-report/iMX6_Platform_SDK/output/mx6sdl/obds/evb_rev_a/obj/sdk/drivers/usdhc/test/usdhc_test.o
LOAD /home/leon/git/swp-report/iMX6_Platform_SDK/output/mx6sdl/lib/libsdk.a
LOAD /home/leon/git/swp-report/iMX6_Platform_SDK/output/mx6sdl/lib/libboard_evb_rev_a.a
LOAD /home/leon/riotboard/arm-2012.09/bin/../arm-none-eabi/lib//libm.a
LOAD /home/leon/riotboard/arm-2012.09/bin/../arm-none-eabi/lib//libstdc++.a
LOAD /home/leon/riotboard/arm-2012.09/bin/../arm-none-eabi/lib//libc.a
LOAD /home/leon/riotboard/arm-2012.09/bin/../lib/gcc/arm-none-eabi/4.7.2//libgcc.a
END GROUP
OUTPUT(/home/leon/git/swp-report/iMX6_Platform_SDK/output/mx6sdl/obds/evb_rev_a/obds.elf elf32-littlearm)

.ARM.attributes
                0x00000000       0x3b
 .ARM.attributes
                0x00000000       0x30 /home/leon/riotboard/arm-2012.09/bin/../lib/gcc/arm-none-eabi/4.7.2//crtbegin.o
 .ARM.attributes
                0x00000030       0x16 /home/leon/riotboard/arm-2012.09/bin/../lib/gcc/arm-none-eabi/4.7.2//crti.o
 .ARM.attributes
                0x00000046       0x30 /home/leon/riotboard/arm-2012.09/bin/../lib/gcc/arm-none-eabi/4.7.2//crtend.o
 .ARM.attributes
                0x00000076       0x18 /home/leon/riotboard/arm-2012.09/bin/../lib/gcc/arm-none-eabi/4.7.2//crtn.o
 .ARM.attributes
                0x0000008e       0x39 /home/leon/git/swp-report/iMX6_Platform_SDK/output/mx6sdl/obds/evb_rev_a/obj/apps/common/ivt.o
 .ARM.attributes
                0x000000c7       0x39 /home/leon/git/swp-report/iMX6_Platform_SDK/output/mx6sdl/obds/evb_rev_a/obj/apps/common/platform_init.o
 .ARM.attributes
                0x00000100       0x39 /home/leon/git/swp-report/iMX6_Platform_SDK/output/mx6sdl/obds/evb_rev_a/obj/apps/common/print_clock_info.o
 .ARM.attributes
                0x00000139       0x39 /home/leon/git/swp-report/iMX6_Platform_SDK/output/mx6sdl/obds/evb_rev_a/obj/apps/common/print_version.o
 .ARM.attributes
                0x00000172       0x39 /home/leon/git/swp-report/iMX6_Platform_SDK/output/mx6sdl/obds/evb_rev_a/obj/apps/obds/src/obds.o
 .ARM.attributes
                0x000001ab       0x39 /home/leon/git/swp-report/iMX6_Platform_SDK/output/mx6sdl/obds/evb_rev_a/obj/apps/obds/src/obds_utils.o
 .ARM.attributes
                0x000001e4       0x39 /home/leon/git/swp-report/iMX6_Platform_SDK/output/mx6sdl/obds/evb_rev_a/obj/apps/obds/src/tests/android_buttons_test.o
 .ARM.attributes
                0x0000021d       0x39 /home/leon/git/swp-report/iMX6_Platform_SDK/output/mx6sdl/obds/evb_rev_a/obj/apps/obds/src/tests/audio_esai_test.o
 .ARM.attributes
                0x00000256       0x39 /home/leon/git/swp-report/iMX6_Platform_SDK/output/mx6sdl/obds/evb_rev_a/obj/apps/obds/src/tests/audio_ssi_test.o
 .ARM.attributes
                0x0000028f       0x39 /home/leon/git/swp-report/iMX6_Platform_SDK/output/mx6sdl/obds/evb_rev_a/obj/apps/obds/src/tests/ddr_test.o
 .ARM.attributes
                0x000002c8       0x39 /home/leon/git/swp-report/iMX6_Platform_SDK/output/mx6sdl/obds/evb_rev_a/obj/apps/obds/src/tests/deserializer_ds90ur124.o
 .ARM.attributes
                0x00000301       0x39 /home/leon/git/swp-report/iMX6_Platform_SDK/output/mx6sdl/obds/evb_rev_a/obj/apps/obds/src/tests/display_test.o
 .ARM.attributes
                0x0000033a       0x39 /home/leon/git/swp-report/iMX6_Platform_SDK/output/mx6sdl/obds/evb_rev_a/obj/apps/obds/src/tests/enet_mx6dldq_test.o
 .ARM.attributes
                0x00000373       0x39 /home/leon/git/swp-report/iMX6_Platform_SDK/output/mx6sdl/obds/evb_rev_a/obj/apps/obds/src/tests/flexcan_test.o
 .ARM.attributes
                0x000003ac       0x39 /home/leon/git/swp-report/iMX6_Platform_SDK/output/mx6sdl/obds/evb_rev_a/obj/apps/obds/src/tests/fm_tuner_si476x_test.o
 .ARM.attributes
                0x000003e5       0x39 /home/leon/git/swp-report/iMX6_Platform_SDK/output/mx6sdl/obds/evb_rev_a/obj/apps/obds/src/tests/gpio_led.o
 .ARM.attributes
                0x0000041e       0x39 /home/leon/git/swp-report/iMX6_Platform_SDK/output/mx6sdl/obds/evb_rev_a/obj/apps/obds/src/tests/gps_test.o
 .ARM.attributes
                0x00000457       0x39 /home/leon/git/swp-report/iMX6_Platform_SDK/output/mx6sdl/obds/evb_rev_a/obj/apps/obds/src/tests/i2c_check_light_sensor_isl29023.o
 .ARM.attributes
                0x00000490       0x39 /home/leon/git/swp-report/iMX6_Platform_SDK/output/mx6sdl/obds/evb_rev_a/obj/apps/obds/src/tests/i2c_device_barometer_ppl3115.o
 .ARM.attributes
                0x000004c9       0x39 /home/leon/git/swp-report/iMX6_Platform_SDK/output/mx6sdl/obds/evb_rev_a/obj/apps/obds/src/tests/i2c_device_check_cs42888.o
 .ARM.attributes
                0x00000502       0x39 /home/leon/git/swp-report/iMX6_Platform_SDK/output/mx6sdl/obds/evb_rev_a/obj/apps/obds/src/tests/i2c_device_digital_compass_mag3110.o
 .ARM.attributes
                0x0000053b       0x39 /home/leon/git/swp-report/iMX6_Platform_SDK/output/mx6sdl/obds/evb_rev_a/obj/apps/obds/src/tests/i2c_device_digital_compass_mag3112.o
 .ARM.attributes
                0x00000574       0x39 /home/leon/git/swp-report/iMX6_Platform_SDK/output/mx6sdl/obds/evb_rev_a/obj/apps/obds/src/tests/i2c_device_id_check_mma8450.o
 .ARM.attributes
                0x000005ad       0x39 /home/leon/git/swp-report/iMX6_Platform_SDK/output/mx6sdl/obds/evb_rev_a/obj/apps/obds/src/tests/i2c_device_id_check_mma8451.o
 .ARM.attributes
                0x000005e6       0x39 /home/leon/git/swp-report/iMX6_Platform_SDK/output/mx6sdl/obds/evb_rev_a/obj/apps/obds/src/tests/i2c_device_id_check_p1003_tsc.o
 .ARM.attributes
                0x0000061f       0x39 /home/leon/git/swp-report/iMX6_Platform_SDK/output/mx6sdl/obds/evb_rev_a/obj/apps/obds/src/tests/i2c_device_temp_sensor_emc1046.o
 .ARM.attributes
                0x00000658       0x39 /home/leon/git/swp-report/iMX6_Platform_SDK/output/mx6sdl/obds/evb_rev_a/obj/apps/obds/src/tests/i2c_device_zigbee_mc1323.o
 .ARM.attributes
                0x00000691       0x39 /home/leon/git/swp-report/iMX6_Platform_SDK/output/mx6sdl/obds/evb_rev_a/obj/apps/obds/src/tests/i2c_eeprom_at24cxx_test.o
 .ARM.attributes
                0x000006ca       0x39 /home/leon/git/swp-report/iMX6_Platform_SDK/output/mx6sdl/obds/evb_rev_a/obj/apps/obds/src/tests/imx_spi_nor_test.o
 .ARM.attributes
                0x00000703       0x39 /home/leon/git/swp-report/iMX6_Platform_SDK/output/mx6sdl/obds/evb_rev_a/obj/apps/obds/src/tests/mlb_os81050.o
 .ARM.attributes
                0x0000073c       0x39 /home/leon/git/swp-report/iMX6_Platform_SDK/output/mx6sdl/obds/evb_rev_a/obj/apps/obds/src/tests/mmcsd_test.o
 .ARM.attributes
                0x00000775       0x39 /home/leon/git/swp-report/iMX6_Platform_SDK/output/mx6sdl/obds/evb_rev_a/obj/apps/obds/src/tests/pmic_da9053.o
 .ARM.attributes
                0x000007ae       0x39 /home/leon/git/swp-report/iMX6_Platform_SDK/output/mx6sdl/obds/evb_rev_a/obj/apps/obds/src/tests/pmic_lt3589.o
 .ARM.attributes
                0x000007e7       0x39 /home/leon/git/swp-report/iMX6_Platform_SDK/output/mx6sdl/obds/evb_rev_a/obj/apps/obds/src/tests/pmic_max17135.o
 .ARM.attributes
                0x00000820       0x39 /home/leon/git/swp-report/iMX6_Platform_SDK/output/mx6sdl/obds/evb_rev_a/obj/apps/obds/src/tests/pmic_mc13892.o
 .ARM.attributes
                0x00000859       0x39 /home/leon/git/swp-report/iMX6_Platform_SDK/output/mx6sdl/obds/evb_rev_a/obj/apps/obds/src/tests/program_board_id.o
 .ARM.attributes
                0x00000892       0x39 /home/leon/git/swp-report/iMX6_Platform_SDK/output/mx6sdl/obds/evb_rev_a/obj/apps/obds/src/tests/program_mac_address.o
 .ARM.attributes
                0x000008cb       0x39 /home/leon/git/swp-report/iMX6_Platform_SDK/output/mx6sdl/obds/evb_rev_a/obj/apps/obds/src/tests/snvs_srtc_test.o
 .ARM.attributes
                0x00000904       0x39 /home/leon/git/swp-report/iMX6_Platform_SDK/output/mx6sdl/obds/evb_rev_a/obj/apps/obds/src/tests/touch_button_test.o
 .ARM.attributes
                0x0000093d       0x39 /home/leon/git/swp-report/iMX6_Platform_SDK/output/mx6sdl/obds/evb_rev_a/obj/apps/obds/src/tests/touch_screen.o
 .ARM.attributes
                0x00000976       0x39 /home/leon/git/swp-report/iMX6_Platform_SDK/output/mx6sdl/obds/evb_rev_a/obj/apps/obds/src/tests/touch_screen_max11801.o
 .ARM.attributes
                0x000009af       0x39 /home/leon/git/swp-report/iMX6_Platform_SDK/output/mx6sdl/obds/evb_rev_a/obj/apps/obds/src/tests/usb_tests_obds.o
 .ARM.attributes
                0x000009e8       0x39 /home/leon/git/swp-report/iMX6_Platform_SDK/output/mx6sdl/obds/evb_rev_a/obj/apps/obds/src/tests/video_dec_ARD_MB_reset_button.o
 .ARM.attributes
                0x00000a21       0x39 /home/leon/git/swp-report/iMX6_Platform_SDK/output/mx6sdl/obds/evb_rev_a/obj/apps/obds/src/tests/video_dec_ARD_MBrst_from_cpu_expander.o
 .ARM.attributes
                0x00000a5a       0x39 /home/leon/git/swp-report/iMX6_Platform_SDK/output/mx6sdl/obds/evb_rev_a/obj/apps/obds/src/tests/video_dec_adv7180.o
 .ARM.attributes
                0x00000a93       0x39 /home/leon/git/swp-report/iMX6_Platform_SDK/output/mx6sdl/obds/evb_rev_a/obj/apps/obds/src/tests/weim_nor_flash_test.o
 .ARM.attributes
                0x00000acc       0x39 /home/leon/git/swp-report/iMX6_Platform_SDK/output/mx6sdl/obds/evb_rev_a/obj/sdk/common/ioexpander/test/max7310_test.o
 .ARM.attributes
                0x00000b05       0x39 /home/leon/git/swp-report/iMX6_Platform_SDK/output/mx6sdl/obds/evb_rev_a/obj/sdk/common/pmic/pfuse/pf0100.o
 .ARM.attributes
                0x00000b3e       0x39 /home/leon/git/swp-report/iMX6_Platform_SDK/output/mx6sdl/obds/evb_rev_a/obj/sdk/drivers/audio/src/snd_card.o
 .ARM.attributes
                0x00000b77       0x39 /home/leon/git/swp-report/iMX6_Platform_SDK/output/mx6sdl/obds/evb_rev_a/obj/sdk/drivers/camera/test/adv7180_capture.o
 .ARM.attributes
                0x00000bb0       0x39 /home/leon/git/swp-report/iMX6_Platform_SDK/output/mx6sdl/obds/evb_rev_a/obj/sdk/drivers/camera/test/camera_test.o
 .ARM.attributes
                0x00000be9       0x39 /home/leon/git/swp-report/iMX6_Platform_SDK/output/mx6sdl/obds/evb_rev_a/obj/sdk/drivers/camera/test/csi_test_mode.o
 .ARM.attributes
                0x00000c22       0x39 /home/leon/git/swp-report/iMX6_Platform_SDK/output/mx6sdl/obds/evb_rev_a/obj/sdk/drivers/camera/test/sensor_capture.o
 .ARM.attributes
                0x00000c5b       0x39 /home/leon/git/swp-report/iMX6_Platform_SDK/output/mx6sdl/obds/evb_rev_a/obj/sdk/drivers/epdc/test/epdc_test.o
 .ARM.attributes
                0x00000c94       0x39 /home/leon/git/swp-report/iMX6_Platform_SDK/output/mx6sdl/obds/evb_rev_a/obj/sdk/drivers/hdmi/test/hdmi_test.o
 .ARM.attributes
                0x00000ccd       0x39 /home/leon/git/swp-report/iMX6_Platform_SDK/output/mx6sdl/obds/evb_rev_a/obj/sdk/drivers/hdmi/test/init_dma_data.o
 .ARM.attributes
                0x00000d06       0x39 /home/leon/git/swp-report/iMX6_Platform_SDK/output/mx6sdl/obds/evb_rev_a/obj/sdk/drivers/ipu/test/ips_display.o
 .ARM.attributes
                0x00000d3f       0x39 /home/leon/git/swp-report/iMX6_Platform_SDK/output/mx6sdl/obds/evb_rev_a/obj/sdk/drivers/ipu/test/ipu_image.o
 .ARM.attributes
                0x00000d78       0x39 /home/leon/git/swp-report/iMX6_Platform_SDK/output/mx6sdl/obds/evb_rev_a/obj/sdk/drivers/spi/test/imx_spi_nor_atmel.o
 .ARM.attributes
                0x00000db1       0x39 /home/leon/git/swp-report/iMX6_Platform_SDK/output/mx6sdl/obds/evb_rev_a/obj/sdk/drivers/spi/test/spi_nor_numonyx.o
 .ARM.attributes
                0x00000dea       0x39 /home/leon/git/swp-report/iMX6_Platform_SDK/output/mx6sdl/obds/evb_rev_a/obj/sdk/drivers/uart/test/uart_test.o
 .ARM.attributes
                0x00000e23       0x39 /home/leon/git/swp-report/iMX6_Platform_SDK/output/mx6sdl/obds/evb_rev_a/obj/sdk/drivers/usb/test/usb0_host_test.o
 .ARM.attributes
                0x00000e5c       0x39 /home/leon/git/swp-report/iMX6_Platform_SDK/output/mx6sdl/obds/evb_rev_a/obj/sdk/drivers/usb/test/usb0_host_testmodes_test.o
 .ARM.attributes
                0x00000e95       0x39 /home/leon/git/swp-report/iMX6_Platform_SDK/output/mx6sdl/obds/evb_rev_a/obj/sdk/drivers/usdhc/test/usdhc_test.o
 .ARM.attributes
                0x00000ece       0x39 /home/leon/git/swp-report/iMX6_Platform_SDK/output/mx6sdl/lib/libsdk.a(max7310.o)
 .ARM.attributes
                0x00000f07       0x39 /home/leon/git/swp-report/iMX6_Platform_SDK/output/mx6sdl/lib/libsdk.a(ccm_pll.o)
 .ARM.attributes
                0x00000f40       0x16 /home/leon/git/swp-report/iMX6_Platform_SDK/output/mx6sdl/lib/libsdk.a(cortexA9.o)
 .ARM.attributes
                0x00000f56       0x39 /home/leon/git/swp-report/iMX6_Platform_SDK/output/mx6sdl/lib/libsdk.a(gic.o)
 .ARM.attributes
                0x00000f8f       0x39 /home/leon/git/swp-report/iMX6_Platform_SDK/output/mx6sdl/lib/libsdk.a(interrupt.o)
 .ARM.attributes
                0x00000fc8       0x39 /home/leon/git/swp-report/iMX6_Platform_SDK/output/mx6sdl/lib/libsdk.a(mmu.o)
 .ARM.attributes
                0x00001001       0x16 /home/leon/git/swp-report/iMX6_Platform_SDK/output/mx6sdl/lib/libsdk.a(startup.o)
 .ARM.attributes
                0x00001017       0x14 /home/leon/git/swp-report/iMX6_Platform_SDK/output/mx6sdl/lib/libsdk.a(vectors.o)
 .ARM.attributes
                0x0000102b       0x39 /home/leon/git/swp-report/iMX6_Platform_SDK/output/mx6sdl/lib/libsdk.a(menu.o)
 .ARM.attributes
                0x00001064       0x39 /home/leon/git/swp-report/iMX6_Platform_SDK/output/mx6sdl/lib/libsdk.a(sdk_version.o)
 .ARM.attributes
                0x0000109d       0x39 /home/leon/git/swp-report/iMX6_Platform_SDK/output/mx6sdl/lib/libsdk.a(system_util.o)
 .ARM.attributes
                0x000010d6       0x39 /home/leon/git/swp-report/iMX6_Platform_SDK/output/mx6sdl/lib/libsdk.a(text_color.o)
 .ARM.attributes
                0x0000110f       0x39 /home/leon/git/swp-report/iMX6_Platform_SDK/output/mx6sdl/lib/libsdk.a(cs42888.o)
 .ARM.attributes
                0x00001148       0x39 /home/leon/git/swp-report/iMX6_Platform_SDK/output/mx6sdl/lib/libsdk.a(imx-ssi.o)
 .ARM.attributes
                0x00001181       0x39 /home/leon/git/swp-report/iMX6_Platform_SDK/output/mx6sdl/lib/libsdk.a(imx_esai.o)
 .ARM.attributes
                0x000011ba       0x39 /home/leon/git/swp-report/iMX6_Platform_SDK/output/mx6sdl/lib/libsdk.a(imx_spdif.o)
 .ARM.attributes
                0x000011f3       0x39 /home/leon/git/swp-report/iMX6_Platform_SDK/output/mx6sdl/lib/libsdk.a(sgtl5000.o)
 .ARM.attributes
                0x0000122c       0x39 /home/leon/git/swp-report/iMX6_Platform_SDK/output/mx6sdl/lib/libsdk.a(wm8958_dac.o)
 .ARM.attributes
                0x00001265       0x39 /home/leon/git/swp-report/iMX6_Platform_SDK/output/mx6sdl/lib/libsdk.a(wm8962.o)
 .ARM.attributes
                0x0000129e       0x39 /home/leon/git/swp-report/iMX6_Platform_SDK/output/mx6sdl/lib/libsdk.a(board_id.o)
 .ARM.attributes
                0x000012d7       0x39 /home/leon/git/swp-report/iMX6_Platform_SDK/output/mx6sdl/lib/libsdk.a(smd_sensor.o)
 .ARM.attributes
                0x00001310       0x39 /home/leon/git/swp-report/iMX6_Platform_SDK/output/mx6sdl/lib/libsdk.a(enet_drv.o)
 .ARM.attributes
                0x00001349       0x39 /home/leon/git/swp-report/iMX6_Platform_SDK/output/mx6sdl/lib/libsdk.a(mxc_epdc.o)
 .ARM.attributes
                0x00001382       0x39 /home/leon/git/swp-report/iMX6_Platform_SDK/output/mx6sdl/lib/libsdk.a(gpio.o)
 .ARM.attributes
                0x000013bb       0x39 /home/leon/git/swp-report/iMX6_Platform_SDK/output/mx6sdl/lib/libsdk.a(imx6sdl_gpio_map.o)
 .ARM.attributes
                0x000013f4       0x39 /home/leon/git/swp-report/iMX6_Platform_SDK/output/mx6sdl/lib/libsdk.a(hdmi_tx.o)
 .ARM.attributes
                0x0000142d       0x39 /home/leon/git/swp-report/iMX6_Platform_SDK/output/mx6sdl/lib/libsdk.a(hdmi_tx_audio.o)
 .ARM.attributes
                0x00001466       0x39 /home/leon/git/swp-report/iMX6_Platform_SDK/output/mx6sdl/lib/libsdk.a(hdmi_tx_phy.o)
 .ARM.attributes
                0x0000149f       0x39 /home/leon/git/swp-report/iMX6_Platform_SDK/output/mx6sdl/lib/libsdk.a(imx_i2c.o)
 .ARM.attributes
                0x000014d8       0x39 /home/leon/git/swp-report/iMX6_Platform_SDK/output/mx6sdl/lib/libsdk.a(ips_disp_panel.o)
 .ARM.attributes
                0x00001511       0x39 /home/leon/git/swp-report/iMX6_Platform_SDK/output/mx6sdl/lib/libsdk.a(ipu_common.o)
 .ARM.attributes
                0x0000154a       0x39 /home/leon/git/swp-report/iMX6_Platform_SDK/output/mx6sdl/lib/libsdk.a(ipu_csi.o)
 .ARM.attributes
                0x00001583       0x39 /home/leon/git/swp-report/iMX6_Platform_SDK/output/mx6sdl/lib/libsdk.a(ipu_dc.o)
 .ARM.attributes
                0x000015bc       0x39 /home/leon/git/swp-report/iMX6_Platform_SDK/output/mx6sdl/lib/libsdk.a(ipu_di.o)
 .ARM.attributes
                0x000015f5       0x39 /home/leon/git/swp-report/iMX6_Platform_SDK/output/mx6sdl/lib/libsdk.a(ipu_dmfc.o)
 .ARM.attributes
                0x0000162e       0x39 /home/leon/git/swp-report/iMX6_Platform_SDK/output/mx6sdl/lib/libsdk.a(ipu_dp.o)
 .ARM.attributes
                0x00001667       0x39 /home/leon/git/swp-report/iMX6_Platform_SDK/output/mx6sdl/lib/libsdk.a(ipu_idmac.o)
 .ARM.attributes
                0x000016a0       0x39 /home/leon/git/swp-report/iMX6_Platform_SDK/output/mx6sdl/lib/libsdk.a(ipu_vdi.o)
 .ARM.attributes
                0x000016d9       0x39 /home/leon/git/swp-report/iMX6_Platform_SDK/output/mx6sdl/lib/libsdk.a(ldb.o)
 .ARM.attributes
                0x00001712       0x39 /home/leon/git/swp-report/iMX6_Platform_SDK/output/mx6sdl/lib/libsdk.a(ocotp.o)
 .ARM.attributes
                0x0000174b       0x39 /home/leon/git/swp-report/iMX6_Platform_SDK/output/mx6sdl/lib/libsdk.a(ecspi.o)
 .ARM.attributes
                0x00001784       0x39 /home/leon/git/swp-report/iMX6_Platform_SDK/output/mx6sdl/lib/libsdk.a(timer.o)
 .ARM.attributes
                0x000017bd       0x39 /home/leon/git/swp-report/iMX6_Platform_SDK/output/mx6sdl/lib/libsdk.a(imx_uart.o)
 .ARM.attributes
                0x000017f6       0x39 /home/leon/git/swp-report/iMX6_Platform_SDK/output/mx6sdl/lib/libsdk.a(usb_common.o)
 .ARM.attributes
                0x0000182f       0x39 /home/leon/git/swp-report/iMX6_Platform_SDK/output/mx6sdl/lib/libsdk.a(usbh_drv.o)
 .ARM.attributes
                0x00001868       0x39 /home/leon/git/swp-report/iMX6_Platform_SDK/output/mx6sdl/lib/libsdk.a(usdhc.o)
 .ARM.attributes
                0x000018a1       0x39 /home/leon/git/swp-report/iMX6_Platform_SDK/output/mx6sdl/lib/libsdk.a(usdhc_host.o)
 .ARM.attributes
                0x000018da       0x39 /home/leon/git/swp-report/iMX6_Platform_SDK/output/mx6sdl/lib/libsdk.a(usdhc_mmc.o)
 .ARM.attributes
                0x00001913       0x39 /home/leon/git/swp-report/iMX6_Platform_SDK/output/mx6sdl/lib/libsdk.a(usdhc_sd.o)
 .ARM.attributes
                0x0000194c       0x39 /home/leon/git/swp-report/iMX6_Platform_SDK/output/mx6sdl/lib/libsdk.a(adv7180.o)
 .ARM.attributes
                0x00001985       0x14 /home/leon/git/swp-report/iMX6_Platform_SDK/output/mx6sdl/lib/libsdk.a(arm_abort.o)
 .ARM.attributes
                0x00001999       0x39 /home/leon/git/swp-report/iMX6_Platform_SDK/output/mx6sdl/lib/libsdk.a(armv7_cache.o)
 .ARM.attributes
                0x000019d2       0x39 /home/leon/git/swp-report/iMX6_Platform_SDK/output/mx6sdl/lib/libsdk.a(camera_profile.o)
 .ARM.attributes
                0x00001a0b       0x39 /home/leon/git/swp-report/iMX6_Platform_SDK/output/mx6sdl/lib/libsdk.a(hdmi_common.o)
 .ARM.attributes
                0x00001a44       0x39 /home/leon/git/swp-report/iMX6_Platform_SDK/output/mx6sdl/lib/libsdk.a(ipu_ic.o)
 .ARM.attributes
                0x00001a7d       0x39 /home/leon/git/swp-report/iMX6_Platform_SDK/output/mx6sdl/lib/libsdk.a(epit.o)
 .ARM.attributes
                0x00001ab6       0x39 /home/leon/git/swp-report/iMX6_Platform_SDK/output/mx6sdl/lib/libsdk.a(mx6x_usb.o)
 .ARM.attributes
                0x00001aef       0x39 /home/leon/git/swp-report/iMX6_Platform_SDK/output/mx6sdl/lib/libsdk.a(abort_handler.o)
 .ARM.attributes
                0x00001b28       0x39 /home/leon/git/swp-report/iMX6_Platform_SDK/output/mx6sdl/lib/libboard_evb_rev_a.a(board_audio.o)
 .ARM.attributes
                0x00001b61       0x39 /home/leon/git/swp-report/iMX6_Platform_SDK/output/mx6sdl/lib/libboard_evb_rev_a.a(board_buttons.o)
 .ARM.attributes
                0x00001b9a       0x39 /home/leon/git/swp-report/iMX6_Platform_SDK/output/mx6sdl/lib/libboard_evb_rev_a.a(board_camera.o)
 .ARM.attributes
                0x00001bd3       0x39 /home/leon/git/swp-report/iMX6_Platform_SDK/output/mx6sdl/lib/libboard_evb_rev_a.a(board_display.o)
 .ARM.attributes
                0x00001c0c       0x39 /home/leon/git/swp-report/iMX6_Platform_SDK/output/mx6sdl/lib/libboard_evb_rev_a.a(board_hdmi.o)
 .ARM.attributes
                0x00001c45       0x39 /home/leon/git/swp-report/iMX6_Platform_SDK/output/mx6sdl/lib/libboard_evb_rev_a.a(board_i2c.o)
 .ARM.attributes
                0x00001c7e       0x39 /home/leon/git/swp-report/iMX6_Platform_SDK/output/mx6sdl/lib/libboard_evb_rev_a.a(board_io_expanders.o)
 .ARM.attributes
                0x00001cb7       0x39 /home/leon/git/swp-report/iMX6_Platform_SDK/output/mx6sdl/lib/libboard_evb_rev_a.a(board_mipi.o)
 .ARM.attributes
                0x00001cf0       0x39 /home/leon/git/swp-report/iMX6_Platform_SDK/output/mx6sdl/lib/libboard_evb_rev_a.a(board_network.o)
 .ARM.attributes
                0x00001d29       0x39 /home/leon/git/swp-report/iMX6_Platform_SDK/output/mx6sdl/lib/libboard_evb_rev_a.a(board_usb.o)
 .ARM.attributes
                0x00001d62       0x39 /home/leon/git/swp-report/iMX6_Platform_SDK/output/mx6sdl/lib/libboard_evb_rev_a.a(board_usdhc.o)
 .ARM.attributes
                0x00001d9b       0x39 /home/leon/git/swp-report/iMX6_Platform_SDK/output/mx6sdl/lib/libboard_evb_rev_a.a(hardware_modules.o)
 .ARM.attributes
                0x00001dd4       0x39 /home/leon/git/swp-report/iMX6_Platform_SDK/output/mx6sdl/lib/libboard_evb_rev_a.a(dcd.o)
 .ARM.attributes
                0x00001e0d       0x39 /home/leon/git/swp-report/iMX6_Platform_SDK/output/mx6sdl/lib/libboard_evb_rev_a.a(ecspi_iomux_config.o)
 .ARM.attributes
                0x00001e46       0x39 /home/leon/git/swp-report/iMX6_Platform_SDK/output/mx6sdl/lib/libboard_evb_rev_a.a(enet_iomux_config.o)
 .ARM.attributes
                0x00001e7f       0x39 /home/leon/git/swp-report/iMX6_Platform_SDK/output/mx6sdl/lib/libboard_evb_rev_a.a(esai_iomux_config.o)
 .ARM.attributes
                0x00001eb8       0x39 /home/leon/git/swp-report/iMX6_Platform_SDK/output/mx6sdl/lib/libboard_evb_rev_a.a(i2c_iomux_config.o)
 .ARM.attributes
                0x00001ef1       0x39 /home/leon/git/swp-report/iMX6_Platform_SDK/output/mx6sdl/lib/libboard_evb_rev_a.a(iomux_config.o)
 .ARM.attributes
                0x00001f2a       0x39 /home/leon/git/swp-report/iMX6_Platform_SDK/output/mx6sdl/lib/libboard_evb_rev_a.a(ipu1_iomux_config.o)
 .ARM.attributes
                0x00001f63       0x39 /home/leon/git/swp-report/iMX6_Platform_SDK/output/mx6sdl/lib/libboard_evb_rev_a.a(ipu_iomux_config.o)
 .ARM.attributes
                0x00001f9c       0x39 /home/leon/git/swp-report/iMX6_Platform_SDK/output/mx6sdl/lib/libboard_evb_rev_a.a(kpp_iomux_config.o)
 .ARM.attributes
                0x00001fd5       0x39 /home/leon/git/swp-report/iMX6_Platform_SDK/output/mx6sdl/lib/libboard_evb_rev_a.a(mlb_iomux_config.o)
 .ARM.attributes
                0x0000200e       0x39 /home/leon/git/swp-report/iMX6_Platform_SDK/output/mx6sdl/lib/libboard_evb_rev_a.a(mmdc_iomux_config.o)
 .ARM.attributes
                0x00002047       0x39 /home/leon/git/swp-report/iMX6_Platform_SDK/output/mx6sdl/lib/libboard_evb_rev_a.a(pwm1_iomux_config.o)
 .ARM.attributes
                0x00002080       0x39 /home/leon/git/swp-report/iMX6_Platform_SDK/output/mx6sdl/lib/libboard_evb_rev_a.a(sjc_iomux_config.o)
 .ARM.attributes
                0x000020b9       0x39 /home/leon/git/swp-report/iMX6_Platform_SDK/output/mx6sdl/lib/libboard_evb_rev_a.a(spdif_iomux_config.o)
 .ARM.attributes
                0x000020f2       0x39 /home/leon/git/swp-report/iMX6_Platform_SDK/output/mx6sdl/lib/libboard_evb_rev_a.a(uart2_iomux_config.o)
 .ARM.attributes
                0x0000212b       0x39 /home/leon/git/swp-report/iMX6_Platform_SDK/output/mx6sdl/lib/libboard_evb_rev_a.a(uart4_iomux_config.o)
 .ARM.attributes
                0x00002164       0x39 /home/leon/git/swp-report/iMX6_Platform_SDK/output/mx6sdl/lib/libboard_evb_rev_a.a(uart_iomux_config.o)
 .ARM.attributes
                0x0000219d       0x39 /home/leon/git/swp-report/iMX6_Platform_SDK/output/mx6sdl/lib/libboard_evb_rev_a.a(usb_iomux_config.o)
 .ARM.attributes
                0x000021d6       0x39 /home/leon/git/swp-report/iMX6_Platform_SDK/output/mx6sdl/lib/libboard_evb_rev_a.a(usdhc1_iomux_config.o)
 .ARM.attributes
                0x0000220f       0x39 /home/leon/git/swp-report/iMX6_Platform_SDK/output/mx6sdl/lib/libboard_evb_rev_a.a(usdhc2_iomux_config.o)
 .ARM.attributes
                0x00002248       0x39 /home/leon/git/swp-report/iMX6_Platform_SDK/output/mx6sdl/lib/libboard_evb_rev_a.a(usdhc3_iomux_config.o)
 .ARM.attributes
                0x00002281       0x39 /home/leon/git/swp-report/iMX6_Platform_SDK/output/mx6sdl/lib/libboard_evb_rev_a.a(usdhc4_iomux_config.o)
 .ARM.attributes
                0x000022ba       0x39 /home/leon/git/swp-report/iMX6_Platform_SDK/output/mx6sdl/lib/libboard_evb_rev_a.a(usdhc_iomux_config.o)
 .ARM.attributes
                0x000022f3       0x39 /home/leon/git/swp-report/iMX6_Platform_SDK/output/mx6sdl/lib/libboard_evb_rev_a.a(ccm_iomux_config.o)
 .ARM.attributes
                0x0000232c       0x39 /home/leon/git/swp-report/iMX6_Platform_SDK/output/mx6sdl/lib/libboard_evb_rev_a.a(ecspi1_iomux_config.o)
 .ARM.attributes
                0x00002365       0x39 /home/leon/git/swp-report/iMX6_Platform_SDK/output/mx6sdl/lib/libboard_evb_rev_a.a(flexcan1_iomux_config.o)
 .ARM.attributes
                0x0000239e       0x39 /home/leon/git/swp-report/iMX6_Platform_SDK/output/mx6sdl/lib/libboard_evb_rev_a.a(flexcan2_iomux_config.o)
 .ARM.attributes
                0x000023d7       0x39 /home/leon/git/swp-report/iMX6_Platform_SDK/output/mx6sdl/lib/libboard_evb_rev_a.a(gpio3_iomux_config.o)
 .ARM.attributes
                0x00002410       0x39 /home/leon/git/swp-report/iMX6_Platform_SDK/output/mx6sdl/lib/libboard_evb_rev_a.a(gpio4_iomux_config.o)
 .ARM.attributes
                0x00002449       0x39 /home/leon/git/swp-report/iMX6_Platform_SDK/output/mx6sdl/lib/libboard_evb_rev_a.a(gpio5_iomux_config.o)
 .ARM.attributes
                0x00002482       0x39 /home/leon/git/swp-report/iMX6_Platform_SDK/output/mx6sdl/lib/libboard_evb_rev_a.a(gpio6_iomux_config.o)
 .ARM.attributes
                0x000024bb       0x39 /home/leon/git/swp-report/iMX6_Platform_SDK/output/mx6sdl/lib/libboard_evb_rev_a.a(gpmi_iomux_config.o)
 .ARM.attributes
                0x000024f4       0x39 /home/leon/git/swp-report/iMX6_Platform_SDK/output/mx6sdl/lib/libboard_evb_rev_a.a(hdmi_iomux_config.o)
 .ARM.attributes
                0x0000252d       0x39 /home/leon/git/swp-report/iMX6_Platform_SDK/output/mx6sdl/lib/libboard_evb_rev_a.a(i2c1_iomux_config.o)
 .ARM.attributes
                0x00002566       0x39 /home/leon/git/swp-report/iMX6_Platform_SDK/output/mx6sdl/lib/libboard_evb_rev_a.a(i2c2_iomux_config.o)
 .ARM.attributes
                0x0000259f       0x39 /home/leon/git/swp-report/iMX6_Platform_SDK/output/mx6sdl/lib/libboard_evb_rev_a.a(i2c3_iomux_config.o)
 .ARM.attributes
                0x000025d8       0x30 /home/leon/riotboard/arm-2012.09/bin/../arm-none-eabi/lib//libc.a(lib_a-assert.o)
 .ARM.attributes
                0x00002608       0x30 /home/leon/riotboard/arm-2012.09/bin/../arm-none-eabi/lib//libc.a(lib_a-bzero.o)
 .ARM.attributes
                0x00002638       0x30 /home/leon/riotboard/arm-2012.09/bin/../arm-none-eabi/lib//libc.a(lib_a-fiprintf.o)
 .ARM.attributes
                0x00002668       0x30 /home/leon/riotboard/arm-2012.09/bin/../arm-none-eabi/lib//libc.a(lib_a-fputc.o)
 .ARM.attributes
                0x00002698       0x30 /home/leon/riotboard/arm-2012.09/bin/../arm-none-eabi/lib//libc.a(lib_a-impure.o)
 .ARM.attributes
                0x000026c8       0x30 /home/leon/riotboard/arm-2012.09/bin/../arm-none-eabi/lib//libc.a(lib_a-init.o)
 .ARM.attributes
                0x000026f8       0x30 /home/leon/riotboard/arm-2012.09/bin/../arm-none-eabi/lib//libc.a(lib_a-malloc.o)
 .ARM.attributes
                0x00002728       0x30 /home/leon/riotboard/arm-2012.09/bin/../arm-none-eabi/lib//libc.a(lib_a-mallocr.o)
 .ARM.attributes
                0x00002758       0x30 /home/leon/riotboard/arm-2012.09/bin/../arm-none-eabi/lib//libc.a(lib_a-memcpy.o)
 .ARM.attributes
                0x00002788       0x30 /home/leon/riotboard/arm-2012.09/bin/../arm-none-eabi/lib//libc.a(lib_a-memset.o)
 .ARM.attributes
                0x000027b8       0x30 /home/leon/riotboard/arm-2012.09/bin/../arm-none-eabi/lib//libc.a(lib_a-mlock.o)
 .ARM.attributes
                0x000027e8       0x30 /home/leon/riotboard/arm-2012.09/bin/../arm-none-eabi/lib//libc.a(lib_a-printf.o)
 .ARM.attributes
                0x00002818       0x30 /home/leon/riotboard/arm-2012.09/bin/../arm-none-eabi/lib//libc.a(lib_a-putc.o)
 .ARM.attributes
                0x00002848       0x30 /home/leon/riotboard/arm-2012.09/bin/../arm-none-eabi/lib//libc.a(lib_a-realloc.o)
 .ARM.attributes
                0x00002878       0x30 /home/leon/riotboard/arm-2012.09/bin/../arm-none-eabi/lib//libc.a(lib_a-reallocr.o)
 .ARM.attributes
                0x000028a8       0x30 /home/leon/riotboard/arm-2012.09/bin/../arm-none-eabi/lib//libc.a(lib_a-rget.o)
 .ARM.attributes
                0x000028d8       0x30 /home/leon/riotboard/arm-2012.09/bin/../arm-none-eabi/lib//libc.a(lib_a-sbrkr.o)
 .ARM.attributes
                0x00002908       0x30 /home/leon/riotboard/arm-2012.09/bin/../arm-none-eabi/lib//libc.a(lib_a-sprintf.o)
 .ARM.attributes
                0x00002938       0x30 /home/leon/riotboard/arm-2012.09/bin/../arm-none-eabi/lib//libc.a(lib_a-strcat.o)
 .ARM.attributes
                0x00002968       0x30 /home/leon/riotboard/arm-2012.09/bin/../arm-none-eabi/lib//libc.a(lib_a-strcmp.o)
 .ARM.attributes
                0x00002998       0x30 /home/leon/riotboard/arm-2012.09/bin/../arm-none-eabi/lib//libc.a(lib_a-strcpy.o)
 .ARM.attributes
                0x000029c8       0x30 /home/leon/riotboard/arm-2012.09/bin/../arm-none-eabi/lib//libc.a(lib_a-strlen.o)
 .ARM.attributes
                0x000029f8       0x30 /home/leon/riotboard/arm-2012.09/bin/../arm-none-eabi/lib//libc.a(lib_a-strncasecmp.o)
 .ARM.attributes
                0x00002a28       0x30 /home/leon/riotboard/arm-2012.09/bin/../arm-none-eabi/lib//libc.a(lib_a-strtok.o)
 .ARM.attributes
                0x00002a58       0x30 /home/leon/riotboard/arm-2012.09/bin/../arm-none-eabi/lib//libc.a(lib_a-strtok_r.o)
 .ARM.attributes
                0x00002a88       0x30 /home/leon/riotboard/arm-2012.09/bin/../arm-none-eabi/lib//libc.a(lib_a-svfprintf.o)
 .ARM.attributes
                0x00002ab8       0x30 /home/leon/riotboard/arm-2012.09/bin/../arm-none-eabi/lib//libc.a(lib_a-vfiprintf.o)
 .ARM.attributes
                0x00002ae8       0x30 /home/leon/riotboard/arm-2012.09/bin/../arm-none-eabi/lib//libc.a(lib_a-vfprintf.o)
 .ARM.attributes
                0x00002b18       0x30 /home/leon/riotboard/arm-2012.09/bin/../arm-none-eabi/lib//libc.a(lib_a-vprintf.o)
 .ARM.attributes
                0x00002b48       0x30 /home/leon/riotboard/arm-2012.09/bin/../arm-none-eabi/lib//libc.a(lib_a-wbuf.o)
 .ARM.attributes
                0x00002b78       0x30 /home/leon/riotboard/arm-2012.09/bin/../arm-none-eabi/lib//libc.a(lib_a-wsetup.o)
 .ARM.attributes
                0x00002ba8       0x30 /home/leon/riotboard/arm-2012.09/bin/../arm-none-eabi/lib//libc.a(lib_a-abort.o)
 .ARM.attributes
                0x00002bd8       0x30 /home/leon/riotboard/arm-2012.09/bin/../arm-none-eabi/lib//libc.a(lib_a-ctype_.o)
 .ARM.attributes
                0x00002c08       0x30 /home/leon/riotboard/arm-2012.09/bin/../arm-none-eabi/lib//libc.a(lib_a-dtoa.o)
 .ARM.attributes
                0x00002c38       0x30 /home/leon/riotboard/arm-2012.09/bin/../arm-none-eabi/lib//libc.a(lib_a-fflush.o)
 .ARM.attributes
                0x00002c68       0x30 /home/leon/riotboard/arm-2012.09/bin/../arm-none-eabi/lib//libc.a(lib_a-findfp.o)
 .ARM.attributes
                0x00002c98       0x30 /home/leon/riotboard/arm-2012.09/bin/../arm-none-eabi/lib//libc.a(lib_a-fputwc.o)
 .ARM.attributes
                0x00002cc8       0x30 /home/leon/riotboard/arm-2012.09/bin/../arm-none-eabi/lib//libc.a(lib_a-freer.o)
 .ARM.attributes
                0x00002cf8       0x30 /home/leon/riotboard/arm-2012.09/bin/../arm-none-eabi/lib//libc.a(lib_a-fvwrite.o)
 .ARM.attributes
                0x00002d28       0x30 /home/leon/riotboard/arm-2012.09/bin/../arm-none-eabi/lib//libc.a(lib_a-fwalk.o)
 .ARM.attributes
                0x00002d58       0x30 /home/leon/riotboard/arm-2012.09/bin/../arm-none-eabi/lib//libc.a(lib_a-locale.o)
 .ARM.attributes
                0x00002d88       0x30 /home/leon/riotboard/arm-2012.09/bin/../arm-none-eabi/lib//libc.a(lib_a-makebuf.o)
 .ARM.attributes
                0x00002db8       0x30 /home/leon/riotboard/arm-2012.09/bin/../arm-none-eabi/lib//libc.a(lib_a-memchr.o)
 .ARM.attributes
                0x00002de8       0x30 /home/leon/riotboard/arm-2012.09/bin/../arm-none-eabi/lib//libc.a(lib_a-memmove.o)
 .ARM.attributes
                0x00002e18       0x30 /home/leon/riotboard/arm-2012.09/bin/../arm-none-eabi/lib//libc.a(lib_a-mprec.o)
 .ARM.attributes
                0x00002e48       0x30 /home/leon/riotboard/arm-2012.09/bin/../arm-none-eabi/lib//libc.a(lib_a-reent.o)
 .ARM.attributes
                0x00002e78       0x30 /home/leon/riotboard/arm-2012.09/bin/../arm-none-eabi/lib//libc.a(lib_a-refill.o)
 .ARM.attributes
                0x00002ea8       0x30 /home/leon/riotboard/arm-2012.09/bin/../arm-none-eabi/lib//libc.a(lib_a-s_fpclassify.o)
 .ARM.attributes
                0x00002ed8       0x30 /home/leon/riotboard/arm-2012.09/bin/../arm-none-eabi/lib//libc.a(lib_a-signal.o)
 .ARM.attributes
                0x00002f08       0x30 /home/leon/riotboard/arm-2012.09/bin/../arm-none-eabi/lib//libc.a(lib_a-signalr.o)
 .ARM.attributes
                0x00002f38       0x30 /home/leon/riotboard/arm-2012.09/bin/../arm-none-eabi/lib//libc.a(lib_a-stdio.o)
 .ARM.attributes
                0x00002f68       0x30 /home/leon/riotboard/arm-2012.09/bin/../arm-none-eabi/lib//libc.a(lib_a-svfiprintf.o)
 .ARM.attributes
                0x00002f98       0x30 /home/leon/riotboard/arm-2012.09/bin/../arm-none-eabi/lib//libc.a(lib_a-wcrtomb.o)
 .ARM.attributes
                0x00002fc8       0x30 /home/leon/riotboard/arm-2012.09/bin/../arm-none-eabi/lib//libc.a(lib_a-wctomb_r.o)
 .ARM.attributes
                0x00002ff8       0x30 /home/leon/riotboard/arm-2012.09/bin/../arm-none-eabi/lib//libc.a(lib_a-writer.o)
 .ARM.attributes
                0x00003028       0x30 /home/leon/riotboard/arm-2012.09/bin/../arm-none-eabi/lib//libc.a(lib_a-callocr.o)
 .ARM.attributes
                0x00003058       0x30 /home/leon/riotboard/arm-2012.09/bin/../arm-none-eabi/lib//libc.a(lib_a-closer.o)
 .ARM.attributes
                0x00003088       0x30 /home/leon/riotboard/arm-2012.09/bin/../arm-none-eabi/lib//libc.a(lib_a-fclose.o)
 .ARM.attributes
                0x000030b8       0x30 /home/leon/riotboard/arm-2012.09/bin/../arm-none-eabi/lib//libc.a(lib_a-fstatr.o)
 .ARM.attributes
                0x000030e8       0x30 /home/leon/riotboard/arm-2012.09/bin/../arm-none-eabi/lib//libc.a(lib_a-isattyr.o)
 .ARM.attributes
                0x00003118       0x30 /home/leon/riotboard/arm-2012.09/bin/../arm-none-eabi/lib//libc.a(lib_a-lseekr.o)
 .ARM.attributes
                0x00003148       0x30 /home/leon/riotboard/arm-2012.09/bin/../arm-none-eabi/lib//libc.a(lib_a-readr.o)
 .ARM.attributes
                0x00003178       0x18 /home/leon/riotboard/arm-2012.09/bin/../lib/gcc/arm-none-eabi/4.7.2//libgcc.a(_udivsi3.o)
 .ARM.attributes
                0x00003190       0x18 /home/leon/riotboard/arm-2012.09/bin/../lib/gcc/arm-none-eabi/4.7.2//libgcc.a(_divsi3.o)
 .ARM.attributes
                0x000031a8       0x18 /home/leon/riotboard/arm-2012.09/bin/../lib/gcc/arm-none-eabi/4.7.2//libgcc.a(_dvmd_tls.o)
 .ARM.attributes
                0x000031c0       0x18 /home/leon/riotboard/arm-2012.09/bin/../lib/gcc/arm-none-eabi/4.7.2//libgcc.a(_arm_addsubdf3.o)
 .ARM.attributes
                0x000031d8       0x18 /home/leon/riotboard/arm-2012.09/bin/../lib/gcc/arm-none-eabi/4.7.2//libgcc.a(_arm_muldivdf3.o)
 .ARM.attributes
                0x000031f0       0x18 /home/leon/riotboard/arm-2012.09/bin/../lib/gcc/arm-none-eabi/4.7.2//libgcc.a(_arm_cmpdf2.o)
 .ARM.attributes
                0x00003208       0x18 /home/leon/riotboard/arm-2012.09/bin/../lib/gcc/arm-none-eabi/4.7.2//libgcc.a(_arm_fixdfsi.o)
 .ARM.attributes
                0x00003220       0x18 /home/leon/riotboard/arm-2012.09/bin/../lib/gcc/arm-none-eabi/4.7.2//libgcc.a(_aeabi_uldivmod.o)
 .ARM.attributes
                0x00003238       0x30 /home/leon/riotboard/arm-2012.09/bin/../lib/gcc/arm-none-eabi/4.7.2//libgcc.a(bpabi.o)
 .ARM.attributes
                0x00003268       0x30 /home/leon/riotboard/arm-2012.09/bin/../lib/gcc/arm-none-eabi/4.7.2//libgcc.a(_divdi3.o)
 .ARM.attributes
                0x00003298       0x30 /home/leon/riotboard/arm-2012.09/bin/../lib/gcc/arm-none-eabi/4.7.2//libgcc.a(_udivdi3.o)
 .ARM.attributes
                0x000032c8       0x18 /home/leon/riotboard/arm-2012.09/bin/../lib/gcc/arm-none-eabi/4.7.2//libgcc.a(_clzsi2.o)
 .ARM.attributes
                0x000032e0       0x39 /home/leon/git/swp-report/iMX6_Platform_SDK/output/mx6sdl/lib/libsdk.a(runtime_support.o)

.comment        0x00000000       0x30
 .comment       0x00000000       0x30 /home/leon/git/swp-report/iMX6_Platform_SDK/output/mx6sdl/obds/evb_rev_a/obj/apps/common/ivt.o
                                 0x31 (size before relaxing)
 .comment       0x00000000       0x31 /home/leon/git/swp-report/iMX6_Platform_SDK/output/mx6sdl/obds/evb_rev_a/obj/apps/common/platform_init.o
 .comment       0x00000000       0x31 /home/leon/git/swp-report/iMX6_Platform_SDK/output/mx6sdl/obds/evb_rev_a/obj/apps/common/print_clock_info.o
 .comment       0x00000000       0x31 /home/leon/git/swp-report/iMX6_Platform_SDK/output/mx6sdl/obds/evb_rev_a/obj/apps/common/print_version.o
 .comment       0x00000000       0x31 /home/leon/git/swp-report/iMX6_Platform_SDK/output/mx6sdl/obds/evb_rev_a/obj/apps/obds/src/obds.o
 .comment       0x00000000       0x31 /home/leon/git/swp-report/iMX6_Platform_SDK/output/mx6sdl/obds/evb_rev_a/obj/apps/obds/src/obds_utils.o
 .comment       0x00000000       0x31 /home/leon/git/swp-report/iMX6_Platform_SDK/output/mx6sdl/obds/evb_rev_a/obj/apps/obds/src/tests/android_buttons_test.o
 .comment       0x00000000       0x31 /home/leon/git/swp-report/iMX6_Platform_SDK/output/mx6sdl/obds/evb_rev_a/obj/apps/obds/src/tests/audio_esai_test.o
 .comment       0x00000000       0x31 /home/leon/git/swp-report/iMX6_Platform_SDK/output/mx6sdl/obds/evb_rev_a/obj/apps/obds/src/tests/audio_ssi_test.o
 .comment       0x00000000       0x31 /home/leon/git/swp-report/iMX6_Platform_SDK/output/mx6sdl/obds/evb_rev_a/obj/apps/obds/src/tests/ddr_test.o
 .comment       0x00000000       0x31 /home/leon/git/swp-report/iMX6_Platform_SDK/output/mx6sdl/obds/evb_rev_a/obj/apps/obds/src/tests/deserializer_ds90ur124.o
 .comment       0x00000000       0x31 /home/leon/git/swp-report/iMX6_Platform_SDK/output/mx6sdl/obds/evb_rev_a/obj/apps/obds/src/tests/display_test.o
 .comment       0x00000000       0x31 /home/leon/git/swp-report/iMX6_Platform_SDK/output/mx6sdl/obds/evb_rev_a/obj/apps/obds/src/tests/enet_mx6dldq_test.o
 .comment       0x00000000       0x31 /home/leon/git/swp-report/iMX6_Platform_SDK/output/mx6sdl/obds/evb_rev_a/obj/apps/obds/src/tests/flexcan_test.o
 .comment       0x00000000       0x31 /home/leon/git/swp-report/iMX6_Platform_SDK/output/mx6sdl/obds/evb_rev_a/obj/apps/obds/src/tests/fm_tuner_si476x_test.o
 .comment       0x00000000       0x31 /home/leon/git/swp-report/iMX6_Platform_SDK/output/mx6sdl/obds/evb_rev_a/obj/apps/obds/src/tests/gpio_led.o
 .comment       0x00000000       0x31 /home/leon/git/swp-report/iMX6_Platform_SDK/output/mx6sdl/obds/evb_rev_a/obj/apps/obds/src/tests/gps_test.o
 .comment       0x00000000       0x31 /home/leon/git/swp-report/iMX6_Platform_SDK/output/mx6sdl/obds/evb_rev_a/obj/apps/obds/src/tests/i2c_check_light_sensor_isl29023.o
 .comment       0x00000000       0x31 /home/leon/git/swp-report/iMX6_Platform_SDK/output/mx6sdl/obds/evb_rev_a/obj/apps/obds/src/tests/i2c_device_barometer_ppl3115.o
 .comment       0x00000000       0x31 /home/leon/git/swp-report/iMX6_Platform_SDK/output/mx6sdl/obds/evb_rev_a/obj/apps/obds/src/tests/i2c_device_check_cs42888.o
 .comment       0x00000000       0x31 /home/leon/git/swp-report/iMX6_Platform_SDK/output/mx6sdl/obds/evb_rev_a/obj/apps/obds/src/tests/i2c_device_digital_compass_mag3110.o
 .comment       0x00000000       0x31 /home/leon/git/swp-report/iMX6_Platform_SDK/output/mx6sdl/obds/evb_rev_a/obj/apps/obds/src/tests/i2c_device_digital_compass_mag3112.o
 .comment       0x00000000       0x31 /home/leon/git/swp-report/iMX6_Platform_SDK/output/mx6sdl/obds/evb_rev_a/obj/apps/obds/src/tests/i2c_device_id_check_mma8450.o
 .comment       0x00000000       0x31 /home/leon/git/swp-report/iMX6_Platform_SDK/output/mx6sdl/obds/evb_rev_a/obj/apps/obds/src/tests/i2c_device_id_check_mma8451.o
 .comment       0x00000000       0x31 /home/leon/git/swp-report/iMX6_Platform_SDK/output/mx6sdl/obds/evb_rev_a/obj/apps/obds/src/tests/i2c_device_id_check_p1003_tsc.o
 .comment       0x00000000       0x31 /home/leon/git/swp-report/iMX6_Platform_SDK/output/mx6sdl/obds/evb_rev_a/obj/apps/obds/src/tests/i2c_device_temp_sensor_emc1046.o
 .comment       0x00000000       0x31 /home/leon/git/swp-report/iMX6_Platform_SDK/output/mx6sdl/obds/evb_rev_a/obj/apps/obds/src/tests/i2c_device_zigbee_mc1323.o
 .comment       0x00000000       0x31 /home/leon/git/swp-report/iMX6_Platform_SDK/output/mx6sdl/obds/evb_rev_a/obj/apps/obds/src/tests/i2c_eeprom_at24cxx_test.o
 .comment       0x00000000       0x31 /home/leon/git/swp-report/iMX6_Platform_SDK/output/mx6sdl/obds/evb_rev_a/obj/apps/obds/src/tests/imx_spi_nor_test.o
 .comment       0x00000000       0x31 /home/leon/git/swp-report/iMX6_Platform_SDK/output/mx6sdl/obds/evb_rev_a/obj/apps/obds/src/tests/mlb_os81050.o
 .comment       0x00000000       0x31 /home/leon/git/swp-report/iMX6_Platform_SDK/output/mx6sdl/obds/evb_rev_a/obj/apps/obds/src/tests/mmcsd_test.o
 .comment       0x00000000       0x31 /home/leon/git/swp-report/iMX6_Platform_SDK/output/mx6sdl/obds/evb_rev_a/obj/apps/obds/src/tests/pmic_da9053.o
 .comment       0x00000000       0x31 /home/leon/git/swp-report/iMX6_Platform_SDK/output/mx6sdl/obds/evb_rev_a/obj/apps/obds/src/tests/pmic_lt3589.o
 .comment       0x00000000       0x31 /home/leon/git/swp-report/iMX6_Platform_SDK/output/mx6sdl/obds/evb_rev_a/obj/apps/obds/src/tests/pmic_max17135.o
 .comment       0x00000000       0x31 /home/leon/git/swp-report/iMX6_Platform_SDK/output/mx6sdl/obds/evb_rev_a/obj/apps/obds/src/tests/pmic_mc13892.o
 .comment       0x00000000       0x31 /home/leon/git/swp-report/iMX6_Platform_SDK/output/mx6sdl/obds/evb_rev_a/obj/apps/obds/src/tests/program_board_id.o
 .comment       0x00000000       0x31 /home/leon/git/swp-report/iMX6_Platform_SDK/output/mx6sdl/obds/evb_rev_a/obj/apps/obds/src/tests/program_mac_address.o
 .comment       0x00000000       0x31 /home/leon/git/swp-report/iMX6_Platform_SDK/output/mx6sdl/obds/evb_rev_a/obj/apps/obds/src/tests/snvs_srtc_test.o
 .comment       0x00000000       0x31 /home/leon/git/swp-report/iMX6_Platform_SDK/output/mx6sdl/obds/evb_rev_a/obj/apps/obds/src/tests/touch_button_test.o
 .comment       0x00000000       0x31 /home/leon/git/swp-report/iMX6_Platform_SDK/output/mx6sdl/obds/evb_rev_a/obj/apps/obds/src/tests/touch_screen.o
 .comment       0x00000000       0x31 /home/leon/git/swp-report/iMX6_Platform_SDK/output/mx6sdl/obds/evb_rev_a/obj/apps/obds/src/tests/touch_screen_max11801.o
 .comment       0x00000000       0x31 /home/leon/git/swp-report/iMX6_Platform_SDK/output/mx6sdl/obds/evb_rev_a/obj/apps/obds/src/tests/usb_tests_obds.o
 .comment       0x00000000       0x31 /home/leon/git/swp-report/iMX6_Platform_SDK/output/mx6sdl/obds/evb_rev_a/obj/apps/obds/src/tests/video_dec_ARD_MB_reset_button.o
 .comment       0x00000000       0x31 /home/leon/git/swp-report/iMX6_Platform_SDK/output/mx6sdl/obds/evb_rev_a/obj/apps/obds/src/tests/video_dec_ARD_MBrst_from_cpu_expander.o
 .comment       0x00000000       0x31 /home/leon/git/swp-report/iMX6_Platform_SDK/output/mx6sdl/obds/evb_rev_a/obj/apps/obds/src/tests/video_dec_adv7180.o
 .comment       0x00000000       0x31 /home/leon/git/swp-report/iMX6_Platform_SDK/output/mx6sdl/obds/evb_rev_a/obj/apps/obds/src/tests/weim_nor_flash_test.o
 .comment       0x00000000       0x31 /home/leon/git/swp-report/iMX6_Platform_SDK/output/mx6sdl/obds/evb_rev_a/obj/sdk/common/ioexpander/test/max7310_test.o
 .comment       0x00000000       0x31 /home/leon/git/swp-report/iMX6_Platform_SDK/output/mx6sdl/obds/evb_rev_a/obj/sdk/common/pmic/pfuse/pf0100.o
 .comment       0x00000000       0x31 /home/leon/git/swp-report/iMX6_Platform_SDK/output/mx6sdl/obds/evb_rev_a/obj/sdk/drivers/audio/src/snd_card.o
 .comment       0x00000000       0x31 /home/leon/git/swp-report/iMX6_Platform_SDK/output/mx6sdl/obds/evb_rev_a/obj/sdk/drivers/camera/test/adv7180_capture.o
 .comment       0x00000000       0x31 /home/leon/git/swp-report/iMX6_Platform_SDK/output/mx6sdl/obds/evb_rev_a/obj/sdk/drivers/camera/test/camera_test.o
 .comment       0x00000000       0x31 /home/leon/git/swp-report/iMX6_Platform_SDK/output/mx6sdl/obds/evb_rev_a/obj/sdk/drivers/camera/test/csi_test_mode.o
 .comment       0x00000000       0x31 /home/leon/git/swp-report/iMX6_Platform_SDK/output/mx6sdl/obds/evb_rev_a/obj/sdk/drivers/camera/test/sensor_capture.o
 .comment       0x00000000       0x31 /home/leon/git/swp-report/iMX6_Platform_SDK/output/mx6sdl/obds/evb_rev_a/obj/sdk/drivers/epdc/test/epdc_test.o
 .comment       0x00000000       0x31 /home/leon/git/swp-report/iMX6_Platform_SDK/output/mx6sdl/obds/evb_rev_a/obj/sdk/drivers/hdmi/test/hdmi_test.o
 .comment       0x00000000       0x31 /home/leon/git/swp-report/iMX6_Platform_SDK/output/mx6sdl/obds/evb_rev_a/obj/sdk/drivers/hdmi/test/init_dma_data.o
 .comment       0x00000000       0x31 /home/leon/git/swp-report/iMX6_Platform_SDK/output/mx6sdl/obds/evb_rev_a/obj/sdk/drivers/ipu/test/ips_display.o
 .comment       0x00000000       0x31 /home/leon/git/swp-report/iMX6_Platform_SDK/output/mx6sdl/obds/evb_rev_a/obj/sdk/drivers/ipu/test/ipu_image.o
 .comment       0x00000000       0x31 /home/leon/git/swp-report/iMX6_Platform_SDK/output/mx6sdl/obds/evb_rev_a/obj/sdk/drivers/spi/test/imx_spi_nor_atmel.o
 .comment       0x00000000       0x31 /home/leon/git/swp-report/iMX6_Platform_SDK/output/mx6sdl/obds/evb_rev_a/obj/sdk/drivers/spi/test/spi_nor_numonyx.o
 .comment       0x00000000       0x31 /home/leon/git/swp-report/iMX6_Platform_SDK/output/mx6sdl/obds/evb_rev_a/obj/sdk/drivers/uart/test/uart_test.o
 .comment       0x00000000       0x31 /home/leon/git/swp-report/iMX6_Platform_SDK/output/mx6sdl/obds/evb_rev_a/obj/sdk/drivers/usb/test/usb0_host_test.o
 .comment       0x00000000       0x31 /home/leon/git/swp-report/iMX6_Platform_SDK/output/mx6sdl/obds/evb_rev_a/obj/sdk/drivers/usb/test/usb0_host_testmodes_test.o
 .comment       0x00000000       0x31 /home/leon/git/swp-report/iMX6_Platform_SDK/output/mx6sdl/obds/evb_rev_a/obj/sdk/drivers/usdhc/test/usdhc_test.o
 .comment       0x00000000       0x31 /home/leon/git/swp-report/iMX6_Platform_SDK/output/mx6sdl/lib/libsdk.a(max7310.o)
 .comment       0x00000000       0x31 /home/leon/git/swp-report/iMX6_Platform_SDK/output/mx6sdl/lib/libsdk.a(ccm_pll.o)
 .comment       0x00000000       0x31 /home/leon/git/swp-report/iMX6_Platform_SDK/output/mx6sdl/lib/libsdk.a(gic.o)
 .comment       0x00000000       0x31 /home/leon/git/swp-report/iMX6_Platform_SDK/output/mx6sdl/lib/libsdk.a(interrupt.o)
 .comment       0x00000000       0x31 /home/leon/git/swp-report/iMX6_Platform_SDK/output/mx6sdl/lib/libsdk.a(mmu.o)
 .comment       0x00000000       0x31 /home/leon/git/swp-report/iMX6_Platform_SDK/output/mx6sdl/lib/libsdk.a(menu.o)
 .comment       0x00000000       0x31 /home/leon/git/swp-report/iMX6_Platform_SDK/output/mx6sdl/lib/libsdk.a(sdk_version.o)
 .comment       0x00000000       0x31 /home/leon/git/swp-report/iMX6_Platform_SDK/output/mx6sdl/lib/libsdk.a(system_util.o)
 .comment       0x00000000       0x31 /home/leon/git/swp-report/iMX6_Platform_SDK/output/mx6sdl/lib/libsdk.a(text_color.o)
 .comment       0x00000000       0x31 /home/leon/git/swp-report/iMX6_Platform_SDK/output/mx6sdl/lib/libsdk.a(cs42888.o)
 .comment       0x00000000       0x31 /home/leon/git/swp-report/iMX6_Platform_SDK/output/mx6sdl/lib/libsdk.a(imx-ssi.o)
 .comment       0x00000000       0x31 /home/leon/git/swp-report/iMX6_Platform_SDK/output/mx6sdl/lib/libsdk.a(imx_esai.o)
 .comment       0x00000000       0x31 /home/leon/git/swp-report/iMX6_Platform_SDK/output/mx6sdl/lib/libsdk.a(imx_spdif.o)
 .comment       0x00000000       0x31 /home/leon/git/swp-report/iMX6_Platform_SDK/output/mx6sdl/lib/libsdk.a(sgtl5000.o)
 .comment       0x00000000       0x31 /home/leon/git/swp-report/iMX6_Platform_SDK/output/mx6sdl/lib/libsdk.a(wm8958_dac.o)
 .comment       0x00000000       0x31 /home/leon/git/swp-report/iMX6_Platform_SDK/output/mx6sdl/lib/libsdk.a(wm8962.o)
 .comment       0x00000000       0x31 /home/leon/git/swp-report/iMX6_Platform_SDK/output/mx6sdl/lib/libsdk.a(board_id.o)
 .comment       0x00000000       0x31 /home/leon/git/swp-report/iMX6_Platform_SDK/output/mx6sdl/lib/libsdk.a(smd_sensor.o)
 .comment       0x00000000       0x31 /home/leon/git/swp-report/iMX6_Platform_SDK/output/mx6sdl/lib/libsdk.a(enet_drv.o)
 .comment       0x00000000       0x31 /home/leon/git/swp-report/iMX6_Platform_SDK/output/mx6sdl/lib/libsdk.a(mxc_epdc.o)
 .comment       0x00000000       0x31 /home/leon/git/swp-report/iMX6_Platform_SDK/output/mx6sdl/lib/libsdk.a(gpio.o)
 .comment       0x00000000       0x31 /home/leon/git/swp-report/iMX6_Platform_SDK/output/mx6sdl/lib/libsdk.a(imx6sdl_gpio_map.o)
 .comment       0x00000000       0x31 /home/leon/git/swp-report/iMX6_Platform_SDK/output/mx6sdl/lib/libsdk.a(hdmi_tx.o)
 .comment       0x00000000       0x31 /home/leon/git/swp-report/iMX6_Platform_SDK/output/mx6sdl/lib/libsdk.a(hdmi_tx_audio.o)
 .comment       0x00000000       0x31 /home/leon/git/swp-report/iMX6_Platform_SDK/output/mx6sdl/lib/libsdk.a(hdmi_tx_phy.o)
 .comment       0x00000000       0x31 /home/leon/git/swp-report/iMX6_Platform_SDK/output/mx6sdl/lib/libsdk.a(imx_i2c.o)
 .comment       0x00000000       0x31 /home/leon/git/swp-report/iMX6_Platform_SDK/output/mx6sdl/lib/libsdk.a(ips_disp_panel.o)
 .comment       0x00000000       0x31 /home/leon/git/swp-report/iMX6_Platform_SDK/output/mx6sdl/lib/libsdk.a(ipu_common.o)
 .comment       0x00000000       0x31 /home/leon/git/swp-report/iMX6_Platform_SDK/output/mx6sdl/lib/libsdk.a(ipu_csi.o)
 .comment       0x00000000       0x31 /home/leon/git/swp-report/iMX6_Platform_SDK/output/mx6sdl/lib/libsdk.a(ipu_dc.o)
 .comment       0x00000000       0x31 /home/leon/git/swp-report/iMX6_Platform_SDK/output/mx6sdl/lib/libsdk.a(ipu_di.o)
 .comment       0x00000000       0x31 /home/leon/git/swp-report/iMX6_Platform_SDK/output/mx6sdl/lib/libsdk.a(ipu_dmfc.o)
 .comment       0x00000000       0x31 /home/leon/git/swp-report/iMX6_Platform_SDK/output/mx6sdl/lib/libsdk.a(ipu_dp.o)
 .comment       0x00000000       0x31 /home/leon/git/swp-report/iMX6_Platform_SDK/output/mx6sdl/lib/libsdk.a(ipu_idmac.o)
 .comment       0x00000000       0x31 /home/leon/git/swp-report/iMX6_Platform_SDK/output/mx6sdl/lib/libsdk.a(ipu_vdi.o)
 .comment       0x00000000       0x31 /home/leon/git/swp-report/iMX6_Platform_SDK/output/mx6sdl/lib/libsdk.a(ldb.o)
 .comment       0x00000000       0x31 /home/leon/git/swp-report/iMX6_Platform_SDK/output/mx6sdl/lib/libsdk.a(ocotp.o)
 .comment       0x00000000       0x31 /home/leon/git/swp-report/iMX6_Platform_SDK/output/mx6sdl/lib/libsdk.a(ecspi.o)
 .comment       0x00000000       0x31 /home/leon/git/swp-report/iMX6_Platform_SDK/output/mx6sdl/lib/libsdk.a(timer.o)
 .comment       0x00000000       0x31 /home/leon/git/swp-report/iMX6_Platform_SDK/output/mx6sdl/lib/libsdk.a(imx_uart.o)
 .comment       0x00000000       0x31 /home/leon/git/swp-report/iMX6_Platform_SDK/output/mx6sdl/lib/libsdk.a(usb_common.o)
 .comment       0x00000000       0x31 /home/leon/git/swp-report/iMX6_Platform_SDK/output/mx6sdl/lib/libsdk.a(usbh_drv.o)
 .comment       0x00000000       0x31 /home/leon/git/swp-report/iMX6_Platform_SDK/output/mx6sdl/lib/libsdk.a(usdhc.o)
 .comment       0x00000000       0x31 /home/leon/git/swp-report/iMX6_Platform_SDK/output/mx6sdl/lib/libsdk.a(usdhc_host.o)
 .comment       0x00000000       0x31 /home/leon/git/swp-report/iMX6_Platform_SDK/output/mx6sdl/lib/libsdk.a(usdhc_mmc.o)
 .comment       0x00000000       0x31 /home/leon/git/swp-report/iMX6_Platform_SDK/output/mx6sdl/lib/libsdk.a(usdhc_sd.o)
 .comment       0x00000000       0x31 /home/leon/git/swp-report/iMX6_Platform_SDK/output/mx6sdl/lib/libsdk.a(adv7180.o)
 .comment       0x00000000       0x31 /home/leon/git/swp-report/iMX6_Platform_SDK/output/mx6sdl/lib/libsdk.a(armv7_cache.o)
 .comment       0x00000000       0x31 /home/leon/git/swp-report/iMX6_Platform_SDK/output/mx6sdl/lib/libsdk.a(camera_profile.o)
 .comment       0x00000000       0x31 /home/leon/git/swp-report/iMX6_Platform_SDK/output/mx6sdl/lib/libsdk.a(hdmi_common.o)
 .comment       0x00000000       0x31 /home/leon/git/swp-report/iMX6_Platform_SDK/output/mx6sdl/lib/libsdk.a(ipu_ic.o)
 .comment       0x00000000       0x31 /home/leon/git/swp-report/iMX6_Platform_SDK/output/mx6sdl/lib/libsdk.a(epit.o)
 .comment       0x00000000       0x31 /home/leon/git/swp-report/iMX6_Platform_SDK/output/mx6sdl/lib/libsdk.a(mx6x_usb.o)
 .comment       0x00000000       0x31 /home/leon/git/swp-report/iMX6_Platform_SDK/output/mx6sdl/lib/libsdk.a(abort_handler.o)
 .comment       0x00000000       0x31 /home/leon/git/swp-report/iMX6_Platform_SDK/output/mx6sdl/lib/libboard_evb_rev_a.a(board_audio.o)
 .comment       0x00000000       0x31 /home/leon/git/swp-report/iMX6_Platform_SDK/output/mx6sdl/lib/libboard_evb_rev_a.a(board_buttons.o)
 .comment       0x00000000       0x31 /home/leon/git/swp-report/iMX6_Platform_SDK/output/mx6sdl/lib/libboard_evb_rev_a.a(board_camera.o)
 .comment       0x00000000       0x31 /home/leon/git/swp-report/iMX6_Platform_SDK/output/mx6sdl/lib/libboard_evb_rev_a.a(board_display.o)
 .comment       0x00000000       0x31 /home/leon/git/swp-report/iMX6_Platform_SDK/output/mx6sdl/lib/libboard_evb_rev_a.a(board_hdmi.o)
 .comment       0x00000000       0x31 /home/leon/git/swp-report/iMX6_Platform_SDK/output/mx6sdl/lib/libboard_evb_rev_a.a(board_i2c.o)
 .comment       0x00000000       0x31 /home/leon/git/swp-report/iMX6_Platform_SDK/output/mx6sdl/lib/libboard_evb_rev_a.a(board_io_expanders.o)
 .comment       0x00000000       0x31 /home/leon/git/swp-report/iMX6_Platform_SDK/output/mx6sdl/lib/libboard_evb_rev_a.a(board_mipi.o)
 .comment       0x00000000       0x31 /home/leon/git/swp-report/iMX6_Platform_SDK/output/mx6sdl/lib/libboard_evb_rev_a.a(board_network.o)
 .comment       0x00000000       0x31 /home/leon/git/swp-report/iMX6_Platform_SDK/output/mx6sdl/lib/libboard_evb_rev_a.a(board_usb.o)
 .comment       0x00000000       0x31 /home/leon/git/swp-report/iMX6_Platform_SDK/output/mx6sdl/lib/libboard_evb_rev_a.a(board_usdhc.o)
 .comment       0x00000000       0x31 /home/leon/git/swp-report/iMX6_Platform_SDK/output/mx6sdl/lib/libboard_evb_rev_a.a(hardware_modules.o)
 .comment       0x00000000       0x31 /home/leon/git/swp-report/iMX6_Platform_SDK/output/mx6sdl/lib/libboard_evb_rev_a.a(dcd.o)
 .comment       0x00000000       0x31 /home/leon/git/swp-report/iMX6_Platform_SDK/output/mx6sdl/lib/libboard_evb_rev_a.a(ecspi_iomux_config.o)
 .comment       0x00000000       0x31 /home/leon/git/swp-report/iMX6_Platform_SDK/output/mx6sdl/lib/libboard_evb_rev_a.a(enet_iomux_config.o)
 .comment       0x00000000       0x31 /home/leon/git/swp-report/iMX6_Platform_SDK/output/mx6sdl/lib/libboard_evb_rev_a.a(esai_iomux_config.o)
 .comment       0x00000000       0x31 /home/leon/git/swp-report/iMX6_Platform_SDK/output/mx6sdl/lib/libboard_evb_rev_a.a(i2c_iomux_config.o)
 .comment       0x00000000       0x31 /home/leon/git/swp-report/iMX6_Platform_SDK/output/mx6sdl/lib/libboard_evb_rev_a.a(iomux_config.o)
 .comment       0x00000000       0x31 /home/leon/git/swp-report/iMX6_Platform_SDK/output/mx6sdl/lib/libboard_evb_rev_a.a(ipu1_iomux_config.o)
 .comment       0x00000000       0x31 /home/leon/git/swp-report/iMX6_Platform_SDK/output/mx6sdl/lib/libboard_evb_rev_a.a(ipu_iomux_config.o)
 .comment       0x00000000       0x31 /home/leon/git/swp-report/iMX6_Platform_SDK/output/mx6sdl/lib/libboard_evb_rev_a.a(kpp_iomux_config.o)
 .comment       0x00000000       0x31 /home/leon/git/swp-report/iMX6_Platform_SDK/output/mx6sdl/lib/libboard_evb_rev_a.a(mlb_iomux_config.o)
 .comment       0x00000000       0x31 /home/leon/git/swp-report/iMX6_Platform_SDK/output/mx6sdl/lib/libboard_evb_rev_a.a(mmdc_iomux_config.o)
 .comment       0x00000000       0x31 /home/leon/git/swp-report/iMX6_Platform_SDK/output/mx6sdl/lib/libboard_evb_rev_a.a(pwm1_iomux_config.o)
 .comment       0x00000000       0x31 /home/leon/git/swp-report/iMX6_Platform_SDK/output/mx6sdl/lib/libboard_evb_rev_a.a(sjc_iomux_config.o)
 .comment       0x00000000       0x31 /home/leon/git/swp-report/iMX6_Platform_SDK/output/mx6sdl/lib/libboard_evb_rev_a.a(spdif_iomux_config.o)
 .comment       0x00000000       0x31 /home/leon/git/swp-report/iMX6_Platform_SDK/output/mx6sdl/lib/libboard_evb_rev_a.a(uart2_iomux_config.o)
 .comment       0x00000000       0x31 /home/leon/git/swp-report/iMX6_Platform_SDK/output/mx6sdl/lib/libboard_evb_rev_a.a(uart4_iomux_config.o)
 .comment       0x00000000       0x31 /home/leon/git/swp-report/iMX6_Platform_SDK/output/mx6sdl/lib/libboard_evb_rev_a.a(uart_iomux_config.o)
 .comment       0x00000000       0x31 /home/leon/git/swp-report/iMX6_Platform_SDK/output/mx6sdl/lib/libboard_evb_rev_a.a(usb_iomux_config.o)
 .comment       0x00000000       0x31 /home/leon/git/swp-report/iMX6_Platform_SDK/output/mx6sdl/lib/libboard_evb_rev_a.a(usdhc1_iomux_config.o)
 .comment       0x00000000       0x31 /home/leon/git/swp-report/iMX6_Platform_SDK/output/mx6sdl/lib/libboard_evb_rev_a.a(usdhc2_iomux_config.o)
 .comment       0x00000000       0x31 /home/leon/git/swp-report/iMX6_Platform_SDK/output/mx6sdl/lib/libboard_evb_rev_a.a(usdhc3_iomux_config.o)
 .comment       0x00000000       0x31 /home/leon/git/swp-report/iMX6_Platform_SDK/output/mx6sdl/lib/libboard_evb_rev_a.a(usdhc4_iomux_config.o)
 .comment       0x00000000       0x31 /home/leon/git/swp-report/iMX6_Platform_SDK/output/mx6sdl/lib/libboard_evb_rev_a.a(usdhc_iomux_config.o)
 .comment       0x00000000       0x31 /home/leon/git/swp-report/iMX6_Platform_SDK/output/mx6sdl/lib/libboard_evb_rev_a.a(ccm_iomux_config.o)
 .comment       0x00000000       0x31 /home/leon/git/swp-report/iMX6_Platform_SDK/output/mx6sdl/lib/libboard_evb_rev_a.a(ecspi1_iomux_config.o)
 .comment       0x00000000       0x31 /home/leon/git/swp-report/iMX6_Platform_SDK/output/mx6sdl/lib/libboard_evb_rev_a.a(flexcan1_iomux_config.o)
 .comment       0x00000000       0x31 /home/leon/git/swp-report/iMX6_Platform_SDK/output/mx6sdl/lib/libboard_evb_rev_a.a(flexcan2_iomux_config.o)
 .comment       0x00000000       0x31 /home/leon/git/swp-report/iMX6_Platform_SDK/output/mx6sdl/lib/libboard_evb_rev_a.a(gpio3_iomux_config.o)
 .comment       0x00000000       0x31 /home/leon/git/swp-report/iMX6_Platform_SDK/output/mx6sdl/lib/libboard_evb_rev_a.a(gpio4_iomux_config.o)
 .comment       0x00000000       0x31 /home/leon/git/swp-report/iMX6_Platform_SDK/output/mx6sdl/lib/libboard_evb_rev_a.a(gpio5_iomux_config.o)
 .comment       0x00000000       0x31 /home/leon/git/swp-report/iMX6_Platform_SDK/output/mx6sdl/lib/libboard_evb_rev_a.a(gpio6_iomux_config.o)
 .comment       0x00000000       0x31 /home/leon/git/swp-report/iMX6_Platform_SDK/output/mx6sdl/lib/libboard_evb_rev_a.a(gpmi_iomux_config.o)
 .comment       0x00000000       0x31 /home/leon/git/swp-report/iMX6_Platform_SDK/output/mx6sdl/lib/libboard_evb_rev_a.a(hdmi_iomux_config.o)
 .comment       0x00000000       0x31 /home/leon/git/swp-report/iMX6_Platform_SDK/output/mx6sdl/lib/libboard_evb_rev_a.a(i2c1_iomux_config.o)
 .comment       0x00000000       0x31 /home/leon/git/swp-report/iMX6_Platform_SDK/output/mx6sdl/lib/libboard_evb_rev_a.a(i2c2_iomux_config.o)
 .comment       0x00000000       0x31 /home/leon/git/swp-report/iMX6_Platform_SDK/output/mx6sdl/lib/libboard_evb_rev_a.a(i2c3_iomux_config.o)
 .comment       0x00000000       0x31 /home/leon/git/swp-report/iMX6_Platform_SDK/output/mx6sdl/lib/libsdk.a(runtime_support.o)

.debug_info     0x00000000    0x62674
 .debug_info    0x00000000      0x228 /home/leon/git/swp-report/iMX6_Platform_SDK/output/mx6sdl/obds/evb_rev_a/obj/apps/common/ivt.o
 .debug_info    0x00000228      0x198 /home/leon/git/swp-report/iMX6_Platform_SDK/output/mx6sdl/obds/evb_rev_a/obj/apps/common/platform_init.o
 .debug_info    0x000003c0      0x17b /home/leon/git/swp-report/iMX6_Platform_SDK/output/mx6sdl/obds/evb_rev_a/obj/apps/common/print_clock_info.o
 .debug_info    0x0000053b      0x1bd /home/leon/git/swp-report/iMX6_Platform_SDK/output/mx6sdl/obds/evb_rev_a/obj/apps/common/print_version.o
 .debug_info    0x000006f8      0x9a7 /home/leon/git/swp-report/iMX6_Platform_SDK/output/mx6sdl/obds/evb_rev_a/obj/apps/obds/src/obds.o
 .debug_info    0x0000109f      0x1be /home/leon/git/swp-report/iMX6_Platform_SDK/output/mx6sdl/obds/evb_rev_a/obj/apps/obds/src/obds_utils.o
 .debug_info    0x0000125d      0xabf /home/leon/git/swp-report/iMX6_Platform_SDK/output/mx6sdl/obds/evb_rev_a/obj/apps/obds/src/tests/android_buttons_test.o
 .debug_info    0x00001d1c      0xf2d /home/leon/git/swp-report/iMX6_Platform_SDK/output/mx6sdl/obds/evb_rev_a/obj/apps/obds/src/tests/audio_esai_test.o
 .debug_info    0x00002c49      0xf8e /home/leon/git/swp-report/iMX6_Platform_SDK/output/mx6sdl/obds/evb_rev_a/obj/apps/obds/src/tests/audio_ssi_test.o
 .debug_info    0x00003bd7      0x44a /home/leon/git/swp-report/iMX6_Platform_SDK/output/mx6sdl/obds/evb_rev_a/obj/apps/obds/src/tests/ddr_test.o
 .debug_info    0x00004021      0x188 /home/leon/git/swp-report/iMX6_Platform_SDK/output/mx6sdl/obds/evb_rev_a/obj/apps/obds/src/tests/deserializer_ds90ur124.o
 .debug_info    0x000041a9     0x1028 /home/leon/git/swp-report/iMX6_Platform_SDK/output/mx6sdl/obds/evb_rev_a/obj/apps/obds/src/tests/display_test.o
 .debug_info    0x000051d1     0x1f23 /home/leon/git/swp-report/iMX6_Platform_SDK/output/mx6sdl/obds/evb_rev_a/obj/apps/obds/src/tests/enet_mx6dldq_test.o
 .debug_info    0x000070f4      0x13e /home/leon/git/swp-report/iMX6_Platform_SDK/output/mx6sdl/obds/evb_rev_a/obj/apps/obds/src/tests/flexcan_test.o
 .debug_info    0x00007232      0x29a /home/leon/git/swp-report/iMX6_Platform_SDK/output/mx6sdl/obds/evb_rev_a/obj/apps/obds/src/tests/fm_tuner_si476x_test.o
 .debug_info    0x000074cc      0xa91 /home/leon/git/swp-report/iMX6_Platform_SDK/output/mx6sdl/obds/evb_rev_a/obj/apps/obds/src/tests/gpio_led.o
 .debug_info    0x00007f5d      0x18a /home/leon/git/swp-report/iMX6_Platform_SDK/output/mx6sdl/obds/evb_rev_a/obj/apps/obds/src/tests/gps_test.o
 .debug_info    0x000080e7      0xd44 /home/leon/git/swp-report/iMX6_Platform_SDK/output/mx6sdl/obds/evb_rev_a/obj/apps/obds/src/tests/i2c_check_light_sensor_isl29023.o
 .debug_info    0x00008e2b      0x39a /home/leon/git/swp-report/iMX6_Platform_SDK/output/mx6sdl/obds/evb_rev_a/obj/apps/obds/src/tests/i2c_device_barometer_ppl3115.o
 .debug_info    0x000091c5      0x554 /home/leon/git/swp-report/iMX6_Platform_SDK/output/mx6sdl/obds/evb_rev_a/obj/apps/obds/src/tests/i2c_device_check_cs42888.o
 .debug_info    0x00009719      0x35c /home/leon/git/swp-report/iMX6_Platform_SDK/output/mx6sdl/obds/evb_rev_a/obj/apps/obds/src/tests/i2c_device_digital_compass_mag3110.o
 .debug_info    0x00009a75      0x35c /home/leon/git/swp-report/iMX6_Platform_SDK/output/mx6sdl/obds/evb_rev_a/obj/apps/obds/src/tests/i2c_device_digital_compass_mag3112.o
 .debug_info    0x00009dd1      0xda7 /home/leon/git/swp-report/iMX6_Platform_SDK/output/mx6sdl/obds/evb_rev_a/obj/apps/obds/src/tests/i2c_device_id_check_mma8450.o
 .debug_info    0x0000ab78      0xda7 /home/leon/git/swp-report/iMX6_Platform_SDK/output/mx6sdl/obds/evb_rev_a/obj/apps/obds/src/tests/i2c_device_id_check_mma8451.o
 .debug_info    0x0000b91f      0xdad /home/leon/git/swp-report/iMX6_Platform_SDK/output/mx6sdl/obds/evb_rev_a/obj/apps/obds/src/tests/i2c_device_id_check_p1003_tsc.o
 .debug_info    0x0000c6cc      0x4c8 /home/leon/git/swp-report/iMX6_Platform_SDK/output/mx6sdl/obds/evb_rev_a/obj/apps/obds/src/tests/i2c_device_temp_sensor_emc1046.o
 .debug_info    0x0000cb94      0x3aa /home/leon/git/swp-report/iMX6_Platform_SDK/output/mx6sdl/obds/evb_rev_a/obj/apps/obds/src/tests/i2c_device_zigbee_mc1323.o
 .debug_info    0x0000cf3e      0x319 /home/leon/git/swp-report/iMX6_Platform_SDK/output/mx6sdl/obds/evb_rev_a/obj/apps/obds/src/tests/i2c_eeprom_at24cxx_test.o
 .debug_info    0x0000d257      0x476 /home/leon/git/swp-report/iMX6_Platform_SDK/output/mx6sdl/obds/evb_rev_a/obj/apps/obds/src/tests/imx_spi_nor_test.o
 .debug_info    0x0000d6cd      0x31e /home/leon/git/swp-report/iMX6_Platform_SDK/output/mx6sdl/obds/evb_rev_a/obj/apps/obds/src/tests/mlb_os81050.o
 .debug_info    0x0000d9eb      0x18b /home/leon/git/swp-report/iMX6_Platform_SDK/output/mx6sdl/obds/evb_rev_a/obj/apps/obds/src/tests/mmcsd_test.o
 .debug_info    0x0000db76      0x2ff /home/leon/git/swp-report/iMX6_Platform_SDK/output/mx6sdl/obds/evb_rev_a/obj/apps/obds/src/tests/pmic_da9053.o
 .debug_info    0x0000de75      0xcfe /home/leon/git/swp-report/iMX6_Platform_SDK/output/mx6sdl/obds/evb_rev_a/obj/apps/obds/src/tests/pmic_lt3589.o
 .debug_info    0x0000eb73      0x317 /home/leon/git/swp-report/iMX6_Platform_SDK/output/mx6sdl/obds/evb_rev_a/obj/apps/obds/src/tests/pmic_max17135.o
 .debug_info    0x0000ee8a      0x239 /home/leon/git/swp-report/iMX6_Platform_SDK/output/mx6sdl/obds/evb_rev_a/obj/apps/obds/src/tests/pmic_mc13892.o
 .debug_info    0x0000f0c3      0x365 /home/leon/git/swp-report/iMX6_Platform_SDK/output/mx6sdl/obds/evb_rev_a/obj/apps/obds/src/tests/program_board_id.o
 .debug_info    0x0000f428      0xc96 /home/leon/git/swp-report/iMX6_Platform_SDK/output/mx6sdl/obds/evb_rev_a/obj/apps/obds/src/tests/program_mac_address.o
 .debug_info    0x000100be      0x534 /home/leon/git/swp-report/iMX6_Platform_SDK/output/mx6sdl/obds/evb_rev_a/obj/apps/obds/src/tests/snvs_srtc_test.o
 .debug_info    0x000105f2      0xd02 /home/leon/git/swp-report/iMX6_Platform_SDK/output/mx6sdl/obds/evb_rev_a/obj/apps/obds/src/tests/touch_screen.o
 .debug_info    0x000112f4      0xefb /home/leon/git/swp-report/iMX6_Platform_SDK/output/mx6sdl/obds/evb_rev_a/obj/apps/obds/src/tests/touch_screen_max11801.o
 .debug_info    0x000121ef      0xdef /home/leon/git/swp-report/iMX6_Platform_SDK/output/mx6sdl/obds/evb_rev_a/obj/apps/obds/src/tests/usb_tests_obds.o
 .debug_info    0x00012fde      0x13e /home/leon/git/swp-report/iMX6_Platform_SDK/output/mx6sdl/obds/evb_rev_a/obj/apps/obds/src/tests/video_dec_ARD_MB_reset_button.o
 .debug_info    0x0001311c      0x130 /home/leon/git/swp-report/iMX6_Platform_SDK/output/mx6sdl/obds/evb_rev_a/obj/apps/obds/src/tests/video_dec_ARD_MBrst_from_cpu_expander.o
 .debug_info    0x0001324c      0xc6e /home/leon/git/swp-report/iMX6_Platform_SDK/output/mx6sdl/obds/evb_rev_a/obj/apps/obds/src/tests/video_dec_adv7180.o
 .debug_info    0x00013eba      0x1d3 /home/leon/git/swp-report/iMX6_Platform_SDK/output/mx6sdl/obds/evb_rev_a/obj/apps/obds/src/tests/weim_nor_flash_test.o
 .debug_info    0x0001408d      0x296 /home/leon/git/swp-report/iMX6_Platform_SDK/output/mx6sdl/obds/evb_rev_a/obj/sdk/common/ioexpander/test/max7310_test.o
 .debug_info    0x00014323      0x3f8 /home/leon/git/swp-report/iMX6_Platform_SDK/output/mx6sdl/obds/evb_rev_a/obj/sdk/common/pmic/pfuse/pf0100.o
 .debug_info    0x0001471b      0x7c7 /home/leon/git/swp-report/iMX6_Platform_SDK/output/mx6sdl/obds/evb_rev_a/obj/sdk/drivers/audio/src/snd_card.o
 .debug_info    0x00014ee2      0xce7 /home/leon/git/swp-report/iMX6_Platform_SDK/output/mx6sdl/obds/evb_rev_a/obj/sdk/drivers/camera/test/adv7180_capture.o
 .debug_info    0x00015bc9      0xa84 /home/leon/git/swp-report/iMX6_Platform_SDK/output/mx6sdl/obds/evb_rev_a/obj/sdk/drivers/camera/test/camera_test.o
 .debug_info    0x0001664d      0xc1b /home/leon/git/swp-report/iMX6_Platform_SDK/output/mx6sdl/obds/evb_rev_a/obj/sdk/drivers/camera/test/csi_test_mode.o
 .debug_info    0x00017268      0xdc2 /home/leon/git/swp-report/iMX6_Platform_SDK/output/mx6sdl/obds/evb_rev_a/obj/sdk/drivers/camera/test/sensor_capture.o
 .debug_info    0x0001802a      0xba2 /home/leon/git/swp-report/iMX6_Platform_SDK/output/mx6sdl/obds/evb_rev_a/obj/sdk/drivers/epdc/test/epdc_test.o
 .debug_info    0x00018bcc     0x10f1 /home/leon/git/swp-report/iMX6_Platform_SDK/output/mx6sdl/obds/evb_rev_a/obj/sdk/drivers/hdmi/test/hdmi_test.o
 .debug_info    0x00019cbd      0x37c /home/leon/git/swp-report/iMX6_Platform_SDK/output/mx6sdl/obds/evb_rev_a/obj/sdk/drivers/hdmi/test/init_dma_data.o
 .debug_info    0x0001a039     0x1059 /home/leon/git/swp-report/iMX6_Platform_SDK/output/mx6sdl/obds/evb_rev_a/obj/sdk/drivers/ipu/test/ips_display.o
 .debug_info    0x0001b092      0x50d /home/leon/git/swp-report/iMX6_Platform_SDK/output/mx6sdl/obds/evb_rev_a/obj/sdk/drivers/ipu/test/ipu_image.o
 .debug_info    0x0001b59f      0x48a /home/leon/git/swp-report/iMX6_Platform_SDK/output/mx6sdl/obds/evb_rev_a/obj/sdk/drivers/spi/test/imx_spi_nor_atmel.o
 .debug_info    0x0001ba29      0x359 /home/leon/git/swp-report/iMX6_Platform_SDK/output/mx6sdl/obds/evb_rev_a/obj/sdk/drivers/spi/test/spi_nor_numonyx.o
 .debug_info    0x0001bd82      0xad8 /home/leon/git/swp-report/iMX6_Platform_SDK/output/mx6sdl/obds/evb_rev_a/obj/sdk/drivers/uart/test/uart_test.o
 .debug_info    0x0001c85a     0x19b5 /home/leon/git/swp-report/iMX6_Platform_SDK/output/mx6sdl/obds/evb_rev_a/obj/sdk/drivers/usb/test/usb0_host_test.o
 .debug_info    0x0001e20f      0x987 /home/leon/git/swp-report/iMX6_Platform_SDK/output/mx6sdl/obds/evb_rev_a/obj/sdk/drivers/usb/test/usb0_host_testmodes_test.o
 .debug_info    0x0001eb96      0xd3f /home/leon/git/swp-report/iMX6_Platform_SDK/output/mx6sdl/obds/evb_rev_a/obj/sdk/drivers/usdhc/test/usdhc_test.o
 .debug_info    0x0001f8d5      0x2ed /home/leon/git/swp-report/iMX6_Platform_SDK/output/mx6sdl/lib/libsdk.a(max7310.o)
 .debug_info    0x0001fbc2     0x1d26 /home/leon/git/swp-report/iMX6_Platform_SDK/output/mx6sdl/lib/libsdk.a(ccm_pll.o)
 .debug_info    0x000218e8      0x7f4 /home/leon/git/swp-report/iMX6_Platform_SDK/output/mx6sdl/lib/libsdk.a(gic.o)
 .debug_info    0x000220dc      0x63b /home/leon/git/swp-report/iMX6_Platform_SDK/output/mx6sdl/lib/libsdk.a(interrupt.o)
 .debug_info    0x00022717      0x3e7 /home/leon/git/swp-report/iMX6_Platform_SDK/output/mx6sdl/lib/libsdk.a(mmu.o)
 .debug_info    0x00022afe      0xe7d /home/leon/git/swp-report/iMX6_Platform_SDK/output/mx6sdl/lib/libsdk.a(menu.o)
 .debug_info    0x0002397b       0x76 /home/leon/git/swp-report/iMX6_Platform_SDK/output/mx6sdl/lib/libsdk.a(sdk_version.o)
 .debug_info    0x000239f1     0x1536 /home/leon/git/swp-report/iMX6_Platform_SDK/output/mx6sdl/lib/libsdk.a(system_util.o)
 .debug_info    0x00024f27      0x298 /home/leon/git/swp-report/iMX6_Platform_SDK/output/mx6sdl/lib/libsdk.a(text_color.o)
 .debug_info    0x000251bf      0x690 /home/leon/git/swp-report/iMX6_Platform_SDK/output/mx6sdl/lib/libsdk.a(cs42888.o)
 .debug_info    0x0002584f     0x166b /home/leon/git/swp-report/iMX6_Platform_SDK/output/mx6sdl/lib/libsdk.a(imx-ssi.o)
 .debug_info    0x00026eba     0x17cc /home/leon/git/swp-report/iMX6_Platform_SDK/output/mx6sdl/lib/libsdk.a(imx_esai.o)
 .debug_info    0x00028686     0x12c5 /home/leon/git/swp-report/iMX6_Platform_SDK/output/mx6sdl/lib/libsdk.a(imx_spdif.o)
 .debug_info    0x0002994b      0x9ab /home/leon/git/swp-report/iMX6_Platform_SDK/output/mx6sdl/lib/libsdk.a(sgtl5000.o)
 .debug_info    0x0002a2f6      0x776 /home/leon/git/swp-report/iMX6_Platform_SDK/output/mx6sdl/lib/libsdk.a(wm8958_dac.o)
 .debug_info    0x0002aa6c      0x778 /home/leon/git/swp-report/iMX6_Platform_SDK/output/mx6sdl/lib/libsdk.a(wm8962.o)
 .debug_info    0x0002b1e4      0x4fe /home/leon/git/swp-report/iMX6_Platform_SDK/output/mx6sdl/lib/libsdk.a(board_id.o)
 .debug_info    0x0002b6e2      0x857 /home/leon/git/swp-report/iMX6_Platform_SDK/output/mx6sdl/lib/libsdk.a(smd_sensor.o)
 .debug_info    0x0002bf39     0x21ec /home/leon/git/swp-report/iMX6_Platform_SDK/output/mx6sdl/lib/libsdk.a(enet_drv.o)
 .debug_info    0x0002e125     0x185a /home/leon/git/swp-report/iMX6_Platform_SDK/output/mx6sdl/lib/libsdk.a(mxc_epdc.o)
 .debug_info    0x0002f97f      0x871 /home/leon/git/swp-report/iMX6_Platform_SDK/output/mx6sdl/lib/libsdk.a(gpio.o)
 .debug_info    0x000301f0       0x9f /home/leon/git/swp-report/iMX6_Platform_SDK/output/mx6sdl/lib/libsdk.a(imx6sdl_gpio_map.o)
 .debug_info    0x0003028f     0x1f20 /home/leon/git/swp-report/iMX6_Platform_SDK/output/mx6sdl/lib/libsdk.a(hdmi_tx.o)
 .debug_info    0x000321af      0xf27 /home/leon/git/swp-report/iMX6_Platform_SDK/output/mx6sdl/lib/libsdk.a(hdmi_tx_audio.o)
 .debug_info    0x000330d6      0xcb3 /home/leon/git/swp-report/iMX6_Platform_SDK/output/mx6sdl/lib/libsdk.a(hdmi_tx_phy.o)
 .debug_info    0x00033d89      0xe21 /home/leon/git/swp-report/iMX6_Platform_SDK/output/mx6sdl/lib/libsdk.a(imx_i2c.o)
 .debug_info    0x00034baa      0x698 /home/leon/git/swp-report/iMX6_Platform_SDK/output/mx6sdl/lib/libsdk.a(ips_disp_panel.o)
 .debug_info    0x00035242      0xba2 /home/leon/git/swp-report/iMX6_Platform_SDK/output/mx6sdl/lib/libsdk.a(ipu_common.o)
 .debug_info    0x00035de4      0x33a /home/leon/git/swp-report/iMX6_Platform_SDK/output/mx6sdl/lib/libsdk.a(ipu_csi.o)
 .debug_info    0x0003611e      0x51a /home/leon/git/swp-report/iMX6_Platform_SDK/output/mx6sdl/lib/libsdk.a(ipu_dc.o)
 .debug_info    0x00036638      0x74d /home/leon/git/swp-report/iMX6_Platform_SDK/output/mx6sdl/lib/libsdk.a(ipu_di.o)
 .debug_info    0x00036d85      0x1c6 /home/leon/git/swp-report/iMX6_Platform_SDK/output/mx6sdl/lib/libsdk.a(ipu_dmfc.o)
 .debug_info    0x00036f4b      0x22b /home/leon/git/swp-report/iMX6_Platform_SDK/output/mx6sdl/lib/libsdk.a(ipu_dp.o)
 .debug_info    0x00037176     0x15fd /home/leon/git/swp-report/iMX6_Platform_SDK/output/mx6sdl/lib/libsdk.a(ipu_idmac.o)
 .debug_info    0x00038773      0x7bd /home/leon/git/swp-report/iMX6_Platform_SDK/output/mx6sdl/lib/libsdk.a(ipu_vdi.o)
 .debug_info    0x00038f30      0x44a /home/leon/git/swp-report/iMX6_Platform_SDK/output/mx6sdl/lib/libsdk.a(ldb.o)
 .debug_info    0x0003937a      0x4c9 /home/leon/git/swp-report/iMX6_Platform_SDK/output/mx6sdl/lib/libsdk.a(ocotp.o)
 .debug_info    0x00039843      0x70d /home/leon/git/swp-report/iMX6_Platform_SDK/output/mx6sdl/lib/libsdk.a(ecspi.o)
 .debug_info    0x00039f50      0x319 /home/leon/git/swp-report/iMX6_Platform_SDK/output/mx6sdl/lib/libsdk.a(timer.o)
 .debug_info    0x0003a269     0x11b6 /home/leon/git/swp-report/iMX6_Platform_SDK/output/mx6sdl/lib/libsdk.a(imx_uart.o)
 .debug_info    0x0003b41f     0x130c /home/leon/git/swp-report/iMX6_Platform_SDK/output/mx6sdl/lib/libsdk.a(usb_common.o)
 .debug_info    0x0003c72b     0x1d3c /home/leon/git/swp-report/iMX6_Platform_SDK/output/mx6sdl/lib/libsdk.a(usbh_drv.o)
 .debug_info    0x0003e467      0xf19 /home/leon/git/swp-report/iMX6_Platform_SDK/output/mx6sdl/lib/libsdk.a(usdhc.o)
 .debug_info    0x0003f380     0x1b51 /home/leon/git/swp-report/iMX6_Platform_SDK/output/mx6sdl/lib/libsdk.a(usdhc_host.o)
 .debug_info    0x00040ed1      0x9c7 /home/leon/git/swp-report/iMX6_Platform_SDK/output/mx6sdl/lib/libsdk.a(usdhc_mmc.o)
 .debug_info    0x00041898      0x680 /home/leon/git/swp-report/iMX6_Platform_SDK/output/mx6sdl/lib/libsdk.a(usdhc_sd.o)
 .debug_info    0x00041f18      0x5b0 /home/leon/git/swp-report/iMX6_Platform_SDK/output/mx6sdl/lib/libsdk.a(adv7180.o)
 .debug_info    0x000424c8      0x4cd /home/leon/git/swp-report/iMX6_Platform_SDK/output/mx6sdl/lib/libsdk.a(armv7_cache.o)
 .debug_info    0x00042995      0x476 /home/leon/git/swp-report/iMX6_Platform_SDK/output/mx6sdl/lib/libsdk.a(camera_profile.o)
 .debug_info    0x00042e0b      0x34b /home/leon/git/swp-report/iMX6_Platform_SDK/output/mx6sdl/lib/libsdk.a(hdmi_common.o)
 .debug_info    0x00043156      0x7df /home/leon/git/swp-report/iMX6_Platform_SDK/output/mx6sdl/lib/libsdk.a(ipu_ic.o)
 .debug_info    0x00043935      0x9b7 /home/leon/git/swp-report/iMX6_Platform_SDK/output/mx6sdl/lib/libsdk.a(epit.o)
 .debug_info    0x000442ec      0x5e4 /home/leon/git/swp-report/iMX6_Platform_SDK/output/mx6sdl/lib/libsdk.a(mx6x_usb.o)
 .debug_info    0x000448d0      0x234 /home/leon/git/swp-report/iMX6_Platform_SDK/output/mx6sdl/lib/libsdk.a(abort_handler.o)
 .debug_info    0x00044b04      0x308 /home/leon/git/swp-report/iMX6_Platform_SDK/output/mx6sdl/lib/libboard_evb_rev_a.a(board_audio.o)
 .debug_info    0x00044e0c      0x664 /home/leon/git/swp-report/iMX6_Platform_SDK/output/mx6sdl/lib/libboard_evb_rev_a.a(board_buttons.o)
 .debug_info    0x00045470     0x17ff /home/leon/git/swp-report/iMX6_Platform_SDK/output/mx6sdl/lib/libboard_evb_rev_a.a(board_camera.o)
 .debug_info    0x00046c6f      0x632 /home/leon/git/swp-report/iMX6_Platform_SDK/output/mx6sdl/lib/libboard_evb_rev_a.a(board_display.o)
 .debug_info    0x000472a1      0xb48 /home/leon/git/swp-report/iMX6_Platform_SDK/output/mx6sdl/lib/libboard_evb_rev_a.a(board_hdmi.o)
 .debug_info    0x00047de9      0x1c0 /home/leon/git/swp-report/iMX6_Platform_SDK/output/mx6sdl/lib/libboard_evb_rev_a.a(board_i2c.o)
 .debug_info    0x00047fa9      0x1fa /home/leon/git/swp-report/iMX6_Platform_SDK/output/mx6sdl/lib/libboard_evb_rev_a.a(board_io_expanders.o)
 .debug_info    0x000481a3      0x689 /home/leon/git/swp-report/iMX6_Platform_SDK/output/mx6sdl/lib/libboard_evb_rev_a.a(board_mipi.o)
 .debug_info    0x0004882c       0xee /home/leon/git/swp-report/iMX6_Platform_SDK/output/mx6sdl/lib/libboard_evb_rev_a.a(board_network.o)
 .debug_info    0x0004891a      0x1cc /home/leon/git/swp-report/iMX6_Platform_SDK/output/mx6sdl/lib/libboard_evb_rev_a.a(board_usb.o)
 .debug_info    0x00048ae6      0x2e8 /home/leon/git/swp-report/iMX6_Platform_SDK/output/mx6sdl/lib/libboard_evb_rev_a.a(board_usdhc.o)
 .debug_info    0x00048dce       0xa1 /home/leon/git/swp-report/iMX6_Platform_SDK/output/mx6sdl/lib/libboard_evb_rev_a.a(hardware_modules.o)
 .debug_info    0x00048e6f       0xe9 /home/leon/git/swp-report/iMX6_Platform_SDK/output/mx6sdl/lib/libboard_evb_rev_a.a(dcd.o)
 .debug_info    0x00048f58       0xcf /home/leon/git/swp-report/iMX6_Platform_SDK/output/mx6sdl/lib/libboard_evb_rev_a.a(ecspi_iomux_config.o)
 .debug_info    0x00049027     0x1e0f /home/leon/git/swp-report/iMX6_Platform_SDK/output/mx6sdl/lib/libboard_evb_rev_a.a(enet_iomux_config.o)
 .debug_info    0x0004ae36     0x1907 /home/leon/git/swp-report/iMX6_Platform_SDK/output/mx6sdl/lib/libboard_evb_rev_a.a(esai_iomux_config.o)
 .debug_info    0x0004c73d       0xcf /home/leon/git/swp-report/iMX6_Platform_SDK/output/mx6sdl/lib/libboard_evb_rev_a.a(i2c_iomux_config.o)
 .debug_info    0x0004c80c      0x350 /home/leon/git/swp-report/iMX6_Platform_SDK/output/mx6sdl/lib/libboard_evb_rev_a.a(iomux_config.o)
 .debug_info    0x0004cb5c     0x4001 /home/leon/git/swp-report/iMX6_Platform_SDK/output/mx6sdl/lib/libboard_evb_rev_a.a(ipu1_iomux_config.o)
 .debug_info    0x00050b5d       0xcf /home/leon/git/swp-report/iMX6_Platform_SDK/output/mx6sdl/lib/libboard_evb_rev_a.a(ipu_iomux_config.o)
 .debug_info    0x00050c2c      0xcd7 /home/leon/git/swp-report/iMX6_Platform_SDK/output/mx6sdl/lib/libboard_evb_rev_a.a(kpp_iomux_config.o)
 .debug_info    0x00051903      0x69b /home/leon/git/swp-report/iMX6_Platform_SDK/output/mx6sdl/lib/libboard_evb_rev_a.a(mlb_iomux_config.o)
 .debug_info    0x00051f9e     0x3b2b /home/leon/git/swp-report/iMX6_Platform_SDK/output/mx6sdl/lib/libboard_evb_rev_a.a(mmdc_iomux_config.o)
 .debug_info    0x00055ac9      0x205 /home/leon/git/swp-report/iMX6_Platform_SDK/output/mx6sdl/lib/libboard_evb_rev_a.a(pwm1_iomux_config.o)
 .debug_info    0x00055cce      0x72b /home/leon/git/swp-report/iMX6_Platform_SDK/output/mx6sdl/lib/libboard_evb_rev_a.a(sjc_iomux_config.o)
 .debug_info    0x000563f9      0xa0f /home/leon/git/swp-report/iMX6_Platform_SDK/output/mx6sdl/lib/libboard_evb_rev_a.a(spdif_iomux_config.o)
 .debug_info    0x00056e08      0x70b /home/leon/git/swp-report/iMX6_Platform_SDK/output/mx6sdl/lib/libboard_evb_rev_a.a(uart2_iomux_config.o)
 .debug_info    0x00057513      0x419 /home/leon/git/swp-report/iMX6_Platform_SDK/output/mx6sdl/lib/libboard_evb_rev_a.a(uart4_iomux_config.o)
 .debug_info    0x0005792c       0xcf /home/leon/git/swp-report/iMX6_Platform_SDK/output/mx6sdl/lib/libboard_evb_rev_a.a(uart_iomux_config.o)
 .debug_info    0x000579fb      0x5db /home/leon/git/swp-report/iMX6_Platform_SDK/output/mx6sdl/lib/libboard_evb_rev_a.a(usb_iomux_config.o)
 .debug_info    0x00057fd6     0x1149 /home/leon/git/swp-report/iMX6_Platform_SDK/output/mx6sdl/lib/libboard_evb_rev_a.a(usdhc1_iomux_config.o)
 .debug_info    0x0005911f     0x12ef /home/leon/git/swp-report/iMX6_Platform_SDK/output/mx6sdl/lib/libboard_evb_rev_a.a(usdhc2_iomux_config.o)
 .debug_info    0x0005a40e     0x1495 /home/leon/git/swp-report/iMX6_Platform_SDK/output/mx6sdl/lib/libboard_evb_rev_a.a(usdhc3_iomux_config.o)
 .debug_info    0x0005b8a3     0x1149 /home/leon/git/swp-report/iMX6_Platform_SDK/output/mx6sdl/lib/libboard_evb_rev_a.a(usdhc4_iomux_config.o)
 .debug_info    0x0005c9ec       0xcf /home/leon/git/swp-report/iMX6_Platform_SDK/output/mx6sdl/lib/libboard_evb_rev_a.a(usdhc_iomux_config.o)
 .debug_info    0x0005cabb      0x205 /home/leon/git/swp-report/iMX6_Platform_SDK/output/mx6sdl/lib/libboard_evb_rev_a.a(ccm_iomux_config.o)
 .debug_info    0x0005ccc0      0x9e9 /home/leon/git/swp-report/iMX6_Platform_SDK/output/mx6sdl/lib/libboard_evb_rev_a.a(ecspi1_iomux_config.o)
 .debug_info    0x0005d6a9      0x407 /home/leon/git/swp-report/iMX6_Platform_SDK/output/mx6sdl/lib/libboard_evb_rev_a.a(flexcan1_iomux_config.o)
 .debug_info    0x0005dab0      0x419 /home/leon/git/swp-report/iMX6_Platform_SDK/output/mx6sdl/lib/libboard_evb_rev_a.a(flexcan2_iomux_config.o)
 .debug_info    0x0005dec9      0x347 /home/leon/git/swp-report/iMX6_Platform_SDK/output/mx6sdl/lib/libboard_evb_rev_a.a(gpio3_iomux_config.o)
 .debug_info    0x0005e210      0x3ab /home/leon/git/swp-report/iMX6_Platform_SDK/output/mx6sdl/lib/libboard_evb_rev_a.a(gpio4_iomux_config.o)
 .debug_info    0x0005e5bb      0x677 /home/leon/git/swp-report/iMX6_Platform_SDK/output/mx6sdl/lib/libboard_evb_rev_a.a(gpio5_iomux_config.o)
 .debug_info    0x0005ec32      0x387 /home/leon/git/swp-report/iMX6_Platform_SDK/output/mx6sdl/lib/libboard_evb_rev_a.a(gpio6_iomux_config.o)
 .debug_info    0x0005efb9     0x1f21 /home/leon/git/swp-report/iMX6_Platform_SDK/output/mx6sdl/lib/libboard_evb_rev_a.a(gpmi_iomux_config.o)
 .debug_info    0x00060eda      0x241 /home/leon/git/swp-report/iMX6_Platform_SDK/output/mx6sdl/lib/libboard_evb_rev_a.a(hdmi_iomux_config.o)
 .debug_info    0x0006111b      0x447 /home/leon/git/swp-report/iMX6_Platform_SDK/output/mx6sdl/lib/libboard_evb_rev_a.a(i2c1_iomux_config.o)
 .debug_info    0x00061562      0x487 /home/leon/git/swp-report/iMX6_Platform_SDK/output/mx6sdl/lib/libboard_evb_rev_a.a(i2c2_iomux_config.o)
 .debug_info    0x000619e9      0x487 /home/leon/git/swp-report/iMX6_Platform_SDK/output/mx6sdl/lib/libboard_evb_rev_a.a(i2c3_iomux_config.o)
 .debug_info    0x00061e70      0x804 /home/leon/git/swp-report/iMX6_Platform_SDK/output/mx6sdl/lib/libsdk.a(runtime_support.o)

.debug_abbrev   0x00000000     0xdbc2
 .debug_abbrev  0x00000000       0xe6 /home/leon/git/swp-report/iMX6_Platform_SDK/output/mx6sdl/obds/evb_rev_a/obj/apps/common/ivt.o
 .debug_abbrev  0x000000e6       0x89 /home/leon/git/swp-report/iMX6_Platform_SDK/output/mx6sdl/obds/evb_rev_a/obj/apps/common/platform_init.o
 .debug_abbrev  0x0000016f       0xa1 /home/leon/git/swp-report/iMX6_Platform_SDK/output/mx6sdl/obds/evb_rev_a/obj/apps/common/print_clock_info.o
 .debug_abbrev  0x00000210       0xcf /home/leon/git/swp-report/iMX6_Platform_SDK/output/mx6sdl/obds/evb_rev_a/obj/apps/common/print_version.o
 .debug_abbrev  0x000002df      0x20e /home/leon/git/swp-report/iMX6_Platform_SDK/output/mx6sdl/obds/evb_rev_a/obj/apps/obds/src/obds.o
 .debug_abbrev  0x000004ed       0x80 /home/leon/git/swp-report/iMX6_Platform_SDK/output/mx6sdl/obds/evb_rev_a/obj/apps/obds/src/obds_utils.o
 .debug_abbrev  0x0000056d      0x211 /home/leon/git/swp-report/iMX6_Platform_SDK/output/mx6sdl/obds/evb_rev_a/obj/apps/obds/src/tests/android_buttons_test.o
 .debug_abbrev  0x0000077e      0x1d6 /home/leon/git/swp-report/iMX6_Platform_SDK/output/mx6sdl/obds/evb_rev_a/obj/apps/obds/src/tests/audio_esai_test.o
 .debug_abbrev  0x00000954      0x1d2 /home/leon/git/swp-report/iMX6_Platform_SDK/output/mx6sdl/obds/evb_rev_a/obj/apps/obds/src/tests/audio_ssi_test.o
 .debug_abbrev  0x00000b26      0x18f /home/leon/git/swp-report/iMX6_Platform_SDK/output/mx6sdl/obds/evb_rev_a/obj/apps/obds/src/tests/ddr_test.o
 .debug_abbrev  0x00000cb5       0xd9 /home/leon/git/swp-report/iMX6_Platform_SDK/output/mx6sdl/obds/evb_rev_a/obj/apps/obds/src/tests/deserializer_ds90ur124.o
 .debug_abbrev  0x00000d8e      0x21c /home/leon/git/swp-report/iMX6_Platform_SDK/output/mx6sdl/obds/evb_rev_a/obj/apps/obds/src/tests/display_test.o
 .debug_abbrev  0x00000faa      0x299 /home/leon/git/swp-report/iMX6_Platform_SDK/output/mx6sdl/obds/evb_rev_a/obj/apps/obds/src/tests/enet_mx6dldq_test.o
 .debug_abbrev  0x00001243       0xad /home/leon/git/swp-report/iMX6_Platform_SDK/output/mx6sdl/obds/evb_rev_a/obj/apps/obds/src/tests/flexcan_test.o
 .debug_abbrev  0x000012f0      0x11c /home/leon/git/swp-report/iMX6_Platform_SDK/output/mx6sdl/obds/evb_rev_a/obj/apps/obds/src/tests/fm_tuner_si476x_test.o
 .debug_abbrev  0x0000140c      0x1eb /home/leon/git/swp-report/iMX6_Platform_SDK/output/mx6sdl/obds/evb_rev_a/obj/apps/obds/src/tests/gpio_led.o
 .debug_abbrev  0x000015f7       0x9c /home/leon/git/swp-report/iMX6_Platform_SDK/output/mx6sdl/obds/evb_rev_a/obj/apps/obds/src/tests/gps_test.o
 .debug_abbrev  0x00001693      0x1f0 /home/leon/git/swp-report/iMX6_Platform_SDK/output/mx6sdl/obds/evb_rev_a/obj/apps/obds/src/tests/i2c_check_light_sensor_isl29023.o
 .debug_abbrev  0x00001883      0x13c /home/leon/git/swp-report/iMX6_Platform_SDK/output/mx6sdl/obds/evb_rev_a/obj/apps/obds/src/tests/i2c_device_barometer_ppl3115.o
 .debug_abbrev  0x000019bf      0x11e /home/leon/git/swp-report/iMX6_Platform_SDK/output/mx6sdl/obds/evb_rev_a/obj/apps/obds/src/tests/i2c_device_check_cs42888.o
 .debug_abbrev  0x00001add      0x115 /home/leon/git/swp-report/iMX6_Platform_SDK/output/mx6sdl/obds/evb_rev_a/obj/apps/obds/src/tests/i2c_device_digital_compass_mag3110.o
 .debug_abbrev  0x00001bf2      0x115 /home/leon/git/swp-report/iMX6_Platform_SDK/output/mx6sdl/obds/evb_rev_a/obj/apps/obds/src/tests/i2c_device_digital_compass_mag3112.o
 .debug_abbrev  0x00001d07      0x1ff /home/leon/git/swp-report/iMX6_Platform_SDK/output/mx6sdl/obds/evb_rev_a/obj/apps/obds/src/tests/i2c_device_id_check_mma8450.o
 .debug_abbrev  0x00001f06      0x1ff /home/leon/git/swp-report/iMX6_Platform_SDK/output/mx6sdl/obds/evb_rev_a/obj/apps/obds/src/tests/i2c_device_id_check_mma8451.o
 .debug_abbrev  0x00002105      0x1f6 /home/leon/git/swp-report/iMX6_Platform_SDK/output/mx6sdl/obds/evb_rev_a/obj/apps/obds/src/tests/i2c_device_id_check_p1003_tsc.o
 .debug_abbrev  0x000022fb      0x154 /home/leon/git/swp-report/iMX6_Platform_SDK/output/mx6sdl/obds/evb_rev_a/obj/apps/obds/src/tests/i2c_device_temp_sensor_emc1046.o
 .debug_abbrev  0x0000244f      0x122 /home/leon/git/swp-report/iMX6_Platform_SDK/output/mx6sdl/obds/evb_rev_a/obj/apps/obds/src/tests/i2c_device_zigbee_mc1323.o
 .debug_abbrev  0x00002571      0x119 /home/leon/git/swp-report/iMX6_Platform_SDK/output/mx6sdl/obds/evb_rev_a/obj/apps/obds/src/tests/i2c_eeprom_at24cxx_test.o
 .debug_abbrev  0x0000268a      0x137 /home/leon/git/swp-report/iMX6_Platform_SDK/output/mx6sdl/obds/evb_rev_a/obj/apps/obds/src/tests/imx_spi_nor_test.o
 .debug_abbrev  0x000027c1      0x12d /home/leon/git/swp-report/iMX6_Platform_SDK/output/mx6sdl/obds/evb_rev_a/obj/apps/obds/src/tests/mlb_os81050.o
 .debug_abbrev  0x000028ee       0xbe /home/leon/git/swp-report/iMX6_Platform_SDK/output/mx6sdl/obds/evb_rev_a/obj/apps/obds/src/tests/mmcsd_test.o
 .debug_abbrev  0x000029ac      0x11b /home/leon/git/swp-report/iMX6_Platform_SDK/output/mx6sdl/obds/evb_rev_a/obj/apps/obds/src/tests/pmic_da9053.o
 .debug_abbrev  0x00002ac7      0x251 /home/leon/git/swp-report/iMX6_Platform_SDK/output/mx6sdl/obds/evb_rev_a/obj/apps/obds/src/tests/pmic_lt3589.o
 .debug_abbrev  0x00002d18      0x14b /home/leon/git/swp-report/iMX6_Platform_SDK/output/mx6sdl/obds/evb_rev_a/obj/apps/obds/src/tests/pmic_max17135.o
 .debug_abbrev  0x00002e63      0x117 /home/leon/git/swp-report/iMX6_Platform_SDK/output/mx6sdl/obds/evb_rev_a/obj/apps/obds/src/tests/pmic_mc13892.o
 .debug_abbrev  0x00002f7a      0x161 /home/leon/git/swp-report/iMX6_Platform_SDK/output/mx6sdl/obds/evb_rev_a/obj/apps/obds/src/tests/program_board_id.o
 .debug_abbrev  0x000030db      0x265 /home/leon/git/swp-report/iMX6_Platform_SDK/output/mx6sdl/obds/evb_rev_a/obj/apps/obds/src/tests/program_mac_address.o
 .debug_abbrev  0x00003340      0x12f /home/leon/git/swp-report/iMX6_Platform_SDK/output/mx6sdl/obds/evb_rev_a/obj/apps/obds/src/tests/snvs_srtc_test.o
 .debug_abbrev  0x0000346f      0x21b /home/leon/git/swp-report/iMX6_Platform_SDK/output/mx6sdl/obds/evb_rev_a/obj/apps/obds/src/tests/touch_screen.o
 .debug_abbrev  0x0000368a      0x26c /home/leon/git/swp-report/iMX6_Platform_SDK/output/mx6sdl/obds/evb_rev_a/obj/apps/obds/src/tests/touch_screen_max11801.o
 .debug_abbrev  0x000038f6      0x145 /home/leon/git/swp-report/iMX6_Platform_SDK/output/mx6sdl/obds/evb_rev_a/obj/apps/obds/src/tests/usb_tests_obds.o
 .debug_abbrev  0x00003a3b       0xad /home/leon/git/swp-report/iMX6_Platform_SDK/output/mx6sdl/obds/evb_rev_a/obj/apps/obds/src/tests/video_dec_ARD_MB_reset_button.o
 .debug_abbrev  0x00003ae8       0xad /home/leon/git/swp-report/iMX6_Platform_SDK/output/mx6sdl/obds/evb_rev_a/obj/apps/obds/src/tests/video_dec_ARD_MBrst_from_cpu_expander.o
 .debug_abbrev  0x00003b95      0x20c /home/leon/git/swp-report/iMX6_Platform_SDK/output/mx6sdl/obds/evb_rev_a/obj/apps/obds/src/tests/video_dec_adv7180.o
 .debug_abbrev  0x00003da1       0xd4 /home/leon/git/swp-report/iMX6_Platform_SDK/output/mx6sdl/obds/evb_rev_a/obj/apps/obds/src/tests/weim_nor_flash_test.o
 .debug_abbrev  0x00003e75      0x102 /home/leon/git/swp-report/iMX6_Platform_SDK/output/mx6sdl/obds/evb_rev_a/obj/sdk/common/ioexpander/test/max7310_test.o
 .debug_abbrev  0x00003f77      0x126 /home/leon/git/swp-report/iMX6_Platform_SDK/output/mx6sdl/obds/evb_rev_a/obj/sdk/common/pmic/pfuse/pf0100.o
 .debug_abbrev  0x0000409d      0x133 /home/leon/git/swp-report/iMX6_Platform_SDK/output/mx6sdl/obds/evb_rev_a/obj/sdk/drivers/audio/src/snd_card.o
 .debug_abbrev  0x000041d0      0x1e2 /home/leon/git/swp-report/iMX6_Platform_SDK/output/mx6sdl/obds/evb_rev_a/obj/sdk/drivers/camera/test/adv7180_capture.o
 .debug_abbrev  0x000043b2      0x1d4 /home/leon/git/swp-report/iMX6_Platform_SDK/output/mx6sdl/obds/evb_rev_a/obj/sdk/drivers/camera/test/camera_test.o
 .debug_abbrev  0x00004586      0x1c1 /home/leon/git/swp-report/iMX6_Platform_SDK/output/mx6sdl/obds/evb_rev_a/obj/sdk/drivers/camera/test/csi_test_mode.o
 .debug_abbrev  0x00004747      0x1cc /home/leon/git/swp-report/iMX6_Platform_SDK/output/mx6sdl/obds/evb_rev_a/obj/sdk/drivers/camera/test/sensor_capture.o
 .debug_abbrev  0x00004913      0x20a /home/leon/git/swp-report/iMX6_Platform_SDK/output/mx6sdl/obds/evb_rev_a/obj/sdk/drivers/epdc/test/epdc_test.o
 .debug_abbrev  0x00004b1d      0x15c /home/leon/git/swp-report/iMX6_Platform_SDK/output/mx6sdl/obds/evb_rev_a/obj/sdk/drivers/hdmi/test/hdmi_test.o
 .debug_abbrev  0x00004c79      0x117 /home/leon/git/swp-report/iMX6_Platform_SDK/output/mx6sdl/obds/evb_rev_a/obj/sdk/drivers/hdmi/test/init_dma_data.o
 .debug_abbrev  0x00004d90      0x1fe /home/leon/git/swp-report/iMX6_Platform_SDK/output/mx6sdl/obds/evb_rev_a/obj/sdk/drivers/ipu/test/ips_display.o
 .debug_abbrev  0x00004f8e      0x10d /home/leon/git/swp-report/iMX6_Platform_SDK/output/mx6sdl/obds/evb_rev_a/obj/sdk/drivers/ipu/test/ipu_image.o
 .debug_abbrev  0x0000509b      0x188 /home/leon/git/swp-report/iMX6_Platform_SDK/output/mx6sdl/obds/evb_rev_a/obj/sdk/drivers/spi/test/imx_spi_nor_atmel.o
 .debug_abbrev  0x00005223      0x15b /home/leon/git/swp-report/iMX6_Platform_SDK/output/mx6sdl/obds/evb_rev_a/obj/sdk/drivers/spi/test/spi_nor_numonyx.o
 .debug_abbrev  0x0000537e      0x1db /home/leon/git/swp-report/iMX6_Platform_SDK/output/mx6sdl/obds/evb_rev_a/obj/sdk/drivers/uart/test/uart_test.o
 .debug_abbrev  0x00005559      0x1b7 /home/leon/git/swp-report/iMX6_Platform_SDK/output/mx6sdl/obds/evb_rev_a/obj/sdk/drivers/usb/test/usb0_host_test.o
 .debug_abbrev  0x00005710      0x129 /home/leon/git/swp-report/iMX6_Platform_SDK/output/mx6sdl/obds/evb_rev_a/obj/sdk/drivers/usb/test/usb0_host_testmodes_test.o
 .debug_abbrev  0x00005839      0x243 /home/leon/git/swp-report/iMX6_Platform_SDK/output/mx6sdl/obds/evb_rev_a/obj/sdk/drivers/usdhc/test/usdhc_test.o
 .debug_abbrev  0x00005a7c       0xf9 /home/leon/git/swp-report/iMX6_Platform_SDK/output/mx6sdl/lib/libsdk.a(max7310.o)
 .debug_abbrev  0x00005b75      0x1b1 /home/leon/git/swp-report/iMX6_Platform_SDK/output/mx6sdl/lib/libsdk.a(ccm_pll.o)
 .debug_abbrev  0x00005d26      0x179 /home/leon/git/swp-report/iMX6_Platform_SDK/output/mx6sdl/lib/libsdk.a(gic.o)
 .debug_abbrev  0x00005e9f      0x11a /home/leon/git/swp-report/iMX6_Platform_SDK/output/mx6sdl/lib/libsdk.a(interrupt.o)
 .debug_abbrev  0x00005fb9      0x172 /home/leon/git/swp-report/iMX6_Platform_SDK/output/mx6sdl/lib/libsdk.a(mmu.o)
 .debug_abbrev  0x0000612b      0x2b3 /home/leon/git/swp-report/iMX6_Platform_SDK/output/mx6sdl/lib/libsdk.a(menu.o)
 .debug_abbrev  0x000063de       0x43 /home/leon/git/swp-report/iMX6_Platform_SDK/output/mx6sdl/lib/libsdk.a(sdk_version.o)
 .debug_abbrev  0x00006421      0x276 /home/leon/git/swp-report/iMX6_Platform_SDK/output/mx6sdl/lib/libsdk.a(system_util.o)
 .debug_abbrev  0x00006697       0xd0 /home/leon/git/swp-report/iMX6_Platform_SDK/output/mx6sdl/lib/libsdk.a(text_color.o)
 .debug_abbrev  0x00006767      0x13e /home/leon/git/swp-report/iMX6_Platform_SDK/output/mx6sdl/lib/libsdk.a(cs42888.o)
 .debug_abbrev  0x000068a5      0x267 /home/leon/git/swp-report/iMX6_Platform_SDK/output/mx6sdl/lib/libsdk.a(imx-ssi.o)
 .debug_abbrev  0x00006b0c      0x267 /home/leon/git/swp-report/iMX6_Platform_SDK/output/mx6sdl/lib/libsdk.a(imx_esai.o)
 .debug_abbrev  0x00006d73      0x22e /home/leon/git/swp-report/iMX6_Platform_SDK/output/mx6sdl/lib/libsdk.a(imx_spdif.o)
 .debug_abbrev  0x00006fa1      0x1df /home/leon/git/swp-report/iMX6_Platform_SDK/output/mx6sdl/lib/libsdk.a(sgtl5000.o)
 .debug_abbrev  0x00007180      0x1aa /home/leon/git/swp-report/iMX6_Platform_SDK/output/mx6sdl/lib/libsdk.a(wm8958_dac.o)
 .debug_abbrev  0x0000732a      0x1c4 /home/leon/git/swp-report/iMX6_Platform_SDK/output/mx6sdl/lib/libsdk.a(wm8962.o)
 .debug_abbrev  0x000074ee      0x13a /home/leon/git/swp-report/iMX6_Platform_SDK/output/mx6sdl/lib/libsdk.a(board_id.o)
 .debug_abbrev  0x00007628      0x19d /home/leon/git/swp-report/iMX6_Platform_SDK/output/mx6sdl/lib/libsdk.a(smd_sensor.o)
 .debug_abbrev  0x000077c5      0x2d8 /home/leon/git/swp-report/iMX6_Platform_SDK/output/mx6sdl/lib/libsdk.a(enet_drv.o)
 .debug_abbrev  0x00007a9d      0x277 /home/leon/git/swp-report/iMX6_Platform_SDK/output/mx6sdl/lib/libsdk.a(mxc_epdc.o)
 .debug_abbrev  0x00007d14      0x228 /home/leon/git/swp-report/iMX6_Platform_SDK/output/mx6sdl/lib/libsdk.a(gpio.o)
 .debug_abbrev  0x00007f3c       0x5b /home/leon/git/swp-report/iMX6_Platform_SDK/output/mx6sdl/lib/libsdk.a(imx6sdl_gpio_map.o)
 .debug_abbrev  0x00007f97      0x1af /home/leon/git/swp-report/iMX6_Platform_SDK/output/mx6sdl/lib/libsdk.a(hdmi_tx.o)
 .debug_abbrev  0x00008146      0x1c1 /home/leon/git/swp-report/iMX6_Platform_SDK/output/mx6sdl/lib/libsdk.a(hdmi_tx_audio.o)
 .debug_abbrev  0x00008307      0x180 /home/leon/git/swp-report/iMX6_Platform_SDK/output/mx6sdl/lib/libsdk.a(hdmi_tx_phy.o)
 .debug_abbrev  0x00008487      0x2c9 /home/leon/git/swp-report/iMX6_Platform_SDK/output/mx6sdl/lib/libsdk.a(imx_i2c.o)
 .debug_abbrev  0x00008750      0x1ac /home/leon/git/swp-report/iMX6_Platform_SDK/output/mx6sdl/lib/libsdk.a(ips_disp_panel.o)
 .debug_abbrev  0x000088fc      0x212 /home/leon/git/swp-report/iMX6_Platform_SDK/output/mx6sdl/lib/libsdk.a(ipu_common.o)
 .debug_abbrev  0x00008b0e       0xf9 /home/leon/git/swp-report/iMX6_Platform_SDK/output/mx6sdl/lib/libsdk.a(ipu_csi.o)
 .debug_abbrev  0x00008c07      0x164 /home/leon/git/swp-report/iMX6_Platform_SDK/output/mx6sdl/lib/libsdk.a(ipu_dc.o)
 .debug_abbrev  0x00008d6b      0x1ac /home/leon/git/swp-report/iMX6_Platform_SDK/output/mx6sdl/lib/libsdk.a(ipu_di.o)
 .debug_abbrev  0x00008f17       0x8e /home/leon/git/swp-report/iMX6_Platform_SDK/output/mx6sdl/lib/libsdk.a(ipu_dmfc.o)
 .debug_abbrev  0x00008fa5       0xc7 /home/leon/git/swp-report/iMX6_Platform_SDK/output/mx6sdl/lib/libsdk.a(ipu_dp.o)
 .debug_abbrev  0x0000906c      0x20c /home/leon/git/swp-report/iMX6_Platform_SDK/output/mx6sdl/lib/libsdk.a(ipu_idmac.o)
 .debug_abbrev  0x00009278      0x161 /home/leon/git/swp-report/iMX6_Platform_SDK/output/mx6sdl/lib/libsdk.a(ipu_vdi.o)
 .debug_abbrev  0x000093d9      0x144 /home/leon/git/swp-report/iMX6_Platform_SDK/output/mx6sdl/lib/libsdk.a(ldb.o)
 .debug_abbrev  0x0000951d      0x1ae /home/leon/git/swp-report/iMX6_Platform_SDK/output/mx6sdl/lib/libsdk.a(ocotp.o)
 .debug_abbrev  0x000096cb      0x1f9 /home/leon/git/swp-report/iMX6_Platform_SDK/output/mx6sdl/lib/libsdk.a(ecspi.o)
 .debug_abbrev  0x000098c4      0x122 /home/leon/git/swp-report/iMX6_Platform_SDK/output/mx6sdl/lib/libsdk.a(timer.o)
 .debug_abbrev  0x000099e6      0x1e3 /home/leon/git/swp-report/iMX6_Platform_SDK/output/mx6sdl/lib/libsdk.a(imx_uart.o)
 .debug_abbrev  0x00009bc9      0x223 /home/leon/git/swp-report/iMX6_Platform_SDK/output/mx6sdl/lib/libsdk.a(usb_common.o)
 .debug_abbrev  0x00009dec      0x1c8 /home/leon/git/swp-report/iMX6_Platform_SDK/output/mx6sdl/lib/libsdk.a(usbh_drv.o)
 .debug_abbrev  0x00009fb4      0x20c /home/leon/git/swp-report/iMX6_Platform_SDK/output/mx6sdl/lib/libsdk.a(usdhc.o)
 .debug_abbrev  0x0000a1c0      0x296 /home/leon/git/swp-report/iMX6_Platform_SDK/output/mx6sdl/lib/libsdk.a(usdhc_host.o)
 .debug_abbrev  0x0000a456      0x1ac /home/leon/git/swp-report/iMX6_Platform_SDK/output/mx6sdl/lib/libsdk.a(usdhc_mmc.o)
 .debug_abbrev  0x0000a602      0x143 /home/leon/git/swp-report/iMX6_Platform_SDK/output/mx6sdl/lib/libsdk.a(usdhc_sd.o)
 .debug_abbrev  0x0000a745      0x1f4 /home/leon/git/swp-report/iMX6_Platform_SDK/output/mx6sdl/lib/libsdk.a(adv7180.o)
 .debug_abbrev  0x0000a939      0x133 /home/leon/git/swp-report/iMX6_Platform_SDK/output/mx6sdl/lib/libsdk.a(armv7_cache.o)
 .debug_abbrev  0x0000aa6c       0xab /home/leon/git/swp-report/iMX6_Platform_SDK/output/mx6sdl/lib/libsdk.a(camera_profile.o)
 .debug_abbrev  0x0000ab17       0xb9 /home/leon/git/swp-report/iMX6_Platform_SDK/output/mx6sdl/lib/libsdk.a(hdmi_common.o)
 .debug_abbrev  0x0000abd0      0x171 /home/leon/git/swp-report/iMX6_Platform_SDK/output/mx6sdl/lib/libsdk.a(ipu_ic.o)
 .debug_abbrev  0x0000ad41      0x194 /home/leon/git/swp-report/iMX6_Platform_SDK/output/mx6sdl/lib/libsdk.a(epit.o)
 .debug_abbrev  0x0000aed5      0x155 /home/leon/git/swp-report/iMX6_Platform_SDK/output/mx6sdl/lib/libsdk.a(mx6x_usb.o)
 .debug_abbrev  0x0000b02a       0xc8 /home/leon/git/swp-report/iMX6_Platform_SDK/output/mx6sdl/lib/libsdk.a(abort_handler.o)
 .debug_abbrev  0x0000b0f2       0xfc /home/leon/git/swp-report/iMX6_Platform_SDK/output/mx6sdl/lib/libboard_evb_rev_a.a(board_audio.o)
 .debug_abbrev  0x0000b1ee      0x127 /home/leon/git/swp-report/iMX6_Platform_SDK/output/mx6sdl/lib/libboard_evb_rev_a.a(board_buttons.o)
 .debug_abbrev  0x0000b315      0x18a /home/leon/git/swp-report/iMX6_Platform_SDK/output/mx6sdl/lib/libboard_evb_rev_a.a(board_camera.o)
 .debug_abbrev  0x0000b49f      0x187 /home/leon/git/swp-report/iMX6_Platform_SDK/output/mx6sdl/lib/libboard_evb_rev_a.a(board_display.o)
 .debug_abbrev  0x0000b626      0x152 /home/leon/git/swp-report/iMX6_Platform_SDK/output/mx6sdl/lib/libboard_evb_rev_a.a(board_hdmi.o)
 .debug_abbrev  0x0000b778       0x69 /home/leon/git/swp-report/iMX6_Platform_SDK/output/mx6sdl/lib/libboard_evb_rev_a.a(board_i2c.o)
 .debug_abbrev  0x0000b7e1       0xca /home/leon/git/swp-report/iMX6_Platform_SDK/output/mx6sdl/lib/libboard_evb_rev_a.a(board_io_expanders.o)
 .debug_abbrev  0x0000b8ab      0x141 /home/leon/git/swp-report/iMX6_Platform_SDK/output/mx6sdl/lib/libboard_evb_rev_a.a(board_mipi.o)
 .debug_abbrev  0x0000b9ec       0x70 /home/leon/git/swp-report/iMX6_Platform_SDK/output/mx6sdl/lib/libboard_evb_rev_a.a(board_network.o)
 .debug_abbrev  0x0000ba5c       0xcd /home/leon/git/swp-report/iMX6_Platform_SDK/output/mx6sdl/lib/libboard_evb_rev_a.a(board_usb.o)
 .debug_abbrev  0x0000bb29      0x107 /home/leon/git/swp-report/iMX6_Platform_SDK/output/mx6sdl/lib/libboard_evb_rev_a.a(board_usdhc.o)
 .debug_abbrev  0x0000bc30       0x44 /home/leon/git/swp-report/iMX6_Platform_SDK/output/mx6sdl/lib/libboard_evb_rev_a.a(hardware_modules.o)
 .debug_abbrev  0x0000bc74       0x75 /home/leon/git/swp-report/iMX6_Platform_SDK/output/mx6sdl/lib/libboard_evb_rev_a.a(dcd.o)
 .debug_abbrev  0x0000bce9       0x79 /home/leon/git/swp-report/iMX6_Platform_SDK/output/mx6sdl/lib/libboard_evb_rev_a.a(ecspi_iomux_config.o)
 .debug_abbrev  0x0000bd62       0xf1 /home/leon/git/swp-report/iMX6_Platform_SDK/output/mx6sdl/lib/libboard_evb_rev_a.a(enet_iomux_config.o)
 .debug_abbrev  0x0000be53       0xf1 /home/leon/git/swp-report/iMX6_Platform_SDK/output/mx6sdl/lib/libboard_evb_rev_a.a(esai_iomux_config.o)
 .debug_abbrev  0x0000bf44       0x79 /home/leon/git/swp-report/iMX6_Platform_SDK/output/mx6sdl/lib/libboard_evb_rev_a.a(i2c_iomux_config.o)
 .debug_abbrev  0x0000bfbd       0x42 /home/leon/git/swp-report/iMX6_Platform_SDK/output/mx6sdl/lib/libboard_evb_rev_a.a(iomux_config.o)
 .debug_abbrev  0x0000bfff       0xa4 /home/leon/git/swp-report/iMX6_Platform_SDK/output/mx6sdl/lib/libboard_evb_rev_a.a(ipu1_iomux_config.o)
 .debug_abbrev  0x0000c0a3       0x79 /home/leon/git/swp-report/iMX6_Platform_SDK/output/mx6sdl/lib/libboard_evb_rev_a.a(ipu_iomux_config.o)
 .debug_abbrev  0x0000c11c       0xf1 /home/leon/git/swp-report/iMX6_Platform_SDK/output/mx6sdl/lib/libboard_evb_rev_a.a(kpp_iomux_config.o)
 .debug_abbrev  0x0000c20d       0xf1 /home/leon/git/swp-report/iMX6_Platform_SDK/output/mx6sdl/lib/libboard_evb_rev_a.a(mlb_iomux_config.o)
 .debug_abbrev  0x0000c2fe      0x106 /home/leon/git/swp-report/iMX6_Platform_SDK/output/mx6sdl/lib/libboard_evb_rev_a.a(mmdc_iomux_config.o)
 .debug_abbrev  0x0000c404       0xf1 /home/leon/git/swp-report/iMX6_Platform_SDK/output/mx6sdl/lib/libboard_evb_rev_a.a(pwm1_iomux_config.o)
 .debug_abbrev  0x0000c4f5       0xa4 /home/leon/git/swp-report/iMX6_Platform_SDK/output/mx6sdl/lib/libboard_evb_rev_a.a(sjc_iomux_config.o)
 .debug_abbrev  0x0000c599       0xf1 /home/leon/git/swp-report/iMX6_Platform_SDK/output/mx6sdl/lib/libboard_evb_rev_a.a(spdif_iomux_config.o)
 .debug_abbrev  0x0000c68a       0xf1 /home/leon/git/swp-report/iMX6_Platform_SDK/output/mx6sdl/lib/libboard_evb_rev_a.a(uart2_iomux_config.o)
 .debug_abbrev  0x0000c77b       0xf1 /home/leon/git/swp-report/iMX6_Platform_SDK/output/mx6sdl/lib/libboard_evb_rev_a.a(uart4_iomux_config.o)
 .debug_abbrev  0x0000c86c       0x79 /home/leon/git/swp-report/iMX6_Platform_SDK/output/mx6sdl/lib/libboard_evb_rev_a.a(uart_iomux_config.o)
 .debug_abbrev  0x0000c8e5      0x106 /home/leon/git/swp-report/iMX6_Platform_SDK/output/mx6sdl/lib/libboard_evb_rev_a.a(usb_iomux_config.o)
 .debug_abbrev  0x0000c9eb       0xf1 /home/leon/git/swp-report/iMX6_Platform_SDK/output/mx6sdl/lib/libboard_evb_rev_a.a(usdhc1_iomux_config.o)
 .debug_abbrev  0x0000cadc       0xf1 /home/leon/git/swp-report/iMX6_Platform_SDK/output/mx6sdl/lib/libboard_evb_rev_a.a(usdhc2_iomux_config.o)
 .debug_abbrev  0x0000cbcd       0xf1 /home/leon/git/swp-report/iMX6_Platform_SDK/output/mx6sdl/lib/libboard_evb_rev_a.a(usdhc3_iomux_config.o)
 .debug_abbrev  0x0000ccbe       0xf1 /home/leon/git/swp-report/iMX6_Platform_SDK/output/mx6sdl/lib/libboard_evb_rev_a.a(usdhc4_iomux_config.o)
 .debug_abbrev  0x0000cdaf       0x79 /home/leon/git/swp-report/iMX6_Platform_SDK/output/mx6sdl/lib/libboard_evb_rev_a.a(usdhc_iomux_config.o)
 .debug_abbrev  0x0000ce28       0xf1 /home/leon/git/swp-report/iMX6_Platform_SDK/output/mx6sdl/lib/libboard_evb_rev_a.a(ccm_iomux_config.o)
 .debug_abbrev  0x0000cf19      0x106 /home/leon/git/swp-report/iMX6_Platform_SDK/output/mx6sdl/lib/libboard_evb_rev_a.a(ecspi1_iomux_config.o)
 .debug_abbrev  0x0000d01f       0xf1 /home/leon/git/swp-report/iMX6_Platform_SDK/output/mx6sdl/lib/libboard_evb_rev_a.a(flexcan1_iomux_config.o)
 .debug_abbrev  0x0000d110       0xf1 /home/leon/git/swp-report/iMX6_Platform_SDK/output/mx6sdl/lib/libboard_evb_rev_a.a(flexcan2_iomux_config.o)
 .debug_abbrev  0x0000d201       0xa4 /home/leon/git/swp-report/iMX6_Platform_SDK/output/mx6sdl/lib/libboard_evb_rev_a.a(gpio3_iomux_config.o)
 .debug_abbrev  0x0000d2a5       0xf1 /home/leon/git/swp-report/iMX6_Platform_SDK/output/mx6sdl/lib/libboard_evb_rev_a.a(gpio4_iomux_config.o)
 .debug_abbrev  0x0000d396       0xa4 /home/leon/git/swp-report/iMX6_Platform_SDK/output/mx6sdl/lib/libboard_evb_rev_a.a(gpio5_iomux_config.o)
 .debug_abbrev  0x0000d43a       0xf1 /home/leon/git/swp-report/iMX6_Platform_SDK/output/mx6sdl/lib/libboard_evb_rev_a.a(gpio6_iomux_config.o)
 .debug_abbrev  0x0000d52b       0xf1 /home/leon/git/swp-report/iMX6_Platform_SDK/output/mx6sdl/lib/libboard_evb_rev_a.a(gpmi_iomux_config.o)
 .debug_abbrev  0x0000d61c       0xf1 /home/leon/git/swp-report/iMX6_Platform_SDK/output/mx6sdl/lib/libboard_evb_rev_a.a(hdmi_iomux_config.o)
 .debug_abbrev  0x0000d70d       0xf1 /home/leon/git/swp-report/iMX6_Platform_SDK/output/mx6sdl/lib/libboard_evb_rev_a.a(i2c1_iomux_config.o)
 .debug_abbrev  0x0000d7fe       0xf1 /home/leon/git/swp-report/iMX6_Platform_SDK/output/mx6sdl/lib/libboard_evb_rev_a.a(i2c2_iomux_config.o)
 .debug_abbrev  0x0000d8ef       0xf1 /home/leon/git/swp-report/iMX6_Platform_SDK/output/mx6sdl/lib/libboard_evb_rev_a.a(i2c3_iomux_config.o)
 .debug_abbrev  0x0000d9e0      0x1e2 /home/leon/git/swp-report/iMX6_Platform_SDK/output/mx6sdl/lib/libsdk.a(runtime_support.o)

.debug_aranges  0x00000000     0x1488
 .debug_aranges
                0x00000000       0x18 /home/leon/git/swp-report/iMX6_Platform_SDK/output/mx6sdl/obds/evb_rev_a/obj/apps/common/ivt.o
 .debug_aranges
                0x00000018       0x20 /home/leon/git/swp-report/iMX6_Platform_SDK/output/mx6sdl/obds/evb_rev_a/obj/apps/common/platform_init.o
 .debug_aranges
                0x00000038       0x20 /home/leon/git/swp-report/iMX6_Platform_SDK/output/mx6sdl/obds/evb_rev_a/obj/apps/common/print_clock_info.o
 .debug_aranges
                0x00000058       0x20 /home/leon/git/swp-report/iMX6_Platform_SDK/output/mx6sdl/obds/evb_rev_a/obj/apps/common/print_version.o
 .debug_aranges
                0x00000078       0x20 /home/leon/git/swp-report/iMX6_Platform_SDK/output/mx6sdl/obds/evb_rev_a/obj/apps/obds/src/obds.o
 .debug_aranges
                0x00000098       0x20 /home/leon/git/swp-report/iMX6_Platform_SDK/output/mx6sdl/obds/evb_rev_a/obj/apps/obds/src/obds_utils.o
 .debug_aranges
                0x000000b8       0x20 /home/leon/git/swp-report/iMX6_Platform_SDK/output/mx6sdl/obds/evb_rev_a/obj/apps/obds/src/tests/android_buttons_test.o
 .debug_aranges
                0x000000d8       0x20 /home/leon/git/swp-report/iMX6_Platform_SDK/output/mx6sdl/obds/evb_rev_a/obj/apps/obds/src/tests/audio_esai_test.o
 .debug_aranges
                0x000000f8       0x20 /home/leon/git/swp-report/iMX6_Platform_SDK/output/mx6sdl/obds/evb_rev_a/obj/apps/obds/src/tests/audio_ssi_test.o
 .debug_aranges
                0x00000118       0x20 /home/leon/git/swp-report/iMX6_Platform_SDK/output/mx6sdl/obds/evb_rev_a/obj/apps/obds/src/tests/ddr_test.o
 .debug_aranges
                0x00000138       0x20 /home/leon/git/swp-report/iMX6_Platform_SDK/output/mx6sdl/obds/evb_rev_a/obj/apps/obds/src/tests/deserializer_ds90ur124.o
 .debug_aranges
                0x00000158       0x20 /home/leon/git/swp-report/iMX6_Platform_SDK/output/mx6sdl/obds/evb_rev_a/obj/apps/obds/src/tests/display_test.o
 .debug_aranges
                0x00000178       0x20 /home/leon/git/swp-report/iMX6_Platform_SDK/output/mx6sdl/obds/evb_rev_a/obj/apps/obds/src/tests/enet_mx6dldq_test.o
 .debug_aranges
                0x00000198       0x20 /home/leon/git/swp-report/iMX6_Platform_SDK/output/mx6sdl/obds/evb_rev_a/obj/apps/obds/src/tests/flexcan_test.o
 .debug_aranges
                0x000001b8       0x20 /home/leon/git/swp-report/iMX6_Platform_SDK/output/mx6sdl/obds/evb_rev_a/obj/apps/obds/src/tests/fm_tuner_si476x_test.o
 .debug_aranges
                0x000001d8       0x20 /home/leon/git/swp-report/iMX6_Platform_SDK/output/mx6sdl/obds/evb_rev_a/obj/apps/obds/src/tests/gpio_led.o
 .debug_aranges
                0x000001f8       0x20 /home/leon/git/swp-report/iMX6_Platform_SDK/output/mx6sdl/obds/evb_rev_a/obj/apps/obds/src/tests/gps_test.o
 .debug_aranges
                0x00000218       0x20 /home/leon/git/swp-report/iMX6_Platform_SDK/output/mx6sdl/obds/evb_rev_a/obj/apps/obds/src/tests/i2c_check_light_sensor_isl29023.o
 .debug_aranges
                0x00000238       0x20 /home/leon/git/swp-report/iMX6_Platform_SDK/output/mx6sdl/obds/evb_rev_a/obj/apps/obds/src/tests/i2c_device_barometer_ppl3115.o
 .debug_aranges
                0x00000258       0x20 /home/leon/git/swp-report/iMX6_Platform_SDK/output/mx6sdl/obds/evb_rev_a/obj/apps/obds/src/tests/i2c_device_check_cs42888.o
 .debug_aranges
                0x00000278       0x20 /home/leon/git/swp-report/iMX6_Platform_SDK/output/mx6sdl/obds/evb_rev_a/obj/apps/obds/src/tests/i2c_device_digital_compass_mag3110.o
 .debug_aranges
                0x00000298       0x20 /home/leon/git/swp-report/iMX6_Platform_SDK/output/mx6sdl/obds/evb_rev_a/obj/apps/obds/src/tests/i2c_device_digital_compass_mag3112.o
 .debug_aranges
                0x000002b8       0x20 /home/leon/git/swp-report/iMX6_Platform_SDK/output/mx6sdl/obds/evb_rev_a/obj/apps/obds/src/tests/i2c_device_id_check_mma8450.o
 .debug_aranges
                0x000002d8       0x20 /home/leon/git/swp-report/iMX6_Platform_SDK/output/mx6sdl/obds/evb_rev_a/obj/apps/obds/src/tests/i2c_device_id_check_mma8451.o
 .debug_aranges
                0x000002f8       0x20 /home/leon/git/swp-report/iMX6_Platform_SDK/output/mx6sdl/obds/evb_rev_a/obj/apps/obds/src/tests/i2c_device_id_check_p1003_tsc.o
 .debug_aranges
                0x00000318       0x20 /home/leon/git/swp-report/iMX6_Platform_SDK/output/mx6sdl/obds/evb_rev_a/obj/apps/obds/src/tests/i2c_device_temp_sensor_emc1046.o
 .debug_aranges
                0x00000338       0x20 /home/leon/git/swp-report/iMX6_Platform_SDK/output/mx6sdl/obds/evb_rev_a/obj/apps/obds/src/tests/i2c_device_zigbee_mc1323.o
 .debug_aranges
                0x00000358       0x20 /home/leon/git/swp-report/iMX6_Platform_SDK/output/mx6sdl/obds/evb_rev_a/obj/apps/obds/src/tests/i2c_eeprom_at24cxx_test.o
 .debug_aranges
                0x00000378       0x20 /home/leon/git/swp-report/iMX6_Platform_SDK/output/mx6sdl/obds/evb_rev_a/obj/apps/obds/src/tests/imx_spi_nor_test.o
 .debug_aranges
                0x00000398       0x20 /home/leon/git/swp-report/iMX6_Platform_SDK/output/mx6sdl/obds/evb_rev_a/obj/apps/obds/src/tests/mlb_os81050.o
 .debug_aranges
                0x000003b8       0x20 /home/leon/git/swp-report/iMX6_Platform_SDK/output/mx6sdl/obds/evb_rev_a/obj/apps/obds/src/tests/mmcsd_test.o
 .debug_aranges
                0x000003d8       0x20 /home/leon/git/swp-report/iMX6_Platform_SDK/output/mx6sdl/obds/evb_rev_a/obj/apps/obds/src/tests/pmic_da9053.o
 .debug_aranges
                0x000003f8       0x20 /home/leon/git/swp-report/iMX6_Platform_SDK/output/mx6sdl/obds/evb_rev_a/obj/apps/obds/src/tests/pmic_lt3589.o
 .debug_aranges
                0x00000418       0x20 /home/leon/git/swp-report/iMX6_Platform_SDK/output/mx6sdl/obds/evb_rev_a/obj/apps/obds/src/tests/pmic_max17135.o
 .debug_aranges
                0x00000438       0x20 /home/leon/git/swp-report/iMX6_Platform_SDK/output/mx6sdl/obds/evb_rev_a/obj/apps/obds/src/tests/pmic_mc13892.o
 .debug_aranges
                0x00000458       0x20 /home/leon/git/swp-report/iMX6_Platform_SDK/output/mx6sdl/obds/evb_rev_a/obj/apps/obds/src/tests/program_board_id.o
 .debug_aranges
                0x00000478       0x20 /home/leon/git/swp-report/iMX6_Platform_SDK/output/mx6sdl/obds/evb_rev_a/obj/apps/obds/src/tests/program_mac_address.o
 .debug_aranges
                0x00000498       0x20 /home/leon/git/swp-report/iMX6_Platform_SDK/output/mx6sdl/obds/evb_rev_a/obj/apps/obds/src/tests/snvs_srtc_test.o
 .debug_aranges
                0x000004b8       0x20 /home/leon/git/swp-report/iMX6_Platform_SDK/output/mx6sdl/obds/evb_rev_a/obj/apps/obds/src/tests/touch_screen.o
 .debug_aranges
                0x000004d8       0x20 /home/leon/git/swp-report/iMX6_Platform_SDK/output/mx6sdl/obds/evb_rev_a/obj/apps/obds/src/tests/touch_screen_max11801.o
 .debug_aranges
                0x000004f8       0x20 /home/leon/git/swp-report/iMX6_Platform_SDK/output/mx6sdl/obds/evb_rev_a/obj/apps/obds/src/tests/usb_tests_obds.o
 .debug_aranges
                0x00000518       0x20 /home/leon/git/swp-report/iMX6_Platform_SDK/output/mx6sdl/obds/evb_rev_a/obj/apps/obds/src/tests/video_dec_ARD_MB_reset_button.o
 .debug_aranges
                0x00000538       0x20 /home/leon/git/swp-report/iMX6_Platform_SDK/output/mx6sdl/obds/evb_rev_a/obj/apps/obds/src/tests/video_dec_ARD_MBrst_from_cpu_expander.o
 .debug_aranges
                0x00000558       0x20 /home/leon/git/swp-report/iMX6_Platform_SDK/output/mx6sdl/obds/evb_rev_a/obj/apps/obds/src/tests/video_dec_adv7180.o
 .debug_aranges
                0x00000578       0x20 /home/leon/git/swp-report/iMX6_Platform_SDK/output/mx6sdl/obds/evb_rev_a/obj/apps/obds/src/tests/weim_nor_flash_test.o
 .debug_aranges
                0x00000598       0x20 /home/leon/git/swp-report/iMX6_Platform_SDK/output/mx6sdl/obds/evb_rev_a/obj/sdk/common/ioexpander/test/max7310_test.o
 .debug_aranges
                0x000005b8       0x20 /home/leon/git/swp-report/iMX6_Platform_SDK/output/mx6sdl/obds/evb_rev_a/obj/sdk/common/pmic/pfuse/pf0100.o
 .debug_aranges
                0x000005d8       0x20 /home/leon/git/swp-report/iMX6_Platform_SDK/output/mx6sdl/obds/evb_rev_a/obj/sdk/drivers/audio/src/snd_card.o
 .debug_aranges
                0x000005f8       0x20 /home/leon/git/swp-report/iMX6_Platform_SDK/output/mx6sdl/obds/evb_rev_a/obj/sdk/drivers/camera/test/adv7180_capture.o
 .debug_aranges
                0x00000618       0x20 /home/leon/git/swp-report/iMX6_Platform_SDK/output/mx6sdl/obds/evb_rev_a/obj/sdk/drivers/camera/test/camera_test.o
 .debug_aranges
                0x00000638       0x20 /home/leon/git/swp-report/iMX6_Platform_SDK/output/mx6sdl/obds/evb_rev_a/obj/sdk/drivers/camera/test/csi_test_mode.o
 .debug_aranges
                0x00000658       0x20 /home/leon/git/swp-report/iMX6_Platform_SDK/output/mx6sdl/obds/evb_rev_a/obj/sdk/drivers/camera/test/sensor_capture.o
 .debug_aranges
                0x00000678       0x20 /home/leon/git/swp-report/iMX6_Platform_SDK/output/mx6sdl/obds/evb_rev_a/obj/sdk/drivers/epdc/test/epdc_test.o
 .debug_aranges
                0x00000698       0x20 /home/leon/git/swp-report/iMX6_Platform_SDK/output/mx6sdl/obds/evb_rev_a/obj/sdk/drivers/hdmi/test/hdmi_test.o
 .debug_aranges
                0x000006b8       0x20 /home/leon/git/swp-report/iMX6_Platform_SDK/output/mx6sdl/obds/evb_rev_a/obj/sdk/drivers/hdmi/test/init_dma_data.o
 .debug_aranges
                0x000006d8       0x20 /home/leon/git/swp-report/iMX6_Platform_SDK/output/mx6sdl/obds/evb_rev_a/obj/sdk/drivers/ipu/test/ips_display.o
 .debug_aranges
                0x000006f8       0x20 /home/leon/git/swp-report/iMX6_Platform_SDK/output/mx6sdl/obds/evb_rev_a/obj/sdk/drivers/ipu/test/ipu_image.o
 .debug_aranges
                0x00000718       0x20 /home/leon/git/swp-report/iMX6_Platform_SDK/output/mx6sdl/obds/evb_rev_a/obj/sdk/drivers/spi/test/imx_spi_nor_atmel.o
 .debug_aranges
                0x00000738       0x20 /home/leon/git/swp-report/iMX6_Platform_SDK/output/mx6sdl/obds/evb_rev_a/obj/sdk/drivers/spi/test/spi_nor_numonyx.o
 .debug_aranges
                0x00000758       0x20 /home/leon/git/swp-report/iMX6_Platform_SDK/output/mx6sdl/obds/evb_rev_a/obj/sdk/drivers/uart/test/uart_test.o
 .debug_aranges
                0x00000778       0x20 /home/leon/git/swp-report/iMX6_Platform_SDK/output/mx6sdl/obds/evb_rev_a/obj/sdk/drivers/usb/test/usb0_host_test.o
 .debug_aranges
                0x00000798       0x20 /home/leon/git/swp-report/iMX6_Platform_SDK/output/mx6sdl/obds/evb_rev_a/obj/sdk/drivers/usb/test/usb0_host_testmodes_test.o
 .debug_aranges
                0x000007b8       0x20 /home/leon/git/swp-report/iMX6_Platform_SDK/output/mx6sdl/obds/evb_rev_a/obj/sdk/drivers/usdhc/test/usdhc_test.o
 .debug_aranges
                0x000007d8       0x20 /home/leon/git/swp-report/iMX6_Platform_SDK/output/mx6sdl/lib/libsdk.a(max7310.o)
 .debug_aranges
                0x000007f8       0x20 /home/leon/git/swp-report/iMX6_Platform_SDK/output/mx6sdl/lib/libsdk.a(ccm_pll.o)
 .debug_aranges
                0x00000818       0x20 /home/leon/git/swp-report/iMX6_Platform_SDK/output/mx6sdl/lib/libsdk.a(gic.o)
 .debug_aranges
                0x00000838       0x20 /home/leon/git/swp-report/iMX6_Platform_SDK/output/mx6sdl/lib/libsdk.a(interrupt.o)
 .debug_aranges
                0x00000858       0x20 /home/leon/git/swp-report/iMX6_Platform_SDK/output/mx6sdl/lib/libsdk.a(mmu.o)
 .debug_aranges
                0x00000878       0x20 /home/leon/git/swp-report/iMX6_Platform_SDK/output/mx6sdl/lib/libsdk.a(menu.o)
 .debug_aranges
                0x00000898       0x18 /home/leon/git/swp-report/iMX6_Platform_SDK/output/mx6sdl/lib/libsdk.a(sdk_version.o)
 .debug_aranges
                0x000008b0       0x20 /home/leon/git/swp-report/iMX6_Platform_SDK/output/mx6sdl/lib/libsdk.a(system_util.o)
 .debug_aranges
                0x000008d0       0x20 /home/leon/git/swp-report/iMX6_Platform_SDK/output/mx6sdl/lib/libsdk.a(text_color.o)
 .debug_aranges
                0x000008f0       0x20 /home/leon/git/swp-report/iMX6_Platform_SDK/output/mx6sdl/lib/libsdk.a(cs42888.o)
 .debug_aranges
                0x00000910       0x20 /home/leon/git/swp-report/iMX6_Platform_SDK/output/mx6sdl/lib/libsdk.a(imx-ssi.o)
 .debug_aranges
                0x00000930       0x20 /home/leon/git/swp-report/iMX6_Platform_SDK/output/mx6sdl/lib/libsdk.a(imx_esai.o)
 .debug_aranges
                0x00000950       0x20 /home/leon/git/swp-report/iMX6_Platform_SDK/output/mx6sdl/lib/libsdk.a(imx_spdif.o)
 .debug_aranges
                0x00000970       0x20 /home/leon/git/swp-report/iMX6_Platform_SDK/output/mx6sdl/lib/libsdk.a(sgtl5000.o)
 .debug_aranges
                0x00000990       0x20 /home/leon/git/swp-report/iMX6_Platform_SDK/output/mx6sdl/lib/libsdk.a(wm8958_dac.o)
 .debug_aranges
                0x000009b0       0x20 /home/leon/git/swp-report/iMX6_Platform_SDK/output/mx6sdl/lib/libsdk.a(wm8962.o)
 .debug_aranges
                0x000009d0       0x20 /home/leon/git/swp-report/iMX6_Platform_SDK/output/mx6sdl/lib/libsdk.a(board_id.o)
 .debug_aranges
                0x000009f0       0x20 /home/leon/git/swp-report/iMX6_Platform_SDK/output/mx6sdl/lib/libsdk.a(smd_sensor.o)
 .debug_aranges
                0x00000a10       0x20 /home/leon/git/swp-report/iMX6_Platform_SDK/output/mx6sdl/lib/libsdk.a(enet_drv.o)
 .debug_aranges
                0x00000a30       0x20 /home/leon/git/swp-report/iMX6_Platform_SDK/output/mx6sdl/lib/libsdk.a(mxc_epdc.o)
 .debug_aranges
                0x00000a50       0x20 /home/leon/git/swp-report/iMX6_Platform_SDK/output/mx6sdl/lib/libsdk.a(gpio.o)
 .debug_aranges
                0x00000a70       0x18 /home/leon/git/swp-report/iMX6_Platform_SDK/output/mx6sdl/lib/libsdk.a(imx6sdl_gpio_map.o)
 .debug_aranges
                0x00000a88       0x20 /home/leon/git/swp-report/iMX6_Platform_SDK/output/mx6sdl/lib/libsdk.a(hdmi_tx.o)
 .debug_aranges
                0x00000aa8       0x20 /home/leon/git/swp-report/iMX6_Platform_SDK/output/mx6sdl/lib/libsdk.a(hdmi_tx_audio.o)
 .debug_aranges
                0x00000ac8       0x20 /home/leon/git/swp-report/iMX6_Platform_SDK/output/mx6sdl/lib/libsdk.a(hdmi_tx_phy.o)
 .debug_aranges
                0x00000ae8       0x20 /home/leon/git/swp-report/iMX6_Platform_SDK/output/mx6sdl/lib/libsdk.a(imx_i2c.o)
 .debug_aranges
                0x00000b08       0x20 /home/leon/git/swp-report/iMX6_Platform_SDK/output/mx6sdl/lib/libsdk.a(ips_disp_panel.o)
 .debug_aranges
                0x00000b28       0x20 /home/leon/git/swp-report/iMX6_Platform_SDK/output/mx6sdl/lib/libsdk.a(ipu_common.o)
 .debug_aranges
                0x00000b48       0x20 /home/leon/git/swp-report/iMX6_Platform_SDK/output/mx6sdl/lib/libsdk.a(ipu_csi.o)
 .debug_aranges
                0x00000b68       0x20 /home/leon/git/swp-report/iMX6_Platform_SDK/output/mx6sdl/lib/libsdk.a(ipu_dc.o)
 .debug_aranges
                0x00000b88       0x20 /home/leon/git/swp-report/iMX6_Platform_SDK/output/mx6sdl/lib/libsdk.a(ipu_di.o)
 .debug_aranges
                0x00000ba8       0x20 /home/leon/git/swp-report/iMX6_Platform_SDK/output/mx6sdl/lib/libsdk.a(ipu_dmfc.o)
 .debug_aranges
                0x00000bc8       0x20 /home/leon/git/swp-report/iMX6_Platform_SDK/output/mx6sdl/lib/libsdk.a(ipu_dp.o)
 .debug_aranges
                0x00000be8       0x20 /home/leon/git/swp-report/iMX6_Platform_SDK/output/mx6sdl/lib/libsdk.a(ipu_idmac.o)
 .debug_aranges
                0x00000c08       0x20 /home/leon/git/swp-report/iMX6_Platform_SDK/output/mx6sdl/lib/libsdk.a(ipu_vdi.o)
 .debug_aranges
                0x00000c28       0x20 /home/leon/git/swp-report/iMX6_Platform_SDK/output/mx6sdl/lib/libsdk.a(ldb.o)
 .debug_aranges
                0x00000c48       0x20 /home/leon/git/swp-report/iMX6_Platform_SDK/output/mx6sdl/lib/libsdk.a(ocotp.o)
 .debug_aranges
                0x00000c68       0x20 /home/leon/git/swp-report/iMX6_Platform_SDK/output/mx6sdl/lib/libsdk.a(ecspi.o)
 .debug_aranges
                0x00000c88       0x20 /home/leon/git/swp-report/iMX6_Platform_SDK/output/mx6sdl/lib/libsdk.a(timer.o)
 .debug_aranges
                0x00000ca8       0x20 /home/leon/git/swp-report/iMX6_Platform_SDK/output/mx6sdl/lib/libsdk.a(imx_uart.o)
 .debug_aranges
                0x00000cc8       0x20 /home/leon/git/swp-report/iMX6_Platform_SDK/output/mx6sdl/lib/libsdk.a(usb_common.o)
 .debug_aranges
                0x00000ce8       0x20 /home/leon/git/swp-report/iMX6_Platform_SDK/output/mx6sdl/lib/libsdk.a(usbh_drv.o)
 .debug_aranges
                0x00000d08       0x20 /home/leon/git/swp-report/iMX6_Platform_SDK/output/mx6sdl/lib/libsdk.a(usdhc.o)
 .debug_aranges
                0x00000d28       0x20 /home/leon/git/swp-report/iMX6_Platform_SDK/output/mx6sdl/lib/libsdk.a(usdhc_host.o)
 .debug_aranges
                0x00000d48       0x20 /home/leon/git/swp-report/iMX6_Platform_SDK/output/mx6sdl/lib/libsdk.a(usdhc_mmc.o)
 .debug_aranges
                0x00000d68       0x20 /home/leon/git/swp-report/iMX6_Platform_SDK/output/mx6sdl/lib/libsdk.a(usdhc_sd.o)
 .debug_aranges
                0x00000d88       0x20 /home/leon/git/swp-report/iMX6_Platform_SDK/output/mx6sdl/lib/libsdk.a(adv7180.o)
 .debug_aranges
                0x00000da8       0x20 /home/leon/git/swp-report/iMX6_Platform_SDK/output/mx6sdl/lib/libsdk.a(armv7_cache.o)
 .debug_aranges
                0x00000dc8       0x18 /home/leon/git/swp-report/iMX6_Platform_SDK/output/mx6sdl/lib/libsdk.a(camera_profile.o)
 .debug_aranges
                0x00000de0       0x20 /home/leon/git/swp-report/iMX6_Platform_SDK/output/mx6sdl/lib/libsdk.a(hdmi_common.o)
 .debug_aranges
                0x00000e00       0x20 /home/leon/git/swp-report/iMX6_Platform_SDK/output/mx6sdl/lib/libsdk.a(ipu_ic.o)
 .debug_aranges
                0x00000e20       0x20 /home/leon/git/swp-report/iMX6_Platform_SDK/output/mx6sdl/lib/libsdk.a(epit.o)
 .debug_aranges
                0x00000e40       0x20 /home/leon/git/swp-report/iMX6_Platform_SDK/output/mx6sdl/lib/libsdk.a(mx6x_usb.o)
 .debug_aranges
                0x00000e60       0x20 /home/leon/git/swp-report/iMX6_Platform_SDK/output/mx6sdl/lib/libsdk.a(abort_handler.o)
 .debug_aranges
                0x00000e80       0x20 /home/leon/git/swp-report/iMX6_Platform_SDK/output/mx6sdl/lib/libboard_evb_rev_a.a(board_audio.o)
 .debug_aranges
                0x00000ea0       0x20 /home/leon/git/swp-report/iMX6_Platform_SDK/output/mx6sdl/lib/libboard_evb_rev_a.a(board_buttons.o)
 .debug_aranges
                0x00000ec0       0x20 /home/leon/git/swp-report/iMX6_Platform_SDK/output/mx6sdl/lib/libboard_evb_rev_a.a(board_camera.o)
 .debug_aranges
                0x00000ee0       0x20 /home/leon/git/swp-report/iMX6_Platform_SDK/output/mx6sdl/lib/libboard_evb_rev_a.a(board_display.o)
 .debug_aranges
                0x00000f00       0x20 /home/leon/git/swp-report/iMX6_Platform_SDK/output/mx6sdl/lib/libboard_evb_rev_a.a(board_hdmi.o)
 .debug_aranges
                0x00000f20       0x18 /home/leon/git/swp-report/iMX6_Platform_SDK/output/mx6sdl/lib/libboard_evb_rev_a.a(board_i2c.o)
 .debug_aranges
                0x00000f38       0x20 /home/leon/git/swp-report/iMX6_Platform_SDK/output/mx6sdl/lib/libboard_evb_rev_a.a(board_io_expanders.o)
 .debug_aranges
                0x00000f58       0x20 /home/leon/git/swp-report/iMX6_Platform_SDK/output/mx6sdl/lib/libboard_evb_rev_a.a(board_mipi.o)
 .debug_aranges
                0x00000f78       0x20 /home/leon/git/swp-report/iMX6_Platform_SDK/output/mx6sdl/lib/libboard_evb_rev_a.a(board_network.o)
 .debug_aranges
                0x00000f98       0x20 /home/leon/git/swp-report/iMX6_Platform_SDK/output/mx6sdl/lib/libboard_evb_rev_a.a(board_usb.o)
 .debug_aranges
                0x00000fb8       0x20 /home/leon/git/swp-report/iMX6_Platform_SDK/output/mx6sdl/lib/libboard_evb_rev_a.a(board_usdhc.o)
 .debug_aranges
                0x00000fd8       0x18 /home/leon/git/swp-report/iMX6_Platform_SDK/output/mx6sdl/lib/libboard_evb_rev_a.a(hardware_modules.o)
 .debug_aranges
                0x00000ff0       0x18 /home/leon/git/swp-report/iMX6_Platform_SDK/output/mx6sdl/lib/libboard_evb_rev_a.a(dcd.o)
 .debug_aranges
                0x00001008       0x20 /home/leon/git/swp-report/iMX6_Platform_SDK/output/mx6sdl/lib/libboard_evb_rev_a.a(ecspi_iomux_config.o)
 .debug_aranges
                0x00001028       0x20 /home/leon/git/swp-report/iMX6_Platform_SDK/output/mx6sdl/lib/libboard_evb_rev_a.a(enet_iomux_config.o)
 .debug_aranges
                0x00001048       0x20 /home/leon/git/swp-report/iMX6_Platform_SDK/output/mx6sdl/lib/libboard_evb_rev_a.a(esai_iomux_config.o)
 .debug_aranges
                0x00001068       0x20 /home/leon/git/swp-report/iMX6_Platform_SDK/output/mx6sdl/lib/libboard_evb_rev_a.a(i2c_iomux_config.o)
 .debug_aranges
                0x00001088       0x20 /home/leon/git/swp-report/iMX6_Platform_SDK/output/mx6sdl/lib/libboard_evb_rev_a.a(iomux_config.o)
 .debug_aranges
                0x000010a8       0x20 /home/leon/git/swp-report/iMX6_Platform_SDK/output/mx6sdl/lib/libboard_evb_rev_a.a(ipu1_iomux_config.o)
 .debug_aranges
                0x000010c8       0x20 /home/leon/git/swp-report/iMX6_Platform_SDK/output/mx6sdl/lib/libboard_evb_rev_a.a(ipu_iomux_config.o)
 .debug_aranges
                0x000010e8       0x20 /home/leon/git/swp-report/iMX6_Platform_SDK/output/mx6sdl/lib/libboard_evb_rev_a.a(kpp_iomux_config.o)
 .debug_aranges
                0x00001108       0x20 /home/leon/git/swp-report/iMX6_Platform_SDK/output/mx6sdl/lib/libboard_evb_rev_a.a(mlb_iomux_config.o)
 .debug_aranges
                0x00001128       0x20 /home/leon/git/swp-report/iMX6_Platform_SDK/output/mx6sdl/lib/libboard_evb_rev_a.a(mmdc_iomux_config.o)
 .debug_aranges
                0x00001148       0x20 /home/leon/git/swp-report/iMX6_Platform_SDK/output/mx6sdl/lib/libboard_evb_rev_a.a(pwm1_iomux_config.o)
 .debug_aranges
                0x00001168       0x20 /home/leon/git/swp-report/iMX6_Platform_SDK/output/mx6sdl/lib/libboard_evb_rev_a.a(sjc_iomux_config.o)
 .debug_aranges
                0x00001188       0x20 /home/leon/git/swp-report/iMX6_Platform_SDK/output/mx6sdl/lib/libboard_evb_rev_a.a(spdif_iomux_config.o)
 .debug_aranges
                0x000011a8       0x20 /home/leon/git/swp-report/iMX6_Platform_SDK/output/mx6sdl/lib/libboard_evb_rev_a.a(uart2_iomux_config.o)
 .debug_aranges
                0x000011c8       0x20 /home/leon/git/swp-report/iMX6_Platform_SDK/output/mx6sdl/lib/libboard_evb_rev_a.a(uart4_iomux_config.o)
 .debug_aranges
                0x000011e8       0x20 /home/leon/git/swp-report/iMX6_Platform_SDK/output/mx6sdl/lib/libboard_evb_rev_a.a(uart_iomux_config.o)
 .debug_aranges
                0x00001208       0x20 /home/leon/git/swp-report/iMX6_Platform_SDK/output/mx6sdl/lib/libboard_evb_rev_a.a(usb_iomux_config.o)
 .debug_aranges
                0x00001228       0x20 /home/leon/git/swp-report/iMX6_Platform_SDK/output/mx6sdl/lib/libboard_evb_rev_a.a(usdhc1_iomux_config.o)
 .debug_aranges
                0x00001248       0x20 /home/leon/git/swp-report/iMX6_Platform_SDK/output/mx6sdl/lib/libboard_evb_rev_a.a(usdhc2_iomux_config.o)
 .debug_aranges
                0x00001268       0x20 /home/leon/git/swp-report/iMX6_Platform_SDK/output/mx6sdl/lib/libboard_evb_rev_a.a(usdhc3_iomux_config.o)
 .debug_aranges
                0x00001288       0x20 /home/leon/git/swp-report/iMX6_Platform_SDK/output/mx6sdl/lib/libboard_evb_rev_a.a(usdhc4_iomux_config.o)
 .debug_aranges
                0x000012a8       0x20 /home/leon/git/swp-report/iMX6_Platform_SDK/output/mx6sdl/lib/libboard_evb_rev_a.a(usdhc_iomux_config.o)
 .debug_aranges
                0x000012c8       0x20 /home/leon/git/swp-report/iMX6_Platform_SDK/output/mx6sdl/lib/libboard_evb_rev_a.a(ccm_iomux_config.o)
 .debug_aranges
                0x000012e8       0x20 /home/leon/git/swp-report/iMX6_Platform_SDK/output/mx6sdl/lib/libboard_evb_rev_a.a(ecspi1_iomux_config.o)
 .debug_aranges
                0x00001308       0x20 /home/leon/git/swp-report/iMX6_Platform_SDK/output/mx6sdl/lib/libboard_evb_rev_a.a(flexcan1_iomux_config.o)
 .debug_aranges
                0x00001328       0x20 /home/leon/git/swp-report/iMX6_Platform_SDK/output/mx6sdl/lib/libboard_evb_rev_a.a(flexcan2_iomux_config.o)
 .debug_aranges
                0x00001348       0x20 /home/leon/git/swp-report/iMX6_Platform_SDK/output/mx6sdl/lib/libboard_evb_rev_a.a(gpio3_iomux_config.o)
 .debug_aranges
                0x00001368       0x20 /home/leon/git/swp-report/iMX6_Platform_SDK/output/mx6sdl/lib/libboard_evb_rev_a.a(gpio4_iomux_config.o)
 .debug_aranges
                0x00001388       0x20 /home/leon/git/swp-report/iMX6_Platform_SDK/output/mx6sdl/lib/libboard_evb_rev_a.a(gpio5_iomux_config.o)
 .debug_aranges
                0x000013a8       0x20 /home/leon/git/swp-report/iMX6_Platform_SDK/output/mx6sdl/lib/libboard_evb_rev_a.a(gpio6_iomux_config.o)
 .debug_aranges
                0x000013c8       0x20 /home/leon/git/swp-report/iMX6_Platform_SDK/output/mx6sdl/lib/libboard_evb_rev_a.a(gpmi_iomux_config.o)
 .debug_aranges
                0x000013e8       0x20 /home/leon/git/swp-report/iMX6_Platform_SDK/output/mx6sdl/lib/libboard_evb_rev_a.a(hdmi_iomux_config.o)
 .debug_aranges
                0x00001408       0x20 /home/leon/git/swp-report/iMX6_Platform_SDK/output/mx6sdl/lib/libboard_evb_rev_a.a(i2c1_iomux_config.o)
 .debug_aranges
                0x00001428       0x20 /home/leon/git/swp-report/iMX6_Platform_SDK/output/mx6sdl/lib/libboard_evb_rev_a.a(i2c2_iomux_config.o)
 .debug_aranges
                0x00001448       0x20 /home/leon/git/swp-report/iMX6_Platform_SDK/output/mx6sdl/lib/libboard_evb_rev_a.a(i2c3_iomux_config.o)
 .debug_aranges
                0x00001468       0x20 /home/leon/git/swp-report/iMX6_Platform_SDK/output/mx6sdl/lib/libsdk.a(runtime_support.o)

.debug_line     0x00000000    0x1ba8d
 .debug_line    0x00000000      0x103 /home/leon/git/swp-report/iMX6_Platform_SDK/output/mx6sdl/obds/evb_rev_a/obj/apps/common/ivt.o
 .debug_line    0x00000103      0x1bc /home/leon/git/swp-report/iMX6_Platform_SDK/output/mx6sdl/obds/evb_rev_a/obj/apps/common/platform_init.o
 .debug_line    0x000002bf      0x171 /home/leon/git/swp-report/iMX6_Platform_SDK/output/mx6sdl/obds/evb_rev_a/obj/apps/common/print_clock_info.o
 .debug_line    0x00000430      0x17f /home/leon/git/swp-report/iMX6_Platform_SDK/output/mx6sdl/obds/evb_rev_a/obj/apps/common/print_version.o
 .debug_line    0x000005af      0x329 /home/leon/git/swp-report/iMX6_Platform_SDK/output/mx6sdl/obds/evb_rev_a/obj/apps/obds/src/obds.o
 .debug_line    0x000008d8       0xfa /home/leon/git/swp-report/iMX6_Platform_SDK/output/mx6sdl/obds/evb_rev_a/obj/apps/obds/src/obds_utils.o
 .debug_line    0x000009d2      0x231 /home/leon/git/swp-report/iMX6_Platform_SDK/output/mx6sdl/obds/evb_rev_a/obj/apps/obds/src/tests/android_buttons_test.o
 .debug_line    0x00000c03      0x442 /home/leon/git/swp-report/iMX6_Platform_SDK/output/mx6sdl/obds/evb_rev_a/obj/apps/obds/src/tests/audio_esai_test.o
 .debug_line    0x00001045      0x2f7 /home/leon/git/swp-report/iMX6_Platform_SDK/output/mx6sdl/obds/evb_rev_a/obj/apps/obds/src/tests/audio_ssi_test.o
 .debug_line    0x0000133c      0x273 /home/leon/git/swp-report/iMX6_Platform_SDK/output/mx6sdl/obds/evb_rev_a/obj/apps/obds/src/tests/ddr_test.o
 .debug_line    0x000015af      0x225 /home/leon/git/swp-report/iMX6_Platform_SDK/output/mx6sdl/obds/evb_rev_a/obj/apps/obds/src/tests/deserializer_ds90ur124.o
 .debug_line    0x000017d4      0x2ea /home/leon/git/swp-report/iMX6_Platform_SDK/output/mx6sdl/obds/evb_rev_a/obj/apps/obds/src/tests/display_test.o
 .debug_line    0x00001abe      0x2d9 /home/leon/git/swp-report/iMX6_Platform_SDK/output/mx6sdl/obds/evb_rev_a/obj/apps/obds/src/tests/enet_mx6dldq_test.o
 .debug_line    0x00001d97       0xd1 /home/leon/git/swp-report/iMX6_Platform_SDK/output/mx6sdl/obds/evb_rev_a/obj/apps/obds/src/tests/flexcan_test.o
 .debug_line    0x00001e68      0x23e /home/leon/git/swp-report/iMX6_Platform_SDK/output/mx6sdl/obds/evb_rev_a/obj/apps/obds/src/tests/fm_tuner_si476x_test.o
 .debug_line    0x000020a6      0x21d /home/leon/git/swp-report/iMX6_Platform_SDK/output/mx6sdl/obds/evb_rev_a/obj/apps/obds/src/tests/gpio_led.o
 .debug_line    0x000022c3      0x1c9 /home/leon/git/swp-report/iMX6_Platform_SDK/output/mx6sdl/obds/evb_rev_a/obj/apps/obds/src/tests/gps_test.o
 .debug_line    0x0000248c      0x2d7 /home/leon/git/swp-report/iMX6_Platform_SDK/output/mx6sdl/obds/evb_rev_a/obj/apps/obds/src/tests/i2c_check_light_sensor_isl29023.o
 .debug_line    0x00002763      0x1f3 /home/leon/git/swp-report/iMX6_Platform_SDK/output/mx6sdl/obds/evb_rev_a/obj/apps/obds/src/tests/i2c_device_barometer_ppl3115.o
 .debug_line    0x00002956      0x1c9 /home/leon/git/swp-report/iMX6_Platform_SDK/output/mx6sdl/obds/evb_rev_a/obj/apps/obds/src/tests/i2c_device_check_cs42888.o
 .debug_line    0x00002b1f      0x1ea /home/leon/git/swp-report/iMX6_Platform_SDK/output/mx6sdl/obds/evb_rev_a/obj/apps/obds/src/tests/i2c_device_digital_compass_mag3110.o
 .debug_line    0x00002d09      0x1ea /home/leon/git/swp-report/iMX6_Platform_SDK/output/mx6sdl/obds/evb_rev_a/obj/apps/obds/src/tests/i2c_device_digital_compass_mag3112.o
 .debug_line    0x00002ef3      0x3c1 /home/leon/git/swp-report/iMX6_Platform_SDK/output/mx6sdl/obds/evb_rev_a/obj/apps/obds/src/tests/i2c_device_id_check_mma8450.o
 .debug_line    0x000032b4      0x3c2 /home/leon/git/swp-report/iMX6_Platform_SDK/output/mx6sdl/obds/evb_rev_a/obj/apps/obds/src/tests/i2c_device_id_check_mma8451.o
 .debug_line    0x00003676      0x328 /home/leon/git/swp-report/iMX6_Platform_SDK/output/mx6sdl/obds/evb_rev_a/obj/apps/obds/src/tests/i2c_device_id_check_p1003_tsc.o
 .debug_line    0x0000399e      0x254 /home/leon/git/swp-report/iMX6_Platform_SDK/output/mx6sdl/obds/evb_rev_a/obj/apps/obds/src/tests/i2c_device_temp_sensor_emc1046.o
 .debug_line    0x00003bf2      0x201 /home/leon/git/swp-report/iMX6_Platform_SDK/output/mx6sdl/obds/evb_rev_a/obj/apps/obds/src/tests/i2c_device_zigbee_mc1323.o
 .debug_line    0x00003df3      0x250 /home/leon/git/swp-report/iMX6_Platform_SDK/output/mx6sdl/obds/evb_rev_a/obj/apps/obds/src/tests/i2c_eeprom_at24cxx_test.o
 .debug_line    0x00004043      0x239 /home/leon/git/swp-report/iMX6_Platform_SDK/output/mx6sdl/obds/evb_rev_a/obj/apps/obds/src/tests/imx_spi_nor_test.o
 .debug_line    0x0000427c      0x250 /home/leon/git/swp-report/iMX6_Platform_SDK/output/mx6sdl/obds/evb_rev_a/obj/apps/obds/src/tests/mlb_os81050.o
 .debug_line    0x000044cc      0x169 /home/leon/git/swp-report/iMX6_Platform_SDK/output/mx6sdl/obds/evb_rev_a/obj/apps/obds/src/tests/mmcsd_test.o
 .debug_line    0x00004635      0x217 /home/leon/git/swp-report/iMX6_Platform_SDK/output/mx6sdl/obds/evb_rev_a/obj/apps/obds/src/tests/pmic_da9053.o
 .debug_line    0x0000484c      0x3fe /home/leon/git/swp-report/iMX6_Platform_SDK/output/mx6sdl/obds/evb_rev_a/obj/apps/obds/src/tests/pmic_lt3589.o
 .debug_line    0x00004c4a      0x1e2 /home/leon/git/swp-report/iMX6_Platform_SDK/output/mx6sdl/obds/evb_rev_a/obj/apps/obds/src/tests/pmic_max17135.o
 .debug_line    0x00004e2c       0xff /home/leon/git/swp-report/iMX6_Platform_SDK/output/mx6sdl/obds/evb_rev_a/obj/apps/obds/src/tests/pmic_mc13892.o
 .debug_line    0x00004f2b      0x269 /home/leon/git/swp-report/iMX6_Platform_SDK/output/mx6sdl/obds/evb_rev_a/obj/apps/obds/src/tests/program_board_id.o
 .debug_line    0x00005194      0x34e /home/leon/git/swp-report/iMX6_Platform_SDK/output/mx6sdl/obds/evb_rev_a/obj/apps/obds/src/tests/program_mac_address.o
 .debug_line    0x000054e2      0x1aa /home/leon/git/swp-report/iMX6_Platform_SDK/output/mx6sdl/obds/evb_rev_a/obj/apps/obds/src/tests/snvs_srtc_test.o
 .debug_line    0x0000568c        0x0 /home/leon/git/swp-report/iMX6_Platform_SDK/output/mx6sdl/obds/evb_rev_a/obj/apps/obds/src/tests/touch_button_test.o
 .debug_line    0x0000568c      0x2d3 /home/leon/git/swp-report/iMX6_Platform_SDK/output/mx6sdl/obds/evb_rev_a/obj/apps/obds/src/tests/touch_screen.o
 .debug_line    0x0000595f      0x37b /home/leon/git/swp-report/iMX6_Platform_SDK/output/mx6sdl/obds/evb_rev_a/obj/apps/obds/src/tests/touch_screen_max11801.o
 .debug_line    0x00005cda      0x25e /home/leon/git/swp-report/iMX6_Platform_SDK/output/mx6sdl/obds/evb_rev_a/obj/apps/obds/src/tests/usb_tests_obds.o
 .debug_line    0x00005f38       0xef /home/leon/git/swp-report/iMX6_Platform_SDK/output/mx6sdl/obds/evb_rev_a/obj/apps/obds/src/tests/video_dec_ARD_MB_reset_button.o
 .debug_line    0x00006027       0xeb /home/leon/git/swp-report/iMX6_Platform_SDK/output/mx6sdl/obds/evb_rev_a/obj/apps/obds/src/tests/video_dec_ARD_MBrst_from_cpu_expander.o
 .debug_line    0x00006112      0x28f /home/leon/git/swp-report/iMX6_Platform_SDK/output/mx6sdl/obds/evb_rev_a/obj/apps/obds/src/tests/video_dec_adv7180.o
 .debug_line    0x000063a1      0x167 /home/leon/git/swp-report/iMX6_Platform_SDK/output/mx6sdl/obds/evb_rev_a/obj/apps/obds/src/tests/weim_nor_flash_test.o
 .debug_line    0x00006508      0x1ef /home/leon/git/swp-report/iMX6_Platform_SDK/output/mx6sdl/obds/evb_rev_a/obj/sdk/common/ioexpander/test/max7310_test.o
 .debug_line    0x000066f7      0x1f4 /home/leon/git/swp-report/iMX6_Platform_SDK/output/mx6sdl/obds/evb_rev_a/obj/sdk/common/pmic/pfuse/pf0100.o
 .debug_line    0x000068eb      0x1b1 /home/leon/git/swp-report/iMX6_Platform_SDK/output/mx6sdl/obds/evb_rev_a/obj/sdk/drivers/audio/src/snd_card.o
 .debug_line    0x00006a9c      0x2a3 /home/leon/git/swp-report/iMX6_Platform_SDK/output/mx6sdl/obds/evb_rev_a/obj/sdk/drivers/camera/test/adv7180_capture.o
 .debug_line    0x00006d3f      0x1e3 /home/leon/git/swp-report/iMX6_Platform_SDK/output/mx6sdl/obds/evb_rev_a/obj/sdk/drivers/camera/test/camera_test.o
 .debug_line    0x00006f22      0x28d /home/leon/git/swp-report/iMX6_Platform_SDK/output/mx6sdl/obds/evb_rev_a/obj/sdk/drivers/camera/test/csi_test_mode.o
 .debug_line    0x000071af      0x28c /home/leon/git/swp-report/iMX6_Platform_SDK/output/mx6sdl/obds/evb_rev_a/obj/sdk/drivers/camera/test/sensor_capture.o
 .debug_line    0x0000743b      0x257 /home/leon/git/swp-report/iMX6_Platform_SDK/output/mx6sdl/obds/evb_rev_a/obj/sdk/drivers/epdc/test/epdc_test.o
 .debug_line    0x00007692      0x293 /home/leon/git/swp-report/iMX6_Platform_SDK/output/mx6sdl/obds/evb_rev_a/obj/sdk/drivers/hdmi/test/hdmi_test.o
 .debug_line    0x00007925      0x157 /home/leon/git/swp-report/iMX6_Platform_SDK/output/mx6sdl/obds/evb_rev_a/obj/sdk/drivers/hdmi/test/init_dma_data.o
 .debug_line    0x00007a7c      0x401 /home/leon/git/swp-report/iMX6_Platform_SDK/output/mx6sdl/obds/evb_rev_a/obj/sdk/drivers/ipu/test/ips_display.o
 .debug_line    0x00007e7d      0x1e5 /home/leon/git/swp-report/iMX6_Platform_SDK/output/mx6sdl/obds/evb_rev_a/obj/sdk/drivers/ipu/test/ipu_image.o
 .debug_line    0x00008062      0x2d9 /home/leon/git/swp-report/iMX6_Platform_SDK/output/mx6sdl/obds/evb_rev_a/obj/sdk/drivers/spi/test/imx_spi_nor_atmel.o
 .debug_line    0x0000833b      0x22d /home/leon/git/swp-report/iMX6_Platform_SDK/output/mx6sdl/obds/evb_rev_a/obj/sdk/drivers/spi/test/spi_nor_numonyx.o
 .debug_line    0x00008568      0x217 /home/leon/git/swp-report/iMX6_Platform_SDK/output/mx6sdl/obds/evb_rev_a/obj/sdk/drivers/uart/test/uart_test.o
 .debug_line    0x0000877f     0x10e0 /home/leon/git/swp-report/iMX6_Platform_SDK/output/mx6sdl/obds/evb_rev_a/obj/sdk/drivers/usb/test/usb0_host_test.o
 .debug_line    0x0000985f      0x4c9 /home/leon/git/swp-report/iMX6_Platform_SDK/output/mx6sdl/obds/evb_rev_a/obj/sdk/drivers/usb/test/usb0_host_testmodes_test.o
 .debug_line    0x00009d28      0x395 /home/leon/git/swp-report/iMX6_Platform_SDK/output/mx6sdl/obds/evb_rev_a/obj/sdk/drivers/usdhc/test/usdhc_test.o
 .debug_line    0x0000a0bd      0x194 /home/leon/git/swp-report/iMX6_Platform_SDK/output/mx6sdl/lib/libsdk.a(max7310.o)
 .debug_line    0x0000a251      0x26d /home/leon/git/swp-report/iMX6_Platform_SDK/output/mx6sdl/lib/libsdk.a(ccm_pll.o)
 .debug_line    0x0000a4be      0x165 /home/leon/git/swp-report/iMX6_Platform_SDK/output/mx6sdl/lib/libsdk.a(gic.o)
 .debug_line    0x0000a623      0x181 /home/leon/git/swp-report/iMX6_Platform_SDK/output/mx6sdl/lib/libsdk.a(interrupt.o)
 .debug_line    0x0000a7a4      0x188 /home/leon/git/swp-report/iMX6_Platform_SDK/output/mx6sdl/lib/libsdk.a(mmu.o)
 .debug_line    0x0000a92c      0x2e0 /home/leon/git/swp-report/iMX6_Platform_SDK/output/mx6sdl/lib/libsdk.a(menu.o)
 .debug_line    0x0000ac0c       0x6a /home/leon/git/swp-report/iMX6_Platform_SDK/output/mx6sdl/lib/libsdk.a(sdk_version.o)
 .debug_line    0x0000ac76      0x366 /home/leon/git/swp-report/iMX6_Platform_SDK/output/mx6sdl/lib/libsdk.a(system_util.o)
 .debug_line    0x0000afdc       0xf0 /home/leon/git/swp-report/iMX6_Platform_SDK/output/mx6sdl/lib/libsdk.a(text_color.o)
 .debug_line    0x0000b0cc      0x23c /home/leon/git/swp-report/iMX6_Platform_SDK/output/mx6sdl/lib/libsdk.a(cs42888.o)
 .debug_line    0x0000b308     0x11d3 /home/leon/git/swp-report/iMX6_Platform_SDK/output/mx6sdl/lib/libsdk.a(imx-ssi.o)
 .debug_line    0x0000c4db      0x2d3 /home/leon/git/swp-report/iMX6_Platform_SDK/output/mx6sdl/lib/libsdk.a(imx_esai.o)
 .debug_line    0x0000c7ae      0x228 /home/leon/git/swp-report/iMX6_Platform_SDK/output/mx6sdl/lib/libsdk.a(imx_spdif.o)
 .debug_line    0x0000c9d6      0x42f /home/leon/git/swp-report/iMX6_Platform_SDK/output/mx6sdl/lib/libsdk.a(sgtl5000.o)
 .debug_line    0x0000ce05      0x335 /home/leon/git/swp-report/iMX6_Platform_SDK/output/mx6sdl/lib/libsdk.a(wm8958_dac.o)
 .debug_line    0x0000d13a      0x2ee /home/leon/git/swp-report/iMX6_Platform_SDK/output/mx6sdl/lib/libsdk.a(wm8962.o)
 .debug_line    0x0000d428      0x279 /home/leon/git/swp-report/iMX6_Platform_SDK/output/mx6sdl/lib/libsdk.a(board_id.o)
 .debug_line    0x0000d6a1      0x262 /home/leon/git/swp-report/iMX6_Platform_SDK/output/mx6sdl/lib/libsdk.a(smd_sensor.o)
 .debug_line    0x0000d903      0x37a /home/leon/git/swp-report/iMX6_Platform_SDK/output/mx6sdl/lib/libsdk.a(enet_drv.o)
 .debug_line    0x0000dc7d      0x29b /home/leon/git/swp-report/iMX6_Platform_SDK/output/mx6sdl/lib/libsdk.a(mxc_epdc.o)
 .debug_line    0x0000df18      0x7bb /home/leon/git/swp-report/iMX6_Platform_SDK/output/mx6sdl/lib/libsdk.a(gpio.o)
 .debug_line    0x0000e6d3       0xd0 /home/leon/git/swp-report/iMX6_Platform_SDK/output/mx6sdl/lib/libsdk.a(imx6sdl_gpio_map.o)
 .debug_line    0x0000e7a3      0x2cb /home/leon/git/swp-report/iMX6_Platform_SDK/output/mx6sdl/lib/libsdk.a(hdmi_tx.o)
 .debug_line    0x0000ea6e      0x2cc /home/leon/git/swp-report/iMX6_Platform_SDK/output/mx6sdl/lib/libsdk.a(hdmi_tx_audio.o)
 .debug_line    0x0000ed3a      0x2eb /home/leon/git/swp-report/iMX6_Platform_SDK/output/mx6sdl/lib/libsdk.a(hdmi_tx_phy.o)
 .debug_line    0x0000f025      0x9c0 /home/leon/git/swp-report/iMX6_Platform_SDK/output/mx6sdl/lib/libsdk.a(imx_i2c.o)
 .debug_line    0x0000f9e5      0x22d /home/leon/git/swp-report/iMX6_Platform_SDK/output/mx6sdl/lib/libsdk.a(ips_disp_panel.o)
 .debug_line    0x0000fc12      0x30b /home/leon/git/swp-report/iMX6_Platform_SDK/output/mx6sdl/lib/libsdk.a(ipu_common.o)
 .debug_line    0x0000ff1d      0x1d0 /home/leon/git/swp-report/iMX6_Platform_SDK/output/mx6sdl/lib/libsdk.a(ipu_csi.o)
 .debug_line    0x000100ed      0x30d /home/leon/git/swp-report/iMX6_Platform_SDK/output/mx6sdl/lib/libsdk.a(ipu_dc.o)
 .debug_line    0x000103fa      0x243 /home/leon/git/swp-report/iMX6_Platform_SDK/output/mx6sdl/lib/libsdk.a(ipu_di.o)
 .debug_line    0x0001063d      0x14b /home/leon/git/swp-report/iMX6_Platform_SDK/output/mx6sdl/lib/libsdk.a(ipu_dmfc.o)
 .debug_line    0x00010788      0x17e /home/leon/git/swp-report/iMX6_Platform_SDK/output/mx6sdl/lib/libsdk.a(ipu_dp.o)
 .debug_line    0x00010906      0x98a /home/leon/git/swp-report/iMX6_Platform_SDK/output/mx6sdl/lib/libsdk.a(ipu_idmac.o)
 .debug_line    0x00011290      0x18e /home/leon/git/swp-report/iMX6_Platform_SDK/output/mx6sdl/lib/libsdk.a(ipu_vdi.o)
 .debug_line    0x0001141e      0x1df /home/leon/git/swp-report/iMX6_Platform_SDK/output/mx6sdl/lib/libsdk.a(ldb.o)
 .debug_line    0x000115fd      0x1ae /home/leon/git/swp-report/iMX6_Platform_SDK/output/mx6sdl/lib/libsdk.a(ocotp.o)
 .debug_line    0x000117ab      0x85b /home/leon/git/swp-report/iMX6_Platform_SDK/output/mx6sdl/lib/libsdk.a(ecspi.o)
 .debug_line    0x00012006      0x201 /home/leon/git/swp-report/iMX6_Platform_SDK/output/mx6sdl/lib/libsdk.a(timer.o)
 .debug_line    0x00012207     0x12cc /home/leon/git/swp-report/iMX6_Platform_SDK/output/mx6sdl/lib/libsdk.a(imx_uart.o)
 .debug_line    0x000134d3      0x2a9 /home/leon/git/swp-report/iMX6_Platform_SDK/output/mx6sdl/lib/libsdk.a(usb_common.o)
 .debug_line    0x0001377c     0x1253 /home/leon/git/swp-report/iMX6_Platform_SDK/output/mx6sdl/lib/libsdk.a(usbh_drv.o)
 .debug_line    0x000149cf      0x380 /home/leon/git/swp-report/iMX6_Platform_SDK/output/mx6sdl/lib/libsdk.a(usdhc.o)
 .debug_line    0x00014d4f     0x14a5 /home/leon/git/swp-report/iMX6_Platform_SDK/output/mx6sdl/lib/libsdk.a(usdhc_host.o)
 .debug_line    0x000161f4      0x348 /home/leon/git/swp-report/iMX6_Platform_SDK/output/mx6sdl/lib/libsdk.a(usdhc_mmc.o)
 .debug_line    0x0001653c      0x202 /home/leon/git/swp-report/iMX6_Platform_SDK/output/mx6sdl/lib/libsdk.a(usdhc_sd.o)
 .debug_line    0x0001673e      0x292 /home/leon/git/swp-report/iMX6_Platform_SDK/output/mx6sdl/lib/libsdk.a(adv7180.o)
 .debug_line    0x000169d0      0x1aa /home/leon/git/swp-report/iMX6_Platform_SDK/output/mx6sdl/lib/libsdk.a(armv7_cache.o)
 .debug_line    0x00016b7a      0x11f /home/leon/git/swp-report/iMX6_Platform_SDK/output/mx6sdl/lib/libsdk.a(camera_profile.o)
 .debug_line    0x00016c99      0x59e /home/leon/git/swp-report/iMX6_Platform_SDK/output/mx6sdl/lib/libsdk.a(hdmi_common.o)
 .debug_line    0x00017237      0x2f5 /home/leon/git/swp-report/iMX6_Platform_SDK/output/mx6sdl/lib/libsdk.a(ipu_ic.o)
 .debug_line    0x0001752c      0x581 /home/leon/git/swp-report/iMX6_Platform_SDK/output/mx6sdl/lib/libsdk.a(epit.o)
 .debug_line    0x00017aad      0x271 /home/leon/git/swp-report/iMX6_Platform_SDK/output/mx6sdl/lib/libsdk.a(mx6x_usb.o)
 .debug_line    0x00017d1e      0x24a /home/leon/git/swp-report/iMX6_Platform_SDK/output/mx6sdl/lib/libsdk.a(abort_handler.o)
 .debug_line    0x00017f68      0x132 /home/leon/git/swp-report/iMX6_Platform_SDK/output/mx6sdl/lib/libboard_evb_rev_a.a(board_audio.o)
 .debug_line    0x0001809a      0x137 /home/leon/git/swp-report/iMX6_Platform_SDK/output/mx6sdl/lib/libboard_evb_rev_a.a(board_buttons.o)
 .debug_line    0x000181d1      0x241 /home/leon/git/swp-report/iMX6_Platform_SDK/output/mx6sdl/lib/libboard_evb_rev_a.a(board_camera.o)
 .debug_line    0x00018412      0x190 /home/leon/git/swp-report/iMX6_Platform_SDK/output/mx6sdl/lib/libboard_evb_rev_a.a(board_display.o)
 .debug_line    0x000185a2      0x172 /home/leon/git/swp-report/iMX6_Platform_SDK/output/mx6sdl/lib/libboard_evb_rev_a.a(board_hdmi.o)
 .debug_line    0x00018714      0x10a /home/leon/git/swp-report/iMX6_Platform_SDK/output/mx6sdl/lib/libboard_evb_rev_a.a(board_i2c.o)
 .debug_line    0x0001881e      0x12f /home/leon/git/swp-report/iMX6_Platform_SDK/output/mx6sdl/lib/libboard_evb_rev_a.a(board_io_expanders.o)
 .debug_line    0x0001894d      0x172 /home/leon/git/swp-report/iMX6_Platform_SDK/output/mx6sdl/lib/libboard_evb_rev_a.a(board_mipi.o)
 .debug_line    0x00018abf       0x8a /home/leon/git/swp-report/iMX6_Platform_SDK/output/mx6sdl/lib/libboard_evb_rev_a.a(board_network.o)
 .debug_line    0x00018b49      0x121 /home/leon/git/swp-report/iMX6_Platform_SDK/output/mx6sdl/lib/libboard_evb_rev_a.a(board_usb.o)
 .debug_line    0x00018c6a      0x1a8 /home/leon/git/swp-report/iMX6_Platform_SDK/output/mx6sdl/lib/libboard_evb_rev_a.a(board_usdhc.o)
 .debug_line    0x00018e12       0xc8 /home/leon/git/swp-report/iMX6_Platform_SDK/output/mx6sdl/lib/libboard_evb_rev_a.a(hardware_modules.o)
 .debug_line    0x00018eda      0x108 /home/leon/git/swp-report/iMX6_Platform_SDK/output/mx6sdl/lib/libboard_evb_rev_a.a(dcd.o)
 .debug_line    0x00018fe2       0x8f /home/leon/git/swp-report/iMX6_Platform_SDK/output/mx6sdl/lib/libboard_evb_rev_a.a(ecspi_iomux_config.o)
 .debug_line    0x00019071      0x18f /home/leon/git/swp-report/iMX6_Platform_SDK/output/mx6sdl/lib/libboard_evb_rev_a.a(enet_iomux_config.o)
 .debug_line    0x00019200      0x156 /home/leon/git/swp-report/iMX6_Platform_SDK/output/mx6sdl/lib/libboard_evb_rev_a.a(esai_iomux_config.o)
 .debug_line    0x00019356       0x8d /home/leon/git/swp-report/iMX6_Platform_SDK/output/mx6sdl/lib/libboard_evb_rev_a.a(i2c_iomux_config.o)
 .debug_line    0x000193e3       0xe7 /home/leon/git/swp-report/iMX6_Platform_SDK/output/mx6sdl/lib/libboard_evb_rev_a.a(iomux_config.o)
 .debug_line    0x000194ca      0x1e8 /home/leon/git/swp-report/iMX6_Platform_SDK/output/mx6sdl/lib/libboard_evb_rev_a.a(ipu1_iomux_config.o)
 .debug_line    0x000196b2       0x89 /home/leon/git/swp-report/iMX6_Platform_SDK/output/mx6sdl/lib/libboard_evb_rev_a.a(ipu_iomux_config.o)
 .debug_line    0x0001973b      0x11f /home/leon/git/swp-report/iMX6_Platform_SDK/output/mx6sdl/lib/libboard_evb_rev_a.a(kpp_iomux_config.o)
 .debug_line    0x0001985a      0x104 /home/leon/git/swp-report/iMX6_Platform_SDK/output/mx6sdl/lib/libboard_evb_rev_a.a(mlb_iomux_config.o)
 .debug_line    0x0001995e      0x5cc /home/leon/git/swp-report/iMX6_Platform_SDK/output/mx6sdl/lib/libboard_evb_rev_a.a(mmdc_iomux_config.o)
 .debug_line    0x00019f2a       0xf2 /home/leon/git/swp-report/iMX6_Platform_SDK/output/mx6sdl/lib/libboard_evb_rev_a.a(pwm1_iomux_config.o)
 .debug_line    0x0001a01c       0xfb /home/leon/git/swp-report/iMX6_Platform_SDK/output/mx6sdl/lib/libboard_evb_rev_a.a(sjc_iomux_config.o)
 .debug_line    0x0001a117      0x114 /home/leon/git/swp-report/iMX6_Platform_SDK/output/mx6sdl/lib/libboard_evb_rev_a.a(spdif_iomux_config.o)
 .debug_line    0x0001a22b      0x10f /home/leon/git/swp-report/iMX6_Platform_SDK/output/mx6sdl/lib/libboard_evb_rev_a.a(uart2_iomux_config.o)
 .debug_line    0x0001a33a       0xfd /home/leon/git/swp-report/iMX6_Platform_SDK/output/mx6sdl/lib/libboard_evb_rev_a.a(uart4_iomux_config.o)
 .debug_line    0x0001a437       0x8f /home/leon/git/swp-report/iMX6_Platform_SDK/output/mx6sdl/lib/libboard_evb_rev_a.a(uart_iomux_config.o)
 .debug_line    0x0001a4c6      0x103 /home/leon/git/swp-report/iMX6_Platform_SDK/output/mx6sdl/lib/libboard_evb_rev_a.a(usb_iomux_config.o)
 .debug_line    0x0001a5c9      0x12d /home/leon/git/swp-report/iMX6_Platform_SDK/output/mx6sdl/lib/libboard_evb_rev_a.a(usdhc1_iomux_config.o)
 .debug_line    0x0001a6f6      0x133 /home/leon/git/swp-report/iMX6_Platform_SDK/output/mx6sdl/lib/libboard_evb_rev_a.a(usdhc2_iomux_config.o)
 .debug_line    0x0001a829      0x139 /home/leon/git/swp-report/iMX6_Platform_SDK/output/mx6sdl/lib/libboard_evb_rev_a.a(usdhc3_iomux_config.o)
 .debug_line    0x0001a962      0x12d /home/leon/git/swp-report/iMX6_Platform_SDK/output/mx6sdl/lib/libboard_evb_rev_a.a(usdhc4_iomux_config.o)
 .debug_line    0x0001aa8f       0x8f /home/leon/git/swp-report/iMX6_Platform_SDK/output/mx6sdl/lib/libboard_evb_rev_a.a(usdhc_iomux_config.o)
 .debug_line    0x0001ab1e       0xef /home/leon/git/swp-report/iMX6_Platform_SDK/output/mx6sdl/lib/libboard_evb_rev_a.a(ccm_iomux_config.o)
 .debug_line    0x0001ac0d      0x119 /home/leon/git/swp-report/iMX6_Platform_SDK/output/mx6sdl/lib/libboard_evb_rev_a.a(ecspi1_iomux_config.o)
 .debug_line    0x0001ad26       0xff /home/leon/git/swp-report/iMX6_Platform_SDK/output/mx6sdl/lib/libboard_evb_rev_a.a(flexcan1_iomux_config.o)
 .debug_line    0x0001ae25       0xff /home/leon/git/swp-report/iMX6_Platform_SDK/output/mx6sdl/lib/libboard_evb_rev_a.a(flexcan2_iomux_config.o)
 .debug_line    0x0001af24       0xf9 /home/leon/git/swp-report/iMX6_Platform_SDK/output/mx6sdl/lib/libboard_evb_rev_a.a(gpio3_iomux_config.o)
 .debug_line    0x0001b01d       0xf9 /home/leon/git/swp-report/iMX6_Platform_SDK/output/mx6sdl/lib/libboard_evb_rev_a.a(gpio4_iomux_config.o)
 .debug_line    0x0001b116      0x105 /home/leon/git/swp-report/iMX6_Platform_SDK/output/mx6sdl/lib/libboard_evb_rev_a.a(gpio5_iomux_config.o)
 .debug_line    0x0001b21b       0xf9 /home/leon/git/swp-report/iMX6_Platform_SDK/output/mx6sdl/lib/libboard_evb_rev_a.a(gpio6_iomux_config.o)
 .debug_line    0x0001b314      0x15e /home/leon/git/swp-report/iMX6_Platform_SDK/output/mx6sdl/lib/libboard_evb_rev_a.a(gpmi_iomux_config.o)
 .debug_line    0x0001b472       0xf3 /home/leon/git/swp-report/iMX6_Platform_SDK/output/mx6sdl/lib/libboard_evb_rev_a.a(hdmi_iomux_config.o)
 .debug_line    0x0001b565       0xfc /home/leon/git/swp-report/iMX6_Platform_SDK/output/mx6sdl/lib/libboard_evb_rev_a.a(i2c1_iomux_config.o)
 .debug_line    0x0001b661       0xfc /home/leon/git/swp-report/iMX6_Platform_SDK/output/mx6sdl/lib/libboard_evb_rev_a.a(i2c2_iomux_config.o)
 .debug_line    0x0001b75d       0xfc /home/leon/git/swp-report/iMX6_Platform_SDK/output/mx6sdl/lib/libboard_evb_rev_a.a(i2c3_iomux_config.o)
 .debug_line    0x0001b859      0x234 /home/leon/git/swp-report/iMX6_Platform_SDK/output/mx6sdl/lib/libsdk.a(runtime_support.o)

.debug_str      0x00000000    0x2406e
 .debug_str     0x00000000      0x150 /home/leon/git/swp-report/iMX6_Platform_SDK/output/mx6sdl/obds/evb_rev_a/obj/apps/common/ivt.o
                                0x1ad (size before relaxing)
 .debug_str     0x00000150      0x1f4 /home/leon/git/swp-report/iMX6_Platform_SDK/output/mx6sdl/obds/evb_rev_a/obj/apps/common/platform_init.o
                                0x2a3 (size before relaxing)
 .debug_str     0x00000344      0x170 /home/leon/git/swp-report/iMX6_Platform_SDK/output/mx6sdl/obds/evb_rev_a/obj/apps/common/print_clock_info.o
                                0x277 (size before relaxing)
 .debug_str     0x000004b4      0x11a /home/leon/git/swp-report/iMX6_Platform_SDK/output/mx6sdl/obds/evb_rev_a/obj/apps/common/print_version.o
                                0x20c (size before relaxing)
 .debug_str     0x000005ce      0x52e /home/leon/git/swp-report/iMX6_Platform_SDK/output/mx6sdl/obds/evb_rev_a/obj/apps/obds/src/obds.o
                                0x756 (size before relaxing)
 .debug_str     0x00000afc       0xd4 /home/leon/git/swp-report/iMX6_Platform_SDK/output/mx6sdl/obds/evb_rev_a/obj/apps/obds/src/obds_utils.o
                                0x1bc (size before relaxing)
 .debug_str     0x00000bd0      0x4f2 /home/leon/git/swp-report/iMX6_Platform_SDK/output/mx6sdl/obds/evb_rev_a/obj/apps/obds/src/tests/android_buttons_test.o
                                0x67c (size before relaxing)
 .debug_str     0x000010c2      0x404 /home/leon/git/swp-report/iMX6_Platform_SDK/output/mx6sdl/obds/evb_rev_a/obj/apps/obds/src/tests/audio_esai_test.o
                                0x9a3 (size before relaxing)
 .debug_str     0x000014c6       0xd0 /home/leon/git/swp-report/iMX6_Platform_SDK/output/mx6sdl/obds/evb_rev_a/obj/apps/obds/src/tests/audio_ssi_test.o
                                0x9d5 (size before relaxing)
 .debug_str     0x00001596      0x1cb /home/leon/git/swp-report/iMX6_Platform_SDK/output/mx6sdl/obds/evb_rev_a/obj/apps/obds/src/tests/ddr_test.o
                                0x357 (size before relaxing)
 .debug_str     0x00001761       0xc4 /home/leon/git/swp-report/iMX6_Platform_SDK/output/mx6sdl/obds/evb_rev_a/obj/apps/obds/src/tests/deserializer_ds90ur124.o
                                0x290 (size before relaxing)
 .debug_str     0x00001825      0x5a3 /home/leon/git/swp-report/iMX6_Platform_SDK/output/mx6sdl/obds/evb_rev_a/obj/apps/obds/src/tests/display_test.o
                                0xb45 (size before relaxing)
 .debug_str     0x00001dc8      0xe8b /home/leon/git/swp-report/iMX6_Platform_SDK/output/mx6sdl/obds/evb_rev_a/obj/apps/obds/src/tests/enet_mx6dldq_test.o
                               0x10d8 (size before relaxing)
 .debug_str     0x00002c53       0x80 /home/leon/git/swp-report/iMX6_Platform_SDK/output/mx6sdl/obds/evb_rev_a/obj/apps/obds/src/tests/flexcan_test.o
                                0x1f1 (size before relaxing)
 .debug_str     0x00002cd3      0x12d /home/leon/git/swp-report/iMX6_Platform_SDK/output/mx6sdl/obds/evb_rev_a/obj/apps/obds/src/tests/fm_tuner_si476x_test.o
                                0x2fd (size before relaxing)
 .debug_str     0x00002e00      0x108 /home/leon/git/swp-report/iMX6_Platform_SDK/output/mx6sdl/obds/evb_rev_a/obj/apps/obds/src/tests/gpio_led.o
                                0x64d (size before relaxing)
 .debug_str     0x00002f08       0x72 /home/leon/git/swp-report/iMX6_Platform_SDK/output/mx6sdl/obds/evb_rev_a/obj/apps/obds/src/tests/gps_test.o
                                0x28e (size before relaxing)
 .debug_str     0x00002f7a      0x1de /home/leon/git/swp-report/iMX6_Platform_SDK/output/mx6sdl/obds/evb_rev_a/obj/apps/obds/src/tests/i2c_check_light_sensor_isl29023.o
                                0x7e4 (size before relaxing)
 .debug_str     0x00003158       0xd8 /home/leon/git/swp-report/iMX6_Platform_SDK/output/mx6sdl/obds/evb_rev_a/obj/apps/obds/src/tests/i2c_device_barometer_ppl3115.o
                                0x3d3 (size before relaxing)
 .debug_str     0x00003230       0x96 /home/leon/git/swp-report/iMX6_Platform_SDK/output/mx6sdl/obds/evb_rev_a/obj/apps/obds/src/tests/i2c_device_check_cs42888.o
                                0x57b (size before relaxing)
 .debug_str     0x000032c6       0xca /home/leon/git/swp-report/iMX6_Platform_SDK/output/mx6sdl/obds/evb_rev_a/obj/apps/obds/src/tests/i2c_device_digital_compass_mag3110.o
                                0x3c4 (size before relaxing)
 .debug_str     0x00003390       0xb4 /home/leon/git/swp-report/iMX6_Platform_SDK/output/mx6sdl/obds/evb_rev_a/obj/apps/obds/src/tests/i2c_device_digital_compass_mag3112.o
                                0x3c4 (size before relaxing)
 .debug_str     0x00003444      0x139 /home/leon/git/swp-report/iMX6_Platform_SDK/output/mx6sdl/obds/evb_rev_a/obj/apps/obds/src/tests/i2c_device_id_check_mma8450.o
                                0x7fb (size before relaxing)
 .debug_str     0x0000357d       0xf7 /home/leon/git/swp-report/iMX6_Platform_SDK/output/mx6sdl/obds/evb_rev_a/obj/apps/obds/src/tests/i2c_device_id_check_mma8451.o
                                0x7fb (size before relaxing)
 .debug_str     0x00003674      0x146 /home/leon/git/swp-report/iMX6_Platform_SDK/output/mx6sdl/obds/evb_rev_a/obj/apps/obds/src/tests/i2c_device_id_check_p1003_tsc.o
                                0x781 (size before relaxing)
 .debug_str     0x000037ba      0x1c5 /home/leon/git/swp-report/iMX6_Platform_SDK/output/mx6sdl/obds/evb_rev_a/obj/apps/obds/src/tests/i2c_device_temp_sensor_emc1046.o
                                0x4ca (size before relaxing)
 .debug_str     0x0000397f       0xba /home/leon/git/swp-report/iMX6_Platform_SDK/output/mx6sdl/obds/evb_rev_a/obj/apps/obds/src/tests/i2c_device_zigbee_mc1323.o
                                0x3c6 (size before relaxing)
 .debug_str     0x00003a39       0xb7 /home/leon/git/swp-report/iMX6_Platform_SDK/output/mx6sdl/obds/evb_rev_a/obj/apps/obds/src/tests/i2c_eeprom_at24cxx_test.o
                                0x30f (size before relaxing)
 .debug_str     0x00003af0      0x1ae /home/leon/git/swp-report/iMX6_Platform_SDK/output/mx6sdl/obds/evb_rev_a/obj/apps/obds/src/tests/imx_spi_nor_test.o
                                0x34e (size before relaxing)
 .debug_str     0x00003c9e       0xef /home/leon/git/swp-report/iMX6_Platform_SDK/output/mx6sdl/obds/evb_rev_a/obj/apps/obds/src/tests/mlb_os81050.o
                                0x32f (size before relaxing)
 .debug_str     0x00003d8d       0xb3 /home/leon/git/swp-report/iMX6_Platform_SDK/output/mx6sdl/obds/evb_rev_a/obj/apps/obds/src/tests/mmcsd_test.o
                                0x23e (size before relaxing)
 .debug_str     0x00003e40       0xae /home/leon/git/swp-report/iMX6_Platform_SDK/output/mx6sdl/obds/evb_rev_a/obj/apps/obds/src/tests/pmic_da9053.o
                                0x2ff (size before relaxing)
 .debug_str     0x00003eee      0x115 /home/leon/git/swp-report/iMX6_Platform_SDK/output/mx6sdl/obds/evb_rev_a/obj/apps/obds/src/tests/pmic_lt3589.o
                                0x72d (size before relaxing)
 .debug_str     0x00004003       0xe8 /home/leon/git/swp-report/iMX6_Platform_SDK/output/mx6sdl/obds/evb_rev_a/obj/apps/obds/src/tests/pmic_max17135.o
                                0x336 (size before relaxing)
 .debug_str     0x000040eb       0xda /home/leon/git/swp-report/iMX6_Platform_SDK/output/mx6sdl/obds/evb_rev_a/obj/apps/obds/src/tests/pmic_mc13892.o
                                0x255 (size before relaxing)
 .debug_str     0x000041c5       0xca /home/leon/git/swp-report/iMX6_Platform_SDK/output/mx6sdl/obds/evb_rev_a/obj/apps/obds/src/tests/program_board_id.o
                                0x36f (size before relaxing)
 .debug_str     0x0000428f      0x1a0 /home/leon/git/swp-report/iMX6_Platform_SDK/output/mx6sdl/obds/evb_rev_a/obj/apps/obds/src/tests/program_mac_address.o
                                0x764 (size before relaxing)
 .debug_str     0x0000442f      0x29b /home/leon/git/swp-report/iMX6_Platform_SDK/output/mx6sdl/obds/evb_rev_a/obj/apps/obds/src/tests/snvs_srtc_test.o
                                0x46a (size before relaxing)
 .debug_str     0x000046ca       0xdc /home/leon/git/swp-report/iMX6_Platform_SDK/output/mx6sdl/obds/evb_rev_a/obj/apps/obds/src/tests/touch_screen.o
                                0x70c (size before relaxing)
 .debug_str     0x000047a6      0x137 /home/leon/git/swp-report/iMX6_Platform_SDK/output/mx6sdl/obds/evb_rev_a/obj/apps/obds/src/tests/touch_screen_max11801.o
                                0x855 (size before relaxing)
 .debug_str     0x000048dd      0x638 /home/leon/git/swp-report/iMX6_Platform_SDK/output/mx6sdl/obds/evb_rev_a/obj/apps/obds/src/tests/usb_tests_obds.o
                                0x7cd (size before relaxing)
 .debug_str     0x00004f15       0x95 /home/leon/git/swp-report/iMX6_Platform_SDK/output/mx6sdl/obds/evb_rev_a/obj/apps/obds/src/tests/video_dec_ARD_MB_reset_button.o
                                0x212 (size before relaxing)
 .debug_str     0x00004faa       0xa5 /home/leon/git/swp-report/iMX6_Platform_SDK/output/mx6sdl/obds/evb_rev_a/obj/apps/obds/src/tests/video_dec_ARD_MBrst_from_cpu_expander.o
                                0x21d (size before relaxing)
 .debug_str     0x0000504f      0x141 /home/leon/git/swp-report/iMX6_Platform_SDK/output/mx6sdl/obds/evb_rev_a/obj/apps/obds/src/tests/video_dec_adv7180.o
                                0x753 (size before relaxing)
 .debug_str     0x00005190       0xc8 /home/leon/git/swp-report/iMX6_Platform_SDK/output/mx6sdl/obds/evb_rev_a/obj/apps/obds/src/tests/weim_nor_flash_test.o
                                0x250 (size before relaxing)
 .debug_str     0x00005258      0x109 /home/leon/git/swp-report/iMX6_Platform_SDK/output/mx6sdl/obds/evb_rev_a/obj/sdk/common/ioexpander/test/max7310_test.o
                                0x303 (size before relaxing)
 .debug_str     0x00005361      0x198 /home/leon/git/swp-report/iMX6_Platform_SDK/output/mx6sdl/obds/evb_rev_a/obj/sdk/common/pmic/pfuse/pf0100.o
                                0x3ab (size before relaxing)
 .debug_str     0x000054f9      0x19e /home/leon/git/swp-report/iMX6_Platform_SDK/output/mx6sdl/obds/evb_rev_a/obj/sdk/drivers/audio/src/snd_card.o
                                0x5fb (size before relaxing)
 .debug_str     0x00005697      0x1f8 /home/leon/git/swp-report/iMX6_Platform_SDK/output/mx6sdl/obds/evb_rev_a/obj/sdk/drivers/camera/test/adv7180_capture.o
                                0x826 (size before relaxing)
 .debug_str     0x0000588f       0xac /home/leon/git/swp-report/iMX6_Platform_SDK/output/mx6sdl/obds/evb_rev_a/obj/sdk/drivers/camera/test/camera_test.o
                                0x5f7 (size before relaxing)
 .debug_str     0x0000593b       0x62 /home/leon/git/swp-report/iMX6_Platform_SDK/output/mx6sdl/obds/evb_rev_a/obj/sdk/drivers/camera/test/csi_test_mode.o
                                0x784 (size before relaxing)
 .debug_str     0x0000599d      0x145 /home/leon/git/swp-report/iMX6_Platform_SDK/output/mx6sdl/obds/evb_rev_a/obj/sdk/drivers/camera/test/sensor_capture.o
                                0x8a3 (size before relaxing)
 .debug_str     0x00005ae2      0x16b /home/leon/git/swp-report/iMX6_Platform_SDK/output/mx6sdl/obds/evb_rev_a/obj/sdk/drivers/epdc/test/epdc_test.o
                                0x675 (size before relaxing)
 .debug_str     0x00005c4d     0x12e5 /home/leon/git/swp-report/iMX6_Platform_SDK/output/mx6sdl/obds/evb_rev_a/obj/sdk/drivers/hdmi/test/hdmi_test.o
                               0x1613 (size before relaxing)
 .debug_str     0x00006f32      0x13f /home/leon/git/swp-report/iMX6_Platform_SDK/output/mx6sdl/obds/evb_rev_a/obj/sdk/drivers/hdmi/test/init_dma_data.o
                                0x2b0 (size before relaxing)
 .debug_str     0x00007071      0x239 /home/leon/git/swp-report/iMX6_Platform_SDK/output/mx6sdl/obds/evb_rev_a/obj/sdk/drivers/ipu/test/ips_display.o
                                0x92c (size before relaxing)
 .debug_str     0x000072aa      0x108 /home/leon/git/swp-report/iMX6_Platform_SDK/output/mx6sdl/obds/evb_rev_a/obj/sdk/drivers/ipu/test/ipu_image.o
                                0x33d (size before relaxing)
 .debug_str     0x000073b2      0x1c4 /home/leon/git/swp-report/iMX6_Platform_SDK/output/mx6sdl/obds/evb_rev_a/obj/sdk/drivers/spi/test/imx_spi_nor_atmel.o
                                0x31f (size before relaxing)
 .debug_str     0x00007576      0x115 /home/leon/git/swp-report/iMX6_Platform_SDK/output/mx6sdl/obds/evb_rev_a/obj/sdk/drivers/spi/test/spi_nor_numonyx.o
                                0x2af (size before relaxing)
 .debug_str     0x0000768b      0x10d /home/leon/git/swp-report/iMX6_Platform_SDK/output/mx6sdl/obds/evb_rev_a/obj/sdk/drivers/uart/test/uart_test.o
                                0x6aa (size before relaxing)
 .debug_str     0x00007798      0x3bd /home/leon/git/swp-report/iMX6_Platform_SDK/output/mx6sdl/obds/evb_rev_a/obj/sdk/drivers/usb/test/usb0_host_test.o
                                0xa0b (size before relaxing)
 .debug_str     0x00007b55       0x84 /home/leon/git/swp-report/iMX6_Platform_SDK/output/mx6sdl/obds/evb_rev_a/obj/sdk/drivers/usb/test/usb0_host_testmodes_test.o
                                0x370 (size before relaxing)
 .debug_str     0x00007bd9      0x1aa /home/leon/git/swp-report/iMX6_Platform_SDK/output/mx6sdl/obds/evb_rev_a/obj/sdk/drivers/usdhc/test/usdhc_test.o
                                0x6cf (size before relaxing)
 .debug_str     0x00007d83       0xfd /home/leon/git/swp-report/iMX6_Platform_SDK/output/mx6sdl/lib/libsdk.a(max7310.o)
                                0x2ab (size before relaxing)
 .debug_str     0x00007e80      0xe22 /home/leon/git/swp-report/iMX6_Platform_SDK/output/mx6sdl/lib/libsdk.a(ccm_pll.o)
                               0x109a (size before relaxing)
 .debug_str     0x00008ca2      0x495 /home/leon/git/swp-report/iMX6_Platform_SDK/output/mx6sdl/lib/libsdk.a(gic.o)
                                0x5f2 (size before relaxing)
 .debug_str     0x00009137       0xd7 /home/leon/git/swp-report/iMX6_Platform_SDK/output/mx6sdl/lib/libsdk.a(interrupt.o)
                                0xc85 (size before relaxing)
 .debug_str     0x0000920e      0x1a8 /home/leon/git/swp-report/iMX6_Platform_SDK/output/mx6sdl/lib/libsdk.a(mmu.o)
                                0x35e (size before relaxing)
 .debug_str     0x000093b6      0x227 /home/leon/git/swp-report/iMX6_Platform_SDK/output/mx6sdl/lib/libsdk.a(menu.o)
                                0x85d (size before relaxing)
 .debug_str     0x000095dd       0x4a /home/leon/git/swp-report/iMX6_Platform_SDK/output/mx6sdl/lib/libsdk.a(sdk_version.o)
                                 0x82 (size before relaxing)
 .debug_str     0x00009627      0x10f /home/leon/git/swp-report/iMX6_Platform_SDK/output/mx6sdl/lib/libsdk.a(system_util.o)
                                0x7ac (size before relaxing)
 .debug_str     0x00009736      0x14a /home/leon/git/swp-report/iMX6_Platform_SDK/output/mx6sdl/lib/libsdk.a(text_color.o)
                                0x305 (size before relaxing)
 .debug_str     0x00009880       0xed /home/leon/git/swp-report/iMX6_Platform_SDK/output/mx6sdl/lib/libsdk.a(cs42888.o)
                                0x59a (size before relaxing)
 .debug_str     0x0000996d      0x9af /home/leon/git/swp-report/iMX6_Platform_SDK/output/mx6sdl/lib/libsdk.a(imx-ssi.o)
                                0xe07 (size before relaxing)
 .debug_str     0x0000a31c      0x7af /home/leon/git/swp-report/iMX6_Platform_SDK/output/mx6sdl/lib/libsdk.a(imx_esai.o)
                                0xc28 (size before relaxing)
 .debug_str     0x0000aacb      0x81f /home/leon/git/swp-report/iMX6_Platform_SDK/output/mx6sdl/lib/libsdk.a(imx_spdif.o)
                                0xcb0 (size before relaxing)
 .debug_str     0x0000b2ea      0x17a /home/leon/git/swp-report/iMX6_Platform_SDK/output/mx6sdl/lib/libsdk.a(sgtl5000.o)
                                0x675 (size before relaxing)
 .debug_str     0x0000b464      0x171 /home/leon/git/swp-report/iMX6_Platform_SDK/output/mx6sdl/lib/libsdk.a(wm8958_dac.o)
                                0x623 (size before relaxing)
 .debug_str     0x0000b5d5      0x124 /home/leon/git/swp-report/iMX6_Platform_SDK/output/mx6sdl/lib/libsdk.a(wm8962.o)
                                0x5d6 (size before relaxing)
 .debug_str     0x0000b6f9      0x204 /home/leon/git/swp-report/iMX6_Platform_SDK/output/mx6sdl/lib/libsdk.a(board_id.o)
                                0x3d2 (size before relaxing)
 .debug_str     0x0000b8fd      0x260 /home/leon/git/swp-report/iMX6_Platform_SDK/output/mx6sdl/lib/libsdk.a(smd_sensor.o)
                                0x524 (size before relaxing)
 .debug_str     0x0000bb5d      0x2ba /home/leon/git/swp-report/iMX6_Platform_SDK/output/mx6sdl/lib/libsdk.a(enet_drv.o)
                               0x1153 (size before relaxing)
 .debug_str     0x0000be17     0x1059 /home/leon/git/swp-report/iMX6_Platform_SDK/output/mx6sdl/lib/libsdk.a(mxc_epdc.o)
                               0x1195 (size before relaxing)
 .debug_str     0x0000ce70      0x36d /home/leon/git/swp-report/iMX6_Platform_SDK/output/mx6sdl/lib/libsdk.a(gpio.o)
                                0x48b (size before relaxing)
 .debug_str     0x0000d1dd       0x54 /home/leon/git/swp-report/iMX6_Platform_SDK/output/mx6sdl/lib/libsdk.a(imx6sdl_gpio_map.o)
                                0x10b (size before relaxing)
 .debug_str     0x0000d231     0x1b0d /home/leon/git/swp-report/iMX6_Platform_SDK/output/mx6sdl/lib/libsdk.a(hdmi_tx.o)
                               0x1f81 (size before relaxing)
 .debug_str     0x0000ed3e      0xb79 /home/leon/git/swp-report/iMX6_Platform_SDK/output/mx6sdl/lib/libsdk.a(hdmi_tx_audio.o)
                                0xd5b (size before relaxing)
 .debug_str     0x0000f8b7      0x8d9 /home/leon/git/swp-report/iMX6_Platform_SDK/output/mx6sdl/lib/libsdk.a(hdmi_tx_phy.o)
                                0xa56 (size before relaxing)
 .debug_str     0x00010190      0x2f6 /home/leon/git/swp-report/iMX6_Platform_SDK/output/mx6sdl/lib/libsdk.a(imx_i2c.o)
                               0x1099 (size before relaxing)
 .debug_str     0x00010486      0x3e3 /home/leon/git/swp-report/iMX6_Platform_SDK/output/mx6sdl/lib/libsdk.a(ips_disp_panel.o)
                                0x66a (size before relaxing)
 .debug_str     0x00010869      0x4eb /home/leon/git/swp-report/iMX6_Platform_SDK/output/mx6sdl/lib/libsdk.a(ipu_common.o)
                                0xa48 (size before relaxing)
 .debug_str     0x00010d54      0x238 /home/leon/git/swp-report/iMX6_Platform_SDK/output/mx6sdl/lib/libsdk.a(ipu_csi.o)
                                0x430 (size before relaxing)
 .debug_str     0x00010f8c      0x225 /home/leon/git/swp-report/iMX6_Platform_SDK/output/mx6sdl/lib/libsdk.a(ipu_dc.o)
                                0x442 (size before relaxing)
 .debug_str     0x000111b1      0x29f /home/leon/git/swp-report/iMX6_Platform_SDK/output/mx6sdl/lib/libsdk.a(ipu_di.o)
                                0x4f1 (size before relaxing)
 .debug_str     0x00011450       0x7b /home/leon/git/swp-report/iMX6_Platform_SDK/output/mx6sdl/lib/libsdk.a(ipu_dmfc.o)
                                0x399 (size before relaxing)
 .debug_str     0x000114cb       0x9e /home/leon/git/swp-report/iMX6_Platform_SDK/output/mx6sdl/lib/libsdk.a(ipu_dp.o)
                                0x1e2 (size before relaxing)
 .debug_str     0x00011569      0x37f /home/leon/git/swp-report/iMX6_Platform_SDK/output/mx6sdl/lib/libsdk.a(ipu_idmac.o)
                                0x88f (size before relaxing)
 .debug_str     0x000118e8      0x2f8 /home/leon/git/swp-report/iMX6_Platform_SDK/output/mx6sdl/lib/libsdk.a(ipu_vdi.o)
                                0x942 (size before relaxing)
 .debug_str     0x00011be0      0x1a4 /home/leon/git/swp-report/iMX6_Platform_SDK/output/mx6sdl/lib/libsdk.a(ldb.o)
                                0x415 (size before relaxing)
 .debug_str     0x00011d84      0x2df /home/leon/git/swp-report/iMX6_Platform_SDK/output/mx6sdl/lib/libsdk.a(ocotp.o)
                                0x3d6 (size before relaxing)
 .debug_str     0x00012063      0x2e1 /home/leon/git/swp-report/iMX6_Platform_SDK/output/mx6sdl/lib/libsdk.a(ecspi.o)
                                0x4a7 (size before relaxing)
 .debug_str     0x00012344      0x2bd /home/leon/git/swp-report/iMX6_Platform_SDK/output/mx6sdl/lib/libsdk.a(timer.o)
                                0x3f8 (size before relaxing)
 .debug_str     0x00012601      0x544 /home/leon/git/swp-report/iMX6_Platform_SDK/output/mx6sdl/lib/libsdk.a(imx_uart.o)
                               0x12ee (size before relaxing)
 .debug_str     0x00012b45       0xca /home/leon/git/swp-report/iMX6_Platform_SDK/output/mx6sdl/lib/libsdk.a(usb_common.o)
                                0x79d (size before relaxing)
 .debug_str     0x00012c0f      0x581 /home/leon/git/swp-report/iMX6_Platform_SDK/output/mx6sdl/lib/libsdk.a(usbh_drv.o)
                                0xaab (size before relaxing)
 .debug_str     0x00013190      0x55e /home/leon/git/swp-report/iMX6_Platform_SDK/output/mx6sdl/lib/libsdk.a(usdhc.o)
                               0x1201 (size before relaxing)
 .debug_str     0x000136ee      0xb3c /home/leon/git/swp-report/iMX6_Platform_SDK/output/mx6sdl/lib/libsdk.a(usdhc_host.o)
                                0xfad (size before relaxing)
 .debug_str     0x0001422a      0x224 /home/leon/git/swp-report/iMX6_Platform_SDK/output/mx6sdl/lib/libsdk.a(usdhc_mmc.o)
                                0x72e (size before relaxing)
 .debug_str     0x0001444e       0xae /home/leon/git/swp-report/iMX6_Platform_SDK/output/mx6sdl/lib/libsdk.a(usdhc_sd.o)
                                0x58d (size before relaxing)
 .debug_str     0x000144fc      0x18d /home/leon/git/swp-report/iMX6_Platform_SDK/output/mx6sdl/lib/libsdk.a(adv7180.o)
                                0x45a (size before relaxing)
 .debug_str     0x00014689      0x1ea /home/leon/git/swp-report/iMX6_Platform_SDK/output/mx6sdl/lib/libsdk.a(armv7_cache.o)
                                0x2aa (size before relaxing)
 .debug_str     0x00014873      0x1c6 /home/leon/git/swp-report/iMX6_Platform_SDK/output/mx6sdl/lib/libsdk.a(camera_profile.o)
                                0x4be (size before relaxing)
 .debug_str     0x00014a39       0xbd /home/leon/git/swp-report/iMX6_Platform_SDK/output/mx6sdl/lib/libsdk.a(hdmi_common.o)
                                0x39d (size before relaxing)
 .debug_str     0x00014af6      0x2ba /home/leon/git/swp-report/iMX6_Platform_SDK/output/mx6sdl/lib/libsdk.a(ipu_ic.o)
                                0x581 (size before relaxing)
 .debug_str     0x00014db0      0x27c /home/leon/git/swp-report/iMX6_Platform_SDK/output/mx6sdl/lib/libsdk.a(epit.o)
                                0xf06 (size before relaxing)
 .debug_str     0x0001502c      0x1b0 /home/leon/git/swp-report/iMX6_Platform_SDK/output/mx6sdl/lib/libsdk.a(mx6x_usb.o)
                                0x3df (size before relaxing)
 .debug_str     0x000151dc       0xbc /home/leon/git/swp-report/iMX6_Platform_SDK/output/mx6sdl/lib/libsdk.a(abort_handler.o)
                                0x1a1 (size before relaxing)
 .debug_str     0x00015298      0x1c1 /home/leon/git/swp-report/iMX6_Platform_SDK/output/mx6sdl/lib/libboard_evb_rev_a.a(board_audio.o)
                                0x33d (size before relaxing)
 .debug_str     0x00015459      0x2bc /home/leon/git/swp-report/iMX6_Platform_SDK/output/mx6sdl/lib/libboard_evb_rev_a.a(board_buttons.o)
                                0x41c (size before relaxing)
 .debug_str     0x00015715      0xef8 /home/leon/git/swp-report/iMX6_Platform_SDK/output/mx6sdl/lib/libboard_evb_rev_a.a(board_camera.o)
                               0x1166 (size before relaxing)
 .debug_str     0x0001660d      0x132 /home/leon/git/swp-report/iMX6_Platform_SDK/output/mx6sdl/lib/libboard_evb_rev_a.a(board_display.o)
                                0x51a (size before relaxing)
 .debug_str     0x0001673f      0x5ff /home/leon/git/swp-report/iMX6_Platform_SDK/output/mx6sdl/lib/libboard_evb_rev_a.a(board_hdmi.o)
                                0x8bf (size before relaxing)
 .debug_str     0x00016d3e       0x45 /home/leon/git/swp-report/iMX6_Platform_SDK/output/mx6sdl/lib/libboard_evb_rev_a.a(board_i2c.o)
                                0x28a (size before relaxing)
 .debug_str     0x00016d83       0x82 /home/leon/git/swp-report/iMX6_Platform_SDK/output/mx6sdl/lib/libboard_evb_rev_a.a(board_io_expanders.o)
                                0x240 (size before relaxing)
 .debug_str     0x00016e05      0x17c /home/leon/git/swp-report/iMX6_Platform_SDK/output/mx6sdl/lib/libboard_evb_rev_a.a(board_mipi.o)
                                0x56a (size before relaxing)
 .debug_str     0x00016f81       0xa1 /home/leon/git/swp-report/iMX6_Platform_SDK/output/mx6sdl/lib/libboard_evb_rev_a.a(board_network.o)
                                0x17e (size before relaxing)
 .debug_str     0x00017022       0x70 /home/leon/git/swp-report/iMX6_Platform_SDK/output/mx6sdl/lib/libboard_evb_rev_a.a(board_usb.o)
                                0x231 (size before relaxing)
 .debug_str     0x00017092       0x83 /home/leon/git/swp-report/iMX6_Platform_SDK/output/mx6sdl/lib/libboard_evb_rev_a.a(board_usdhc.o)
                                0x23b (size before relaxing)
 .debug_str     0x00017115       0x4c /home/leon/git/swp-report/iMX6_Platform_SDK/output/mx6sdl/lib/libboard_evb_rev_a.a(hardware_modules.o)
                                0x152 (size before relaxing)
 .debug_str     0x00017161       0xaa /home/leon/git/swp-report/iMX6_Platform_SDK/output/mx6sdl/lib/libboard_evb_rev_a.a(dcd.o)
                                0x159 (size before relaxing)
 .debug_str     0x0001720b       0xae /home/leon/git/swp-report/iMX6_Platform_SDK/output/mx6sdl/lib/libboard_evb_rev_a.a(ecspi_iomux_config.o)
                                0x164 (size before relaxing)
 .debug_str     0x000172b9     0x1356 /home/leon/git/swp-report/iMX6_Platform_SDK/output/mx6sdl/lib/libboard_evb_rev_a.a(enet_iomux_config.o)
                               0x13e3 (size before relaxing)
 .debug_str     0x0001860f     0x10d9 /home/leon/git/swp-report/iMX6_Platform_SDK/output/mx6sdl/lib/libboard_evb_rev_a.a(esai_iomux_config.o)
                               0x125c (size before relaxing)
 .debug_str     0x000196e8       0x67 /home/leon/git/swp-report/iMX6_Platform_SDK/output/mx6sdl/lib/libboard_evb_rev_a.a(i2c_iomux_config.o)
                                0x160 (size before relaxing)
 .debug_str     0x0001974f      0x2e5 /home/leon/git/swp-report/iMX6_Platform_SDK/output/mx6sdl/lib/libboard_evb_rev_a.a(iomux_config.o)
                                0x30f (size before relaxing)
 .debug_str     0x00019a34     0x1e83 /home/leon/git/swp-report/iMX6_Platform_SDK/output/mx6sdl/lib/libboard_evb_rev_a.a(ipu1_iomux_config.o)
                               0x2a44 (size before relaxing)
 .debug_str     0x0001b8b7       0x67 /home/leon/git/swp-report/iMX6_Platform_SDK/output/mx6sdl/lib/libboard_evb_rev_a.a(ipu_iomux_config.o)
                                0x160 (size before relaxing)
 .debug_str     0x0001b91e      0x78f /home/leon/git/swp-report/iMX6_Platform_SDK/output/mx6sdl/lib/libboard_evb_rev_a.a(kpp_iomux_config.o)
                                0x8fa (size before relaxing)
 .debug_str     0x0001c0ad      0x47e /home/leon/git/swp-report/iMX6_Platform_SDK/output/mx6sdl/lib/libboard_evb_rev_a.a(mlb_iomux_config.o)
                                0x501 (size before relaxing)
 .debug_str     0x0001c52b     0x1dd5 /home/leon/git/swp-report/iMX6_Platform_SDK/output/mx6sdl/lib/libboard_evb_rev_a.a(mmdc_iomux_config.o)
                               0x1e52 (size before relaxing)
 .debug_str     0x0001e300      0x145 /home/leon/git/swp-report/iMX6_Platform_SDK/output/mx6sdl/lib/libboard_evb_rev_a.a(pwm1_iomux_config.o)
                                0x1c2 (size before relaxing)
 .debug_str     0x0001e445      0x325 /home/leon/git/swp-report/iMX6_Platform_SDK/output/mx6sdl/lib/libboard_evb_rev_a.a(sjc_iomux_config.o)
                                0x394 (size before relaxing)
 .debug_str     0x0001e76a      0x247 /home/leon/git/swp-report/iMX6_Platform_SDK/output/mx6sdl/lib/libboard_evb_rev_a.a(spdif_iomux_config.o)
                                0x736 (size before relaxing)
 .debug_str     0x0001e9b1      0x54d /home/leon/git/swp-report/iMX6_Platform_SDK/output/mx6sdl/lib/libboard_evb_rev_a.a(uart2_iomux_config.o)
                                0x5d0 (size before relaxing)
 .debug_str     0x0001eefe      0x2c7 /home/leon/git/swp-report/iMX6_Platform_SDK/output/mx6sdl/lib/libboard_evb_rev_a.a(uart4_iomux_config.o)
                                0x34a (size before relaxing)
 .debug_str     0x0001f1c5       0x69 /home/leon/git/swp-report/iMX6_Platform_SDK/output/mx6sdl/lib/libboard_evb_rev_a.a(uart_iomux_config.o)
                                0x162 (size before relaxing)
 .debug_str     0x0001f22e      0x428 /home/leon/git/swp-report/iMX6_Platform_SDK/output/mx6sdl/lib/libboard_evb_rev_a.a(usb_iomux_config.o)
                                0x4ab (size before relaxing)
 .debug_str     0x0001f656      0x881 /home/leon/git/swp-report/iMX6_Platform_SDK/output/mx6sdl/lib/libboard_evb_rev_a.a(usdhc1_iomux_config.o)
                                0xae0 (size before relaxing)
 .debug_str     0x0001fed7      0x5bd /home/leon/git/swp-report/iMX6_Platform_SDK/output/mx6sdl/lib/libboard_evb_rev_a.a(usdhc2_iomux_config.o)
                                0xbbc (size before relaxing)
 .debug_str     0x00020494      0xbf7 /home/leon/git/swp-report/iMX6_Platform_SDK/output/mx6sdl/lib/libboard_evb_rev_a.a(usdhc3_iomux_config.o)
                                0xc7a (size before relaxing)
 .debug_str     0x0002108b      0x93f /home/leon/git/swp-report/iMX6_Platform_SDK/output/mx6sdl/lib/libboard_evb_rev_a.a(usdhc4_iomux_config.o)
                                0xab0 (size before relaxing)
 .debug_str     0x000219ca       0x6b /home/leon/git/swp-report/iMX6_Platform_SDK/output/mx6sdl/lib/libboard_evb_rev_a.a(usdhc_iomux_config.o)
                                0x164 (size before relaxing)
 .debug_str     0x00021a35       0x67 /home/leon/git/swp-report/iMX6_Platform_SDK/output/mx6sdl/lib/libboard_evb_rev_a.a(ccm_iomux_config.o)
                                0x1c0 (size before relaxing)
 .debug_str     0x00021a9c      0x781 /home/leon/git/swp-report/iMX6_Platform_SDK/output/mx6sdl/lib/libboard_evb_rev_a.a(ecspi1_iomux_config.o)
                                0x804 (size before relaxing)
 .debug_str     0x0002221d      0x2ac /home/leon/git/swp-report/iMX6_Platform_SDK/output/mx6sdl/lib/libboard_evb_rev_a.a(flexcan1_iomux_config.o)
                                0x32f (size before relaxing)
 .debug_str     0x000224c9      0x2b8 /home/leon/git/swp-report/iMX6_Platform_SDK/output/mx6sdl/lib/libboard_evb_rev_a.a(flexcan2_iomux_config.o)
                                0x33b (size before relaxing)
 .debug_str     0x00022781      0x1d9 /home/leon/git/swp-report/iMX6_Platform_SDK/output/mx6sdl/lib/libboard_evb_rev_a.a(gpio3_iomux_config.o)
                                0x2d0 (size before relaxing)
 .debug_str     0x0002295a      0x22f /home/leon/git/swp-report/iMX6_Platform_SDK/output/mx6sdl/lib/libboard_evb_rev_a.a(gpio4_iomux_config.o)
                                0x2ac (size before relaxing)
 .debug_str     0x00022b89      0x453 /home/leon/git/swp-report/iMX6_Platform_SDK/output/mx6sdl/lib/libboard_evb_rev_a.a(gpio5_iomux_config.o)
                                0x4d0 (size before relaxing)
 .debug_str     0x00022fdc      0x253 /home/leon/git/swp-report/iMX6_Platform_SDK/output/mx6sdl/lib/libboard_evb_rev_a.a(gpio6_iomux_config.o)
                                0x2d0 (size before relaxing)
 .debug_str     0x0002322f      0x41b /home/leon/git/swp-report/iMX6_Platform_SDK/output/mx6sdl/lib/libboard_evb_rev_a.a(gpmi_iomux_config.o)
                               0x12ea (size before relaxing)
 .debug_str     0x0002364a       0x69 /home/leon/git/swp-report/iMX6_Platform_SDK/output/mx6sdl/lib/libboard_evb_rev_a.a(hdmi_iomux_config.o)
                                0x257 (size before relaxing)
 .debug_str     0x000236b3      0x34b /home/leon/git/swp-report/iMX6_Platform_SDK/output/mx6sdl/lib/libboard_evb_rev_a.a(i2c1_iomux_config.o)
                                0x3ce (size before relaxing)
 .debug_str     0x000239fe      0x157 /home/leon/git/swp-report/iMX6_Platform_SDK/output/mx6sdl/lib/libboard_evb_rev_a.a(i2c2_iomux_config.o)
                                0x3aa (size before relaxing)
 .debug_str     0x00023b55      0x30f /home/leon/git/swp-report/iMX6_Platform_SDK/output/mx6sdl/lib/libboard_evb_rev_a.a(i2c3_iomux_config.o)
                                0x392 (size before relaxing)
 .debug_str     0x00023e64      0x20a /home/leon/git/swp-report/iMX6_Platform_SDK/output/mx6sdl/lib/libsdk.a(runtime_support.o)
                                0x3ac (size before relaxing)

.debug_loc      0x00000000     0x97f0
 .debug_loc     0x00000000       0x2c /home/leon/git/swp-report/iMX6_Platform_SDK/output/mx6sdl/obds/evb_rev_a/obj/apps/common/platform_init.o
 .debug_loc     0x0000002c       0x58 /home/leon/git/swp-report/iMX6_Platform_SDK/output/mx6sdl/obds/evb_rev_a/obj/apps/common/print_clock_info.o
 .debug_loc     0x00000084       0x2c /home/leon/git/swp-report/iMX6_Platform_SDK/output/mx6sdl/obds/evb_rev_a/obj/apps/common/print_version.o
 .debug_loc     0x000000b0      0x210 /home/leon/git/swp-report/iMX6_Platform_SDK/output/mx6sdl/obds/evb_rev_a/obj/apps/obds/src/obds.o
 .debug_loc     0x000002c0       0x2c /home/leon/git/swp-report/iMX6_Platform_SDK/output/mx6sdl/obds/evb_rev_a/obj/apps/obds/src/obds_utils.o
 .debug_loc     0x000002ec       0xb0 /home/leon/git/swp-report/iMX6_Platform_SDK/output/mx6sdl/obds/evb_rev_a/obj/apps/obds/src/tests/android_buttons_test.o
 .debug_loc     0x0000039c       0x2c /home/leon/git/swp-report/iMX6_Platform_SDK/output/mx6sdl/obds/evb_rev_a/obj/apps/obds/src/tests/audio_esai_test.o
 .debug_loc     0x000003c8       0x58 /home/leon/git/swp-report/iMX6_Platform_SDK/output/mx6sdl/obds/evb_rev_a/obj/apps/obds/src/tests/audio_ssi_test.o
 .debug_loc     0x00000420       0x58 /home/leon/git/swp-report/iMX6_Platform_SDK/output/mx6sdl/obds/evb_rev_a/obj/apps/obds/src/tests/ddr_test.o
 .debug_loc     0x00000478       0xb0 /home/leon/git/swp-report/iMX6_Platform_SDK/output/mx6sdl/obds/evb_rev_a/obj/apps/obds/src/tests/deserializer_ds90ur124.o
 .debug_loc     0x00000528       0xb0 /home/leon/git/swp-report/iMX6_Platform_SDK/output/mx6sdl/obds/evb_rev_a/obj/apps/obds/src/tests/display_test.o
 .debug_loc     0x000005d8      0x108 /home/leon/git/swp-report/iMX6_Platform_SDK/output/mx6sdl/obds/evb_rev_a/obj/apps/obds/src/tests/enet_mx6dldq_test.o
 .debug_loc     0x000006e0       0x2c /home/leon/git/swp-report/iMX6_Platform_SDK/output/mx6sdl/obds/evb_rev_a/obj/apps/obds/src/tests/flexcan_test.o
 .debug_loc     0x0000070c       0x84 /home/leon/git/swp-report/iMX6_Platform_SDK/output/mx6sdl/obds/evb_rev_a/obj/apps/obds/src/tests/fm_tuner_si476x_test.o
 .debug_loc     0x00000790       0x2c /home/leon/git/swp-report/iMX6_Platform_SDK/output/mx6sdl/obds/evb_rev_a/obj/apps/obds/src/tests/gpio_led.o
 .debug_loc     0x000007bc       0x2c /home/leon/git/swp-report/iMX6_Platform_SDK/output/mx6sdl/obds/evb_rev_a/obj/apps/obds/src/tests/gps_test.o
 .debug_loc     0x000007e8      0x108 /home/leon/git/swp-report/iMX6_Platform_SDK/output/mx6sdl/obds/evb_rev_a/obj/apps/obds/src/tests/i2c_check_light_sensor_isl29023.o
 .debug_loc     0x000008f0       0xb0 /home/leon/git/swp-report/iMX6_Platform_SDK/output/mx6sdl/obds/evb_rev_a/obj/apps/obds/src/tests/i2c_device_barometer_ppl3115.o
 .debug_loc     0x000009a0       0x2c /home/leon/git/swp-report/iMX6_Platform_SDK/output/mx6sdl/obds/evb_rev_a/obj/apps/obds/src/tests/i2c_device_check_cs42888.o
 .debug_loc     0x000009cc       0x58 /home/leon/git/swp-report/iMX6_Platform_SDK/output/mx6sdl/obds/evb_rev_a/obj/apps/obds/src/tests/i2c_device_digital_compass_mag3110.o
 .debug_loc     0x00000a24       0x58 /home/leon/git/swp-report/iMX6_Platform_SDK/output/mx6sdl/obds/evb_rev_a/obj/apps/obds/src/tests/i2c_device_digital_compass_mag3112.o
 .debug_loc     0x00000a7c      0x108 /home/leon/git/swp-report/iMX6_Platform_SDK/output/mx6sdl/obds/evb_rev_a/obj/apps/obds/src/tests/i2c_device_id_check_mma8450.o
 .debug_loc     0x00000b84      0x108 /home/leon/git/swp-report/iMX6_Platform_SDK/output/mx6sdl/obds/evb_rev_a/obj/apps/obds/src/tests/i2c_device_id_check_mma8451.o
 .debug_loc     0x00000c8c       0xdc /home/leon/git/swp-report/iMX6_Platform_SDK/output/mx6sdl/obds/evb_rev_a/obj/apps/obds/src/tests/i2c_device_id_check_p1003_tsc.o
 .debug_loc     0x00000d68      0x134 /home/leon/git/swp-report/iMX6_Platform_SDK/output/mx6sdl/obds/evb_rev_a/obj/apps/obds/src/tests/i2c_device_temp_sensor_emc1046.o
 .debug_loc     0x00000e9c       0xb0 /home/leon/git/swp-report/iMX6_Platform_SDK/output/mx6sdl/obds/evb_rev_a/obj/apps/obds/src/tests/i2c_device_zigbee_mc1323.o
 .debug_loc     0x00000f4c       0x84 /home/leon/git/swp-report/iMX6_Platform_SDK/output/mx6sdl/obds/evb_rev_a/obj/apps/obds/src/tests/i2c_eeprom_at24cxx_test.o
 .debug_loc     0x00000fd0       0xdc /home/leon/git/swp-report/iMX6_Platform_SDK/output/mx6sdl/obds/evb_rev_a/obj/apps/obds/src/tests/imx_spi_nor_test.o
 .debug_loc     0x000010ac       0xdc /home/leon/git/swp-report/iMX6_Platform_SDK/output/mx6sdl/obds/evb_rev_a/obj/apps/obds/src/tests/mlb_os81050.o
 .debug_loc     0x00001188       0x2c /home/leon/git/swp-report/iMX6_Platform_SDK/output/mx6sdl/obds/evb_rev_a/obj/apps/obds/src/tests/mmcsd_test.o
 .debug_loc     0x000011b4       0xb0 /home/leon/git/swp-report/iMX6_Platform_SDK/output/mx6sdl/obds/evb_rev_a/obj/apps/obds/src/tests/pmic_da9053.o
 .debug_loc     0x00001264      0x160 /home/leon/git/swp-report/iMX6_Platform_SDK/output/mx6sdl/obds/evb_rev_a/obj/apps/obds/src/tests/pmic_lt3589.o
 .debug_loc     0x000013c4       0xb0 /home/leon/git/swp-report/iMX6_Platform_SDK/output/mx6sdl/obds/evb_rev_a/obj/apps/obds/src/tests/pmic_max17135.o
 .debug_loc     0x00001474      0x108 /home/leon/git/swp-report/iMX6_Platform_SDK/output/mx6sdl/obds/evb_rev_a/obj/apps/obds/src/tests/pmic_mc13892.o
 .debug_loc     0x0000157c       0x84 /home/leon/git/swp-report/iMX6_Platform_SDK/output/mx6sdl/obds/evb_rev_a/obj/apps/obds/src/tests/program_board_id.o
 .debug_loc     0x00001600       0xdc /home/leon/git/swp-report/iMX6_Platform_SDK/output/mx6sdl/obds/evb_rev_a/obj/apps/obds/src/tests/program_mac_address.o
 .debug_loc     0x000016dc       0x2c /home/leon/git/swp-report/iMX6_Platform_SDK/output/mx6sdl/obds/evb_rev_a/obj/apps/obds/src/tests/snvs_srtc_test.o
 .debug_loc     0x00001708      0x134 /home/leon/git/swp-report/iMX6_Platform_SDK/output/mx6sdl/obds/evb_rev_a/obj/apps/obds/src/tests/touch_screen.o
 .debug_loc     0x0000183c      0x18c /home/leon/git/swp-report/iMX6_Platform_SDK/output/mx6sdl/obds/evb_rev_a/obj/apps/obds/src/tests/touch_screen_max11801.o
 .debug_loc     0x000019c8       0x84 /home/leon/git/swp-report/iMX6_Platform_SDK/output/mx6sdl/obds/evb_rev_a/obj/apps/obds/src/tests/usb_tests_obds.o
 .debug_loc     0x00001a4c       0x2c /home/leon/git/swp-report/iMX6_Platform_SDK/output/mx6sdl/obds/evb_rev_a/obj/apps/obds/src/tests/video_dec_ARD_MB_reset_button.o
 .debug_loc     0x00001a78       0x2c /home/leon/git/swp-report/iMX6_Platform_SDK/output/mx6sdl/obds/evb_rev_a/obj/apps/obds/src/tests/video_dec_ARD_MBrst_from_cpu_expander.o
 .debug_loc     0x00001aa4      0x134 /home/leon/git/swp-report/iMX6_Platform_SDK/output/mx6sdl/obds/evb_rev_a/obj/apps/obds/src/tests/video_dec_adv7180.o
 .debug_loc     0x00001bd8       0xb0 /home/leon/git/swp-report/iMX6_Platform_SDK/output/mx6sdl/obds/evb_rev_a/obj/apps/obds/src/tests/weim_nor_flash_test.o
 .debug_loc     0x00001c88       0x2c /home/leon/git/swp-report/iMX6_Platform_SDK/output/mx6sdl/obds/evb_rev_a/obj/sdk/common/ioexpander/test/max7310_test.o
 .debug_loc     0x00001cb4      0x18c /home/leon/git/swp-report/iMX6_Platform_SDK/output/mx6sdl/obds/evb_rev_a/obj/sdk/common/pmic/pfuse/pf0100.o
 .debug_loc     0x00001e40      0x108 /home/leon/git/swp-report/iMX6_Platform_SDK/output/mx6sdl/obds/evb_rev_a/obj/sdk/drivers/audio/src/snd_card.o
 .debug_loc     0x00001f48       0x2c /home/leon/git/swp-report/iMX6_Platform_SDK/output/mx6sdl/obds/evb_rev_a/obj/sdk/drivers/camera/test/adv7180_capture.o
 .debug_loc     0x00001f74       0x2c /home/leon/git/swp-report/iMX6_Platform_SDK/output/mx6sdl/obds/evb_rev_a/obj/sdk/drivers/camera/test/camera_test.o
 .debug_loc     0x00001fa0       0x2c /home/leon/git/swp-report/iMX6_Platform_SDK/output/mx6sdl/obds/evb_rev_a/obj/sdk/drivers/camera/test/csi_test_mode.o
 .debug_loc     0x00001fcc       0x2c /home/leon/git/swp-report/iMX6_Platform_SDK/output/mx6sdl/obds/evb_rev_a/obj/sdk/drivers/camera/test/sensor_capture.o
 .debug_loc     0x00001ff8      0x108 /home/leon/git/swp-report/iMX6_Platform_SDK/output/mx6sdl/obds/evb_rev_a/obj/sdk/drivers/epdc/test/epdc_test.o
 .debug_loc     0x00002100       0xdc /home/leon/git/swp-report/iMX6_Platform_SDK/output/mx6sdl/obds/evb_rev_a/obj/sdk/drivers/hdmi/test/hdmi_test.o
 .debug_loc     0x000021dc       0x2c /home/leon/git/swp-report/iMX6_Platform_SDK/output/mx6sdl/obds/evb_rev_a/obj/sdk/drivers/hdmi/test/init_dma_data.o
 .debug_loc     0x00002208      0x134 /home/leon/git/swp-report/iMX6_Platform_SDK/output/mx6sdl/obds/evb_rev_a/obj/sdk/drivers/ipu/test/ips_display.o
 .debug_loc     0x0000233c       0xdc /home/leon/git/swp-report/iMX6_Platform_SDK/output/mx6sdl/obds/evb_rev_a/obj/sdk/drivers/ipu/test/ipu_image.o
 .debug_loc     0x00002418      0x134 /home/leon/git/swp-report/iMX6_Platform_SDK/output/mx6sdl/obds/evb_rev_a/obj/sdk/drivers/spi/test/imx_spi_nor_atmel.o
 .debug_loc     0x0000254c      0x160 /home/leon/git/swp-report/iMX6_Platform_SDK/output/mx6sdl/obds/evb_rev_a/obj/sdk/drivers/spi/test/spi_nor_numonyx.o
 .debug_loc     0x000026ac       0x58 /home/leon/git/swp-report/iMX6_Platform_SDK/output/mx6sdl/obds/evb_rev_a/obj/sdk/drivers/uart/test/uart_test.o
 .debug_loc     0x00002704      0x160 /home/leon/git/swp-report/iMX6_Platform_SDK/output/mx6sdl/obds/evb_rev_a/obj/sdk/drivers/usb/test/usb0_host_test.o
 .debug_loc     0x00002864       0x2c /home/leon/git/swp-report/iMX6_Platform_SDK/output/mx6sdl/obds/evb_rev_a/obj/sdk/drivers/usb/test/usb0_host_testmodes_test.o
 .debug_loc     0x00002890      0x1e4 /home/leon/git/swp-report/iMX6_Platform_SDK/output/mx6sdl/obds/evb_rev_a/obj/sdk/drivers/usdhc/test/usdhc_test.o
 .debug_loc     0x00002a74       0xb0 /home/leon/git/swp-report/iMX6_Platform_SDK/output/mx6sdl/lib/libsdk.a(max7310.o)
 .debug_loc     0x00002b24      0x18c /home/leon/git/swp-report/iMX6_Platform_SDK/output/mx6sdl/lib/libsdk.a(ccm_pll.o)
 .debug_loc     0x00002cb0      0x2ec /home/leon/git/swp-report/iMX6_Platform_SDK/output/mx6sdl/lib/libsdk.a(gic.o)
 .debug_loc     0x00002f9c       0xdc /home/leon/git/swp-report/iMX6_Platform_SDK/output/mx6sdl/lib/libsdk.a(interrupt.o)
 .debug_loc     0x00003078       0xdc /home/leon/git/swp-report/iMX6_Platform_SDK/output/mx6sdl/lib/libsdk.a(mmu.o)
 .debug_loc     0x00003154      0x1e4 /home/leon/git/swp-report/iMX6_Platform_SDK/output/mx6sdl/lib/libsdk.a(menu.o)
 .debug_loc     0x00003338      0x108 /home/leon/git/swp-report/iMX6_Platform_SDK/output/mx6sdl/lib/libsdk.a(system_util.o)
 .debug_loc     0x00003440       0x58 /home/leon/git/swp-report/iMX6_Platform_SDK/output/mx6sdl/lib/libsdk.a(text_color.o)
 .debug_loc     0x00003498      0x134 /home/leon/git/swp-report/iMX6_Platform_SDK/output/mx6sdl/lib/libsdk.a(cs42888.o)
 .debug_loc     0x000035cc      0x1e4 /home/leon/git/swp-report/iMX6_Platform_SDK/output/mx6sdl/lib/libsdk.a(imx-ssi.o)
 .debug_loc     0x000037b0      0x210 /home/leon/git/swp-report/iMX6_Platform_SDK/output/mx6sdl/lib/libsdk.a(imx_esai.o)
 .debug_loc     0x000039c0      0x160 /home/leon/git/swp-report/iMX6_Platform_SDK/output/mx6sdl/lib/libsdk.a(imx_spdif.o)
 .debug_loc     0x00003b20      0x23c /home/leon/git/swp-report/iMX6_Platform_SDK/output/mx6sdl/lib/libsdk.a(sgtl5000.o)
 .debug_loc     0x00003d5c      0x18c /home/leon/git/swp-report/iMX6_Platform_SDK/output/mx6sdl/lib/libsdk.a(wm8958_dac.o)
 .debug_loc     0x00003ee8      0x1b8 /home/leon/git/swp-report/iMX6_Platform_SDK/output/mx6sdl/lib/libsdk.a(wm8962.o)
 .debug_loc     0x000040a0      0x134 /home/leon/git/swp-report/iMX6_Platform_SDK/output/mx6sdl/lib/libsdk.a(board_id.o)
 .debug_loc     0x000041d4      0x1b8 /home/leon/git/swp-report/iMX6_Platform_SDK/output/mx6sdl/lib/libsdk.a(smd_sensor.o)
 .debug_loc     0x0000438c      0x344 /home/leon/git/swp-report/iMX6_Platform_SDK/output/mx6sdl/lib/libsdk.a(enet_drv.o)
 .debug_loc     0x000046d0      0x4d0 /home/leon/git/swp-report/iMX6_Platform_SDK/output/mx6sdl/lib/libsdk.a(mxc_epdc.o)
 .debug_loc     0x00004ba0      0x1e4 /home/leon/git/swp-report/iMX6_Platform_SDK/output/mx6sdl/lib/libsdk.a(gpio.o)
 .debug_loc     0x00004d84      0x1b8 /home/leon/git/swp-report/iMX6_Platform_SDK/output/mx6sdl/lib/libsdk.a(hdmi_tx.o)
 .debug_loc     0x00004f3c      0x39c /home/leon/git/swp-report/iMX6_Platform_SDK/output/mx6sdl/lib/libsdk.a(hdmi_tx_audio.o)
 .debug_loc     0x000052d8      0x39c /home/leon/git/swp-report/iMX6_Platform_SDK/output/mx6sdl/lib/libsdk.a(hdmi_tx_phy.o)
 .debug_loc     0x00005674      0x268 /home/leon/git/swp-report/iMX6_Platform_SDK/output/mx6sdl/lib/libsdk.a(imx_i2c.o)
 .debug_loc     0x000058dc      0x2ec /home/leon/git/swp-report/iMX6_Platform_SDK/output/mx6sdl/lib/libsdk.a(ips_disp_panel.o)
 .debug_loc     0x00005bc8      0x268 /home/leon/git/swp-report/iMX6_Platform_SDK/output/mx6sdl/lib/libsdk.a(ipu_common.o)
 .debug_loc     0x00005e30      0x108 /home/leon/git/swp-report/iMX6_Platform_SDK/output/mx6sdl/lib/libsdk.a(ipu_csi.o)
 .debug_loc     0x00005f38      0x108 /home/leon/git/swp-report/iMX6_Platform_SDK/output/mx6sdl/lib/libsdk.a(ipu_dc.o)
 .debug_loc     0x00006040      0x134 /home/leon/git/swp-report/iMX6_Platform_SDK/output/mx6sdl/lib/libsdk.a(ipu_di.o)
 .debug_loc     0x00006174       0x58 /home/leon/git/swp-report/iMX6_Platform_SDK/output/mx6sdl/lib/libsdk.a(ipu_dmfc.o)
 .debug_loc     0x000061cc       0x84 /home/leon/git/swp-report/iMX6_Platform_SDK/output/mx6sdl/lib/libsdk.a(ipu_dp.o)
 .debug_loc     0x00006250      0x2ec /home/leon/git/swp-report/iMX6_Platform_SDK/output/mx6sdl/lib/libsdk.a(ipu_idmac.o)
 .debug_loc     0x0000653c      0x160 /home/leon/git/swp-report/iMX6_Platform_SDK/output/mx6sdl/lib/libsdk.a(ipu_vdi.o)
 .debug_loc     0x0000669c       0x84 /home/leon/git/swp-report/iMX6_Platform_SDK/output/mx6sdl/lib/libsdk.a(ldb.o)
 .debug_loc     0x00006720      0x134 /home/leon/git/swp-report/iMX6_Platform_SDK/output/mx6sdl/lib/libsdk.a(ocotp.o)
 .debug_loc     0x00006854      0x134 /home/leon/git/swp-report/iMX6_Platform_SDK/output/mx6sdl/lib/libsdk.a(ecspi.o)
 .debug_loc     0x00006988       0xb0 /home/leon/git/swp-report/iMX6_Platform_SDK/output/mx6sdl/lib/libsdk.a(timer.o)
 .debug_loc     0x00006a38      0x134 /home/leon/git/swp-report/iMX6_Platform_SDK/output/mx6sdl/lib/libsdk.a(imx_uart.o)
 .debug_loc     0x00006b6c       0x84 /home/leon/git/swp-report/iMX6_Platform_SDK/output/mx6sdl/lib/libsdk.a(usb_common.o)
 .debug_loc     0x00006bf0      0x160 /home/leon/git/swp-report/iMX6_Platform_SDK/output/mx6sdl/lib/libsdk.a(usbh_drv.o)
 .debug_loc     0x00006d50      0x318 /home/leon/git/swp-report/iMX6_Platform_SDK/output/mx6sdl/lib/libsdk.a(usdhc.o)
 .debug_loc     0x00007068      0x44c /home/leon/git/swp-report/iMX6_Platform_SDK/output/mx6sdl/lib/libsdk.a(usdhc_host.o)
 .debug_loc     0x000074b4      0x23c /home/leon/git/swp-report/iMX6_Platform_SDK/output/mx6sdl/lib/libsdk.a(usdhc_mmc.o)
 .debug_loc     0x000076f0       0xb0 /home/leon/git/swp-report/iMX6_Platform_SDK/output/mx6sdl/lib/libsdk.a(usdhc_sd.o)
 .debug_loc     0x000077a0      0x1e4 /home/leon/git/swp-report/iMX6_Platform_SDK/output/mx6sdl/lib/libsdk.a(adv7180.o)
 .debug_loc     0x00007984      0x2c0 /home/leon/git/swp-report/iMX6_Platform_SDK/output/mx6sdl/lib/libsdk.a(armv7_cache.o)
 .debug_loc     0x00007c44       0xdc /home/leon/git/swp-report/iMX6_Platform_SDK/output/mx6sdl/lib/libsdk.a(hdmi_common.o)
 .debug_loc     0x00007d20      0x18c /home/leon/git/swp-report/iMX6_Platform_SDK/output/mx6sdl/lib/libsdk.a(ipu_ic.o)
 .debug_loc     0x00007eac      0x160 /home/leon/git/swp-report/iMX6_Platform_SDK/output/mx6sdl/lib/libsdk.a(epit.o)
 .debug_loc     0x0000800c       0x58 /home/leon/git/swp-report/iMX6_Platform_SDK/output/mx6sdl/lib/libsdk.a(mx6x_usb.o)
 .debug_loc     0x00008064       0x2c /home/leon/git/swp-report/iMX6_Platform_SDK/output/mx6sdl/lib/libsdk.a(abort_handler.o)
 .debug_loc     0x00008090      0x134 /home/leon/git/swp-report/iMX6_Platform_SDK/output/mx6sdl/lib/libboard_evb_rev_a.a(board_audio.o)
 .debug_loc     0x000081c4       0x2c /home/leon/git/swp-report/iMX6_Platform_SDK/output/mx6sdl/lib/libboard_evb_rev_a.a(board_buttons.o)
 .debug_loc     0x000081f0      0x108 /home/leon/git/swp-report/iMX6_Platform_SDK/output/mx6sdl/lib/libboard_evb_rev_a.a(board_camera.o)
 .debug_loc     0x000082f8      0x134 /home/leon/git/swp-report/iMX6_Platform_SDK/output/mx6sdl/lib/libboard_evb_rev_a.a(board_display.o)
 .debug_loc     0x0000842c      0x108 /home/leon/git/swp-report/iMX6_Platform_SDK/output/mx6sdl/lib/libboard_evb_rev_a.a(board_hdmi.o)
 .debug_loc     0x00008534       0x58 /home/leon/git/swp-report/iMX6_Platform_SDK/output/mx6sdl/lib/libboard_evb_rev_a.a(board_io_expanders.o)
 .debug_loc     0x0000858c       0xdc /home/leon/git/swp-report/iMX6_Platform_SDK/output/mx6sdl/lib/libboard_evb_rev_a.a(board_mipi.o)
 .debug_loc     0x00008668       0xdc /home/leon/git/swp-report/iMX6_Platform_SDK/output/mx6sdl/lib/libboard_evb_rev_a.a(board_network.o)
 .debug_loc     0x00008744       0x84 /home/leon/git/swp-report/iMX6_Platform_SDK/output/mx6sdl/lib/libboard_evb_rev_a.a(board_usb.o)
 .debug_loc     0x000087c8       0x84 /home/leon/git/swp-report/iMX6_Platform_SDK/output/mx6sdl/lib/libboard_evb_rev_a.a(board_usdhc.o)
 .debug_loc     0x0000884c       0x2c /home/leon/git/swp-report/iMX6_Platform_SDK/output/mx6sdl/lib/libboard_evb_rev_a.a(ecspi_iomux_config.o)
 .debug_loc     0x00008878       0x2c /home/leon/git/swp-report/iMX6_Platform_SDK/output/mx6sdl/lib/libboard_evb_rev_a.a(enet_iomux_config.o)
 .debug_loc     0x000088a4       0x2c /home/leon/git/swp-report/iMX6_Platform_SDK/output/mx6sdl/lib/libboard_evb_rev_a.a(esai_iomux_config.o)
 .debug_loc     0x000088d0       0x2c /home/leon/git/swp-report/iMX6_Platform_SDK/output/mx6sdl/lib/libboard_evb_rev_a.a(i2c_iomux_config.o)
 .debug_loc     0x000088fc      0x65c /home/leon/git/swp-report/iMX6_Platform_SDK/output/mx6sdl/lib/libboard_evb_rev_a.a(iomux_config.o)
 .debug_loc     0x00008f58       0x2c /home/leon/git/swp-report/iMX6_Platform_SDK/output/mx6sdl/lib/libboard_evb_rev_a.a(ipu1_iomux_config.o)
 .debug_loc     0x00008f84       0x2c /home/leon/git/swp-report/iMX6_Platform_SDK/output/mx6sdl/lib/libboard_evb_rev_a.a(ipu_iomux_config.o)
 .debug_loc     0x00008fb0       0x2c /home/leon/git/swp-report/iMX6_Platform_SDK/output/mx6sdl/lib/libboard_evb_rev_a.a(kpp_iomux_config.o)
 .debug_loc     0x00008fdc       0x2c /home/leon/git/swp-report/iMX6_Platform_SDK/output/mx6sdl/lib/libboard_evb_rev_a.a(mlb_iomux_config.o)
 .debug_loc     0x00009008       0x2c /home/leon/git/swp-report/iMX6_Platform_SDK/output/mx6sdl/lib/libboard_evb_rev_a.a(mmdc_iomux_config.o)
 .debug_loc     0x00009034       0x2c /home/leon/git/swp-report/iMX6_Platform_SDK/output/mx6sdl/lib/libboard_evb_rev_a.a(pwm1_iomux_config.o)
 .debug_loc     0x00009060       0x2c /home/leon/git/swp-report/iMX6_Platform_SDK/output/mx6sdl/lib/libboard_evb_rev_a.a(sjc_iomux_config.o)
 .debug_loc     0x0000908c       0x2c /home/leon/git/swp-report/iMX6_Platform_SDK/output/mx6sdl/lib/libboard_evb_rev_a.a(spdif_iomux_config.o)
 .debug_loc     0x000090b8       0x2c /home/leon/git/swp-report/iMX6_Platform_SDK/output/mx6sdl/lib/libboard_evb_rev_a.a(uart2_iomux_config.o)
 .debug_loc     0x000090e4       0x2c /home/leon/git/swp-report/iMX6_Platform_SDK/output/mx6sdl/lib/libboard_evb_rev_a.a(uart4_iomux_config.o)
 .debug_loc     0x00009110       0x2c /home/leon/git/swp-report/iMX6_Platform_SDK/output/mx6sdl/lib/libboard_evb_rev_a.a(uart_iomux_config.o)
 .debug_loc     0x0000913c       0x2c /home/leon/git/swp-report/iMX6_Platform_SDK/output/mx6sdl/lib/libboard_evb_rev_a.a(usb_iomux_config.o)
 .debug_loc     0x00009168       0x2c /home/leon/git/swp-report/iMX6_Platform_SDK/output/mx6sdl/lib/libboard_evb_rev_a.a(usdhc1_iomux_config.o)
 .debug_loc     0x00009194       0x2c /home/leon/git/swp-report/iMX6_Platform_SDK/output/mx6sdl/lib/libboard_evb_rev_a.a(usdhc2_iomux_config.o)
 .debug_loc     0x000091c0       0x2c /home/leon/git/swp-report/iMX6_Platform_SDK/output/mx6sdl/lib/libboard_evb_rev_a.a(usdhc3_iomux_config.o)
 .debug_loc     0x000091ec       0x2c /home/leon/git/swp-report/iMX6_Platform_SDK/output/mx6sdl/lib/libboard_evb_rev_a.a(usdhc4_iomux_config.o)
 .debug_loc     0x00009218       0x2c /home/leon/git/swp-report/iMX6_Platform_SDK/output/mx6sdl/lib/libboard_evb_rev_a.a(usdhc_iomux_config.o)
 .debug_loc     0x00009244       0x2c /home/leon/git/swp-report/iMX6_Platform_SDK/output/mx6sdl/lib/libboard_evb_rev_a.a(ccm_iomux_config.o)
 .debug_loc     0x00009270       0x2c /home/leon/git/swp-report/iMX6_Platform_SDK/output/mx6sdl/lib/libboard_evb_rev_a.a(ecspi1_iomux_config.o)
 .debug_loc     0x0000929c       0x2c /home/leon/git/swp-report/iMX6_Platform_SDK/output/mx6sdl/lib/libboard_evb_rev_a.a(flexcan1_iomux_config.o)
 .debug_loc     0x000092c8       0x2c /home/leon/git/swp-report/iMX6_Platform_SDK/output/mx6sdl/lib/libboard_evb_rev_a.a(flexcan2_iomux_config.o)
 .debug_loc     0x000092f4       0x2c /home/leon/git/swp-report/iMX6_Platform_SDK/output/mx6sdl/lib/libboard_evb_rev_a.a(gpio3_iomux_config.o)
 .debug_loc     0x00009320       0x2c /home/leon/git/swp-report/iMX6_Platform_SDK/output/mx6sdl/lib/libboard_evb_rev_a.a(gpio4_iomux_config.o)
 .debug_loc     0x0000934c       0x2c /home/leon/git/swp-report/iMX6_Platform_SDK/output/mx6sdl/lib/libboard_evb_rev_a.a(gpio5_iomux_config.o)
 .debug_loc     0x00009378       0x2c /home/leon/git/swp-report/iMX6_Platform_SDK/output/mx6sdl/lib/libboard_evb_rev_a.a(gpio6_iomux_config.o)
 .debug_loc     0x000093a4       0x2c /home/leon/git/swp-report/iMX6_Platform_SDK/output/mx6sdl/lib/libboard_evb_rev_a.a(gpmi_iomux_config.o)
 .debug_loc     0x000093d0       0x2c /home/leon/git/swp-report/iMX6_Platform_SDK/output/mx6sdl/lib/libboard_evb_rev_a.a(hdmi_iomux_config.o)
 .debug_loc     0x000093fc       0x2c /home/leon/git/swp-report/iMX6_Platform_SDK/output/mx6sdl/lib/libboard_evb_rev_a.a(i2c1_iomux_config.o)
 .debug_loc     0x00009428       0x2c /home/leon/git/swp-report/iMX6_Platform_SDK/output/mx6sdl/lib/libboard_evb_rev_a.a(i2c2_iomux_config.o)
 .debug_loc     0x00009454       0x2c /home/leon/git/swp-report/iMX6_Platform_SDK/output/mx6sdl/lib/libboard_evb_rev_a.a(i2c3_iomux_config.o)
 .debug_loc     0x00009480      0x370 /home/leon/git/swp-report/iMX6_Platform_SDK/output/mx6sdl/lib/libsdk.a(runtime_support.o)

.debug_frame    0x00000000     0x8be0
 .debug_frame   0x00000000       0x30 /home/leon/git/swp-report/iMX6_Platform_SDK/output/mx6sdl/obds/evb_rev_a/obj/apps/common/platform_init.o
 .debug_frame   0x00000030       0x50 /home/leon/git/swp-report/iMX6_Platform_SDK/output/mx6sdl/obds/evb_rev_a/obj/apps/common/print_clock_info.o
 .debug_frame   0x00000080       0x30 /home/leon/git/swp-report/iMX6_Platform_SDK/output/mx6sdl/obds/evb_rev_a/obj/apps/common/print_version.o
 .debug_frame   0x000000b0      0x198 /home/leon/git/swp-report/iMX6_Platform_SDK/output/mx6sdl/obds/evb_rev_a/obj/apps/obds/src/obds.o
 .debug_frame   0x00000248       0x30 /home/leon/git/swp-report/iMX6_Platform_SDK/output/mx6sdl/obds/evb_rev_a/obj/apps/obds/src/obds_utils.o
 .debug_frame   0x00000278       0x90 /home/leon/git/swp-report/iMX6_Platform_SDK/output/mx6sdl/obds/evb_rev_a/obj/apps/obds/src/tests/android_buttons_test.o
 .debug_frame   0x00000308       0x30 /home/leon/git/swp-report/iMX6_Platform_SDK/output/mx6sdl/obds/evb_rev_a/obj/apps/obds/src/tests/audio_esai_test.o
 .debug_frame   0x00000338       0x50 /home/leon/git/swp-report/iMX6_Platform_SDK/output/mx6sdl/obds/evb_rev_a/obj/apps/obds/src/tests/audio_ssi_test.o
 .debug_frame   0x00000388       0x50 /home/leon/git/swp-report/iMX6_Platform_SDK/output/mx6sdl/obds/evb_rev_a/obj/apps/obds/src/tests/ddr_test.o
 .debug_frame   0x000003d8       0x90 /home/leon/git/swp-report/iMX6_Platform_SDK/output/mx6sdl/obds/evb_rev_a/obj/apps/obds/src/tests/deserializer_ds90ur124.o
 .debug_frame   0x00000468       0x90 /home/leon/git/swp-report/iMX6_Platform_SDK/output/mx6sdl/obds/evb_rev_a/obj/apps/obds/src/tests/display_test.o
 .debug_frame   0x000004f8       0xd8 /home/leon/git/swp-report/iMX6_Platform_SDK/output/mx6sdl/obds/evb_rev_a/obj/apps/obds/src/tests/enet_mx6dldq_test.o
 .debug_frame   0x000005d0       0x30 /home/leon/git/swp-report/iMX6_Platform_SDK/output/mx6sdl/obds/evb_rev_a/obj/apps/obds/src/tests/flexcan_test.o
 .debug_frame   0x00000600       0x70 /home/leon/git/swp-report/iMX6_Platform_SDK/output/mx6sdl/obds/evb_rev_a/obj/apps/obds/src/tests/fm_tuner_si476x_test.o
 .debug_frame   0x00000670       0x30 /home/leon/git/swp-report/iMX6_Platform_SDK/output/mx6sdl/obds/evb_rev_a/obj/apps/obds/src/tests/gpio_led.o
 .debug_frame   0x000006a0       0x30 /home/leon/git/swp-report/iMX6_Platform_SDK/output/mx6sdl/obds/evb_rev_a/obj/apps/obds/src/tests/gps_test.o
 .debug_frame   0x000006d0       0xd0 /home/leon/git/swp-report/iMX6_Platform_SDK/output/mx6sdl/obds/evb_rev_a/obj/apps/obds/src/tests/i2c_check_light_sensor_isl29023.o
 .debug_frame   0x000007a0       0x90 /home/leon/git/swp-report/iMX6_Platform_SDK/output/mx6sdl/obds/evb_rev_a/obj/apps/obds/src/tests/i2c_device_barometer_ppl3115.o
 .debug_frame   0x00000830       0x30 /home/leon/git/swp-report/iMX6_Platform_SDK/output/mx6sdl/obds/evb_rev_a/obj/apps/obds/src/tests/i2c_device_check_cs42888.o
 .debug_frame   0x00000860       0x50 /home/leon/git/swp-report/iMX6_Platform_SDK/output/mx6sdl/obds/evb_rev_a/obj/apps/obds/src/tests/i2c_device_digital_compass_mag3110.o
 .debug_frame   0x000008b0       0x50 /home/leon/git/swp-report/iMX6_Platform_SDK/output/mx6sdl/obds/evb_rev_a/obj/apps/obds/src/tests/i2c_device_digital_compass_mag3112.o
 .debug_frame   0x00000900       0xd0 /home/leon/git/swp-report/iMX6_Platform_SDK/output/mx6sdl/obds/evb_rev_a/obj/apps/obds/src/tests/i2c_device_id_check_mma8450.o
 .debug_frame   0x000009d0       0xd0 /home/leon/git/swp-report/iMX6_Platform_SDK/output/mx6sdl/obds/evb_rev_a/obj/apps/obds/src/tests/i2c_device_id_check_mma8451.o
 .debug_frame   0x00000aa0       0xb0 /home/leon/git/swp-report/iMX6_Platform_SDK/output/mx6sdl/obds/evb_rev_a/obj/apps/obds/src/tests/i2c_device_id_check_p1003_tsc.o
 .debug_frame   0x00000b50       0xf0 /home/leon/git/swp-report/iMX6_Platform_SDK/output/mx6sdl/obds/evb_rev_a/obj/apps/obds/src/tests/i2c_device_temp_sensor_emc1046.o
 .debug_frame   0x00000c40       0x90 /home/leon/git/swp-report/iMX6_Platform_SDK/output/mx6sdl/obds/evb_rev_a/obj/apps/obds/src/tests/i2c_device_zigbee_mc1323.o
 .debug_frame   0x00000cd0       0x70 /home/leon/git/swp-report/iMX6_Platform_SDK/output/mx6sdl/obds/evb_rev_a/obj/apps/obds/src/tests/i2c_eeprom_at24cxx_test.o
 .debug_frame   0x00000d40       0xb0 /home/leon/git/swp-report/iMX6_Platform_SDK/output/mx6sdl/obds/evb_rev_a/obj/apps/obds/src/tests/imx_spi_nor_test.o
 .debug_frame   0x00000df0       0xb0 /home/leon/git/swp-report/iMX6_Platform_SDK/output/mx6sdl/obds/evb_rev_a/obj/apps/obds/src/tests/mlb_os81050.o
 .debug_frame   0x00000ea0       0x30 /home/leon/git/swp-report/iMX6_Platform_SDK/output/mx6sdl/obds/evb_rev_a/obj/apps/obds/src/tests/mmcsd_test.o
 .debug_frame   0x00000ed0       0x90 /home/leon/git/swp-report/iMX6_Platform_SDK/output/mx6sdl/obds/evb_rev_a/obj/apps/obds/src/tests/pmic_da9053.o
 .debug_frame   0x00000f60      0x110 /home/leon/git/swp-report/iMX6_Platform_SDK/output/mx6sdl/obds/evb_rev_a/obj/apps/obds/src/tests/pmic_lt3589.o
 .debug_frame   0x00001070       0x90 /home/leon/git/swp-report/iMX6_Platform_SDK/output/mx6sdl/obds/evb_rev_a/obj/apps/obds/src/tests/pmic_max17135.o
 .debug_frame   0x00001100       0xd0 /home/leon/git/swp-report/iMX6_Platform_SDK/output/mx6sdl/obds/evb_rev_a/obj/apps/obds/src/tests/pmic_mc13892.o
 .debug_frame   0x000011d0       0x78 /home/leon/git/swp-report/iMX6_Platform_SDK/output/mx6sdl/obds/evb_rev_a/obj/apps/obds/src/tests/program_board_id.o
 .debug_frame   0x00001248       0xb8 /home/leon/git/swp-report/iMX6_Platform_SDK/output/mx6sdl/obds/evb_rev_a/obj/apps/obds/src/tests/program_mac_address.o
 .debug_frame   0x00001300       0x30 /home/leon/git/swp-report/iMX6_Platform_SDK/output/mx6sdl/obds/evb_rev_a/obj/apps/obds/src/tests/snvs_srtc_test.o
 .debug_frame   0x00001330       0xf0 /home/leon/git/swp-report/iMX6_Platform_SDK/output/mx6sdl/obds/evb_rev_a/obj/apps/obds/src/tests/touch_screen.o
 .debug_frame   0x00001420      0x130 /home/leon/git/swp-report/iMX6_Platform_SDK/output/mx6sdl/obds/evb_rev_a/obj/apps/obds/src/tests/touch_screen_max11801.o
 .debug_frame   0x00001550       0x70 /home/leon/git/swp-report/iMX6_Platform_SDK/output/mx6sdl/obds/evb_rev_a/obj/apps/obds/src/tests/usb_tests_obds.o
 .debug_frame   0x000015c0       0x30 /home/leon/git/swp-report/iMX6_Platform_SDK/output/mx6sdl/obds/evb_rev_a/obj/apps/obds/src/tests/video_dec_ARD_MB_reset_button.o
 .debug_frame   0x000015f0       0x30 /home/leon/git/swp-report/iMX6_Platform_SDK/output/mx6sdl/obds/evb_rev_a/obj/apps/obds/src/tests/video_dec_ARD_MBrst_from_cpu_expander.o
 .debug_frame   0x00001620       0xf0 /home/leon/git/swp-report/iMX6_Platform_SDK/output/mx6sdl/obds/evb_rev_a/obj/apps/obds/src/tests/video_dec_adv7180.o
 .debug_frame   0x00001710       0x90 /home/leon/git/swp-report/iMX6_Platform_SDK/output/mx6sdl/obds/evb_rev_a/obj/apps/obds/src/tests/weim_nor_flash_test.o
 .debug_frame   0x000017a0       0x30 /home/leon/git/swp-report/iMX6_Platform_SDK/output/mx6sdl/obds/evb_rev_a/obj/sdk/common/ioexpander/test/max7310_test.o
 .debug_frame   0x000017d0      0x130 /home/leon/git/swp-report/iMX6_Platform_SDK/output/mx6sdl/obds/evb_rev_a/obj/sdk/common/pmic/pfuse/pf0100.o
 .debug_frame   0x00001900       0xd0 /home/leon/git/swp-report/iMX6_Platform_SDK/output/mx6sdl/obds/evb_rev_a/obj/sdk/drivers/audio/src/snd_card.o
 .debug_frame   0x000019d0       0x30 /home/leon/git/swp-report/iMX6_Platform_SDK/output/mx6sdl/obds/evb_rev_a/obj/sdk/drivers/camera/test/adv7180_capture.o
 .debug_frame   0x00001a00       0x30 /home/leon/git/swp-report/iMX6_Platform_SDK/output/mx6sdl/obds/evb_rev_a/obj/sdk/drivers/camera/test/camera_test.o
 .debug_frame   0x00001a30       0x30 /home/leon/git/swp-report/iMX6_Platform_SDK/output/mx6sdl/obds/evb_rev_a/obj/sdk/drivers/camera/test/csi_test_mode.o
 .debug_frame   0x00001a60       0x30 /home/leon/git/swp-report/iMX6_Platform_SDK/output/mx6sdl/obds/evb_rev_a/obj/sdk/drivers/camera/test/sensor_capture.o
 .debug_frame   0x00001a90       0xd0 /home/leon/git/swp-report/iMX6_Platform_SDK/output/mx6sdl/obds/evb_rev_a/obj/sdk/drivers/epdc/test/epdc_test.o
 .debug_frame   0x00001b60       0xb0 /home/leon/git/swp-report/iMX6_Platform_SDK/output/mx6sdl/obds/evb_rev_a/obj/sdk/drivers/hdmi/test/hdmi_test.o
 .debug_frame   0x00001c10       0x34 /home/leon/git/swp-report/iMX6_Platform_SDK/output/mx6sdl/obds/evb_rev_a/obj/sdk/drivers/hdmi/test/init_dma_data.o
 .debug_frame   0x00001c44       0xf0 /home/leon/git/swp-report/iMX6_Platform_SDK/output/mx6sdl/obds/evb_rev_a/obj/sdk/drivers/ipu/test/ips_display.o
 .debug_frame   0x00001d34       0xb0 /home/leon/git/swp-report/iMX6_Platform_SDK/output/mx6sdl/obds/evb_rev_a/obj/sdk/drivers/ipu/test/ipu_image.o
 .debug_frame   0x00001de4       0xf0 /home/leon/git/swp-report/iMX6_Platform_SDK/output/mx6sdl/obds/evb_rev_a/obj/sdk/drivers/spi/test/imx_spi_nor_atmel.o
 .debug_frame   0x00001ed4      0x110 /home/leon/git/swp-report/iMX6_Platform_SDK/output/mx6sdl/obds/evb_rev_a/obj/sdk/drivers/spi/test/spi_nor_numonyx.o
 .debug_frame   0x00001fe4       0x50 /home/leon/git/swp-report/iMX6_Platform_SDK/output/mx6sdl/obds/evb_rev_a/obj/sdk/drivers/uart/test/uart_test.o
 .debug_frame   0x00002034      0x110 /home/leon/git/swp-report/iMX6_Platform_SDK/output/mx6sdl/obds/evb_rev_a/obj/sdk/drivers/usb/test/usb0_host_test.o
 .debug_frame   0x00002144       0x30 /home/leon/git/swp-report/iMX6_Platform_SDK/output/mx6sdl/obds/evb_rev_a/obj/sdk/drivers/usb/test/usb0_host_testmodes_test.o
 .debug_frame   0x00002174      0x170 /home/leon/git/swp-report/iMX6_Platform_SDK/output/mx6sdl/obds/evb_rev_a/obj/sdk/drivers/usdhc/test/usdhc_test.o
 .debug_frame   0x000022e4       0x90 /home/leon/git/swp-report/iMX6_Platform_SDK/output/mx6sdl/lib/libsdk.a(max7310.o)
 .debug_frame   0x00002374      0x130 /home/leon/git/swp-report/iMX6_Platform_SDK/output/mx6sdl/lib/libsdk.a(ccm_pll.o)
 .debug_frame   0x000024a4      0x230 /home/leon/git/swp-report/iMX6_Platform_SDK/output/mx6sdl/lib/libsdk.a(gic.o)
 .debug_frame   0x000026d4       0xb8 /home/leon/git/swp-report/iMX6_Platform_SDK/output/mx6sdl/lib/libsdk.a(interrupt.o)
 .debug_frame   0x0000278c       0xb0 /home/leon/git/swp-report/iMX6_Platform_SDK/output/mx6sdl/lib/libsdk.a(mmu.o)
 .debug_frame   0x0000283c      0x170 /home/leon/git/swp-report/iMX6_Platform_SDK/output/mx6sdl/lib/libsdk.a(menu.o)
 .debug_frame   0x000029ac       0xe0 /home/leon/git/swp-report/iMX6_Platform_SDK/output/mx6sdl/lib/libsdk.a(system_util.o)
 .debug_frame   0x00002a8c       0x54 /home/leon/git/swp-report/iMX6_Platform_SDK/output/mx6sdl/lib/libsdk.a(text_color.o)
 .debug_frame   0x00002ae0       0xf0 /home/leon/git/swp-report/iMX6_Platform_SDK/output/mx6sdl/lib/libsdk.a(cs42888.o)
 .debug_frame   0x00002bd0      0x170 /home/leon/git/swp-report/iMX6_Platform_SDK/output/mx6sdl/lib/libsdk.a(imx-ssi.o)
 .debug_frame   0x00002d40      0x190 /home/leon/git/swp-report/iMX6_Platform_SDK/output/mx6sdl/lib/libsdk.a(imx_esai.o)
 .debug_frame   0x00002ed0      0x110 /home/leon/git/swp-report/iMX6_Platform_SDK/output/mx6sdl/lib/libsdk.a(imx_spdif.o)
 .debug_frame   0x00002fe0      0x1b8 /home/leon/git/swp-report/iMX6_Platform_SDK/output/mx6sdl/lib/libsdk.a(sgtl5000.o)
 .debug_frame   0x00003198      0x130 /home/leon/git/swp-report/iMX6_Platform_SDK/output/mx6sdl/lib/libsdk.a(wm8958_dac.o)
 .debug_frame   0x000032c8      0x150 /home/leon/git/swp-report/iMX6_Platform_SDK/output/mx6sdl/lib/libsdk.a(wm8962.o)
 .debug_frame   0x00003418       0xf0 /home/leon/git/swp-report/iMX6_Platform_SDK/output/mx6sdl/lib/libsdk.a(board_id.o)
 .debug_frame   0x00003508      0x150 /home/leon/git/swp-report/iMX6_Platform_SDK/output/mx6sdl/lib/libsdk.a(smd_sensor.o)
 .debug_frame   0x00003658      0x270 /home/leon/git/swp-report/iMX6_Platform_SDK/output/mx6sdl/lib/libsdk.a(enet_drv.o)
 .debug_frame   0x000038c8      0x390 /home/leon/git/swp-report/iMX6_Platform_SDK/output/mx6sdl/lib/libsdk.a(mxc_epdc.o)
 .debug_frame   0x00003c58      0x178 /home/leon/git/swp-report/iMX6_Platform_SDK/output/mx6sdl/lib/libsdk.a(gpio.o)
 .debug_frame   0x00003dd0      0x150 /home/leon/git/swp-report/iMX6_Platform_SDK/output/mx6sdl/lib/libsdk.a(hdmi_tx.o)
 .debug_frame   0x00003f20      0x2b0 /home/leon/git/swp-report/iMX6_Platform_SDK/output/mx6sdl/lib/libsdk.a(hdmi_tx_audio.o)
 .debug_frame   0x000041d0      0x2b0 /home/leon/git/swp-report/iMX6_Platform_SDK/output/mx6sdl/lib/libsdk.a(hdmi_tx_phy.o)
 .debug_frame   0x00004480      0x1d8 /home/leon/git/swp-report/iMX6_Platform_SDK/output/mx6sdl/lib/libsdk.a(imx_i2c.o)
 .debug_frame   0x00004658      0x230 /home/leon/git/swp-report/iMX6_Platform_SDK/output/mx6sdl/lib/libsdk.a(ips_disp_panel.o)
 .debug_frame   0x00004888      0x1d0 /home/leon/git/swp-report/iMX6_Platform_SDK/output/mx6sdl/lib/libsdk.a(ipu_common.o)
 .debug_frame   0x00004a58       0xd0 /home/leon/git/swp-report/iMX6_Platform_SDK/output/mx6sdl/lib/libsdk.a(ipu_csi.o)
 .debug_frame   0x00004b28       0xd0 /home/leon/git/swp-report/iMX6_Platform_SDK/output/mx6sdl/lib/libsdk.a(ipu_dc.o)
 .debug_frame   0x00004bf8       0xf4 /home/leon/git/swp-report/iMX6_Platform_SDK/output/mx6sdl/lib/libsdk.a(ipu_di.o)
 .debug_frame   0x00004cec       0x50 /home/leon/git/swp-report/iMX6_Platform_SDK/output/mx6sdl/lib/libsdk.a(ipu_dmfc.o)
 .debug_frame   0x00004d3c       0x70 /home/leon/git/swp-report/iMX6_Platform_SDK/output/mx6sdl/lib/libsdk.a(ipu_dp.o)
 .debug_frame   0x00004dac      0x230 /home/leon/git/swp-report/iMX6_Platform_SDK/output/mx6sdl/lib/libsdk.a(ipu_idmac.o)
 .debug_frame   0x00004fdc      0x110 /home/leon/git/swp-report/iMX6_Platform_SDK/output/mx6sdl/lib/libsdk.a(ipu_vdi.o)
 .debug_frame   0x000050ec       0x70 /home/leon/git/swp-report/iMX6_Platform_SDK/output/mx6sdl/lib/libsdk.a(ldb.o)
 .debug_frame   0x0000515c       0xf0 /home/leon/git/swp-report/iMX6_Platform_SDK/output/mx6sdl/lib/libsdk.a(ocotp.o)
 .debug_frame   0x0000524c       0xf0 /home/leon/git/swp-report/iMX6_Platform_SDK/output/mx6sdl/lib/libsdk.a(ecspi.o)
 .debug_frame   0x0000533c       0x94 /home/leon/git/swp-report/iMX6_Platform_SDK/output/mx6sdl/lib/libsdk.a(timer.o)
 .debug_frame   0x000053d0       0xf0 /home/leon/git/swp-report/iMX6_Platform_SDK/output/mx6sdl/lib/libsdk.a(imx_uart.o)
 .debug_frame   0x000054c0       0x70 /home/leon/git/swp-report/iMX6_Platform_SDK/output/mx6sdl/lib/libsdk.a(usb_common.o)
 .debug_frame   0x00005530      0x110 /home/leon/git/swp-report/iMX6_Platform_SDK/output/mx6sdl/lib/libsdk.a(usbh_drv.o)
 .debug_frame   0x00005640      0x250 /home/leon/git/swp-report/iMX6_Platform_SDK/output/mx6sdl/lib/libsdk.a(usdhc.o)
 .debug_frame   0x00005890      0x330 /home/leon/git/swp-report/iMX6_Platform_SDK/output/mx6sdl/lib/libsdk.a(usdhc_host.o)
 .debug_frame   0x00005bc0      0x1b0 /home/leon/git/swp-report/iMX6_Platform_SDK/output/mx6sdl/lib/libsdk.a(usdhc_mmc.o)
 .debug_frame   0x00005d70       0x90 /home/leon/git/swp-report/iMX6_Platform_SDK/output/mx6sdl/lib/libsdk.a(usdhc_sd.o)
 .debug_frame   0x00005e00      0x170 /home/leon/git/swp-report/iMX6_Platform_SDK/output/mx6sdl/lib/libsdk.a(adv7180.o)
 .debug_frame   0x00005f70      0x210 /home/leon/git/swp-report/iMX6_Platform_SDK/output/mx6sdl/lib/libsdk.a(armv7_cache.o)
 .debug_frame   0x00006180       0xb0 /home/leon/git/swp-report/iMX6_Platform_SDK/output/mx6sdl/lib/libsdk.a(hdmi_common.o)
 .debug_frame   0x00006230      0x130 /home/leon/git/swp-report/iMX6_Platform_SDK/output/mx6sdl/lib/libsdk.a(ipu_ic.o)
 .debug_frame   0x00006360      0x110 /home/leon/git/swp-report/iMX6_Platform_SDK/output/mx6sdl/lib/libsdk.a(epit.o)
 .debug_frame   0x00006470       0x50 /home/leon/git/swp-report/iMX6_Platform_SDK/output/mx6sdl/lib/libsdk.a(mx6x_usb.o)
 .debug_frame   0x000064c0       0x38 /home/leon/git/swp-report/iMX6_Platform_SDK/output/mx6sdl/lib/libsdk.a(abort_handler.o)
 .debug_frame   0x000064f8       0xf0 /home/leon/git/swp-report/iMX6_Platform_SDK/output/mx6sdl/lib/libboard_evb_rev_a.a(board_audio.o)
 .debug_frame   0x000065e8       0x30 /home/leon/git/swp-report/iMX6_Platform_SDK/output/mx6sdl/lib/libboard_evb_rev_a.a(board_buttons.o)
 .debug_frame   0x00006618       0xd0 /home/leon/git/swp-report/iMX6_Platform_SDK/output/mx6sdl/lib/libboard_evb_rev_a.a(board_camera.o)
 .debug_frame   0x000066e8       0xf0 /home/leon/git/swp-report/iMX6_Platform_SDK/output/mx6sdl/lib/libboard_evb_rev_a.a(board_display.o)
 .debug_frame   0x000067d8       0xd0 /home/leon/git/swp-report/iMX6_Platform_SDK/output/mx6sdl/lib/libboard_evb_rev_a.a(board_hdmi.o)
 .debug_frame   0x000068a8       0x50 /home/leon/git/swp-report/iMX6_Platform_SDK/output/mx6sdl/lib/libboard_evb_rev_a.a(board_io_expanders.o)
 .debug_frame   0x000068f8       0xb0 /home/leon/git/swp-report/iMX6_Platform_SDK/output/mx6sdl/lib/libboard_evb_rev_a.a(board_mipi.o)
 .debug_frame   0x000069a8       0xb0 /home/leon/git/swp-report/iMX6_Platform_SDK/output/mx6sdl/lib/libboard_evb_rev_a.a(board_network.o)
 .debug_frame   0x00006a58       0x70 /home/leon/git/swp-report/iMX6_Platform_SDK/output/mx6sdl/lib/libboard_evb_rev_a.a(board_usb.o)
 .debug_frame   0x00006ac8       0x70 /home/leon/git/swp-report/iMX6_Platform_SDK/output/mx6sdl/lib/libboard_evb_rev_a.a(board_usdhc.o)
 .debug_frame   0x00006b38       0x30 /home/leon/git/swp-report/iMX6_Platform_SDK/output/mx6sdl/lib/libboard_evb_rev_a.a(ecspi_iomux_config.o)
 .debug_frame   0x00006b68       0x30 /home/leon/git/swp-report/iMX6_Platform_SDK/output/mx6sdl/lib/libboard_evb_rev_a.a(enet_iomux_config.o)
 .debug_frame   0x00006b98       0x30 /home/leon/git/swp-report/iMX6_Platform_SDK/output/mx6sdl/lib/libboard_evb_rev_a.a(esai_iomux_config.o)
 .debug_frame   0x00006bc8       0x30 /home/leon/git/swp-report/iMX6_Platform_SDK/output/mx6sdl/lib/libboard_evb_rev_a.a(i2c_iomux_config.o)
 .debug_frame   0x00006bf8      0x4b0 /home/leon/git/swp-report/iMX6_Platform_SDK/output/mx6sdl/lib/libboard_evb_rev_a.a(iomux_config.o)
 .debug_frame   0x000070a8       0x30 /home/leon/git/swp-report/iMX6_Platform_SDK/output/mx6sdl/lib/libboard_evb_rev_a.a(ipu1_iomux_config.o)
 .debug_frame   0x000070d8       0x30 /home/leon/git/swp-report/iMX6_Platform_SDK/output/mx6sdl/lib/libboard_evb_rev_a.a(ipu_iomux_config.o)
 .debug_frame   0x00007108       0x30 /home/leon/git/swp-report/iMX6_Platform_SDK/output/mx6sdl/lib/libboard_evb_rev_a.a(kpp_iomux_config.o)
 .debug_frame   0x00007138       0x30 /home/leon/git/swp-report/iMX6_Platform_SDK/output/mx6sdl/lib/libboard_evb_rev_a.a(mlb_iomux_config.o)
 .debug_frame   0x00007168       0x30 /home/leon/git/swp-report/iMX6_Platform_SDK/output/mx6sdl/lib/libboard_evb_rev_a.a(mmdc_iomux_config.o)
 .debug_frame   0x00007198       0x30 /home/leon/git/swp-report/iMX6_Platform_SDK/output/mx6sdl/lib/libboard_evb_rev_a.a(pwm1_iomux_config.o)
 .debug_frame   0x000071c8       0x30 /home/leon/git/swp-report/iMX6_Platform_SDK/output/mx6sdl/lib/libboard_evb_rev_a.a(sjc_iomux_config.o)
 .debug_frame   0x000071f8       0x30 /home/leon/git/swp-report/iMX6_Platform_SDK/output/mx6sdl/lib/libboard_evb_rev_a.a(spdif_iomux_config.o)
 .debug_frame   0x00007228       0x30 /home/leon/git/swp-report/iMX6_Platform_SDK/output/mx6sdl/lib/libboard_evb_rev_a.a(uart2_iomux_config.o)
 .debug_frame   0x00007258       0x30 /home/leon/git/swp-report/iMX6_Platform_SDK/output/mx6sdl/lib/libboard_evb_rev_a.a(uart4_iomux_config.o)
 .debug_frame   0x00007288       0x30 /home/leon/git/swp-report/iMX6_Platform_SDK/output/mx6sdl/lib/libboard_evb_rev_a.a(uart_iomux_config.o)
 .debug_frame   0x000072b8       0x30 /home/leon/git/swp-report/iMX6_Platform_SDK/output/mx6sdl/lib/libboard_evb_rev_a.a(usb_iomux_config.o)
 .debug_frame   0x000072e8       0x30 /home/leon/git/swp-report/iMX6_Platform_SDK/output/mx6sdl/lib/libboard_evb_rev_a.a(usdhc1_iomux_config.o)
 .debug_frame   0x00007318       0x30 /home/leon/git/swp-report/iMX6_Platform_SDK/output/mx6sdl/lib/libboard_evb_rev_a.a(usdhc2_iomux_config.o)
 .debug_frame   0x00007348       0x30 /home/leon/git/swp-report/iMX6_Platform_SDK/output/mx6sdl/lib/libboard_evb_rev_a.a(usdhc3_iomux_config.o)
 .debug_frame   0x00007378       0x30 /home/leon/git/swp-report/iMX6_Platform_SDK/output/mx6sdl/lib/libboard_evb_rev_a.a(usdhc4_iomux_config.o)
 .debug_frame   0x000073a8       0x30 /home/leon/git/swp-report/iMX6_Platform_SDK/output/mx6sdl/lib/libboard_evb_rev_a.a(usdhc_iomux_config.o)
 .debug_frame   0x000073d8       0x30 /home/leon/git/swp-report/iMX6_Platform_SDK/output/mx6sdl/lib/libboard_evb_rev_a.a(ccm_iomux_config.o)
 .debug_frame   0x00007408       0x30 /home/leon/git/swp-report/iMX6_Platform_SDK/output/mx6sdl/lib/libboard_evb_rev_a.a(ecspi1_iomux_config.o)
 .debug_frame   0x00007438       0x30 /home/leon/git/swp-report/iMX6_Platform_SDK/output/mx6sdl/lib/libboard_evb_rev_a.a(flexcan1_iomux_config.o)
 .debug_frame   0x00007468       0x30 /home/leon/git/swp-report/iMX6_Platform_SDK/output/mx6sdl/lib/libboard_evb_rev_a.a(flexcan2_iomux_config.o)
 .debug_frame   0x00007498       0x30 /home/leon/git/swp-report/iMX6_Platform_SDK/output/mx6sdl/lib/libboard_evb_rev_a.a(gpio3_iomux_config.o)
 .debug_frame   0x000074c8       0x30 /home/leon/git/swp-report/iMX6_Platform_SDK/output/mx6sdl/lib/libboard_evb_rev_a.a(gpio4_iomux_config.o)
 .debug_frame   0x000074f8       0x30 /home/leon/git/swp-report/iMX6_Platform_SDK/output/mx6sdl/lib/libboard_evb_rev_a.a(gpio5_iomux_config.o)
 .debug_frame   0x00007528       0x30 /home/leon/git/swp-report/iMX6_Platform_SDK/output/mx6sdl/lib/libboard_evb_rev_a.a(gpio6_iomux_config.o)
 .debug_frame   0x00007558       0x30 /home/leon/git/swp-report/iMX6_Platform_SDK/output/mx6sdl/lib/libboard_evb_rev_a.a(gpmi_iomux_config.o)
 .debug_frame   0x00007588       0x30 /home/leon/git/swp-report/iMX6_Platform_SDK/output/mx6sdl/lib/libboard_evb_rev_a.a(hdmi_iomux_config.o)
 .debug_frame   0x000075b8       0x30 /home/leon/git/swp-report/iMX6_Platform_SDK/output/mx6sdl/lib/libboard_evb_rev_a.a(i2c1_iomux_config.o)
 .debug_frame   0x000075e8       0x30 /home/leon/git/swp-report/iMX6_Platform_SDK/output/mx6sdl/lib/libboard_evb_rev_a.a(i2c2_iomux_config.o)
 .debug_frame   0x00007618       0x30 /home/leon/git/swp-report/iMX6_Platform_SDK/output/mx6sdl/lib/libboard_evb_rev_a.a(i2c3_iomux_config.o)
 .debug_frame   0x00007648       0x40 /home/leon/riotboard/arm-2012.09/bin/../arm-none-eabi/lib//libc.a(lib_a-assert.o)
 .debug_frame   0x00007688       0x20 /home/leon/riotboard/arm-2012.09/bin/../arm-none-eabi/lib//libc.a(lib_a-bzero.o)
 .debug_frame   0x000076a8       0x54 /home/leon/riotboard/arm-2012.09/bin/../arm-none-eabi/lib//libc.a(lib_a-fiprintf.o)
 .debug_frame   0x000076fc       0x48 /home/leon/riotboard/arm-2012.09/bin/../arm-none-eabi/lib//libc.a(lib_a-fputc.o)
 .debug_frame   0x00007744       0x2c /home/leon/riotboard/arm-2012.09/bin/../arm-none-eabi/lib//libc.a(lib_a-init.o)
 .debug_frame   0x00007770       0x40 /home/leon/riotboard/arm-2012.09/bin/../arm-none-eabi/lib//libc.a(lib_a-malloc.o)
 .debug_frame   0x000077b0       0x38 /home/leon/riotboard/arm-2012.09/bin/../arm-none-eabi/lib//libc.a(lib_a-mallocr.o)
 .debug_frame   0x000077e8       0x30 /home/leon/riotboard/arm-2012.09/bin/../arm-none-eabi/lib//libc.a(lib_a-memcpy.o)
 .debug_frame   0x00007818       0x28 /home/leon/riotboard/arm-2012.09/bin/../arm-none-eabi/lib//libc.a(lib_a-memset.o)
 .debug_frame   0x00007840       0x30 /home/leon/riotboard/arm-2012.09/bin/../arm-none-eabi/lib//libc.a(lib_a-mlock.o)
 .debug_frame   0x00007870       0x58 /home/leon/riotboard/arm-2012.09/bin/../arm-none-eabi/lib//libc.a(lib_a-printf.o)
 .debug_frame   0x000078c8       0x48 /home/leon/riotboard/arm-2012.09/bin/../arm-none-eabi/lib//libc.a(lib_a-putc.o)
 .debug_frame   0x00007910       0x28 /home/leon/riotboard/arm-2012.09/bin/../arm-none-eabi/lib//libc.a(lib_a-realloc.o)
 .debug_frame   0x00007938       0x38 /home/leon/riotboard/arm-2012.09/bin/../arm-none-eabi/lib//libc.a(lib_a-reallocr.o)
 .debug_frame   0x00007970       0x3c /home/leon/riotboard/arm-2012.09/bin/../arm-none-eabi/lib//libc.a(lib_a-rget.o)
 .debug_frame   0x000079ac       0x2c /home/leon/riotboard/arm-2012.09/bin/../arm-none-eabi/lib//libc.a(lib_a-sbrkr.o)
 .debug_frame   0x000079d8       0x5c /home/leon/riotboard/arm-2012.09/bin/../arm-none-eabi/lib//libc.a(lib_a-sprintf.o)
 .debug_frame   0x00007a34       0x2c /home/leon/riotboard/arm-2012.09/bin/../arm-none-eabi/lib//libc.a(lib_a-strcat.o)
 .debug_frame   0x00007a60       0x30 /home/leon/riotboard/arm-2012.09/bin/../arm-none-eabi/lib//libc.a(lib_a-strcmp.o)
 .debug_frame   0x00007a90       0x20 /home/leon/riotboard/arm-2012.09/bin/../arm-none-eabi/lib//libc.a(lib_a-strcpy.o)
 .debug_frame   0x00007ab0       0x20 /home/leon/riotboard/arm-2012.09/bin/../arm-none-eabi/lib//libc.a(lib_a-strlen.o)
 .debug_frame   0x00007ad0       0x28 /home/leon/riotboard/arm-2012.09/bin/../arm-none-eabi/lib//libc.a(lib_a-strncasecmp.o)
 .debug_frame   0x00007af8       0x28 /home/leon/riotboard/arm-2012.09/bin/../arm-none-eabi/lib//libc.a(lib_a-strtok.o)
 .debug_frame   0x00007b20       0x3c /home/leon/riotboard/arm-2012.09/bin/../arm-none-eabi/lib//libc.a(lib_a-strtok_r.o)
 .debug_frame   0x00007b5c       0x3c /home/leon/riotboard/arm-2012.09/bin/../arm-none-eabi/lib//libc.a(lib_a-svfprintf.o)
 .debug_frame   0x00007b98       0x7c /home/leon/riotboard/arm-2012.09/bin/../arm-none-eabi/lib//libc.a(lib_a-vfiprintf.o)
 .debug_frame   0x00007c14       0x58 /home/leon/riotboard/arm-2012.09/bin/../arm-none-eabi/lib//libc.a(lib_a-vfprintf.o)
 .debug_frame   0x00007c6c       0x40 /home/leon/riotboard/arm-2012.09/bin/../arm-none-eabi/lib//libc.a(lib_a-vprintf.o)
 .debug_frame   0x00007cac       0x3c /home/leon/riotboard/arm-2012.09/bin/../arm-none-eabi/lib//libc.a(lib_a-wbuf.o)
 .debug_frame   0x00007ce8       0x2c /home/leon/riotboard/arm-2012.09/bin/../arm-none-eabi/lib//libc.a(lib_a-wsetup.o)
 .debug_frame   0x00007d14       0x28 /home/leon/riotboard/arm-2012.09/bin/../arm-none-eabi/lib//libc.a(lib_a-abort.o)
 .debug_frame   0x00007d3c       0x64 /home/leon/riotboard/arm-2012.09/bin/../arm-none-eabi/lib//libc.a(lib_a-dtoa.o)
 .debug_frame   0x00007da0       0x48 /home/leon/riotboard/arm-2012.09/bin/../arm-none-eabi/lib//libc.a(lib_a-fflush.o)
 .debug_frame   0x00007de8      0x134 /home/leon/riotboard/arm-2012.09/bin/../arm-none-eabi/lib//libc.a(lib_a-findfp.o)
 .debug_frame   0x00007f1c       0x50 /home/leon/riotboard/arm-2012.09/bin/../arm-none-eabi/lib//libc.a(lib_a-fputwc.o)
 .debug_frame   0x00007f6c       0x50 /home/leon/riotboard/arm-2012.09/bin/../arm-none-eabi/lib//libc.a(lib_a-freer.o)
 .debug_frame   0x00007fbc       0x38 /home/leon/riotboard/arm-2012.09/bin/../arm-none-eabi/lib//libc.a(lib_a-fvwrite.o)
 .debug_frame   0x00007ff4       0x54 /home/leon/riotboard/arm-2012.09/bin/../arm-none-eabi/lib//libc.a(lib_a-fwalk.o)
 .debug_frame   0x00008048       0x98 /home/leon/riotboard/arm-2012.09/bin/../arm-none-eabi/lib//libc.a(lib_a-locale.o)
 .debug_frame   0x000080e0       0x30 /home/leon/riotboard/arm-2012.09/bin/../arm-none-eabi/lib//libc.a(lib_a-makebuf.o)
 .debug_frame   0x00008110       0x2c /home/leon/riotboard/arm-2012.09/bin/../arm-none-eabi/lib//libc.a(lib_a-memchr.o)
 .debug_frame   0x0000813c       0x2c /home/leon/riotboard/arm-2012.09/bin/../arm-none-eabi/lib//libc.a(lib_a-memmove.o)
 .debug_frame   0x00008168      0x220 /home/leon/riotboard/arm-2012.09/bin/../arm-none-eabi/lib//libc.a(lib_a-mprec.o)
 .debug_frame   0x00008388       0x68 /home/leon/riotboard/arm-2012.09/bin/../arm-none-eabi/lib//libc.a(lib_a-reent.o)
 .debug_frame   0x000083f0       0x44 /home/leon/riotboard/arm-2012.09/bin/../arm-none-eabi/lib//libc.a(lib_a-refill.o)
 .debug_frame   0x00008434       0x20 /home/leon/riotboard/arm-2012.09/bin/../arm-none-eabi/lib//libc.a(lib_a-s_fpclassify.o)
 .debug_frame   0x00008454       0xc0 /home/leon/riotboard/arm-2012.09/bin/../arm-none-eabi/lib//libc.a(lib_a-signal.o)
 .debug_frame   0x00008514       0x44 /home/leon/riotboard/arm-2012.09/bin/../arm-none-eabi/lib//libc.a(lib_a-signalr.o)
 .debug_frame   0x00008558       0x88 /home/leon/riotboard/arm-2012.09/bin/../arm-none-eabi/lib//libc.a(lib_a-stdio.o)
 .debug_frame   0x000085e0       0x64 /home/leon/riotboard/arm-2012.09/bin/../arm-none-eabi/lib//libc.a(lib_a-svfiprintf.o)
 .debug_frame   0x00008644       0x58 /home/leon/riotboard/arm-2012.09/bin/../arm-none-eabi/lib//libc.a(lib_a-wcrtomb.o)
 .debug_frame   0x0000869c       0x44 /home/leon/riotboard/arm-2012.09/bin/../arm-none-eabi/lib//libc.a(lib_a-wctomb_r.o)
 .debug_frame   0x000086e0       0x2c /home/leon/riotboard/arm-2012.09/bin/../arm-none-eabi/lib//libc.a(lib_a-writer.o)
 .debug_frame   0x0000870c       0x28 /home/leon/riotboard/arm-2012.09/bin/../arm-none-eabi/lib//libc.a(lib_a-callocr.o)
 .debug_frame   0x00008734       0x2c /home/leon/riotboard/arm-2012.09/bin/../arm-none-eabi/lib//libc.a(lib_a-closer.o)
 .debug_frame   0x00008760       0x3c /home/leon/riotboard/arm-2012.09/bin/../arm-none-eabi/lib//libc.a(lib_a-fclose.o)
 .debug_frame   0x0000879c       0x2c /home/leon/riotboard/arm-2012.09/bin/../arm-none-eabi/lib//libc.a(lib_a-fstatr.o)
 .debug_frame   0x000087c8       0x2c /home/leon/riotboard/arm-2012.09/bin/../arm-none-eabi/lib//libc.a(lib_a-isattyr.o)
 .debug_frame   0x000087f4       0x2c /home/leon/riotboard/arm-2012.09/bin/../arm-none-eabi/lib//libc.a(lib_a-lseekr.o)
 .debug_frame   0x00008820       0x2c /home/leon/riotboard/arm-2012.09/bin/../arm-none-eabi/lib//libc.a(lib_a-readr.o)
 .debug_frame   0x0000884c       0x20 /home/leon/riotboard/arm-2012.09/bin/../lib/gcc/arm-none-eabi/4.7.2//libgcc.a(_udivsi3.o)
 .debug_frame   0x0000886c       0x20 /home/leon/riotboard/arm-2012.09/bin/../lib/gcc/arm-none-eabi/4.7.2//libgcc.a(_divsi3.o)
 .debug_frame   0x0000888c       0x54 /home/leon/riotboard/arm-2012.09/bin/../lib/gcc/arm-none-eabi/4.7.2//libgcc.a(bpabi.o)
 .debug_frame   0x000088e0       0x38 /home/leon/riotboard/arm-2012.09/bin/../lib/gcc/arm-none-eabi/4.7.2//libgcc.a(_divdi3.o)
 .debug_frame   0x00008918       0x38 /home/leon/riotboard/arm-2012.09/bin/../lib/gcc/arm-none-eabi/4.7.2//libgcc.a(_udivdi3.o)
 .debug_frame   0x00008950      0x290 /home/leon/git/swp-report/iMX6_Platform_SDK/output/mx6sdl/lib/libsdk.a(runtime_support.o)

.debug_ranges   0x00000000       0x48
 .debug_ranges  0x00000000       0x30 /home/leon/git/swp-report/iMX6_Platform_SDK/output/mx6sdl/lib/libsdk.a(menu.o)
 .debug_ranges  0x00000030       0x18 /home/leon/git/swp-report/iMX6_Platform_SDK/output/mx6sdl/lib/libsdk.a(system_util.o)

Cross Reference Table

Symbol                                            File
AT45DB321D_id                                     /home/leon/git/swp-report/iMX6_Platform_SDK/output/mx6sdl/obds/evb_rev_a/obj/apps/obds/src/tests/imx_spi_nor_test.o
Audio_ChannelCount                                /home/leon/git/swp-report/iMX6_Platform_SDK/output/mx6sdl/lib/libsdk.a(hdmi_tx_audio.o)
DA9053_Read                                       /home/leon/git/swp-report/iMX6_Platform_SDK/output/mx6sdl/obds/evb_rev_a/obj/apps/obds/src/tests/touch_screen.o
DA9053_Write                                      /home/leon/git/swp-report/iMX6_Platform_SDK/output/mx6sdl/obds/evb_rev_a/obj/apps/obds/src/tests/touch_screen.o
Delay4Reload                                      /home/leon/git/swp-report/iMX6_Platform_SDK/output/mx6sdl/lib/libsdk.a(ocotp.o)
IRQ_HDLR                                          /home/leon/git/swp-report/iMX6_Platform_SDK/output/mx6sdl/lib/libsdk.a(interrupt.o)
                                                  /home/leon/git/swp-report/iMX6_Platform_SDK/output/mx6sdl/lib/libsdk.a(vectors.o)
KSZ9021RN_test_main                               /home/leon/git/swp-report/iMX6_Platform_SDK/output/mx6sdl/obds/evb_rev_a/obj/apps/obds/src/tests/enet_mx6dldq_test.o
M25P32_id                                         /home/leon/git/swp-report/iMX6_Platform_SDK/output/mx6sdl/obds/evb_rev_a/obj/apps/obds/src/tests/imx_spi_nor_test.o
MenuList_All_Tests                                /home/leon/git/swp-report/iMX6_Platform_SDK/output/mx6sdl/obds/evb_rev_a/obj/apps/obds/src/obds.o
Menu_Commands                                     /home/leon/git/swp-report/iMX6_Platform_SDK/output/mx6sdl/obds/evb_rev_a/obj/apps/obds/src/obds.o
PLL1_OUTPUT                                       /home/leon/git/swp-report/iMX6_Platform_SDK/output/mx6sdl/lib/libsdk.a(ccm_pll.o)
PLL2_OUTPUT                                       /home/leon/git/swp-report/iMX6_Platform_SDK/output/mx6sdl/lib/libsdk.a(ccm_pll.o)
PLL3_OUTPUT                                       /home/leon/git/swp-report/iMX6_Platform_SDK/output/mx6sdl/lib/libsdk.a(ccm_pll.o)
PLL4_OUTPUT                                       /home/leon/git/swp-report/iMX6_Platform_SDK/output/mx6sdl/lib/libsdk.a(ccm_pll.o)
PLL5_OUTPUT                                       /home/leon/git/swp-report/iMX6_Platform_SDK/output/mx6sdl/lib/libsdk.a(ccm_pll.o)
SDHC_UHSI_mode                                    /home/leon/git/swp-report/iMX6_Platform_SDK/output/mx6sdl/obds/evb_rev_a/obj/apps/obds/src/tests/mmcsd_test.o
SGTL5000PowerUp_and_clockinit                     /home/leon/git/swp-report/iMX6_Platform_SDK/output/mx6sdl/lib/libboard_evb_rev_a.a(board_audio.o)
                                                  /home/leon/git/swp-report/iMX6_Platform_SDK/output/mx6sdl/lib/libsdk.a(sgtl5000.o)
WM8958_DAC_configure                              /home/leon/git/swp-report/iMX6_Platform_SDK/output/mx6sdl/lib/libsdk.a(wm8958_dac.o)
WM8958_DAC_deinit                                 /home/leon/git/swp-report/iMX6_Platform_SDK/output/mx6sdl/lib/libsdk.a(wm8958_dac.o)
WM8958_DAC_init                                   /home/leon/git/swp-report/iMX6_Platform_SDK/output/mx6sdl/lib/libsdk.a(wm8958_dac.o)
WM8958_dump                                       /home/leon/git/swp-report/iMX6_Platform_SDK/output/mx6sdl/lib/libsdk.a(wm8958_dac.o)
WM8962_DAC_configure                              /home/leon/git/swp-report/iMX6_Platform_SDK/output/mx6sdl/lib/libsdk.a(wm8962.o)
WM8962_DAC_deinit                                 /home/leon/git/swp-report/iMX6_Platform_SDK/output/mx6sdl/lib/libsdk.a(wm8962.o)
WM8962_DAC_init                                   /home/leon/git/swp-report/iMX6_Platform_SDK/output/mx6sdl/lib/libsdk.a(wm8962.o)
WM8962_dump                                       /home/leon/git/swp-report/iMX6_Platform_SDK/output/mx6sdl/lib/libsdk.a(wm8962.o)
_Balloc                                           /home/leon/riotboard/arm-2012.09/bin/../arm-none-eabi/lib//libc.a(lib_a-mprec.o)
                                                  /home/leon/riotboard/arm-2012.09/bin/../arm-none-eabi/lib//libc.a(lib_a-dtoa.o)
_Bfree                                            /home/leon/riotboard/arm-2012.09/bin/../arm-none-eabi/lib//libc.a(lib_a-mprec.o)
                                                  /home/leon/riotboard/arm-2012.09/bin/../arm-none-eabi/lib//libc.a(lib_a-dtoa.o)
_ITM_deregisterTMCloneTable                       /home/leon/riotboard/arm-2012.09/bin/../lib/gcc/arm-none-eabi/4.7.2//crtbegin.o
_ITM_registerTMCloneTable                         /home/leon/riotboard/arm-2012.09/bin/../lib/gcc/arm-none-eabi/4.7.2//crtbegin.o
_Jv_RegisterClasses                               /home/leon/riotboard/arm-2012.09/bin/../lib/gcc/arm-none-eabi/4.7.2//crtbegin.o
_PathLocale                                       /home/leon/riotboard/arm-2012.09/bin/../arm-none-eabi/lib//libc.a(lib_a-locale.o)
__TMC_END__                                       /home/leon/riotboard/arm-2012.09/bin/../lib/gcc/arm-none-eabi/4.7.2//crtend.o
                                                  /home/leon/riotboard/arm-2012.09/bin/../lib/gcc/arm-none-eabi/4.7.2//crtbegin.o
__adddf3                                          /home/leon/riotboard/arm-2012.09/bin/../lib/gcc/arm-none-eabi/4.7.2//libgcc.a(_arm_addsubdf3.o)
__aeabi_cdcmpeq                                   /home/leon/riotboard/arm-2012.09/bin/../lib/gcc/arm-none-eabi/4.7.2//libgcc.a(_arm_cmpdf2.o)
__aeabi_cdcmple                                   /home/leon/riotboard/arm-2012.09/bin/../lib/gcc/arm-none-eabi/4.7.2//libgcc.a(_arm_cmpdf2.o)
__aeabi_cdrcmple                                  /home/leon/riotboard/arm-2012.09/bin/../lib/gcc/arm-none-eabi/4.7.2//libgcc.a(_arm_cmpdf2.o)
__aeabi_d2iz                                      /home/leon/riotboard/arm-2012.09/bin/../lib/gcc/arm-none-eabi/4.7.2//libgcc.a(_arm_fixdfsi.o)
                                                  /home/leon/riotboard/arm-2012.09/bin/../arm-none-eabi/lib//libc.a(lib_a-dtoa.o)
__aeabi_dadd                                      /home/leon/riotboard/arm-2012.09/bin/../lib/gcc/arm-none-eabi/4.7.2//libgcc.a(_arm_addsubdf3.o)
                                                  /home/leon/riotboard/arm-2012.09/bin/../arm-none-eabi/lib//libc.a(lib_a-dtoa.o)
__aeabi_dcmpeq                                    /home/leon/riotboard/arm-2012.09/bin/../lib/gcc/arm-none-eabi/4.7.2//libgcc.a(_arm_cmpdf2.o)
                                                  /home/leon/riotboard/arm-2012.09/bin/../arm-none-eabi/lib//libc.a(lib_a-dtoa.o)
                                                  /home/leon/riotboard/arm-2012.09/bin/../arm-none-eabi/lib//libc.a(lib_a-vfprintf.o)
                                                  /home/leon/riotboard/arm-2012.09/bin/../arm-none-eabi/lib//libc.a(lib_a-svfprintf.o)
__aeabi_dcmpge                                    /home/leon/riotboard/arm-2012.09/bin/../lib/gcc/arm-none-eabi/4.7.2//libgcc.a(_arm_cmpdf2.o)
                                                  /home/leon/riotboard/arm-2012.09/bin/../arm-none-eabi/lib//libc.a(lib_a-dtoa.o)
__aeabi_dcmpgt                                    /home/leon/riotboard/arm-2012.09/bin/../lib/gcc/arm-none-eabi/4.7.2//libgcc.a(_arm_cmpdf2.o)
                                                  /home/leon/riotboard/arm-2012.09/bin/../arm-none-eabi/lib//libc.a(lib_a-dtoa.o)
__aeabi_dcmple                                    /home/leon/riotboard/arm-2012.09/bin/../lib/gcc/arm-none-eabi/4.7.2//libgcc.a(_arm_cmpdf2.o)
__aeabi_dcmplt                                    /home/leon/riotboard/arm-2012.09/bin/../lib/gcc/arm-none-eabi/4.7.2//libgcc.a(_arm_cmpdf2.o)
                                                  /home/leon/riotboard/arm-2012.09/bin/../arm-none-eabi/lib//libc.a(lib_a-dtoa.o)
                                                  /home/leon/riotboard/arm-2012.09/bin/../arm-none-eabi/lib//libc.a(lib_a-vfprintf.o)
                                                  /home/leon/riotboard/arm-2012.09/bin/../arm-none-eabi/lib//libc.a(lib_a-svfprintf.o)
__aeabi_ddiv                                      /home/leon/riotboard/arm-2012.09/bin/../lib/gcc/arm-none-eabi/4.7.2//libgcc.a(_arm_muldivdf3.o)
                                                  /home/leon/riotboard/arm-2012.09/bin/../arm-none-eabi/lib//libc.a(lib_a-mprec.o)
                                                  /home/leon/riotboard/arm-2012.09/bin/../arm-none-eabi/lib//libc.a(lib_a-dtoa.o)
__aeabi_dmul                                      /home/leon/riotboard/arm-2012.09/bin/../lib/gcc/arm-none-eabi/4.7.2//libgcc.a(_arm_muldivdf3.o)
                                                  /home/leon/riotboard/arm-2012.09/bin/../arm-none-eabi/lib//libc.a(lib_a-mprec.o)
                                                  /home/leon/riotboard/arm-2012.09/bin/../arm-none-eabi/lib//libc.a(lib_a-dtoa.o)
__aeabi_drsub                                     /home/leon/riotboard/arm-2012.09/bin/../lib/gcc/arm-none-eabi/4.7.2//libgcc.a(_arm_addsubdf3.o)
__aeabi_dsub                                      /home/leon/riotboard/arm-2012.09/bin/../lib/gcc/arm-none-eabi/4.7.2//libgcc.a(_arm_addsubdf3.o)
                                                  /home/leon/riotboard/arm-2012.09/bin/../arm-none-eabi/lib//libc.a(lib_a-dtoa.o)
__aeabi_f2d                                       /home/leon/riotboard/arm-2012.09/bin/../lib/gcc/arm-none-eabi/4.7.2//libgcc.a(_arm_addsubdf3.o)
__aeabi_i2d                                       /home/leon/riotboard/arm-2012.09/bin/../lib/gcc/arm-none-eabi/4.7.2//libgcc.a(_arm_addsubdf3.o)
                                                  /home/leon/riotboard/arm-2012.09/bin/../arm-none-eabi/lib//libc.a(lib_a-dtoa.o)
__aeabi_idiv                                      /home/leon/riotboard/arm-2012.09/bin/../lib/gcc/arm-none-eabi/4.7.2//libgcc.a(_divsi3.o)
                                                  /home/leon/git/swp-report/iMX6_Platform_SDK/output/mx6sdl/lib/libsdk.a(ipu_ic.o)
                                                  /home/leon/git/swp-report/iMX6_Platform_SDK/output/mx6sdl/lib/libsdk.a(usdhc_host.o)
                                                  /home/leon/git/swp-report/iMX6_Platform_SDK/output/mx6sdl/lib/libsdk.a(ipu_common.o)
__aeabi_idiv0                                     /home/leon/riotboard/arm-2012.09/bin/../lib/gcc/arm-none-eabi/4.7.2//libgcc.a(_dvmd_tls.o)
                                                  /home/leon/riotboard/arm-2012.09/bin/../lib/gcc/arm-none-eabi/4.7.2//libgcc.a(_divsi3.o)
                                                  /home/leon/riotboard/arm-2012.09/bin/../lib/gcc/arm-none-eabi/4.7.2//libgcc.a(_udivsi3.o)
__aeabi_idivmod                                   /home/leon/riotboard/arm-2012.09/bin/../lib/gcc/arm-none-eabi/4.7.2//libgcc.a(_divsi3.o)
                                                  /home/leon/git/swp-report/iMX6_Platform_SDK/output/mx6sdl/lib/libsdk.a(usdhc_host.o)
                                                  /home/leon/git/swp-report/iMX6_Platform_SDK/output/mx6sdl/lib/libsdk.a(ipu_common.o)
__aeabi_l2d                                       /home/leon/riotboard/arm-2012.09/bin/../lib/gcc/arm-none-eabi/4.7.2//libgcc.a(_arm_addsubdf3.o)
__aeabi_ldiv0                                     /home/leon/riotboard/arm-2012.09/bin/../lib/gcc/arm-none-eabi/4.7.2//libgcc.a(_dvmd_tls.o)
                                                  /home/leon/riotboard/arm-2012.09/bin/../lib/gcc/arm-none-eabi/4.7.2//libgcc.a(_aeabi_uldivmod.o)
__aeabi_ui2d                                      /home/leon/riotboard/arm-2012.09/bin/../lib/gcc/arm-none-eabi/4.7.2//libgcc.a(_arm_addsubdf3.o)
                                                  /home/leon/riotboard/arm-2012.09/bin/../arm-none-eabi/lib//libc.a(lib_a-dtoa.o)
__aeabi_uidiv                                     /home/leon/riotboard/arm-2012.09/bin/../lib/gcc/arm-none-eabi/4.7.2//libgcc.a(_udivsi3.o)
                                                  /home/leon/riotboard/arm-2012.09/bin/../lib/gcc/arm-none-eabi/4.7.2//libgcc.a(_udivdi3.o)
                                                  /home/leon/riotboard/arm-2012.09/bin/../lib/gcc/arm-none-eabi/4.7.2//libgcc.a(_divdi3.o)
                                                  /home/leon/riotboard/arm-2012.09/bin/../arm-none-eabi/lib//libc.a(lib_a-dtoa.o)
                                                  /home/leon/git/swp-report/iMX6_Platform_SDK/output/mx6sdl/lib/libsdk.a(imx_i2c.o)
                                                  /home/leon/git/swp-report/iMX6_Platform_SDK/output/mx6sdl/lib/libsdk.a(imx-ssi.o)
                                                  /home/leon/git/swp-report/iMX6_Platform_SDK/output/mx6sdl/lib/libsdk.a(ccm_pll.o)
                                                  /home/leon/git/swp-report/iMX6_Platform_SDK/output/mx6sdl/obds/evb_rev_a/obj/sdk/drivers/spi/test/imx_spi_nor_atmel.o
__aeabi_uidivmod                                  /home/leon/riotboard/arm-2012.09/bin/../lib/gcc/arm-none-eabi/4.7.2//libgcc.a(_udivsi3.o)
                                                  /home/leon/riotboard/arm-2012.09/bin/../lib/gcc/arm-none-eabi/4.7.2//libgcc.a(_udivdi3.o)
                                                  /home/leon/riotboard/arm-2012.09/bin/../lib/gcc/arm-none-eabi/4.7.2//libgcc.a(_divdi3.o)
                                                  /home/leon/git/swp-report/iMX6_Platform_SDK/output/mx6sdl/obds/evb_rev_a/obj/sdk/drivers/spi/test/imx_spi_nor_atmel.o
__aeabi_ul2d                                      /home/leon/riotboard/arm-2012.09/bin/../lib/gcc/arm-none-eabi/4.7.2//libgcc.a(_arm_addsubdf3.o)
__aeabi_uldivmod                                  /home/leon/riotboard/arm-2012.09/bin/../lib/gcc/arm-none-eabi/4.7.2//libgcc.a(_aeabi_uldivmod.o)
                                                  /home/leon/git/swp-report/iMX6_Platform_SDK/output/mx6sdl/lib/libsdk.a(runtime_support.o)
                                                  /home/leon/riotboard/arm-2012.09/bin/../arm-none-eabi/lib//libc.a(lib_a-svfiprintf.o)
                                                  /home/leon/riotboard/arm-2012.09/bin/../arm-none-eabi/lib//libc.a(lib_a-vfprintf.o)
                                                  /home/leon/riotboard/arm-2012.09/bin/../arm-none-eabi/lib//libc.a(lib_a-vfiprintf.o)
                                                  /home/leon/riotboard/arm-2012.09/bin/../arm-none-eabi/lib//libc.a(lib_a-svfprintf.o)
                                                  /home/leon/git/swp-report/iMX6_Platform_SDK/output/mx6sdl/lib/libsdk.a(timer.o)
__any_on                                          /home/leon/riotboard/arm-2012.09/bin/../arm-none-eabi/lib//libc.a(lib_a-mprec.o)
__ascii_wctomb                                    /home/leon/riotboard/arm-2012.09/bin/../arm-none-eabi/lib//libc.a(lib_a-wctomb_r.o)
__assert                                          /home/leon/riotboard/arm-2012.09/bin/../arm-none-eabi/lib//libc.a(lib_a-assert.o)
__assert_func                                     /home/leon/riotboard/arm-2012.09/bin/../arm-none-eabi/lib//libc.a(lib_a-assert.o)
                                                  /home/leon/git/swp-report/iMX6_Platform_SDK/output/mx6sdl/lib/libboard_evb_rev_a.a(usdhc_iomux_config.o)
                                                  /home/leon/git/swp-report/iMX6_Platform_SDK/output/mx6sdl/lib/libboard_evb_rev_a.a(uart_iomux_config.o)
                                                  /home/leon/git/swp-report/iMX6_Platform_SDK/output/mx6sdl/lib/libboard_evb_rev_a.a(ipu_iomux_config.o)
                                                  /home/leon/git/swp-report/iMX6_Platform_SDK/output/mx6sdl/lib/libboard_evb_rev_a.a(i2c_iomux_config.o)
                                                  /home/leon/git/swp-report/iMX6_Platform_SDK/output/mx6sdl/lib/libboard_evb_rev_a.a(ecspi_iomux_config.o)
                                                  /home/leon/git/swp-report/iMX6_Platform_SDK/output/mx6sdl/lib/libsdk.a(gic.o)
__b2d                                             /home/leon/riotboard/arm-2012.09/bin/../arm-none-eabi/lib//libc.a(lib_a-mprec.o)
__bss_end__                                       /home/leon/git/swp-report/iMX6_Platform_SDK/output/mx6sdl/lib/libsdk.a(startup.o)
__bss_start__                                     /home/leon/git/swp-report/iMX6_Platform_SDK/output/mx6sdl/lib/libsdk.a(startup.o)
__clzsi2                                          /home/leon/riotboard/arm-2012.09/bin/../lib/gcc/arm-none-eabi/4.7.2//libgcc.a(_clzsi2.o)
                                                  /home/leon/riotboard/arm-2012.09/bin/../lib/gcc/arm-none-eabi/4.7.2//libgcc.a(_udivdi3.o)
                                                  /home/leon/riotboard/arm-2012.09/bin/../lib/gcc/arm-none-eabi/4.7.2//libgcc.a(_divdi3.o)
__cmpdf2                                          /home/leon/riotboard/arm-2012.09/bin/../lib/gcc/arm-none-eabi/4.7.2//libgcc.a(_arm_cmpdf2.o)
__copybits                                        /home/leon/riotboard/arm-2012.09/bin/../arm-none-eabi/lib//libc.a(lib_a-mprec.o)
__ctype_ptr__                                     /home/leon/riotboard/arm-2012.09/bin/../arm-none-eabi/lib//libc.a(lib_a-ctype_.o)
                                                  /home/leon/riotboard/arm-2012.09/bin/../arm-none-eabi/lib//libc.a(lib_a-strncasecmp.o)
__d2b                                             /home/leon/riotboard/arm-2012.09/bin/../arm-none-eabi/lib//libc.a(lib_a-mprec.o)
                                                  /home/leon/riotboard/arm-2012.09/bin/../arm-none-eabi/lib//libc.a(lib_a-dtoa.o)
__deregister_frame_info                           /home/leon/riotboard/arm-2012.09/bin/../lib/gcc/arm-none-eabi/4.7.2//crtbegin.o
__divdf3                                          /home/leon/riotboard/arm-2012.09/bin/../lib/gcc/arm-none-eabi/4.7.2//libgcc.a(_arm_muldivdf3.o)
__divdi3                                          /home/leon/riotboard/arm-2012.09/bin/../lib/gcc/arm-none-eabi/4.7.2//libgcc.a(_divdi3.o)
                                                  /home/leon/riotboard/arm-2012.09/bin/../lib/gcc/arm-none-eabi/4.7.2//libgcc.a(bpabi.o)
__divsi3                                          /home/leon/riotboard/arm-2012.09/bin/../lib/gcc/arm-none-eabi/4.7.2//libgcc.a(_divsi3.o)
__dso_handle                                      /home/leon/riotboard/arm-2012.09/bin/../lib/gcc/arm-none-eabi/4.7.2//crtbegin.o
__env                                             /home/leon/git/swp-report/iMX6_Platform_SDK/output/mx6sdl/lib/libsdk.a(runtime_support.o)
__eqdf2                                           /home/leon/riotboard/arm-2012.09/bin/../lib/gcc/arm-none-eabi/4.7.2//libgcc.a(_arm_cmpdf2.o)
__extendsfdf2                                     /home/leon/riotboard/arm-2012.09/bin/../lib/gcc/arm-none-eabi/4.7.2//libgcc.a(_arm_addsubdf3.o)
__fixdfsi                                         /home/leon/riotboard/arm-2012.09/bin/../lib/gcc/arm-none-eabi/4.7.2//libgcc.a(_arm_fixdfsi.o)
__floatdidf                                       /home/leon/riotboard/arm-2012.09/bin/../lib/gcc/arm-none-eabi/4.7.2//libgcc.a(_arm_addsubdf3.o)
__floatsidf                                       /home/leon/riotboard/arm-2012.09/bin/../lib/gcc/arm-none-eabi/4.7.2//libgcc.a(_arm_addsubdf3.o)
__floatundidf                                     /home/leon/riotboard/arm-2012.09/bin/../lib/gcc/arm-none-eabi/4.7.2//libgcc.a(_arm_addsubdf3.o)
__floatunsidf                                     /home/leon/riotboard/arm-2012.09/bin/../lib/gcc/arm-none-eabi/4.7.2//libgcc.a(_arm_addsubdf3.o)
__fp_lock_all                                     /home/leon/riotboard/arm-2012.09/bin/../arm-none-eabi/lib//libc.a(lib_a-findfp.o)
__fp_unlock_all                                   /home/leon/riotboard/arm-2012.09/bin/../arm-none-eabi/lib//libc.a(lib_a-findfp.o)
__fpclassifyd                                     /home/leon/riotboard/arm-2012.09/bin/../arm-none-eabi/lib//libc.a(lib_a-s_fpclassify.o)
                                                  /home/leon/riotboard/arm-2012.09/bin/../arm-none-eabi/lib//libc.a(lib_a-vfprintf.o)
                                                  /home/leon/riotboard/arm-2012.09/bin/../arm-none-eabi/lib//libc.a(lib_a-svfprintf.o)
__gedf2                                           /home/leon/riotboard/arm-2012.09/bin/../lib/gcc/arm-none-eabi/4.7.2//libgcc.a(_arm_cmpdf2.o)
__gnu_ldivmod_helper                              /home/leon/riotboard/arm-2012.09/bin/../lib/gcc/arm-none-eabi/4.7.2//libgcc.a(bpabi.o)
__gnu_uldivmod_helper                             /home/leon/riotboard/arm-2012.09/bin/../lib/gcc/arm-none-eabi/4.7.2//libgcc.a(bpabi.o)
                                                  /home/leon/riotboard/arm-2012.09/bin/../lib/gcc/arm-none-eabi/4.7.2//libgcc.a(_aeabi_uldivmod.o)
__gtdf2                                           /home/leon/riotboard/arm-2012.09/bin/../lib/gcc/arm-none-eabi/4.7.2//libgcc.a(_arm_cmpdf2.o)
__hab_data                                        /home/leon/git/swp-report/iMX6_Platform_SDK/output/mx6sdl/obds/evb_rev_a/obj/apps/common/ivt.o
__hi0bits                                         /home/leon/riotboard/arm-2012.09/bin/../arm-none-eabi/lib//libc.a(lib_a-mprec.o)
                                                  /home/leon/riotboard/arm-2012.09/bin/../arm-none-eabi/lib//libc.a(lib_a-dtoa.o)
__i2b                                             /home/leon/riotboard/arm-2012.09/bin/../arm-none-eabi/lib//libc.a(lib_a-mprec.o)
                                                  /home/leon/riotboard/arm-2012.09/bin/../arm-none-eabi/lib//libc.a(lib_a-dtoa.o)
__init_array_end                                  /home/leon/riotboard/arm-2012.09/bin/../arm-none-eabi/lib//libc.a(lib_a-init.o)
__init_array_start                                /home/leon/riotboard/arm-2012.09/bin/../arm-none-eabi/lib//libc.a(lib_a-init.o)
__l1_page_table_start                             /home/leon/git/swp-report/iMX6_Platform_SDK/output/mx6sdl/lib/libsdk.a(mmu.o)
__ledf2                                           /home/leon/riotboard/arm-2012.09/bin/../lib/gcc/arm-none-eabi/4.7.2//libgcc.a(_arm_cmpdf2.o)
__libc_init_array                                 /home/leon/riotboard/arm-2012.09/bin/../arm-none-eabi/lib//libc.a(lib_a-init.o)
                                                  /home/leon/git/swp-report/iMX6_Platform_SDK/output/mx6sdl/lib/libsdk.a(startup.o)
__lo0bits                                         /home/leon/riotboard/arm-2012.09/bin/../arm-none-eabi/lib//libc.a(lib_a-mprec.o)
__locale_charset                                  /home/leon/riotboard/arm-2012.09/bin/../arm-none-eabi/lib//libc.a(lib_a-locale.o)
                                                  /home/leon/riotboard/arm-2012.09/bin/../arm-none-eabi/lib//libc.a(lib_a-wctomb_r.o)
                                                  /home/leon/riotboard/arm-2012.09/bin/../arm-none-eabi/lib//libc.a(lib_a-wcrtomb.o)
__locale_cjk_lang                                 /home/leon/riotboard/arm-2012.09/bin/../arm-none-eabi/lib//libc.a(lib_a-locale.o)
__locale_mb_cur_max                               /home/leon/riotboard/arm-2012.09/bin/../arm-none-eabi/lib//libc.a(lib_a-locale.o)
                                                  /home/leon/riotboard/arm-2012.09/bin/../arm-none-eabi/lib//libc.a(lib_a-fputwc.o)
__locale_msgcharset                               /home/leon/riotboard/arm-2012.09/bin/../arm-none-eabi/lib//libc.a(lib_a-locale.o)
__lshift                                          /home/leon/riotboard/arm-2012.09/bin/../arm-none-eabi/lib//libc.a(lib_a-mprec.o)
                                                  /home/leon/riotboard/arm-2012.09/bin/../arm-none-eabi/lib//libc.a(lib_a-dtoa.o)
__ltdf2                                           /home/leon/riotboard/arm-2012.09/bin/../lib/gcc/arm-none-eabi/4.7.2//libgcc.a(_arm_cmpdf2.o)
__malloc_av_                                      /home/leon/riotboard/arm-2012.09/bin/../arm-none-eabi/lib//libc.a(lib_a-mallocr.o)
                                                  /home/leon/riotboard/arm-2012.09/bin/../arm-none-eabi/lib//libc.a(lib_a-freer.o)
                                                  /home/leon/riotboard/arm-2012.09/bin/../arm-none-eabi/lib//libc.a(lib_a-reallocr.o)
__malloc_current_mallinfo                         /home/leon/riotboard/arm-2012.09/bin/../arm-none-eabi/lib//libc.a(lib_a-mallocr.o)
                                                  /home/leon/riotboard/arm-2012.09/bin/../arm-none-eabi/lib//libc.a(lib_a-freer.o)
__malloc_lock                                     /home/leon/riotboard/arm-2012.09/bin/../arm-none-eabi/lib//libc.a(lib_a-mlock.o)
                                                  /home/leon/riotboard/arm-2012.09/bin/../arm-none-eabi/lib//libc.a(lib_a-freer.o)
                                                  /home/leon/riotboard/arm-2012.09/bin/../arm-none-eabi/lib//libc.a(lib_a-reallocr.o)
                                                  /home/leon/riotboard/arm-2012.09/bin/../arm-none-eabi/lib//libc.a(lib_a-mallocr.o)
__malloc_max_sbrked_mem                           /home/leon/riotboard/arm-2012.09/bin/../arm-none-eabi/lib//libc.a(lib_a-mallocr.o)
__malloc_max_total_mem                            /home/leon/riotboard/arm-2012.09/bin/../arm-none-eabi/lib//libc.a(lib_a-mallocr.o)
__malloc_sbrk_base                                /home/leon/riotboard/arm-2012.09/bin/../arm-none-eabi/lib//libc.a(lib_a-mallocr.o)
                                                  /home/leon/riotboard/arm-2012.09/bin/../arm-none-eabi/lib//libc.a(lib_a-freer.o)
__malloc_top_pad                                  /home/leon/riotboard/arm-2012.09/bin/../arm-none-eabi/lib//libc.a(lib_a-mallocr.o)
                                                  /home/leon/riotboard/arm-2012.09/bin/../arm-none-eabi/lib//libc.a(lib_a-freer.o)
__malloc_trim_threshold                           /home/leon/riotboard/arm-2012.09/bin/../arm-none-eabi/lib//libc.a(lib_a-mallocr.o)
                                                  /home/leon/riotboard/arm-2012.09/bin/../arm-none-eabi/lib//libc.a(lib_a-freer.o)
__malloc_unlock                                   /home/leon/riotboard/arm-2012.09/bin/../arm-none-eabi/lib//libc.a(lib_a-mlock.o)
                                                  /home/leon/riotboard/arm-2012.09/bin/../arm-none-eabi/lib//libc.a(lib_a-freer.o)
                                                  /home/leon/riotboard/arm-2012.09/bin/../arm-none-eabi/lib//libc.a(lib_a-reallocr.o)
                                                  /home/leon/riotboard/arm-2012.09/bin/../arm-none-eabi/lib//libc.a(lib_a-mallocr.o)
__mb_cur_max                                      /home/leon/riotboard/arm-2012.09/bin/../arm-none-eabi/lib//libc.a(lib_a-locale.o)
__mcmp                                            /home/leon/riotboard/arm-2012.09/bin/../arm-none-eabi/lib//libc.a(lib_a-mprec.o)
                                                  /home/leon/riotboard/arm-2012.09/bin/../arm-none-eabi/lib//libc.a(lib_a-dtoa.o)
__mdiff                                           /home/leon/riotboard/arm-2012.09/bin/../arm-none-eabi/lib//libc.a(lib_a-mprec.o)
                                                  /home/leon/riotboard/arm-2012.09/bin/../arm-none-eabi/lib//libc.a(lib_a-dtoa.o)
__mlocale_changed                                 /home/leon/riotboard/arm-2012.09/bin/../arm-none-eabi/lib//libc.a(lib_a-locale.o)
__mprec_bigtens                                   /home/leon/riotboard/arm-2012.09/bin/../arm-none-eabi/lib//libc.a(lib_a-mprec.o)
                                                  /home/leon/riotboard/arm-2012.09/bin/../arm-none-eabi/lib//libc.a(lib_a-dtoa.o)
__mprec_tens                                      /home/leon/riotboard/arm-2012.09/bin/../arm-none-eabi/lib//libc.a(lib_a-mprec.o)
                                                  /home/leon/riotboard/arm-2012.09/bin/../arm-none-eabi/lib//libc.a(lib_a-dtoa.o)
__mprec_tinytens                                  /home/leon/riotboard/arm-2012.09/bin/../arm-none-eabi/lib//libc.a(lib_a-mprec.o)
__muldf3                                          /home/leon/riotboard/arm-2012.09/bin/../lib/gcc/arm-none-eabi/4.7.2//libgcc.a(_arm_muldivdf3.o)
__multadd                                         /home/leon/riotboard/arm-2012.09/bin/../arm-none-eabi/lib//libc.a(lib_a-mprec.o)
                                                  /home/leon/riotboard/arm-2012.09/bin/../arm-none-eabi/lib//libc.a(lib_a-dtoa.o)
__multiply                                        /home/leon/riotboard/arm-2012.09/bin/../arm-none-eabi/lib//libc.a(lib_a-mprec.o)
                                                  /home/leon/riotboard/arm-2012.09/bin/../arm-none-eabi/lib//libc.a(lib_a-dtoa.o)
__nedf2                                           /home/leon/riotboard/arm-2012.09/bin/../lib/gcc/arm-none-eabi/4.7.2//libgcc.a(_arm_cmpdf2.o)
__nlocale_changed                                 /home/leon/riotboard/arm-2012.09/bin/../arm-none-eabi/lib//libc.a(lib_a-locale.o)
__pow5mult                                        /home/leon/riotboard/arm-2012.09/bin/../arm-none-eabi/lib//libc.a(lib_a-mprec.o)
                                                  /home/leon/riotboard/arm-2012.09/bin/../arm-none-eabi/lib//libc.a(lib_a-dtoa.o)
__preinit_array_end                               /home/leon/riotboard/arm-2012.09/bin/../arm-none-eabi/lib//libc.a(lib_a-init.o)
__preinit_array_start                             /home/leon/riotboard/arm-2012.09/bin/../arm-none-eabi/lib//libc.a(lib_a-init.o)
__ram_vectors_end                                 /home/leon/git/swp-report/iMX6_Platform_SDK/output/mx6sdl/lib/libsdk.a(startup.o)
__ram_vectors_start                               /home/leon/git/swp-report/iMX6_Platform_SDK/output/mx6sdl/lib/libsdk.a(startup.o)
__ratio                                           /home/leon/riotboard/arm-2012.09/bin/../arm-none-eabi/lib//libc.a(lib_a-mprec.o)
__register_frame_info                             /home/leon/riotboard/arm-2012.09/bin/../lib/gcc/arm-none-eabi/4.7.2//crtbegin.o
__s2b                                             /home/leon/riotboard/arm-2012.09/bin/../arm-none-eabi/lib//libc.a(lib_a-mprec.o)
__sclose                                          /home/leon/riotboard/arm-2012.09/bin/../arm-none-eabi/lib//libc.a(lib_a-stdio.o)
                                                  /home/leon/riotboard/arm-2012.09/bin/../arm-none-eabi/lib//libc.a(lib_a-findfp.o)
__seofread                                        /home/leon/riotboard/arm-2012.09/bin/../arm-none-eabi/lib//libc.a(lib_a-stdio.o)
__sfmoreglue                                      /home/leon/riotboard/arm-2012.09/bin/../arm-none-eabi/lib//libc.a(lib_a-findfp.o)
__sfp                                             /home/leon/riotboard/arm-2012.09/bin/../arm-none-eabi/lib//libc.a(lib_a-findfp.o)
__sfp_lock_acquire                                /home/leon/riotboard/arm-2012.09/bin/../arm-none-eabi/lib//libc.a(lib_a-findfp.o)
                                                  /home/leon/riotboard/arm-2012.09/bin/../arm-none-eabi/lib//libc.a(lib_a-fclose.o)
                                                  /home/leon/riotboard/arm-2012.09/bin/../arm-none-eabi/lib//libc.a(lib_a-fwalk.o)
__sfp_lock_release                                /home/leon/riotboard/arm-2012.09/bin/../arm-none-eabi/lib//libc.a(lib_a-findfp.o)
                                                  /home/leon/riotboard/arm-2012.09/bin/../arm-none-eabi/lib//libc.a(lib_a-fclose.o)
                                                  /home/leon/riotboard/arm-2012.09/bin/../arm-none-eabi/lib//libc.a(lib_a-fwalk.o)
__sfvwrite_r                                      /home/leon/riotboard/arm-2012.09/bin/../arm-none-eabi/lib//libc.a(lib_a-fvwrite.o)
                                                  /home/leon/riotboard/arm-2012.09/bin/../arm-none-eabi/lib//libc.a(lib_a-vfiprintf.o)
__sigtramp                                        /home/leon/riotboard/arm-2012.09/bin/../arm-none-eabi/lib//libc.a(lib_a-signal.o)
__sigtramp_r                                      /home/leon/riotboard/arm-2012.09/bin/../arm-none-eabi/lib//libc.a(lib_a-signal.o)
__sinit                                           /home/leon/riotboard/arm-2012.09/bin/../arm-none-eabi/lib//libc.a(lib_a-findfp.o)
                                                  /home/leon/riotboard/arm-2012.09/bin/../arm-none-eabi/lib//libc.a(lib_a-fclose.o)
                                                  /home/leon/riotboard/arm-2012.09/bin/../arm-none-eabi/lib//libc.a(lib_a-refill.o)
                                                  /home/leon/riotboard/arm-2012.09/bin/../arm-none-eabi/lib//libc.a(lib_a-fputwc.o)
                                                  /home/leon/riotboard/arm-2012.09/bin/../arm-none-eabi/lib//libc.a(lib_a-fflush.o)
                                                  /home/leon/riotboard/arm-2012.09/bin/../arm-none-eabi/lib//libc.a(lib_a-wsetup.o)
                                                  /home/leon/riotboard/arm-2012.09/bin/../arm-none-eabi/lib//libc.a(lib_a-wbuf.o)
                                                  /home/leon/riotboard/arm-2012.09/bin/../arm-none-eabi/lib//libc.a(lib_a-vfprintf.o)
                                                  /home/leon/riotboard/arm-2012.09/bin/../arm-none-eabi/lib//libc.a(lib_a-vfiprintf.o)
                                                  /home/leon/riotboard/arm-2012.09/bin/../arm-none-eabi/lib//libc.a(lib_a-rget.o)
                                                  /home/leon/riotboard/arm-2012.09/bin/../arm-none-eabi/lib//libc.a(lib_a-putc.o)
                                                  /home/leon/riotboard/arm-2012.09/bin/../arm-none-eabi/lib//libc.a(lib_a-fputc.o)
__sinit_lock_acquire                              /home/leon/riotboard/arm-2012.09/bin/../arm-none-eabi/lib//libc.a(lib_a-findfp.o)
__sinit_lock_release                              /home/leon/riotboard/arm-2012.09/bin/../arm-none-eabi/lib//libc.a(lib_a-findfp.o)
__smakebuf_r                                      /home/leon/riotboard/arm-2012.09/bin/../arm-none-eabi/lib//libc.a(lib_a-makebuf.o)
                                                  /home/leon/riotboard/arm-2012.09/bin/../arm-none-eabi/lib//libc.a(lib_a-refill.o)
                                                  /home/leon/riotboard/arm-2012.09/bin/../arm-none-eabi/lib//libc.a(lib_a-wsetup.o)
__sprint_r                                        /home/leon/riotboard/arm-2012.09/bin/../arm-none-eabi/lib//libc.a(lib_a-vfiprintf.o)
                                                  /home/leon/riotboard/arm-2012.09/bin/../arm-none-eabi/lib//libc.a(lib_a-vfprintf.o)
__sread                                           /home/leon/riotboard/arm-2012.09/bin/../arm-none-eabi/lib//libc.a(lib_a-stdio.o)
                                                  /home/leon/riotboard/arm-2012.09/bin/../arm-none-eabi/lib//libc.a(lib_a-findfp.o)
__srefill_r                                       /home/leon/riotboard/arm-2012.09/bin/../arm-none-eabi/lib//libc.a(lib_a-refill.o)
                                                  /home/leon/riotboard/arm-2012.09/bin/../arm-none-eabi/lib//libc.a(lib_a-rget.o)
__srget                                           /home/leon/riotboard/arm-2012.09/bin/../arm-none-eabi/lib//libc.a(lib_a-rget.o)
__srget_r                                         /home/leon/riotboard/arm-2012.09/bin/../arm-none-eabi/lib//libc.a(lib_a-rget.o)
                                                  /home/leon/git/swp-report/iMX6_Platform_SDK/output/mx6sdl/lib/libsdk.a(usb_common.o)
                                                  /home/leon/git/swp-report/iMX6_Platform_SDK/output/mx6sdl/lib/libsdk.a(system_util.o)
                                                  /home/leon/git/swp-report/iMX6_Platform_SDK/output/mx6sdl/lib/libsdk.a(menu.o)
                                                  /home/leon/git/swp-report/iMX6_Platform_SDK/output/mx6sdl/obds/evb_rev_a/obj/sdk/drivers/usdhc/test/usdhc_test.o
                                                  /home/leon/git/swp-report/iMX6_Platform_SDK/output/mx6sdl/obds/evb_rev_a/obj/sdk/drivers/uart/test/uart_test.o
                                                  /home/leon/git/swp-report/iMX6_Platform_SDK/output/mx6sdl/obds/evb_rev_a/obj/sdk/drivers/ipu/test/ips_display.o
                                                  /home/leon/git/swp-report/iMX6_Platform_SDK/output/mx6sdl/obds/evb_rev_a/obj/sdk/drivers/epdc/test/epdc_test.o
                                                  /home/leon/git/swp-report/iMX6_Platform_SDK/output/mx6sdl/obds/evb_rev_a/obj/sdk/drivers/camera/test/sensor_capture.o
                                                  /home/leon/git/swp-report/iMX6_Platform_SDK/output/mx6sdl/obds/evb_rev_a/obj/sdk/drivers/camera/test/csi_test_mode.o
                                                  /home/leon/git/swp-report/iMX6_Platform_SDK/output/mx6sdl/obds/evb_rev_a/obj/sdk/drivers/camera/test/camera_test.o
                                                  /home/leon/git/swp-report/iMX6_Platform_SDK/output/mx6sdl/obds/evb_rev_a/obj/sdk/drivers/camera/test/adv7180_capture.o
                                                  /home/leon/git/swp-report/iMX6_Platform_SDK/output/mx6sdl/obds/evb_rev_a/obj/apps/obds/src/tests/video_dec_adv7180.o
                                                  /home/leon/git/swp-report/iMX6_Platform_SDK/output/mx6sdl/obds/evb_rev_a/obj/apps/obds/src/tests/touch_screen_max11801.o
                                                  /home/leon/git/swp-report/iMX6_Platform_SDK/output/mx6sdl/obds/evb_rev_a/obj/apps/obds/src/tests/touch_screen.o
                                                  /home/leon/git/swp-report/iMX6_Platform_SDK/output/mx6sdl/obds/evb_rev_a/obj/apps/obds/src/tests/program_mac_address.o
                                                  /home/leon/git/swp-report/iMX6_Platform_SDK/output/mx6sdl/obds/evb_rev_a/obj/apps/obds/src/tests/pmic_lt3589.o
                                                  /home/leon/git/swp-report/iMX6_Platform_SDK/output/mx6sdl/obds/evb_rev_a/obj/apps/obds/src/tests/i2c_device_id_check_p1003_tsc.o
                                                  /home/leon/git/swp-report/iMX6_Platform_SDK/output/mx6sdl/obds/evb_rev_a/obj/apps/obds/src/tests/i2c_device_id_check_mma8451.o
                                                  /home/leon/git/swp-report/iMX6_Platform_SDK/output/mx6sdl/obds/evb_rev_a/obj/apps/obds/src/tests/i2c_device_id_check_mma8450.o
                                                  /home/leon/git/swp-report/iMX6_Platform_SDK/output/mx6sdl/obds/evb_rev_a/obj/apps/obds/src/tests/i2c_check_light_sensor_isl29023.o
                                                  /home/leon/git/swp-report/iMX6_Platform_SDK/output/mx6sdl/obds/evb_rev_a/obj/apps/obds/src/tests/gpio_led.o
                                                  /home/leon/git/swp-report/iMX6_Platform_SDK/output/mx6sdl/obds/evb_rev_a/obj/apps/obds/src/tests/display_test.o
                                                  /home/leon/git/swp-report/iMX6_Platform_SDK/output/mx6sdl/obds/evb_rev_a/obj/apps/obds/src/tests/audio_ssi_test.o
                                                  /home/leon/git/swp-report/iMX6_Platform_SDK/output/mx6sdl/obds/evb_rev_a/obj/apps/obds/src/tests/audio_esai_test.o
                                                  /home/leon/git/swp-report/iMX6_Platform_SDK/output/mx6sdl/obds/evb_rev_a/obj/apps/obds/src/tests/android_buttons_test.o
__sseek                                           /home/leon/riotboard/arm-2012.09/bin/../arm-none-eabi/lib//libc.a(lib_a-stdio.o)
                                                  /home/leon/riotboard/arm-2012.09/bin/../arm-none-eabi/lib//libc.a(lib_a-makebuf.o)
                                                  /home/leon/riotboard/arm-2012.09/bin/../arm-none-eabi/lib//libc.a(lib_a-findfp.o)
__ssprint_r                                       /home/leon/riotboard/arm-2012.09/bin/../arm-none-eabi/lib//libc.a(lib_a-svfiprintf.o)
                                                  /home/leon/riotboard/arm-2012.09/bin/../arm-none-eabi/lib//libc.a(lib_a-svfprintf.o)
__stacks_start                                    /home/leon/git/swp-report/iMX6_Platform_SDK/output/mx6sdl/lib/libsdk.a(startup.o)
__start_boot_data                                 /home/leon/git/swp-report/iMX6_Platform_SDK/output/mx6sdl/obds/evb_rev_a/obj/apps/common/ivt.o
__strtok_r                                        /home/leon/riotboard/arm-2012.09/bin/../arm-none-eabi/lib//libc.a(lib_a-strtok_r.o)
                                                  /home/leon/riotboard/arm-2012.09/bin/../arm-none-eabi/lib//libc.a(lib_a-strtok.o)
__subdf3                                          /home/leon/riotboard/arm-2012.09/bin/../lib/gcc/arm-none-eabi/4.7.2//libgcc.a(_arm_addsubdf3.o)
__swbuf                                           /home/leon/riotboard/arm-2012.09/bin/../arm-none-eabi/lib//libc.a(lib_a-wbuf.o)
__swbuf_r                                         /home/leon/riotboard/arm-2012.09/bin/../arm-none-eabi/lib//libc.a(lib_a-wbuf.o)
                                                  /home/leon/riotboard/arm-2012.09/bin/../arm-none-eabi/lib//libc.a(lib_a-fputwc.o)
                                                  /home/leon/riotboard/arm-2012.09/bin/../arm-none-eabi/lib//libc.a(lib_a-putc.o)
__swrite                                          /home/leon/riotboard/arm-2012.09/bin/../arm-none-eabi/lib//libc.a(lib_a-stdio.o)
                                                  /home/leon/riotboard/arm-2012.09/bin/../arm-none-eabi/lib//libc.a(lib_a-findfp.o)
__swsetup_r                                       /home/leon/riotboard/arm-2012.09/bin/../arm-none-eabi/lib//libc.a(lib_a-wsetup.o)
                                                  /home/leon/riotboard/arm-2012.09/bin/../arm-none-eabi/lib//libc.a(lib_a-fvwrite.o)
                                                  /home/leon/riotboard/arm-2012.09/bin/../arm-none-eabi/lib//libc.a(lib_a-wbuf.o)
                                                  /home/leon/riotboard/arm-2012.09/bin/../arm-none-eabi/lib//libc.a(lib_a-vfprintf.o)
                                                  /home/leon/riotboard/arm-2012.09/bin/../arm-none-eabi/lib//libc.a(lib_a-vfiprintf.o)
__udivdi3                                         /home/leon/riotboard/arm-2012.09/bin/../lib/gcc/arm-none-eabi/4.7.2//libgcc.a(_udivdi3.o)
                                                  /home/leon/riotboard/arm-2012.09/bin/../lib/gcc/arm-none-eabi/4.7.2//libgcc.a(bpabi.o)
__udivsi3                                         /home/leon/riotboard/arm-2012.09/bin/../lib/gcc/arm-none-eabi/4.7.2//libgcc.a(_udivsi3.o)
__ulp                                             /home/leon/riotboard/arm-2012.09/bin/../arm-none-eabi/lib//libc.a(lib_a-mprec.o)
__wctomb                                          /home/leon/riotboard/arm-2012.09/bin/../arm-none-eabi/lib//libc.a(lib_a-wctomb_r.o)
                                                  /home/leon/riotboard/arm-2012.09/bin/../arm-none-eabi/lib//libc.a(lib_a-wcrtomb.o)
_calloc_r                                         /home/leon/riotboard/arm-2012.09/bin/../arm-none-eabi/lib//libc.a(lib_a-callocr.o)
                                                  /home/leon/riotboard/arm-2012.09/bin/../arm-none-eabi/lib//libc.a(lib_a-mprec.o)
_cleanup                                          /home/leon/riotboard/arm-2012.09/bin/../arm-none-eabi/lib//libc.a(lib_a-findfp.o)
_cleanup_r                                        /home/leon/riotboard/arm-2012.09/bin/../arm-none-eabi/lib//libc.a(lib_a-findfp.o)
                                                  /home/leon/riotboard/arm-2012.09/bin/../arm-none-eabi/lib//libc.a(lib_a-makebuf.o)
_close                                            /home/leon/git/swp-report/iMX6_Platform_SDK/output/mx6sdl/lib/libsdk.a(runtime_support.o)
                                                  /home/leon/riotboard/arm-2012.09/bin/../arm-none-eabi/lib//libc.a(lib_a-closer.o)
_close_r                                          /home/leon/riotboard/arm-2012.09/bin/../arm-none-eabi/lib//libc.a(lib_a-closer.o)
                                                  /home/leon/riotboard/arm-2012.09/bin/../arm-none-eabi/lib//libc.a(lib_a-stdio.o)
_ctype_                                           /home/leon/riotboard/arm-2012.09/bin/../arm-none-eabi/lib//libc.a(lib_a-ctype_.o)
_dtoa_r                                           /home/leon/riotboard/arm-2012.09/bin/../arm-none-eabi/lib//libc.a(lib_a-dtoa.o)
                                                  /home/leon/riotboard/arm-2012.09/bin/../arm-none-eabi/lib//libc.a(lib_a-vfprintf.o)
                                                  /home/leon/riotboard/arm-2012.09/bin/../arm-none-eabi/lib//libc.a(lib_a-svfprintf.o)
_execve                                           /home/leon/git/swp-report/iMX6_Platform_SDK/output/mx6sdl/lib/libsdk.a(runtime_support.o)
_exit                                             /home/leon/git/swp-report/iMX6_Platform_SDK/output/mx6sdl/lib/libsdk.a(runtime_support.o)
                                                  /home/leon/riotboard/arm-2012.09/bin/../arm-none-eabi/lib//libc.a(lib_a-abort.o)
_fclose_r                                         /home/leon/riotboard/arm-2012.09/bin/../arm-none-eabi/lib//libc.a(lib_a-fclose.o)
_fflush_r                                         /home/leon/riotboard/arm-2012.09/bin/../arm-none-eabi/lib//libc.a(lib_a-fflush.o)
                                                  /home/leon/riotboard/arm-2012.09/bin/../arm-none-eabi/lib//libc.a(lib_a-fclose.o)
                                                  /home/leon/riotboard/arm-2012.09/bin/../arm-none-eabi/lib//libc.a(lib_a-refill.o)
                                                  /home/leon/riotboard/arm-2012.09/bin/../arm-none-eabi/lib//libc.a(lib_a-fvwrite.o)
                                                  /home/leon/riotboard/arm-2012.09/bin/../arm-none-eabi/lib//libc.a(lib_a-wbuf.o)
                                                  /home/leon/riotboard/arm-2012.09/bin/../arm-none-eabi/lib//libc.a(lib_a-vfprintf.o)
                                                  /home/leon/riotboard/arm-2012.09/bin/../arm-none-eabi/lib//libc.a(lib_a-vfiprintf.o)
_fini                                             /home/leon/riotboard/arm-2012.09/bin/../lib/gcc/arm-none-eabi/4.7.2//crti.o
_fiprintf_r                                       /home/leon/riotboard/arm-2012.09/bin/../arm-none-eabi/lib//libc.a(lib_a-fiprintf.o)
_fork                                             /home/leon/git/swp-report/iMX6_Platform_SDK/output/mx6sdl/lib/libsdk.a(runtime_support.o)
_fputc_r                                          /home/leon/riotboard/arm-2012.09/bin/../arm-none-eabi/lib//libc.a(lib_a-fputc.o)
_fputwc_r                                         /home/leon/riotboard/arm-2012.09/bin/../arm-none-eabi/lib//libc.a(lib_a-fputwc.o)
                                                  /home/leon/riotboard/arm-2012.09/bin/../arm-none-eabi/lib//libc.a(lib_a-vfiprintf.o)
_free_r                                           /home/leon/riotboard/arm-2012.09/bin/../arm-none-eabi/lib//libc.a(lib_a-freer.o)
                                                  /home/leon/riotboard/arm-2012.09/bin/../arm-none-eabi/lib//libc.a(lib_a-fclose.o)
                                                  /home/leon/riotboard/arm-2012.09/bin/../arm-none-eabi/lib//libc.a(lib_a-svfiprintf.o)
                                                  /home/leon/riotboard/arm-2012.09/bin/../arm-none-eabi/lib//libc.a(lib_a-refill.o)
                                                  /home/leon/riotboard/arm-2012.09/bin/../arm-none-eabi/lib//libc.a(lib_a-reent.o)
                                                  /home/leon/riotboard/arm-2012.09/bin/../arm-none-eabi/lib//libc.a(lib_a-fvwrite.o)
                                                  /home/leon/riotboard/arm-2012.09/bin/../arm-none-eabi/lib//libc.a(lib_a-fflush.o)
                                                  /home/leon/riotboard/arm-2012.09/bin/../arm-none-eabi/lib//libc.a(lib_a-wsetup.o)
                                                  /home/leon/riotboard/arm-2012.09/bin/../arm-none-eabi/lib//libc.a(lib_a-reallocr.o)
                                                  /home/leon/riotboard/arm-2012.09/bin/../arm-none-eabi/lib//libc.a(lib_a-mallocr.o)
                                                  /home/leon/riotboard/arm-2012.09/bin/../arm-none-eabi/lib//libc.a(lib_a-malloc.o)
_fstat                                            /home/leon/git/swp-report/iMX6_Platform_SDK/output/mx6sdl/lib/libsdk.a(runtime_support.o)
                                                  /home/leon/riotboard/arm-2012.09/bin/../arm-none-eabi/lib//libc.a(lib_a-fstatr.o)
_fstat_r                                          /home/leon/riotboard/arm-2012.09/bin/../arm-none-eabi/lib//libc.a(lib_a-fstatr.o)
                                                  /home/leon/riotboard/arm-2012.09/bin/../arm-none-eabi/lib//libc.a(lib_a-makebuf.o)
_fwalk                                            /home/leon/riotboard/arm-2012.09/bin/../arm-none-eabi/lib//libc.a(lib_a-fwalk.o)
                                                  /home/leon/riotboard/arm-2012.09/bin/../arm-none-eabi/lib//libc.a(lib_a-refill.o)
                                                  /home/leon/riotboard/arm-2012.09/bin/../arm-none-eabi/lib//libc.a(lib_a-findfp.o)
_fwalk_reent                                      /home/leon/riotboard/arm-2012.09/bin/../arm-none-eabi/lib//libc.a(lib_a-fwalk.o)
                                                  /home/leon/riotboard/arm-2012.09/bin/../arm-none-eabi/lib//libc.a(lib_a-fflush.o)
_getpid                                           /home/leon/git/swp-report/iMX6_Platform_SDK/output/mx6sdl/lib/libsdk.a(runtime_support.o)
                                                  /home/leon/riotboard/arm-2012.09/bin/../arm-none-eabi/lib//libc.a(lib_a-signalr.o)
_getpid_r                                         /home/leon/riotboard/arm-2012.09/bin/../arm-none-eabi/lib//libc.a(lib_a-signalr.o)
                                                  /home/leon/riotboard/arm-2012.09/bin/../arm-none-eabi/lib//libc.a(lib_a-signal.o)
_gettimeofday                                     /home/leon/git/swp-report/iMX6_Platform_SDK/output/mx6sdl/lib/libsdk.a(runtime_support.o)
_global_impure_ptr                                /home/leon/riotboard/arm-2012.09/bin/../arm-none-eabi/lib//libc.a(lib_a-impure.o)
                                                  /home/leon/riotboard/arm-2012.09/bin/../arm-none-eabi/lib//libc.a(lib_a-refill.o)
                                                  /home/leon/riotboard/arm-2012.09/bin/../arm-none-eabi/lib//libc.a(lib_a-findfp.o)
                                                  /home/leon/riotboard/arm-2012.09/bin/../arm-none-eabi/lib//libc.a(lib_a-fflush.o)
_image_size                                       /home/leon/git/swp-report/iMX6_Platform_SDK/output/mx6sdl/obds/evb_rev_a/obj/apps/common/ivt.o
_impure_ptr                                       /home/leon/riotboard/arm-2012.09/bin/../arm-none-eabi/lib//libc.a(lib_a-impure.o)
                                                  /home/leon/riotboard/arm-2012.09/bin/../arm-none-eabi/lib//libc.a(lib_a-fclose.o)
                                                  /home/leon/riotboard/arm-2012.09/bin/../arm-none-eabi/lib//libc.a(lib_a-wcrtomb.o)
                                                  /home/leon/riotboard/arm-2012.09/bin/../arm-none-eabi/lib//libc.a(lib_a-signal.o)
                                                  /home/leon/riotboard/arm-2012.09/bin/../arm-none-eabi/lib//libc.a(lib_a-reent.o)
                                                  /home/leon/riotboard/arm-2012.09/bin/../arm-none-eabi/lib//libc.a(lib_a-locale.o)
                                                  /home/leon/riotboard/arm-2012.09/bin/../arm-none-eabi/lib//libc.a(lib_a-fputwc.o)
                                                  /home/leon/riotboard/arm-2012.09/bin/../arm-none-eabi/lib//libc.a(lib_a-findfp.o)
                                                  /home/leon/riotboard/arm-2012.09/bin/../arm-none-eabi/lib//libc.a(lib_a-fflush.o)
                                                  /home/leon/riotboard/arm-2012.09/bin/../arm-none-eabi/lib//libc.a(lib_a-wsetup.o)
                                                  /home/leon/riotboard/arm-2012.09/bin/../arm-none-eabi/lib//libc.a(lib_a-wbuf.o)
                                                  /home/leon/riotboard/arm-2012.09/bin/../arm-none-eabi/lib//libc.a(lib_a-vprintf.o)
                                                  /home/leon/riotboard/arm-2012.09/bin/../arm-none-eabi/lib//libc.a(lib_a-vfprintf.o)
                                                  /home/leon/riotboard/arm-2012.09/bin/../arm-none-eabi/lib//libc.a(lib_a-vfiprintf.o)
                                                  /home/leon/riotboard/arm-2012.09/bin/../arm-none-eabi/lib//libc.a(lib_a-strtok.o)
                                                  /home/leon/riotboard/arm-2012.09/bin/../arm-none-eabi/lib//libc.a(lib_a-sprintf.o)
                                                  /home/leon/riotboard/arm-2012.09/bin/../arm-none-eabi/lib//libc.a(lib_a-rget.o)
                                                  /home/leon/riotboard/arm-2012.09/bin/../arm-none-eabi/lib//libc.a(lib_a-realloc.o)
                                                  /home/leon/riotboard/arm-2012.09/bin/../arm-none-eabi/lib//libc.a(lib_a-putc.o)
                                                  /home/leon/riotboard/arm-2012.09/bin/../arm-none-eabi/lib//libc.a(lib_a-printf.o)
                                                  /home/leon/riotboard/arm-2012.09/bin/../arm-none-eabi/lib//libc.a(lib_a-malloc.o)
                                                  /home/leon/riotboard/arm-2012.09/bin/../arm-none-eabi/lib//libc.a(lib_a-fputc.o)
                                                  /home/leon/riotboard/arm-2012.09/bin/../arm-none-eabi/lib//libc.a(lib_a-fiprintf.o)
                                                  /home/leon/riotboard/arm-2012.09/bin/../arm-none-eabi/lib//libc.a(lib_a-assert.o)
                                                  /home/leon/git/swp-report/iMX6_Platform_SDK/output/mx6sdl/lib/libsdk.a(usb_common.o)
                                                  /home/leon/git/swp-report/iMX6_Platform_SDK/output/mx6sdl/lib/libsdk.a(system_util.o)
                                                  /home/leon/git/swp-report/iMX6_Platform_SDK/output/mx6sdl/lib/libsdk.a(menu.o)
                                                  /home/leon/git/swp-report/iMX6_Platform_SDK/output/mx6sdl/obds/evb_rev_a/obj/sdk/drivers/usdhc/test/usdhc_test.o
                                                  /home/leon/git/swp-report/iMX6_Platform_SDK/output/mx6sdl/obds/evb_rev_a/obj/sdk/drivers/uart/test/uart_test.o
                                                  /home/leon/git/swp-report/iMX6_Platform_SDK/output/mx6sdl/obds/evb_rev_a/obj/sdk/drivers/ipu/test/ips_display.o
                                                  /home/leon/git/swp-report/iMX6_Platform_SDK/output/mx6sdl/obds/evb_rev_a/obj/sdk/drivers/epdc/test/epdc_test.o
                                                  /home/leon/git/swp-report/iMX6_Platform_SDK/output/mx6sdl/obds/evb_rev_a/obj/sdk/drivers/camera/test/sensor_capture.o
                                                  /home/leon/git/swp-report/iMX6_Platform_SDK/output/mx6sdl/obds/evb_rev_a/obj/sdk/drivers/camera/test/csi_test_mode.o
                                                  /home/leon/git/swp-report/iMX6_Platform_SDK/output/mx6sdl/obds/evb_rev_a/obj/sdk/drivers/camera/test/camera_test.o
                                                  /home/leon/git/swp-report/iMX6_Platform_SDK/output/mx6sdl/obds/evb_rev_a/obj/sdk/drivers/camera/test/adv7180_capture.o
                                                  /home/leon/git/swp-report/iMX6_Platform_SDK/output/mx6sdl/obds/evb_rev_a/obj/apps/obds/src/tests/video_dec_adv7180.o
                                                  /home/leon/git/swp-report/iMX6_Platform_SDK/output/mx6sdl/obds/evb_rev_a/obj/apps/obds/src/tests/touch_screen_max11801.o
                                                  /home/leon/git/swp-report/iMX6_Platform_SDK/output/mx6sdl/obds/evb_rev_a/obj/apps/obds/src/tests/touch_screen.o
                                                  /home/leon/git/swp-report/iMX6_Platform_SDK/output/mx6sdl/obds/evb_rev_a/obj/apps/obds/src/tests/program_mac_address.o
                                                  /home/leon/git/swp-report/iMX6_Platform_SDK/output/mx6sdl/obds/evb_rev_a/obj/apps/obds/src/tests/pmic_lt3589.o
                                                  /home/leon/git/swp-report/iMX6_Platform_SDK/output/mx6sdl/obds/evb_rev_a/obj/apps/obds/src/tests/i2c_device_id_check_p1003_tsc.o
                                                  /home/leon/git/swp-report/iMX6_Platform_SDK/output/mx6sdl/obds/evb_rev_a/obj/apps/obds/src/tests/i2c_device_id_check_mma8451.o
                                                  /home/leon/git/swp-report/iMX6_Platform_SDK/output/mx6sdl/obds/evb_rev_a/obj/apps/obds/src/tests/i2c_device_id_check_mma8450.o
                                                  /home/leon/git/swp-report/iMX6_Platform_SDK/output/mx6sdl/obds/evb_rev_a/obj/apps/obds/src/tests/i2c_check_light_sensor_isl29023.o
                                                  /home/leon/git/swp-report/iMX6_Platform_SDK/output/mx6sdl/obds/evb_rev_a/obj/apps/obds/src/tests/gpio_led.o
                                                  /home/leon/git/swp-report/iMX6_Platform_SDK/output/mx6sdl/obds/evb_rev_a/obj/apps/obds/src/tests/display_test.o
                                                  /home/leon/git/swp-report/iMX6_Platform_SDK/output/mx6sdl/obds/evb_rev_a/obj/apps/obds/src/tests/audio_ssi_test.o
                                                  /home/leon/git/swp-report/iMX6_Platform_SDK/output/mx6sdl/obds/evb_rev_a/obj/apps/obds/src/tests/audio_esai_test.o
                                                  /home/leon/git/swp-report/iMX6_Platform_SDK/output/mx6sdl/obds/evb_rev_a/obj/apps/obds/src/tests/android_buttons_test.o
_init                                             /home/leon/riotboard/arm-2012.09/bin/../lib/gcc/arm-none-eabi/4.7.2//crti.o
                                                  /home/leon/riotboard/arm-2012.09/bin/../arm-none-eabi/lib//libc.a(lib_a-init.o)
_init_signal                                      /home/leon/riotboard/arm-2012.09/bin/../arm-none-eabi/lib//libc.a(lib_a-signal.o)
_init_signal_r                                    /home/leon/riotboard/arm-2012.09/bin/../arm-none-eabi/lib//libc.a(lib_a-signal.o)
_isatty                                           /home/leon/git/swp-report/iMX6_Platform_SDK/output/mx6sdl/lib/libsdk.a(runtime_support.o)
                                                  /home/leon/riotboard/arm-2012.09/bin/../arm-none-eabi/lib//libc.a(lib_a-isattyr.o)
_isatty_r                                         /home/leon/riotboard/arm-2012.09/bin/../arm-none-eabi/lib//libc.a(lib_a-isattyr.o)
                                                  /home/leon/riotboard/arm-2012.09/bin/../arm-none-eabi/lib//libc.a(lib_a-makebuf.o)
_kill                                             /home/leon/git/swp-report/iMX6_Platform_SDK/output/mx6sdl/lib/libsdk.a(runtime_support.o)
                                                  /home/leon/riotboard/arm-2012.09/bin/../arm-none-eabi/lib//libc.a(lib_a-signalr.o)
_kill_r                                           /home/leon/riotboard/arm-2012.09/bin/../arm-none-eabi/lib//libc.a(lib_a-signalr.o)
                                                  /home/leon/riotboard/arm-2012.09/bin/../arm-none-eabi/lib//libc.a(lib_a-signal.o)
_link                                             /home/leon/git/swp-report/iMX6_Platform_SDK/output/mx6sdl/lib/libsdk.a(runtime_support.o)
_localeconv_r                                     /home/leon/riotboard/arm-2012.09/bin/../arm-none-eabi/lib//libc.a(lib_a-locale.o)
                                                  /home/leon/riotboard/arm-2012.09/bin/../arm-none-eabi/lib//libc.a(lib_a-vfprintf.o)
                                                  /home/leon/riotboard/arm-2012.09/bin/../arm-none-eabi/lib//libc.a(lib_a-svfprintf.o)
_lseek                                            /home/leon/git/swp-report/iMX6_Platform_SDK/output/mx6sdl/lib/libsdk.a(runtime_support.o)
                                                  /home/leon/riotboard/arm-2012.09/bin/../arm-none-eabi/lib//libc.a(lib_a-lseekr.o)
_lseek_r                                          /home/leon/riotboard/arm-2012.09/bin/../arm-none-eabi/lib//libc.a(lib_a-lseekr.o)
                                                  /home/leon/riotboard/arm-2012.09/bin/../arm-none-eabi/lib//libc.a(lib_a-stdio.o)
_malloc_r                                         /home/leon/riotboard/arm-2012.09/bin/../arm-none-eabi/lib//libc.a(lib_a-mallocr.o)
                                                  /home/leon/riotboard/arm-2012.09/bin/../arm-none-eabi/lib//libc.a(lib_a-callocr.o)
                                                  /home/leon/riotboard/arm-2012.09/bin/../arm-none-eabi/lib//libc.a(lib_a-svfiprintf.o)
                                                  /home/leon/riotboard/arm-2012.09/bin/../arm-none-eabi/lib//libc.a(lib_a-signal.o)
                                                  /home/leon/riotboard/arm-2012.09/bin/../arm-none-eabi/lib//libc.a(lib_a-makebuf.o)
                                                  /home/leon/riotboard/arm-2012.09/bin/../arm-none-eabi/lib//libc.a(lib_a-fvwrite.o)
                                                  /home/leon/riotboard/arm-2012.09/bin/../arm-none-eabi/lib//libc.a(lib_a-findfp.o)
                                                  /home/leon/riotboard/arm-2012.09/bin/../arm-none-eabi/lib//libc.a(lib_a-svfprintf.o)
                                                  /home/leon/riotboard/arm-2012.09/bin/../arm-none-eabi/lib//libc.a(lib_a-reallocr.o)
                                                  /home/leon/riotboard/arm-2012.09/bin/../arm-none-eabi/lib//libc.a(lib_a-malloc.o)
_malloc_trim_r                                    /home/leon/riotboard/arm-2012.09/bin/../arm-none-eabi/lib//libc.a(lib_a-freer.o)
_mprec_log10                                      /home/leon/riotboard/arm-2012.09/bin/../arm-none-eabi/lib//libc.a(lib_a-mprec.o)
_open                                             /home/leon/git/swp-report/iMX6_Platform_SDK/output/mx6sdl/lib/libsdk.a(runtime_support.o)
_printf_r                                         /home/leon/riotboard/arm-2012.09/bin/../arm-none-eabi/lib//libc.a(lib_a-printf.o)
_putc_r                                           /home/leon/riotboard/arm-2012.09/bin/../arm-none-eabi/lib//libc.a(lib_a-putc.o)
                                                  /home/leon/riotboard/arm-2012.09/bin/../arm-none-eabi/lib//libc.a(lib_a-fputc.o)
_raise_r                                          /home/leon/riotboard/arm-2012.09/bin/../arm-none-eabi/lib//libc.a(lib_a-signal.o)
_raw_puts                                         /home/leon/git/swp-report/iMX6_Platform_SDK/output/mx6sdl/lib/libsdk.a(runtime_support.o)
_read                                             /home/leon/git/swp-report/iMX6_Platform_SDK/output/mx6sdl/lib/libsdk.a(runtime_support.o)
                                                  /home/leon/riotboard/arm-2012.09/bin/../arm-none-eabi/lib//libc.a(lib_a-readr.o)
_read_r                                           /home/leon/riotboard/arm-2012.09/bin/../arm-none-eabi/lib//libc.a(lib_a-readr.o)
                                                  /home/leon/riotboard/arm-2012.09/bin/../arm-none-eabi/lib//libc.a(lib_a-stdio.o)
_realloc_r                                        /home/leon/riotboard/arm-2012.09/bin/../arm-none-eabi/lib//libc.a(lib_a-reallocr.o)
                                                  /home/leon/riotboard/arm-2012.09/bin/../arm-none-eabi/lib//libc.a(lib_a-svfiprintf.o)
                                                  /home/leon/riotboard/arm-2012.09/bin/../arm-none-eabi/lib//libc.a(lib_a-fvwrite.o)
                                                  /home/leon/riotboard/arm-2012.09/bin/../arm-none-eabi/lib//libc.a(lib_a-realloc.o)
_reclaim_reent                                    /home/leon/riotboard/arm-2012.09/bin/../arm-none-eabi/lib//libc.a(lib_a-reent.o)
_sbrk                                             /home/leon/git/swp-report/iMX6_Platform_SDK/output/mx6sdl/lib/libsdk.a(runtime_support.o)
                                                  /home/leon/riotboard/arm-2012.09/bin/../arm-none-eabi/lib//libc.a(lib_a-sbrkr.o)
_sbrk_r                                           /home/leon/riotboard/arm-2012.09/bin/../arm-none-eabi/lib//libc.a(lib_a-sbrkr.o)
                                                  /home/leon/riotboard/arm-2012.09/bin/../arm-none-eabi/lib//libc.a(lib_a-freer.o)
                                                  /home/leon/riotboard/arm-2012.09/bin/../arm-none-eabi/lib//libc.a(lib_a-mallocr.o)
_setlocale_r                                      /home/leon/riotboard/arm-2012.09/bin/../arm-none-eabi/lib//libc.a(lib_a-locale.o)
_signal_r                                         /home/leon/riotboard/arm-2012.09/bin/../arm-none-eabi/lib//libc.a(lib_a-signal.o)
_sprintf_r                                        /home/leon/riotboard/arm-2012.09/bin/../arm-none-eabi/lib//libc.a(lib_a-sprintf.o)
_start                                            /home/leon/git/swp-report/iMX6_Platform_SDK/output/mx6sdl/lib/libsdk.a(startup.o)
                                                  /home/leon/git/swp-report/iMX6_Platform_SDK/output/mx6sdl/lib/libsdk.a(vectors.o)
                                                  /home/leon/git/swp-report/iMX6_Platform_SDK/output/mx6sdl/obds/evb_rev_a/obj/apps/common/ivt.o
_start_image_add                                  /home/leon/git/swp-report/iMX6_Platform_SDK/output/mx6sdl/obds/evb_rev_a/obj/apps/common/ivt.o
_stat                                             /home/leon/git/swp-report/iMX6_Platform_SDK/output/mx6sdl/lib/libsdk.a(runtime_support.o)
_svfiprintf_r                                     /home/leon/riotboard/arm-2012.09/bin/../arm-none-eabi/lib//libc.a(lib_a-svfiprintf.o)
_svfprintf_r                                      /home/leon/riotboard/arm-2012.09/bin/../arm-none-eabi/lib//libc.a(lib_a-svfprintf.o)
                                                  /home/leon/riotboard/arm-2012.09/bin/../arm-none-eabi/lib//libc.a(lib_a-sprintf.o)
_sys_exit                                         /home/leon/git/swp-report/iMX6_Platform_SDK/output/mx6sdl/lib/libsdk.a(system_util.o)
                                                  /home/leon/git/swp-report/iMX6_Platform_SDK/output/mx6sdl/lib/libsdk.a(runtime_support.o)
                                                  /home/leon/git/swp-report/iMX6_Platform_SDK/output/mx6sdl/lib/libsdk.a(startup.o)
_times                                            /home/leon/git/swp-report/iMX6_Platform_SDK/output/mx6sdl/lib/libsdk.a(runtime_support.o)
_unlink                                           /home/leon/git/swp-report/iMX6_Platform_SDK/output/mx6sdl/lib/libsdk.a(runtime_support.o)
_vfiprintf_r                                      /home/leon/riotboard/arm-2012.09/bin/../arm-none-eabi/lib//libc.a(lib_a-vfiprintf.o)
                                                  /home/leon/riotboard/arm-2012.09/bin/../arm-none-eabi/lib//libc.a(lib_a-fiprintf.o)
_vfprintf_r                                       /home/leon/riotboard/arm-2012.09/bin/../arm-none-eabi/lib//libc.a(lib_a-vfprintf.o)
                                                  /home/leon/riotboard/arm-2012.09/bin/../arm-none-eabi/lib//libc.a(lib_a-vprintf.o)
                                                  /home/leon/riotboard/arm-2012.09/bin/../arm-none-eabi/lib//libc.a(lib_a-printf.o)
_vprintf_r                                        /home/leon/riotboard/arm-2012.09/bin/../arm-none-eabi/lib//libc.a(lib_a-vprintf.o)
_wait                                             /home/leon/git/swp-report/iMX6_Platform_SDK/output/mx6sdl/lib/libsdk.a(runtime_support.o)
_wcrtomb_r                                        /home/leon/riotboard/arm-2012.09/bin/../arm-none-eabi/lib//libc.a(lib_a-wcrtomb.o)
                                                  /home/leon/riotboard/arm-2012.09/bin/../arm-none-eabi/lib//libc.a(lib_a-fputwc.o)
_wctomb_r                                         /home/leon/riotboard/arm-2012.09/bin/../arm-none-eabi/lib//libc.a(lib_a-wctomb_r.o)
_wrapup_reent                                     /home/leon/riotboard/arm-2012.09/bin/../arm-none-eabi/lib//libc.a(lib_a-reent.o)
_write                                            /home/leon/git/swp-report/iMX6_Platform_SDK/output/mx6sdl/lib/libsdk.a(runtime_support.o)
                                                  /home/leon/riotboard/arm-2012.09/bin/../arm-none-eabi/lib//libc.a(lib_a-writer.o)
_write_r                                          /home/leon/riotboard/arm-2012.09/bin/../arm-none-eabi/lib//libc.a(lib_a-writer.o)
                                                  /home/leon/riotboard/arm-2012.09/bin/../arm-none-eabi/lib//libc.a(lib_a-stdio.o)
abort                                             /home/leon/riotboard/arm-2012.09/bin/../arm-none-eabi/lib//libc.a(lib_a-abort.o)
                                                  /home/leon/git/swp-report/iMX6_Platform_SDK/output/mx6sdl/lib/libsdk.a(runtime_support.o)
                                                  /home/leon/riotboard/arm-2012.09/bin/../arm-none-eabi/lib//libc.a(lib_a-assert.o)
adv7180_capture                                   /home/leon/git/swp-report/iMX6_Platform_SDK/output/mx6sdl/obds/evb_rev_a/obj/sdk/drivers/camera/test/adv7180_capture.o
                                                  /home/leon/git/swp-report/iMX6_Platform_SDK/output/mx6sdl/obds/evb_rev_a/obj/sdk/drivers/camera/test/camera_test.o
adv7180_get_std                                   /home/leon/git/swp-report/iMX6_Platform_SDK/output/mx6sdl/lib/libsdk.a(adv7180.o)
                                                  /home/leon/git/swp-report/iMX6_Platform_SDK/output/mx6sdl/obds/evb_rev_a/obj/sdk/drivers/camera/test/adv7180_capture.o
adv7180_i2c_device_id_check                       /home/leon/git/swp-report/iMX6_Platform_SDK/output/mx6sdl/obds/evb_rev_a/obj/apps/obds/src/tests/video_dec_adv7180.o
adv7180_i2c_init_obds                             /home/leon/git/swp-report/iMX6_Platform_SDK/output/mx6sdl/obds/evb_rev_a/obj/apps/obds/src/tests/video_dec_adv7180.o
                                                  /home/leon/git/swp-report/iMX6_Platform_SDK/output/mx6sdl/obds/evb_rev_a/obj/apps/obds/src/tests/video_dec_ARD_MBrst_from_cpu_expander.o
                                                  /home/leon/git/swp-report/iMX6_Platform_SDK/output/mx6sdl/obds/evb_rev_a/obj/apps/obds/src/tests/video_dec_ARD_MB_reset_button.o
                                                  /home/leon/git/swp-report/iMX6_Platform_SDK/output/mx6sdl/obds/evb_rev_a/obj/apps/obds/src/tests/deserializer_ds90ur124.o
adv7180_init                                      /home/leon/git/swp-report/iMX6_Platform_SDK/output/mx6sdl/lib/libsdk.a(adv7180.o)
                                                  /home/leon/git/swp-report/iMX6_Platform_SDK/output/mx6sdl/obds/evb_rev_a/obj/sdk/drivers/camera/test/adv7180_capture.o
adv7180_is_interlaced_mode                        /home/leon/git/swp-report/iMX6_Platform_SDK/output/mx6sdl/lib/libsdk.a(adv7180.o)
                                                  /home/leon/git/swp-report/iMX6_Platform_SDK/output/mx6sdl/obds/evb_rev_a/obj/sdk/drivers/camera/test/adv7180_capture.o
adv7180_reg_read                                  /home/leon/git/swp-report/iMX6_Platform_SDK/output/mx6sdl/obds/evb_rev_a/obj/apps/obds/src/tests/video_dec_adv7180.o
                                                  /home/leon/git/swp-report/iMX6_Platform_SDK/output/mx6sdl/obds/evb_rev_a/obj/apps/obds/src/tests/video_dec_ARD_MBrst_from_cpu_expander.o
                                                  /home/leon/git/swp-report/iMX6_Platform_SDK/output/mx6sdl/obds/evb_rev_a/obj/apps/obds/src/tests/video_dec_ARD_MB_reset_button.o
adv7180_reg_write                                 /home/leon/git/swp-report/iMX6_Platform_SDK/output/mx6sdl/obds/evb_rev_a/obj/apps/obds/src/tests/video_dec_adv7180.o
                                                  /home/leon/git/swp-report/iMX6_Platform_SDK/output/mx6sdl/obds/evb_rev_a/obj/apps/obds/src/tests/video_dec_ARD_MBrst_from_cpu_expander.o
                                                  /home/leon/git/swp-report/iMX6_Platform_SDK/output/mx6sdl/obds/evb_rev_a/obj/apps/obds/src/tests/video_dec_ARD_MB_reset_button.o
adv7180_set_gpio_output                           /home/leon/git/swp-report/iMX6_Platform_SDK/output/mx6sdl/obds/evb_rev_a/obj/apps/obds/src/tests/video_dec_adv7180.o
                                                  /home/leon/git/swp-report/iMX6_Platform_SDK/output/mx6sdl/obds/evb_rev_a/obj/apps/obds/src/tests/video_dec_ARD_MB_reset_button.o
                                                  /home/leon/git/swp-report/iMX6_Platform_SDK/output/mx6sdl/obds/evb_rev_a/obj/apps/obds/src/tests/deserializer_ds90ur124.o
adv7180_set_tristate_output                       /home/leon/git/swp-report/iMX6_Platform_SDK/output/mx6sdl/obds/evb_rev_a/obj/apps/obds/src/tests/video_dec_adv7180.o
                                                  /home/leon/git/swp-report/iMX6_Platform_SDK/output/mx6sdl/obds/evb_rev_a/obj/apps/obds/src/tests/deserializer_ds90ur124.o
adv7180_test_main                                 /home/leon/git/swp-report/iMX6_Platform_SDK/output/mx6sdl/obds/evb_rev_a/obj/apps/obds/src/tests/video_dec_adv7180.o
adv7180_work_mode                                 /home/leon/git/swp-report/iMX6_Platform_SDK/output/mx6sdl/lib/libsdk.a(adv7180.o)
android_buttons_iomux_config                      /home/leon/git/swp-report/iMX6_Platform_SDK/output/mx6sdl/lib/libboard_evb_rev_a.a(board_buttons.o)
                                                  /home/leon/git/swp-report/iMX6_Platform_SDK/output/mx6sdl/obds/evb_rev_a/obj/apps/obds/src/tests/android_buttons_test.o
android_buttons_test                              /home/leon/git/swp-report/iMX6_Platform_SDK/output/mx6sdl/obds/evb_rev_a/obj/apps/obds/src/tests/android_buttons_test.o
ar8031_test_main                                  /home/leon/git/swp-report/iMX6_Platform_SDK/output/mx6sdl/obds/evb_rev_a/obj/apps/obds/src/tests/enet_mx6dldq_test.o
ard_mb_expander_reset_test                        /home/leon/git/swp-report/iMX6_Platform_SDK/output/mx6sdl/obds/evb_rev_a/obj/apps/obds/src/tests/video_dec_ARD_MBrst_from_cpu_expander.o
ard_mb_reset_test                                 /home/leon/git/swp-report/iMX6_Platform_SDK/output/mx6sdl/obds/evb_rev_a/obj/apps/obds/src/tests/video_dec_ARD_MB_reset_button.o
arm_branch_prediction_disable                     /home/leon/git/swp-report/iMX6_Platform_SDK/output/mx6sdl/lib/libsdk.a(cortexA9.o)
arm_branch_prediction_enable                      /home/leon/git/swp-report/iMX6_Platform_SDK/output/mx6sdl/lib/libsdk.a(cortexA9.o)
arm_branch_target_cache_invalidate                /home/leon/git/swp-report/iMX6_Platform_SDK/output/mx6sdl/lib/libsdk.a(cortexA9.o)
arm_branch_target_cache_invalidate_is             /home/leon/git/swp-report/iMX6_Platform_SDK/output/mx6sdl/lib/libsdk.a(cortexA9.o)
arm_dcache_disable                                /home/leon/git/swp-report/iMX6_Platform_SDK/output/mx6sdl/lib/libsdk.a(armv7_cache.o)
arm_dcache_enable                                 /home/leon/git/swp-report/iMX6_Platform_SDK/output/mx6sdl/lib/libsdk.a(armv7_cache.o)
arm_dcache_flush                                  /home/leon/git/swp-report/iMX6_Platform_SDK/output/mx6sdl/lib/libsdk.a(armv7_cache.o)
arm_dcache_flush_line                             /home/leon/git/swp-report/iMX6_Platform_SDK/output/mx6sdl/lib/libsdk.a(armv7_cache.o)
arm_dcache_flush_mlines                           /home/leon/git/swp-report/iMX6_Platform_SDK/output/mx6sdl/lib/libsdk.a(armv7_cache.o)
                                                  /home/leon/git/swp-report/iMX6_Platform_SDK/output/mx6sdl/lib/libsdk.a(usdhc.o)
arm_dcache_invalidate                             /home/leon/git/swp-report/iMX6_Platform_SDK/output/mx6sdl/lib/libsdk.a(armv7_cache.o)
arm_dcache_invalidate_line                        /home/leon/git/swp-report/iMX6_Platform_SDK/output/mx6sdl/lib/libsdk.a(armv7_cache.o)
arm_dcache_invalidate_mlines                      /home/leon/git/swp-report/iMX6_Platform_SDK/output/mx6sdl/lib/libsdk.a(armv7_cache.o)
                                                  /home/leon/git/swp-report/iMX6_Platform_SDK/output/mx6sdl/lib/libsdk.a(usdhc.o)
arm_dcache_state_query                            /home/leon/git/swp-report/iMX6_Platform_SDK/output/mx6sdl/lib/libsdk.a(armv7_cache.o)
                                                  /home/leon/git/swp-report/iMX6_Platform_SDK/output/mx6sdl/lib/libsdk.a(usdhc.o)
arm_icache_disable                                /home/leon/git/swp-report/iMX6_Platform_SDK/output/mx6sdl/lib/libsdk.a(armv7_cache.o)
arm_icache_enable                                 /home/leon/git/swp-report/iMX6_Platform_SDK/output/mx6sdl/lib/libsdk.a(armv7_cache.o)
arm_icache_invalidate                             /home/leon/git/swp-report/iMX6_Platform_SDK/output/mx6sdl/lib/libsdk.a(armv7_cache.o)
arm_icache_invalidate_is                          /home/leon/git/swp-report/iMX6_Platform_SDK/output/mx6sdl/lib/libsdk.a(armv7_cache.o)
arm_icache_invalidate_line                        /home/leon/git/swp-report/iMX6_Platform_SDK/output/mx6sdl/lib/libsdk.a(armv7_cache.o)
arm_icache_invalidate_mlines                      /home/leon/git/swp-report/iMX6_Platform_SDK/output/mx6sdl/lib/libsdk.a(armv7_cache.o)
arm_icache_state_query                            /home/leon/git/swp-report/iMX6_Platform_SDK/output/mx6sdl/lib/libsdk.a(armv7_cache.o)
arm_iomux_config                                  /home/leon/git/swp-report/iMX6_Platform_SDK/output/mx6sdl/lib/libboard_evb_rev_a.a(iomux_config.o)
arm_set_interrupt_state                           /home/leon/git/swp-report/iMX6_Platform_SDK/output/mx6sdl/lib/libsdk.a(cortexA9.o)
                                                  /home/leon/git/swp-report/iMX6_Platform_SDK/output/mx6sdl/obds/evb_rev_a/obj/apps/common/platform_init.o
arm_unified_tlb_invalidate                        /home/leon/git/swp-report/iMX6_Platform_SDK/output/mx6sdl/lib/libsdk.a(cortexA9.o)
                                                  /home/leon/git/swp-report/iMX6_Platform_SDK/output/mx6sdl/lib/libsdk.a(mmu.o)
arm_unified_tlb_invalidate_is                     /home/leon/git/swp-report/iMX6_Platform_SDK/output/mx6sdl/lib/libsdk.a(cortexA9.o)
asrc_iomux_config                                 /home/leon/git/swp-report/iMX6_Platform_SDK/output/mx6sdl/lib/libboard_evb_rev_a.a(iomux_config.o)
audio_ComputeCTS                                  /home/leon/git/swp-report/iMX6_Platform_SDK/output/mx6sdl/lib/libsdk.a(hdmi_tx_audio.o)
audio_ComputeN                                    /home/leon/git/swp-report/iMX6_Platform_SDK/output/mx6sdl/lib/libsdk.a(hdmi_tx_audio.o)
audio_Configure                                   /home/leon/git/swp-report/iMX6_Platform_SDK/output/mx6sdl/lib/libsdk.a(hdmi_tx_audio.o)
                                                  /home/leon/git/swp-report/iMX6_Platform_SDK/output/mx6sdl/obds/evb_rev_a/obj/sdk/drivers/hdmi/test/hdmi_test.o
audio_Configure_DMA                               /home/leon/git/swp-report/iMX6_Platform_SDK/output/mx6sdl/lib/libsdk.a(hdmi_tx_audio.o)
                                                  /home/leon/git/swp-report/iMX6_Platform_SDK/output/mx6sdl/obds/evb_rev_a/obj/sdk/drivers/hdmi/test/hdmi_test.o
audio_DMA_BurstMode                               /home/leon/git/swp-report/iMX6_Platform_SDK/output/mx6sdl/lib/libsdk.a(hdmi_tx_audio.o)
audio_DMA_IncrType                                /home/leon/git/swp-report/iMX6_Platform_SDK/output/mx6sdl/lib/libsdk.a(hdmi_tx_audio.o)
audio_DMA_InterruptMask                           /home/leon/git/swp-report/iMX6_Platform_SDK/output/mx6sdl/lib/libsdk.a(hdmi_tx_audio.o)
audio_DMA_InterruptPolarity                       /home/leon/git/swp-report/iMX6_Platform_SDK/output/mx6sdl/lib/libsdk.a(hdmi_tx_audio.o)
audio_DMA_LockEnable                              /home/leon/git/swp-report/iMX6_Platform_SDK/output/mx6sdl/lib/libsdk.a(hdmi_tx_audio.o)
audio_DMA_ResetFIFO                               /home/leon/git/swp-report/iMX6_Platform_SDK/output/mx6sdl/lib/libsdk.a(hdmi_tx_audio.o)
audio_DMA_SetCONF1                                /home/leon/git/swp-report/iMX6_Platform_SDK/output/mx6sdl/lib/libsdk.a(hdmi_tx_audio.o)
audio_DMA_Start                                   /home/leon/git/swp-report/iMX6_Platform_SDK/output/mx6sdl/lib/libsdk.a(hdmi_tx_audio.o)
audio_DMA_StartAddr                               /home/leon/git/swp-report/iMX6_Platform_SDK/output/mx6sdl/lib/libsdk.a(hdmi_tx_audio.o)
audio_DMA_StopAddr                                /home/leon/git/swp-report/iMX6_Platform_SDK/output/mx6sdl/lib/libsdk.a(hdmi_tx_audio.o)
audio_DMA_Threshold                               /home/leon/git/swp-report/iMX6_Platform_SDK/output/mx6sdl/lib/libsdk.a(hdmi_tx_audio.o)
audio_PacketLayout                                /home/leon/git/swp-report/iMX6_Platform_SDK/output/mx6sdl/lib/libsdk.a(hdmi_tx_audio.o)
audio_clk_CTS                                     /home/leon/git/swp-report/iMX6_Platform_SDK/output/mx6sdl/lib/libsdk.a(hdmi_tx_audio.o)
audio_clk_N                                       /home/leon/git/swp-report/iMX6_Platform_SDK/output/mx6sdl/lib/libsdk.a(hdmi_tx_audio.o)
audio_clock_config                                /home/leon/git/swp-report/iMX6_Platform_SDK/output/mx6sdl/lib/libboard_evb_rev_a.a(board_audio.o)
                                                  /home/leon/git/swp-report/iMX6_Platform_SDK/output/mx6sdl/obds/evb_rev_a/obj/apps/obds/src/tests/audio_ssi_test.o
audio_codec_power_on                              /home/leon/git/swp-report/iMX6_Platform_SDK/output/mx6sdl/lib/libboard_evb_rev_a.a(board_audio.o)
                                                  /home/leon/git/swp-report/iMX6_Platform_SDK/output/mx6sdl/lib/libsdk.a(smd_sensor.o)
                                                  /home/leon/git/swp-report/iMX6_Platform_SDK/output/mx6sdl/obds/evb_rev_a/obj/apps/obds/src/tests/audio_ssi_test.o
audio_info_config                                 /home/leon/git/swp-report/iMX6_Platform_SDK/output/mx6sdl/lib/libsdk.a(hdmi_tx_audio.o)
audio_record_buf                                  /home/leon/git/swp-report/iMX6_Platform_SDK/output/mx6sdl/obds/evb_rev_a/obj/apps/obds/src/tests/audio_ssi_test.o
audio_test_init                                   /home/leon/git/swp-report/iMX6_Platform_SDK/output/mx6sdl/obds/evb_rev_a/obj/apps/obds/src/tests/audio_ssi_test.o
audmux_iomux_config                               /home/leon/git/swp-report/iMX6_Platform_SDK/output/mx6sdl/lib/libboard_evb_rev_a.a(iomux_config.o)
                                                  /home/leon/git/swp-report/iMX6_Platform_SDK/output/mx6sdl/lib/libsdk.a(imx-ssi.o)
auto_run_enable                                   /home/leon/git/swp-report/iMX6_Platform_SDK/output/mx6sdl/obds/evb_rev_a/obj/apps/obds/src/obds.o
                                                  /home/leon/git/swp-report/iMX6_Platform_SDK/output/mx6sdl/obds/evb_rev_a/obj/apps/obds/src/tests/mlb_os81050.o
                                                  /home/leon/git/swp-report/iMX6_Platform_SDK/output/mx6sdl/obds/evb_rev_a/obj/apps/obds/src/tests/i2c_eeprom_at24cxx_test.o
                                                  /home/leon/git/swp-report/iMX6_Platform_SDK/output/mx6sdl/obds/evb_rev_a/obj/apps/obds/src/tests/gps_test.o
                                                  /home/leon/git/swp-report/iMX6_Platform_SDK/output/mx6sdl/obds/evb_rev_a/obj/apps/obds/src/tests/fm_tuner_si476x_test.o
                                                  /home/leon/git/swp-report/iMX6_Platform_SDK/output/mx6sdl/obds/evb_rev_a/obj/apps/obds/src/tests/deserializer_ds90ur124.o
bd                                                /home/leon/git/swp-report/iMX6_Platform_SDK/output/mx6sdl/obds/evb_rev_a/obj/apps/common/ivt.o
board_description                                 /home/leon/git/swp-report/iMX6_Platform_SDK/output/mx6sdl/lib/libsdk.a(board_id.o)
board_ioexpander_init                             /home/leon/git/swp-report/iMX6_Platform_SDK/output/mx6sdl/lib/libboard_evb_rev_a.a(board_io_expanders.o)
                                                  /home/leon/git/swp-report/iMX6_Platform_SDK/output/mx6sdl/obds/evb_rev_a/obj/apps/common/platform_init.o
board_ioexpander_iomux_config                     /home/leon/git/swp-report/iMX6_Platform_SDK/output/mx6sdl/lib/libboard_evb_rev_a.a(board_io_expanders.o)
                                                  /home/leon/git/swp-report/iMX6_Platform_SDK/output/mx6sdl/lib/libboard_evb_rev_a.a(board_mipi.o)
                                                  /home/leon/git/swp-report/iMX6_Platform_SDK/output/mx6sdl/lib/libboard_evb_rev_a.a(board_display.o)
                                                  /home/leon/git/swp-report/iMX6_Platform_SDK/output/mx6sdl/obds/evb_rev_a/obj/sdk/common/ioexpander/test/max7310_test.o
                                                  /home/leon/git/swp-report/iMX6_Platform_SDK/output/mx6sdl/obds/evb_rev_a/obj/apps/obds/src/tests/video_dec_ARD_MBrst_from_cpu_expander.o
                                                  /home/leon/git/swp-report/iMX6_Platform_SDK/output/mx6sdl/obds/evb_rev_a/obj/apps/obds/src/tests/mlb_os81050.o
                                                  /home/leon/git/swp-report/iMX6_Platform_SDK/output/mx6sdl/obds/evb_rev_a/obj/apps/obds/src/tests/fm_tuner_si476x_test.o
board_name                                        /home/leon/git/swp-report/iMX6_Platform_SDK/output/mx6sdl/lib/libsdk.a(board_id.o)
                                                  /home/leon/git/swp-report/iMX6_Platform_SDK/output/mx6sdl/obds/evb_rev_a/obj/apps/obds/src/tests/program_board_id.o
                                                  /home/leon/git/swp-report/iMX6_Platform_SDK/output/mx6sdl/obds/evb_rev_a/obj/apps/obds/src/obds.o
                                                  /home/leon/git/swp-report/iMX6_Platform_SDK/output/mx6sdl/obds/evb_rev_a/obj/apps/common/print_version.o
board_revision                                    /home/leon/git/swp-report/iMX6_Platform_SDK/output/mx6sdl/lib/libsdk.a(board_id.o)
                                                  /home/leon/git/swp-report/iMX6_Platform_SDK/output/mx6sdl/obds/evb_rev_a/obj/apps/obds/src/tests/program_board_id.o
                                                  /home/leon/git/swp-report/iMX6_Platform_SDK/output/mx6sdl/obds/evb_rev_a/obj/apps/obds/src/obds.o
                                                  /home/leon/git/swp-report/iMX6_Platform_SDK/output/mx6sdl/obds/evb_rev_a/obj/apps/common/print_version.o
buf                                               /home/leon/git/swp-report/iMX6_Platform_SDK/output/mx6sdl/obds/evb_rev_a/obj/apps/obds/src/tests/i2c_device_zigbee_mc1323.o
bzero                                             /home/leon/riotboard/arm-2012.09/bin/../arm-none-eabi/lib//libc.a(lib_a-bzero.o)
                                                  /home/leon/git/swp-report/iMX6_Platform_SDK/output/mx6sdl/lib/libsdk.a(mmu.o)
camera_ipu1_iomux_config                          /home/leon/git/swp-report/iMX6_Platform_SDK/output/mx6sdl/lib/libboard_evb_rev_a.a(board_camera.o)
camera_power_on                                   /home/leon/git/swp-report/iMX6_Platform_SDK/output/mx6sdl/lib/libboard_evb_rev_a.a(board_camera.o)
                                                  /home/leon/git/swp-report/iMX6_Platform_SDK/output/mx6sdl/lib/libsdk.a(smd_sensor.o)
camera_strobeflash_off                            /home/leon/git/swp-report/iMX6_Platform_SDK/output/mx6sdl/lib/libsdk.a(smd_sensor.o)
camera_strobeflash_on                             /home/leon/git/swp-report/iMX6_Platform_SDK/output/mx6sdl/lib/libsdk.a(smd_sensor.o)
camera_test                                       /home/leon/git/swp-report/iMX6_Platform_SDK/output/mx6sdl/obds/evb_rev_a/obj/sdk/drivers/camera/test/camera_test.o
card_cmd_config                                   /home/leon/git/swp-report/iMX6_Platform_SDK/output/mx6sdl/lib/libsdk.a(usdhc.o)
                                                  /home/leon/git/swp-report/iMX6_Platform_SDK/output/mx6sdl/lib/libsdk.a(usdhc_sd.o)
                                                  /home/leon/git/swp-report/iMX6_Platform_SDK/output/mx6sdl/lib/libsdk.a(usdhc_mmc.o)
card_data_read                                    /home/leon/git/swp-report/iMX6_Platform_SDK/output/mx6sdl/lib/libsdk.a(usdhc.o)
                                                  /home/leon/git/swp-report/iMX6_Platform_SDK/output/mx6sdl/obds/evb_rev_a/obj/sdk/drivers/usdhc/test/usdhc_test.o
card_data_write                                   /home/leon/git/swp-report/iMX6_Platform_SDK/output/mx6sdl/lib/libsdk.a(usdhc.o)
                                                  /home/leon/git/swp-report/iMX6_Platform_SDK/output/mx6sdl/obds/evb_rev_a/obj/sdk/drivers/usdhc/test/usdhc_test.o
card_detect_test_en                               /home/leon/git/swp-report/iMX6_Platform_SDK/output/mx6sdl/lib/libsdk.a(usdhc.o)
                                                  /home/leon/git/swp-report/iMX6_Platform_SDK/output/mx6sdl/obds/evb_rev_a/obj/apps/obds/src/tests/mmcsd_test.o
card_emmc_init                                    /home/leon/git/swp-report/iMX6_Platform_SDK/output/mx6sdl/lib/libsdk.a(usdhc.o)
                                                  /home/leon/git/swp-report/iMX6_Platform_SDK/output/mx6sdl/obds/evb_rev_a/obj/sdk/drivers/usdhc/test/usdhc_test.o
card_enter_trans                                  /home/leon/git/swp-report/iMX6_Platform_SDK/output/mx6sdl/lib/libsdk.a(usdhc.o)
                                                  /home/leon/git/swp-report/iMX6_Platform_SDK/output/mx6sdl/lib/libsdk.a(usdhc_sd.o)
                                                  /home/leon/git/swp-report/iMX6_Platform_SDK/output/mx6sdl/lib/libsdk.a(usdhc_mmc.o)
card_get_cid                                      /home/leon/git/swp-report/iMX6_Platform_SDK/output/mx6sdl/lib/libsdk.a(usdhc.o)
                                                  /home/leon/git/swp-report/iMX6_Platform_SDK/output/mx6sdl/lib/libsdk.a(usdhc_sd.o)
                                                  /home/leon/git/swp-report/iMX6_Platform_SDK/output/mx6sdl/lib/libsdk.a(usdhc_mmc.o)
card_get_port                                     /home/leon/git/swp-report/iMX6_Platform_SDK/output/mx6sdl/lib/libsdk.a(usdhc.o)
                                                  /home/leon/git/swp-report/iMX6_Platform_SDK/output/mx6sdl/lib/libsdk.a(usdhc_sd.o)
                                                  /home/leon/git/swp-report/iMX6_Platform_SDK/output/mx6sdl/lib/libsdk.a(usdhc_mmc.o)
                                                  /home/leon/git/swp-report/iMX6_Platform_SDK/output/mx6sdl/lib/libsdk.a(usdhc_host.o)
card_init                                         /home/leon/git/swp-report/iMX6_Platform_SDK/output/mx6sdl/lib/libsdk.a(usdhc.o)
                                                  /home/leon/git/swp-report/iMX6_Platform_SDK/output/mx6sdl/obds/evb_rev_a/obj/sdk/drivers/usdhc/test/usdhc_test.o
card_set_blklen                                   /home/leon/git/swp-report/iMX6_Platform_SDK/output/mx6sdl/lib/libsdk.a(usdhc.o)
card_trans_status                                 /home/leon/git/swp-report/iMX6_Platform_SDK/output/mx6sdl/lib/libsdk.a(usdhc.o)
                                                  /home/leon/git/swp-report/iMX6_Platform_SDK/output/mx6sdl/lib/libsdk.a(usdhc_mmc.o)
card_wait_xfer_done                               /home/leon/git/swp-report/iMX6_Platform_SDK/output/mx6sdl/lib/libsdk.a(usdhc.o)
card_xfer_result                                  /home/leon/git/swp-report/iMX6_Platform_SDK/output/mx6sdl/lib/libsdk.a(usdhc.o)
                                                  /home/leon/git/swp-report/iMX6_Platform_SDK/output/mx6sdl/obds/evb_rev_a/obj/sdk/drivers/usdhc/test/usdhc_test.o
ccm_ccgr_config                                   /home/leon/git/swp-report/iMX6_Platform_SDK/output/mx6sdl/lib/libsdk.a(ccm_pll.o)
ccm_enter_low_power                               /home/leon/git/swp-report/iMX6_Platform_SDK/output/mx6sdl/lib/libsdk.a(ccm_pll.o)
ccm_init                                          /home/leon/git/swp-report/iMX6_Platform_SDK/output/mx6sdl/lib/libsdk.a(ccm_pll.o)
                                                  /home/leon/git/swp-report/iMX6_Platform_SDK/output/mx6sdl/obds/evb_rev_a/obj/apps/common/platform_init.o
ccm_iomux_config                                  /home/leon/git/swp-report/iMX6_Platform_SDK/output/mx6sdl/lib/libboard_evb_rev_a.a(ccm_iomux_config.o)
                                                  /home/leon/git/swp-report/iMX6_Platform_SDK/output/mx6sdl/lib/libboard_evb_rev_a.a(iomux_config.o)
ccm_set_lpm_wakeup_source                         /home/leon/git/swp-report/iMX6_Platform_SDK/output/mx6sdl/lib/libsdk.a(ccm_pll.o)
check_android_button_status                       /home/leon/git/swp-report/iMX6_Platform_SDK/output/mx6sdl/obds/evb_rev_a/obj/apps/obds/src/tests/android_buttons_test.o
chip_name                                         /home/leon/git/swp-report/iMX6_Platform_SDK/output/mx6sdl/lib/libsdk.a(board_id.o)
                                                  /home/leon/git/swp-report/iMX6_Platform_SDK/output/mx6sdl/obds/evb_rev_a/obj/apps/obds/src/tests/program_board_id.o
                                                  /home/leon/git/swp-report/iMX6_Platform_SDK/output/mx6sdl/obds/evb_rev_a/obj/apps/obds/src/obds.o
                                                  /home/leon/git/swp-report/iMX6_Platform_SDK/output/mx6sdl/obds/evb_rev_a/obj/apps/common/print_version.o
chip_revision                                     /home/leon/git/swp-report/iMX6_Platform_SDK/output/mx6sdl/lib/libsdk.a(board_id.o)
                                                  /home/leon/git/swp-report/iMX6_Platform_SDK/output/mx6sdl/obds/evb_rev_a/obj/apps/obds/src/tests/program_board_id.o
                                                  /home/leon/git/swp-report/iMX6_Platform_SDK/output/mx6sdl/obds/evb_rev_a/obj/apps/obds/src/obds.o
                                                  /home/leon/git/swp-report/iMX6_Platform_SDK/output/mx6sdl/obds/evb_rev_a/obj/apps/common/print_version.o
cleanup_glue                                      /home/leon/riotboard/arm-2012.09/bin/../arm-none-eabi/lib//libc.a(lib_a-reent.o)
clock_gating_config                               /home/leon/git/swp-report/iMX6_Platform_SDK/output/mx6sdl/lib/libsdk.a(ccm_pll.o)
                                                  /home/leon/git/swp-report/iMX6_Platform_SDK/output/mx6sdl/lib/libboard_evb_rev_a.a(board_audio.o)
                                                  /home/leon/git/swp-report/iMX6_Platform_SDK/output/mx6sdl/lib/libsdk.a(epit.o)
                                                  /home/leon/git/swp-report/iMX6_Platform_SDK/output/mx6sdl/lib/libsdk.a(imx_uart.o)
                                                  /home/leon/git/swp-report/iMX6_Platform_SDK/output/mx6sdl/lib/libsdk.a(ecspi.o)
                                                  /home/leon/git/swp-report/iMX6_Platform_SDK/output/mx6sdl/lib/libsdk.a(imx_i2c.o)
common_abort_handler                              /home/leon/git/swp-report/iMX6_Platform_SDK/output/mx6sdl/lib/libsdk.a(arm_abort.o)
configure_android_button                          /home/leon/git/swp-report/iMX6_Platform_SDK/output/mx6sdl/obds/evb_rev_a/obj/apps/obds/src/tests/android_buttons_test.o
cpu_get_current                                   /home/leon/git/swp-report/iMX6_Platform_SDK/output/mx6sdl/lib/libsdk.a(cortexA9.o)
cs42888                                           /home/leon/git/swp-report/iMX6_Platform_SDK/output/mx6sdl/lib/libsdk.a(cs42888.o)
                                                  /home/leon/git/swp-report/iMX6_Platform_SDK/output/mx6sdl/obds/evb_rev_a/obj/sdk/drivers/audio/src/snd_card.o
cs42888_config                                    /home/leon/git/swp-report/iMX6_Platform_SDK/output/mx6sdl/lib/libsdk.a(cs42888.o)
cs42888_deinit                                    /home/leon/git/swp-report/iMX6_Platform_SDK/output/mx6sdl/lib/libsdk.a(cs42888.o)
                                                  /home/leon/git/swp-report/iMX6_Platform_SDK/output/mx6sdl/obds/evb_rev_a/obj/apps/obds/src/tests/i2c_device_check_cs42888.o
cs42888_dev_info                                  /home/leon/git/swp-report/iMX6_Platform_SDK/output/mx6sdl/lib/libsdk.a(cs42888.o)
cs42888_i2c_req                                   /home/leon/git/swp-report/iMX6_Platform_SDK/output/mx6sdl/lib/libsdk.a(cs42888.o)
cs42888_init                                      /home/leon/git/swp-report/iMX6_Platform_SDK/output/mx6sdl/lib/libsdk.a(cs42888.o)
                                                  /home/leon/git/swp-report/iMX6_Platform_SDK/output/mx6sdl/obds/evb_rev_a/obj/apps/obds/src/tests/i2c_device_check_cs42888.o
cs42888_ops                                       /home/leon/git/swp-report/iMX6_Platform_SDK/output/mx6sdl/lib/libsdk.a(cs42888.o)
csi_dma_band_mode                                 /home/leon/git/swp-report/iMX6_Platform_SDK/output/mx6sdl/lib/libsdk.a(ipu_common.o)
                                                  /home/leon/git/swp-report/iMX6_Platform_SDK/output/mx6sdl/obds/evb_rev_a/obj/sdk/drivers/camera/test/csi_test_mode.o
                                                  /home/leon/git/swp-report/iMX6_Platform_SDK/output/mx6sdl/obds/evb_rev_a/obj/sdk/drivers/camera/test/camera_test.o
csi_port0_iomux_config                            /home/leon/git/swp-report/iMX6_Platform_SDK/output/mx6sdl/lib/libboard_evb_rev_a.a(board_camera.o)
                                                  /home/leon/git/swp-report/iMX6_Platform_SDK/output/mx6sdl/lib/libsdk.a(adv7180.o)
                                                  /home/leon/git/swp-report/iMX6_Platform_SDK/output/mx6sdl/lib/libsdk.a(smd_sensor.o)
                                                  /home/leon/git/swp-report/iMX6_Platform_SDK/output/mx6sdl/obds/evb_rev_a/obj/apps/obds/src/tests/deserializer_ds90ur124.o
csi_test_mode                                     /home/leon/git/swp-report/iMX6_Platform_SDK/output/mx6sdl/obds/evb_rev_a/obj/sdk/drivers/camera/test/csi_test_mode.o
                                                  /home/leon/git/swp-report/iMX6_Platform_SDK/output/mx6sdl/obds/evb_rev_a/obj/sdk/drivers/camera/test/camera_test.o
csi_vdi_direct_path                               /home/leon/git/swp-report/iMX6_Platform_SDK/output/mx6sdl/lib/libsdk.a(ipu_common.o)
                                                  /home/leon/git/swp-report/iMX6_Platform_SDK/output/mx6sdl/lib/libsdk.a(ipu_idmac.o)
                                                  /home/leon/git/swp-report/iMX6_Platform_SDK/output/mx6sdl/lib/libsdk.a(ipu_csi.o)
                                                  /home/leon/git/swp-report/iMX6_Platform_SDK/output/mx6sdl/obds/evb_rev_a/obj/sdk/drivers/camera/test/adv7180_capture.o
da9053_i2c_reg                                    /home/leon/git/swp-report/iMX6_Platform_SDK/output/mx6sdl/obds/evb_rev_a/obj/apps/obds/src/tests/pmic_da9053.o
data_abort_handler                                /home/leon/git/swp-report/iMX6_Platform_SDK/output/mx6sdl/lib/libsdk.a(arm_abort.o)
                                                  /home/leon/git/swp-report/iMX6_Platform_SDK/output/mx6sdl/lib/libsdk.a(vectors.o)
dcic1_iomux_config                                /home/leon/git/swp-report/iMX6_Platform_SDK/output/mx6sdl/lib/libboard_evb_rev_a.a(iomux_config.o)
dcic2_iomux_config                                /home/leon/git/swp-report/iMX6_Platform_SDK/output/mx6sdl/lib/libboard_evb_rev_a.a(iomux_config.o)
ddr_test                                          /home/leon/git/swp-report/iMX6_Platform_SDK/output/mx6sdl/obds/evb_rev_a/obj/apps/obds/src/tests/ddr_test.o
default_interrupt_routine                         /home/leon/git/swp-report/iMX6_Platform_SDK/output/mx6sdl/lib/libsdk.a(interrupt.o)
deserializer_io_config                            /home/leon/git/swp-report/iMX6_Platform_SDK/output/mx6sdl/obds/evb_rev_a/obj/apps/obds/src/tests/deserializer_ds90ur124.o
dev_spi_nor                                       /home/leon/git/swp-report/iMX6_Platform_SDK/output/mx6sdl/obds/evb_rev_a/obj/apps/obds/src/tests/imx_spi_nor_test.o
                                                  /home/leon/git/swp-report/iMX6_Platform_SDK/output/mx6sdl/obds/evb_rev_a/obj/sdk/drivers/spi/test/spi_nor_numonyx.o
                                                  /home/leon/git/swp-report/iMX6_Platform_SDK/output/mx6sdl/obds/evb_rev_a/obj/sdk/drivers/spi/test/imx_spi_nor_atmel.o
device_id_check_mc13892                           /home/leon/git/swp-report/iMX6_Platform_SDK/output/mx6sdl/obds/evb_rev_a/obj/apps/obds/src/tests/pmic_mc13892.o
disable_L1_cache                                  /home/leon/git/swp-report/iMX6_Platform_SDK/output/mx6sdl/lib/libsdk.a(cortexA9.o)
disable_interrupt                                 /home/leon/git/swp-report/iMX6_Platform_SDK/output/mx6sdl/lib/libsdk.a(interrupt.o)
                                                  /home/leon/git/swp-report/iMX6_Platform_SDK/output/mx6sdl/lib/libsdk.a(epit.o)
                                                  /home/leon/git/swp-report/iMX6_Platform_SDK/output/mx6sdl/lib/libsdk.a(usdhc.o)
                                                  /home/leon/git/swp-report/iMX6_Platform_SDK/output/mx6sdl/lib/libsdk.a(imx_uart.o)
                                                  /home/leon/git/swp-report/iMX6_Platform_SDK/output/mx6sdl/lib/libsdk.a(imx_i2c.o)
                                                  /home/leon/git/swp-report/iMX6_Platform_SDK/output/mx6sdl/obds/evb_rev_a/obj/sdk/drivers/hdmi/test/hdmi_test.o
disable_para_panel                                /home/leon/git/swp-report/iMX6_Platform_SDK/output/mx6sdl/lib/libboard_evb_rev_a.a(board_display.o)
disable_strict_align_check                        /home/leon/git/swp-report/iMX6_Platform_SDK/output/mx6sdl/lib/libsdk.a(cortexA9.o)
                                                  /home/leon/git/swp-report/iMX6_Platform_SDK/output/mx6sdl/obds/evb_rev_a/obj/apps/common/platform_init.o
disp_dev_list                                     /home/leon/git/swp-report/iMX6_Platform_SDK/output/mx6sdl/lib/libsdk.a(ips_disp_panel.o)
ds90ur124_init                                    /home/leon/git/swp-report/iMX6_Platform_SDK/output/mx6sdl/obds/evb_rev_a/obj/apps/obds/src/tests/deserializer_ds90ur124.o
ds90ur124_receive_cnx_test                        /home/leon/git/swp-report/iMX6_Platform_SDK/output/mx6sdl/obds/evb_rev_a/obj/apps/obds/src/tests/deserializer_ds90ur124.o
ds90ur124_test_enable                             /home/leon/git/swp-report/iMX6_Platform_SDK/output/mx6sdl/obds/evb_rev_a/obj/apps/obds/src/tests/deserializer_ds90ur124.o
ds90ur124_test_main                               /home/leon/git/swp-report/iMX6_Platform_SDK/output/mx6sdl/obds/evb_rev_a/obj/apps/obds/src/tests/deserializer_ds90ur124.o
dump_regs                                         /home/leon/git/swp-report/iMX6_Platform_SDK/output/mx6sdl/lib/libsdk.a(abort_handler.o)
                                                  /home/leon/git/swp-report/iMX6_Platform_SDK/output/mx6sdl/lib/libsdk.a(arm_abort.o)
ecspi1_iomux_config                               /home/leon/git/swp-report/iMX6_Platform_SDK/output/mx6sdl/lib/libboard_evb_rev_a.a(ecspi1_iomux_config.o)
                                                  /home/leon/git/swp-report/iMX6_Platform_SDK/output/mx6sdl/lib/libboard_evb_rev_a.a(iomux_config.o)
                                                  /home/leon/git/swp-report/iMX6_Platform_SDK/output/mx6sdl/lib/libboard_evb_rev_a.a(ecspi_iomux_config.o)
ecspi2_iomux_config                               /home/leon/git/swp-report/iMX6_Platform_SDK/output/mx6sdl/lib/libboard_evb_rev_a.a(iomux_config.o)
                                                  /home/leon/git/swp-report/iMX6_Platform_SDK/output/mx6sdl/lib/libboard_evb_rev_a.a(ecspi_iomux_config.o)
ecspi3_iomux_config                               /home/leon/git/swp-report/iMX6_Platform_SDK/output/mx6sdl/lib/libboard_evb_rev_a.a(iomux_config.o)
                                                  /home/leon/git/swp-report/iMX6_Platform_SDK/output/mx6sdl/lib/libboard_evb_rev_a.a(ecspi_iomux_config.o)
ecspi4_iomux_config                               /home/leon/git/swp-report/iMX6_Platform_SDK/output/mx6sdl/lib/libboard_evb_rev_a.a(iomux_config.o)
                                                  /home/leon/git/swp-report/iMX6_Platform_SDK/output/mx6sdl/lib/libboard_evb_rev_a.a(ecspi_iomux_config.o)
ecspi_close                                       /home/leon/git/swp-report/iMX6_Platform_SDK/output/mx6sdl/lib/libsdk.a(ecspi.o)
ecspi_configure                                   /home/leon/git/swp-report/iMX6_Platform_SDK/output/mx6sdl/lib/libsdk.a(ecspi.o)
ecspi_iomux_config                                /home/leon/git/swp-report/iMX6_Platform_SDK/output/mx6sdl/lib/libboard_evb_rev_a.a(ecspi_iomux_config.o)
                                                  /home/leon/git/swp-report/iMX6_Platform_SDK/output/mx6sdl/lib/libsdk.a(ecspi.o)
ecspi_open                                        /home/leon/git/swp-report/iMX6_Platform_SDK/output/mx6sdl/lib/libsdk.a(ecspi.o)
                                                  /home/leon/git/swp-report/iMX6_Platform_SDK/output/mx6sdl/obds/evb_rev_a/obj/apps/obds/src/tests/imx_spi_nor_test.o
ecspi_xfer                                        /home/leon/git/swp-report/iMX6_Platform_SDK/output/mx6sdl/lib/libsdk.a(ecspi.o)
                                                  /home/leon/git/swp-report/iMX6_Platform_SDK/output/mx6sdl/obds/evb_rev_a/obj/sdk/drivers/spi/test/spi_nor_numonyx.o
                                                  /home/leon/git/swp-report/iMX6_Platform_SDK/output/mx6sdl/obds/evb_rev_a/obj/sdk/drivers/spi/test/imx_spi_nor_atmel.o
eeprom_test_enable                                /home/leon/git/swp-report/iMX6_Platform_SDK/output/mx6sdl/obds/evb_rev_a/obj/apps/obds/src/tests/i2c_eeprom_at24cxx_test.o
eim_iomux_config                                  /home/leon/git/swp-report/iMX6_Platform_SDK/output/mx6sdl/lib/libboard_evb_rev_a.a(iomux_config.o)
                                                  /home/leon/git/swp-report/iMX6_Platform_SDK/output/mx6sdl/obds/evb_rev_a/obj/apps/obds/src/tests/weim_nor_flash_test.o
eim_nor_flash_test                                /home/leon/git/swp-report/iMX6_Platform_SDK/output/mx6sdl/obds/evb_rev_a/obj/apps/obds/src/tests/weim_nor_flash_test.o
emmc_init                                         /home/leon/git/swp-report/iMX6_Platform_SDK/output/mx6sdl/lib/libsdk.a(usdhc_mmc.o)
                                                  /home/leon/git/swp-report/iMX6_Platform_SDK/output/mx6sdl/lib/libsdk.a(usdhc.o)
emmc_print_cfg_info                               /home/leon/git/swp-report/iMX6_Platform_SDK/output/mx6sdl/lib/libsdk.a(usdhc_mmc.o)
                                                  /home/leon/git/swp-report/iMX6_Platform_SDK/output/mx6sdl/obds/evb_rev_a/obj/sdk/drivers/usdhc/test/usdhc_test.o
emuerateDevice                                    /home/leon/git/swp-report/iMX6_Platform_SDK/output/mx6sdl/obds/evb_rev_a/obj/sdk/drivers/usb/test/usb0_host_test.o
enable_interrupt                                  /home/leon/git/swp-report/iMX6_Platform_SDK/output/mx6sdl/lib/libsdk.a(interrupt.o)
                                                  /home/leon/git/swp-report/iMX6_Platform_SDK/output/mx6sdl/lib/libsdk.a(epit.o)
                                                  /home/leon/git/swp-report/iMX6_Platform_SDK/output/mx6sdl/lib/libsdk.a(usdhc.o)
                                                  /home/leon/git/swp-report/iMX6_Platform_SDK/output/mx6sdl/lib/libsdk.a(imx_uart.o)
                                                  /home/leon/git/swp-report/iMX6_Platform_SDK/output/mx6sdl/lib/libsdk.a(ipu_common.o)
                                                  /home/leon/git/swp-report/iMX6_Platform_SDK/output/mx6sdl/lib/libsdk.a(imx_i2c.o)
                                                  /home/leon/git/swp-report/iMX6_Platform_SDK/output/mx6sdl/obds/evb_rev_a/obj/sdk/drivers/hdmi/test/hdmi_test.o
enable_neon_fpu                                   /home/leon/git/swp-report/iMX6_Platform_SDK/output/mx6sdl/lib/libsdk.a(cortexA9.o)
                                                  /home/leon/git/swp-report/iMX6_Platform_SDK/output/mx6sdl/obds/evb_rev_a/obj/apps/common/platform_init.o
enet_iomux_config                                 /home/leon/git/swp-report/iMX6_Platform_SDK/output/mx6sdl/lib/libboard_evb_rev_a.a(enet_iomux_config.o)
                                                  /home/leon/git/swp-report/iMX6_Platform_SDK/output/mx6sdl/lib/libboard_evb_rev_a.a(iomux_config.o)
                                                  /home/leon/git/swp-report/iMX6_Platform_SDK/output/mx6sdl/lib/libboard_evb_rev_a.a(board_network.o)
enet_phy_rework_ar8031                            /home/leon/git/swp-report/iMX6_Platform_SDK/output/mx6sdl/lib/libsdk.a(enet_drv.o)
enet_phy_rework_ksz9021                           /home/leon/git/swp-report/iMX6_Platform_SDK/output/mx6sdl/lib/libsdk.a(enet_drv.o)
enet_test_main                                    /home/leon/git/swp-report/iMX6_Platform_SDK/output/mx6sdl/obds/evb_rev_a/obj/apps/obds/src/tests/enet_mx6dldq_test.o
environ                                           /home/leon/git/swp-report/iMX6_Platform_SDK/output/mx6sdl/lib/libsdk.a(runtime_support.o)
epdc_any_luts_active                              /home/leon/git/swp-report/iMX6_Platform_SDK/output/mx6sdl/lib/libsdk.a(mxc_epdc.o)
epdc_any_luts_available                           /home/leon/git/swp-report/iMX6_Platform_SDK/output/mx6sdl/lib/libsdk.a(mxc_epdc.o)
epdc_buffer_init                                  /home/leon/git/swp-report/iMX6_Platform_SDK/output/mx6sdl/lib/libsdk.a(mxc_epdc.o)
                                                  /home/leon/git/swp-report/iMX6_Platform_SDK/output/mx6sdl/obds/evb_rev_a/obj/sdk/drivers/epdc/test/epdc_test.o
epdc_clear_lut_complete_irq                       /home/leon/git/swp-report/iMX6_Platform_SDK/output/mx6sdl/lib/libsdk.a(mxc_epdc.o)
epdc_clock_setting                                /home/leon/git/swp-report/iMX6_Platform_SDK/output/mx6sdl/lib/libboard_evb_rev_a.a(board_display.o)
                                                  /home/leon/git/swp-report/iMX6_Platform_SDK/output/mx6sdl/obds/evb_rev_a/obj/sdk/drivers/epdc/test/epdc_test.o
epdc_dump_registers                               /home/leon/git/swp-report/iMX6_Platform_SDK/output/mx6sdl/lib/libsdk.a(mxc_epdc.o)
epdc_get_next_lut                                 /home/leon/git/swp-report/iMX6_Platform_SDK/output/mx6sdl/lib/libsdk.a(mxc_epdc.o)
                                                  /home/leon/git/swp-report/iMX6_Platform_SDK/output/mx6sdl/obds/evb_rev_a/obj/sdk/drivers/epdc/test/epdc_test.o
epdc_init_settings                                /home/leon/git/swp-report/iMX6_Platform_SDK/output/mx6sdl/lib/libsdk.a(mxc_epdc.o)
                                                  /home/leon/git/swp-report/iMX6_Platform_SDK/output/mx6sdl/obds/evb_rev_a/obj/sdk/drivers/epdc/test/epdc_test.o
epdc_iomux_config                                 /home/leon/git/swp-report/iMX6_Platform_SDK/output/mx6sdl/lib/libboard_evb_rev_a.a(iomux_config.o)
                                                  /home/leon/git/swp-report/iMX6_Platform_SDK/output/mx6sdl/obds/evb_rev_a/obj/sdk/drivers/epdc/test/epdc_test.o
epdc_is_collision                                 /home/leon/git/swp-report/iMX6_Platform_SDK/output/mx6sdl/lib/libsdk.a(mxc_epdc.o)
epdc_is_lut_active                                /home/leon/git/swp-report/iMX6_Platform_SDK/output/mx6sdl/lib/libsdk.a(mxc_epdc.o)
                                                  /home/leon/git/swp-report/iMX6_Platform_SDK/output/mx6sdl/obds/evb_rev_a/obj/sdk/drivers/epdc/test/epdc_test.o
epdc_is_lut_complete                              /home/leon/git/swp-report/iMX6_Platform_SDK/output/mx6sdl/lib/libsdk.a(mxc_epdc.o)
epdc_is_working_buffer_busy                       /home/leon/git/swp-report/iMX6_Platform_SDK/output/mx6sdl/lib/libsdk.a(mxc_epdc.o)
                                                  /home/leon/git/swp-report/iMX6_Platform_SDK/output/mx6sdl/obds/evb_rev_a/obj/sdk/drivers/epdc/test/epdc_test.o
epdc_is_working_buffer_complete                   /home/leon/git/swp-report/iMX6_Platform_SDK/output/mx6sdl/lib/libsdk.a(mxc_epdc.o)
epdc_load_image                                   /home/leon/git/swp-report/iMX6_Platform_SDK/output/mx6sdl/lib/libsdk.a(mxc_epdc.o)
                                                  /home/leon/git/swp-report/iMX6_Platform_SDK/output/mx6sdl/obds/evb_rev_a/obj/sdk/drivers/epdc/test/epdc_test.o
epdc_power_supply                                 /home/leon/git/swp-report/iMX6_Platform_SDK/output/mx6sdl/lib/libboard_evb_rev_a.a(board_display.o)
                                                  /home/leon/git/swp-report/iMX6_Platform_SDK/output/mx6sdl/obds/evb_rev_a/obj/sdk/drivers/epdc/test/epdc_test.o
epdc_pvi_svga_sdr_init                            /home/leon/git/swp-report/iMX6_Platform_SDK/output/mx6sdl/obds/evb_rev_a/obj/sdk/drivers/epdc/test/epdc_test.o
epdc_reset                                        /home/leon/git/swp-report/iMX6_Platform_SDK/output/mx6sdl/lib/libsdk.a(mxc_epdc.o)
                                                  /home/leon/git/swp-report/iMX6_Platform_SDK/output/mx6sdl/obds/evb_rev_a/obj/sdk/drivers/epdc/test/epdc_test.o
epdc_send_erase_to_color                          /home/leon/git/swp-report/iMX6_Platform_SDK/output/mx6sdl/obds/evb_rev_a/obj/sdk/drivers/epdc/test/epdc_test.o
epdc_send_image_update                            /home/leon/git/swp-report/iMX6_Platform_SDK/output/mx6sdl/obds/evb_rev_a/obj/sdk/drivers/epdc/test/epdc_test.o
epdc_send_mode0_to_black_update                   /home/leon/git/swp-report/iMX6_Platform_SDK/output/mx6sdl/obds/evb_rev_a/obj/sdk/drivers/epdc/test/epdc_test.o
epdc_set_update_addr                              /home/leon/git/swp-report/iMX6_Platform_SDK/output/mx6sdl/lib/libsdk.a(mxc_epdc.o)
                                                  /home/leon/git/swp-report/iMX6_Platform_SDK/output/mx6sdl/obds/evb_rev_a/obj/sdk/drivers/epdc/test/epdc_test.o
epdc_set_update_coord                             /home/leon/git/swp-report/iMX6_Platform_SDK/output/mx6sdl/lib/libsdk.a(mxc_epdc.o)
                                                  /home/leon/git/swp-report/iMX6_Platform_SDK/output/mx6sdl/obds/evb_rev_a/obj/sdk/drivers/epdc/test/epdc_test.o
epdc_set_update_dimensions                        /home/leon/git/swp-report/iMX6_Platform_SDK/output/mx6sdl/lib/libsdk.a(mxc_epdc.o)
                                                  /home/leon/git/swp-report/iMX6_Platform_SDK/output/mx6sdl/obds/evb_rev_a/obj/sdk/drivers/epdc/test/epdc_test.o
epdc_set_vertical_timing                          /home/leon/git/swp-report/iMX6_Platform_SDK/output/mx6sdl/lib/libsdk.a(mxc_epdc.o)
epdc_submit_update                                /home/leon/git/swp-report/iMX6_Platform_SDK/output/mx6sdl/lib/libsdk.a(mxc_epdc.o)
                                                  /home/leon/git/swp-report/iMX6_Platform_SDK/output/mx6sdl/obds/evb_rev_a/obj/sdk/drivers/epdc/test/epdc_test.o
epdc_test                                         /home/leon/git/swp-report/iMX6_Platform_SDK/output/mx6sdl/obds/evb_rev_a/obj/sdk/drivers/epdc/test/epdc_test.o
epdc_update_image                                 /home/leon/git/swp-report/iMX6_Platform_SDK/output/mx6sdl/obds/evb_rev_a/obj/sdk/drivers/epdc/test/epdc_test.o
epit1_iomux_config                                /home/leon/git/swp-report/iMX6_Platform_SDK/output/mx6sdl/lib/libboard_evb_rev_a.a(iomux_config.o)
epit2_iomux_config                                /home/leon/git/swp-report/iMX6_Platform_SDK/output/mx6sdl/lib/libboard_evb_rev_a.a(iomux_config.o)
epit_counter_disable                              /home/leon/git/swp-report/iMX6_Platform_SDK/output/mx6sdl/lib/libsdk.a(epit.o)
                                                  /home/leon/git/swp-report/iMX6_Platform_SDK/output/mx6sdl/lib/libsdk.a(timer.o)
epit_counter_enable                               /home/leon/git/swp-report/iMX6_Platform_SDK/output/mx6sdl/lib/libsdk.a(epit.o)
                                                  /home/leon/git/swp-report/iMX6_Platform_SDK/output/mx6sdl/lib/libsdk.a(timer.o)
epit_get_compare_event                            /home/leon/git/swp-report/iMX6_Platform_SDK/output/mx6sdl/lib/libsdk.a(epit.o)
                                                  /home/leon/git/swp-report/iMX6_Platform_SDK/output/mx6sdl/lib/libsdk.a(timer.o)
epit_get_counter_value                            /home/leon/git/swp-report/iMX6_Platform_SDK/output/mx6sdl/lib/libsdk.a(epit.o)
epit_init                                         /home/leon/git/swp-report/iMX6_Platform_SDK/output/mx6sdl/lib/libsdk.a(epit.o)
                                                  /home/leon/git/swp-report/iMX6_Platform_SDK/output/mx6sdl/lib/libsdk.a(timer.o)
epit_reload_counter                               /home/leon/git/swp-report/iMX6_Platform_SDK/output/mx6sdl/lib/libsdk.a(epit.o)
epit_set_compare_event                            /home/leon/git/swp-report/iMX6_Platform_SDK/output/mx6sdl/lib/libsdk.a(epit.o)
epit_setup_interrupt                              /home/leon/git/swp-report/iMX6_Platform_SDK/output/mx6sdl/lib/libsdk.a(epit.o)
errno                                             /home/leon/git/swp-report/iMX6_Platform_SDK/output/mx6sdl/lib/libsdk.a(runtime_support.o)
                                                  /home/leon/riotboard/arm-2012.09/bin/../arm-none-eabi/lib//libc.a(lib_a-readr.o)
                                                  /home/leon/riotboard/arm-2012.09/bin/../arm-none-eabi/lib//libc.a(lib_a-lseekr.o)
                                                  /home/leon/riotboard/arm-2012.09/bin/../arm-none-eabi/lib//libc.a(lib_a-isattyr.o)
                                                  /home/leon/riotboard/arm-2012.09/bin/../arm-none-eabi/lib//libc.a(lib_a-fstatr.o)
                                                  /home/leon/riotboard/arm-2012.09/bin/../arm-none-eabi/lib//libc.a(lib_a-closer.o)
                                                  /home/leon/riotboard/arm-2012.09/bin/../arm-none-eabi/lib//libc.a(lib_a-writer.o)
                                                  /home/leon/riotboard/arm-2012.09/bin/../arm-none-eabi/lib//libc.a(lib_a-signalr.o)
                                                  /home/leon/riotboard/arm-2012.09/bin/../arm-none-eabi/lib//libc.a(lib_a-reent.o)
                                                  /home/leon/riotboard/arm-2012.09/bin/../arm-none-eabi/lib//libc.a(lib_a-sbrkr.o)
esai_clk_sel_gate_on                              /home/leon/git/swp-report/iMX6_Platform_SDK/output/mx6sdl/lib/libboard_evb_rev_a.a(board_audio.o)
                                                  /home/leon/git/swp-report/iMX6_Platform_SDK/output/mx6sdl/lib/libsdk.a(imx_esai.o)
esai_codec_power_on                               /home/leon/git/swp-report/iMX6_Platform_SDK/output/mx6sdl/lib/libboard_evb_rev_a.a(board_audio.o)
                                                  /home/leon/git/swp-report/iMX6_Platform_SDK/output/mx6sdl/lib/libsdk.a(cs42888.o)
esai_config                                       /home/leon/git/swp-report/iMX6_Platform_SDK/output/mx6sdl/lib/libsdk.a(imx_esai.o)
esai_deinit                                       /home/leon/git/swp-report/iMX6_Platform_SDK/output/mx6sdl/lib/libsdk.a(imx_esai.o)
esai_init                                         /home/leon/git/swp-report/iMX6_Platform_SDK/output/mx6sdl/lib/libsdk.a(imx_esai.o)
esai_iomux_config                                 /home/leon/git/swp-report/iMX6_Platform_SDK/output/mx6sdl/lib/libboard_evb_rev_a.a(esai_iomux_config.o)
                                                  /home/leon/git/swp-report/iMX6_Platform_SDK/output/mx6sdl/lib/libboard_evb_rev_a.a(iomux_config.o)
                                                  /home/leon/git/swp-report/iMX6_Platform_SDK/output/mx6sdl/lib/libsdk.a(imx_esai.o)
esai_test                                         /home/leon/git/swp-report/iMX6_Platform_SDK/output/mx6sdl/obds/evb_rev_a/obj/apps/obds/src/tests/audio_esai_test.o
esai_write_fifo                                   /home/leon/git/swp-report/iMX6_Platform_SDK/output/mx6sdl/lib/libsdk.a(imx_esai.o)
exception_handler                                 /home/leon/git/swp-report/iMX6_Platform_SDK/output/mx6sdl/lib/libsdk.a(vectors.o)
ext_hdmi_transmitter_power_on                     /home/leon/git/swp-report/iMX6_Platform_SDK/output/mx6sdl/lib/libboard_evb_rev_a.a(board_hdmi.o)
                                                  /home/leon/git/swp-report/iMX6_Platform_SDK/output/mx6sdl/lib/libsdk.a(ips_disp_panel.o)
fclose                                            /home/leon/riotboard/arm-2012.09/bin/../arm-none-eabi/lib//libc.a(lib_a-fclose.o)
                                                  /home/leon/riotboard/arm-2012.09/bin/../arm-none-eabi/lib//libc.a(lib_a-findfp.o)
fflush                                            /home/leon/riotboard/arm-2012.09/bin/../arm-none-eabi/lib//libc.a(lib_a-fflush.o)
                                                  /home/leon/riotboard/arm-2012.09/bin/../arm-none-eabi/lib//libc.a(lib_a-refill.o)
fiprintf                                          /home/leon/riotboard/arm-2012.09/bin/../arm-none-eabi/lib//libc.a(lib_a-fiprintf.o)
                                                  /home/leon/riotboard/arm-2012.09/bin/../arm-none-eabi/lib//libc.a(lib_a-assert.o)
flexcan1_iomux_config                             /home/leon/git/swp-report/iMX6_Platform_SDK/output/mx6sdl/lib/libboard_evb_rev_a.a(flexcan1_iomux_config.o)
                                                  /home/leon/git/swp-report/iMX6_Platform_SDK/output/mx6sdl/lib/libboard_evb_rev_a.a(iomux_config.o)
flexcan2_iomux_config                             /home/leon/git/swp-report/iMX6_Platform_SDK/output/mx6sdl/lib/libboard_evb_rev_a.a(flexcan2_iomux_config.o)
                                                  /home/leon/git/swp-report/iMX6_Platform_SDK/output/mx6sdl/lib/libboard_evb_rev_a.a(iomux_config.o)
flexcan_test                                      /home/leon/git/swp-report/iMX6_Platform_SDK/output/mx6sdl/obds/evb_rev_a/obj/apps/obds/src/tests/flexcan_test.o
fputc                                             /home/leon/riotboard/arm-2012.09/bin/../arm-none-eabi/lib//libc.a(lib_a-fputc.o)
                                                  /home/leon/git/swp-report/iMX6_Platform_SDK/output/mx6sdl/lib/libsdk.a(system_util.o)
                                                  /home/leon/git/swp-report/iMX6_Platform_SDK/output/mx6sdl/lib/libsdk.a(menu.o)
                                                  /home/leon/git/swp-report/iMX6_Platform_SDK/output/mx6sdl/obds/evb_rev_a/obj/apps/obds/src/tests/program_mac_address.o
fputwc                                            /home/leon/riotboard/arm-2012.09/bin/../arm-none-eabi/lib//libc.a(lib_a-fputwc.o)
frame_list                                        /home/leon/git/swp-report/iMX6_Platform_SDK/output/mx6sdl/obds/evb_rev_a/obj/sdk/drivers/usb/test/usb0_host_test.o
free                                              /home/leon/riotboard/arm-2012.09/bin/../arm-none-eabi/lib//libc.a(lib_a-malloc.o)
                                                  /home/leon/git/swp-report/iMX6_Platform_SDK/output/mx6sdl/lib/libsdk.a(usbh_drv.o)
                                                  /home/leon/git/swp-report/iMX6_Platform_SDK/output/mx6sdl/obds/evb_rev_a/obj/sdk/drivers/usb/test/usb0_host_test.o
                                                  /home/leon/git/swp-report/iMX6_Platform_SDK/output/mx6sdl/obds/evb_rev_a/obj/apps/obds/src/tests/usb_tests_obds.o
                                                  /home/leon/git/swp-report/iMX6_Platform_SDK/output/mx6sdl/obds/evb_rev_a/obj/apps/obds/src/obds.o
free_memory_end                                   /home/leon/git/swp-report/iMX6_Platform_SDK/output/mx6sdl/lib/libsdk.a(runtime_support.o)
free_memory_start                                 /home/leon/git/swp-report/iMX6_Platform_SDK/output/mx6sdl/lib/libsdk.a(runtime_support.o)
free_test_results                                 /home/leon/git/swp-report/iMX6_Platform_SDK/output/mx6sdl/obds/evb_rev_a/obj/apps/obds/src/obds.o
fsl_gray_600x230                                  /home/leon/git/swp-report/iMX6_Platform_SDK/output/mx6sdl/lib/libsdk.a(mxc_epdc.o)
gAudio_sample                                     /home/leon/git/swp-report/iMX6_Platform_SDK/output/mx6sdl/obds/evb_rev_a/obj/sdk/drivers/hdmi/test/init_dma_data.o
gImage_foretext                                   /home/leon/git/swp-report/iMX6_Platform_SDK/output/mx6sdl/obds/evb_rev_a/obj/sdk/drivers/ipu/test/ipu_image.o
gImage_fsl                                        /home/leon/git/swp-report/iMX6_Platform_SDK/output/mx6sdl/obds/evb_rev_a/obj/apps/obds/src/tests/display_test.o
g_KSZ9021RN_test_name                             /home/leon/git/swp-report/iMX6_Platform_SDK/output/mx6sdl/obds/evb_rev_a/obj/apps/obds/src/tests/enet_mx6dldq_test.o
g_TextAttributeBlink                              /home/leon/git/swp-report/iMX6_Platform_SDK/output/mx6sdl/lib/libsdk.a(text_color.o)
g_TextAttributeBold                               /home/leon/git/swp-report/iMX6_Platform_SDK/output/mx6sdl/lib/libsdk.a(text_color.o)
                                                  /home/leon/git/swp-report/iMX6_Platform_SDK/output/mx6sdl/lib/libsdk.a(system_util.o)
                                                  /home/leon/git/swp-report/iMX6_Platform_SDK/output/mx6sdl/lib/libsdk.a(menu.o)
                                                  /home/leon/git/swp-report/iMX6_Platform_SDK/output/mx6sdl/obds/evb_rev_a/obj/apps/obds/src/tests/program_mac_address.o
                                                  /home/leon/git/swp-report/iMX6_Platform_SDK/output/mx6sdl/obds/evb_rev_a/obj/apps/obds/src/tests/program_board_id.o
                                                  /home/leon/git/swp-report/iMX6_Platform_SDK/output/mx6sdl/obds/evb_rev_a/obj/apps/obds/src/obds.o
g_TextAttributeDefault                            /home/leon/git/swp-report/iMX6_Platform_SDK/output/mx6sdl/lib/libsdk.a(text_color.o)
                                                  /home/leon/git/swp-report/iMX6_Platform_SDK/output/mx6sdl/lib/libsdk.a(menu.o)
                                                  /home/leon/git/swp-report/iMX6_Platform_SDK/output/mx6sdl/obds/evb_rev_a/obj/apps/obds/src/tests/snvs_srtc_test.o
                                                  /home/leon/git/swp-report/iMX6_Platform_SDK/output/mx6sdl/obds/evb_rev_a/obj/apps/obds/src/obds.o
g_TextAttributeDim                                /home/leon/git/swp-report/iMX6_Platform_SDK/output/mx6sdl/lib/libsdk.a(text_color.o)
                                                  /home/leon/git/swp-report/iMX6_Platform_SDK/output/mx6sdl/obds/evb_rev_a/obj/apps/obds/src/obds.o
g_TextAttributeHidden                             /home/leon/git/swp-report/iMX6_Platform_SDK/output/mx6sdl/lib/libsdk.a(text_color.o)
g_TextAttributeReverse                            /home/leon/git/swp-report/iMX6_Platform_SDK/output/mx6sdl/lib/libsdk.a(text_color.o)
g_TextAttributeUnderline                          /home/leon/git/swp-report/iMX6_Platform_SDK/output/mx6sdl/lib/libsdk.a(text_color.o)
g_TextColorBlack                                  /home/leon/git/swp-report/iMX6_Platform_SDK/output/mx6sdl/lib/libsdk.a(text_color.o)
g_TextColorBlue                                   /home/leon/git/swp-report/iMX6_Platform_SDK/output/mx6sdl/lib/libsdk.a(text_color.o)
                                                  /home/leon/git/swp-report/iMX6_Platform_SDK/output/mx6sdl/lib/libsdk.a(menu.o)
g_TextColorCyan                                   /home/leon/git/swp-report/iMX6_Platform_SDK/output/mx6sdl/lib/libsdk.a(text_color.o)
g_TextColorGray                                   /home/leon/git/swp-report/iMX6_Platform_SDK/output/mx6sdl/lib/libsdk.a(text_color.o)
                                                  /home/leon/git/swp-report/iMX6_Platform_SDK/output/mx6sdl/obds/evb_rev_a/obj/apps/obds/src/obds.o
g_TextColorGreen                                  /home/leon/git/swp-report/iMX6_Platform_SDK/output/mx6sdl/lib/libsdk.a(text_color.o)
                                                  /home/leon/git/swp-report/iMX6_Platform_SDK/output/mx6sdl/obds/evb_rev_a/obj/apps/obds/src/obds.o
g_TextColorLightBlue                              /home/leon/git/swp-report/iMX6_Platform_SDK/output/mx6sdl/lib/libsdk.a(text_color.o)
g_TextColorMagenta                                /home/leon/git/swp-report/iMX6_Platform_SDK/output/mx6sdl/lib/libsdk.a(text_color.o)
                                                  /home/leon/git/swp-report/iMX6_Platform_SDK/output/mx6sdl/lib/libsdk.a(menu.o)
g_TextColorOrange                                 /home/leon/git/swp-report/iMX6_Platform_SDK/output/mx6sdl/lib/libsdk.a(text_color.o)
g_TextColorPurple                                 /home/leon/git/swp-report/iMX6_Platform_SDK/output/mx6sdl/lib/libsdk.a(text_color.o)
g_TextColorRed                                    /home/leon/git/swp-report/iMX6_Platform_SDK/output/mx6sdl/lib/libsdk.a(text_color.o)
                                                  /home/leon/git/swp-report/iMX6_Platform_SDK/output/mx6sdl/lib/libsdk.a(system_util.o)
                                                  /home/leon/git/swp-report/iMX6_Platform_SDK/output/mx6sdl/lib/libsdk.a(menu.o)
                                                  /home/leon/git/swp-report/iMX6_Platform_SDK/output/mx6sdl/obds/evb_rev_a/obj/apps/obds/src/tests/program_mac_address.o
                                                  /home/leon/git/swp-report/iMX6_Platform_SDK/output/mx6sdl/obds/evb_rev_a/obj/apps/obds/src/tests/program_board_id.o
                                                  /home/leon/git/swp-report/iMX6_Platform_SDK/output/mx6sdl/obds/evb_rev_a/obj/apps/obds/src/obds.o
g_TextColorWhite                                  /home/leon/git/swp-report/iMX6_Platform_SDK/output/mx6sdl/lib/libsdk.a(text_color.o)
g_TextColorYellow                                 /home/leon/git/swp-report/iMX6_Platform_SDK/output/mx6sdl/lib/libsdk.a(text_color.o)
                                                  /home/leon/git/swp-report/iMX6_Platform_SDK/output/mx6sdl/lib/libsdk.a(menu.o)
                                                  /home/leon/git/swp-report/iMX6_Platform_SDK/output/mx6sdl/obds/evb_rev_a/obj/apps/obds/src/tests/snvs_srtc_test.o
                                                  /home/leon/git/swp-report/iMX6_Platform_SDK/output/mx6sdl/obds/evb_rev_a/obj/apps/obds/src/obds.o
g_adv7180_i2c_device                              /home/leon/git/swp-report/iMX6_Platform_SDK/output/mx6sdl/lib/libboard_evb_rev_a.a(board_i2c.o)
                                                  /home/leon/git/swp-report/iMX6_Platform_SDK/output/mx6sdl/lib/libsdk.a(adv7180.o)
                                                  /home/leon/git/swp-report/iMX6_Platform_SDK/output/mx6sdl/obds/evb_rev_a/obj/apps/obds/src/tests/video_dec_adv7180.o
g_android_buttons_test_name                       /home/leon/git/swp-report/iMX6_Platform_SDK/output/mx6sdl/obds/evb_rev_a/obj/apps/obds/src/tests/android_buttons_test.o
g_ar8031_test_name                                /home/leon/git/swp-report/iMX6_Platform_SDK/output/mx6sdl/obds/evb_rev_a/obj/apps/obds/src/tests/enet_mx6dldq_test.o
g_ard_main_board_reset_button_test                /home/leon/git/swp-report/iMX6_Platform_SDK/output/mx6sdl/obds/evb_rev_a/obj/apps/obds/src/tests/video_dec_ARD_MB_reset_button.o
g_ard_mb_expander_reset_test_name                 /home/leon/git/swp-report/iMX6_Platform_SDK/output/mx6sdl/obds/evb_rev_a/obj/apps/obds/src/tests/video_dec_ARD_MBrst_from_cpu_expander.o
g_at24cx_i2c_device                               /home/leon/git/swp-report/iMX6_Platform_SDK/output/mx6sdl/lib/libboard_evb_rev_a.a(board_i2c.o)
                                                  /home/leon/git/swp-report/iMX6_Platform_SDK/output/mx6sdl/obds/evb_rev_a/obj/apps/obds/src/tests/i2c_eeprom_at24cxx_test.o
g_audio_esai_test_name                            /home/leon/git/swp-report/iMX6_Platform_SDK/output/mx6sdl/obds/evb_rev_a/obj/apps/obds/src/tests/audio_esai_test.o
g_audio_ssi_test_name                             /home/leon/git/swp-report/iMX6_Platform_SDK/output/mx6sdl/obds/evb_rev_a/obj/apps/obds/src/tests/audio_ssi_test.o
g_camera_i2c_port                                 /home/leon/git/swp-report/iMX6_Platform_SDK/output/mx6sdl/lib/libboard_evb_rev_a.a(board_camera.o)
                                                  /home/leon/git/swp-report/iMX6_Platform_SDK/output/mx6sdl/lib/libsdk.a(smd_sensor.o)
g_camera_modes                                    /home/leon/git/swp-report/iMX6_Platform_SDK/output/mx6sdl/lib/libsdk.a(camera_profile.o)
g_camera_profiles                                 /home/leon/git/swp-report/iMX6_Platform_SDK/output/mx6sdl/lib/libsdk.a(camera_profile.o)
                                                  /home/leon/git/swp-report/iMX6_Platform_SDK/output/mx6sdl/lib/libsdk.a(smd_sensor.o)
g_camera_test_name                                /home/leon/git/swp-report/iMX6_Platform_SDK/output/mx6sdl/obds/evb_rev_a/obj/sdk/drivers/camera/test/camera_test.o
g_cs42888_i2c_device                              /home/leon/git/swp-report/iMX6_Platform_SDK/output/mx6sdl/lib/libboard_evb_rev_a.a(board_i2c.o)
                                                  /home/leon/git/swp-report/iMX6_Platform_SDK/output/mx6sdl/lib/libsdk.a(cs42888.o)
g_cs42888_i2c_device_id_test_name                 /home/leon/git/swp-report/iMX6_Platform_SDK/output/mx6sdl/obds/evb_rev_a/obj/apps/obds/src/tests/i2c_device_check_cs42888.o
g_ddr_test_name                                   /home/leon/git/swp-report/iMX6_Platform_SDK/output/mx6sdl/obds/evb_rev_a/obj/apps/obds/src/tests/ddr_test.o
g_debug_uart_port                                 /home/leon/git/swp-report/iMX6_Platform_SDK/output/mx6sdl/lib/libboard_evb_rev_a.a(hardware_modules.o)
                                                  /home/leon/git/swp-report/iMX6_Platform_SDK/output/mx6sdl/lib/libsdk.a(runtime_support.o)
                                                  /home/leon/git/swp-report/iMX6_Platform_SDK/output/mx6sdl/lib/libsdk.a(system_util.o)
                                                  /home/leon/git/swp-report/iMX6_Platform_SDK/output/mx6sdl/obds/evb_rev_a/obj/sdk/drivers/camera/test/csi_test_mode.o
                                                  /home/leon/git/swp-report/iMX6_Platform_SDK/output/mx6sdl/obds/evb_rev_a/obj/apps/common/print_clock_info.o
                                                  /home/leon/git/swp-report/iMX6_Platform_SDK/output/mx6sdl/obds/evb_rev_a/obj/apps/common/platform_init.o
g_eim_NOR_flash_test_name                         /home/leon/git/swp-report/iMX6_Platform_SDK/output/mx6sdl/obds/evb_rev_a/obj/apps/obds/src/tests/weim_nor_flash_test.o
g_emc1046_i2c_device_id_test_name                 /home/leon/git/swp-report/iMX6_Platform_SDK/output/mx6sdl/obds/evb_rev_a/obj/apps/obds/src/tests/i2c_device_temp_sensor_emc1046.o
g_epdc_test_name                                  /home/leon/git/swp-report/iMX6_Platform_SDK/output/mx6sdl/obds/evb_rev_a/obj/sdk/drivers/epdc/test/epdc_test.o
g_flexcan_test_name                               /home/leon/git/swp-report/iMX6_Platform_SDK/output/mx6sdl/obds/evb_rev_a/obj/apps/obds/src/tests/flexcan_test.o
g_gpio_led_test_name                              /home/leon/git/swp-report/iMX6_Platform_SDK/output/mx6sdl/obds/evb_rev_a/obj/apps/obds/src/tests/gpio_led.o
g_hs_tsc_p1003_i2c_device_id_test_name            /home/leon/git/swp-report/iMX6_Platform_SDK/output/mx6sdl/obds/evb_rev_a/obj/apps/obds/src/tests/i2c_device_id_check_p1003_tsc.o
g_interrupt_handlers                              /home/leon/git/swp-report/iMX6_Platform_SDK/output/mx6sdl/lib/libsdk.a(interrupt.o)
g_ipu_display_tests_name                          /home/leon/git/swp-report/iMX6_Platform_SDK/output/mx6sdl/obds/evb_rev_a/obj/apps/obds/src/tests/display_test.o
g_isl29023_i2c_device_id_test_name                /home/leon/git/swp-report/iMX6_Platform_SDK/output/mx6sdl/obds/evb_rev_a/obj/apps/obds/src/tests/i2c_check_light_sensor_isl29023.o
g_mag3110_i2c_device_id_test_name                 /home/leon/git/swp-report/iMX6_Platform_SDK/output/mx6sdl/obds/evb_rev_a/obj/apps/obds/src/tests/i2c_device_digital_compass_mag3110.o
g_mag3112_i2c_device_id_test_name                 /home/leon/git/swp-report/iMX6_Platform_SDK/output/mx6sdl/obds/evb_rev_a/obj/apps/obds/src/tests/i2c_device_digital_compass_mag3112.o
g_max17135_i2c_device_id_test_name                /home/leon/git/swp-report/iMX6_Platform_SDK/output/mx6sdl/obds/evb_rev_a/obj/apps/obds/src/tests/pmic_max17135.o
g_max7310_i2c_device_id_test_name                 /home/leon/git/swp-report/iMX6_Platform_SDK/output/mx6sdl/obds/evb_rev_a/obj/sdk/common/ioexpander/test/max7310_test.o
g_microsecondTimerMultiple                        /home/leon/git/swp-report/iMX6_Platform_SDK/output/mx6sdl/lib/libsdk.a(timer.o)
g_mma8450_i2c_device_id_test_name                 /home/leon/git/swp-report/iMX6_Platform_SDK/output/mx6sdl/obds/evb_rev_a/obj/apps/obds/src/tests/i2c_device_id_check_mma8450.o
g_mma8451_i2c_device_id_test_name                 /home/leon/git/swp-report/iMX6_Platform_SDK/output/mx6sdl/obds/evb_rev_a/obj/apps/obds/src/tests/i2c_device_id_check_mma8451.o
g_mmcsd_test_name                                 /home/leon/git/swp-report/iMX6_Platform_SDK/output/mx6sdl/obds/evb_rev_a/obj/apps/obds/src/tests/mmcsd_test.o
g_mt9p111_af_firmware                             /home/leon/git/swp-report/iMX6_Platform_SDK/output/mx6sdl/lib/libsdk.a(camera_profile.o)
g_mt9p111_af_ready                                /home/leon/git/swp-report/iMX6_Platform_SDK/output/mx6sdl/lib/libsdk.a(camera_profile.o)
g_mt9p111_af_trigger                              /home/leon/git/swp-report/iMX6_Platform_SDK/output/mx6sdl/lib/libsdk.a(camera_profile.o)
g_mt9p111_mode_vga_640_480_30fps                  /home/leon/git/swp-report/iMX6_Platform_SDK/output/mx6sdl/lib/libsdk.a(camera_profile.o)
g_mt9p111_sensor_detection                        /home/leon/git/swp-report/iMX6_Platform_SDK/output/mx6sdl/lib/libsdk.a(camera_profile.o)
g_os81050_i2c_device                              /home/leon/git/swp-report/iMX6_Platform_SDK/output/mx6sdl/lib/libboard_evb_rev_a.a(board_i2c.o)
                                                  /home/leon/git/swp-report/iMX6_Platform_SDK/output/mx6sdl/obds/evb_rev_a/obj/apps/obds/src/tests/mlb_os81050.o
g_ov3640_mode_vga_640_480_30fps                   /home/leon/git/swp-report/iMX6_Platform_SDK/output/mx6sdl/lib/libsdk.a(camera_profile.o)
g_ov3640_sensor_detection                         /home/leon/git/swp-report/iMX6_Platform_SDK/output/mx6sdl/lib/libsdk.a(camera_profile.o)
g_ov5640_mode_vga_640_480_30fps                   /home/leon/git/swp-report/iMX6_Platform_SDK/output/mx6sdl/lib/libsdk.a(camera_profile.o)
g_ov5640_sensor_detection                         /home/leon/git/swp-report/iMX6_Platform_SDK/output/mx6sdl/lib/libsdk.a(camera_profile.o)
g_ov5642_af_firmware                              /home/leon/git/swp-report/iMX6_Platform_SDK/output/mx6sdl/lib/libsdk.a(camera_profile.o)
g_ov5642_af_ready                                 /home/leon/git/swp-report/iMX6_Platform_SDK/output/mx6sdl/lib/libsdk.a(camera_profile.o)
g_ov5642_af_trigger                               /home/leon/git/swp-report/iMX6_Platform_SDK/output/mx6sdl/lib/libsdk.a(camera_profile.o)
g_ov5642_mode_vga_640_480_30fps                   /home/leon/git/swp-report/iMX6_Platform_SDK/output/mx6sdl/lib/libsdk.a(camera_profile.o)
g_ov5642_sensor_detection                         /home/leon/git/swp-report/iMX6_Platform_SDK/output/mx6sdl/lib/libsdk.a(camera_profile.o)
g_p1003_tsc_i2c_device                            /home/leon/git/swp-report/iMX6_Platform_SDK/output/mx6sdl/lib/libboard_evb_rev_a.a(board_i2c.o)
                                                  /home/leon/git/swp-report/iMX6_Platform_SDK/output/mx6sdl/obds/evb_rev_a/obj/apps/obds/src/tests/i2c_device_id_check_p1003_tsc.o
g_pmic_da9053_i2c_device                          /home/leon/git/swp-report/iMX6_Platform_SDK/output/mx6sdl/lib/libboard_evb_rev_a.a(board_i2c.o)
                                                  /home/leon/git/swp-report/iMX6_Platform_SDK/output/mx6sdl/obds/evb_rev_a/obj/apps/obds/src/tests/touch_screen.o
                                                  /home/leon/git/swp-report/iMX6_Platform_SDK/output/mx6sdl/obds/evb_rev_a/obj/apps/obds/src/tests/pmic_da9053.o
g_pmic_ltc3589_i2c_device                         /home/leon/git/swp-report/iMX6_Platform_SDK/output/mx6sdl/lib/libboard_evb_rev_a.a(board_i2c.o)
                                                  /home/leon/git/swp-report/iMX6_Platform_SDK/output/mx6sdl/obds/evb_rev_a/obj/apps/obds/src/tests/pmic_lt3589.o
g_pmic_max17135_i2c_device                        /home/leon/git/swp-report/iMX6_Platform_SDK/output/mx6sdl/lib/libboard_evb_rev_a.a(board_i2c.o)
                                                  /home/leon/git/swp-report/iMX6_Platform_SDK/output/mx6sdl/obds/evb_rev_a/obj/apps/obds/src/tests/pmic_max17135.o
g_pmic_pf0100_i2c_device                          /home/leon/git/swp-report/iMX6_Platform_SDK/output/mx6sdl/lib/libboard_evb_rev_a.a(board_i2c.o)
                                                  /home/leon/git/swp-report/iMX6_Platform_SDK/output/mx6sdl/obds/evb_rev_a/obj/sdk/common/pmic/pfuse/pf0100.o
g_pmic_pf0100_i2c_device_id_test_name             /home/leon/git/swp-report/iMX6_Platform_SDK/output/mx6sdl/obds/evb_rev_a/obj/sdk/common/pmic/pfuse/pf0100.o
g_ppl3115_i2c_device_id_test_name                 /home/leon/git/swp-report/iMX6_Platform_SDK/output/mx6sdl/obds/evb_rev_a/obj/apps/obds/src/tests/i2c_device_barometer_ppl3115.o
g_program_board_id_test_name                      /home/leon/git/swp-report/iMX6_Platform_SDK/output/mx6sdl/obds/evb_rev_a/obj/apps/obds/src/tests/program_board_id.o
g_program_mac_address_test_name                   /home/leon/git/swp-report/iMX6_Platform_SDK/output/mx6sdl/obds/evb_rev_a/obj/apps/obds/src/tests/program_mac_address.o
g_sgtl5000_i2c_device                             /home/leon/git/swp-report/iMX6_Platform_SDK/output/mx6sdl/lib/libboard_evb_rev_a.a(board_i2c.o)
                                                  /home/leon/git/swp-report/iMX6_Platform_SDK/output/mx6sdl/lib/libsdk.a(sgtl5000.o)
g_si476x_i2c_device                               /home/leon/git/swp-report/iMX6_Platform_SDK/output/mx6sdl/lib/libboard_evb_rev_a.a(board_i2c.o)
                                                  /home/leon/git/swp-report/iMX6_Platform_SDK/output/mx6sdl/obds/evb_rev_a/obj/apps/obds/src/tests/fm_tuner_si476x_test.o
g_snvs_srtc_test_name                             /home/leon/git/swp-report/iMX6_Platform_SDK/output/mx6sdl/obds/evb_rev_a/obj/apps/obds/src/tests/snvs_srtc_test.o
g_spi_nor_test_name                               /home/leon/git/swp-report/iMX6_Platform_SDK/output/mx6sdl/obds/evb_rev_a/obj/apps/obds/src/tests/imx_spi_nor_test.o
g_system_timer_port                               /home/leon/git/swp-report/iMX6_Platform_SDK/output/mx6sdl/lib/libboard_evb_rev_a.a(hardware_modules.o)
                                                  /home/leon/git/swp-report/iMX6_Platform_SDK/output/mx6sdl/lib/libsdk.a(timer.o)
g_uart_test_name                                  /home/leon/git/swp-report/iMX6_Platform_SDK/output/mx6sdl/obds/evb_rev_a/obj/sdk/drivers/uart/test/uart_test.o
g_usb_host1_dev_enum_test_name                    /home/leon/git/swp-report/iMX6_Platform_SDK/output/mx6sdl/obds/evb_rev_a/obj/apps/obds/src/tests/usb_tests_obds.o
g_usb_otg_dev_enum_test_name                      /home/leon/git/swp-report/iMX6_Platform_SDK/output/mx6sdl/obds/evb_rev_a/obj/apps/obds/src/tests/usb_tests_obds.o
g_vectNum                                         /home/leon/git/swp-report/iMX6_Platform_SDK/output/mx6sdl/lib/libsdk.a(interrupt.o)
g_video_dec_test_name                             /home/leon/git/swp-report/iMX6_Platform_SDK/output/mx6sdl/obds/evb_rev_a/obj/apps/obds/src/tests/video_dec_adv7180.o
g_wm8958_i2c_device                               /home/leon/git/swp-report/iMX6_Platform_SDK/output/mx6sdl/lib/libboard_evb_rev_a.a(board_i2c.o)
                                                  /home/leon/git/swp-report/iMX6_Platform_SDK/output/mx6sdl/lib/libsdk.a(wm8958_dac.o)
g_wm8962_i2c_device                               /home/leon/git/swp-report/iMX6_Platform_SDK/output/mx6sdl/lib/libboard_evb_rev_a.a(board_i2c.o)
                                                  /home/leon/git/swp-report/iMX6_Platform_SDK/output/mx6sdl/lib/libsdk.a(wm8962.o)
get_arm_private_peripheral_base                   /home/leon/git/swp-report/iMX6_Platform_SDK/output/mx6sdl/lib/libsdk.a(cortexA9.o)
                                                  /home/leon/git/swp-report/iMX6_Platform_SDK/output/mx6sdl/lib/libsdk.a(gic.o)
get_board_id                                      /home/leon/git/swp-report/iMX6_Platform_SDK/output/mx6sdl/lib/libsdk.a(board_id.o)
                                                  /home/leon/git/swp-report/iMX6_Platform_SDK/output/mx6sdl/obds/evb_rev_a/obj/apps/obds/src/tests/program_board_id.o
                                                  /home/leon/git/swp-report/iMX6_Platform_SDK/output/mx6sdl/obds/evb_rev_a/obj/apps/obds/src/obds.o
                                                  /home/leon/git/swp-report/iMX6_Platform_SDK/output/mx6sdl/obds/evb_rev_a/obj/apps/common/print_version.o
get_color_supported                               /home/leon/git/swp-report/iMX6_Platform_SDK/output/mx6sdl/lib/libsdk.a(text_color.o)
get_ddr_density                                   /home/leon/git/swp-report/iMX6_Platform_SDK/output/mx6sdl/obds/evb_rev_a/obj/apps/obds/src/tests/ddr_test.o
get_input_hex                                     /home/leon/git/swp-report/iMX6_Platform_SDK/output/mx6sdl/lib/libsdk.a(system_util.o)
get_main_clock                                    /home/leon/git/swp-report/iMX6_Platform_SDK/output/mx6sdl/lib/libsdk.a(ccm_pll.o)
                                                  /home/leon/git/swp-report/iMX6_Platform_SDK/output/mx6sdl/lib/libsdk.a(timer.o)
                                                  /home/leon/git/swp-report/iMX6_Platform_SDK/output/mx6sdl/lib/libsdk.a(imx_i2c.o)
                                                  /home/leon/git/swp-report/iMX6_Platform_SDK/output/mx6sdl/lib/libsdk.a(enet_drv.o)
                                                  /home/leon/git/swp-report/iMX6_Platform_SDK/output/mx6sdl/obds/evb_rev_a/obj/apps/common/print_clock_info.o
get_menu_item                                     /home/leon/git/swp-report/iMX6_Platform_SDK/output/mx6sdl/lib/libsdk.a(usb_common.o)
                                                  /home/leon/git/swp-report/iMX6_Platform_SDK/output/mx6sdl/obds/evb_rev_a/obj/sdk/drivers/usb/test/usb0_host_testmodes_test.o
get_panel_by_id                                   /home/leon/git/swp-report/iMX6_Platform_SDK/output/mx6sdl/lib/libsdk.a(ips_disp_panel.o)
                                                  /home/leon/git/swp-report/iMX6_Platform_SDK/output/mx6sdl/obds/evb_rev_a/obj/apps/obds/src/tests/display_test.o
get_peri_clock                                    /home/leon/git/swp-report/iMX6_Platform_SDK/output/mx6sdl/lib/libsdk.a(ccm_pll.o)
                                                  /home/leon/git/swp-report/iMX6_Platform_SDK/output/mx6sdl/lib/libsdk.a(imx_uart.o)
                                                  /home/leon/git/swp-report/iMX6_Platform_SDK/output/mx6sdl/obds/evb_rev_a/obj/apps/common/print_clock_info.o
gic_cpu_enable                                    /home/leon/git/swp-report/iMX6_Platform_SDK/output/mx6sdl/lib/libsdk.a(gic.o)
gic_enable                                        /home/leon/git/swp-report/iMX6_Platform_SDK/output/mx6sdl/lib/libsdk.a(gic.o)
gic_enable_irq                                    /home/leon/git/swp-report/iMX6_Platform_SDK/output/mx6sdl/lib/libsdk.a(gic.o)
                                                  /home/leon/git/swp-report/iMX6_Platform_SDK/output/mx6sdl/lib/libsdk.a(interrupt.o)
gic_init                                          /home/leon/git/swp-report/iMX6_Platform_SDK/output/mx6sdl/lib/libsdk.a(gic.o)
                                                  /home/leon/git/swp-report/iMX6_Platform_SDK/output/mx6sdl/obds/evb_rev_a/obj/apps/common/platform_init.o
gic_init_cpu                                      /home/leon/git/swp-report/iMX6_Platform_SDK/output/mx6sdl/lib/libsdk.a(gic.o)
gic_read_irq_ack                                  /home/leon/git/swp-report/iMX6_Platform_SDK/output/mx6sdl/lib/libsdk.a(gic.o)
                                                  /home/leon/git/swp-report/iMX6_Platform_SDK/output/mx6sdl/lib/libsdk.a(interrupt.o)
gic_send_sgi                                      /home/leon/git/swp-report/iMX6_Platform_SDK/output/mx6sdl/lib/libsdk.a(gic.o)
gic_set_cpu_priority_mask                         /home/leon/git/swp-report/iMX6_Platform_SDK/output/mx6sdl/lib/libsdk.a(gic.o)
gic_set_cpu_target                                /home/leon/git/swp-report/iMX6_Platform_SDK/output/mx6sdl/lib/libsdk.a(gic.o)
                                                  /home/leon/git/swp-report/iMX6_Platform_SDK/output/mx6sdl/lib/libsdk.a(interrupt.o)
gic_set_irq_priority                              /home/leon/git/swp-report/iMX6_Platform_SDK/output/mx6sdl/lib/libsdk.a(gic.o)
                                                  /home/leon/git/swp-report/iMX6_Platform_SDK/output/mx6sdl/lib/libsdk.a(interrupt.o)
gic_set_irq_security                              /home/leon/git/swp-report/iMX6_Platform_SDK/output/mx6sdl/lib/libsdk.a(gic.o)
                                                  /home/leon/git/swp-report/iMX6_Platform_SDK/output/mx6sdl/lib/libsdk.a(interrupt.o)
gic_write_end_of_irq                              /home/leon/git/swp-report/iMX6_Platform_SDK/output/mx6sdl/lib/libsdk.a(gic.o)
                                                  /home/leon/git/swp-report/iMX6_Platform_SDK/output/mx6sdl/lib/libsdk.a(interrupt.o)
gpio1_iomux_config                                /home/leon/git/swp-report/iMX6_Platform_SDK/output/mx6sdl/lib/libboard_evb_rev_a.a(iomux_config.o)
gpio2_iomux_config                                /home/leon/git/swp-report/iMX6_Platform_SDK/output/mx6sdl/lib/libboard_evb_rev_a.a(iomux_config.o)
gpio3_iomux_config                                /home/leon/git/swp-report/iMX6_Platform_SDK/output/mx6sdl/lib/libboard_evb_rev_a.a(gpio3_iomux_config.o)
                                                  /home/leon/git/swp-report/iMX6_Platform_SDK/output/mx6sdl/lib/libboard_evb_rev_a.a(iomux_config.o)
gpio4_iomux_config                                /home/leon/git/swp-report/iMX6_Platform_SDK/output/mx6sdl/lib/libboard_evb_rev_a.a(gpio4_iomux_config.o)
                                                  /home/leon/git/swp-report/iMX6_Platform_SDK/output/mx6sdl/lib/libboard_evb_rev_a.a(iomux_config.o)
gpio5_iomux_config                                /home/leon/git/swp-report/iMX6_Platform_SDK/output/mx6sdl/lib/libboard_evb_rev_a.a(gpio5_iomux_config.o)
                                                  /home/leon/git/swp-report/iMX6_Platform_SDK/output/mx6sdl/lib/libboard_evb_rev_a.a(iomux_config.o)
gpio6_iomux_config                                /home/leon/git/swp-report/iMX6_Platform_SDK/output/mx6sdl/lib/libboard_evb_rev_a.a(gpio6_iomux_config.o)
                                                  /home/leon/git/swp-report/iMX6_Platform_SDK/output/mx6sdl/lib/libboard_evb_rev_a.a(iomux_config.o)
gpio7_iomux_config                                /home/leon/git/swp-report/iMX6_Platform_SDK/output/mx6sdl/lib/libboard_evb_rev_a.a(iomux_config.o)
gpio_clear_interrupt                              /home/leon/git/swp-report/iMX6_Platform_SDK/output/mx6sdl/lib/libsdk.a(gpio.o)
                                                  /home/leon/git/swp-report/iMX6_Platform_SDK/output/mx6sdl/obds/evb_rev_a/obj/apps/obds/src/tests/android_buttons_test.o
gpio_get_direction                                /home/leon/git/swp-report/iMX6_Platform_SDK/output/mx6sdl/lib/libsdk.a(gpio.o)
gpio_get_interrupt_status                         /home/leon/git/swp-report/iMX6_Platform_SDK/output/mx6sdl/lib/libsdk.a(gpio.o)
                                                  /home/leon/git/swp-report/iMX6_Platform_SDK/output/mx6sdl/obds/evb_rev_a/obj/apps/obds/src/tests/android_buttons_test.o
gpio_get_level                                    /home/leon/git/swp-report/iMX6_Platform_SDK/output/mx6sdl/lib/libsdk.a(gpio.o)
                                                  /home/leon/git/swp-report/iMX6_Platform_SDK/output/mx6sdl/obds/evb_rev_a/obj/apps/obds/src/tests/touch_screen_max11801.o
                                                  /home/leon/git/swp-report/iMX6_Platform_SDK/output/mx6sdl/obds/evb_rev_a/obj/apps/obds/src/tests/deserializer_ds90ur124.o
gpio_get_port_count                               /home/leon/git/swp-report/iMX6_Platform_SDK/output/mx6sdl/lib/libsdk.a(gpio.o)
gpio_led_test                                     /home/leon/git/swp-report/iMX6_Platform_SDK/output/mx6sdl/obds/evb_rev_a/obj/apps/obds/src/tests/gpio_led.o
gpio_set_direction                                /home/leon/git/swp-report/iMX6_Platform_SDK/output/mx6sdl/lib/libsdk.a(gpio.o)
                                                  /home/leon/git/swp-report/iMX6_Platform_SDK/output/mx6sdl/lib/libboard_evb_rev_a.a(board_usb.o)
                                                  /home/leon/git/swp-report/iMX6_Platform_SDK/output/mx6sdl/lib/libboard_evb_rev_a.a(board_mipi.o)
                                                  /home/leon/git/swp-report/iMX6_Platform_SDK/output/mx6sdl/lib/libboard_evb_rev_a.a(board_display.o)
                                                  /home/leon/git/swp-report/iMX6_Platform_SDK/output/mx6sdl/lib/libboard_evb_rev_a.a(board_camera.o)
                                                  /home/leon/git/swp-report/iMX6_Platform_SDK/output/mx6sdl/obds/evb_rev_a/obj/apps/obds/src/tests/gpio_led.o
                                                  /home/leon/git/swp-report/iMX6_Platform_SDK/output/mx6sdl/obds/evb_rev_a/obj/apps/obds/src/tests/deserializer_ds90ur124.o
                                                  /home/leon/git/swp-report/iMX6_Platform_SDK/output/mx6sdl/obds/evb_rev_a/obj/apps/obds/src/tests/android_buttons_test.o
gpio_set_gpio                                     /home/leon/git/swp-report/iMX6_Platform_SDK/output/mx6sdl/lib/libsdk.a(gpio.o)
                                                  /home/leon/git/swp-report/iMX6_Platform_SDK/output/mx6sdl/lib/libboard_evb_rev_a.a(board_usb.o)
                                                  /home/leon/git/swp-report/iMX6_Platform_SDK/output/mx6sdl/lib/libboard_evb_rev_a.a(board_mipi.o)
                                                  /home/leon/git/swp-report/iMX6_Platform_SDK/output/mx6sdl/lib/libboard_evb_rev_a.a(board_display.o)
                                                  /home/leon/git/swp-report/iMX6_Platform_SDK/output/mx6sdl/lib/libboard_evb_rev_a.a(board_buttons.o)
gpio_set_interrupt_config                         /home/leon/git/swp-report/iMX6_Platform_SDK/output/mx6sdl/lib/libsdk.a(gpio.o)
                                                  /home/leon/git/swp-report/iMX6_Platform_SDK/output/mx6sdl/obds/evb_rev_a/obj/apps/obds/src/tests/android_buttons_test.o
gpio_set_interrupt_mask                           /home/leon/git/swp-report/iMX6_Platform_SDK/output/mx6sdl/lib/libsdk.a(gpio.o)
                                                  /home/leon/git/swp-report/iMX6_Platform_SDK/output/mx6sdl/obds/evb_rev_a/obj/apps/obds/src/tests/android_buttons_test.o
gpio_set_level                                    /home/leon/git/swp-report/iMX6_Platform_SDK/output/mx6sdl/lib/libsdk.a(gpio.o)
                                                  /home/leon/git/swp-report/iMX6_Platform_SDK/output/mx6sdl/lib/libboard_evb_rev_a.a(board_usb.o)
                                                  /home/leon/git/swp-report/iMX6_Platform_SDK/output/mx6sdl/lib/libboard_evb_rev_a.a(board_mipi.o)
                                                  /home/leon/git/swp-report/iMX6_Platform_SDK/output/mx6sdl/lib/libboard_evb_rev_a.a(board_display.o)
                                                  /home/leon/git/swp-report/iMX6_Platform_SDK/output/mx6sdl/lib/libboard_evb_rev_a.a(board_camera.o)
                                                  /home/leon/git/swp-report/iMX6_Platform_SDK/output/mx6sdl/obds/evb_rev_a/obj/apps/obds/src/tests/gpio_led.o
gpmi_iomux_config                                 /home/leon/git/swp-report/iMX6_Platform_SDK/output/mx6sdl/lib/libboard_evb_rev_a.a(gpmi_iomux_config.o)
                                                  /home/leon/git/swp-report/iMX6_Platform_SDK/output/mx6sdl/lib/libboard_evb_rev_a.a(iomux_config.o)
gps_test                                          /home/leon/git/swp-report/iMX6_Platform_SDK/output/mx6sdl/obds/evb_rev_a/obj/apps/obds/src/tests/gps_test.o
gps_test_enable                                   /home/leon/git/swp-report/iMX6_Platform_SDK/output/mx6sdl/obds/evb_rev_a/obj/apps/obds/src/tests/gps_test.o
gpt_iomux_config                                  /home/leon/git/swp-report/iMX6_Platform_SDK/output/mx6sdl/lib/libboard_evb_rev_a.a(iomux_config.o)
gpu_clock_config                                  /home/leon/git/swp-report/iMX6_Platform_SDK/output/mx6sdl/lib/libsdk.a(ccm_pll.o)
hal_delay_us                                      /home/leon/git/swp-report/iMX6_Platform_SDK/output/mx6sdl/lib/libsdk.a(timer.o)
                                                  /home/leon/git/swp-report/iMX6_Platform_SDK/output/mx6sdl/lib/libboard_evb_rev_a.a(board_mipi.o)
                                                  /home/leon/git/swp-report/iMX6_Platform_SDK/output/mx6sdl/lib/libboard_evb_rev_a.a(board_display.o)
                                                  /home/leon/git/swp-report/iMX6_Platform_SDK/output/mx6sdl/lib/libboard_evb_rev_a.a(board_camera.o)
                                                  /home/leon/git/swp-report/iMX6_Platform_SDK/output/mx6sdl/lib/libsdk.a(adv7180.o)
                                                  /home/leon/git/swp-report/iMX6_Platform_SDK/output/mx6sdl/lib/libsdk.a(usdhc_sd.o)
                                                  /home/leon/git/swp-report/iMX6_Platform_SDK/output/mx6sdl/lib/libsdk.a(usdhc_mmc.o)
                                                  /home/leon/git/swp-report/iMX6_Platform_SDK/output/mx6sdl/lib/libsdk.a(usdhc_host.o)
                                                  /home/leon/git/swp-report/iMX6_Platform_SDK/output/mx6sdl/lib/libsdk.a(ecspi.o)
                                                  /home/leon/git/swp-report/iMX6_Platform_SDK/output/mx6sdl/lib/libsdk.a(ipu_common.o)
                                                  /home/leon/git/swp-report/iMX6_Platform_SDK/output/mx6sdl/lib/libsdk.a(hdmi_tx_phy.o)
                                                  /home/leon/git/swp-report/iMX6_Platform_SDK/output/mx6sdl/lib/libsdk.a(enet_drv.o)
                                                  /home/leon/git/swp-report/iMX6_Platform_SDK/output/mx6sdl/lib/libsdk.a(smd_sensor.o)
                                                  /home/leon/git/swp-report/iMX6_Platform_SDK/output/mx6sdl/lib/libsdk.a(wm8962.o)
                                                  /home/leon/git/swp-report/iMX6_Platform_SDK/output/mx6sdl/lib/libsdk.a(wm8958_dac.o)
                                                  /home/leon/git/swp-report/iMX6_Platform_SDK/output/mx6sdl/lib/libsdk.a(sgtl5000.o)
                                                  /home/leon/git/swp-report/iMX6_Platform_SDK/output/mx6sdl/lib/libsdk.a(cs42888.o)
                                                  /home/leon/git/swp-report/iMX6_Platform_SDK/output/mx6sdl/obds/evb_rev_a/obj/sdk/drivers/spi/test/spi_nor_numonyx.o
                                                  /home/leon/git/swp-report/iMX6_Platform_SDK/output/mx6sdl/obds/evb_rev_a/obj/sdk/drivers/hdmi/test/hdmi_test.o
                                                  /home/leon/git/swp-report/iMX6_Platform_SDK/output/mx6sdl/obds/evb_rev_a/obj/sdk/drivers/camera/test/csi_test_mode.o
                                                  /home/leon/git/swp-report/iMX6_Platform_SDK/output/mx6sdl/obds/evb_rev_a/obj/apps/obds/src/tests/video_dec_adv7180.o
                                                  /home/leon/git/swp-report/iMX6_Platform_SDK/output/mx6sdl/obds/evb_rev_a/obj/apps/obds/src/tests/video_dec_ARD_MBrst_from_cpu_expander.o
                                                  /home/leon/git/swp-report/iMX6_Platform_SDK/output/mx6sdl/obds/evb_rev_a/obj/apps/obds/src/tests/video_dec_ARD_MB_reset_button.o
                                                  /home/leon/git/swp-report/iMX6_Platform_SDK/output/mx6sdl/obds/evb_rev_a/obj/apps/obds/src/tests/touch_screen_max11801.o
                                                  /home/leon/git/swp-report/iMX6_Platform_SDK/output/mx6sdl/obds/evb_rev_a/obj/apps/obds/src/tests/touch_screen.o
                                                  /home/leon/git/swp-report/iMX6_Platform_SDK/output/mx6sdl/obds/evb_rev_a/obj/apps/obds/src/tests/snvs_srtc_test.o
                                                  /home/leon/git/swp-report/iMX6_Platform_SDK/output/mx6sdl/obds/evb_rev_a/obj/apps/obds/src/tests/mlb_os81050.o
                                                  /home/leon/git/swp-report/iMX6_Platform_SDK/output/mx6sdl/obds/evb_rev_a/obj/apps/obds/src/tests/i2c_device_temp_sensor_emc1046.o
                                                  /home/leon/git/swp-report/iMX6_Platform_SDK/output/mx6sdl/obds/evb_rev_a/obj/apps/obds/src/tests/i2c_device_id_check_p1003_tsc.o
                                                  /home/leon/git/swp-report/iMX6_Platform_SDK/output/mx6sdl/obds/evb_rev_a/obj/apps/obds/src/tests/i2c_device_id_check_mma8451.o
                                                  /home/leon/git/swp-report/iMX6_Platform_SDK/output/mx6sdl/obds/evb_rev_a/obj/apps/obds/src/tests/i2c_check_light_sensor_isl29023.o
                                                  /home/leon/git/swp-report/iMX6_Platform_SDK/output/mx6sdl/obds/evb_rev_a/obj/apps/obds/src/tests/gpio_led.o
                                                  /home/leon/git/swp-report/iMX6_Platform_SDK/output/mx6sdl/obds/evb_rev_a/obj/apps/obds/src/tests/fm_tuner_si476x_test.o
                                                  /home/leon/git/swp-report/iMX6_Platform_SDK/output/mx6sdl/obds/evb_rev_a/obj/apps/obds/src/tests/enet_mx6dldq_test.o
hdmi_1080P60_video_output                         /home/leon/git/swp-report/iMX6_Platform_SDK/output/mx6sdl/obds/evb_rev_a/obj/sdk/drivers/hdmi/test/hdmi_test.o
hdmi_720P60_video_output                          /home/leon/git/swp-report/iMX6_Platform_SDK/output/mx6sdl/obds/evb_rev_a/obj/sdk/drivers/hdmi/test/hdmi_test.o
hdmi_720p_init                                    /home/leon/git/swp-report/iMX6_Platform_SDK/output/mx6sdl/obds/evb_rev_a/obj/apps/obds/src/tests/display_test.o
hdmi_audio_mute                                   /home/leon/git/swp-report/iMX6_Platform_SDK/output/mx6sdl/lib/libsdk.a(hdmi_tx_audio.o)
                                                  /home/leon/git/swp-report/iMX6_Platform_SDK/output/mx6sdl/obds/evb_rev_a/obj/sdk/drivers/hdmi/test/hdmi_test.o
                                                  /home/leon/git/swp-report/iMX6_Platform_SDK/output/mx6sdl/obds/evb_rev_a/obj/apps/obds/src/tests/display_test.o
hdmi_av_frame_composer                            /home/leon/git/swp-report/iMX6_Platform_SDK/output/mx6sdl/lib/libsdk.a(hdmi_tx.o)
                                                  /home/leon/git/swp-report/iMX6_Platform_SDK/output/mx6sdl/obds/evb_rev_a/obj/sdk/drivers/hdmi/test/hdmi_test.o
                                                  /home/leon/git/swp-report/iMX6_Platform_SDK/output/mx6sdl/obds/evb_rev_a/obj/apps/obds/src/tests/display_test.o
hdmi_clock_set                                    /home/leon/git/swp-report/iMX6_Platform_SDK/output/mx6sdl/lib/libboard_evb_rev_a.a(board_hdmi.o)
                                                  /home/leon/git/swp-report/iMX6_Platform_SDK/output/mx6sdl/lib/libsdk.a(ips_disp_panel.o)
hdmi_config_force_video                           /home/leon/git/swp-report/iMX6_Platform_SDK/output/mx6sdl/lib/libsdk.a(hdmi_tx.o)
hdmi_config_forced_pixels                         /home/leon/git/swp-report/iMX6_Platform_SDK/output/mx6sdl/lib/libsdk.a(hdmi_tx.o)
hdmi_config_input_source                          /home/leon/git/swp-report/iMX6_Platform_SDK/output/mx6sdl/lib/libsdk.a(hdmi_tx.o)
                                                  /home/leon/git/swp-report/iMX6_Platform_SDK/output/mx6sdl/obds/evb_rev_a/obj/sdk/drivers/hdmi/test/hdmi_test.o
                                                  /home/leon/git/swp-report/iMX6_Platform_SDK/output/mx6sdl/obds/evb_rev_a/obj/apps/obds/src/tests/display_test.o
hdmi_iomux_config                                 /home/leon/git/swp-report/iMX6_Platform_SDK/output/mx6sdl/lib/libboard_evb_rev_a.a(hdmi_iomux_config.o)
                                                  /home/leon/git/swp-report/iMX6_Platform_SDK/output/mx6sdl/lib/libboard_evb_rev_a.a(iomux_config.o)
hdmi_pgm_iomux                                    /home/leon/git/swp-report/iMX6_Platform_SDK/output/mx6sdl/lib/libboard_evb_rev_a.a(board_hdmi.o)
                                                  /home/leon/git/swp-report/iMX6_Platform_SDK/output/mx6sdl/lib/libsdk.a(ips_disp_panel.o)
hdmi_phy_init                                     /home/leon/git/swp-report/iMX6_Platform_SDK/output/mx6sdl/lib/libsdk.a(hdmi_tx_phy.o)
                                                  /home/leon/git/swp-report/iMX6_Platform_SDK/output/mx6sdl/obds/evb_rev_a/obj/sdk/drivers/hdmi/test/hdmi_test.o
                                                  /home/leon/git/swp-report/iMX6_Platform_SDK/output/mx6sdl/obds/evb_rev_a/obj/apps/obds/src/tests/display_test.o
hdmi_phy_int_mask                                 /home/leon/git/swp-report/iMX6_Platform_SDK/output/mx6sdl/lib/libsdk.a(hdmi_tx_phy.o)
hdmi_set_video_mode                               /home/leon/git/swp-report/iMX6_Platform_SDK/output/mx6sdl/lib/libsdk.a(hdmi_common.o)
                                                  /home/leon/git/swp-report/iMX6_Platform_SDK/output/mx6sdl/lib/libsdk.a(hdmi_tx.o)
hdmi_test                                         /home/leon/git/swp-report/iMX6_Platform_SDK/output/mx6sdl/obds/evb_rev_a/obj/sdk/drivers/hdmi/test/hdmi_test.o
hdmi_tx_ISR                                       /home/leon/git/swp-report/iMX6_Platform_SDK/output/mx6sdl/obds/evb_rev_a/obj/sdk/drivers/hdmi/test/hdmi_test.o
hdmi_tx_cec_pgm_iomux                             /home/leon/git/swp-report/iMX6_Platform_SDK/output/mx6sdl/lib/libboard_evb_rev_a.a(board_hdmi.o)
hdmi_tx_ddc_pgm_iomux                             /home/leon/git/swp-report/iMX6_Platform_SDK/output/mx6sdl/lib/libboard_evb_rev_a.a(board_hdmi.o)
hdmi_tx_hdcp_config                               /home/leon/git/swp-report/iMX6_Platform_SDK/output/mx6sdl/lib/libsdk.a(hdmi_tx.o)
                                                  /home/leon/git/swp-report/iMX6_Platform_SDK/output/mx6sdl/obds/evb_rev_a/obj/sdk/drivers/hdmi/test/hdmi_test.o
                                                  /home/leon/git/swp-report/iMX6_Platform_SDK/output/mx6sdl/obds/evb_rev_a/obj/apps/obds/src/tests/display_test.o
hdmi_tx_phydtb_pgm_iomux                          /home/leon/git/swp-report/iMX6_Platform_SDK/output/mx6sdl/lib/libboard_evb_rev_a.a(board_hdmi.o)
hdmi_video_csc                                    /home/leon/git/swp-report/iMX6_Platform_SDK/output/mx6sdl/lib/libsdk.a(hdmi_tx.o)
                                                  /home/leon/git/swp-report/iMX6_Platform_SDK/output/mx6sdl/obds/evb_rev_a/obj/sdk/drivers/hdmi/test/hdmi_test.o
                                                  /home/leon/git/swp-report/iMX6_Platform_SDK/output/mx6sdl/obds/evb_rev_a/obj/apps/obds/src/tests/display_test.o
hdmi_video_packetize                              /home/leon/git/swp-report/iMX6_Platform_SDK/output/mx6sdl/lib/libsdk.a(hdmi_tx.o)
                                                  /home/leon/git/swp-report/iMX6_Platform_SDK/output/mx6sdl/obds/evb_rev_a/obj/sdk/drivers/hdmi/test/hdmi_test.o
                                                  /home/leon/git/swp-report/iMX6_Platform_SDK/output/mx6sdl/obds/evb_rev_a/obj/apps/obds/src/tests/display_test.o
hdmi_video_sample                                 /home/leon/git/swp-report/iMX6_Platform_SDK/output/mx6sdl/lib/libsdk.a(hdmi_tx.o)
                                                  /home/leon/git/swp-report/iMX6_Platform_SDK/output/mx6sdl/obds/evb_rev_a/obj/sdk/drivers/hdmi/test/hdmi_test.o
                                                  /home/leon/git/swp-report/iMX6_Platform_SDK/output/mx6sdl/obds/evb_rev_a/obj/apps/obds/src/tests/display_test.o
host_cfg_block                                    /home/leon/git/swp-report/iMX6_Platform_SDK/output/mx6sdl/lib/libsdk.a(usdhc_host.o)
                                                  /home/leon/git/swp-report/iMX6_Platform_SDK/output/mx6sdl/lib/libsdk.a(usdhc_mmc.o)
                                                  /home/leon/git/swp-report/iMX6_Platform_SDK/output/mx6sdl/lib/libsdk.a(usdhc.o)
host_cfg_clock                                    /home/leon/git/swp-report/iMX6_Platform_SDK/output/mx6sdl/lib/libsdk.a(usdhc_host.o)
                                                  /home/leon/git/swp-report/iMX6_Platform_SDK/output/mx6sdl/lib/libsdk.a(usdhc_sd.o)
                                                  /home/leon/git/swp-report/iMX6_Platform_SDK/output/mx6sdl/lib/libsdk.a(usdhc_mmc.o)
                                                  /home/leon/git/swp-report/iMX6_Platform_SDK/output/mx6sdl/lib/libsdk.a(usdhc.o)
host_clear_fifo                                   /home/leon/git/swp-report/iMX6_Platform_SDK/output/mx6sdl/lib/libsdk.a(usdhc_host.o)
                                                  /home/leon/git/swp-report/iMX6_Platform_SDK/output/mx6sdl/lib/libsdk.a(usdhc.o)
host_data_read                                    /home/leon/git/swp-report/iMX6_Platform_SDK/output/mx6sdl/lib/libsdk.a(usdhc_host.o)
                                                  /home/leon/git/swp-report/iMX6_Platform_SDK/output/mx6sdl/lib/libsdk.a(usdhc_mmc.o)
                                                  /home/leon/git/swp-report/iMX6_Platform_SDK/output/mx6sdl/lib/libsdk.a(usdhc.o)
host_data_write                                   /home/leon/git/swp-report/iMX6_Platform_SDK/output/mx6sdl/lib/libsdk.a(usdhc_host.o)
                                                  /home/leon/git/swp-report/iMX6_Platform_SDK/output/mx6sdl/lib/libsdk.a(usdhc.o)
host_init                                         /home/leon/git/swp-report/iMX6_Platform_SDK/output/mx6sdl/lib/libsdk.a(usdhc_host.o)
                                                  /home/leon/git/swp-report/iMX6_Platform_SDK/output/mx6sdl/lib/libsdk.a(usdhc.o)
host_init_active                                  /home/leon/git/swp-report/iMX6_Platform_SDK/output/mx6sdl/lib/libsdk.a(usdhc_host.o)
                                                  /home/leon/git/swp-report/iMX6_Platform_SDK/output/mx6sdl/lib/libsdk.a(usdhc.o)
host_read_response                                /home/leon/git/swp-report/iMX6_Platform_SDK/output/mx6sdl/lib/libsdk.a(usdhc_host.o)
                                                  /home/leon/git/swp-report/iMX6_Platform_SDK/output/mx6sdl/lib/libsdk.a(usdhc_sd.o)
                                                  /home/leon/git/swp-report/iMX6_Platform_SDK/output/mx6sdl/lib/libsdk.a(usdhc_mmc.o)
                                                  /home/leon/git/swp-report/iMX6_Platform_SDK/output/mx6sdl/lib/libsdk.a(usdhc.o)
host_reset                                        /home/leon/git/swp-report/iMX6_Platform_SDK/output/mx6sdl/lib/libsdk.a(usdhc_host.o)
                                                  /home/leon/git/swp-report/iMX6_Platform_SDK/output/mx6sdl/lib/libsdk.a(usdhc.o)
host_send_cmd                                     /home/leon/git/swp-report/iMX6_Platform_SDK/output/mx6sdl/lib/libsdk.a(usdhc_host.o)
                                                  /home/leon/git/swp-report/iMX6_Platform_SDK/output/mx6sdl/lib/libsdk.a(usdhc_sd.o)
                                                  /home/leon/git/swp-report/iMX6_Platform_SDK/output/mx6sdl/lib/libsdk.a(usdhc_mmc.o)
                                                  /home/leon/git/swp-report/iMX6_Platform_SDK/output/mx6sdl/lib/libsdk.a(usdhc.o)
host_set_bus_width                                /home/leon/git/swp-report/iMX6_Platform_SDK/output/mx6sdl/lib/libsdk.a(usdhc_host.o)
                                                  /home/leon/git/swp-report/iMX6_Platform_SDK/output/mx6sdl/lib/libsdk.a(usdhc_sd.o)
                                                  /home/leon/git/swp-report/iMX6_Platform_SDK/output/mx6sdl/lib/libsdk.a(usdhc_mmc.o)
host_setup_adma                                   /home/leon/git/swp-report/iMX6_Platform_SDK/output/mx6sdl/lib/libsdk.a(usdhc_host.o)
                                                  /home/leon/git/swp-report/iMX6_Platform_SDK/output/mx6sdl/lib/libsdk.a(usdhc.o)
i2c1_iomux_config                                 /home/leon/git/swp-report/iMX6_Platform_SDK/output/mx6sdl/lib/libboard_evb_rev_a.a(i2c1_iomux_config.o)
                                                  /home/leon/git/swp-report/iMX6_Platform_SDK/output/mx6sdl/lib/libboard_evb_rev_a.a(iomux_config.o)
                                                  /home/leon/git/swp-report/iMX6_Platform_SDK/output/mx6sdl/lib/libboard_evb_rev_a.a(i2c_iomux_config.o)
i2c2_iomux_config                                 /home/leon/git/swp-report/iMX6_Platform_SDK/output/mx6sdl/lib/libboard_evb_rev_a.a(i2c2_iomux_config.o)
                                                  /home/leon/git/swp-report/iMX6_Platform_SDK/output/mx6sdl/lib/libboard_evb_rev_a.a(iomux_config.o)
                                                  /home/leon/git/swp-report/iMX6_Platform_SDK/output/mx6sdl/lib/libboard_evb_rev_a.a(i2c_iomux_config.o)
i2c3_iomux_config                                 /home/leon/git/swp-report/iMX6_Platform_SDK/output/mx6sdl/lib/libboard_evb_rev_a.a(i2c3_iomux_config.o)
                                                  /home/leon/git/swp-report/iMX6_Platform_SDK/output/mx6sdl/lib/libboard_evb_rev_a.a(iomux_config.o)
                                                  /home/leon/git/swp-report/iMX6_Platform_SDK/output/mx6sdl/lib/libboard_evb_rev_a.a(i2c_iomux_config.o)
i2c4_iomux_config                                 /home/leon/git/swp-report/iMX6_Platform_SDK/output/mx6sdl/lib/libboard_evb_rev_a.a(iomux_config.o)
                                                  /home/leon/git/swp-report/iMX6_Platform_SDK/output/mx6sdl/lib/libboard_evb_rev_a.a(i2c_iomux_config.o)
i2c_device_check_cs42888                          /home/leon/git/swp-report/iMX6_Platform_SDK/output/mx6sdl/obds/evb_rev_a/obj/apps/obds/src/tests/i2c_device_check_cs42888.o
i2c_device_check_max11801                         /home/leon/git/swp-report/iMX6_Platform_SDK/output/mx6sdl/obds/evb_rev_a/obj/apps/obds/src/tests/touch_screen_max11801.o
i2c_device_check_max11801_AUX                     /home/leon/git/swp-report/iMX6_Platform_SDK/output/mx6sdl/obds/evb_rev_a/obj/apps/obds/src/tests/touch_screen_max11801.o
i2c_device_emc1046_test                           /home/leon/git/swp-report/iMX6_Platform_SDK/output/mx6sdl/obds/evb_rev_a/obj/apps/obds/src/tests/i2c_device_temp_sensor_emc1046.o
i2c_device_id_check_DA9053                        /home/leon/git/swp-report/iMX6_Platform_SDK/output/mx6sdl/obds/evb_rev_a/obj/apps/obds/src/tests/pmic_da9053.o
i2c_device_id_check_MAX17135                      /home/leon/git/swp-report/iMX6_Platform_SDK/output/mx6sdl/obds/evb_rev_a/obj/apps/obds/src/tests/pmic_max17135.o
i2c_device_id_check_MMA8450                       /home/leon/git/swp-report/iMX6_Platform_SDK/output/mx6sdl/obds/evb_rev_a/obj/apps/obds/src/tests/i2c_device_id_check_mma8450.o
i2c_device_id_check_MMA8451                       /home/leon/git/swp-report/iMX6_Platform_SDK/output/mx6sdl/obds/evb_rev_a/obj/apps/obds/src/tests/i2c_device_id_check_mma8451.o
i2c_device_id_check_emc1046                       /home/leon/git/swp-report/iMX6_Platform_SDK/output/mx6sdl/obds/evb_rev_a/obj/apps/obds/src/tests/i2c_device_temp_sensor_emc1046.o
i2c_device_id_check_isl29023                      /home/leon/git/swp-report/iMX6_Platform_SDK/output/mx6sdl/obds/evb_rev_a/obj/apps/obds/src/tests/i2c_check_light_sensor_isl29023.o
i2c_device_id_check_mag3110                       /home/leon/git/swp-report/iMX6_Platform_SDK/output/mx6sdl/obds/evb_rev_a/obj/apps/obds/src/tests/i2c_device_digital_compass_mag3110.o
i2c_device_id_check_mag3112                       /home/leon/git/swp-report/iMX6_Platform_SDK/output/mx6sdl/obds/evb_rev_a/obj/apps/obds/src/tests/i2c_device_digital_compass_mag3112.o
i2c_device_id_check_mc1323                        /home/leon/git/swp-report/iMX6_Platform_SDK/output/mx6sdl/obds/evb_rev_a/obj/apps/obds/src/tests/i2c_device_zigbee_mc1323.o
i2c_device_id_check_p1003                         /home/leon/git/swp-report/iMX6_Platform_SDK/output/mx6sdl/obds/evb_rev_a/obj/apps/obds/src/tests/i2c_device_id_check_p1003_tsc.o
i2c_device_id_check_ppl3115                       /home/leon/git/swp-report/iMX6_Platform_SDK/output/mx6sdl/obds/evb_rev_a/obj/apps/obds/src/tests/i2c_device_barometer_ppl3115.o
i2c_device_mc1323_test                            /home/leon/git/swp-report/iMX6_Platform_SDK/output/mx6sdl/obds/evb_rev_a/obj/apps/obds/src/tests/i2c_device_zigbee_mc1323.o
i2c_device_ppl3115_test                           /home/leon/git/swp-report/iMX6_Platform_SDK/output/mx6sdl/obds/evb_rev_a/obj/apps/obds/src/tests/i2c_device_barometer_ppl3115.o
i2c_get_request_instance                          /home/leon/git/swp-report/iMX6_Platform_SDK/output/mx6sdl/lib/libsdk.a(imx_i2c.o)
i2c_init                                          /home/leon/git/swp-report/iMX6_Platform_SDK/output/mx6sdl/lib/libsdk.a(imx_i2c.o)
                                                  /home/leon/git/swp-report/iMX6_Platform_SDK/output/mx6sdl/lib/libsdk.a(adv7180.o)
                                                  /home/leon/git/swp-report/iMX6_Platform_SDK/output/mx6sdl/lib/libsdk.a(smd_sensor.o)
                                                  /home/leon/git/swp-report/iMX6_Platform_SDK/output/mx6sdl/lib/libsdk.a(wm8962.o)
                                                  /home/leon/git/swp-report/iMX6_Platform_SDK/output/mx6sdl/lib/libsdk.a(wm8958_dac.o)
                                                  /home/leon/git/swp-report/iMX6_Platform_SDK/output/mx6sdl/lib/libsdk.a(sgtl5000.o)
                                                  /home/leon/git/swp-report/iMX6_Platform_SDK/output/mx6sdl/lib/libsdk.a(cs42888.o)
                                                  /home/leon/git/swp-report/iMX6_Platform_SDK/output/mx6sdl/lib/libsdk.a(max7310.o)
                                                  /home/leon/git/swp-report/iMX6_Platform_SDK/output/mx6sdl/obds/evb_rev_a/obj/sdk/common/pmic/pfuse/pf0100.o
                                                  /home/leon/git/swp-report/iMX6_Platform_SDK/output/mx6sdl/obds/evb_rev_a/obj/apps/obds/src/tests/video_dec_adv7180.o
                                                  /home/leon/git/swp-report/iMX6_Platform_SDK/output/mx6sdl/obds/evb_rev_a/obj/apps/obds/src/tests/touch_screen_max11801.o
                                                  /home/leon/git/swp-report/iMX6_Platform_SDK/output/mx6sdl/obds/evb_rev_a/obj/apps/obds/src/tests/touch_screen.o
                                                  /home/leon/git/swp-report/iMX6_Platform_SDK/output/mx6sdl/obds/evb_rev_a/obj/apps/obds/src/tests/pmic_max17135.o
                                                  /home/leon/git/swp-report/iMX6_Platform_SDK/output/mx6sdl/obds/evb_rev_a/obj/apps/obds/src/tests/pmic_lt3589.o
                                                  /home/leon/git/swp-report/iMX6_Platform_SDK/output/mx6sdl/obds/evb_rev_a/obj/apps/obds/src/tests/pmic_da9053.o
                                                  /home/leon/git/swp-report/iMX6_Platform_SDK/output/mx6sdl/obds/evb_rev_a/obj/apps/obds/src/tests/mlb_os81050.o
                                                  /home/leon/git/swp-report/iMX6_Platform_SDK/output/mx6sdl/obds/evb_rev_a/obj/apps/obds/src/tests/i2c_eeprom_at24cxx_test.o
                                                  /home/leon/git/swp-report/iMX6_Platform_SDK/output/mx6sdl/obds/evb_rev_a/obj/apps/obds/src/tests/i2c_device_zigbee_mc1323.o
                                                  /home/leon/git/swp-report/iMX6_Platform_SDK/output/mx6sdl/obds/evb_rev_a/obj/apps/obds/src/tests/i2c_device_temp_sensor_emc1046.o
                                                  /home/leon/git/swp-report/iMX6_Platform_SDK/output/mx6sdl/obds/evb_rev_a/obj/apps/obds/src/tests/i2c_device_id_check_p1003_tsc.o
                                                  /home/leon/git/swp-report/iMX6_Platform_SDK/output/mx6sdl/obds/evb_rev_a/obj/apps/obds/src/tests/i2c_device_id_check_mma8451.o
                                                  /home/leon/git/swp-report/iMX6_Platform_SDK/output/mx6sdl/obds/evb_rev_a/obj/apps/obds/src/tests/i2c_device_id_check_mma8450.o
                                                  /home/leon/git/swp-report/iMX6_Platform_SDK/output/mx6sdl/obds/evb_rev_a/obj/apps/obds/src/tests/i2c_device_digital_compass_mag3112.o
                                                  /home/leon/git/swp-report/iMX6_Platform_SDK/output/mx6sdl/obds/evb_rev_a/obj/apps/obds/src/tests/i2c_device_digital_compass_mag3110.o
                                                  /home/leon/git/swp-report/iMX6_Platform_SDK/output/mx6sdl/obds/evb_rev_a/obj/apps/obds/src/tests/i2c_device_barometer_ppl3115.o
                                                  /home/leon/git/swp-report/iMX6_Platform_SDK/output/mx6sdl/obds/evb_rev_a/obj/apps/obds/src/tests/i2c_check_light_sensor_isl29023.o
                                                  /home/leon/git/swp-report/iMX6_Platform_SDK/output/mx6sdl/obds/evb_rev_a/obj/apps/obds/src/tests/fm_tuner_si476x_test.o
i2c_iomux_config                                  /home/leon/git/swp-report/iMX6_Platform_SDK/output/mx6sdl/lib/libboard_evb_rev_a.a(i2c_iomux_config.o)
                                                  /home/leon/git/swp-report/iMX6_Platform_SDK/output/mx6sdl/lib/libsdk.a(imx_i2c.o)
i2c_read                                          /home/leon/git/swp-report/iMX6_Platform_SDK/output/mx6sdl/lib/libsdk.a(imx_i2c.o)
                                                  /home/leon/git/swp-report/iMX6_Platform_SDK/output/mx6sdl/lib/libsdk.a(sgtl5000.o)
                                                  /home/leon/git/swp-report/iMX6_Platform_SDK/output/mx6sdl/lib/libsdk.a(cs42888.o)
                                                  /home/leon/git/swp-report/iMX6_Platform_SDK/output/mx6sdl/lib/libsdk.a(max7310.o)
i2c_setup_interrupt                               /home/leon/git/swp-report/iMX6_Platform_SDK/output/mx6sdl/lib/libsdk.a(imx_i2c.o)
i2c_write                                         /home/leon/git/swp-report/iMX6_Platform_SDK/output/mx6sdl/lib/libsdk.a(imx_i2c.o)
                                                  /home/leon/git/swp-report/iMX6_Platform_SDK/output/mx6sdl/lib/libsdk.a(sgtl5000.o)
                                                  /home/leon/git/swp-report/iMX6_Platform_SDK/output/mx6sdl/lib/libsdk.a(cs42888.o)
                                                  /home/leon/git/swp-report/iMX6_Platform_SDK/output/mx6sdl/lib/libsdk.a(max7310.o)
i2c_xfer                                          /home/leon/git/swp-report/iMX6_Platform_SDK/output/mx6sdl/lib/libsdk.a(imx_i2c.o)
                                                  /home/leon/git/swp-report/iMX6_Platform_SDK/output/mx6sdl/lib/libsdk.a(adv7180.o)
                                                  /home/leon/git/swp-report/iMX6_Platform_SDK/output/mx6sdl/lib/libsdk.a(smd_sensor.o)
                                                  /home/leon/git/swp-report/iMX6_Platform_SDK/output/mx6sdl/lib/libsdk.a(wm8962.o)
                                                  /home/leon/git/swp-report/iMX6_Platform_SDK/output/mx6sdl/lib/libsdk.a(wm8958_dac.o)
                                                  /home/leon/git/swp-report/iMX6_Platform_SDK/output/mx6sdl/obds/evb_rev_a/obj/sdk/common/pmic/pfuse/pf0100.o
                                                  /home/leon/git/swp-report/iMX6_Platform_SDK/output/mx6sdl/obds/evb_rev_a/obj/apps/obds/src/tests/video_dec_adv7180.o
                                                  /home/leon/git/swp-report/iMX6_Platform_SDK/output/mx6sdl/obds/evb_rev_a/obj/apps/obds/src/tests/touch_screen_max11801.o
                                                  /home/leon/git/swp-report/iMX6_Platform_SDK/output/mx6sdl/obds/evb_rev_a/obj/apps/obds/src/tests/touch_screen.o
                                                  /home/leon/git/swp-report/iMX6_Platform_SDK/output/mx6sdl/obds/evb_rev_a/obj/apps/obds/src/tests/pmic_max17135.o
                                                  /home/leon/git/swp-report/iMX6_Platform_SDK/output/mx6sdl/obds/evb_rev_a/obj/apps/obds/src/tests/pmic_lt3589.o
                                                  /home/leon/git/swp-report/iMX6_Platform_SDK/output/mx6sdl/obds/evb_rev_a/obj/apps/obds/src/tests/pmic_da9053.o
                                                  /home/leon/git/swp-report/iMX6_Platform_SDK/output/mx6sdl/obds/evb_rev_a/obj/apps/obds/src/tests/mlb_os81050.o
                                                  /home/leon/git/swp-report/iMX6_Platform_SDK/output/mx6sdl/obds/evb_rev_a/obj/apps/obds/src/tests/i2c_eeprom_at24cxx_test.o
                                                  /home/leon/git/swp-report/iMX6_Platform_SDK/output/mx6sdl/obds/evb_rev_a/obj/apps/obds/src/tests/i2c_device_zigbee_mc1323.o
                                                  /home/leon/git/swp-report/iMX6_Platform_SDK/output/mx6sdl/obds/evb_rev_a/obj/apps/obds/src/tests/i2c_device_temp_sensor_emc1046.o
                                                  /home/leon/git/swp-report/iMX6_Platform_SDK/output/mx6sdl/obds/evb_rev_a/obj/apps/obds/src/tests/i2c_device_id_check_p1003_tsc.o
                                                  /home/leon/git/swp-report/iMX6_Platform_SDK/output/mx6sdl/obds/evb_rev_a/obj/apps/obds/src/tests/i2c_device_id_check_mma8451.o
                                                  /home/leon/git/swp-report/iMX6_Platform_SDK/output/mx6sdl/obds/evb_rev_a/obj/apps/obds/src/tests/i2c_device_id_check_mma8450.o
                                                  /home/leon/git/swp-report/iMX6_Platform_SDK/output/mx6sdl/obds/evb_rev_a/obj/apps/obds/src/tests/i2c_device_digital_compass_mag3112.o
                                                  /home/leon/git/swp-report/iMX6_Platform_SDK/output/mx6sdl/obds/evb_rev_a/obj/apps/obds/src/tests/i2c_device_digital_compass_mag3110.o
                                                  /home/leon/git/swp-report/iMX6_Platform_SDK/output/mx6sdl/obds/evb_rev_a/obj/apps/obds/src/tests/i2c_device_barometer_ppl3115.o
                                                  /home/leon/git/swp-report/iMX6_Platform_SDK/output/mx6sdl/obds/evb_rev_a/obj/apps/obds/src/tests/i2c_check_light_sensor_isl29023.o
                                                  /home/leon/git/swp-report/iMX6_Platform_SDK/output/mx6sdl/obds/evb_rev_a/obj/apps/obds/src/tests/fm_tuner_si476x_test.o
i2s_audio_test                                    /home/leon/git/swp-report/iMX6_Platform_SDK/output/mx6sdl/obds/evb_rev_a/obj/apps/obds/src/tests/audio_ssi_test.o
imx_KSZ9021RN_reset                               /home/leon/git/swp-report/iMX6_Platform_SDK/output/mx6sdl/lib/libboard_evb_rev_a.a(board_network.o)
                                                  /home/leon/git/swp-report/iMX6_Platform_SDK/output/mx6sdl/obds/evb_rev_a/obj/apps/obds/src/tests/enet_mx6dldq_test.o
imx_ar8031_iomux                                  /home/leon/git/swp-report/iMX6_Platform_SDK/output/mx6sdl/lib/libboard_evb_rev_a.a(board_network.o)
imx_ar8031_reset                                  /home/leon/git/swp-report/iMX6_Platform_SDK/output/mx6sdl/lib/libboard_evb_rev_a.a(board_network.o)
                                                  /home/leon/git/swp-report/iMX6_Platform_SDK/output/mx6sdl/obds/evb_rev_a/obj/apps/obds/src/tests/enet_mx6dldq_test.o
imx_enet_get_phy_status                           /home/leon/git/swp-report/iMX6_Platform_SDK/output/mx6sdl/lib/libsdk.a(enet_drv.o)
imx_enet_init                                     /home/leon/git/swp-report/iMX6_Platform_SDK/output/mx6sdl/lib/libsdk.a(enet_drv.o)
                                                  /home/leon/git/swp-report/iMX6_Platform_SDK/output/mx6sdl/obds/evb_rev_a/obj/apps/obds/src/tests/enet_mx6dldq_test.o
imx_enet_iomux                                    /home/leon/git/swp-report/iMX6_Platform_SDK/output/mx6sdl/lib/libboard_evb_rev_a.a(board_network.o)
                                                  /home/leon/git/swp-report/iMX6_Platform_SDK/output/mx6sdl/obds/evb_rev_a/obj/apps/obds/src/tests/enet_mx6dldq_test.o
imx_enet_isolate_phy                              /home/leon/git/swp-report/iMX6_Platform_SDK/output/mx6sdl/lib/libsdk.a(enet_drv.o)
imx_enet_mii_read                                 /home/leon/git/swp-report/iMX6_Platform_SDK/output/mx6sdl/lib/libsdk.a(enet_drv.o)
imx_enet_mii_type                                 /home/leon/git/swp-report/iMX6_Platform_SDK/output/mx6sdl/lib/libsdk.a(enet_drv.o)
                                                  /home/leon/git/swp-report/iMX6_Platform_SDK/output/mx6sdl/obds/evb_rev_a/obj/apps/obds/src/tests/enet_mx6dldq_test.o
imx_enet_mii_write                                /home/leon/git/swp-report/iMX6_Platform_SDK/output/mx6sdl/lib/libsdk.a(enet_drv.o)
imx_enet_phy_enable_external_loopback             /home/leon/git/swp-report/iMX6_Platform_SDK/output/mx6sdl/lib/libsdk.a(enet_drv.o)
imx_enet_phy_init                                 /home/leon/git/swp-report/iMX6_Platform_SDK/output/mx6sdl/lib/libsdk.a(enet_drv.o)
                                                  /home/leon/git/swp-report/iMX6_Platform_SDK/output/mx6sdl/obds/evb_rev_a/obj/apps/obds/src/tests/enet_mx6dldq_test.o
imx_enet_phy_reset                                /home/leon/git/swp-report/iMX6_Platform_SDK/output/mx6sdl/lib/libboard_evb_rev_a.a(board_network.o)
imx_enet_poll                                     /home/leon/git/swp-report/iMX6_Platform_SDK/output/mx6sdl/lib/libsdk.a(enet_drv.o)
                                                  /home/leon/git/swp-report/iMX6_Platform_SDK/output/mx6sdl/obds/evb_rev_a/obj/apps/obds/src/tests/enet_mx6dldq_test.o
imx_enet_recv                                     /home/leon/git/swp-report/iMX6_Platform_SDK/output/mx6sdl/lib/libsdk.a(enet_drv.o)
                                                  /home/leon/git/swp-report/iMX6_Platform_SDK/output/mx6sdl/obds/evb_rev_a/obj/apps/obds/src/tests/enet_mx6dldq_test.o
imx_enet_send                                     /home/leon/git/swp-report/iMX6_Platform_SDK/output/mx6sdl/lib/libsdk.a(enet_drv.o)
                                                  /home/leon/git/swp-report/iMX6_Platform_SDK/output/mx6sdl/obds/evb_rev_a/obj/apps/obds/src/tests/enet_mx6dldq_test.o
imx_enet_start                                    /home/leon/git/swp-report/iMX6_Platform_SDK/output/mx6sdl/lib/libsdk.a(enet_drv.o)
                                                  /home/leon/git/swp-report/iMX6_Platform_SDK/output/mx6sdl/obds/evb_rev_a/obj/apps/obds/src/tests/enet_mx6dldq_test.o
imx_enet_stop                                     /home/leon/git/swp-report/iMX6_Platform_SDK/output/mx6sdl/lib/libsdk.a(enet_drv.o)
                                                  /home/leon/git/swp-report/iMX6_Platform_SDK/output/mx6sdl/obds/evb_rev_a/obj/apps/obds/src/tests/enet_mx6dldq_test.o
imx_enet_unisolate_phy                            /home/leon/git/swp-report/iMX6_Platform_SDK/output/mx6sdl/lib/libsdk.a(enet_drv.o)
imx_esai_1                                        /home/leon/git/swp-report/iMX6_Platform_SDK/output/mx6sdl/lib/libsdk.a(imx_esai.o)
                                                  /home/leon/git/swp-report/iMX6_Platform_SDK/output/mx6sdl/obds/evb_rev_a/obj/sdk/drivers/audio/src/snd_card.o
imx_spdif                                         /home/leon/git/swp-report/iMX6_Platform_SDK/output/mx6sdl/lib/libsdk.a(imx_spdif.o)
                                                  /home/leon/git/swp-report/iMX6_Platform_SDK/output/mx6sdl/obds/evb_rev_a/obj/sdk/drivers/audio/src/snd_card.o
imx_ssi_1                                         /home/leon/git/swp-report/iMX6_Platform_SDK/output/mx6sdl/lib/libsdk.a(imx-ssi.o)
imx_ssi_2                                         /home/leon/git/swp-report/iMX6_Platform_SDK/output/mx6sdl/lib/libsdk.a(imx-ssi.o)
                                                  /home/leon/git/swp-report/iMX6_Platform_SDK/output/mx6sdl/obds/evb_rev_a/obj/sdk/drivers/audio/src/snd_card.o
imx_ssi_3                                         /home/leon/git/swp-report/iMX6_Platform_SDK/output/mx6sdl/lib/libsdk.a(imx-ssi.o)
init_android_buttons                              /home/leon/git/swp-report/iMX6_Platform_SDK/output/mx6sdl/obds/evb_rev_a/obj/apps/obds/src/tests/android_buttons_test.o
init_dma_data                                     /home/leon/git/swp-report/iMX6_Platform_SDK/output/mx6sdl/obds/evb_rev_a/obj/sdk/drivers/hdmi/test/init_dma_data.o
                                                  /home/leon/git/swp-report/iMX6_Platform_SDK/output/mx6sdl/obds/evb_rev_a/obj/sdk/drivers/hdmi/test/hdmi_test.o
init_hdmi_interrupt                               /home/leon/git/swp-report/iMX6_Platform_SDK/output/mx6sdl/obds/evb_rev_a/obj/sdk/drivers/hdmi/test/hdmi_test.o
input_dcd                                         /home/leon/git/swp-report/iMX6_Platform_SDK/output/mx6sdl/lib/libboard_evb_rev_a.a(dcd.o)
input_dcd_hdr                                     /home/leon/git/swp-report/iMX6_Platform_SDK/output/mx6sdl/lib/libboard_evb_rev_a.a(dcd.o)
                                                  /home/leon/git/swp-report/iMX6_Platform_SDK/output/mx6sdl/obds/evb_rev_a/obj/apps/common/ivt.o
input_dcd_wrt_cmd                                 /home/leon/git/swp-report/iMX6_Platform_SDK/output/mx6sdl/lib/libboard_evb_rev_a.a(dcd.o)
input_ivt                                         /home/leon/git/swp-report/iMX6_Platform_SDK/output/mx6sdl/obds/evb_rev_a/obj/apps/common/ivt.o
instance                                          /home/leon/git/swp-report/iMX6_Platform_SDK/output/mx6sdl/obds/evb_rev_a/obj/apps/obds/src/tests/mmcsd_test.o
iomux_config                                      /home/leon/git/swp-report/iMX6_Platform_SDK/output/mx6sdl/lib/libboard_evb_rev_a.a(iomux_config.o)
ips_deinterlace_proc                              /home/leon/git/swp-report/iMX6_Platform_SDK/output/mx6sdl/lib/libsdk.a(ipu_vdi.o)
                                                  /home/leon/git/swp-report/iMX6_Platform_SDK/output/mx6sdl/lib/libsdk.a(ipu_common.o)
ips_display_test                                  /home/leon/git/swp-report/iMX6_Platform_SDK/output/mx6sdl/obds/evb_rev_a/obj/sdk/drivers/ipu/test/ips_display.o
ips_ext_hdmi_transmitter_1080P60_stream           /home/leon/git/swp-report/iMX6_Platform_SDK/output/mx6sdl/obds/evb_rev_a/obj/sdk/drivers/ipu/test/ips_display.o
ips_hannstar_xga_yuv_stream                       /home/leon/git/swp-report/iMX6_Platform_SDK/output/mx6sdl/obds/evb_rev_a/obj/sdk/drivers/ipu/test/ips_display.o
ips_hdmi_1080P60_stream                           /home/leon/git/swp-report/iMX6_Platform_SDK/output/mx6sdl/obds/evb_rev_a/obj/sdk/drivers/ipu/test/ips_display.o
                                                  /home/leon/git/swp-report/iMX6_Platform_SDK/output/mx6sdl/obds/evb_rev_a/obj/sdk/drivers/hdmi/test/hdmi_test.o
ips_hdmi_720P60_stream                            /home/leon/git/swp-report/iMX6_Platform_SDK/output/mx6sdl/obds/evb_rev_a/obj/sdk/drivers/ipu/test/ips_display.o
                                                  /home/leon/git/swp-report/iMX6_Platform_SDK/output/mx6sdl/obds/evb_rev_a/obj/sdk/drivers/hdmi/test/hdmi_test.o
ips_hdmi_stream                                   /home/leon/git/swp-report/iMX6_Platform_SDK/output/mx6sdl/obds/evb_rev_a/obj/sdk/drivers/ipu/test/ips_display.o
                                                  /home/leon/git/swp-report/iMX6_Platform_SDK/output/mx6sdl/obds/evb_rev_a/obj/sdk/drivers/hdmi/test/hdmi_test.o
ips_mipi_wvga_rgb_stream                          /home/leon/git/swp-report/iMX6_Platform_SDK/output/mx6sdl/obds/evb_rev_a/obj/sdk/drivers/ipu/test/ips_display.o
ipu1_ch0_eobnd_isr                                /home/leon/git/swp-report/iMX6_Platform_SDK/output/mx6sdl/lib/libsdk.a(ipu_common.o)
ipu1_iomux_config                                 /home/leon/git/swp-report/iMX6_Platform_SDK/output/mx6sdl/lib/libboard_evb_rev_a.a(ipu1_iomux_config.o)
                                                  /home/leon/git/swp-report/iMX6_Platform_SDK/output/mx6sdl/lib/libboard_evb_rev_a.a(ipu_iomux_config.o)
                                                  /home/leon/git/swp-report/iMX6_Platform_SDK/output/mx6sdl/lib/libboard_evb_rev_a.a(iomux_config.o)
                                                  /home/leon/git/swp-report/iMX6_Platform_SDK/output/mx6sdl/lib/libboard_evb_rev_a.a(board_hdmi.o)
                                                  /home/leon/git/swp-report/iMX6_Platform_SDK/output/mx6sdl/lib/libsdk.a(ips_disp_panel.o)
                                                  /home/leon/git/swp-report/iMX6_Platform_SDK/output/mx6sdl/obds/evb_rev_a/obj/sdk/drivers/camera/test/sensor_capture.o
                                                  /home/leon/git/swp-report/iMX6_Platform_SDK/output/mx6sdl/obds/evb_rev_a/obj/sdk/drivers/camera/test/csi_test_mode.o
                                                  /home/leon/git/swp-report/iMX6_Platform_SDK/output/mx6sdl/obds/evb_rev_a/obj/sdk/drivers/camera/test/adv7180_capture.o
ipu_capture_disp_link                             /home/leon/git/swp-report/iMX6_Platform_SDK/output/mx6sdl/lib/libsdk.a(ipu_csi.o)
                                                  /home/leon/git/swp-report/iMX6_Platform_SDK/output/mx6sdl/lib/libsdk.a(ipu_common.o)
ipu_capture_setup                                 /home/leon/git/swp-report/iMX6_Platform_SDK/output/mx6sdl/lib/libsdk.a(ipu_common.o)
                                                  /home/leon/git/swp-report/iMX6_Platform_SDK/output/mx6sdl/obds/evb_rev_a/obj/sdk/drivers/camera/test/sensor_capture.o
                                                  /home/leon/git/swp-report/iMX6_Platform_SDK/output/mx6sdl/obds/evb_rev_a/obj/sdk/drivers/camera/test/csi_test_mode.o
                                                  /home/leon/git/swp-report/iMX6_Platform_SDK/output/mx6sdl/obds/evb_rev_a/obj/sdk/drivers/camera/test/adv7180_capture.o
ipu_capture_streamoff                             /home/leon/git/swp-report/iMX6_Platform_SDK/output/mx6sdl/lib/libsdk.a(ipu_common.o)
                                                  /home/leon/git/swp-report/iMX6_Platform_SDK/output/mx6sdl/obds/evb_rev_a/obj/sdk/drivers/camera/test/sensor_capture.o
                                                  /home/leon/git/swp-report/iMX6_Platform_SDK/output/mx6sdl/obds/evb_rev_a/obj/sdk/drivers/camera/test/csi_test_mode.o
ipu_ch0_eobnd_interrupt_register                  /home/leon/git/swp-report/iMX6_Platform_SDK/output/mx6sdl/lib/libsdk.a(ipu_common.o)
ipu_channel_buf_not_ready                         /home/leon/git/swp-report/iMX6_Platform_SDK/output/mx6sdl/lib/libsdk.a(ipu_idmac.o)
ipu_channel_buf_ready                             /home/leon/git/swp-report/iMX6_Platform_SDK/output/mx6sdl/lib/libsdk.a(ipu_idmac.o)
                                                  /home/leon/git/swp-report/iMX6_Platform_SDK/output/mx6sdl/lib/libsdk.a(ipu_vdi.o)
                                                  /home/leon/git/swp-report/iMX6_Platform_SDK/output/mx6sdl/lib/libsdk.a(ipu_common.o)
ipu_cpmem_mod_field                               /home/leon/git/swp-report/iMX6_Platform_SDK/output/mx6sdl/lib/libsdk.a(ipu_idmac.o)
                                                  /home/leon/git/swp-report/iMX6_Platform_SDK/output/mx6sdl/obds/evb_rev_a/obj/sdk/drivers/ipu/test/ips_display.o
ipu_cpmem_read_field                              /home/leon/git/swp-report/iMX6_Platform_SDK/output/mx6sdl/lib/libsdk.a(ipu_idmac.o)
ipu_cpmem_set_field                               /home/leon/git/swp-report/iMX6_Platform_SDK/output/mx6sdl/lib/libsdk.a(ipu_idmac.o)
                                                  /home/leon/git/swp-report/iMX6_Platform_SDK/output/mx6sdl/lib/libsdk.a(ipu_common.o)
ipu_csi_config                                    /home/leon/git/swp-report/iMX6_Platform_SDK/output/mx6sdl/lib/libsdk.a(ipu_csi.o)
                                                  /home/leon/git/swp-report/iMX6_Platform_SDK/output/mx6sdl/lib/libsdk.a(ipu_common.o)
ipu_csi_test_mode_color                           /home/leon/git/swp-report/iMX6_Platform_SDK/output/mx6sdl/lib/libsdk.a(ipu_csi.o)
                                                  /home/leon/git/swp-report/iMX6_Platform_SDK/output/mx6sdl/obds/evb_rev_a/obj/sdk/drivers/camera/test/csi_test_mode.o
ipu_dc_config                                     /home/leon/git/swp-report/iMX6_Platform_SDK/output/mx6sdl/lib/libsdk.a(ipu_dc.o)
                                                  /home/leon/git/swp-report/iMX6_Platform_SDK/output/mx6sdl/lib/libsdk.a(ipu_common.o)
ipu_dc_display_config                             /home/leon/git/swp-report/iMX6_Platform_SDK/output/mx6sdl/lib/libsdk.a(ipu_dc.o)
ipu_dc_map                                        /home/leon/git/swp-report/iMX6_Platform_SDK/output/mx6sdl/lib/libsdk.a(ipu_dc.o)
ipu_dc_microcode_config                           /home/leon/git/swp-report/iMX6_Platform_SDK/output/mx6sdl/lib/libsdk.a(ipu_dc.o)
ipu_dc_microcode_event                            /home/leon/git/swp-report/iMX6_Platform_SDK/output/mx6sdl/lib/libsdk.a(ipu_dc.o)
ipu_dc_write_channel_config                       /home/leon/git/swp-report/iMX6_Platform_SDK/output/mx6sdl/lib/libsdk.a(ipu_dc.o)
ipu_deinterlace_3_fields                          /home/leon/git/swp-report/iMX6_Platform_SDK/output/mx6sdl/lib/libsdk.a(ipu_vdi.o)
ipu_deinterlace_idmac_config                      /home/leon/git/swp-report/iMX6_Platform_SDK/output/mx6sdl/lib/libsdk.a(ipu_idmac.o)
                                                  /home/leon/git/swp-report/iMX6_Platform_SDK/output/mx6sdl/lib/libsdk.a(ipu_vdi.o)
ipu_di_bsclk_gen                                  /home/leon/git/swp-report/iMX6_Platform_SDK/output/mx6sdl/lib/libsdk.a(ipu_di.o)
ipu_di_config                                     /home/leon/git/swp-report/iMX6_Platform_SDK/output/mx6sdl/lib/libsdk.a(ipu_di.o)
                                                  /home/leon/git/swp-report/iMX6_Platform_SDK/output/mx6sdl/lib/libsdk.a(ipu_common.o)
ipu_di_interface_set                              /home/leon/git/swp-report/iMX6_Platform_SDK/output/mx6sdl/lib/libsdk.a(ipu_di.o)
ipu_di_pointer_config                             /home/leon/git/swp-report/iMX6_Platform_SDK/output/mx6sdl/lib/libsdk.a(ipu_di.o)
ipu_di_screen_set                                 /home/leon/git/swp-report/iMX6_Platform_SDK/output/mx6sdl/lib/libsdk.a(ipu_di.o)
ipu_di_sync_config                                /home/leon/git/swp-report/iMX6_Platform_SDK/output/mx6sdl/lib/libsdk.a(ipu_di.o)
ipu_di_waveform_config                            /home/leon/git/swp-report/iMX6_Platform_SDK/output/mx6sdl/lib/libsdk.a(ipu_di.o)
ipu_disable_csi                                   /home/leon/git/swp-report/iMX6_Platform_SDK/output/mx6sdl/lib/libsdk.a(ipu_csi.o)
                                                  /home/leon/git/swp-report/iMX6_Platform_SDK/output/mx6sdl/lib/libsdk.a(ipu_common.o)
ipu_disable_display                               /home/leon/git/swp-report/iMX6_Platform_SDK/output/mx6sdl/lib/libsdk.a(ipu_common.o)
ipu_disable_smfc                                  /home/leon/git/swp-report/iMX6_Platform_SDK/output/mx6sdl/lib/libsdk.a(ipu_csi.o)
                                                  /home/leon/git/swp-report/iMX6_Platform_SDK/output/mx6sdl/lib/libsdk.a(ipu_common.o)
ipu_disp_bg_idmac_config                          /home/leon/git/swp-report/iMX6_Platform_SDK/output/mx6sdl/lib/libsdk.a(ipu_idmac.o)
                                                  /home/leon/git/swp-report/iMX6_Platform_SDK/output/mx6sdl/lib/libsdk.a(ipu_common.o)
ipu_disp_fg_idmac_config                          /home/leon/git/swp-report/iMX6_Platform_SDK/output/mx6sdl/lib/libsdk.a(ipu_idmac.o)
                                                  /home/leon/git/swp-report/iMX6_Platform_SDK/output/mx6sdl/lib/libsdk.a(ipu_common.o)
ipu_display_panel                                 /home/leon/git/swp-report/iMX6_Platform_SDK/output/mx6sdl/obds/evb_rev_a/obj/apps/obds/src/tests/display_test.o
ipu_display_setup                                 /home/leon/git/swp-report/iMX6_Platform_SDK/output/mx6sdl/lib/libsdk.a(ipu_common.o)
                                                  /home/leon/git/swp-report/iMX6_Platform_SDK/output/mx6sdl/obds/evb_rev_a/obj/sdk/drivers/ipu/test/ips_display.o
                                                  /home/leon/git/swp-report/iMX6_Platform_SDK/output/mx6sdl/obds/evb_rev_a/obj/apps/obds/src/tests/display_test.o
ipu_display_test_main                             /home/leon/git/swp-report/iMX6_Platform_SDK/output/mx6sdl/obds/evb_rev_a/obj/apps/obds/src/tests/display_test.o
ipu_dma_update_buffer                             /home/leon/git/swp-report/iMX6_Platform_SDK/output/mx6sdl/lib/libsdk.a(ipu_idmac.o)
ipu_dmfc_alloc                                    /home/leon/git/swp-report/iMX6_Platform_SDK/output/mx6sdl/lib/libsdk.a(ipu_dmfc.o)
                                                  /home/leon/git/swp-report/iMX6_Platform_SDK/output/mx6sdl/obds/evb_rev_a/obj/sdk/drivers/ipu/test/ips_display.o
ipu_dmfc_config                                   /home/leon/git/swp-report/iMX6_Platform_SDK/output/mx6sdl/lib/libsdk.a(ipu_dmfc.o)
                                                  /home/leon/git/swp-report/iMX6_Platform_SDK/output/mx6sdl/lib/libsdk.a(ipu_common.o)
ipu_dp_config                                     /home/leon/git/swp-report/iMX6_Platform_SDK/output/mx6sdl/lib/libsdk.a(ipu_dp.o)
                                                  /home/leon/git/swp-report/iMX6_Platform_SDK/output/mx6sdl/lib/libsdk.a(ipu_common.o)
ipu_dp_csc_config                                 /home/leon/git/swp-report/iMX6_Platform_SDK/output/mx6sdl/lib/libsdk.a(ipu_dp.o)
ipu_dp_fg_config                                  /home/leon/git/swp-report/iMX6_Platform_SDK/output/mx6sdl/lib/libsdk.a(ipu_dp.o)
ipu_dual_display_setup                            /home/leon/git/swp-report/iMX6_Platform_SDK/output/mx6sdl/lib/libsdk.a(ipu_common.o)
ipu_enable_display                                /home/leon/git/swp-report/iMX6_Platform_SDK/output/mx6sdl/lib/libsdk.a(ipu_common.o)
                                                  /home/leon/git/swp-report/iMX6_Platform_SDK/output/mx6sdl/obds/evb_rev_a/obj/sdk/drivers/ipu/test/ips_display.o
                                                  /home/leon/git/swp-report/iMX6_Platform_SDK/output/mx6sdl/obds/evb_rev_a/obj/sdk/drivers/camera/test/sensor_capture.o
                                                  /home/leon/git/swp-report/iMX6_Platform_SDK/output/mx6sdl/obds/evb_rev_a/obj/sdk/drivers/camera/test/csi_test_mode.o
                                                  /home/leon/git/swp-report/iMX6_Platform_SDK/output/mx6sdl/obds/evb_rev_a/obj/sdk/drivers/camera/test/adv7180_capture.o
                                                  /home/leon/git/swp-report/iMX6_Platform_SDK/output/mx6sdl/obds/evb_rev_a/obj/apps/obds/src/tests/display_test.o
ipu_general_idmac_config                          /home/leon/git/swp-report/iMX6_Platform_SDK/output/mx6sdl/lib/libsdk.a(ipu_idmac.o)
                                                  /home/leon/git/swp-report/iMX6_Platform_SDK/output/mx6sdl/lib/libsdk.a(ipu_common.o)
ipu_hsp_clk_config                                /home/leon/git/swp-report/iMX6_Platform_SDK/output/mx6sdl/lib/libsdk.a(ccm_pll.o)
ipu_ic_calc_resize_coeffs                         /home/leon/git/swp-report/iMX6_Platform_SDK/output/mx6sdl/lib/libsdk.a(ipu_ic.o)
ipu_ic_combine_config                             /home/leon/git/swp-report/iMX6_Platform_SDK/output/mx6sdl/lib/libsdk.a(ipu_ic.o)
ipu_ic_config_resize_rate                         /home/leon/git/swp-report/iMX6_Platform_SDK/output/mx6sdl/lib/libsdk.a(ipu_ic.o)
ipu_ic_csc_config                                 /home/leon/git/swp-report/iMX6_Platform_SDK/output/mx6sdl/lib/libsdk.a(ipu_ic.o)
ipu_ic_deinterlace_config                         /home/leon/git/swp-report/iMX6_Platform_SDK/output/mx6sdl/lib/libsdk.a(ipu_ic.o)
                                                  /home/leon/git/swp-report/iMX6_Platform_SDK/output/mx6sdl/lib/libsdk.a(ipu_vdi.o)
ipu_ic_enable                                     /home/leon/git/swp-report/iMX6_Platform_SDK/output/mx6sdl/lib/libsdk.a(ipu_ic.o)
                                                  /home/leon/git/swp-report/iMX6_Platform_SDK/output/mx6sdl/lib/libsdk.a(ipu_vdi.o)
ipu_ic_resize_config                              /home/leon/git/swp-report/iMX6_Platform_SDK/output/mx6sdl/lib/libsdk.a(ipu_ic.o)
ipu_ic_rotation_config                            /home/leon/git/swp-report/iMX6_Platform_SDK/output/mx6sdl/lib/libsdk.a(ipu_ic.o)
ipu_ic_task_enable                                /home/leon/git/swp-report/iMX6_Platform_SDK/output/mx6sdl/lib/libsdk.a(ipu_ic.o)
                                                  /home/leon/git/swp-report/iMX6_Platform_SDK/output/mx6sdl/lib/libsdk.a(ipu_vdi.o)
ipu_idma_pixel_format_config                      /home/leon/git/swp-report/iMX6_Platform_SDK/output/mx6sdl/lib/libsdk.a(ipu_idmac.o)
ipu_idmac_chan_cur_buff                           /home/leon/git/swp-report/iMX6_Platform_SDK/output/mx6sdl/lib/libsdk.a(ipu_idmac.o)
ipu_idmac_channel_busy                            /home/leon/git/swp-report/iMX6_Platform_SDK/output/mx6sdl/lib/libsdk.a(ipu_idmac.o)
                                                  /home/leon/git/swp-report/iMX6_Platform_SDK/output/mx6sdl/lib/libsdk.a(ipu_vdi.o)
ipu_idmac_channel_enable                          /home/leon/git/swp-report/iMX6_Platform_SDK/output/mx6sdl/lib/libsdk.a(ipu_idmac.o)
                                                  /home/leon/git/swp-report/iMX6_Platform_SDK/output/mx6sdl/lib/libsdk.a(ipu_common.o)
ipu_idmac_channel_mode_sel                        /home/leon/git/swp-report/iMX6_Platform_SDK/output/mx6sdl/lib/libsdk.a(ipu_idmac.o)
ipu_iomux_config                                  /home/leon/git/swp-report/iMX6_Platform_SDK/output/mx6sdl/lib/libboard_evb_rev_a.a(ipu_iomux_config.o)
                                                  /home/leon/git/swp-report/iMX6_Platform_SDK/output/mx6sdl/obds/evb_rev_a/obj/apps/obds/src/tests/display_test.o
ipu_mipi_csi2_setup                               /home/leon/git/swp-report/iMX6_Platform_SDK/output/mx6sdl/lib/libsdk.a(ipu_common.o)
ipu_read                                          /home/leon/git/swp-report/iMX6_Platform_SDK/output/mx6sdl/lib/libsdk.a(ipu_common.o)
                                                  /home/leon/git/swp-report/iMX6_Platform_SDK/output/mx6sdl/lib/libsdk.a(ipu_vdi.o)
ipu_resize_idmac_config                           /home/leon/git/swp-report/iMX6_Platform_SDK/output/mx6sdl/lib/libsdk.a(ipu_idmac.o)
ipu_rotate_idmac_config                           /home/leon/git/swp-report/iMX6_Platform_SDK/output/mx6sdl/lib/libsdk.a(ipu_idmac.o)
ipu_smfc_fifo_allocate                            /home/leon/git/swp-report/iMX6_Platform_SDK/output/mx6sdl/lib/libsdk.a(ipu_csi.o)
                                                  /home/leon/git/swp-report/iMX6_Platform_SDK/output/mx6sdl/lib/libsdk.a(ipu_common.o)
ipu_sw_reset                                      /home/leon/git/swp-report/iMX6_Platform_SDK/output/mx6sdl/lib/libsdk.a(ipu_common.o)
                                                  /home/leon/git/swp-report/iMX6_Platform_SDK/output/mx6sdl/obds/evb_rev_a/obj/sdk/drivers/ipu/test/ips_display.o
                                                  /home/leon/git/swp-report/iMX6_Platform_SDK/output/mx6sdl/obds/evb_rev_a/obj/sdk/drivers/camera/test/sensor_capture.o
                                                  /home/leon/git/swp-report/iMX6_Platform_SDK/output/mx6sdl/obds/evb_rev_a/obj/sdk/drivers/camera/test/csi_test_mode.o
                                                  /home/leon/git/swp-report/iMX6_Platform_SDK/output/mx6sdl/obds/evb_rev_a/obj/sdk/drivers/camera/test/adv7180_capture.o
                                                  /home/leon/git/swp-report/iMX6_Platform_SDK/output/mx6sdl/obds/evb_rev_a/obj/apps/obds/src/tests/display_test.o
ipu_vdi_init                                      /home/leon/git/swp-report/iMX6_Platform_SDK/output/mx6sdl/lib/libsdk.a(ipu_vdi.o)
ipu_vdi_set_motion                                /home/leon/git/swp-report/iMX6_Platform_SDK/output/mx6sdl/lib/libsdk.a(ipu_vdi.o)
ipu_vdi_set_top_field_man                         /home/leon/git/swp-report/iMX6_Platform_SDK/output/mx6sdl/lib/libsdk.a(ipu_vdi.o)
ipu_vdi_uninit                                    /home/leon/git/swp-report/iMX6_Platform_SDK/output/mx6sdl/lib/libsdk.a(ipu_vdi.o)
ipu_write                                         /home/leon/git/swp-report/iMX6_Platform_SDK/output/mx6sdl/lib/libsdk.a(ipu_common.o)
                                                  /home/leon/git/swp-report/iMX6_Platform_SDK/output/mx6sdl/lib/libsdk.a(ipu_vdi.o)
ipu_write_field                                   /home/leon/git/swp-report/iMX6_Platform_SDK/output/mx6sdl/lib/libsdk.a(ipu_common.o)
                                                  /home/leon/git/swp-report/iMX6_Platform_SDK/output/mx6sdl/lib/libsdk.a(ipu_ic.o)
                                                  /home/leon/git/swp-report/iMX6_Platform_SDK/output/mx6sdl/lib/libsdk.a(ipu_vdi.o)
                                                  /home/leon/git/swp-report/iMX6_Platform_SDK/output/mx6sdl/lib/libsdk.a(ipu_idmac.o)
                                                  /home/leon/git/swp-report/iMX6_Platform_SDK/output/mx6sdl/lib/libsdk.a(ipu_dp.o)
                                                  /home/leon/git/swp-report/iMX6_Platform_SDK/output/mx6sdl/lib/libsdk.a(ipu_dmfc.o)
                                                  /home/leon/git/swp-report/iMX6_Platform_SDK/output/mx6sdl/lib/libsdk.a(ipu_di.o)
                                                  /home/leon/git/swp-report/iMX6_Platform_SDK/output/mx6sdl/lib/libsdk.a(ipu_dc.o)
                                                  /home/leon/git/swp-report/iMX6_Platform_SDK/output/mx6sdl/lib/libsdk.a(ipu_csi.o)
isColorSpaceConversion                            /home/leon/git/swp-report/iMX6_Platform_SDK/output/mx6sdl/lib/libsdk.a(hdmi_common.o)
                                                  /home/leon/git/swp-report/iMX6_Platform_SDK/output/mx6sdl/lib/libsdk.a(hdmi_tx.o)
isColorSpaceDecimation                            /home/leon/git/swp-report/iMX6_Platform_SDK/output/mx6sdl/lib/libsdk.a(hdmi_common.o)
                                                  /home/leon/git/swp-report/iMX6_Platform_SDK/output/mx6sdl/lib/libsdk.a(hdmi_tx.o)
isColorSpaceInterpolation                         /home/leon/git/swp-report/iMX6_Platform_SDK/output/mx6sdl/lib/libsdk.a(hdmi_common.o)
                                                  /home/leon/git/swp-report/iMX6_Platform_SDK/output/mx6sdl/lib/libsdk.a(hdmi_tx.o)
isPixelRepetition                                 /home/leon/git/swp-report/iMX6_Platform_SDK/output/mx6sdl/lib/libsdk.a(hdmi_common.o)
is_color_supported                                /home/leon/git/swp-report/iMX6_Platform_SDK/output/mx6sdl/lib/libsdk.a(text_color.o)
is_input_char                                     /home/leon/git/swp-report/iMX6_Platform_SDK/output/mx6sdl/lib/libsdk.a(system_util.o)
                                                  /home/leon/git/swp-report/iMX6_Platform_SDK/output/mx6sdl/obds/evb_rev_a/obj/sdk/drivers/camera/test/sensor_capture.o
                                                  /home/leon/git/swp-report/iMX6_Platform_SDK/output/mx6sdl/obds/evb_rev_a/obj/apps/obds/src/tests/program_mac_address.o
                                                  /home/leon/git/swp-report/iMX6_Platform_SDK/output/mx6sdl/obds/evb_rev_a/obj/apps/obds/src/tests/program_board_id.o
                                                  /home/leon/git/swp-report/iMX6_Platform_SDK/output/mx6sdl/obds/evb_rev_a/obj/apps/obds/src/tests/pmic_da9053.o
                                                  /home/leon/git/swp-report/iMX6_Platform_SDK/output/mx6sdl/obds/evb_rev_a/obj/apps/obds/src/tests/mmcsd_test.o
                                                  /home/leon/git/swp-report/iMX6_Platform_SDK/output/mx6sdl/obds/evb_rev_a/obj/apps/obds/src/tests/mlb_os81050.o
                                                  /home/leon/git/swp-report/iMX6_Platform_SDK/output/mx6sdl/obds/evb_rev_a/obj/apps/obds/src/tests/i2c_eeprom_at24cxx_test.o
                                                  /home/leon/git/swp-report/iMX6_Platform_SDK/output/mx6sdl/obds/evb_rev_a/obj/apps/obds/src/tests/gps_test.o
                                                  /home/leon/git/swp-report/iMX6_Platform_SDK/output/mx6sdl/obds/evb_rev_a/obj/apps/obds/src/tests/fm_tuner_si476x_test.o
                                                  /home/leon/git/swp-report/iMX6_Platform_SDK/output/mx6sdl/obds/evb_rev_a/obj/apps/obds/src/tests/enet_mx6dldq_test.o
                                                  /home/leon/git/swp-report/iMX6_Platform_SDK/output/mx6sdl/obds/evb_rev_a/obj/apps/obds/src/tests/display_test.o
                                                  /home/leon/git/swp-report/iMX6_Platform_SDK/output/mx6sdl/obds/evb_rev_a/obj/apps/obds/src/tests/deserializer_ds90ur124.o
                                                  /home/leon/git/swp-report/iMX6_Platform_SDK/output/mx6sdl/obds/evb_rev_a/obj/apps/obds/src/tests/audio_ssi_test.o
                                                  /home/leon/git/swp-report/iMX6_Platform_SDK/output/mx6sdl/obds/evb_rev_a/obj/apps/obds/src/tests/android_buttons_test.o
                                                  /home/leon/git/swp-report/iMX6_Platform_SDK/output/mx6sdl/obds/evb_rev_a/obj/apps/obds/src/obds.o
jump_to_sdp                                       /home/leon/git/swp-report/iMX6_Platform_SDK/output/mx6sdl/lib/libsdk.a(system_util.o)
k_gpio_mux_registers                              /home/leon/git/swp-report/iMX6_Platform_SDK/output/mx6sdl/lib/libsdk.a(imx6sdl_gpio_map.o)
                                                  /home/leon/git/swp-report/iMX6_Platform_SDK/output/mx6sdl/lib/libsdk.a(gpio.o)
k_sdk_copyright                                   /home/leon/git/swp-report/iMX6_Platform_SDK/output/mx6sdl/lib/libsdk.a(sdk_version.o)
                                                  /home/leon/git/swp-report/iMX6_Platform_SDK/output/mx6sdl/obds/evb_rev_a/obj/apps/common/print_version.o
k_sdk_version                                     /home/leon/git/swp-report/iMX6_Platform_SDK/output/mx6sdl/lib/libsdk.a(sdk_version.o)
                                                  /home/leon/git/swp-report/iMX6_Platform_SDK/output/mx6sdl/obds/evb_rev_a/obj/apps/common/print_version.o
kpp_iomux_config                                  /home/leon/git/swp-report/iMX6_Platform_SDK/output/mx6sdl/lib/libboard_evb_rev_a.a(kpp_iomux_config.o)
                                                  /home/leon/git/swp-report/iMX6_Platform_SDK/output/mx6sdl/lib/libboard_evb_rev_a.a(iomux_config.o)
lcd_iomux_config                                  /home/leon/git/swp-report/iMX6_Platform_SDK/output/mx6sdl/lib/libboard_evb_rev_a.a(iomux_config.o)
ldb_clock_config                                  /home/leon/git/swp-report/iMX6_Platform_SDK/output/mx6sdl/lib/libboard_evb_rev_a.a(board_display.o)
                                                  /home/leon/git/swp-report/iMX6_Platform_SDK/output/mx6sdl/lib/libsdk.a(ips_disp_panel.o)
ldb_config                                        /home/leon/git/swp-report/iMX6_Platform_SDK/output/mx6sdl/lib/libsdk.a(ldb.o)
                                                  /home/leon/git/swp-report/iMX6_Platform_SDK/output/mx6sdl/lib/libsdk.a(ips_disp_panel.o)
ldb_iomux_config                                  /home/leon/git/swp-report/iMX6_Platform_SDK/output/mx6sdl/lib/libboard_evb_rev_a.a(iomux_config.o)
                                                  /home/leon/git/swp-report/iMX6_Platform_SDK/output/mx6sdl/lib/libsdk.a(ips_disp_panel.o)
ldb_set_vs_polarity                               /home/leon/git/swp-report/iMX6_Platform_SDK/output/mx6sdl/lib/libsdk.a(ldb.o)
list_panel                                        /home/leon/git/swp-report/iMX6_Platform_SDK/output/mx6sdl/lib/libsdk.a(ips_disp_panel.o)
                                                  /home/leon/git/swp-report/iMX6_Platform_SDK/output/mx6sdl/obds/evb_rev_a/obj/apps/obds/src/tests/display_test.o
load_centralized_image                            /home/leon/git/swp-report/iMX6_Platform_SDK/output/mx6sdl/obds/evb_rev_a/obj/sdk/drivers/ipu/test/ipu_image.o
                                                  /home/leon/git/swp-report/iMX6_Platform_SDK/output/mx6sdl/obds/evb_rev_a/obj/sdk/drivers/ipu/test/ips_display.o
                                                  /home/leon/git/swp-report/iMX6_Platform_SDK/output/mx6sdl/obds/evb_rev_a/obj/apps/obds/src/tests/display_test.o
load_foreground_image                             /home/leon/git/swp-report/iMX6_Platform_SDK/output/mx6sdl/obds/evb_rev_a/obj/sdk/drivers/ipu/test/ipu_image.o
load_horiz_image                                  /home/leon/git/swp-report/iMX6_Platform_SDK/output/mx6sdl/obds/evb_rev_a/obj/sdk/drivers/ipu/test/ipu_image.o
load_vert_image                                   /home/leon/git/swp-report/iMX6_Platform_SDK/output/mx6sdl/obds/evb_rev_a/obj/sdk/drivers/ipu/test/ipu_image.o
localeconv                                        /home/leon/riotboard/arm-2012.09/bin/../arm-none-eabi/lib//libc.a(lib_a-locale.o)
ltc3589_backlight_en                              /home/leon/git/swp-report/iMX6_Platform_SDK/output/mx6sdl/obds/evb_rev_a/obj/apps/obds/src/tests/pmic_lt3589.o
ltc3589_camera_power_on                           /home/leon/git/swp-report/iMX6_Platform_SDK/output/mx6sdl/obds/evb_rev_a/obj/apps/obds/src/tests/pmic_lt3589.o
ltc3589_eval                                      /home/leon/git/swp-report/iMX6_Platform_SDK/output/mx6sdl/obds/evb_rev_a/obj/apps/obds/src/tests/pmic_lt3589.o
ltc3589_i2c_device_id_check                       /home/leon/git/swp-report/iMX6_Platform_SDK/output/mx6sdl/obds/evb_rev_a/obj/apps/obds/src/tests/pmic_lt3589.o
ltc3589_reg_read                                  /home/leon/git/swp-report/iMX6_Platform_SDK/output/mx6sdl/obds/evb_rev_a/obj/apps/obds/src/tests/pmic_lt3589.o
ltc3589_reg_write                                 /home/leon/git/swp-report/iMX6_Platform_SDK/output/mx6sdl/obds/evb_rev_a/obj/apps/obds/src/tests/pmic_lt3589.o
lvds_power_on                                     /home/leon/git/swp-report/iMX6_Platform_SDK/output/mx6sdl/lib/libboard_evb_rev_a.a(board_display.o)
                                                  /home/leon/git/swp-report/iMX6_Platform_SDK/output/mx6sdl/lib/libsdk.a(ips_disp_panel.o)
m29w256gl_auto_dev_id                             /home/leon/git/swp-report/iMX6_Platform_SDK/output/mx6sdl/obds/evb_rev_a/obj/apps/obds/src/tests/weim_nor_flash_test.o
m29w256gl_auto_manu_id                            /home/leon/git/swp-report/iMX6_Platform_SDK/output/mx6sdl/obds/evb_rev_a/obj/apps/obds/src/tests/weim_nor_flash_test.o
mac_address_str                                   /home/leon/git/swp-report/iMX6_Platform_SDK/output/mx6sdl/obds/evb_rev_a/obj/apps/obds/src/tests/program_mac_address.o
mag3110_reg_read                                  /home/leon/git/swp-report/iMX6_Platform_SDK/output/mx6sdl/obds/evb_rev_a/obj/apps/obds/src/tests/i2c_device_digital_compass_mag3110.o
mag3112_reg_read                                  /home/leon/git/swp-report/iMX6_Platform_SDK/output/mx6sdl/obds/evb_rev_a/obj/apps/obds/src/tests/i2c_device_digital_compass_mag3112.o
main                                              /home/leon/git/swp-report/iMX6_Platform_SDK/output/mx6sdl/obds/evb_rev_a/obj/apps/obds/src/obds.o
                                                  /home/leon/git/swp-report/iMX6_Platform_SDK/output/mx6sdl/lib/libsdk.a(startup.o)
main_menuitems                                    /home/leon/git/swp-report/iMX6_Platform_SDK/output/mx6sdl/obds/evb_rev_a/obj/apps/obds/src/obds.o
malloc                                            /home/leon/riotboard/arm-2012.09/bin/../arm-none-eabi/lib//libc.a(lib_a-malloc.o)
                                                  /home/leon/git/swp-report/iMX6_Platform_SDK/output/mx6sdl/lib/libsdk.a(usbh_drv.o)
                                                  /home/leon/git/swp-report/iMX6_Platform_SDK/output/mx6sdl/lib/libsdk.a(system_util.o)
                                                  /home/leon/git/swp-report/iMX6_Platform_SDK/output/mx6sdl/obds/evb_rev_a/obj/sdk/drivers/usb/test/usb0_host_test.o
                                                  /home/leon/git/swp-report/iMX6_Platform_SDK/output/mx6sdl/obds/evb_rev_a/obj/apps/obds/src/tests/usb_tests_obds.o
                                                  /home/leon/git/swp-report/iMX6_Platform_SDK/output/mx6sdl/obds/evb_rev_a/obj/apps/obds/src/obds.o
max11801_reg_read_multi                           /home/leon/git/swp-report/iMX6_Platform_SDK/output/mx6sdl/obds/evb_rev_a/obj/apps/obds/src/tests/touch_screen_max11801.o
max11801_reg_read_single                          /home/leon/git/swp-report/iMX6_Platform_SDK/output/mx6sdl/obds/evb_rev_a/obj/apps/obds/src/tests/touch_screen_max11801.o
max11801_reg_write                                /home/leon/git/swp-report/iMX6_Platform_SDK/output/mx6sdl/obds/evb_rev_a/obj/apps/obds/src/tests/touch_screen_max11801.o
max11801_ts_test                                  /home/leon/git/swp-report/iMX6_Platform_SDK/output/mx6sdl/obds/evb_rev_a/obj/apps/obds/src/tests/touch_screen_max11801.o
max17135_reg_read                                 /home/leon/git/swp-report/iMX6_Platform_SDK/output/mx6sdl/obds/evb_rev_a/obj/apps/obds/src/tests/pmic_max17135.o
max17135_reg_write                                /home/leon/git/swp-report/iMX6_Platform_SDK/output/mx6sdl/obds/evb_rev_a/obj/apps/obds/src/tests/pmic_max17135.o
max7310_i2c_device_id_check                       /home/leon/git/swp-report/iMX6_Platform_SDK/output/mx6sdl/obds/evb_rev_a/obj/sdk/common/ioexpander/test/max7310_test.o
max7310_i2c_req_array                             /home/leon/git/swp-report/iMX6_Platform_SDK/output/mx6sdl/lib/libboard_evb_rev_a.a(board_io_expanders.o)
                                                  /home/leon/git/swp-report/iMX6_Platform_SDK/output/mx6sdl/lib/libsdk.a(max7310.o)
                                                  /home/leon/git/swp-report/iMX6_Platform_SDK/output/mx6sdl/obds/evb_rev_a/obj/sdk/common/ioexpander/test/max7310_test.o
max7310_init                                      /home/leon/git/swp-report/iMX6_Platform_SDK/output/mx6sdl/lib/libsdk.a(max7310.o)
                                                  /home/leon/git/swp-report/iMX6_Platform_SDK/output/mx6sdl/lib/libboard_evb_rev_a.a(board_io_expanders.o)
max7310_reg_read                                  /home/leon/git/swp-report/iMX6_Platform_SDK/output/mx6sdl/lib/libsdk.a(max7310.o)
                                                  /home/leon/git/swp-report/iMX6_Platform_SDK/output/mx6sdl/obds/evb_rev_a/obj/sdk/common/ioexpander/test/max7310_test.o
max7310_reg_write                                 /home/leon/git/swp-report/iMX6_Platform_SDK/output/mx6sdl/lib/libsdk.a(max7310.o)
max7310_set_gpio_output                           /home/leon/git/swp-report/iMX6_Platform_SDK/output/mx6sdl/lib/libsdk.a(max7310.o)
                                                  /home/leon/git/swp-report/iMX6_Platform_SDK/output/mx6sdl/lib/libboard_evb_rev_a.a(board_mipi.o)
                                                  /home/leon/git/swp-report/iMX6_Platform_SDK/output/mx6sdl/lib/libboard_evb_rev_a.a(board_display.o)
                                                  /home/leon/git/swp-report/iMX6_Platform_SDK/output/mx6sdl/lib/libsdk.a(adv7180.o)
                                                  /home/leon/git/swp-report/iMX6_Platform_SDK/output/mx6sdl/obds/evb_rev_a/obj/apps/obds/src/tests/video_dec_adv7180.o
                                                  /home/leon/git/swp-report/iMX6_Platform_SDK/output/mx6sdl/obds/evb_rev_a/obj/apps/obds/src/tests/video_dec_ARD_MBrst_from_cpu_expander.o
                                                  /home/leon/git/swp-report/iMX6_Platform_SDK/output/mx6sdl/obds/evb_rev_a/obj/apps/obds/src/tests/mlb_os81050.o
                                                  /home/leon/git/swp-report/iMX6_Platform_SDK/output/mx6sdl/obds/evb_rev_a/obj/apps/obds/src/tests/fm_tuner_si476x_test.o
mc13892_i2c_reg                                   /home/leon/git/swp-report/iMX6_Platform_SDK/output/mx6sdl/obds/evb_rev_a/obj/apps/obds/src/tests/pmic_mc13892.o
memchr                                            /home/leon/riotboard/arm-2012.09/bin/../arm-none-eabi/lib//libc.a(lib_a-memchr.o)
                                                  /home/leon/riotboard/arm-2012.09/bin/../arm-none-eabi/lib//libc.a(lib_a-svfiprintf.o)
                                                  /home/leon/riotboard/arm-2012.09/bin/../arm-none-eabi/lib//libc.a(lib_a-fvwrite.o)
                                                  /home/leon/riotboard/arm-2012.09/bin/../arm-none-eabi/lib//libc.a(lib_a-vfprintf.o)
                                                  /home/leon/riotboard/arm-2012.09/bin/../arm-none-eabi/lib//libc.a(lib_a-vfiprintf.o)
                                                  /home/leon/riotboard/arm-2012.09/bin/../arm-none-eabi/lib//libc.a(lib_a-svfprintf.o)
memcpy                                            /home/leon/riotboard/arm-2012.09/bin/../arm-none-eabi/lib//libc.a(lib_a-memcpy.o)
                                                  /home/leon/riotboard/arm-2012.09/bin/../arm-none-eabi/lib//libc.a(lib_a-svfiprintf.o)
                                                  /home/leon/riotboard/arm-2012.09/bin/../arm-none-eabi/lib//libc.a(lib_a-mprec.o)
                                                  /home/leon/riotboard/arm-2012.09/bin/../arm-none-eabi/lib//libc.a(lib_a-fvwrite.o)
                                                  /home/leon/riotboard/arm-2012.09/bin/../arm-none-eabi/lib//libc.a(lib_a-dtoa.o)
                                                  /home/leon/git/swp-report/iMX6_Platform_SDK/output/mx6sdl/lib/libsdk.a(ipu_common.o)
                                                  /home/leon/git/swp-report/iMX6_Platform_SDK/output/mx6sdl/lib/libsdk.a(mxc_epdc.o)
                                                  /home/leon/git/swp-report/iMX6_Platform_SDK/output/mx6sdl/lib/libsdk.a(enet_drv.o)
                                                  /home/leon/git/swp-report/iMX6_Platform_SDK/output/mx6sdl/lib/libsdk.a(menu.o)
                                                  /home/leon/git/swp-report/iMX6_Platform_SDK/output/mx6sdl/obds/evb_rev_a/obj/sdk/drivers/spi/test/imx_spi_nor_atmel.o
                                                  /home/leon/git/swp-report/iMX6_Platform_SDK/output/mx6sdl/obds/evb_rev_a/obj/sdk/drivers/ipu/test/ipu_image.o
                                                  /home/leon/git/swp-report/iMX6_Platform_SDK/output/mx6sdl/obds/evb_rev_a/obj/apps/obds/src/tests/touch_screen_max11801.o
                                                  /home/leon/git/swp-report/iMX6_Platform_SDK/output/mx6sdl/obds/evb_rev_a/obj/apps/obds/src/tests/i2c_device_id_check_p1003_tsc.o
                                                  /home/leon/git/swp-report/iMX6_Platform_SDK/output/mx6sdl/obds/evb_rev_a/obj/apps/obds/src/tests/audio_esai_test.o
memmove                                           /home/leon/riotboard/arm-2012.09/bin/../arm-none-eabi/lib//libc.a(lib_a-memmove.o)
                                                  /home/leon/riotboard/arm-2012.09/bin/../arm-none-eabi/lib//libc.a(lib_a-svfiprintf.o)
                                                  /home/leon/riotboard/arm-2012.09/bin/../arm-none-eabi/lib//libc.a(lib_a-fvwrite.o)
                                                  /home/leon/riotboard/arm-2012.09/bin/../arm-none-eabi/lib//libc.a(lib_a-reallocr.o)
memset                                            /home/leon/riotboard/arm-2012.09/bin/../arm-none-eabi/lib//libc.a(lib_a-memset.o)
                                                  /home/leon/riotboard/arm-2012.09/bin/../arm-none-eabi/lib//libc.a(lib_a-callocr.o)
                                                  /home/leon/riotboard/arm-2012.09/bin/../arm-none-eabi/lib//libc.a(lib_a-findfp.o)
                                                  /home/leon/git/swp-report/iMX6_Platform_SDK/output/mx6sdl/lib/libsdk.a(ipu_vdi.o)
                                                  /home/leon/git/swp-report/iMX6_Platform_SDK/output/mx6sdl/lib/libsdk.a(ipu_idmac.o)
                                                  /home/leon/git/swp-report/iMX6_Platform_SDK/output/mx6sdl/lib/libsdk.a(ipu_di.o)
                                                  /home/leon/git/swp-report/iMX6_Platform_SDK/output/mx6sdl/lib/libsdk.a(ipu_common.o)
                                                  /home/leon/git/swp-report/iMX6_Platform_SDK/output/mx6sdl/lib/libsdk.a(mxc_epdc.o)
                                                  /home/leon/git/swp-report/iMX6_Platform_SDK/output/mx6sdl/lib/libsdk.a(board_id.o)
                                                  /home/leon/git/swp-report/iMX6_Platform_SDK/output/mx6sdl/lib/libsdk.a(imx_spdif.o)
                                                  /home/leon/git/swp-report/iMX6_Platform_SDK/output/mx6sdl/lib/libsdk.a(menu.o)
                                                  /home/leon/git/swp-report/iMX6_Platform_SDK/output/mx6sdl/obds/evb_rev_a/obj/sdk/drivers/usdhc/test/usdhc_test.o
                                                  /home/leon/git/swp-report/iMX6_Platform_SDK/output/mx6sdl/obds/evb_rev_a/obj/sdk/drivers/spi/test/spi_nor_numonyx.o
                                                  /home/leon/git/swp-report/iMX6_Platform_SDK/output/mx6sdl/obds/evb_rev_a/obj/sdk/drivers/ipu/test/ipu_image.o
                                                  /home/leon/git/swp-report/iMX6_Platform_SDK/output/mx6sdl/obds/evb_rev_a/obj/sdk/drivers/ipu/test/ips_display.o
                                                  /home/leon/git/swp-report/iMX6_Platform_SDK/output/mx6sdl/obds/evb_rev_a/obj/sdk/drivers/hdmi/test/hdmi_test.o
                                                  /home/leon/git/swp-report/iMX6_Platform_SDK/output/mx6sdl/obds/evb_rev_a/obj/apps/obds/src/tests/usb_tests_obds.o
                                                  /home/leon/git/swp-report/iMX6_Platform_SDK/output/mx6sdl/obds/evb_rev_a/obj/apps/obds/src/tests/imx_spi_nor_test.o
                                                  /home/leon/git/swp-report/iMX6_Platform_SDK/output/mx6sdl/obds/evb_rev_a/obj/apps/obds/src/tests/display_test.o
                                                  /home/leon/git/swp-report/iMX6_Platform_SDK/output/mx6sdl/obds/evb_rev_a/obj/apps/obds/src/obds.o
                                                  /home/leon/git/swp-report/iMX6_Platform_SDK/output/mx6sdl/obds/evb_rev_a/obj/apps/common/print_version.o
menu_append_menuitems                             /home/leon/git/swp-report/iMX6_Platform_SDK/output/mx6sdl/lib/libsdk.a(menu.o)
                                                  /home/leon/git/swp-report/iMX6_Platform_SDK/output/mx6sdl/obds/evb_rev_a/obj/apps/obds/src/obds.o
menu_get_indent                                   /home/leon/git/swp-report/iMX6_Platform_SDK/output/mx6sdl/lib/libsdk.a(menu.o)
                                                  /home/leon/git/swp-report/iMX6_Platform_SDK/output/mx6sdl/lib/libsdk.a(usdhc.o)
                                                  /home/leon/git/swp-report/iMX6_Platform_SDK/output/mx6sdl/obds/evb_rev_a/obj/sdk/drivers/usdhc/test/usdhc_test.o
                                                  /home/leon/git/swp-report/iMX6_Platform_SDK/output/mx6sdl/obds/evb_rev_a/obj/sdk/drivers/uart/test/uart_test.o
                                                  /home/leon/git/swp-report/iMX6_Platform_SDK/output/mx6sdl/obds/evb_rev_a/obj/sdk/drivers/epdc/test/epdc_test.o
                                                  /home/leon/git/swp-report/iMX6_Platform_SDK/output/mx6sdl/obds/evb_rev_a/obj/sdk/common/pmic/pfuse/pf0100.o
                                                  /home/leon/git/swp-report/iMX6_Platform_SDK/output/mx6sdl/obds/evb_rev_a/obj/apps/obds/src/tests/weim_nor_flash_test.o
                                                  /home/leon/git/swp-report/iMX6_Platform_SDK/output/mx6sdl/obds/evb_rev_a/obj/apps/obds/src/tests/video_dec_adv7180.o
                                                  /home/leon/git/swp-report/iMX6_Platform_SDK/output/mx6sdl/obds/evb_rev_a/obj/apps/obds/src/tests/video_dec_ARD_MBrst_from_cpu_expander.o
                                                  /home/leon/git/swp-report/iMX6_Platform_SDK/output/mx6sdl/obds/evb_rev_a/obj/apps/obds/src/tests/video_dec_ARD_MB_reset_button.o
                                                  /home/leon/git/swp-report/iMX6_Platform_SDK/output/mx6sdl/obds/evb_rev_a/obj/apps/obds/src/tests/touch_screen.o
                                                  /home/leon/git/swp-report/iMX6_Platform_SDK/output/mx6sdl/obds/evb_rev_a/obj/apps/obds/src/tests/snvs_srtc_test.o
                                                  /home/leon/git/swp-report/iMX6_Platform_SDK/output/mx6sdl/obds/evb_rev_a/obj/apps/obds/src/tests/program_mac_address.o
                                                  /home/leon/git/swp-report/iMX6_Platform_SDK/output/mx6sdl/obds/evb_rev_a/obj/apps/obds/src/tests/program_board_id.o
                                                  /home/leon/git/swp-report/iMX6_Platform_SDK/output/mx6sdl/obds/evb_rev_a/obj/apps/obds/src/tests/pmic_mc13892.o
                                                  /home/leon/git/swp-report/iMX6_Platform_SDK/output/mx6sdl/obds/evb_rev_a/obj/apps/obds/src/tests/pmic_max17135.o
                                                  /home/leon/git/swp-report/iMX6_Platform_SDK/output/mx6sdl/obds/evb_rev_a/obj/apps/obds/src/tests/mmcsd_test.o
                                                  /home/leon/git/swp-report/iMX6_Platform_SDK/output/mx6sdl/obds/evb_rev_a/obj/apps/obds/src/tests/imx_spi_nor_test.o
                                                  /home/leon/git/swp-report/iMX6_Platform_SDK/output/mx6sdl/obds/evb_rev_a/obj/apps/obds/src/tests/i2c_device_zigbee_mc1323.o
                                                  /home/leon/git/swp-report/iMX6_Platform_SDK/output/mx6sdl/obds/evb_rev_a/obj/apps/obds/src/tests/i2c_device_id_check_p1003_tsc.o
                                                  /home/leon/git/swp-report/iMX6_Platform_SDK/output/mx6sdl/obds/evb_rev_a/obj/apps/obds/src/tests/i2c_device_id_check_mma8451.o
                                                  /home/leon/git/swp-report/iMX6_Platform_SDK/output/mx6sdl/obds/evb_rev_a/obj/apps/obds/src/tests/i2c_device_id_check_mma8450.o
                                                  /home/leon/git/swp-report/iMX6_Platform_SDK/output/mx6sdl/obds/evb_rev_a/obj/apps/obds/src/tests/i2c_device_digital_compass_mag3112.o
                                                  /home/leon/git/swp-report/iMX6_Platform_SDK/output/mx6sdl/obds/evb_rev_a/obj/apps/obds/src/tests/i2c_device_digital_compass_mag3110.o
                                                  /home/leon/git/swp-report/iMX6_Platform_SDK/output/mx6sdl/obds/evb_rev_a/obj/apps/obds/src/tests/i2c_check_light_sensor_isl29023.o
                                                  /home/leon/git/swp-report/iMX6_Platform_SDK/output/mx6sdl/obds/evb_rev_a/obj/apps/obds/src/tests/gpio_led.o
                                                  /home/leon/git/swp-report/iMX6_Platform_SDK/output/mx6sdl/obds/evb_rev_a/obj/apps/obds/src/tests/flexcan_test.o
                                                  /home/leon/git/swp-report/iMX6_Platform_SDK/output/mx6sdl/obds/evb_rev_a/obj/apps/obds/src/tests/enet_mx6dldq_test.o
                                                  /home/leon/git/swp-report/iMX6_Platform_SDK/output/mx6sdl/obds/evb_rev_a/obj/apps/obds/src/tests/audio_ssi_test.o
                                                  /home/leon/git/swp-report/iMX6_Platform_SDK/output/mx6sdl/obds/evb_rev_a/obj/apps/obds/src/tests/audio_esai_test.o
                                                  /home/leon/git/swp-report/iMX6_Platform_SDK/output/mx6sdl/obds/evb_rev_a/obj/apps/obds/src/tests/android_buttons_test.o
                                                  /home/leon/git/swp-report/iMX6_Platform_SDK/output/mx6sdl/obds/evb_rev_a/obj/apps/obds/src/obds.o
menu_present                                      /home/leon/git/swp-report/iMX6_Platform_SDK/output/mx6sdl/lib/libsdk.a(menu.o)
                                                  /home/leon/git/swp-report/iMX6_Platform_SDK/output/mx6sdl/obds/evb_rev_a/obj/apps/obds/src/obds.o
menu_print_menuitem                               /home/leon/git/swp-report/iMX6_Platform_SDK/output/mx6sdl/lib/libsdk.a(menu.o)
menuitem_cmd_exitmenu                             /home/leon/git/swp-report/iMX6_Platform_SDK/output/mx6sdl/lib/libsdk.a(menu.o)
                                                  /home/leon/git/swp-report/iMX6_Platform_SDK/output/mx6sdl/obds/evb_rev_a/obj/apps/obds/src/obds.o
menuitem_cmd_showmenu                             /home/leon/git/swp-report/iMX6_Platform_SDK/output/mx6sdl/lib/libsdk.a(menu.o)
                                                  /home/leon/git/swp-report/iMX6_Platform_SDK/output/mx6sdl/obds/evb_rev_a/obj/apps/obds/src/obds.o
mipi_backlight_en                                 /home/leon/git/swp-report/iMX6_Platform_SDK/output/mx6sdl/lib/libboard_evb_rev_a.a(board_mipi.o)
                                                  /home/leon/git/swp-report/iMX6_Platform_SDK/output/mx6sdl/lib/libsdk.a(ips_disp_panel.o)
mipi_cam_power_on                                 /home/leon/git/swp-report/iMX6_Platform_SDK/output/mx6sdl/lib/libboard_evb_rev_a.a(board_mipi.o)
mipi_clock_set                                    /home/leon/git/swp-report/iMX6_Platform_SDK/output/mx6sdl/lib/libboard_evb_rev_a.a(board_mipi.o)
                                                  /home/leon/git/swp-report/iMX6_Platform_SDK/output/mx6sdl/lib/libsdk.a(ips_disp_panel.o)
mipi_csi2_clock_set                               /home/leon/git/swp-report/iMX6_Platform_SDK/output/mx6sdl/lib/libboard_evb_rev_a.a(board_mipi.o)
mipi_csi_iomux_config                             /home/leon/git/swp-report/iMX6_Platform_SDK/output/mx6sdl/lib/libboard_evb_rev_a.a(iomux_config.o)
mipi_display_reset                                /home/leon/git/swp-report/iMX6_Platform_SDK/output/mx6sdl/lib/libboard_evb_rev_a.a(board_mipi.o)
                                                  /home/leon/git/swp-report/iMX6_Platform_SDK/output/mx6sdl/lib/libsdk.a(ips_disp_panel.o)
mipi_dsi_iomux_config                             /home/leon/git/swp-report/iMX6_Platform_SDK/output/mx6sdl/lib/libboard_evb_rev_a.a(iomux_config.o)
mipi_hsi_iomux_config                             /home/leon/git/swp-report/iMX6_Platform_SDK/output/mx6sdl/lib/libboard_evb_rev_a.a(iomux_config.o)
mlb_io_config                                     /home/leon/git/swp-report/iMX6_Platform_SDK/output/mx6sdl/obds/evb_rev_a/obj/apps/obds/src/tests/mlb_os81050.o
mlb_iomux_config                                  /home/leon/git/swp-report/iMX6_Platform_SDK/output/mx6sdl/lib/libboard_evb_rev_a.a(mlb_iomux_config.o)
                                                  /home/leon/git/swp-report/iMX6_Platform_SDK/output/mx6sdl/lib/libboard_evb_rev_a.a(iomux_config.o)
mlb_os81050_test_enable                           /home/leon/git/swp-report/iMX6_Platform_SDK/output/mx6sdl/obds/evb_rev_a/obj/apps/obds/src/tests/mlb_os81050.o
mma8450_get_accel                                 /home/leon/git/swp-report/iMX6_Platform_SDK/output/mx6sdl/obds/evb_rev_a/obj/apps/obds/src/tests/i2c_device_id_check_mma8450.o
mma8450_set_config                                /home/leon/git/swp-report/iMX6_Platform_SDK/output/mx6sdl/obds/evb_rev_a/obj/apps/obds/src/tests/i2c_device_id_check_mma8450.o
mma8450_show_accel                                /home/leon/git/swp-report/iMX6_Platform_SDK/output/mx6sdl/obds/evb_rev_a/obj/apps/obds/src/tests/i2c_device_id_check_mma8450.o
mma8451_get_accel                                 /home/leon/git/swp-report/iMX6_Platform_SDK/output/mx6sdl/obds/evb_rev_a/obj/apps/obds/src/tests/i2c_device_id_check_mma8451.o
mma8451_set_config                                /home/leon/git/swp-report/iMX6_Platform_SDK/output/mx6sdl/obds/evb_rev_a/obj/apps/obds/src/tests/i2c_device_id_check_mma8451.o
mma8451_show_accel                                /home/leon/git/swp-report/iMX6_Platform_SDK/output/mx6sdl/obds/evb_rev_a/obj/apps/obds/src/tests/i2c_device_id_check_mma8451.o
mmc_init                                          /home/leon/git/swp-report/iMX6_Platform_SDK/output/mx6sdl/lib/libsdk.a(usdhc_mmc.o)
                                                  /home/leon/git/swp-report/iMX6_Platform_SDK/output/mx6sdl/lib/libsdk.a(usdhc.o)
mmc_sd_test                                       /home/leon/git/swp-report/iMX6_Platform_SDK/output/mx6sdl/obds/evb_rev_a/obj/sdk/drivers/usdhc/test/usdhc_test.o
                                                  /home/leon/git/swp-report/iMX6_Platform_SDK/output/mx6sdl/obds/evb_rev_a/obj/apps/obds/src/tests/mmcsd_test.o
mmc_set_boot_ack                                  /home/leon/git/swp-report/iMX6_Platform_SDK/output/mx6sdl/lib/libsdk.a(usdhc_mmc.o)
                                                  /home/leon/git/swp-report/iMX6_Platform_SDK/output/mx6sdl/obds/evb_rev_a/obj/sdk/drivers/usdhc/test/usdhc_test.o
mmc_set_boot_bus_width                            /home/leon/git/swp-report/iMX6_Platform_SDK/output/mx6sdl/lib/libsdk.a(usdhc_mmc.o)
                                                  /home/leon/git/swp-report/iMX6_Platform_SDK/output/mx6sdl/obds/evb_rev_a/obj/sdk/drivers/usdhc/test/usdhc_test.o
mmc_set_boot_partition                            /home/leon/git/swp-report/iMX6_Platform_SDK/output/mx6sdl/lib/libsdk.a(usdhc_mmc.o)
                                                  /home/leon/git/swp-report/iMX6_Platform_SDK/output/mx6sdl/obds/evb_rev_a/obj/sdk/drivers/usdhc/test/usdhc_test.o
mmc_voltage_validation                            /home/leon/git/swp-report/iMX6_Platform_SDK/output/mx6sdl/lib/libsdk.a(usdhc_mmc.o)
                                                  /home/leon/git/swp-report/iMX6_Platform_SDK/output/mx6sdl/lib/libsdk.a(usdhc.o)
mmcsd_bus_width                                   /home/leon/git/swp-report/iMX6_Platform_SDK/output/mx6sdl/obds/evb_rev_a/obj/apps/obds/src/tests/mmcsd_test.o
mmcsd_test                                        /home/leon/git/swp-report/iMX6_Platform_SDK/output/mx6sdl/obds/evb_rev_a/obj/apps/obds/src/tests/mmcsd_test.o
mmdc_iomux_config                                 /home/leon/git/swp-report/iMX6_Platform_SDK/output/mx6sdl/lib/libboard_evb_rev_a.a(mmdc_iomux_config.o)
                                                  /home/leon/git/swp-report/iMX6_Platform_SDK/output/mx6sdl/lib/libboard_evb_rev_a.a(iomux_config.o)
mmu_disable                                       /home/leon/git/swp-report/iMX6_Platform_SDK/output/mx6sdl/lib/libsdk.a(mmu.o)
mmu_enable                                        /home/leon/git/swp-report/iMX6_Platform_SDK/output/mx6sdl/lib/libsdk.a(mmu.o)
mmu_init                                          /home/leon/git/swp-report/iMX6_Platform_SDK/output/mx6sdl/lib/libsdk.a(mmu.o)
                                                  /home/leon/git/swp-report/iMX6_Platform_SDK/output/mx6sdl/obds/evb_rev_a/obj/apps/common/platform_init.o
mmu_map_l1_range                                  /home/leon/git/swp-report/iMX6_Platform_SDK/output/mx6sdl/lib/libsdk.a(mmu.o)
                                                  /home/leon/git/swp-report/iMX6_Platform_SDK/output/mx6sdl/obds/evb_rev_a/obj/apps/common/platform_init.o
mmu_virtual_to_physical                           /home/leon/git/swp-report/iMX6_Platform_SDK/output/mx6sdl/lib/libsdk.a(mmu.o)
mybkpt                                            /home/leon/git/swp-report/iMX6_Platform_SDK/output/mx6sdl/lib/libsdk.a(system_util.o)
need_csc                                          /home/leon/git/swp-report/iMX6_Platform_SDK/output/mx6sdl/lib/libsdk.a(ipu_common.o)
num_of_panels                                     /home/leon/git/swp-report/iMX6_Platform_SDK/output/mx6sdl/lib/libsdk.a(ips_disp_panel.o)
obds_tests                                        /home/leon/git/swp-report/iMX6_Platform_SDK/output/mx6sdl/obds/evb_rev_a/obj/apps/obds/src/obds.o
ocotp_fuse_blow_row                               /home/leon/git/swp-report/iMX6_Platform_SDK/output/mx6sdl/lib/libsdk.a(ocotp.o)
                                                  /home/leon/git/swp-report/iMX6_Platform_SDK/output/mx6sdl/obds/evb_rev_a/obj/apps/obds/src/tests/program_mac_address.o
                                                  /home/leon/git/swp-report/iMX6_Platform_SDK/output/mx6sdl/obds/evb_rev_a/obj/apps/obds/src/tests/program_board_id.o
ocotp_reload_otp_shadow_registers                 /home/leon/git/swp-report/iMX6_Platform_SDK/output/mx6sdl/lib/libsdk.a(ocotp.o)
                                                  /home/leon/git/swp-report/iMX6_Platform_SDK/output/mx6sdl/obds/evb_rev_a/obj/apps/obds/src/tests/program_mac_address.o
                                                  /home/leon/git/swp-report/iMX6_Platform_SDK/output/mx6sdl/obds/evb_rev_a/obj/apps/obds/src/tests/program_board_id.o
ocotp_sense_fuse                                  /home/leon/git/swp-report/iMX6_Platform_SDK/output/mx6sdl/lib/libsdk.a(ocotp.o)
                                                  /home/leon/git/swp-report/iMX6_Platform_SDK/output/mx6sdl/obds/evb_rev_a/obj/apps/obds/src/tests/program_mac_address.o
                                                  /home/leon/git/swp-report/iMX6_Platform_SDK/output/mx6sdl/obds/evb_rev_a/obj/apps/obds/src/tests/program_board_id.o
os81050_get_message                               /home/leon/git/swp-report/iMX6_Platform_SDK/output/mx6sdl/obds/evb_rev_a/obj/apps/obds/src/tests/mlb_os81050.o
os81050_i2c_init                                  /home/leon/git/swp-report/iMX6_Platform_SDK/output/mx6sdl/obds/evb_rev_a/obj/apps/obds/src/tests/mlb_os81050.o
os81050_read_status                               /home/leon/git/swp-report/iMX6_Platform_SDK/output/mx6sdl/obds/evb_rev_a/obj/apps/obds/src/tests/mlb_os81050.o
os81050_test_main                                 /home/leon/git/swp-report/iMX6_Platform_SDK/output/mx6sdl/obds/evb_rev_a/obj/apps/obds/src/tests/mlb_os81050.o
ov5642_strobe_on                                  /home/leon/git/swp-report/iMX6_Platform_SDK/output/mx6sdl/lib/libsdk.a(smd_sensor.o)
p1003_get_touch                                   /home/leon/git/swp-report/iMX6_Platform_SDK/output/mx6sdl/obds/evb_rev_a/obj/apps/obds/src/tests/i2c_device_id_check_p1003_tsc.o
p1003_show_touch                                  /home/leon/git/swp-report/iMX6_Platform_SDK/output/mx6sdl/obds/evb_rev_a/obj/apps/obds/src/tests/i2c_device_id_check_p1003_tsc.o
p1003_version_reg_read                            /home/leon/git/swp-report/iMX6_Platform_SDK/output/mx6sdl/obds/evb_rev_a/obj/apps/obds/src/tests/i2c_device_id_check_p1003_tsc.o
p1003_version_reg_write                           /home/leon/git/swp-report/iMX6_Platform_SDK/output/mx6sdl/obds/evb_rev_a/obj/apps/obds/src/tests/i2c_device_id_check_p1003_tsc.o
panel_name                                        /home/leon/git/swp-report/iMX6_Platform_SDK/output/mx6sdl/obds/evb_rev_a/obj/apps/obds/src/tests/display_test.o
pcie_iomux_config                                 /home/leon/git/swp-report/iMX6_Platform_SDK/output/mx6sdl/lib/libboard_evb_rev_a.a(iomux_config.o)
pcm_music                                         /home/leon/git/swp-report/iMX6_Platform_SDK/output/mx6sdl/obds/evb_rev_a/obj/apps/obds/src/tests/audio_ssi_test.o
                                                  /home/leon/git/swp-report/iMX6_Platform_SDK/output/mx6sdl/obds/evb_rev_a/obj/apps/obds/src/tests/audio_esai_test.o
pcm_para                                          /home/leon/git/swp-report/iMX6_Platform_SDK/output/mx6sdl/obds/evb_rev_a/obj/apps/obds/src/tests/audio_ssi_test.o
pcm_record                                        /home/leon/git/swp-report/iMX6_Platform_SDK/output/mx6sdl/obds/evb_rev_a/obj/apps/obds/src/tests/audio_ssi_test.o
                                                  /home/leon/git/swp-report/iMX6_Platform_SDK/output/mx6sdl/obds/evb_rev_a/obj/apps/obds/src/tests/audio_esai_test.o
pen_status                                        /home/leon/git/swp-report/iMX6_Platform_SDK/output/mx6sdl/obds/evb_rev_a/obj/apps/obds/src/tests/touch_screen.o
pf0100_enable_vgen1_1v2                           /home/leon/git/swp-report/iMX6_Platform_SDK/output/mx6sdl/obds/evb_rev_a/obj/sdk/common/pmic/pfuse/pf0100.o
pf0100_enable_vgen2_1v5                           /home/leon/git/swp-report/iMX6_Platform_SDK/output/mx6sdl/obds/evb_rev_a/obj/sdk/common/pmic/pfuse/pf0100.o
pf0100_enable_vgen3_1v8                           /home/leon/git/swp-report/iMX6_Platform_SDK/output/mx6sdl/obds/evb_rev_a/obj/sdk/common/pmic/pfuse/pf0100.o
pf0100_enable_vgen4_1v8                           /home/leon/git/swp-report/iMX6_Platform_SDK/output/mx6sdl/obds/evb_rev_a/obj/sdk/common/pmic/pfuse/pf0100.o
pf0100_enable_vgen4_2v5                           /home/leon/git/swp-report/iMX6_Platform_SDK/output/mx6sdl/obds/evb_rev_a/obj/sdk/common/pmic/pfuse/pf0100.o
pf0100_enable_vgen6_2v8                           /home/leon/git/swp-report/iMX6_Platform_SDK/output/mx6sdl/obds/evb_rev_a/obj/sdk/common/pmic/pfuse/pf0100.o
pf0100_i2c_device_id_check                        /home/leon/git/swp-report/iMX6_Platform_SDK/output/mx6sdl/obds/evb_rev_a/obj/sdk/common/pmic/pfuse/pf0100.o
pf0100_reg_read                                   /home/leon/git/swp-report/iMX6_Platform_SDK/output/mx6sdl/obds/evb_rev_a/obj/sdk/common/pmic/pfuse/pf0100.o
pf0100_reg_write                                  /home/leon/git/swp-report/iMX6_Platform_SDK/output/mx6sdl/obds/evb_rev_a/obj/sdk/common/pmic/pfuse/pf0100.o
platform_init                                     /home/leon/git/swp-report/iMX6_Platform_SDK/output/mx6sdl/obds/evb_rev_a/obj/apps/common/platform_init.o
                                                  /home/leon/git/swp-report/iMX6_Platform_SDK/output/mx6sdl/obds/evb_rev_a/obj/apps/obds/src/obds.o
pmic_da9053_test                                  /home/leon/git/swp-report/iMX6_Platform_SDK/output/mx6sdl/obds/evb_rev_a/obj/apps/obds/src/tests/pmic_da9053.o
pmic_lt3589_test                                  /home/leon/git/swp-report/iMX6_Platform_SDK/output/mx6sdl/obds/evb_rev_a/obj/apps/obds/src/tests/pmic_lt3589.o
pmic_mc13892_reg                                  /home/leon/git/swp-report/iMX6_Platform_SDK/output/mx6sdl/obds/evb_rev_a/obj/apps/obds/src/tests/pmic_mc13892.o
pmic_mc13892_test                                 /home/leon/git/swp-report/iMX6_Platform_SDK/output/mx6sdl/obds/evb_rev_a/obj/apps/obds/src/tests/pmic_mc13892.o
pmic_open_vgen1                                   /home/leon/git/swp-report/iMX6_Platform_SDK/output/mx6sdl/obds/evb_rev_a/obj/apps/obds/src/tests/pmic_mc13892.o
pmic_open_vsd                                     /home/leon/git/swp-report/iMX6_Platform_SDK/output/mx6sdl/obds/evb_rev_a/obj/apps/obds/src/tests/pmic_mc13892.o
pmic_open_vusb                                    /home/leon/git/swp-report/iMX6_Platform_SDK/output/mx6sdl/obds/evb_rev_a/obj/apps/obds/src/tests/pmic_mc13892.o
pmu_iomux_config                                  /home/leon/git/swp-report/iMX6_Platform_SDK/output/mx6sdl/lib/libboard_evb_rev_a.a(iomux_config.o)
preamble_filter_set                               /home/leon/git/swp-report/iMX6_Platform_SDK/output/mx6sdl/lib/libsdk.a(hdmi_tx.o)
prefetch_abort_handler                            /home/leon/git/swp-report/iMX6_Platform_SDK/output/mx6sdl/lib/libsdk.a(arm_abort.o)
                                                  /home/leon/git/swp-report/iMX6_Platform_SDK/output/mx6sdl/lib/libsdk.a(vectors.o)
print_test_failed                                 /home/leon/git/swp-report/iMX6_Platform_SDK/output/mx6sdl/obds/evb_rev_a/obj/apps/obds/src/obds.o
print_test_not_implemented                        /home/leon/git/swp-report/iMX6_Platform_SDK/output/mx6sdl/obds/evb_rev_a/obj/apps/obds/src/obds.o
print_test_passed                                 /home/leon/git/swp-report/iMX6_Platform_SDK/output/mx6sdl/obds/evb_rev_a/obj/apps/obds/src/obds.o
print_test_skipped                                /home/leon/git/swp-report/iMX6_Platform_SDK/output/mx6sdl/obds/evb_rev_a/obj/apps/obds/src/obds.o
print_version                                     /home/leon/git/swp-report/iMX6_Platform_SDK/output/mx6sdl/obds/evb_rev_a/obj/apps/common/print_version.o
                                                  /home/leon/git/swp-report/iMX6_Platform_SDK/output/mx6sdl/obds/evb_rev_a/obj/apps/obds/src/obds.o
printf                                            /home/leon/riotboard/arm-2012.09/bin/../arm-none-eabi/lib//libc.a(lib_a-printf.o)
                                                  /home/leon/git/swp-report/iMX6_Platform_SDK/output/mx6sdl/lib/libboard_evb_rev_a.a(board_hdmi.o)
                                                  /home/leon/git/swp-report/iMX6_Platform_SDK/output/mx6sdl/lib/libboard_evb_rev_a.a(board_display.o)
                                                  /home/leon/git/swp-report/iMX6_Platform_SDK/output/mx6sdl/lib/libsdk.a(abort_handler.o)
                                                  /home/leon/git/swp-report/iMX6_Platform_SDK/output/mx6sdl/lib/libsdk.a(ipu_ic.o)
                                                  /home/leon/git/swp-report/iMX6_Platform_SDK/output/mx6sdl/lib/libsdk.a(hdmi_common.o)
                                                  /home/leon/git/swp-report/iMX6_Platform_SDK/output/mx6sdl/lib/libsdk.a(adv7180.o)
                                                  /home/leon/git/swp-report/iMX6_Platform_SDK/output/mx6sdl/lib/libsdk.a(usdhc_sd.o)
                                                  /home/leon/git/swp-report/iMX6_Platform_SDK/output/mx6sdl/lib/libsdk.a(usdhc_mmc.o)
                                                  /home/leon/git/swp-report/iMX6_Platform_SDK/output/mx6sdl/lib/libsdk.a(usdhc_host.o)
                                                  /home/leon/git/swp-report/iMX6_Platform_SDK/output/mx6sdl/lib/libsdk.a(usdhc.o)
                                                  /home/leon/git/swp-report/iMX6_Platform_SDK/output/mx6sdl/lib/libsdk.a(usbh_drv.o)
                                                  /home/leon/git/swp-report/iMX6_Platform_SDK/output/mx6sdl/lib/libsdk.a(usb_common.o)
                                                  /home/leon/git/swp-report/iMX6_Platform_SDK/output/mx6sdl/lib/libsdk.a(ecspi.o)
                                                  /home/leon/git/swp-report/iMX6_Platform_SDK/output/mx6sdl/lib/libsdk.a(ldb.o)
                                                  /home/leon/git/swp-report/iMX6_Platform_SDK/output/mx6sdl/lib/libsdk.a(ipu_idmac.o)
                                                  /home/leon/git/swp-report/iMX6_Platform_SDK/output/mx6sdl/lib/libsdk.a(ipu_di.o)
                                                  /home/leon/git/swp-report/iMX6_Platform_SDK/output/mx6sdl/lib/libsdk.a(ipu_dc.o)
                                                  /home/leon/git/swp-report/iMX6_Platform_SDK/output/mx6sdl/lib/libsdk.a(ipu_csi.o)
                                                  /home/leon/git/swp-report/iMX6_Platform_SDK/output/mx6sdl/lib/libsdk.a(ipu_common.o)
                                                  /home/leon/git/swp-report/iMX6_Platform_SDK/output/mx6sdl/lib/libsdk.a(ips_disp_panel.o)
                                                  /home/leon/git/swp-report/iMX6_Platform_SDK/output/mx6sdl/lib/libsdk.a(hdmi_tx_phy.o)
                                                  /home/leon/git/swp-report/iMX6_Platform_SDK/output/mx6sdl/lib/libsdk.a(hdmi_tx_audio.o)
                                                  /home/leon/git/swp-report/iMX6_Platform_SDK/output/mx6sdl/lib/libsdk.a(hdmi_tx.o)
                                                  /home/leon/git/swp-report/iMX6_Platform_SDK/output/mx6sdl/lib/libsdk.a(gpio.o)
                                                  /home/leon/git/swp-report/iMX6_Platform_SDK/output/mx6sdl/lib/libsdk.a(mxc_epdc.o)
                                                  /home/leon/git/swp-report/iMX6_Platform_SDK/output/mx6sdl/lib/libsdk.a(enet_drv.o)
                                                  /home/leon/git/swp-report/iMX6_Platform_SDK/output/mx6sdl/lib/libsdk.a(smd_sensor.o)
                                                  /home/leon/git/swp-report/iMX6_Platform_SDK/output/mx6sdl/lib/libsdk.a(board_id.o)
                                                  /home/leon/git/swp-report/iMX6_Platform_SDK/output/mx6sdl/lib/libsdk.a(wm8962.o)
                                                  /home/leon/git/swp-report/iMX6_Platform_SDK/output/mx6sdl/lib/libsdk.a(wm8958_dac.o)
                                                  /home/leon/git/swp-report/iMX6_Platform_SDK/output/mx6sdl/lib/libsdk.a(sgtl5000.o)
                                                  /home/leon/git/swp-report/iMX6_Platform_SDK/output/mx6sdl/lib/libsdk.a(imx_spdif.o)
                                                  /home/leon/git/swp-report/iMX6_Platform_SDK/output/mx6sdl/lib/libsdk.a(imx_esai.o)
                                                  /home/leon/git/swp-report/iMX6_Platform_SDK/output/mx6sdl/lib/libsdk.a(imx-ssi.o)
                                                  /home/leon/git/swp-report/iMX6_Platform_SDK/output/mx6sdl/lib/libsdk.a(cs42888.o)
                                                  /home/leon/git/swp-report/iMX6_Platform_SDK/output/mx6sdl/lib/libsdk.a(text_color.o)
                                                  /home/leon/git/swp-report/iMX6_Platform_SDK/output/mx6sdl/lib/libsdk.a(system_util.o)
                                                  /home/leon/git/swp-report/iMX6_Platform_SDK/output/mx6sdl/lib/libsdk.a(menu.o)
                                                  /home/leon/git/swp-report/iMX6_Platform_SDK/output/mx6sdl/lib/libsdk.a(interrupt.o)
                                                  /home/leon/git/swp-report/iMX6_Platform_SDK/output/mx6sdl/obds/evb_rev_a/obj/sdk/drivers/usdhc/test/usdhc_test.o
                                                  /home/leon/git/swp-report/iMX6_Platform_SDK/output/mx6sdl/obds/evb_rev_a/obj/sdk/drivers/usb/test/usb0_host_testmodes_test.o
                                                  /home/leon/git/swp-report/iMX6_Platform_SDK/output/mx6sdl/obds/evb_rev_a/obj/sdk/drivers/usb/test/usb0_host_test.o
                                                  /home/leon/git/swp-report/iMX6_Platform_SDK/output/mx6sdl/obds/evb_rev_a/obj/sdk/drivers/uart/test/uart_test.o
                                                  /home/leon/git/swp-report/iMX6_Platform_SDK/output/mx6sdl/obds/evb_rev_a/obj/sdk/drivers/spi/test/spi_nor_numonyx.o
                                                  /home/leon/git/swp-report/iMX6_Platform_SDK/output/mx6sdl/obds/evb_rev_a/obj/sdk/drivers/spi/test/imx_spi_nor_atmel.o
                                                  /home/leon/git/swp-report/iMX6_Platform_SDK/output/mx6sdl/obds/evb_rev_a/obj/sdk/drivers/ipu/test/ips_display.o
                                                  /home/leon/git/swp-report/iMX6_Platform_SDK/output/mx6sdl/obds/evb_rev_a/obj/sdk/drivers/hdmi/test/init_dma_data.o
                                                  /home/leon/git/swp-report/iMX6_Platform_SDK/output/mx6sdl/obds/evb_rev_a/obj/sdk/drivers/hdmi/test/hdmi_test.o
                                                  /home/leon/git/swp-report/iMX6_Platform_SDK/output/mx6sdl/obds/evb_rev_a/obj/sdk/drivers/epdc/test/epdc_test.o
                                                  /home/leon/git/swp-report/iMX6_Platform_SDK/output/mx6sdl/obds/evb_rev_a/obj/sdk/drivers/camera/test/sensor_capture.o
                                                  /home/leon/git/swp-report/iMX6_Platform_SDK/output/mx6sdl/obds/evb_rev_a/obj/sdk/drivers/camera/test/csi_test_mode.o
                                                  /home/leon/git/swp-report/iMX6_Platform_SDK/output/mx6sdl/obds/evb_rev_a/obj/sdk/drivers/camera/test/camera_test.o
                                                  /home/leon/git/swp-report/iMX6_Platform_SDK/output/mx6sdl/obds/evb_rev_a/obj/sdk/drivers/camera/test/adv7180_capture.o
                                                  /home/leon/git/swp-report/iMX6_Platform_SDK/output/mx6sdl/obds/evb_rev_a/obj/sdk/drivers/audio/src/snd_card.o
                                                  /home/leon/git/swp-report/iMX6_Platform_SDK/output/mx6sdl/obds/evb_rev_a/obj/sdk/common/pmic/pfuse/pf0100.o
                                                  /home/leon/git/swp-report/iMX6_Platform_SDK/output/mx6sdl/obds/evb_rev_a/obj/sdk/common/ioexpander/test/max7310_test.o
                                                  /home/leon/git/swp-report/iMX6_Platform_SDK/output/mx6sdl/obds/evb_rev_a/obj/apps/obds/src/tests/weim_nor_flash_test.o
                                                  /home/leon/git/swp-report/iMX6_Platform_SDK/output/mx6sdl/obds/evb_rev_a/obj/apps/obds/src/tests/video_dec_adv7180.o
                                                  /home/leon/git/swp-report/iMX6_Platform_SDK/output/mx6sdl/obds/evb_rev_a/obj/apps/obds/src/tests/video_dec_ARD_MBrst_from_cpu_expander.o
                                                  /home/leon/git/swp-report/iMX6_Platform_SDK/output/mx6sdl/obds/evb_rev_a/obj/apps/obds/src/tests/video_dec_ARD_MB_reset_button.o
                                                  /home/leon/git/swp-report/iMX6_Platform_SDK/output/mx6sdl/obds/evb_rev_a/obj/apps/obds/src/tests/usb_tests_obds.o
                                                  /home/leon/git/swp-report/iMX6_Platform_SDK/output/mx6sdl/obds/evb_rev_a/obj/apps/obds/src/tests/touch_screen_max11801.o
                                                  /home/leon/git/swp-report/iMX6_Platform_SDK/output/mx6sdl/obds/evb_rev_a/obj/apps/obds/src/tests/touch_screen.o
                                                  /home/leon/git/swp-report/iMX6_Platform_SDK/output/mx6sdl/obds/evb_rev_a/obj/apps/obds/src/tests/snvs_srtc_test.o
                                                  /home/leon/git/swp-report/iMX6_Platform_SDK/output/mx6sdl/obds/evb_rev_a/obj/apps/obds/src/tests/program_mac_address.o
                                                  /home/leon/git/swp-report/iMX6_Platform_SDK/output/mx6sdl/obds/evb_rev_a/obj/apps/obds/src/tests/program_board_id.o
                                                  /home/leon/git/swp-report/iMX6_Platform_SDK/output/mx6sdl/obds/evb_rev_a/obj/apps/obds/src/tests/pmic_mc13892.o
                                                  /home/leon/git/swp-report/iMX6_Platform_SDK/output/mx6sdl/obds/evb_rev_a/obj/apps/obds/src/tests/pmic_max17135.o
                                                  /home/leon/git/swp-report/iMX6_Platform_SDK/output/mx6sdl/obds/evb_rev_a/obj/apps/obds/src/tests/pmic_lt3589.o
                                                  /home/leon/git/swp-report/iMX6_Platform_SDK/output/mx6sdl/obds/evb_rev_a/obj/apps/obds/src/tests/pmic_da9053.o
                                                  /home/leon/git/swp-report/iMX6_Platform_SDK/output/mx6sdl/obds/evb_rev_a/obj/apps/obds/src/tests/mmcsd_test.o
                                                  /home/leon/git/swp-report/iMX6_Platform_SDK/output/mx6sdl/obds/evb_rev_a/obj/apps/obds/src/tests/mlb_os81050.o
                                                  /home/leon/git/swp-report/iMX6_Platform_SDK/output/mx6sdl/obds/evb_rev_a/obj/apps/obds/src/tests/imx_spi_nor_test.o
                                                  /home/leon/git/swp-report/iMX6_Platform_SDK/output/mx6sdl/obds/evb_rev_a/obj/apps/obds/src/tests/i2c_eeprom_at24cxx_test.o
                                                  /home/leon/git/swp-report/iMX6_Platform_SDK/output/mx6sdl/obds/evb_rev_a/obj/apps/obds/src/tests/i2c_device_zigbee_mc1323.o
                                                  /home/leon/git/swp-report/iMX6_Platform_SDK/output/mx6sdl/obds/evb_rev_a/obj/apps/obds/src/tests/i2c_device_temp_sensor_emc1046.o
                                                  /home/leon/git/swp-report/iMX6_Platform_SDK/output/mx6sdl/obds/evb_rev_a/obj/apps/obds/src/tests/i2c_device_id_check_p1003_tsc.o
                                                  /home/leon/git/swp-report/iMX6_Platform_SDK/output/mx6sdl/obds/evb_rev_a/obj/apps/obds/src/tests/i2c_device_id_check_mma8451.o
                                                  /home/leon/git/swp-report/iMX6_Platform_SDK/output/mx6sdl/obds/evb_rev_a/obj/apps/obds/src/tests/i2c_device_id_check_mma8450.o
                                                  /home/leon/git/swp-report/iMX6_Platform_SDK/output/mx6sdl/obds/evb_rev_a/obj/apps/obds/src/tests/i2c_device_digital_compass_mag3112.o
                                                  /home/leon/git/swp-report/iMX6_Platform_SDK/output/mx6sdl/obds/evb_rev_a/obj/apps/obds/src/tests/i2c_device_digital_compass_mag3110.o
                                                  /home/leon/git/swp-report/iMX6_Platform_SDK/output/mx6sdl/obds/evb_rev_a/obj/apps/obds/src/tests/i2c_device_barometer_ppl3115.o
                                                  /home/leon/git/swp-report/iMX6_Platform_SDK/output/mx6sdl/obds/evb_rev_a/obj/apps/obds/src/tests/i2c_check_light_sensor_isl29023.o
                                                  /home/leon/git/swp-report/iMX6_Platform_SDK/output/mx6sdl/obds/evb_rev_a/obj/apps/obds/src/tests/gps_test.o
                                                  /home/leon/git/swp-report/iMX6_Platform_SDK/output/mx6sdl/obds/evb_rev_a/obj/apps/obds/src/tests/gpio_led.o
                                                  /home/leon/git/swp-report/iMX6_Platform_SDK/output/mx6sdl/obds/evb_rev_a/obj/apps/obds/src/tests/fm_tuner_si476x_test.o
                                                  /home/leon/git/swp-report/iMX6_Platform_SDK/output/mx6sdl/obds/evb_rev_a/obj/apps/obds/src/tests/flexcan_test.o
                                                  /home/leon/git/swp-report/iMX6_Platform_SDK/output/mx6sdl/obds/evb_rev_a/obj/apps/obds/src/tests/enet_mx6dldq_test.o
                                                  /home/leon/git/swp-report/iMX6_Platform_SDK/output/mx6sdl/obds/evb_rev_a/obj/apps/obds/src/tests/display_test.o
                                                  /home/leon/git/swp-report/iMX6_Platform_SDK/output/mx6sdl/obds/evb_rev_a/obj/apps/obds/src/tests/deserializer_ds90ur124.o
                                                  /home/leon/git/swp-report/iMX6_Platform_SDK/output/mx6sdl/obds/evb_rev_a/obj/apps/obds/src/tests/audio_ssi_test.o
                                                  /home/leon/git/swp-report/iMX6_Platform_SDK/output/mx6sdl/obds/evb_rev_a/obj/apps/obds/src/tests/audio_esai_test.o
                                                  /home/leon/git/swp-report/iMX6_Platform_SDK/output/mx6sdl/obds/evb_rev_a/obj/apps/obds/src/tests/android_buttons_test.o
                                                  /home/leon/git/swp-report/iMX6_Platform_SDK/output/mx6sdl/obds/evb_rev_a/obj/apps/obds/src/obds_utils.o
                                                  /home/leon/git/swp-report/iMX6_Platform_SDK/output/mx6sdl/obds/evb_rev_a/obj/apps/obds/src/obds.o
                                                  /home/leon/git/swp-report/iMX6_Platform_SDK/output/mx6sdl/obds/evb_rev_a/obj/apps/common/print_version.o
                                                  /home/leon/git/swp-report/iMX6_Platform_SDK/output/mx6sdl/obds/evb_rev_a/obj/apps/common/print_clock_info.o
printf_color                                      /home/leon/git/swp-report/iMX6_Platform_SDK/output/mx6sdl/lib/libsdk.a(text_color.o)
                                                  /home/leon/git/swp-report/iMX6_Platform_SDK/output/mx6sdl/lib/libsdk.a(system_util.o)
                                                  /home/leon/git/swp-report/iMX6_Platform_SDK/output/mx6sdl/lib/libsdk.a(menu.o)
                                                  /home/leon/git/swp-report/iMX6_Platform_SDK/output/mx6sdl/obds/evb_rev_a/obj/apps/obds/src/tests/program_mac_address.o
                                                  /home/leon/git/swp-report/iMX6_Platform_SDK/output/mx6sdl/obds/evb_rev_a/obj/apps/obds/src/tests/program_board_id.o
                                                  /home/leon/git/swp-report/iMX6_Platform_SDK/output/mx6sdl/obds/evb_rev_a/obj/apps/obds/src/obds.o
printf_hook                                       /home/leon/git/swp-report/iMX6_Platform_SDK/output/mx6sdl/obds/evb_rev_a/obj/apps/obds/src/obds.o
program_board_id                                  /home/leon/git/swp-report/iMX6_Platform_SDK/output/mx6sdl/obds/evb_rev_a/obj/apps/obds/src/tests/program_board_id.o
program_board_id_fuses                            /home/leon/git/swp-report/iMX6_Platform_SDK/output/mx6sdl/obds/evb_rev_a/obj/apps/obds/src/tests/program_board_id.o
program_mac_address                               /home/leon/git/swp-report/iMX6_Platform_SDK/output/mx6sdl/obds/evb_rev_a/obj/apps/obds/src/tests/program_mac_address.o
program_mac_address_fuses                         /home/leon/git/swp-report/iMX6_Platform_SDK/output/mx6sdl/obds/evb_rev_a/obj/apps/obds/src/tests/program_mac_address.o
prompt_run_test                                   /home/leon/git/swp-report/iMX6_Platform_SDK/output/mx6sdl/obds/evb_rev_a/obj/apps/obds/src/obds.o
                                                  /home/leon/git/swp-report/iMX6_Platform_SDK/output/mx6sdl/obds/evb_rev_a/obj/apps/obds/src/tests/touch_screen.o
                                                  /home/leon/git/swp-report/iMX6_Platform_SDK/output/mx6sdl/obds/evb_rev_a/obj/apps/obds/src/tests/pmic_mc13892.o
                                                  /home/leon/git/swp-report/iMX6_Platform_SDK/output/mx6sdl/obds/evb_rev_a/obj/apps/obds/src/tests/pmic_lt3589.o
                                                  /home/leon/git/swp-report/iMX6_Platform_SDK/output/mx6sdl/obds/evb_rev_a/obj/apps/obds/src/tests/pmic_da9053.o
                                                  /home/leon/git/swp-report/iMX6_Platform_SDK/output/mx6sdl/obds/evb_rev_a/obj/apps/obds/src/tests/i2c_device_zigbee_mc1323.o
putc                                              /home/leon/riotboard/arm-2012.09/bin/../arm-none-eabi/lib//libc.a(lib_a-putc.o)
pwm1_iomux_config                                 /home/leon/git/swp-report/iMX6_Platform_SDK/output/mx6sdl/lib/libboard_evb_rev_a.a(pwm1_iomux_config.o)
                                                  /home/leon/git/swp-report/iMX6_Platform_SDK/output/mx6sdl/lib/libboard_evb_rev_a.a(iomux_config.o)
pwm2_iomux_config                                 /home/leon/git/swp-report/iMX6_Platform_SDK/output/mx6sdl/lib/libboard_evb_rev_a.a(iomux_config.o)
pwm3_iomux_config                                 /home/leon/git/swp-report/iMX6_Platform_SDK/output/mx6sdl/lib/libboard_evb_rev_a.a(iomux_config.o)
pwm4_iomux_config                                 /home/leon/git/swp-report/iMX6_Platform_SDK/output/mx6sdl/lib/libboard_evb_rev_a.a(iomux_config.o)
raise                                             /home/leon/riotboard/arm-2012.09/bin/../arm-none-eabi/lib//libc.a(lib_a-signal.o)
                                                  /home/leon/riotboard/arm-2012.09/bin/../arm-none-eabi/lib//libc.a(lib_a-abort.o)
read_input_string                                 /home/leon/git/swp-report/iMX6_Platform_SDK/output/mx6sdl/lib/libsdk.a(system_util.o)
read_int                                          /home/leon/git/swp-report/iMX6_Platform_SDK/output/mx6sdl/lib/libsdk.a(system_util.o)
read_mac_otp_registers                            /home/leon/git/swp-report/iMX6_Platform_SDK/output/mx6sdl/obds/evb_rev_a/obj/apps/obds/src/tests/program_mac_address.o
read_usdhc_adma_mode                              /home/leon/git/swp-report/iMX6_Platform_SDK/output/mx6sdl/lib/libsdk.a(usdhc.o)
                                                  /home/leon/git/swp-report/iMX6_Platform_SDK/output/mx6sdl/lib/libsdk.a(usdhc_host.o)
read_usdhc_intr_mode                              /home/leon/git/swp-report/iMX6_Platform_SDK/output/mx6sdl/lib/libsdk.a(usdhc.o)
                                                  /home/leon/git/swp-report/iMX6_Platform_SDK/output/mx6sdl/lib/libsdk.a(usdhc_host.o)
                                                  /home/leon/git/swp-report/iMX6_Platform_SDK/output/mx6sdl/obds/evb_rev_a/obj/sdk/drivers/usdhc/test/usdhc_test.o
realloc                                           /home/leon/riotboard/arm-2012.09/bin/../arm-none-eabi/lib//libc.a(lib_a-realloc.o)
                                                  /home/leon/git/swp-report/iMX6_Platform_SDK/output/mx6sdl/lib/libsdk.a(system_util.o)
register_interrupt_routine                        /home/leon/git/swp-report/iMX6_Platform_SDK/output/mx6sdl/lib/libsdk.a(interrupt.o)
                                                  /home/leon/git/swp-report/iMX6_Platform_SDK/output/mx6sdl/lib/libsdk.a(epit.o)
                                                  /home/leon/git/swp-report/iMX6_Platform_SDK/output/mx6sdl/lib/libsdk.a(usdhc.o)
                                                  /home/leon/git/swp-report/iMX6_Platform_SDK/output/mx6sdl/lib/libsdk.a(imx_uart.o)
                                                  /home/leon/git/swp-report/iMX6_Platform_SDK/output/mx6sdl/lib/libsdk.a(ipu_common.o)
                                                  /home/leon/git/swp-report/iMX6_Platform_SDK/output/mx6sdl/lib/libsdk.a(imx_i2c.o)
                                                  /home/leon/git/swp-report/iMX6_Platform_SDK/output/mx6sdl/obds/evb_rev_a/obj/sdk/drivers/hdmi/test/hdmi_test.o
report_test_results                               /home/leon/git/swp-report/iMX6_Platform_SDK/output/mx6sdl/obds/evb_rev_a/obj/apps/obds/src/obds.o
reset_usb_hub                                     /home/leon/git/swp-report/iMX6_Platform_SDK/output/mx6sdl/lib/libboard_evb_rev_a.a(board_usb.o)
run_all_tests                                     /home/leon/git/swp-report/iMX6_Platform_SDK/output/mx6sdl/obds/evb_rev_a/obj/apps/obds/src/obds.o
run_test                                          /home/leon/git/swp-report/iMX6_Platform_SDK/output/mx6sdl/obds/evb_rev_a/obj/apps/obds/src/obds.o
scu_disable_maintenance_broadcast                 /home/leon/git/swp-report/iMX6_Platform_SDK/output/mx6sdl/lib/libsdk.a(cortexA9.o)
scu_enable                                        /home/leon/git/swp-report/iMX6_Platform_SDK/output/mx6sdl/lib/libsdk.a(cortexA9.o)
scu_enable_maintenance_broadcast                  /home/leon/git/swp-report/iMX6_Platform_SDK/output/mx6sdl/lib/libsdk.a(cortexA9.o)
scu_get_cpus_in_smp                               /home/leon/git/swp-report/iMX6_Platform_SDK/output/mx6sdl/lib/libsdk.a(cortexA9.o)
scu_join_smp                                      /home/leon/git/swp-report/iMX6_Platform_SDK/output/mx6sdl/lib/libsdk.a(cortexA9.o)
scu_leave_smp                                     /home/leon/git/swp-report/iMX6_Platform_SDK/output/mx6sdl/lib/libsdk.a(cortexA9.o)
scu_secure_invalidate                             /home/leon/git/swp-report/iMX6_Platform_SDK/output/mx6sdl/lib/libsdk.a(cortexA9.o)
sd_if_cmd_arg                                     /home/leon/git/swp-report/iMX6_Platform_SDK/output/mx6sdl/lib/libsdk.a(usdhc_sd.o)
sd_init                                           /home/leon/git/swp-report/iMX6_Platform_SDK/output/mx6sdl/lib/libsdk.a(usdhc_sd.o)
                                                  /home/leon/git/swp-report/iMX6_Platform_SDK/output/mx6sdl/lib/libsdk.a(usdhc.o)
sd_ocr_value                                      /home/leon/git/swp-report/iMX6_Platform_SDK/output/mx6sdl/lib/libsdk.a(usdhc_sd.o)
sd_voltage_validation                             /home/leon/git/swp-report/iMX6_Platform_SDK/output/mx6sdl/lib/libsdk.a(usdhc_sd.o)
                                                  /home/leon/git/swp-report/iMX6_Platform_SDK/output/mx6sdl/lib/libsdk.a(usdhc.o)
sdma_iomux_config                                 /home/leon/git/swp-report/iMX6_Platform_SDK/output/mx6sdl/lib/libboard_evb_rev_a.a(iomux_config.o)
search_panel                                      /home/leon/git/swp-report/iMX6_Platform_SDK/output/mx6sdl/lib/libsdk.a(ips_disp_panel.o)
                                                  /home/leon/git/swp-report/iMX6_Platform_SDK/output/mx6sdl/obds/evb_rev_a/obj/sdk/drivers/ipu/test/ips_display.o
                                                  /home/leon/git/swp-report/iMX6_Platform_SDK/output/mx6sdl/obds/evb_rev_a/obj/sdk/drivers/camera/test/sensor_capture.o
                                                  /home/leon/git/swp-report/iMX6_Platform_SDK/output/mx6sdl/obds/evb_rev_a/obj/sdk/drivers/camera/test/csi_test_mode.o
                                                  /home/leon/git/swp-report/iMX6_Platform_SDK/output/mx6sdl/obds/evb_rev_a/obj/sdk/drivers/camera/test/adv7180_capture.o
                                                  /home/leon/git/swp-report/iMX6_Platform_SDK/output/mx6sdl/obds/evb_rev_a/obj/apps/obds/src/tests/display_test.o
select_tests                                      /home/leon/git/swp-report/iMX6_Platform_SDK/output/mx6sdl/obds/evb_rev_a/obj/apps/obds/src/obds.o
sensor_af_trigger                                 /home/leon/git/swp-report/iMX6_Platform_SDK/output/mx6sdl/lib/libsdk.a(smd_sensor.o)
                                                  /home/leon/git/swp-report/iMX6_Platform_SDK/output/mx6sdl/obds/evb_rev_a/obj/sdk/drivers/camera/test/sensor_capture.o
sensor_autofocus_init                             /home/leon/git/swp-report/iMX6_Platform_SDK/output/mx6sdl/lib/libsdk.a(smd_sensor.o)
                                                  /home/leon/git/swp-report/iMX6_Platform_SDK/output/mx6sdl/obds/evb_rev_a/obj/sdk/drivers/camera/test/sensor_capture.o
sensor_capture                                    /home/leon/git/swp-report/iMX6_Platform_SDK/output/mx6sdl/obds/evb_rev_a/obj/sdk/drivers/camera/test/sensor_capture.o
sensor_clock_setting                              /home/leon/git/swp-report/iMX6_Platform_SDK/output/mx6sdl/lib/libboard_evb_rev_a.a(board_camera.o)
                                                  /home/leon/git/swp-report/iMX6_Platform_SDK/output/mx6sdl/lib/libsdk.a(smd_sensor.o)
sensor_config                                     /home/leon/git/swp-report/iMX6_Platform_SDK/output/mx6sdl/lib/libsdk.a(smd_sensor.o)
                                                  /home/leon/git/swp-report/iMX6_Platform_SDK/output/mx6sdl/obds/evb_rev_a/obj/sdk/drivers/camera/test/sensor_capture.o
sensor_init                                       /home/leon/git/swp-report/iMX6_Platform_SDK/output/mx6sdl/lib/libsdk.a(smd_sensor.o)
sensor_reset                                      /home/leon/git/swp-report/iMX6_Platform_SDK/output/mx6sdl/lib/libboard_evb_rev_a.a(board_camera.o)
                                                  /home/leon/git/swp-report/iMX6_Platform_SDK/output/mx6sdl/lib/libsdk.a(smd_sensor.o)
sensor_search                                     /home/leon/git/swp-report/iMX6_Platform_SDK/output/mx6sdl/lib/libsdk.a(smd_sensor.o)
                                                  /home/leon/git/swp-report/iMX6_Platform_SDK/output/mx6sdl/obds/evb_rev_a/obj/sdk/drivers/camera/test/sensor_capture.o
sensor_standby                                    /home/leon/git/swp-report/iMX6_Platform_SDK/output/mx6sdl/lib/libboard_evb_rev_a.a(board_camera.o)
                                                  /home/leon/git/swp-report/iMX6_Platform_SDK/output/mx6sdl/obds/evb_rev_a/obj/sdk/drivers/camera/test/sensor_capture.o
set_background_margin                             /home/leon/git/swp-report/iMX6_Platform_SDK/output/mx6sdl/obds/evb_rev_a/obj/sdk/drivers/ipu/test/ipu_image.o
set_card_access_mode                              /home/leon/git/swp-report/iMX6_Platform_SDK/output/mx6sdl/lib/libsdk.a(usdhc.o)
                                                  /home/leon/git/swp-report/iMX6_Platform_SDK/output/mx6sdl/obds/evb_rev_a/obj/sdk/drivers/usdhc/test/usdhc_test.o
setlocale                                         /home/leon/riotboard/arm-2012.09/bin/../arm-none-eabi/lib//libc.a(lib_a-locale.o)
sgtl5000                                          /home/leon/git/swp-report/iMX6_Platform_SDK/output/mx6sdl/lib/libsdk.a(sgtl5000.o)
                                                  /home/leon/git/swp-report/iMX6_Platform_SDK/output/mx6sdl/obds/evb_rev_a/obj/sdk/drivers/audio/src/snd_card.o
sgtl5000_deinit                                   /home/leon/git/swp-report/iMX6_Platform_SDK/output/mx6sdl/lib/libsdk.a(sgtl5000.o)
sgtl5000_i2c_req                                  /home/leon/git/swp-report/iMX6_Platform_SDK/output/mx6sdl/lib/libsdk.a(sgtl5000.o)
sgtl5000_i2s_config                               /home/leon/git/swp-report/iMX6_Platform_SDK/output/mx6sdl/lib/libsdk.a(sgtl5000.o)
sgtl5000_init                                     /home/leon/git/swp-report/iMX6_Platform_SDK/output/mx6sdl/lib/libsdk.a(sgtl5000.o)
sgtl5000_ops                                      /home/leon/git/swp-report/iMX6_Platform_SDK/output/mx6sdl/lib/libsdk.a(sgtl5000.o)
show_board_id                                     /home/leon/git/swp-report/iMX6_Platform_SDK/output/mx6sdl/lib/libsdk.a(board_id.o)
                                                  /home/leon/git/swp-report/iMX6_Platform_SDK/output/mx6sdl/obds/evb_rev_a/obj/apps/obds/src/tests/program_board_id.o
show_boot_switch_info                             /home/leon/git/swp-report/iMX6_Platform_SDK/output/mx6sdl/obds/evb_rev_a/obj/apps/obds/src/obds_utils.o
                                                  /home/leon/git/swp-report/iMX6_Platform_SDK/output/mx6sdl/obds/evb_rev_a/obj/apps/obds/src/obds.o
show_ddr_config                                   /home/leon/git/swp-report/iMX6_Platform_SDK/output/mx6sdl/obds/evb_rev_a/obj/apps/common/print_clock_info.o
                                                  /home/leon/git/swp-report/iMX6_Platform_SDK/output/mx6sdl/obds/evb_rev_a/obj/apps/obds/src/obds.o
show_freq                                         /home/leon/git/swp-report/iMX6_Platform_SDK/output/mx6sdl/obds/evb_rev_a/obj/apps/common/print_clock_info.o
                                                  /home/leon/git/swp-report/iMX6_Platform_SDK/output/mx6sdl/obds/evb_rev_a/obj/apps/obds/src/obds.o
si476x_i2c_req                                    /home/leon/git/swp-report/iMX6_Platform_SDK/output/mx6sdl/obds/evb_rev_a/obj/apps/obds/src/tests/fm_tuner_si476x_test.o
si476x_test_enable                                /home/leon/git/swp-report/iMX6_Platform_SDK/output/mx6sdl/obds/evb_rev_a/obj/apps/obds/src/tests/fm_tuner_si476x_test.o
si476x_test_main                                  /home/leon/git/swp-report/iMX6_Platform_SDK/output/mx6sdl/obds/evb_rev_a/obj/apps/obds/src/tests/fm_tuner_si476x_test.o
signal                                            /home/leon/riotboard/arm-2012.09/bin/../arm-none-eabi/lib//libc.a(lib_a-signal.o)
sil9024_hdmi_power_on1                            /home/leon/git/swp-report/iMX6_Platform_SDK/output/mx6sdl/obds/evb_rev_a/obj/apps/obds/src/tests/pmic_lt3589.o
sjc_iomux_config                                  /home/leon/git/swp-report/iMX6_Platform_SDK/output/mx6sdl/lib/libboard_evb_rev_a.a(sjc_iomux_config.o)
                                                  /home/leon/git/swp-report/iMX6_Platform_SDK/output/mx6sdl/lib/libboard_evb_rev_a.a(iomux_config.o)
snd_card                                          /home/leon/git/swp-report/iMX6_Platform_SDK/output/mx6sdl/obds/evb_rev_a/obj/apps/obds/src/tests/audio_ssi_test.o
                                                  /home/leon/git/swp-report/iMX6_Platform_SDK/output/mx6sdl/obds/evb_rev_a/obj/apps/obds/src/tests/i2c_device_check_cs42888.o
                                                  /home/leon/git/swp-report/iMX6_Platform_SDK/output/mx6sdl/obds/evb_rev_a/obj/apps/obds/src/tests/audio_esai_test.o
snd_card_esai                                     /home/leon/git/swp-report/iMX6_Platform_SDK/output/mx6sdl/obds/evb_rev_a/obj/sdk/drivers/audio/src/snd_card.o
                                                  /home/leon/git/swp-report/iMX6_Platform_SDK/output/mx6sdl/obds/evb_rev_a/obj/apps/obds/src/tests/i2c_device_check_cs42888.o
                                                  /home/leon/git/swp-report/iMX6_Platform_SDK/output/mx6sdl/obds/evb_rev_a/obj/apps/obds/src/tests/audio_esai_test.o
snd_card_spdif                                    /home/leon/git/swp-report/iMX6_Platform_SDK/output/mx6sdl/obds/evb_rev_a/obj/sdk/drivers/audio/src/snd_card.o
snd_card_ssi_sgtl5000                             /home/leon/git/swp-report/iMX6_Platform_SDK/output/mx6sdl/obds/evb_rev_a/obj/sdk/drivers/audio/src/snd_card.o
                                                  /home/leon/git/swp-report/iMX6_Platform_SDK/output/mx6sdl/obds/evb_rev_a/obj/apps/obds/src/tests/audio_ssi_test.o
snd_card_ssi_wm8958                               /home/leon/git/swp-report/iMX6_Platform_SDK/output/mx6sdl/obds/evb_rev_a/obj/sdk/drivers/audio/src/snd_card.o
snd_card_ssi_wm8962                               /home/leon/git/swp-report/iMX6_Platform_SDK/output/mx6sdl/obds/evb_rev_a/obj/sdk/drivers/audio/src/snd_card.o
snvs_iomux_config                                 /home/leon/git/swp-report/iMX6_Platform_SDK/output/mx6sdl/lib/libboard_evb_rev_a.a(iomux_config.o)
snvs_srtc_test                                    /home/leon/git/swp-report/iMX6_Platform_SDK/output/mx6sdl/obds/evb_rev_a/obj/apps/obds/src/tests/snvs_srtc_test.o
soc_sbmr1                                         /home/leon/git/swp-report/iMX6_Platform_SDK/output/mx6sdl/obds/evb_rev_a/obj/apps/obds/src/obds_utils.o
soc_sbmr2                                         /home/leon/git/swp-report/iMX6_Platform_SDK/output/mx6sdl/obds/evb_rev_a/obj/apps/obds/src/obds_utils.o
spdif_clk_cfg                                     /home/leon/git/swp-report/iMX6_Platform_SDK/output/mx6sdl/lib/libboard_evb_rev_a.a(board_audio.o)
                                                  /home/leon/git/swp-report/iMX6_Platform_SDK/output/mx6sdl/lib/libsdk.a(imx_spdif.o)
spdif_config                                      /home/leon/git/swp-report/iMX6_Platform_SDK/output/mx6sdl/lib/libsdk.a(imx_spdif.o)
spdif_deinit                                      /home/leon/git/swp-report/iMX6_Platform_SDK/output/mx6sdl/lib/libsdk.a(imx_spdif.o)
spdif_get_tx_clk_freq                             /home/leon/git/swp-report/iMX6_Platform_SDK/output/mx6sdl/lib/libboard_evb_rev_a.a(board_audio.o)
                                                  /home/leon/git/swp-report/iMX6_Platform_SDK/output/mx6sdl/lib/libsdk.a(imx_spdif.o)
spdif_init                                        /home/leon/git/swp-report/iMX6_Platform_SDK/output/mx6sdl/lib/libsdk.a(imx_spdif.o)
spdif_iomux_config                                /home/leon/git/swp-report/iMX6_Platform_SDK/output/mx6sdl/lib/libboard_evb_rev_a.a(spdif_iomux_config.o)
                                                  /home/leon/git/swp-report/iMX6_Platform_SDK/output/mx6sdl/lib/libboard_evb_rev_a.a(iomux_config.o)
                                                  /home/leon/git/swp-report/iMX6_Platform_SDK/output/mx6sdl/lib/libsdk.a(imx_spdif.o)
spdif_write_fifo                                  /home/leon/git/swp-report/iMX6_Platform_SDK/output/mx6sdl/lib/libsdk.a(imx_spdif.o)
spi_nor_erase                                     /home/leon/git/swp-report/iMX6_Platform_SDK/output/mx6sdl/obds/evb_rev_a/obj/apps/obds/src/tests/imx_spi_nor_test.o
spi_nor_erase_atmel                               /home/leon/git/swp-report/iMX6_Platform_SDK/output/mx6sdl/obds/evb_rev_a/obj/sdk/drivers/spi/test/imx_spi_nor_atmel.o
                                                  /home/leon/git/swp-report/iMX6_Platform_SDK/output/mx6sdl/obds/evb_rev_a/obj/apps/obds/src/tests/imx_spi_nor_test.o
spi_nor_erase_numonyx                             /home/leon/git/swp-report/iMX6_Platform_SDK/output/mx6sdl/obds/evb_rev_a/obj/sdk/drivers/spi/test/spi_nor_numonyx.o
                                                  /home/leon/git/swp-report/iMX6_Platform_SDK/output/mx6sdl/obds/evb_rev_a/obj/apps/obds/src/tests/imx_spi_nor_test.o
spi_nor_flash_type                                /home/leon/git/swp-report/iMX6_Platform_SDK/output/mx6sdl/obds/evb_rev_a/obj/apps/obds/src/tests/imx_spi_nor_test.o
spi_nor_query                                     /home/leon/git/swp-report/iMX6_Platform_SDK/output/mx6sdl/obds/evb_rev_a/obj/apps/obds/src/tests/imx_spi_nor_test.o
spi_nor_query_atmel                               /home/leon/git/swp-report/iMX6_Platform_SDK/output/mx6sdl/obds/evb_rev_a/obj/sdk/drivers/spi/test/imx_spi_nor_atmel.o
                                                  /home/leon/git/swp-report/iMX6_Platform_SDK/output/mx6sdl/obds/evb_rev_a/obj/apps/obds/src/tests/imx_spi_nor_test.o
spi_nor_query_numonyx                             /home/leon/git/swp-report/iMX6_Platform_SDK/output/mx6sdl/obds/evb_rev_a/obj/sdk/drivers/spi/test/spi_nor_numonyx.o
                                                  /home/leon/git/swp-report/iMX6_Platform_SDK/output/mx6sdl/obds/evb_rev_a/obj/apps/obds/src/tests/imx_spi_nor_test.o
spi_nor_read                                      /home/leon/git/swp-report/iMX6_Platform_SDK/output/mx6sdl/obds/evb_rev_a/obj/apps/obds/src/tests/imx_spi_nor_test.o
spi_nor_read_atmel                                /home/leon/git/swp-report/iMX6_Platform_SDK/output/mx6sdl/obds/evb_rev_a/obj/sdk/drivers/spi/test/imx_spi_nor_atmel.o
                                                  /home/leon/git/swp-report/iMX6_Platform_SDK/output/mx6sdl/obds/evb_rev_a/obj/apps/obds/src/tests/imx_spi_nor_test.o
spi_nor_read_numonyx                              /home/leon/git/swp-report/iMX6_Platform_SDK/output/mx6sdl/obds/evb_rev_a/obj/sdk/drivers/spi/test/spi_nor_numonyx.o
                                                  /home/leon/git/swp-report/iMX6_Platform_SDK/output/mx6sdl/obds/evb_rev_a/obj/apps/obds/src/tests/imx_spi_nor_test.o
spi_nor_rx_buf                                    /home/leon/git/swp-report/iMX6_Platform_SDK/output/mx6sdl/obds/evb_rev_a/obj/apps/obds/src/tests/imx_spi_nor_test.o
spi_nor_test                                      /home/leon/git/swp-report/iMX6_Platform_SDK/output/mx6sdl/obds/evb_rev_a/obj/apps/obds/src/tests/imx_spi_nor_test.o
spi_nor_tx_buf                                    /home/leon/git/swp-report/iMX6_Platform_SDK/output/mx6sdl/obds/evb_rev_a/obj/apps/obds/src/tests/imx_spi_nor_test.o
spi_nor_write                                     /home/leon/git/swp-report/iMX6_Platform_SDK/output/mx6sdl/obds/evb_rev_a/obj/apps/obds/src/tests/imx_spi_nor_test.o
spi_nor_write_atmel                               /home/leon/git/swp-report/iMX6_Platform_SDK/output/mx6sdl/obds/evb_rev_a/obj/sdk/drivers/spi/test/imx_spi_nor_atmel.o
                                                  /home/leon/git/swp-report/iMX6_Platform_SDK/output/mx6sdl/obds/evb_rev_a/obj/apps/obds/src/tests/imx_spi_nor_test.o
spi_nor_write_numonyx                             /home/leon/git/swp-report/iMX6_Platform_SDK/output/mx6sdl/obds/evb_rev_a/obj/sdk/drivers/spi/test/spi_nor_numonyx.o
                                                  /home/leon/git/swp-report/iMX6_Platform_SDK/output/mx6sdl/obds/evb_rev_a/obj/apps/obds/src/tests/imx_spi_nor_test.o
sprintf                                           /home/leon/riotboard/arm-2012.09/bin/../arm-none-eabi/lib//libc.a(lib_a-sprintf.o)
                                                  /home/leon/git/swp-report/iMX6_Platform_SDK/output/mx6sdl/lib/libsdk.a(board_id.o)
                                                  /home/leon/git/swp-report/iMX6_Platform_SDK/output/mx6sdl/obds/evb_rev_a/obj/apps/obds/src/tests/program_mac_address.o
                                                  /home/leon/git/swp-report/iMX6_Platform_SDK/output/mx6sdl/obds/evb_rev_a/obj/apps/obds/src/obds.o
src_iomux_config                                  /home/leon/git/swp-report/iMX6_Platform_SDK/output/mx6sdl/lib/libboard_evb_rev_a.a(iomux_config.o)
ssi_config                                        /home/leon/git/swp-report/iMX6_Platform_SDK/output/mx6sdl/lib/libsdk.a(imx-ssi.o)
ssi_deinit                                        /home/leon/git/swp-report/iMX6_Platform_SDK/output/mx6sdl/lib/libsdk.a(imx-ssi.o)
ssi_init                                          /home/leon/git/swp-report/iMX6_Platform_SDK/output/mx6sdl/lib/libsdk.a(imx-ssi.o)
ssi_read_fifo                                     /home/leon/git/swp-report/iMX6_Platform_SDK/output/mx6sdl/lib/libsdk.a(imx-ssi.o)
ssi_write_fifo                                    /home/leon/git/swp-report/iMX6_Platform_SDK/output/mx6sdl/lib/libsdk.a(imx-ssi.o)
strcat                                            /home/leon/riotboard/arm-2012.09/bin/../arm-none-eabi/lib//libc.a(lib_a-strcat.o)
                                                  /home/leon/git/swp-report/iMX6_Platform_SDK/output/mx6sdl/obds/evb_rev_a/obj/apps/obds/src/obds.o
strcmp                                            /home/leon/riotboard/arm-2012.09/bin/../arm-none-eabi/lib//libc.a(lib_a-strcmp.o)
                                                  /home/leon/riotboard/arm-2012.09/bin/../arm-none-eabi/lib//libc.a(lib_a-locale.o)
                                                  /home/leon/git/swp-report/iMX6_Platform_SDK/output/mx6sdl/lib/libboard_evb_rev_a.a(board_display.o)
                                                  /home/leon/git/swp-report/iMX6_Platform_SDK/output/mx6sdl/lib/libsdk.a(ipu_ic.o)
                                                  /home/leon/git/swp-report/iMX6_Platform_SDK/output/mx6sdl/lib/libsdk.a(ips_disp_panel.o)
                                                  /home/leon/git/swp-report/iMX6_Platform_SDK/output/mx6sdl/obds/evb_rev_a/obj/apps/obds/src/obds.o
strcpy                                            /home/leon/riotboard/arm-2012.09/bin/../arm-none-eabi/lib//libc.a(lib_a-strcpy.o)
                                                  /home/leon/riotboard/arm-2012.09/bin/../arm-none-eabi/lib//libc.a(lib_a-strcat.o)
                                                  /home/leon/git/swp-report/iMX6_Platform_SDK/output/mx6sdl/obds/evb_rev_a/obj/apps/obds/src/obds.o
strlen                                            /home/leon/riotboard/arm-2012.09/bin/../arm-none-eabi/lib//libc.a(lib_a-strlen.o)
                                                  /home/leon/git/swp-report/iMX6_Platform_SDK/output/mx6sdl/lib/libsdk.a(runtime_support.o)
                                                  /home/leon/riotboard/arm-2012.09/bin/../arm-none-eabi/lib//libc.a(lib_a-svfiprintf.o)
                                                  /home/leon/riotboard/arm-2012.09/bin/../arm-none-eabi/lib//libc.a(lib_a-vfprintf.o)
                                                  /home/leon/riotboard/arm-2012.09/bin/../arm-none-eabi/lib//libc.a(lib_a-vfiprintf.o)
                                                  /home/leon/riotboard/arm-2012.09/bin/../arm-none-eabi/lib//libc.a(lib_a-svfprintf.o)
                                                  /home/leon/git/swp-report/iMX6_Platform_SDK/output/mx6sdl/lib/libsdk.a(menu.o)
strncasecmp                                       /home/leon/riotboard/arm-2012.09/bin/../arm-none-eabi/lib//libc.a(lib_a-strncasecmp.o)
                                                  /home/leon/git/swp-report/iMX6_Platform_SDK/output/mx6sdl/lib/libsdk.a(menu.o)
strtok                                            /home/leon/riotboard/arm-2012.09/bin/../arm-none-eabi/lib//libc.a(lib_a-strtok.o)
                                                  /home/leon/git/swp-report/iMX6_Platform_SDK/output/mx6sdl/obds/evb_rev_a/obj/apps/obds/src/obds.o
strtok_r                                          /home/leon/riotboard/arm-2012.09/bin/../arm-none-eabi/lib//libc.a(lib_a-strtok_r.o)
swap32                                            /home/leon/git/swp-report/iMX6_Platform_SDK/output/mx6sdl/lib/libsdk.a(usb_common.o)
system_time_init                                  /home/leon/git/swp-report/iMX6_Platform_SDK/output/mx6sdl/lib/libsdk.a(timer.o)
                                                  /home/leon/git/swp-report/iMX6_Platform_SDK/output/mx6sdl/obds/evb_rev_a/obj/apps/common/platform_init.o
tftlcd_backlight_en                               /home/leon/git/swp-report/iMX6_Platform_SDK/output/mx6sdl/lib/libboard_evb_rev_a.a(board_display.o)
                                                  /home/leon/git/swp-report/iMX6_Platform_SDK/output/mx6sdl/lib/libsdk.a(ips_disp_panel.o)
tftlcd_reset                                      /home/leon/git/swp-report/iMX6_Platform_SDK/output/mx6sdl/lib/libboard_evb_rev_a.a(board_display.o)
                                                  /home/leon/git/swp-report/iMX6_Platform_SDK/output/mx6sdl/lib/libsdk.a(ips_disp_panel.o)
time_get_microseconds                             /home/leon/git/swp-report/iMX6_Platform_SDK/output/mx6sdl/lib/libsdk.a(timer.o)
                                                  /home/leon/git/swp-report/iMX6_Platform_SDK/output/mx6sdl/lib/libsdk.a(runtime_support.o)
top_of_stacks                                     /home/leon/git/swp-report/iMX6_Platform_SDK/output/mx6sdl/lib/libsdk.a(startup.o)
total_tests                                       /home/leon/git/swp-report/iMX6_Platform_SDK/output/mx6sdl/obds/evb_rev_a/obj/apps/obds/src/obds.o
touch_detect                                      /home/leon/git/swp-report/iMX6_Platform_SDK/output/mx6sdl/obds/evb_rev_a/obj/apps/obds/src/tests/touch_screen.o
touch_get_xy_value                                /home/leon/git/swp-report/iMX6_Platform_SDK/output/mx6sdl/obds/evb_rev_a/obj/apps/obds/src/tests/touch_screen.o
touch_init                                        /home/leon/git/swp-report/iMX6_Platform_SDK/output/mx6sdl/obds/evb_rev_a/obj/apps/obds/src/tests/touch_screen.o
touch_screen_prompt                               /home/leon/git/swp-report/iMX6_Platform_SDK/output/mx6sdl/obds/evb_rev_a/obj/apps/obds/src/tests/touch_screen.o
touch_screen_test                                 /home/leon/git/swp-report/iMX6_Platform_SDK/output/mx6sdl/obds/evb_rev_a/obj/apps/obds/src/tests/touch_screen.o
uart1_iomux_config                                /home/leon/git/swp-report/iMX6_Platform_SDK/output/mx6sdl/lib/libboard_evb_rev_a.a(iomux_config.o)
                                                  /home/leon/git/swp-report/iMX6_Platform_SDK/output/mx6sdl/lib/libboard_evb_rev_a.a(uart_iomux_config.o)
uart2_iomux_config                                /home/leon/git/swp-report/iMX6_Platform_SDK/output/mx6sdl/lib/libboard_evb_rev_a.a(uart2_iomux_config.o)
                                                  /home/leon/git/swp-report/iMX6_Platform_SDK/output/mx6sdl/lib/libboard_evb_rev_a.a(uart_iomux_config.o)
                                                  /home/leon/git/swp-report/iMX6_Platform_SDK/output/mx6sdl/lib/libboard_evb_rev_a.a(iomux_config.o)
                                                  /home/leon/git/swp-report/iMX6_Platform_SDK/output/mx6sdl/obds/evb_rev_a/obj/apps/obds/src/tests/gps_test.o
uart3_iomux_config                                /home/leon/git/swp-report/iMX6_Platform_SDK/output/mx6sdl/lib/libboard_evb_rev_a.a(iomux_config.o)
                                                  /home/leon/git/swp-report/iMX6_Platform_SDK/output/mx6sdl/lib/libboard_evb_rev_a.a(uart_iomux_config.o)
uart4_iomux_config                                /home/leon/git/swp-report/iMX6_Platform_SDK/output/mx6sdl/lib/libboard_evb_rev_a.a(uart4_iomux_config.o)
                                                  /home/leon/git/swp-report/iMX6_Platform_SDK/output/mx6sdl/lib/libboard_evb_rev_a.a(uart_iomux_config.o)
                                                  /home/leon/git/swp-report/iMX6_Platform_SDK/output/mx6sdl/lib/libboard_evb_rev_a.a(iomux_config.o)
uart5_iomux_config                                /home/leon/git/swp-report/iMX6_Platform_SDK/output/mx6sdl/lib/libboard_evb_rev_a.a(iomux_config.o)
                                                  /home/leon/git/swp-report/iMX6_Platform_SDK/output/mx6sdl/lib/libboard_evb_rev_a.a(uart_iomux_config.o)
uart_get_reffreq                                  /home/leon/git/swp-report/iMX6_Platform_SDK/output/mx6sdl/lib/libsdk.a(imx_uart.o)
uart_getchar                                      /home/leon/git/swp-report/iMX6_Platform_SDK/output/mx6sdl/lib/libsdk.a(imx_uart.o)
                                                  /home/leon/git/swp-report/iMX6_Platform_SDK/output/mx6sdl/lib/libsdk.a(runtime_support.o)
                                                  /home/leon/git/swp-report/iMX6_Platform_SDK/output/mx6sdl/lib/libsdk.a(system_util.o)
                                                  /home/leon/git/swp-report/iMX6_Platform_SDK/output/mx6sdl/obds/evb_rev_a/obj/sdk/drivers/uart/test/uart_test.o
                                                  /home/leon/git/swp-report/iMX6_Platform_SDK/output/mx6sdl/obds/evb_rev_a/obj/sdk/drivers/camera/test/csi_test_mode.o
                                                  /home/leon/git/swp-report/iMX6_Platform_SDK/output/mx6sdl/obds/evb_rev_a/obj/apps/common/platform_init.o
uart_init                                         /home/leon/git/swp-report/iMX6_Platform_SDK/output/mx6sdl/lib/libsdk.a(imx_uart.o)
                                                  /home/leon/git/swp-report/iMX6_Platform_SDK/output/mx6sdl/obds/evb_rev_a/obj/sdk/drivers/uart/test/uart_test.o
                                                  /home/leon/git/swp-report/iMX6_Platform_SDK/output/mx6sdl/obds/evb_rev_a/obj/apps/obds/src/tests/gps_test.o
                                                  /home/leon/git/swp-report/iMX6_Platform_SDK/output/mx6sdl/obds/evb_rev_a/obj/apps/common/platform_init.o
uart_interrupt_handler                            /home/leon/git/swp-report/iMX6_Platform_SDK/output/mx6sdl/obds/evb_rev_a/obj/sdk/drivers/uart/test/uart_test.o
uart_iomux_config                                 /home/leon/git/swp-report/iMX6_Platform_SDK/output/mx6sdl/lib/libboard_evb_rev_a.a(uart_iomux_config.o)
                                                  /home/leon/git/swp-report/iMX6_Platform_SDK/output/mx6sdl/lib/libsdk.a(imx_uart.o)
uart_putchar                                      /home/leon/git/swp-report/iMX6_Platform_SDK/output/mx6sdl/lib/libsdk.a(imx_uart.o)
                                                  /home/leon/git/swp-report/iMX6_Platform_SDK/output/mx6sdl/lib/libsdk.a(runtime_support.o)
                                                  /home/leon/git/swp-report/iMX6_Platform_SDK/output/mx6sdl/obds/evb_rev_a/obj/sdk/drivers/uart/test/uart_test.o
uart_set_FIFO_mode                                /home/leon/git/swp-report/iMX6_Platform_SDK/output/mx6sdl/lib/libsdk.a(imx_uart.o)
                                                  /home/leon/git/swp-report/iMX6_Platform_SDK/output/mx6sdl/obds/evb_rev_a/obj/sdk/drivers/uart/test/uart_test.o
uart_set_loopback_mode                            /home/leon/git/swp-report/iMX6_Platform_SDK/output/mx6sdl/lib/libsdk.a(imx_uart.o)
                                                  /home/leon/git/swp-report/iMX6_Platform_SDK/output/mx6sdl/obds/evb_rev_a/obj/sdk/drivers/uart/test/uart_test.o
uart_setup_interrupt                              /home/leon/git/swp-report/iMX6_Platform_SDK/output/mx6sdl/lib/libsdk.a(imx_uart.o)
                                                  /home/leon/git/swp-report/iMX6_Platform_SDK/output/mx6sdl/obds/evb_rev_a/obj/sdk/drivers/uart/test/uart_test.o
uart_test                                         /home/leon/git/swp-report/iMX6_Platform_SDK/output/mx6sdl/obds/evb_rev_a/obj/sdk/drivers/uart/test/uart_test.o
update_csc_coeffs                                 /home/leon/git/swp-report/iMX6_Platform_SDK/output/mx6sdl/lib/libsdk.a(hdmi_tx.o)
usb0_host_test                                    /home/leon/git/swp-report/iMX6_Platform_SDK/output/mx6sdl/obds/evb_rev_a/obj/sdk/drivers/usb/test/usb0_host_test.o
usb0_host_testmodes_test                          /home/leon/git/swp-report/iMX6_Platform_SDK/output/mx6sdl/obds/evb_rev_a/obj/sdk/drivers/usb/test/usb0_host_testmodes_test.o
usbDisableVbus                                    /home/leon/git/swp-report/iMX6_Platform_SDK/output/mx6sdl/lib/libboard_evb_rev_a.a(board_usb.o)
usbEnableClocks                                   /home/leon/git/swp-report/iMX6_Platform_SDK/output/mx6sdl/lib/libsdk.a(mx6x_usb.o)
                                                  /home/leon/git/swp-report/iMX6_Platform_SDK/output/mx6sdl/lib/libsdk.a(usbh_drv.o)
usbEnableTransceiver                              /home/leon/git/swp-report/iMX6_Platform_SDK/output/mx6sdl/lib/libsdk.a(mx6x_usb.o)
                                                  /home/leon/git/swp-report/iMX6_Platform_SDK/output/mx6sdl/lib/libsdk.a(usbh_drv.o)
usbEnableVbus                                     /home/leon/git/swp-report/iMX6_Platform_SDK/output/mx6sdl/lib/libboard_evb_rev_a.a(board_usb.o)
                                                  /home/leon/git/swp-report/iMX6_Platform_SDK/output/mx6sdl/lib/libsdk.a(usbh_drv.o)
usb_enum_device                                   /home/leon/git/swp-report/iMX6_Platform_SDK/output/mx6sdl/obds/evb_rev_a/obj/apps/obds/src/tests/usb_tests_obds.o
usb_get_port_speed                                /home/leon/git/swp-report/iMX6_Platform_SDK/output/mx6sdl/lib/libsdk.a(usb_common.o)
                                                  /home/leon/git/swp-report/iMX6_Platform_SDK/output/mx6sdl/obds/evb_rev_a/obj/sdk/drivers/usb/test/usb0_host_test.o
                                                  /home/leon/git/swp-report/iMX6_Platform_SDK/output/mx6sdl/obds/evb_rev_a/obj/apps/obds/src/tests/usb_tests_obds.o
usb_iomux_config                                  /home/leon/git/swp-report/iMX6_Platform_SDK/output/mx6sdl/lib/libboard_evb_rev_a.a(usb_iomux_config.o)
                                                  /home/leon/git/swp-report/iMX6_Platform_SDK/output/mx6sdl/lib/libboard_evb_rev_a.a(iomux_config.o)
usbh_bus_reset                                    /home/leon/git/swp-report/iMX6_Platform_SDK/output/mx6sdl/lib/libsdk.a(usbh_drv.o)
                                                  /home/leon/git/swp-report/iMX6_Platform_SDK/output/mx6sdl/obds/evb_rev_a/obj/sdk/drivers/usb/test/usb0_host_test.o
                                                  /home/leon/git/swp-report/iMX6_Platform_SDK/output/mx6sdl/obds/evb_rev_a/obj/apps/obds/src/tests/usb_tests_obds.o
usbh_dev_enum_test                                /home/leon/git/swp-report/iMX6_Platform_SDK/output/mx6sdl/obds/evb_rev_a/obj/apps/obds/src/tests/usb_tests_obds.o
usbh_disable_Periodic_list                        /home/leon/git/swp-report/iMX6_Platform_SDK/output/mx6sdl/lib/libsdk.a(usbh_drv.o)
usbh_disable_asynchronous_schedule                /home/leon/git/swp-report/iMX6_Platform_SDK/output/mx6sdl/lib/libsdk.a(usbh_drv.o)
                                                  /home/leon/git/swp-report/iMX6_Platform_SDK/output/mx6sdl/obds/evb_rev_a/obj/sdk/drivers/usb/test/usb0_host_test.o
                                                  /home/leon/git/swp-report/iMX6_Platform_SDK/output/mx6sdl/obds/evb_rev_a/obj/apps/obds/src/tests/usb_tests_obds.o
usbh_enable_asynchronous_schedule                 /home/leon/git/swp-report/iMX6_Platform_SDK/output/mx6sdl/lib/libsdk.a(usbh_drv.o)
                                                  /home/leon/git/swp-report/iMX6_Platform_SDK/output/mx6sdl/obds/evb_rev_a/obj/sdk/drivers/usb/test/usb0_host_test.o
                                                  /home/leon/git/swp-report/iMX6_Platform_SDK/output/mx6sdl/obds/evb_rev_a/obj/apps/obds/src/tests/usb_tests_obds.o
usbh_get_config_desc                              /home/leon/git/swp-report/iMX6_Platform_SDK/output/mx6sdl/obds/evb_rev_a/obj/sdk/drivers/usb/test/usb0_host_test.o
usbh_get_dev_desc                                 /home/leon/git/swp-report/iMX6_Platform_SDK/output/mx6sdl/obds/evb_rev_a/obj/sdk/drivers/usb/test/usb0_host_test.o
                                                  /home/leon/git/swp-report/iMX6_Platform_SDK/output/mx6sdl/obds/evb_rev_a/obj/apps/obds/src/tests/usb_tests_obds.o
usbh_get_interface_desc                           /home/leon/git/swp-report/iMX6_Platform_SDK/output/mx6sdl/obds/evb_rev_a/obj/sdk/drivers/usb/test/usb0_host_test.o
usbh_get_report_desc                              /home/leon/git/swp-report/iMX6_Platform_SDK/output/mx6sdl/obds/evb_rev_a/obj/sdk/drivers/usb/test/usb0_host_test.o
usbh_init                                         /home/leon/git/swp-report/iMX6_Platform_SDK/output/mx6sdl/lib/libsdk.a(usbh_drv.o)
                                                  /home/leon/git/swp-report/iMX6_Platform_SDK/output/mx6sdl/obds/evb_rev_a/obj/sdk/drivers/usb/test/usb0_host_testmodes_test.o
                                                  /home/leon/git/swp-report/iMX6_Platform_SDK/output/mx6sdl/obds/evb_rev_a/obj/sdk/drivers/usb/test/usb0_host_test.o
                                                  /home/leon/git/swp-report/iMX6_Platform_SDK/output/mx6sdl/obds/evb_rev_a/obj/apps/obds/src/tests/usb_tests_obds.o
usbh_periodic_schedule_init                       /home/leon/git/swp-report/iMX6_Platform_SDK/output/mx6sdl/lib/libsdk.a(usbh_drv.o)
                                                  /home/leon/git/swp-report/iMX6_Platform_SDK/output/mx6sdl/obds/evb_rev_a/obj/sdk/drivers/usb/test/usb0_host_test.o
usbh_qh_init                                      /home/leon/git/swp-report/iMX6_Platform_SDK/output/mx6sdl/lib/libsdk.a(usbh_drv.o)
                                                  /home/leon/git/swp-report/iMX6_Platform_SDK/output/mx6sdl/obds/evb_rev_a/obj/sdk/drivers/usb/test/usb0_host_test.o
                                                  /home/leon/git/swp-report/iMX6_Platform_SDK/output/mx6sdl/obds/evb_rev_a/obj/apps/obds/src/tests/usb_tests_obds.o
usbh_qtd_init                                     /home/leon/git/swp-report/iMX6_Platform_SDK/output/mx6sdl/lib/libsdk.a(usbh_drv.o)
                                                  /home/leon/git/swp-report/iMX6_Platform_SDK/output/mx6sdl/obds/evb_rev_a/obj/sdk/drivers/usb/test/usb0_host_test.o
usbh_set_configuration                            /home/leon/git/swp-report/iMX6_Platform_SDK/output/mx6sdl/obds/evb_rev_a/obj/sdk/drivers/usb/test/usb0_host_test.o
usbh_set_device_address                           /home/leon/git/swp-report/iMX6_Platform_SDK/output/mx6sdl/obds/evb_rev_a/obj/sdk/drivers/usb/test/usb0_host_test.o
usbo_dev_enum_test                                /home/leon/git/swp-report/iMX6_Platform_SDK/output/mx6sdl/obds/evb_rev_a/obj/apps/obds/src/tests/usb_tests_obds.o
usdhc1_iomux_config                               /home/leon/git/swp-report/iMX6_Platform_SDK/output/mx6sdl/lib/libboard_evb_rev_a.a(usdhc1_iomux_config.o)
                                                  /home/leon/git/swp-report/iMX6_Platform_SDK/output/mx6sdl/lib/libboard_evb_rev_a.a(usdhc_iomux_config.o)
                                                  /home/leon/git/swp-report/iMX6_Platform_SDK/output/mx6sdl/lib/libboard_evb_rev_a.a(iomux_config.o)
usdhc1_isr                                        /home/leon/git/swp-report/iMX6_Platform_SDK/output/mx6sdl/lib/libsdk.a(usdhc_host.o)
                                                  /home/leon/git/swp-report/iMX6_Platform_SDK/output/mx6sdl/lib/libsdk.a(usdhc.o)
usdhc2_iomux_config                               /home/leon/git/swp-report/iMX6_Platform_SDK/output/mx6sdl/lib/libboard_evb_rev_a.a(usdhc2_iomux_config.o)
                                                  /home/leon/git/swp-report/iMX6_Platform_SDK/output/mx6sdl/lib/libboard_evb_rev_a.a(usdhc_iomux_config.o)
                                                  /home/leon/git/swp-report/iMX6_Platform_SDK/output/mx6sdl/lib/libboard_evb_rev_a.a(iomux_config.o)
usdhc2_isr                                        /home/leon/git/swp-report/iMX6_Platform_SDK/output/mx6sdl/lib/libsdk.a(usdhc_host.o)
                                                  /home/leon/git/swp-report/iMX6_Platform_SDK/output/mx6sdl/lib/libsdk.a(usdhc.o)
usdhc3_iomux_config                               /home/leon/git/swp-report/iMX6_Platform_SDK/output/mx6sdl/lib/libboard_evb_rev_a.a(usdhc3_iomux_config.o)
                                                  /home/leon/git/swp-report/iMX6_Platform_SDK/output/mx6sdl/lib/libboard_evb_rev_a.a(usdhc_iomux_config.o)
                                                  /home/leon/git/swp-report/iMX6_Platform_SDK/output/mx6sdl/lib/libboard_evb_rev_a.a(iomux_config.o)
usdhc3_isr                                        /home/leon/git/swp-report/iMX6_Platform_SDK/output/mx6sdl/lib/libsdk.a(usdhc_host.o)
                                                  /home/leon/git/swp-report/iMX6_Platform_SDK/output/mx6sdl/lib/libsdk.a(usdhc.o)
usdhc4_iomux_config                               /home/leon/git/swp-report/iMX6_Platform_SDK/output/mx6sdl/lib/libboard_evb_rev_a.a(usdhc4_iomux_config.o)
                                                  /home/leon/git/swp-report/iMX6_Platform_SDK/output/mx6sdl/lib/libboard_evb_rev_a.a(usdhc_iomux_config.o)
                                                  /home/leon/git/swp-report/iMX6_Platform_SDK/output/mx6sdl/lib/libboard_evb_rev_a.a(iomux_config.o)
usdhc4_isr                                        /home/leon/git/swp-report/iMX6_Platform_SDK/output/mx6sdl/lib/libsdk.a(usdhc_host.o)
                                                  /home/leon/git/swp-report/iMX6_Platform_SDK/output/mx6sdl/lib/libsdk.a(usdhc.o)
usdhc_card_detected                               /home/leon/git/swp-report/iMX6_Platform_SDK/output/mx6sdl/lib/libboard_evb_rev_a.a(board_usdhc.o)
                                                  /home/leon/git/swp-report/iMX6_Platform_SDK/output/mx6sdl/lib/libsdk.a(usdhc.o)
                                                  /home/leon/git/swp-report/iMX6_Platform_SDK/output/mx6sdl/obds/evb_rev_a/obj/apps/obds/src/tests/mmcsd_test.o
usdhc_device                                      /home/leon/git/swp-report/iMX6_Platform_SDK/output/mx6sdl/lib/libsdk.a(usdhc.o)
                                                  /home/leon/git/swp-report/iMX6_Platform_SDK/output/mx6sdl/lib/libsdk.a(usdhc_sd.o)
                                                  /home/leon/git/swp-report/iMX6_Platform_SDK/output/mx6sdl/lib/libsdk.a(usdhc_mmc.o)
                                                  /home/leon/git/swp-report/iMX6_Platform_SDK/output/mx6sdl/lib/libsdk.a(usdhc_host.o)
usdhc_gpio_config                                 /home/leon/git/swp-report/iMX6_Platform_SDK/output/mx6sdl/lib/libboard_evb_rev_a.a(board_usdhc.o)
                                                  /home/leon/git/swp-report/iMX6_Platform_SDK/output/mx6sdl/lib/libsdk.a(usdhc_host.o)
usdhc_iomux_config                                /home/leon/git/swp-report/iMX6_Platform_SDK/output/mx6sdl/lib/libboard_evb_rev_a.a(usdhc_iomux_config.o)
                                                  /home/leon/git/swp-report/iMX6_Platform_SDK/output/mx6sdl/lib/libsdk.a(usdhc_host.o)
usdhc_test                                        /home/leon/git/swp-report/iMX6_Platform_SDK/output/mx6sdl/obds/evb_rev_a/obj/sdk/drivers/usdhc/test/usdhc_test.o
usdhc_write_protected                             /home/leon/git/swp-report/iMX6_Platform_SDK/output/mx6sdl/lib/libboard_evb_rev_a.a(board_usdhc.o)
                                                  /home/leon/git/swp-report/iMX6_Platform_SDK/output/mx6sdl/lib/libsdk.a(usdhc.o)
                                                  /home/leon/git/swp-report/iMX6_Platform_SDK/output/mx6sdl/obds/evb_rev_a/obj/apps/obds/src/tests/mmcsd_test.o
vectors                                           /home/leon/git/swp-report/iMX6_Platform_SDK/output/mx6sdl/lib/libsdk.a(vectors.o)
                                                  /home/leon/git/swp-report/iMX6_Platform_SDK/output/mx6sdl/lib/libsdk.a(startup.o)
vfiprintf                                         /home/leon/riotboard/arm-2012.09/bin/../arm-none-eabi/lib//libc.a(lib_a-vfiprintf.o)
vfprintf                                          /home/leon/riotboard/arm-2012.09/bin/../arm-none-eabi/lib//libc.a(lib_a-vfprintf.o)
video_fmts                                        /home/leon/git/swp-report/iMX6_Platform_SDK/output/mx6sdl/lib/libsdk.a(adv7180.o)
                                                  /home/leon/git/swp-report/iMX6_Platform_SDK/output/mx6sdl/obds/evb_rev_a/obj/sdk/drivers/camera/test/adv7180_capture.o
vprintf                                           /home/leon/riotboard/arm-2012.09/bin/../arm-none-eabi/lib//libc.a(lib_a-vprintf.o)
                                                  /home/leon/git/swp-report/iMX6_Platform_SDK/output/mx6sdl/lib/libsdk.a(imx_i2c.o)
                                                  /home/leon/git/swp-report/iMX6_Platform_SDK/output/mx6sdl/lib/libsdk.a(gpio.o)
                                                  /home/leon/git/swp-report/iMX6_Platform_SDK/output/mx6sdl/lib/libsdk.a(sgtl5000.o)
                                                  /home/leon/git/swp-report/iMX6_Platform_SDK/output/mx6sdl/lib/libsdk.a(text_color.o)
                                                  /home/leon/git/swp-report/iMX6_Platform_SDK/output/mx6sdl/obds/evb_rev_a/obj/apps/obds/src/tests/program_mac_address.o
                                                  /home/leon/git/swp-report/iMX6_Platform_SDK/output/mx6sdl/obds/evb_rev_a/obj/apps/obds/src/tests/program_board_id.o
                                                  /home/leon/git/swp-report/iMX6_Platform_SDK/output/mx6sdl/obds/evb_rev_a/obj/apps/obds/src/tests/enet_mx6dldq_test.o
                                                  /home/leon/git/swp-report/iMX6_Platform_SDK/output/mx6sdl/obds/evb_rev_a/obj/apps/obds/src/obds.o
wait_convertion_done                              /home/leon/git/swp-report/iMX6_Platform_SDK/output/mx6sdl/obds/evb_rev_a/obj/apps/obds/src/tests/i2c_device_temp_sensor_emc1046.o
wav_data                                          /home/leon/git/swp-report/iMX6_Platform_SDK/output/mx6sdl/obds/evb_rev_a/obj/apps/obds/src/tests/audio_ssi_test.o
wcrtomb                                           /home/leon/riotboard/arm-2012.09/bin/../arm-none-eabi/lib//libc.a(lib_a-wcrtomb.o)
wdog1_iomux_config                                /home/leon/git/swp-report/iMX6_Platform_SDK/output/mx6sdl/lib/libboard_evb_rev_a.a(iomux_config.o)
wdog2_iomux_config                                /home/leon/git/swp-report/iMX6_Platform_SDK/output/mx6sdl/lib/libboard_evb_rev_a.a(iomux_config.o)
weim_nor_flash_cs_setup                           /home/leon/git/swp-report/iMX6_Platform_SDK/output/mx6sdl/obds/evb_rev_a/obj/apps/obds/src/tests/weim_nor_flash_test.o
wm8958                                            /home/leon/git/swp-report/iMX6_Platform_SDK/output/mx6sdl/lib/libsdk.a(wm8958_dac.o)
                                                  /home/leon/git/swp-report/iMX6_Platform_SDK/output/mx6sdl/obds/evb_rev_a/obj/sdk/drivers/audio/src/snd_card.o
wm8958_i2c_req                                    /home/leon/git/swp-report/iMX6_Platform_SDK/output/mx6sdl/lib/libsdk.a(wm8958_dac.o)
wm8958_ops                                        /home/leon/git/swp-report/iMX6_Platform_SDK/output/mx6sdl/lib/libsdk.a(wm8958_dac.o)
wm8962                                            /home/leon/git/swp-report/iMX6_Platform_SDK/output/mx6sdl/lib/libsdk.a(wm8962.o)
                                                  /home/leon/git/swp-report/iMX6_Platform_SDK/output/mx6sdl/obds/evb_rev_a/obj/sdk/drivers/audio/src/snd_card.o
wm8962_i2c_req                                    /home/leon/git/swp-report/iMX6_Platform_SDK/output/mx6sdl/lib/libsdk.a(wm8962.o)
wm8962_ops                                        /home/leon/git/swp-report/iMX6_Platform_SDK/output/mx6sdl/lib/libsdk.a(wm8962.o)
write_protect_test_en                             /home/leon/git/swp-report/iMX6_Platform_SDK/output/mx6sdl/lib/libsdk.a(usdhc.o)
                                                  /home/leon/git/swp-report/iMX6_Platform_SDK/output/mx6sdl/obds/evb_rev_a/obj/apps/obds/src/tests/mmcsd_test.o
wv_data                                           /home/leon/git/swp-report/iMX6_Platform_SDK/output/mx6sdl/lib/libsdk.a(mxc_epdc.o)
xtalosc_iomux_config                              /home/leon/git/swp-report/iMX6_Platform_SDK/output/mx6sdl/lib/libboard_evb_rev_a.a(iomux_config.o)
