Archive member included because of file (symbol)

/home/leon/git/swp-report/iMX6_Platform_SDK/output/mx6sdl/lib/libsdk.a(max7310.o)
                              /home/leon/git/swp-report/iMX6_Platform_SDK/output/mx6sdl/obds/smart_device_rev_a/obj/apps/obds/src/tests/fm_tuner_si476x_test.o (max7310_set_gpio_output)
/home/leon/git/swp-report/iMX6_Platform_SDK/output/mx6sdl/lib/libsdk.a(ccm_pll.o)
                              /home/leon/git/swp-report/iMX6_Platform_SDK/output/mx6sdl/obds/smart_device_rev_a/obj/apps/common/platform_init.o (ccm_init)
/home/leon/git/swp-report/iMX6_Platform_SDK/output/mx6sdl/lib/libsdk.a(cortexA9.o)
                              /home/leon/git/swp-report/iMX6_Platform_SDK/output/mx6sdl/obds/smart_device_rev_a/obj/apps/common/platform_init.o (arm_set_interrupt_state)
/home/leon/git/swp-report/iMX6_Platform_SDK/output/mx6sdl/lib/libsdk.a(gic.o)
                              /home/leon/git/swp-report/iMX6_Platform_SDK/output/mx6sdl/obds/smart_device_rev_a/obj/apps/common/platform_init.o (gic_init)
/home/leon/git/swp-report/iMX6_Platform_SDK/output/mx6sdl/lib/libsdk.a(interrupt.o)
                              /home/leon/git/swp-report/iMX6_Platform_SDK/output/mx6sdl/obds/smart_device_rev_a/obj/sdk/drivers/hdmi/test/hdmi_test.o (disable_interrupt)
/home/leon/git/swp-report/iMX6_Platform_SDK/output/mx6sdl/lib/libsdk.a(mmu.o)
                              /home/leon/git/swp-report/iMX6_Platform_SDK/output/mx6sdl/obds/smart_device_rev_a/obj/apps/common/platform_init.o (mmu_init)
/home/leon/git/swp-report/iMX6_Platform_SDK/output/mx6sdl/lib/libsdk.a(startup.o)
                              (_start)
/home/leon/git/swp-report/iMX6_Platform_SDK/output/mx6sdl/lib/libsdk.a(vectors.o)
                              /home/leon/git/swp-report/iMX6_Platform_SDK/output/mx6sdl/lib/libsdk.a(startup.o) (vectors)
/home/leon/git/swp-report/iMX6_Platform_SDK/output/mx6sdl/lib/libsdk.a(menu.o)
                              /home/leon/git/swp-report/iMX6_Platform_SDK/output/mx6sdl/obds/smart_device_rev_a/obj/apps/obds/src/obds.o (menu_get_indent)
/home/leon/git/swp-report/iMX6_Platform_SDK/output/mx6sdl/lib/libsdk.a(sdk_version.o)
                              /home/leon/git/swp-report/iMX6_Platform_SDK/output/mx6sdl/obds/smart_device_rev_a/obj/apps/common/print_version.o (k_sdk_version)
/home/leon/git/swp-report/iMX6_Platform_SDK/output/mx6sdl/lib/libsdk.a(system_util.o)
                              /home/leon/git/swp-report/iMX6_Platform_SDK/output/mx6sdl/lib/libsdk.a(startup.o) (_sys_exit)
/home/leon/git/swp-report/iMX6_Platform_SDK/output/mx6sdl/lib/libsdk.a(text_color.o)
                              /home/leon/git/swp-report/iMX6_Platform_SDK/output/mx6sdl/obds/smart_device_rev_a/obj/apps/obds/src/obds.o (g_TextAttributeDefault)
/home/leon/git/swp-report/iMX6_Platform_SDK/output/mx6sdl/lib/libsdk.a(cs42888.o)
                              /home/leon/git/swp-report/iMX6_Platform_SDK/output/mx6sdl/obds/smart_device_rev_a/obj/apps/obds/src/tests/i2c_device_check_cs42888.o (cs42888_init)
/home/leon/git/swp-report/iMX6_Platform_SDK/output/mx6sdl/lib/libsdk.a(imx-ssi.o)
                              /home/leon/git/swp-report/iMX6_Platform_SDK/output/mx6sdl/obds/smart_device_rev_a/obj/sdk/drivers/audio/src/snd_card.o (imx_ssi_2)
/home/leon/git/swp-report/iMX6_Platform_SDK/output/mx6sdl/lib/libsdk.a(imx_audmux.o)
                              /home/leon/git/swp-report/iMX6_Platform_SDK/output/mx6sdl/obds/smart_device_rev_a/obj/apps/obds/src/tests/audio_ssi_test.o (audmux_route)
/home/leon/git/swp-report/iMX6_Platform_SDK/output/mx6sdl/lib/libsdk.a(imx_esai.o)
                              /home/leon/git/swp-report/iMX6_Platform_SDK/output/mx6sdl/obds/smart_device_rev_a/obj/sdk/drivers/audio/src/snd_card.o (imx_esai_1)
/home/leon/git/swp-report/iMX6_Platform_SDK/output/mx6sdl/lib/libsdk.a(imx_spdif.o)
                              /home/leon/git/swp-report/iMX6_Platform_SDK/output/mx6sdl/obds/smart_device_rev_a/obj/sdk/drivers/audio/src/snd_card.o (imx_spdif)
/home/leon/git/swp-report/iMX6_Platform_SDK/output/mx6sdl/lib/libsdk.a(sgtl5000.o)
                              /home/leon/git/swp-report/iMX6_Platform_SDK/output/mx6sdl/obds/smart_device_rev_a/obj/sdk/drivers/audio/src/snd_card.o (sgtl5000)
/home/leon/git/swp-report/iMX6_Platform_SDK/output/mx6sdl/lib/libsdk.a(wm8958_dac.o)
                              /home/leon/git/swp-report/iMX6_Platform_SDK/output/mx6sdl/obds/smart_device_rev_a/obj/sdk/drivers/audio/src/snd_card.o (wm8958)
/home/leon/git/swp-report/iMX6_Platform_SDK/output/mx6sdl/lib/libsdk.a(wm8962.o)
                              /home/leon/git/swp-report/iMX6_Platform_SDK/output/mx6sdl/obds/smart_device_rev_a/obj/sdk/drivers/audio/src/snd_card.o (wm8962)
/home/leon/git/swp-report/iMX6_Platform_SDK/output/mx6sdl/lib/libsdk.a(board_id.o)
                              /home/leon/git/swp-report/iMX6_Platform_SDK/output/mx6sdl/obds/smart_device_rev_a/obj/apps/common/print_version.o (chip_name)
/home/leon/git/swp-report/iMX6_Platform_SDK/output/mx6sdl/lib/libsdk.a(smd_sensor.o)
                              /home/leon/git/swp-report/iMX6_Platform_SDK/output/mx6sdl/obds/smart_device_rev_a/obj/sdk/drivers/camera/test/sensor_capture.o (sensor_config)
/home/leon/git/swp-report/iMX6_Platform_SDK/output/mx6sdl/lib/libsdk.a(enet_drv.o)
                              /home/leon/git/swp-report/iMX6_Platform_SDK/output/mx6sdl/obds/smart_device_rev_a/obj/apps/obds/src/tests/enet_mx6dldq_test.o (imx_enet_phy_init)
/home/leon/git/swp-report/iMX6_Platform_SDK/output/mx6sdl/lib/libsdk.a(mxc_epdc.o)
                              /home/leon/git/swp-report/iMX6_Platform_SDK/output/mx6sdl/obds/smart_device_rev_a/obj/sdk/drivers/epdc/test/epdc_test.o (epdc_reset)
/home/leon/git/swp-report/iMX6_Platform_SDK/output/mx6sdl/lib/libsdk.a(gpio.o)
                              /home/leon/git/swp-report/iMX6_Platform_SDK/output/mx6sdl/obds/smart_device_rev_a/obj/apps/obds/src/tests/i2c_device_id_check_mma8451.o (gpio_set_gpio)
/home/leon/git/swp-report/iMX6_Platform_SDK/output/mx6sdl/lib/libsdk.a(imx6sdl_gpio_map.o)
                              /home/leon/git/swp-report/iMX6_Platform_SDK/output/mx6sdl/lib/libsdk.a(gpio.o) (k_gpio_mux_registers)
/home/leon/git/swp-report/iMX6_Platform_SDK/output/mx6sdl/lib/libsdk.a(hdmi_tx.o)
                              /home/leon/git/swp-report/iMX6_Platform_SDK/output/mx6sdl/obds/smart_device_rev_a/obj/apps/obds/src/tests/display_test.o (hdmi_config_input_source)
/home/leon/git/swp-report/iMX6_Platform_SDK/output/mx6sdl/lib/libsdk.a(hdmi_tx_audio.o)
                              /home/leon/git/swp-report/iMX6_Platform_SDK/output/mx6sdl/obds/smart_device_rev_a/obj/apps/obds/src/tests/display_test.o (hdmi_audio_mute)
/home/leon/git/swp-report/iMX6_Platform_SDK/output/mx6sdl/lib/libsdk.a(hdmi_tx_phy.o)
                              /home/leon/git/swp-report/iMX6_Platform_SDK/output/mx6sdl/obds/smart_device_rev_a/obj/apps/obds/src/tests/display_test.o (hdmi_phy_init)
/home/leon/git/swp-report/iMX6_Platform_SDK/output/mx6sdl/lib/libsdk.a(imx_i2c.o)
                              /home/leon/git/swp-report/iMX6_Platform_SDK/output/mx6sdl/obds/smart_device_rev_a/obj/apps/obds/src/tests/fm_tuner_si476x_test.o (i2c_xfer)
/home/leon/git/swp-report/iMX6_Platform_SDK/output/mx6sdl/lib/libsdk.a(ips_disp_panel.o)
                              /home/leon/git/swp-report/iMX6_Platform_SDK/output/mx6sdl/obds/smart_device_rev_a/obj/apps/obds/src/tests/display_test.o (search_panel)
/home/leon/git/swp-report/iMX6_Platform_SDK/output/mx6sdl/lib/libsdk.a(ipu_common.o)
                              /home/leon/git/swp-report/iMX6_Platform_SDK/output/mx6sdl/obds/smart_device_rev_a/obj/apps/obds/src/tests/display_test.o (ipu_enable_display)
/home/leon/git/swp-report/iMX6_Platform_SDK/output/mx6sdl/lib/libsdk.a(ipu_csi.o)
                              /home/leon/git/swp-report/iMX6_Platform_SDK/output/mx6sdl/lib/libsdk.a(ipu_common.o) (ipu_csi_config)
/home/leon/git/swp-report/iMX6_Platform_SDK/output/mx6sdl/lib/libsdk.a(ipu_dc.o)
                              /home/leon/git/swp-report/iMX6_Platform_SDK/output/mx6sdl/lib/libsdk.a(ipu_common.o) (ipu_dc_config)
/home/leon/git/swp-report/iMX6_Platform_SDK/output/mx6sdl/lib/libsdk.a(ipu_di.o)
                              /home/leon/git/swp-report/iMX6_Platform_SDK/output/mx6sdl/lib/libsdk.a(ipu_common.o) (ipu_di_config)
/home/leon/git/swp-report/iMX6_Platform_SDK/output/mx6sdl/lib/libsdk.a(ipu_dmfc.o)
                              /home/leon/git/swp-report/iMX6_Platform_SDK/output/mx6sdl/lib/libsdk.a(ipu_common.o) (ipu_dmfc_config)
/home/leon/git/swp-report/iMX6_Platform_SDK/output/mx6sdl/lib/libsdk.a(ipu_dp.o)
                              /home/leon/git/swp-report/iMX6_Platform_SDK/output/mx6sdl/lib/libsdk.a(ipu_common.o) (ipu_dp_config)
/home/leon/git/swp-report/iMX6_Platform_SDK/output/mx6sdl/lib/libsdk.a(ipu_idmac.o)
                              /home/leon/git/swp-report/iMX6_Platform_SDK/output/mx6sdl/lib/libsdk.a(ipu_common.o) (ipu_cpmem_set_field)
/home/leon/git/swp-report/iMX6_Platform_SDK/output/mx6sdl/lib/libsdk.a(ipu_vdi.o)
                              /home/leon/git/swp-report/iMX6_Platform_SDK/output/mx6sdl/lib/libsdk.a(ipu_common.o) (ips_deinterlace_proc)
/home/leon/git/swp-report/iMX6_Platform_SDK/output/mx6sdl/lib/libsdk.a(ldb.o)
                              /home/leon/git/swp-report/iMX6_Platform_SDK/output/mx6sdl/lib/libsdk.a(ips_disp_panel.o) (ldb_config)
/home/leon/git/swp-report/iMX6_Platform_SDK/output/mx6sdl/lib/libsdk.a(ocotp.o)
                              /home/leon/git/swp-report/iMX6_Platform_SDK/output/mx6sdl/obds/smart_device_rev_a/obj/apps/obds/src/tests/program_board_id.o (ocotp_sense_fuse)
/home/leon/git/swp-report/iMX6_Platform_SDK/output/mx6sdl/lib/libsdk.a(ecspi.o)
                              /home/leon/git/swp-report/iMX6_Platform_SDK/output/mx6sdl/obds/smart_device_rev_a/obj/apps/obds/src/tests/imx_spi_nor_test.o (ecspi_open)
/home/leon/git/swp-report/iMX6_Platform_SDK/output/mx6sdl/lib/libsdk.a(timer.o)
                              /home/leon/git/swp-report/iMX6_Platform_SDK/output/mx6sdl/obds/smart_device_rev_a/obj/apps/obds/src/tests/enet_mx6dldq_test.o (hal_delay_us)
/home/leon/git/swp-report/iMX6_Platform_SDK/output/mx6sdl/lib/libsdk.a(imx_uart.o)
                              /home/leon/git/swp-report/iMX6_Platform_SDK/output/mx6sdl/obds/smart_device_rev_a/obj/sdk/drivers/uart/test/uart_test.o (uart_putchar)
/home/leon/git/swp-report/iMX6_Platform_SDK/output/mx6sdl/lib/libsdk.a(usb_common.o)
                              /home/leon/git/swp-report/iMX6_Platform_SDK/output/mx6sdl/obds/smart_device_rev_a/obj/apps/obds/src/tests/usb_tests_obds.o (usb_get_port_speed)
/home/leon/git/swp-report/iMX6_Platform_SDK/output/mx6sdl/lib/libsdk.a(usbh_drv.o)
                              /home/leon/git/swp-report/iMX6_Platform_SDK/output/mx6sdl/obds/smart_device_rev_a/obj/apps/obds/src/tests/usb_tests_obds.o (usbh_init)
/home/leon/git/swp-report/iMX6_Platform_SDK/output/mx6sdl/lib/libsdk.a(usdhc.o)
                              /home/leon/git/swp-report/iMX6_Platform_SDK/output/mx6sdl/obds/smart_device_rev_a/obj/apps/obds/src/tests/mmcsd_test.o (card_detect_test_en)
/home/leon/git/swp-report/iMX6_Platform_SDK/output/mx6sdl/lib/libsdk.a(usdhc_host.o)
                              /home/leon/git/swp-report/iMX6_Platform_SDK/output/mx6sdl/lib/libsdk.a(usdhc.o) (usdhc1_isr)
/home/leon/git/swp-report/iMX6_Platform_SDK/output/mx6sdl/lib/libsdk.a(usdhc_mmc.o)
                              /home/leon/git/swp-report/iMX6_Platform_SDK/output/mx6sdl/lib/libsdk.a(usdhc.o) (mmc_init)
/home/leon/git/swp-report/iMX6_Platform_SDK/output/mx6sdl/lib/libsdk.a(usdhc_sd.o)
                              /home/leon/git/swp-report/iMX6_Platform_SDK/output/mx6sdl/lib/libsdk.a(usdhc.o) (sd_init)
/home/leon/git/swp-report/iMX6_Platform_SDK/output/mx6sdl/lib/libsdk.a(arm_abort.o)
                              /home/leon/git/swp-report/iMX6_Platform_SDK/output/mx6sdl/lib/libsdk.a(vectors.o) (data_abort_handler)
/home/leon/git/swp-report/iMX6_Platform_SDK/output/mx6sdl/lib/libsdk.a(armv7_cache.o)
                              /home/leon/git/swp-report/iMX6_Platform_SDK/output/mx6sdl/lib/libsdk.a(usdhc.o) (arm_dcache_state_query)
/home/leon/git/swp-report/iMX6_Platform_SDK/output/mx6sdl/lib/libsdk.a(camera_profile.o)
                              /home/leon/git/swp-report/iMX6_Platform_SDK/output/mx6sdl/lib/libsdk.a(smd_sensor.o) (g_camera_profiles)
/home/leon/git/swp-report/iMX6_Platform_SDK/output/mx6sdl/lib/libsdk.a(hdmi_common.o)
                              /home/leon/git/swp-report/iMX6_Platform_SDK/output/mx6sdl/lib/libsdk.a(hdmi_tx.o) (isColorSpaceConversion)
/home/leon/git/swp-report/iMX6_Platform_SDK/output/mx6sdl/lib/libsdk.a(ipu_ic.o)
                              /home/leon/git/swp-report/iMX6_Platform_SDK/output/mx6sdl/lib/libsdk.a(ipu_vdi.o) (ipu_ic_enable)
/home/leon/git/swp-report/iMX6_Platform_SDK/output/mx6sdl/lib/libsdk.a(epit.o)
                              /home/leon/git/swp-report/iMX6_Platform_SDK/output/mx6sdl/lib/libsdk.a(timer.o) (epit_get_compare_event)
/home/leon/git/swp-report/iMX6_Platform_SDK/output/mx6sdl/lib/libsdk.a(mx6x_usb.o)
                              /home/leon/git/swp-report/iMX6_Platform_SDK/output/mx6sdl/lib/libsdk.a(usbh_drv.o) (usbEnableClocks)
/home/leon/git/swp-report/iMX6_Platform_SDK/output/mx6sdl/lib/libsdk.a(abort_handler.o)
                              /home/leon/git/swp-report/iMX6_Platform_SDK/output/mx6sdl/lib/libsdk.a(arm_abort.o) (dump_regs)
/home/leon/git/swp-report/iMX6_Platform_SDK/output/mx6sdl/lib/libboard_smart_device_rev_a.a(board_audio.o)
                              /home/leon/git/swp-report/iMX6_Platform_SDK/output/mx6sdl/lib/libsdk.a(sgtl5000.o) (SGTL5000PowerUp_and_clockinit)
/home/leon/git/swp-report/iMX6_Platform_SDK/output/mx6sdl/lib/libboard_smart_device_rev_a.a(board_buttons.o)
                              /home/leon/git/swp-report/iMX6_Platform_SDK/output/mx6sdl/obds/smart_device_rev_a/obj/apps/obds/src/tests/android_buttons_test.o (android_buttons_iomux_config)
/home/leon/git/swp-report/iMX6_Platform_SDK/output/mx6sdl/lib/libboard_smart_device_rev_a.a(board_camera.o)
                              /home/leon/git/swp-report/iMX6_Platform_SDK/output/mx6sdl/lib/libsdk.a(smd_sensor.o) (g_camera_i2c_port)
/home/leon/git/swp-report/iMX6_Platform_SDK/output/mx6sdl/lib/libboard_smart_device_rev_a.a(board_display.o)
                              /home/leon/git/swp-report/iMX6_Platform_SDK/output/mx6sdl/lib/libsdk.a(ips_disp_panel.o) (lvds_power_on)
/home/leon/git/swp-report/iMX6_Platform_SDK/output/mx6sdl/lib/libboard_smart_device_rev_a.a(board_hdmi.o)
                              /home/leon/git/swp-report/iMX6_Platform_SDK/output/mx6sdl/lib/libsdk.a(ips_disp_panel.o) (hdmi_pgm_iomux)
/home/leon/git/swp-report/iMX6_Platform_SDK/output/mx6sdl/lib/libboard_smart_device_rev_a.a(board_i2c.o)
                              /home/leon/git/swp-report/iMX6_Platform_SDK/output/mx6sdl/lib/libsdk.a(wm8958_dac.o) (g_wm8958_i2c_device)
/home/leon/git/swp-report/iMX6_Platform_SDK/output/mx6sdl/lib/libboard_smart_device_rev_a.a(board_io_expanders.o)
                              /home/leon/git/swp-report/iMX6_Platform_SDK/output/mx6sdl/lib/libsdk.a(max7310.o) (max7310_i2c_req_array)
/home/leon/git/swp-report/iMX6_Platform_SDK/output/mx6sdl/lib/libboard_smart_device_rev_a.a(board_mipi.o)
                              /home/leon/git/swp-report/iMX6_Platform_SDK/output/mx6sdl/lib/libsdk.a(ips_disp_panel.o) (mipi_backlight_en)
/home/leon/git/swp-report/iMX6_Platform_SDK/output/mx6sdl/lib/libboard_smart_device_rev_a.a(board_network.o)
                              /home/leon/git/swp-report/iMX6_Platform_SDK/output/mx6sdl/obds/smart_device_rev_a/obj/apps/obds/src/tests/enet_mx6dldq_test.o (imx_KSZ9021RN_reset)
/home/leon/git/swp-report/iMX6_Platform_SDK/output/mx6sdl/lib/libboard_smart_device_rev_a.a(board_usb.o)
                              /home/leon/git/swp-report/iMX6_Platform_SDK/output/mx6sdl/lib/libsdk.a(usbh_drv.o) (usbEnableVbus)
/home/leon/git/swp-report/iMX6_Platform_SDK/output/mx6sdl/lib/libboard_smart_device_rev_a.a(board_usdhc.o)
                              /home/leon/git/swp-report/iMX6_Platform_SDK/output/mx6sdl/lib/libsdk.a(usdhc_host.o) (usdhc_gpio_config)
/home/leon/git/swp-report/iMX6_Platform_SDK/output/mx6sdl/lib/libboard_smart_device_rev_a.a(hardware_modules.o)
                              /home/leon/git/swp-report/iMX6_Platform_SDK/output/mx6sdl/obds/smart_device_rev_a/obj/apps/common/platform_init.o (g_debug_uart_port)
/home/leon/git/swp-report/iMX6_Platform_SDK/output/mx6sdl/lib/libboard_smart_device_rev_a.a(dcd.o)
                              /home/leon/git/swp-report/iMX6_Platform_SDK/output/mx6sdl/obds/smart_device_rev_a/obj/apps/common/ivt.o (input_dcd_hdr)
/home/leon/git/swp-report/iMX6_Platform_SDK/output/mx6sdl/lib/libboard_smart_device_rev_a.a(audmux_iomux_config.o)
                              /home/leon/git/swp-report/iMX6_Platform_SDK/output/mx6sdl/lib/libsdk.a(imx-ssi.o) (audmux_iomux_config)
/home/leon/git/swp-report/iMX6_Platform_SDK/output/mx6sdl/lib/libboard_smart_device_rev_a.a(ccm_iomux_config.o)
                              /home/leon/git/swp-report/iMX6_Platform_SDK/output/mx6sdl/lib/libboard_smart_device_rev_a.a(board_audio.o) (ccm_iomux_config)
/home/leon/git/swp-report/iMX6_Platform_SDK/output/mx6sdl/lib/libboard_smart_device_rev_a.a(ecspi_iomux_config.o)
                              /home/leon/git/swp-report/iMX6_Platform_SDK/output/mx6sdl/lib/libsdk.a(ecspi.o) (ecspi_iomux_config)
/home/leon/git/swp-report/iMX6_Platform_SDK/output/mx6sdl/lib/libboard_smart_device_rev_a.a(enet_iomux_config.o)
                              /home/leon/git/swp-report/iMX6_Platform_SDK/output/mx6sdl/lib/libboard_smart_device_rev_a.a(board_network.o) (enet_iomux_config)
/home/leon/git/swp-report/iMX6_Platform_SDK/output/mx6sdl/lib/libboard_smart_device_rev_a.a(epdc_iomux_config.o)
                              /home/leon/git/swp-report/iMX6_Platform_SDK/output/mx6sdl/obds/smart_device_rev_a/obj/sdk/drivers/epdc/test/epdc_test.o (epdc_iomux_config)
/home/leon/git/swp-report/iMX6_Platform_SDK/output/mx6sdl/lib/libboard_smart_device_rev_a.a(i2c_iomux_config.o)
                              /home/leon/git/swp-report/iMX6_Platform_SDK/output/mx6sdl/lib/libsdk.a(imx_i2c.o) (i2c_iomux_config)
/home/leon/git/swp-report/iMX6_Platform_SDK/output/mx6sdl/lib/libboard_smart_device_rev_a.a(iomux_config.o)
                              /home/leon/git/swp-report/iMX6_Platform_SDK/output/mx6sdl/lib/libboard_smart_device_rev_a.a(ecspi_iomux_config.o) (ecspi2_iomux_config)
/home/leon/git/swp-report/iMX6_Platform_SDK/output/mx6sdl/lib/libboard_smart_device_rev_a.a(ipu1_iomux_config.o)
                              /home/leon/git/swp-report/iMX6_Platform_SDK/output/mx6sdl/obds/smart_device_rev_a/obj/sdk/drivers/camera/test/csi_test_mode.o (ipu1_iomux_config)
/home/leon/git/swp-report/iMX6_Platform_SDK/output/mx6sdl/lib/libboard_smart_device_rev_a.a(ipu_iomux_config.o)
                              /home/leon/git/swp-report/iMX6_Platform_SDK/output/mx6sdl/obds/smart_device_rev_a/obj/apps/obds/src/tests/display_test.o (ipu_iomux_config)
/home/leon/git/swp-report/iMX6_Platform_SDK/output/mx6sdl/lib/libboard_smart_device_rev_a.a(kpp_iomux_config.o)
                              /home/leon/git/swp-report/iMX6_Platform_SDK/output/mx6sdl/lib/libboard_smart_device_rev_a.a(iomux_config.o) (kpp_iomux_config)
/home/leon/git/swp-report/iMX6_Platform_SDK/output/mx6sdl/lib/libboard_smart_device_rev_a.a(mmdc_iomux_config.o)
                              /home/leon/git/swp-report/iMX6_Platform_SDK/output/mx6sdl/lib/libboard_smart_device_rev_a.a(iomux_config.o) (mmdc_iomux_config)
/home/leon/git/swp-report/iMX6_Platform_SDK/output/mx6sdl/lib/libboard_smart_device_rev_a.a(pwm1_iomux_config.o)
                              /home/leon/git/swp-report/iMX6_Platform_SDK/output/mx6sdl/lib/libboard_smart_device_rev_a.a(iomux_config.o) (pwm1_iomux_config)
/home/leon/git/swp-report/iMX6_Platform_SDK/output/mx6sdl/lib/libboard_smart_device_rev_a.a(sjc_iomux_config.o)
                              /home/leon/git/swp-report/iMX6_Platform_SDK/output/mx6sdl/lib/libboard_smart_device_rev_a.a(iomux_config.o) (sjc_iomux_config)
/home/leon/git/swp-report/iMX6_Platform_SDK/output/mx6sdl/lib/libboard_smart_device_rev_a.a(uart1_iomux_config.o)
                              /home/leon/git/swp-report/iMX6_Platform_SDK/output/mx6sdl/lib/libboard_smart_device_rev_a.a(iomux_config.o) (uart1_iomux_config)
/home/leon/git/swp-report/iMX6_Platform_SDK/output/mx6sdl/lib/libboard_smart_device_rev_a.a(uart_iomux_config.o)
                              /home/leon/git/swp-report/iMX6_Platform_SDK/output/mx6sdl/lib/libsdk.a(imx_uart.o) (uart_iomux_config)
/home/leon/git/swp-report/iMX6_Platform_SDK/output/mx6sdl/lib/libboard_smart_device_rev_a.a(usdhc2_iomux_config.o)
                              /home/leon/git/swp-report/iMX6_Platform_SDK/output/mx6sdl/lib/libboard_smart_device_rev_a.a(iomux_config.o) (usdhc2_iomux_config)
/home/leon/git/swp-report/iMX6_Platform_SDK/output/mx6sdl/lib/libboard_smart_device_rev_a.a(usdhc3_iomux_config.o)
                              /home/leon/git/swp-report/iMX6_Platform_SDK/output/mx6sdl/lib/libboard_smart_device_rev_a.a(iomux_config.o) (usdhc3_iomux_config)
/home/leon/git/swp-report/iMX6_Platform_SDK/output/mx6sdl/lib/libboard_smart_device_rev_a.a(usdhc4_iomux_config.o)
                              /home/leon/git/swp-report/iMX6_Platform_SDK/output/mx6sdl/lib/libboard_smart_device_rev_a.a(iomux_config.o) (usdhc4_iomux_config)
/home/leon/git/swp-report/iMX6_Platform_SDK/output/mx6sdl/lib/libboard_smart_device_rev_a.a(usdhc_iomux_config.o)
                              /home/leon/git/swp-report/iMX6_Platform_SDK/output/mx6sdl/lib/libsdk.a(usdhc_host.o) (usdhc_iomux_config)
/home/leon/git/swp-report/iMX6_Platform_SDK/output/mx6sdl/lib/libboard_smart_device_rev_a.a(ecspi1_iomux_config.o)
                              /home/leon/git/swp-report/iMX6_Platform_SDK/output/mx6sdl/lib/libboard_smart_device_rev_a.a(ecspi_iomux_config.o) (ecspi1_iomux_config)
/home/leon/git/swp-report/iMX6_Platform_SDK/output/mx6sdl/lib/libboard_smart_device_rev_a.a(flexcan1_iomux_config.o)
                              /home/leon/git/swp-report/iMX6_Platform_SDK/output/mx6sdl/lib/libboard_smart_device_rev_a.a(iomux_config.o) (flexcan1_iomux_config)
/home/leon/git/swp-report/iMX6_Platform_SDK/output/mx6sdl/lib/libboard_smart_device_rev_a.a(gpio1_iomux_config.o)
                              /home/leon/git/swp-report/iMX6_Platform_SDK/output/mx6sdl/lib/libboard_smart_device_rev_a.a(iomux_config.o) (gpio1_iomux_config)
/home/leon/git/swp-report/iMX6_Platform_SDK/output/mx6sdl/lib/libboard_smart_device_rev_a.a(gpio2_iomux_config.o)
                              /home/leon/git/swp-report/iMX6_Platform_SDK/output/mx6sdl/lib/libboard_smart_device_rev_a.a(iomux_config.o) (gpio2_iomux_config)
/home/leon/git/swp-report/iMX6_Platform_SDK/output/mx6sdl/lib/libboard_smart_device_rev_a.a(gpio3_iomux_config.o)
                              /home/leon/git/swp-report/iMX6_Platform_SDK/output/mx6sdl/lib/libboard_smart_device_rev_a.a(iomux_config.o) (gpio3_iomux_config)
/home/leon/git/swp-report/iMX6_Platform_SDK/output/mx6sdl/lib/libboard_smart_device_rev_a.a(gpio4_iomux_config.o)
                              /home/leon/git/swp-report/iMX6_Platform_SDK/output/mx6sdl/lib/libboard_smart_device_rev_a.a(iomux_config.o) (gpio4_iomux_config)
/home/leon/git/swp-report/iMX6_Platform_SDK/output/mx6sdl/lib/libboard_smart_device_rev_a.a(gpio5_iomux_config.o)
                              /home/leon/git/swp-report/iMX6_Platform_SDK/output/mx6sdl/lib/libboard_smart_device_rev_a.a(iomux_config.o) (gpio5_iomux_config)
/home/leon/git/swp-report/iMX6_Platform_SDK/output/mx6sdl/lib/libboard_smart_device_rev_a.a(gpio6_iomux_config.o)
                              /home/leon/git/swp-report/iMX6_Platform_SDK/output/mx6sdl/lib/libboard_smart_device_rev_a.a(iomux_config.o) (gpio6_iomux_config)
/home/leon/git/swp-report/iMX6_Platform_SDK/output/mx6sdl/lib/libboard_smart_device_rev_a.a(gpio7_iomux_config.o)
                              /home/leon/git/swp-report/iMX6_Platform_SDK/output/mx6sdl/lib/libboard_smart_device_rev_a.a(iomux_config.o) (gpio7_iomux_config)
/home/leon/git/swp-report/iMX6_Platform_SDK/output/mx6sdl/lib/libboard_smart_device_rev_a.a(gps_iomux_config.o)
                              /home/leon/git/swp-report/iMX6_Platform_SDK/output/mx6sdl/lib/libboard_smart_device_rev_a.a(iomux_config.o) (gps_iomux_config)
/home/leon/git/swp-report/iMX6_Platform_SDK/output/mx6sdl/lib/libboard_smart_device_rev_a.a(i2c1_iomux_config.o)
                              /home/leon/git/swp-report/iMX6_Platform_SDK/output/mx6sdl/lib/libboard_smart_device_rev_a.a(i2c_iomux_config.o) (i2c1_iomux_config)
/home/leon/git/swp-report/iMX6_Platform_SDK/output/mx6sdl/lib/libboard_smart_device_rev_a.a(i2c2_iomux_config.o)
                              /home/leon/git/swp-report/iMX6_Platform_SDK/output/mx6sdl/lib/libboard_smart_device_rev_a.a(i2c_iomux_config.o) (i2c2_iomux_config)
/home/leon/git/swp-report/iMX6_Platform_SDK/output/mx6sdl/lib/libboard_smart_device_rev_a.a(i2c3_iomux_config.o)
                              /home/leon/git/swp-report/iMX6_Platform_SDK/output/mx6sdl/lib/libboard_smart_device_rev_a.a(i2c_iomux_config.o) (i2c3_iomux_config)
/home/src/arm/target/bin/../arm-none-eabi/lib//libc.a(lib_a-assert.o)
                              /home/leon/git/swp-report/iMX6_Platform_SDK/output/mx6sdl/lib/libsdk.a(gic.o) (__assert_func)
/home/src/arm/target/bin/../arm-none-eabi/lib//libc.a(lib_a-bzero.o)
                              /home/leon/git/swp-report/iMX6_Platform_SDK/output/mx6sdl/lib/libsdk.a(mmu.o) (bzero)
/home/src/arm/target/bin/../arm-none-eabi/lib//libc.a(lib_a-fiprintf.o)
                              /home/src/arm/target/bin/../arm-none-eabi/lib//libc.a(lib_a-assert.o) (fiprintf)
/home/src/arm/target/bin/../arm-none-eabi/lib//libc.a(lib_a-fputc.o)
                              /home/leon/git/swp-report/iMX6_Platform_SDK/output/mx6sdl/obds/smart_device_rev_a/obj/apps/obds/src/tests/program_mac_address.o (fputc)
/home/src/arm/target/bin/../arm-none-eabi/lib//libc.a(lib_a-impure.o)
                              /home/leon/git/swp-report/iMX6_Platform_SDK/output/mx6sdl/obds/smart_device_rev_a/obj/apps/obds/src/tests/android_buttons_test.o (_impure_ptr)
/home/src/arm/target/bin/../arm-none-eabi/lib//libc.a(lib_a-init.o)
                              /home/leon/git/swp-report/iMX6_Platform_SDK/output/mx6sdl/lib/libsdk.a(startup.o) (__libc_init_array)
/home/src/arm/target/bin/../arm-none-eabi/lib//libc.a(lib_a-malloc.o)
                              /home/leon/git/swp-report/iMX6_Platform_SDK/output/mx6sdl/obds/smart_device_rev_a/obj/apps/obds/src/obds.o (malloc)
/home/src/arm/target/bin/../arm-none-eabi/lib//libc.a(lib_a-mallocr.o)
                              /home/src/arm/target/bin/../arm-none-eabi/lib//libc.a(lib_a-malloc.o) (_malloc_r)
/home/src/arm/target/bin/../arm-none-eabi/lib//libc.a(lib_a-memcpy-stub.o)
                              /home/leon/git/swp-report/iMX6_Platform_SDK/output/mx6sdl/obds/smart_device_rev_a/obj/apps/obds/src/tests/audio_esai_test.o (memcpy)
/home/src/arm/target/bin/../arm-none-eabi/lib//libc.a(lib_a-memset.o)
                              /home/leon/git/swp-report/iMX6_Platform_SDK/output/mx6sdl/obds/smart_device_rev_a/obj/apps/common/print_version.o (memset)
/home/src/arm/target/bin/../arm-none-eabi/lib//libc.a(lib_a-mlock.o)
                              /home/src/arm/target/bin/../arm-none-eabi/lib//libc.a(lib_a-mallocr.o) (__malloc_lock)
/home/src/arm/target/bin/../arm-none-eabi/lib//libc.a(lib_a-printf.o)
                              /home/leon/git/swp-report/iMX6_Platform_SDK/output/mx6sdl/obds/smart_device_rev_a/obj/apps/common/print_clock_info.o (printf)
/home/src/arm/target/bin/../arm-none-eabi/lib//libc.a(lib_a-putc.o)
                              /home/src/arm/target/bin/../arm-none-eabi/lib//libc.a(lib_a-fputc.o) (_putc_r)
/home/src/arm/target/bin/../arm-none-eabi/lib//libc.a(lib_a-realloc.o)
                              /home/leon/git/swp-report/iMX6_Platform_SDK/output/mx6sdl/lib/libsdk.a(system_util.o) (realloc)
/home/src/arm/target/bin/../arm-none-eabi/lib//libc.a(lib_a-reallocr.o)
                              /home/src/arm/target/bin/../arm-none-eabi/lib//libc.a(lib_a-realloc.o) (_realloc_r)
/home/src/arm/target/bin/../arm-none-eabi/lib//libc.a(lib_a-rget.o)
                              /home/leon/git/swp-report/iMX6_Platform_SDK/output/mx6sdl/obds/smart_device_rev_a/obj/apps/obds/src/tests/android_buttons_test.o (__srget_r)
/home/src/arm/target/bin/../arm-none-eabi/lib//libc.a(lib_a-sbrkr.o)
                              /home/src/arm/target/bin/../arm-none-eabi/lib//libc.a(lib_a-mallocr.o) (_sbrk_r)
/home/src/arm/target/bin/../arm-none-eabi/lib//libc.a(lib_a-sprintf.o)
                              /home/leon/git/swp-report/iMX6_Platform_SDK/output/mx6sdl/obds/smart_device_rev_a/obj/apps/obds/src/obds.o (sprintf)
/home/src/arm/target/bin/../arm-none-eabi/lib//libc.a(lib_a-strcat.o)
                              /home/leon/git/swp-report/iMX6_Platform_SDK/output/mx6sdl/obds/smart_device_rev_a/obj/apps/obds/src/obds.o (strcat)
/home/src/arm/target/bin/../arm-none-eabi/lib//libc.a(lib_a-strcmp.o)
                              /home/leon/git/swp-report/iMX6_Platform_SDK/output/mx6sdl/obds/smart_device_rev_a/obj/apps/obds/src/obds.o (strcmp)
/home/src/arm/target/bin/../arm-none-eabi/lib//libc.a(lib_a-strcpy.o)
                              /home/leon/git/swp-report/iMX6_Platform_SDK/output/mx6sdl/obds/smart_device_rev_a/obj/apps/obds/src/obds.o (strcpy)
/home/src/arm/target/bin/../arm-none-eabi/lib//libc.a(lib_a-strlen.o)
                              /home/leon/git/swp-report/iMX6_Platform_SDK/output/mx6sdl/lib/libsdk.a(menu.o) (strlen)
/home/src/arm/target/bin/../arm-none-eabi/lib//libc.a(lib_a-strncasecmp.o)
                              /home/leon/git/swp-report/iMX6_Platform_SDK/output/mx6sdl/lib/libsdk.a(menu.o) (strncasecmp)
/home/src/arm/target/bin/../arm-none-eabi/lib//libc.a(lib_a-strtok.o)
                              /home/leon/git/swp-report/iMX6_Platform_SDK/output/mx6sdl/obds/smart_device_rev_a/obj/apps/obds/src/obds.o (strtok)
/home/src/arm/target/bin/../arm-none-eabi/lib//libc.a(lib_a-strtok_r.o)
                              /home/src/arm/target/bin/../arm-none-eabi/lib//libc.a(lib_a-strtok.o) (__strtok_r)
/home/src/arm/target/bin/../arm-none-eabi/lib//libc.a(lib_a-svfprintf.o)
                              /home/src/arm/target/bin/../arm-none-eabi/lib//libc.a(lib_a-sprintf.o) (_svfprintf_r)
/home/src/arm/target/bin/../arm-none-eabi/lib//libc.a(lib_a-syscalls.o)
                              /home/src/arm/target/bin/../arm-none-eabi/lib//libc.a(lib_a-sbrkr.o) (_sbrk)
/home/src/arm/target/bin/../arm-none-eabi/lib//libc.a(lib_a-vfiprintf.o)
                              /home/src/arm/target/bin/../arm-none-eabi/lib//libc.a(lib_a-fiprintf.o) (_vfiprintf_r)
/home/src/arm/target/bin/../arm-none-eabi/lib//libc.a(lib_a-vfprintf.o)
                              /home/src/arm/target/bin/../arm-none-eabi/lib//libc.a(lib_a-printf.o) (_vfprintf_r)
/home/src/arm/target/bin/../arm-none-eabi/lib//libc.a(lib_a-vprintf.o)
                              /home/leon/git/swp-report/iMX6_Platform_SDK/output/mx6sdl/obds/smart_device_rev_a/obj/apps/obds/src/obds.o (vprintf)
/home/src/arm/target/bin/../arm-none-eabi/lib//libc.a(lib_a-wbuf.o)
                              /home/src/arm/target/bin/../arm-none-eabi/lib//libc.a(lib_a-putc.o) (__swbuf_r)
/home/src/arm/target/bin/../arm-none-eabi/lib//libc.a(lib_a-wsetup.o)
                              /home/src/arm/target/bin/../arm-none-eabi/lib//libc.a(lib_a-vfiprintf.o) (__swsetup_r)
/home/src/arm/target/bin/../arm-none-eabi/lib//libc.a(lib_a-abort.o)
                              /home/src/arm/target/bin/../arm-none-eabi/lib//libc.a(lib_a-assert.o) (abort)
/home/src/arm/target/bin/../arm-none-eabi/lib//libc.a(lib_a-ctype_.o)
                              /home/src/arm/target/bin/../arm-none-eabi/lib//libc.a(lib_a-strncasecmp.o) (__ctype_ptr__)
/home/src/arm/target/bin/../arm-none-eabi/lib//libc.a(lib_a-dtoa.o)
                              /home/src/arm/target/bin/../arm-none-eabi/lib//libc.a(lib_a-svfprintf.o) (_dtoa_r)
/home/src/arm/target/bin/../arm-none-eabi/lib//libc.a(lib_a-errno.o)
                              /home/src/arm/target/bin/../arm-none-eabi/lib//libc.a(lib_a-syscalls.o) (__errno)
/home/src/arm/target/bin/../arm-none-eabi/lib//libc.a(lib_a-fflush.o)
                              /home/src/arm/target/bin/../arm-none-eabi/lib//libc.a(lib_a-vfiprintf.o) (_fflush_r)
/home/src/arm/target/bin/../arm-none-eabi/lib//libc.a(lib_a-findfp.o)
                              /home/src/arm/target/bin/../arm-none-eabi/lib//libc.a(lib_a-fputc.o) (__sinit)
/home/src/arm/target/bin/../arm-none-eabi/lib//libc.a(lib_a-fputwc.o)
                              /home/src/arm/target/bin/../arm-none-eabi/lib//libc.a(lib_a-vfiprintf.o) (_fputwc_r)
/home/src/arm/target/bin/../arm-none-eabi/lib//libc.a(lib_a-freer.o)
                              /home/src/arm/target/bin/../arm-none-eabi/lib//libc.a(lib_a-malloc.o) (_free_r)
/home/src/arm/target/bin/../arm-none-eabi/lib//libc.a(lib_a-fvwrite.o)
                              /home/src/arm/target/bin/../arm-none-eabi/lib//libc.a(lib_a-vfiprintf.o) (__sfvwrite_r)
/home/src/arm/target/bin/../arm-none-eabi/lib//libc.a(lib_a-fwalk.o)
                              /home/src/arm/target/bin/../arm-none-eabi/lib//libc.a(lib_a-findfp.o) (_fwalk)
/home/src/arm/target/bin/../arm-none-eabi/lib//libc.a(lib_a-locale.o)
                              /home/src/arm/target/bin/../arm-none-eabi/lib//libc.a(lib_a-fputwc.o) (__locale_mb_cur_max)
/home/src/arm/target/bin/../arm-none-eabi/lib//libc.a(lib_a-makebuf.o)
                              /home/src/arm/target/bin/../arm-none-eabi/lib//libc.a(lib_a-wsetup.o) (__smakebuf_r)
/home/src/arm/target/bin/../arm-none-eabi/lib//libc.a(lib_a-memchr-stub.o)
                              /home/src/arm/target/bin/../arm-none-eabi/lib//libc.a(lib_a-svfprintf.o) (memchr)
/home/src/arm/target/bin/../arm-none-eabi/lib//libc.a(lib_a-memmove.o)
                              /home/src/arm/target/bin/../arm-none-eabi/lib//libc.a(lib_a-reallocr.o) (memmove)
/home/src/arm/target/bin/../arm-none-eabi/lib//libc.a(lib_a-mprec.o)
                              /home/src/arm/target/bin/../arm-none-eabi/lib//libc.a(lib_a-dtoa.o) (_Balloc)
/home/src/arm/target/bin/../arm-none-eabi/lib//libc.a(lib_a-reent.o)
                              /home/src/arm/target/bin/../arm-none-eabi/lib//libc.a(lib_a-sbrkr.o) (errno)
/home/src/arm/target/bin/../arm-none-eabi/lib//libc.a(lib_a-refill.o)
                              /home/src/arm/target/bin/../arm-none-eabi/lib//libc.a(lib_a-rget.o) (__srefill_r)
/home/src/arm/target/bin/../arm-none-eabi/lib//libc.a(lib_a-s_fpclassify.o)
                              /home/src/arm/target/bin/../arm-none-eabi/lib//libc.a(lib_a-svfprintf.o) (__fpclassifyd)
/home/src/arm/target/bin/../arm-none-eabi/lib//libc.a(lib_a-signal.o)
                              /home/src/arm/target/bin/../arm-none-eabi/lib//libc.a(lib_a-abort.o) (raise)
/home/src/arm/target/bin/../arm-none-eabi/lib//libc.a(lib_a-signalr.o)
                              /home/src/arm/target/bin/../arm-none-eabi/lib//libc.a(lib_a-signal.o) (_kill_r)
/home/src/arm/target/bin/../arm-none-eabi/lib//libc.a(lib_a-stdio.o)
                              /home/src/arm/target/bin/../arm-none-eabi/lib//libc.a(lib_a-findfp.o) (__sread)
/home/src/arm/target/bin/../arm-none-eabi/lib//libc.a(lib_a-svfiprintf.o)
                              /home/src/arm/target/bin/../arm-none-eabi/lib//libc.a(lib_a-svfprintf.o) (__ssprint_r)
/home/src/arm/target/bin/../arm-none-eabi/lib//libc.a(lib_a-wcrtomb.o)
                              /home/src/arm/target/bin/../arm-none-eabi/lib//libc.a(lib_a-fputwc.o) (_wcrtomb_r)
/home/src/arm/target/bin/../arm-none-eabi/lib//libc.a(lib_a-wctomb_r.o)
                              /home/src/arm/target/bin/../arm-none-eabi/lib//libc.a(lib_a-wcrtomb.o) (__wctomb)
/home/src/arm/target/bin/../arm-none-eabi/lib//libc.a(lib_a-writer.o)
                              /home/src/arm/target/bin/../arm-none-eabi/lib//libc.a(lib_a-stdio.o) (_write_r)
/home/src/arm/target/bin/../arm-none-eabi/lib//libc.a(lib_a-callocr.o)
                              /home/src/arm/target/bin/../arm-none-eabi/lib//libc.a(lib_a-mprec.o) (_calloc_r)
/home/src/arm/target/bin/../arm-none-eabi/lib//libc.a(lib_a-closer.o)
                              /home/src/arm/target/bin/../arm-none-eabi/lib//libc.a(lib_a-stdio.o) (_close_r)
/home/src/arm/target/bin/../arm-none-eabi/lib//libc.a(lib_a-fclose.o)
                              /home/src/arm/target/bin/../arm-none-eabi/lib//libc.a(lib_a-findfp.o) (fclose)
/home/src/arm/target/bin/../arm-none-eabi/lib//libc.a(lib_a-fstatr.o)
                              /home/src/arm/target/bin/../arm-none-eabi/lib//libc.a(lib_a-makebuf.o) (_fstat_r)
/home/src/arm/target/bin/../arm-none-eabi/lib//libc.a(lib_a-isattyr.o)
                              /home/src/arm/target/bin/../arm-none-eabi/lib//libc.a(lib_a-makebuf.o) (_isatty_r)
/home/src/arm/target/bin/../arm-none-eabi/lib//libc.a(lib_a-lseekr.o)
                              /home/src/arm/target/bin/../arm-none-eabi/lib//libc.a(lib_a-stdio.o) (_lseek_r)
/home/src/arm/target/bin/../arm-none-eabi/lib//libc.a(lib_a-readr.o)
                              /home/src/arm/target/bin/../arm-none-eabi/lib//libc.a(lib_a-stdio.o) (_read_r)
/home/src/arm/target/bin/../lib/gcc/arm-none-eabi/4.8.2//libgcc.a(_udivsi3.o)
                              /home/leon/git/swp-report/iMX6_Platform_SDK/output/mx6sdl/obds/smart_device_rev_a/obj/sdk/drivers/spi/test/imx_spi_nor_atmel.o (__aeabi_uidiv)
/home/src/arm/target/bin/../lib/gcc/arm-none-eabi/4.8.2//libgcc.a(_divsi3.o)
                              /home/leon/git/swp-report/iMX6_Platform_SDK/output/mx6sdl/lib/libsdk.a(ipu_common.o) (__aeabi_idiv)
/home/src/arm/target/bin/../lib/gcc/arm-none-eabi/4.8.2//libgcc.a(_dvmd_tls.o)
                              /home/src/arm/target/bin/../lib/gcc/arm-none-eabi/4.8.2//libgcc.a(_udivsi3.o) (__aeabi_idiv0)
/home/src/arm/target/bin/../lib/gcc/arm-none-eabi/4.8.2//libgcc.a(_arm_addsubdf3.o)
                              /home/src/arm/target/bin/../arm-none-eabi/lib//libc.a(lib_a-dtoa.o) (__aeabi_dsub)
/home/src/arm/target/bin/../lib/gcc/arm-none-eabi/4.8.2//libgcc.a(_arm_muldivdf3.o)
                              /home/src/arm/target/bin/../arm-none-eabi/lib//libc.a(lib_a-dtoa.o) (__aeabi_dmul)
/home/src/arm/target/bin/../lib/gcc/arm-none-eabi/4.8.2//libgcc.a(_arm_cmpdf2.o)
                              /home/src/arm/target/bin/../arm-none-eabi/lib//libc.a(lib_a-svfprintf.o) (__aeabi_dcmpeq)
/home/src/arm/target/bin/../lib/gcc/arm-none-eabi/4.8.2//libgcc.a(_arm_fixdfsi.o)
                              /home/src/arm/target/bin/../arm-none-eabi/lib//libc.a(lib_a-dtoa.o) (__aeabi_d2iz)
/home/src/arm/target/bin/../lib/gcc/arm-none-eabi/4.8.2//libgcc.a(_aeabi_uldivmod.o)
                              /home/leon/git/swp-report/iMX6_Platform_SDK/output/mx6sdl/lib/libsdk.a(timer.o) (__aeabi_uldivmod)
/home/src/arm/target/bin/../lib/gcc/arm-none-eabi/4.8.2//libgcc.a(bpabi.o)
                              /home/src/arm/target/bin/../lib/gcc/arm-none-eabi/4.8.2//libgcc.a(_aeabi_uldivmod.o) (__gnu_uldivmod_helper)
/home/src/arm/target/bin/../lib/gcc/arm-none-eabi/4.8.2//libgcc.a(_divdi3.o)
                              /home/src/arm/target/bin/../lib/gcc/arm-none-eabi/4.8.2//libgcc.a(bpabi.o) (__divdi3)
/home/src/arm/target/bin/../lib/gcc/arm-none-eabi/4.8.2//libgcc.a(_udivdi3.o)
                              /home/src/arm/target/bin/../lib/gcc/arm-none-eabi/4.8.2//libgcc.a(bpabi.o) (__udivdi3)
/home/src/arm/target/bin/../lib/gcc/arm-none-eabi/4.8.2//libgcc.a(_clzsi2.o)
                              /home/src/arm/target/bin/../lib/gcc/arm-none-eabi/4.8.2//libgcc.a(_divdi3.o) (__clzsi2)

Allocating common symbols
Common symbol       size              file

errno               0x4               /home/src/arm/target/bin/../arm-none-eabi/lib//libc.a(lib_a-reent.o)

Memory Configuration

Name             Origin             Length             Attributes
OCRAM            0x0000000000900000 0x0000000000020000 xrw
DDR              0x0000000010000000 0x0000000040000000 xrw
*default*        0x0000000000000000 0xffffffffffffffff

Linker script and memory map

LOAD /home/src/arm/target/bin/../lib/gcc/arm-none-eabi/4.8.2//crtbegin.o
LOAD /home/src/arm/target/bin/../lib/gcc/arm-none-eabi/4.8.2//crti.o
LOAD /home/src/arm/target/bin/../lib/gcc/arm-none-eabi/4.8.2//crtend.o
LOAD /home/src/arm/target/bin/../lib/gcc/arm-none-eabi/4.8.2//crtn.o

.l1_page_table  0x0000000000900000     0x4000
                0x0000000000900000                __l1_page_table_start = .
                0x0000000000904000                . = (. + 0x4000)
 *fill*         0x0000000000900000     0x4000 

.heap.ocram     0x0000000000904000    0x1bfb8
                0x0000000000904000                __heap_ocram_start = .
                0x000000000091ffb8                . = (. + 0x1bfb8)
 *fill*         0x0000000000904000    0x1bfb8 
                0x000000000091ffb8                __heap_ocram_end = .

.ram_vectors    0x000000000091ffb8       0x48
                0x000000000091ffb8                __ram_vectors_start = .
                0x0000000000920000                . = (. + 0x48)
 *fill*         0x000000000091ffb8       0x48 
                0x0000000000920000                __ram_vectors_end = .
                0x0000000010000000                _start_image_add = ORIGIN (DDR)

.ivt            0x0000000010000000      0x420
                0x0000000010000400                . = (. + 0x400)
 *fill*         0x0000000010000000      0x400 
 *(.ivt)
 .ivt           0x0000000010000400       0x20 /home/leon/git/swp-report/iMX6_Platform_SDK/output/mx6sdl/obds/smart_device_rev_a/obj/apps/common/ivt.o
                0x0000000010000400                input_ivt

.boot_data      0x0000000010000420        0xc
                0x0000000010000420                __start_boot_data = .
 *(.boot_data)
 .boot_data     0x0000000010000420        0xc /home/leon/git/swp-report/iMX6_Platform_SDK/output/mx6sdl/obds/smart_device_rev_a/obj/apps/common/ivt.o
                0x0000000010000420                bd

.dcd_hdr        0x0000000010000430        0x4
                0x0000000010000430                __start_dcd = .
 *(.dcd_hdr)
 .dcd_hdr       0x0000000010000430        0x4 /home/leon/git/swp-report/iMX6_Platform_SDK/output/mx6sdl/lib/libboard_smart_device_rev_a.a(dcd.o)
                0x0000000010000430                input_dcd_hdr

.dcd_wrt_cmd    0x0000000010000434        0x4
 *(.dcd_wrt_cmd)
 .dcd_wrt_cmd   0x0000000010000434        0x4 /home/leon/git/swp-report/iMX6_Platform_SDK/output/mx6sdl/lib/libboard_smart_device_rev_a.a(dcd.o)
                0x0000000010000434                input_dcd_wrt_cmd

.dcd_data       0x0000000010000438      0x298
 *(.dcd_data)
 .dcd_data      0x0000000010000438      0x298 /home/leon/git/swp-report/iMX6_Platform_SDK/output/mx6sdl/lib/libboard_smart_device_rev_a.a(dcd.o)
                0x0000000010000438                input_dcd

.text           0x00000000100006d0    0x5c280
 CREATE_OBJECT_SYMBOLS
 *(.startup)
 .startup       0x00000000100006d0      0x138 /home/leon/git/swp-report/iMX6_Platform_SDK/output/mx6sdl/lib/libsdk.a(startup.o)
                0x00000000100006d0                _start
 *(.text .text.* .gnu.linkonce.t.*)
 .text          0x0000000010000808      0x128 /home/src/arm/target/bin/../lib/gcc/arm-none-eabi/4.8.2//crtbegin.o
 .text          0x0000000010000930        0x0 /home/src/arm/target/bin/../lib/gcc/arm-none-eabi/4.8.2//crti.o
 .text          0x0000000010000930        0x0 /home/src/arm/target/bin/../lib/gcc/arm-none-eabi/4.8.2//crtend.o
 .text          0x0000000010000930        0x0 /home/src/arm/target/bin/../lib/gcc/arm-none-eabi/4.8.2//crtn.o
 .text          0x0000000010000930        0x0 /home/leon/git/swp-report/iMX6_Platform_SDK/output/mx6sdl/obds/smart_device_rev_a/obj/apps/common/ivt.o
 .text          0x0000000010000930       0xbc /home/leon/git/swp-report/iMX6_Platform_SDK/output/mx6sdl/obds/smart_device_rev_a/obj/apps/common/platform_init.o
                0x0000000010000930                platform_init
 .text          0x00000000100009ec       0xfc /home/leon/git/swp-report/iMX6_Platform_SDK/output/mx6sdl/obds/smart_device_rev_a/obj/apps/common/print_clock_info.o
                0x00000000100009ec                show_freq
                0x0000000010000ad8                show_ddr_config
 .text          0x0000000010000ae8      0x15c /home/leon/git/swp-report/iMX6_Platform_SDK/output/mx6sdl/obds/smart_device_rev_a/obj/apps/common/print_version.o
                0x0000000010000ae8                print_version
 .text          0x0000000010000c44     0x10a8 /home/leon/git/swp-report/iMX6_Platform_SDK/output/mx6sdl/obds/smart_device_rev_a/obj/apps/obds/src/obds.o
                0x0000000010000c44                main
                0x0000000010000fa8                free_test_results
                0x0000000010001040                printf_hook
                0x000000001000120c                prompt_run_test
                0x00000000100012b0                print_test_passed
                0x00000000100012fc                print_test_skipped
                0x0000000010001348                print_test_failed
                0x00000000100013a0                print_test_not_implemented
                0x00000000100013f8                run_test
                0x0000000010001644                report_test_results
                0x0000000010001a0c                run_all_tests
                0x0000000010001bf8                select_tests
 .text          0x0000000010001cec      0x778 /home/leon/git/swp-report/iMX6_Platform_SDK/output/mx6sdl/obds/smart_device_rev_a/obj/apps/obds/src/obds_utils.o
                0x0000000010001cec                show_boot_switch_info
 .text          0x0000000010002464      0x330 /home/leon/git/swp-report/iMX6_Platform_SDK/output/mx6sdl/obds/smart_device_rev_a/obj/apps/obds/src/tests/android_buttons_test.o
                0x0000000010002464                configure_android_button
                0x00000000100024cc                init_android_buttons
                0x000000001000251c                check_android_button_status
                0x0000000010002668                android_buttons_test
 .text          0x0000000010002794      0xe08 /home/leon/git/swp-report/iMX6_Platform_SDK/output/mx6sdl/obds/smart_device_rev_a/obj/apps/obds/src/tests/audio_esai_test.o
                0x0000000010002794                esai_test
 .text          0x000000001000359c      0x3f8 /home/leon/git/swp-report/iMX6_Platform_SDK/output/mx6sdl/obds/smart_device_rev_a/obj/apps/obds/src/tests/audio_ssi_test.o
                0x000000001000359c                audio_test_init
                0x00000000100036d8                i2s_audio_test
 .text          0x0000000010003994      0x610 /home/leon/git/swp-report/iMX6_Platform_SDK/output/mx6sdl/obds/smart_device_rev_a/obj/apps/obds/src/tests/ddr_test.o
                0x0000000010003994                get_ddr_density
                0x0000000010003a58                ddr_test
 .text          0x0000000010003fa4      0x2e4 /home/leon/git/swp-report/iMX6_Platform_SDK/output/mx6sdl/obds/smart_device_rev_a/obj/apps/obds/src/tests/deserializer_ds90ur124.o
                0x0000000010003fa4                deserializer_io_config
                0x0000000010003fb8                ds90ur124_init
                0x0000000010003fec                ds90ur124_receive_cnx_test
                0x00000000100041b0                ds90ur124_test_main
 .text          0x0000000010004288      0x744 /home/leon/git/swp-report/iMX6_Platform_SDK/output/mx6sdl/obds/smart_device_rev_a/obj/apps/obds/src/tests/display_test.o
                0x0000000010004288                hdmi_720p_init
                0x000000001000481c                ipu_display_test_main
 .text          0x00000000100049cc      0x970 /home/leon/git/swp-report/iMX6_Platform_SDK/output/mx6sdl/obds/smart_device_rev_a/obj/apps/obds/src/tests/enet_mx6dldq_test.o
                0x0000000010004b58                enet_test_main
                0x0000000010004df8                ar8031_test_main
                0x00000000100050a8                KSZ9021RN_test_main
 .text          0x000000001000533c       0x64 /home/leon/git/swp-report/iMX6_Platform_SDK/output/mx6sdl/obds/smart_device_rev_a/obj/apps/obds/src/tests/flexcan_test.o
                0x000000001000533c                flexcan_test
 .text          0x00000000100053a0      0x278 /home/leon/git/swp-report/iMX6_Platform_SDK/output/mx6sdl/obds/smart_device_rev_a/obj/apps/obds/src/tests/fm_tuner_si476x_test.o
                0x0000000010005584                si476x_test_main
 .text          0x0000000010005618      0x1d4 /home/leon/git/swp-report/iMX6_Platform_SDK/output/mx6sdl/obds/smart_device_rev_a/obj/apps/obds/src/tests/gpio_led.o
                0x0000000010005618                gpio_led_test
 .text          0x00000000100057ec       0xd4 /home/leon/git/swp-report/iMX6_Platform_SDK/output/mx6sdl/obds/smart_device_rev_a/obj/apps/obds/src/tests/gps_test.o
                0x00000000100057ec                gps_test
 .text          0x00000000100058c0      0x618 /home/leon/git/swp-report/iMX6_Platform_SDK/output/mx6sdl/obds/smart_device_rev_a/obj/apps/obds/src/tests/i2c_check_light_sensor_isl29023.o
                0x0000000010005da8                i2c_device_id_check_isl29023
 .text          0x0000000010005ed8      0x2dc /home/leon/git/swp-report/iMX6_Platform_SDK/output/mx6sdl/obds/smart_device_rev_a/obj/apps/obds/src/tests/i2c_device_barometer_ppl3115.o
                0x00000000100060b0                i2c_device_id_check_ppl3115
                0x0000000010006140                i2c_device_ppl3115_test
 .text          0x00000000100061b4       0x70 /home/leon/git/swp-report/iMX6_Platform_SDK/output/mx6sdl/obds/smart_device_rev_a/obj/apps/obds/src/tests/i2c_device_check_cs42888.o
                0x00000000100061b4                i2c_device_check_cs42888
 .text          0x0000000010006224      0x1f4 /home/leon/git/swp-report/iMX6_Platform_SDK/output/mx6sdl/obds/smart_device_rev_a/obj/apps/obds/src/tests/i2c_device_digital_compass_mag3110.o
                0x0000000010006224                mag3110_reg_read
                0x0000000010006338                i2c_device_id_check_mag3110
 .text          0x0000000010006418      0x1fc /home/leon/git/swp-report/iMX6_Platform_SDK/output/mx6sdl/obds/smart_device_rev_a/obj/apps/obds/src/tests/i2c_device_digital_compass_mag3112.o
                0x0000000010006418                mag3112_reg_read
                0x000000001000652c                i2c_device_id_check_mag3112
 .text          0x0000000010006614      0x99c /home/leon/git/swp-report/iMX6_Platform_SDK/output/mx6sdl/obds/smart_device_rev_a/obj/apps/obds/src/tests/i2c_device_id_check_mma8450.o
                0x00000000100067ec                i2c_device_id_check_MMA8450
                0x00000000100068e0                mma8450_set_config
                0x00000000100069e8                mma8450_get_accel
                0x0000000010006de8                mma8450_show_accel
 .text          0x0000000010006fb0      0x9d0 /home/leon/git/swp-report/iMX6_Platform_SDK/output/mx6sdl/obds/smart_device_rev_a/obj/apps/obds/src/tests/i2c_device_id_check_mma8451.o
                0x0000000010007188                i2c_device_id_check_MMA8451
                0x00000000100072b0                mma8451_set_config
                0x00000000100073c4                mma8451_get_accel
                0x00000000100077b8                mma8451_show_accel
 .text          0x0000000010007980      0x89c /home/leon/git/swp-report/iMX6_Platform_SDK/output/mx6sdl/obds/smart_device_rev_a/obj/apps/obds/src/tests/i2c_device_id_check_p1003_tsc.o
                0x0000000010007980                p1003_version_reg_read
                0x0000000010007af0                p1003_version_reg_write
                0x0000000010007c6c                i2c_device_id_check_p1003
                0x0000000010007db8                p1003_get_touch
                0x0000000010008018                p1003_show_touch
 .text          0x000000001000821c      0x718 /home/leon/git/swp-report/iMX6_Platform_SDK/output/mx6sdl/obds/smart_device_rev_a/obj/apps/obds/src/tests/i2c_device_temp_sensor_emc1046.o
                0x000000001000874c                wait_convertion_done
                0x00000000100087ac                i2c_device_id_check_emc1046
                0x00000000100088c0                i2c_device_emc1046_test
 .text          0x0000000010008934      0x368 /home/leon/git/swp-report/iMX6_Platform_SDK/output/mx6sdl/obds/smart_device_rev_a/obj/apps/obds/src/tests/i2c_device_zigbee_mc1323.o
                0x0000000010008b74                i2c_device_id_check_mc1323
                0x0000000010008c38                i2c_device_mc1323_test
 .text          0x0000000010008c9c      0x358 /home/leon/git/swp-report/iMX6_Platform_SDK/output/mx6sdl/obds/smart_device_rev_a/obj/apps/obds/src/tests/i2c_eeprom_at24cxx_test.o
 .text          0x0000000010008ff4      0x654 /home/leon/git/swp-report/iMX6_Platform_SDK/output/mx6sdl/obds/smart_device_rev_a/obj/apps/obds/src/tests/imx_spi_nor_test.o
                0x0000000010008ff4                spi_nor_query
                0x0000000010009054                spi_nor_write
                0x00000000100090cc                spi_nor_read
                0x0000000010009144                spi_nor_erase
                0x00000000100091b0                spi_nor_test
 .text          0x0000000010009648      0x3b4 /home/leon/git/swp-report/iMX6_Platform_SDK/output/mx6sdl/obds/smart_device_rev_a/obj/apps/obds/src/tests/mlb_os81050.o
                0x0000000010009648                mlb_io_config
                0x0000000010009658                os81050_i2c_init
                0x00000000100096e0                os81050_read_status
                0x000000001000983c                os81050_get_message
                0x000000001000995c                os81050_test_main
 .text          0x00000000100099fc      0x26c /home/leon/git/swp-report/iMX6_Platform_SDK/output/mx6sdl/obds/smart_device_rev_a/obj/apps/obds/src/tests/mmcsd_test.o
                0x00000000100099fc                mmcsd_test
 .text          0x0000000010009c68      0x654 /home/leon/git/swp-report/iMX6_Platform_SDK/output/mx6sdl/obds/smart_device_rev_a/obj/apps/obds/src/tests/pmic_da9053.o
                0x0000000010009c68                da9053_i2c_reg
                0x000000001000a1b8                i2c_device_id_check_DA9053
                0x000000001000a270                pmic_da9053_test
 .text          0x000000001000a2bc     0x1390 /home/leon/git/swp-report/iMX6_Platform_SDK/output/mx6sdl/obds/smart_device_rev_a/obj/apps/obds/src/tests/pmic_lt3589.o
                0x000000001000a2bc                ltc3589_reg_read
                0x000000001000a3b4                ltc3589_reg_write
                0x000000001000a49c                ltc3589_eval
                0x000000001000b04c                ltc3589_backlight_en
                0x000000001000b264                ltc3589_camera_power_on
                0x000000001000b430                sil9024_hdmi_power_on1
                0x000000001000b560                ltc3589_i2c_device_id_check
                0x000000001000b600                pmic_lt3589_test
 .text          0x000000001000b64c      0x2f8 /home/leon/git/swp-report/iMX6_Platform_SDK/output/mx6sdl/obds/smart_device_rev_a/obj/apps/obds/src/tests/pmic_max17135.o
                0x000000001000b64c                max17135_reg_read
                0x000000001000b73c                max17135_reg_write
                0x000000001000b894                i2c_device_id_check_MAX17135
 .text          0x000000001000b944      0x39c /home/leon/git/swp-report/iMX6_Platform_SDK/output/mx6sdl/obds/smart_device_rev_a/obj/apps/obds/src/tests/pmic_mc13892.o
                0x000000001000b944                mc13892_i2c_reg
                0x000000001000b984                pmic_open_vgen1
                0x000000001000ba6c                pmic_open_vusb
                0x000000001000bb38                pmic_open_vsd
                0x000000001000bc54                device_id_check_mc13892
                0x000000001000bc84                pmic_mc13892_test
 .text          0x000000001000bce0      0x778 /home/leon/git/swp-report/iMX6_Platform_SDK/output/mx6sdl/obds/smart_device_rev_a/obj/apps/obds/src/tests/program_board_id.o
                0x000000001000bd10                program_board_id_fuses
                0x000000001000bf0c                program_board_id
 .text          0x000000001000c458      0x8cc /home/leon/git/swp-report/iMX6_Platform_SDK/output/mx6sdl/obds/smart_device_rev_a/obj/apps/obds/src/tests/program_mac_address.o
                0x000000001000c488                read_mac_otp_registers
                0x000000001000c544                mac_address_str
                0x000000001000c5e4                program_mac_address_fuses
                0x000000001000c85c                program_mac_address
 .text          0x000000001000cd24      0x1fc /home/leon/git/swp-report/iMX6_Platform_SDK/output/mx6sdl/obds/smart_device_rev_a/obj/apps/obds/src/tests/snvs_srtc_test.o
                0x000000001000cd24                snvs_srtc_test
 .text          0x000000001000cf20      0x658 /home/leon/git/swp-report/iMX6_Platform_SDK/output/mx6sdl/obds/smart_device_rev_a/obj/apps/obds/src/tests/touch_button_test.o
                0x000000001000d0f8                i2c_device_id_check_touch_button
                0x000000001000d36c                touch_button_test
 .text          0x000000001000d578      0x6d8 /home/leon/git/swp-report/iMX6_Platform_SDK/output/mx6sdl/obds/smart_device_rev_a/obj/apps/obds/src/tests/touch_screen.o
                0x000000001000d578                DA9053_Write
                0x000000001000d664                DA9053_Read
                0x000000001000d748                touch_init
                0x000000001000d7c8                touch_get_xy_value
                0x000000001000d904                touch_detect
                0x000000001000d9f8                touch_screen_prompt
                0x000000001000db1c                touch_screen_test
 .text          0x000000001000dc50      0xb58 /home/leon/git/swp-report/iMX6_Platform_SDK/output/mx6sdl/obds/smart_device_rev_a/obj/apps/obds/src/tests/touch_screen_max11801.o
                0x000000001000e010                max11801_ts_test
                0x000000001000e168                max11801_reg_read_single
                0x000000001000e27c                max11801_reg_read_multi
                0x000000001000e388                max11801_reg_write
                0x000000001000e464                i2c_device_check_max11801_AUX
                0x000000001000e580                i2c_device_check_max11801
 .text          0x000000001000e7a8      0x524 /home/leon/git/swp-report/iMX6_Platform_SDK/output/mx6sdl/obds/smart_device_rev_a/obj/apps/obds/src/tests/usb_tests_obds.o
                0x000000001000e7a8                usbo_dev_enum_test
                0x000000001000e818                usbh_dev_enum_test
                0x000000001000e888                usb_enum_device
 .text          0x000000001000eccc      0x140 /home/leon/git/swp-report/iMX6_Platform_SDK/output/mx6sdl/obds/smart_device_rev_a/obj/apps/obds/src/tests/video_dec_ARD_MB_reset_button.o
                0x000000001000eccc                ard_mb_reset_test
 .text          0x000000001000ee0c       0xa0 /home/leon/git/swp-report/iMX6_Platform_SDK/output/mx6sdl/obds/smart_device_rev_a/obj/apps/obds/src/tests/video_dec_ARD_MBrst_from_cpu_expander.o
                0x000000001000ee0c                ard_mb_expander_reset_test
 .text          0x000000001000eeac      0x468 /home/leon/git/swp-report/iMX6_Platform_SDK/output/mx6sdl/obds/smart_device_rev_a/obj/apps/obds/src/tests/video_dec_adv7180.o
                0x000000001000eeac                adv7180_i2c_init_obds
                0x000000001000ef0c                adv7180_reg_read
                0x000000001000efbc                adv7180_reg_write
                0x000000001000f074                adv7180_set_tristate_output
                0x000000001000f090                adv7180_i2c_device_id_check
                0x000000001000f0ec                adv7180_set_gpio_output
                0x000000001000f178                adv7180_test_main
 .text          0x000000001000f314      0x324 /home/leon/git/swp-report/iMX6_Platform_SDK/output/mx6sdl/obds/smart_device_rev_a/obj/apps/obds/src/tests/weim_nor_flash_test.o
                0x000000001000f314                weim_nor_flash_cs_setup
                0x000000001000f360                eim_nor_flash_test
                0x000000001000f3d0                m29w256gl_auto_manu_id
                0x000000001000f4b8                m29w256gl_auto_dev_id
 .text          0x000000001000f638       0x4c /home/leon/git/swp-report/iMX6_Platform_SDK/output/mx6sdl/obds/smart_device_rev_a/obj/sdk/common/ioexpander/test/max7310_test.o
                0x000000001000f638                max7310_i2c_device_id_check
 .text          0x000000001000f684      0x478 /home/leon/git/swp-report/iMX6_Platform_SDK/output/mx6sdl/obds/smart_device_rev_a/obj/sdk/common/pmic/pfuse/pf0100.o
                0x000000001000f684                pf0100_reg_read
                0x000000001000f774                pf0100_reg_write
                0x000000001000f864                pf0100_enable_vgen1_1v2
                0x000000001000f8b4                pf0100_enable_vgen2_1v5
                0x000000001000f904                pf0100_enable_vgen3_1v8
                0x000000001000f954                pf0100_enable_vgen4_1v8
                0x000000001000f9a4                pf0100_enable_vgen4_2v5
                0x000000001000f9f4                pf0100_enable_vgen6_2v8
                0x000000001000fa44                pf0100_i2c_device_id_check
 .text          0x000000001000fafc      0x438 /home/leon/git/swp-report/iMX6_Platform_SDK/output/mx6sdl/obds/smart_device_rev_a/obj/sdk/drivers/audio/src/snd_card.o
 .text          0x000000001000ff34        0x0 /home/leon/git/swp-report/iMX6_Platform_SDK/output/mx6sdl/obds/smart_device_rev_a/obj/sdk/drivers/camera/test/adv7180_capture.o
 .text          0x000000001000ff34      0x1fc /home/leon/git/swp-report/iMX6_Platform_SDK/output/mx6sdl/obds/smart_device_rev_a/obj/sdk/drivers/camera/test/camera_test.o
                0x000000001000ff34                camera_test
 .text          0x0000000010010130      0x2ec /home/leon/git/swp-report/iMX6_Platform_SDK/output/mx6sdl/obds/smart_device_rev_a/obj/sdk/drivers/camera/test/csi_test_mode.o
                0x0000000010010130                csi_test_mode
 .text          0x000000001001041c      0x2b8 /home/leon/git/swp-report/iMX6_Platform_SDK/output/mx6sdl/obds/smart_device_rev_a/obj/sdk/drivers/camera/test/sensor_capture.o
                0x000000001001041c                sensor_capture
 .text          0x00000000100106d4      0x460 /home/leon/git/swp-report/iMX6_Platform_SDK/output/mx6sdl/obds/smart_device_rev_a/obj/sdk/drivers/epdc/test/epdc_test.o
                0x00000000100106d4                epdc_test
                0x0000000010010824                epdc_pvi_svga_sdr_init
                0x0000000010010844                epdc_update_image
                0x0000000010010970                epdc_send_mode0_to_black_update
                0x0000000010010a0c                epdc_send_image_update
                0x0000000010010a9c                epdc_send_erase_to_color
 .text          0x0000000010010b34      0x82c /home/leon/git/swp-report/iMX6_Platform_SDK/output/mx6sdl/obds/smart_device_rev_a/obj/sdk/drivers/hdmi/test/hdmi_test.o
                0x0000000010010b34                hdmi_test
                0x0000000010010ea0                init_hdmi_interrupt
                0x0000000010010f50                hdmi_tx_ISR
                0x0000000010010fe0                hdmi_1080P60_video_output
                0x00000000100111a0                hdmi_720P60_video_output
 .text          0x0000000010011360      0x520 /home/leon/git/swp-report/iMX6_Platform_SDK/output/mx6sdl/obds/smart_device_rev_a/obj/sdk/drivers/hdmi/test/init_dma_data.o
                0x0000000010011360                init_dma_data
 .text          0x0000000010011880      0xb98 /home/leon/git/swp-report/iMX6_Platform_SDK/output/mx6sdl/obds/smart_device_rev_a/obj/sdk/drivers/ipu/test/ips_display.o
                0x0000000010011880                ips_display_test
                0x00000000100119bc                ips_hdmi_stream
                0x0000000010011b1c                ips_hdmi_720P60_stream
                0x0000000010011d80                ips_hdmi_1080P60_stream
                0x0000000010011f78                ips_ext_hdmi_transmitter_1080P60_stream
                0x0000000010012138                ips_hannstar_xga_yuv_stream
                0x0000000010012378                ips_mipi_wvga_rgb_stream
 .text          0x0000000010012418      0x52c /home/leon/git/swp-report/iMX6_Platform_SDK/output/mx6sdl/obds/smart_device_rev_a/obj/sdk/drivers/ipu/test/ipu_image.o
                0x0000000010012418                load_centralized_image
                0x0000000010012554                load_foreground_image
                0x00000000100125a0                load_horiz_image
                0x0000000010012704                set_background_margin
                0x00000000100127f4                load_vert_image
 .text          0x0000000010012944     0x1058 /home/leon/git/swp-report/iMX6_Platform_SDK/output/mx6sdl/obds/smart_device_rev_a/obj/sdk/drivers/spi/test/imx_spi_nor_atmel.o
                0x0000000010012944                spi_nor_query_atmel
                0x0000000010012a88                spi_nor_write_atmel
                0x0000000010013440                spi_nor_erase_atmel
                0x00000000100135e4                spi_nor_read_atmel
 .text          0x000000001001399c      0xabc /home/leon/git/swp-report/iMX6_Platform_SDK/output/mx6sdl/obds/smart_device_rev_a/obj/sdk/drivers/spi/test/spi_nor_numonyx.o
                0x0000000010013c74                spi_nor_query_numonyx
                0x0000000010013d40                spi_nor_erase_numonyx
                0x0000000010013dcc                spi_nor_read_numonyx
                0x0000000010014004                spi_nor_write_numonyx
 .text          0x0000000010014458      0x248 /home/leon/git/swp-report/iMX6_Platform_SDK/output/mx6sdl/obds/smart_device_rev_a/obj/sdk/drivers/uart/test/uart_test.o
                0x0000000010014458                uart_interrupt_handler
                0x00000000100144b0                uart_test
 .text          0x00000000100146a0     0x3a0c /home/leon/git/swp-report/iMX6_Platform_SDK/output/mx6sdl/obds/smart_device_rev_a/obj/sdk/drivers/usb/test/usb0_host_test.o
                0x00000000100146a0                usb0_host_test
                0x00000000100151d8                emuerateDevice
                0x0000000010015358                usbh_set_device_address
                0x0000000010015a80                usbh_get_dev_desc
                0x00000000100161d4                usbh_get_config_desc
                0x000000001001696c                usbh_get_interface_desc
                0x00000000100171e0                usbh_set_configuration
                0x0000000010017920                usbh_get_report_desc
 .text          0x00000000100180ac      0x98c /home/leon/git/swp-report/iMX6_Platform_SDK/output/mx6sdl/obds/smart_device_rev_a/obj/sdk/drivers/usb/test/usb0_host_testmodes_test.o
                0x00000000100180ac                usb0_host_testmodes_test
 .text          0x0000000010018a38      0xcdc /home/leon/git/swp-report/iMX6_Platform_SDK/output/mx6sdl/obds/smart_device_rev_a/obj/sdk/drivers/usdhc/test/usdhc_test.o
                0x0000000010018a38                mmc_sd_test
                0x0000000010018a6c                usdhc_test
 .text          0x0000000010019714      0x264 /home/leon/git/swp-report/iMX6_Platform_SDK/output/mx6sdl/lib/libsdk.a(max7310.o)
                0x0000000010019714                max7310_reg_read
                0x0000000010019778                max7310_reg_write
                0x00000000100197e4                max7310_init
                0x00000000100198c4                max7310_set_gpio_output
 .text          0x0000000010019978      0xc50 /home/leon/git/swp-report/iMX6_Platform_SDK/output/mx6sdl/lib/libsdk.a(ccm_pll.o)
                0x0000000010019978                ccm_init
                0x0000000010019a9c                get_main_clock
                0x0000000010019d28                get_peri_clock
                0x0000000010019ec8                ccm_ccgr_config
                0x0000000010019f30                clock_gating_config
                0x000000001001a368                ccm_set_lpm_wakeup_source
                0x000000001001a45c                ccm_enter_low_power
                0x000000001001a4cc                ipu_hsp_clk_config
                0x000000001001a4ec                gpu_clock_config
 .text          0x000000001001a5c8      0x164 /home/leon/git/swp-report/iMX6_Platform_SDK/output/mx6sdl/lib/libsdk.a(cortexA9.o)
                0x000000001001a5c8                arm_set_interrupt_state
                0x000000001001a5ec                cpu_get_current
                0x000000001001a5f8                enable_neon_fpu
                0x000000001001a614                disable_strict_align_check
                0x000000001001a628                disable_L1_cache
                0x000000001001a648                get_arm_private_peripheral_base
                0x000000001001a650                arm_unified_tlb_invalidate
                0x000000001001a660                arm_unified_tlb_invalidate_is
                0x000000001001a670                arm_branch_prediction_enable
                0x000000001001a680                arm_branch_prediction_disable
                0x000000001001a690                arm_branch_target_cache_invalidate
                0x000000001001a69c                arm_branch_target_cache_invalidate_is
                0x000000001001a6a8                scu_enable
                0x000000001001a6bc                scu_join_smp
                0x000000001001a6cc                scu_leave_smp
                0x000000001001a6dc                scu_get_cpus_in_smp
                0x000000001001a6f0                scu_enable_maintenance_broadcast
                0x000000001001a700                scu_disable_maintenance_broadcast
                0x000000001001a710                scu_secure_invalidate
 .text          0x000000001001a72c      0x5e0 /home/leon/git/swp-report/iMX6_Platform_SDK/output/mx6sdl/lib/libsdk.a(gic.o)
                0x000000001001a810                gic_enable
                0x000000001001a870                gic_set_irq_security
                0x000000001001a918                gic_enable_irq
                0x000000001001a994                gic_set_irq_priority
                0x000000001001a9dc                gic_set_cpu_target
                0x000000001001aae8                gic_send_sgi
                0x000000001001ab3c                gic_cpu_enable
                0x000000001001ab9c                gic_set_cpu_priority_mask
                0x000000001001abd0                gic_read_irq_ack
                0x000000001001abfc                gic_write_end_of_irq
                0x000000001001ac2c                gic_init
                0x000000001001acd0                gic_init_cpu
 .text          0x000000001001ad0c      0x1b8 /home/leon/git/swp-report/iMX6_Platform_SDK/output/mx6sdl/lib/libsdk.a(interrupt.o)
                0x000000001001ad0c                IRQ_HDLR
                0x000000001001add0                disable_interrupt
                0x000000001001ae0c                enable_interrupt
                0x000000001001ae64                register_interrupt_routine
                0x000000001001ae98                default_interrupt_routine
 .text          0x000000001001aec4      0x458 /home/leon/git/swp-report/iMX6_Platform_SDK/output/mx6sdl/lib/libsdk.a(mmu.o)
                0x000000001001aec4                mmu_enable
                0x000000001001aefc                mmu_disable
                0x000000001001af30                mmu_init
                0x000000001001b04c                mmu_map_l1_range
                0x000000001001b260                mmu_virtual_to_physical
 .text          0x000000001001b31c        0x0 /home/leon/git/swp-report/iMX6_Platform_SDK/output/mx6sdl/lib/libsdk.a(startup.o)
 .text          0x000000001001b31c        0x4 /home/leon/git/swp-report/iMX6_Platform_SDK/output/mx6sdl/lib/libsdk.a(vectors.o)
                0x000000001001b31c                exception_handler
 .text.vectors  0x000000001001b320       0x48 /home/leon/git/swp-report/iMX6_Platform_SDK/output/mx6sdl/lib/libsdk.a(vectors.o)
                0x000000001001b320                vectors
 .text          0x000000001001b368      0xc30 /home/leon/git/swp-report/iMX6_Platform_SDK/output/mx6sdl/lib/libsdk.a(menu.o)
                0x000000001001b7e4                menu_get_indent
                0x000000001001b800                menuitem_cmd_showmenu
                0x000000001001b824                menuitem_cmd_exitmenu
                0x000000001001b848                menu_append_menuitems
                0x000000001001b968                menu_present
                0x000000001001bee8                menu_print_menuitem
 .text          0x000000001001bf98        0x0 /home/leon/git/swp-report/iMX6_Platform_SDK/output/mx6sdl/lib/libsdk.a(sdk_version.o)
 .text          0x000000001001bf98      0x8fc /home/leon/git/swp-report/iMX6_Platform_SDK/output/mx6sdl/lib/libsdk.a(system_util.o)
                0x000000001001bf98                _sys_exit
                0x000000001001bfb4                mybkpt
                0x000000001001bfbc                is_input_char
                0x000000001001c13c                read_input_string
                0x000000001001c41c                get_input_hex
                0x000000001001c694                read_int
                0x000000001001c7f0                jump_to_sdp
 .text          0x000000001001c894       0xdc /home/leon/git/swp-report/iMX6_Platform_SDK/output/mx6sdl/lib/libsdk.a(text_color.o)
                0x000000001001c894                printf_color
                0x000000001001c92c                get_color_supported
 .text          0x000000001001c970      0x40c /home/leon/git/swp-report/iMX6_Platform_SDK/output/mx6sdl/lib/libsdk.a(cs42888.o)
                0x000000001001cab8                cs42888_init
                0x000000001001caf0                cs42888_dev_info
                0x000000001001cb44                cs42888_config
                0x000000001001cd2c                cs42888_deinit
 .text          0x000000001001cd7c     0x297c /home/leon/git/swp-report/iMX6_Platform_SDK/output/mx6sdl/lib/libsdk.a(imx-ssi.o)
                0x000000001001ecb0                ssi_init
                0x000000001001ecf0                ssi_config
                0x000000001001f204                ssi_write_fifo
                0x000000001001f3fc                ssi_read_fifo
                0x000000001001f5a8                ssi_deinit
 .text          0x000000001001f6f8      0xc08 /home/leon/git/swp-report/iMX6_Platform_SDK/output/mx6sdl/lib/libsdk.a(imx_audmux.o)
                0x000000001001f8d8                audmux_port_set
                0x000000001001fac4                audmux_route
 .text          0x0000000010020300      0xdfc /home/leon/git/swp-report/iMX6_Platform_SDK/output/mx6sdl/lib/libsdk.a(imx_esai.o)
                0x0000000010020b48                esai_config
                0x0000000010020eb0                esai_init
                0x0000000010020eec                esai_deinit
                0x0000000010020f10                esai_write_fifo
 .text          0x00000000100210fc      0x6fc /home/leon/git/swp-report/iMX6_Platform_SDK/output/mx6sdl/lib/libsdk.a(imx_spdif.o)
                0x0000000010021468                spdif_init
                0x00000000100214a4                spdif_config
                0x00000000100216d8                spdif_write_fifo
                0x00000000100217d4                spdif_deinit
 .text          0x00000000100217f8     0x1100 /home/leon/git/swp-report/iMX6_Platform_SDK/output/mx6sdl/lib/libsdk.a(sgtl5000.o)
                0x00000000100221f4                sgtl5000_init
                0x0000000010022768                sgtl5000_i2s_config
                0x00000000100228c4                sgtl5000_deinit
 .text          0x00000000100228f8      0xeac /home/leon/git/swp-report/iMX6_Platform_SDK/output/mx6sdl/lib/libsdk.a(wm8958_dac.o)
                0x0000000010022a9c                WM8958_dump
                0x0000000010022fe0                WM8958_DAC_configure
                0x0000000010023710                WM8958_DAC_init
                0x0000000010023778                WM8958_DAC_deinit
 .text          0x00000000100237a4      0xb74 /home/leon/git/swp-report/iMX6_Platform_SDK/output/mx6sdl/lib/libsdk.a(wm8962.o)
                0x0000000010023aa0                WM8962_dump
                0x0000000010023ad0                WM8962_DAC_configure
                0x00000000100241f8                WM8962_DAC_init
                0x00000000100242ec                WM8962_DAC_deinit
 .text          0x0000000010024318      0x7c8 /home/leon/git/swp-report/iMX6_Platform_SDK/output/mx6sdl/lib/libsdk.a(board_id.o)
                0x0000000010024318                chip_name
                0x0000000010024430                chip_revision
                0x0000000010024508                board_name
                0x0000000010024610                board_revision
                0x00000000100246d8                board_description
                0x00000000100247f8                get_board_id
                0x00000000100248d4                show_board_id
 .text          0x0000000010024ae0      0xa88 /home/leon/git/swp-report/iMX6_Platform_SDK/output/mx6sdl/lib/libsdk.a(smd_sensor.o)
                0x0000000010024e78                sensor_config
                0x0000000010024eb4                sensor_search
                0x0000000010025044                sensor_init
                0x00000000100251b8                sensor_af_trigger
                0x0000000010025298                sensor_autofocus_init
                0x0000000010025418                camera_strobeflash_on
                0x00000000100254f4                camera_strobeflash_off
 .text          0x0000000010025568     0x17e0 /home/leon/git/swp-report/iMX6_Platform_SDK/output/mx6sdl/lib/libsdk.a(enet_drv.o)
                0x0000000010025568                imx_enet_mii_read
                0x0000000010025678                imx_enet_mii_write
                0x0000000010025b4c                enet_phy_rework_ar8031
                0x0000000010025cc0                enet_phy_rework_ksz9021
                0x0000000010025db4                imx_enet_phy_init
                0x0000000010026034                imx_enet_get_phy_status
                0x000000001002635c                imx_enet_phy_enable_external_loopback
                0x0000000010026478                imx_enet_poll
                0x0000000010026570                imx_enet_send
                0x0000000010026688                imx_enet_recv
                0x0000000010026864                imx_enet_init
                0x00000000100269b8                imx_enet_start
                0x0000000010026a4c                imx_enet_stop
                0x0000000010026a90                imx_enet_isolate_phy
                0x0000000010026b34                imx_enet_unisolate_phy
                0x0000000010026bfc                imx_enet_mii_type
 .text          0x0000000010026d48      0xb94 /home/leon/git/swp-report/iMX6_Platform_SDK/output/mx6sdl/lib/libsdk.a(mxc_epdc.o)
                0x0000000010026e6c                epdc_reset
                0x0000000010027014                epdc_set_update_addr
                0x0000000010027040                epdc_set_update_coord
                0x000000001002707c                epdc_set_update_dimensions
                0x00000000100270b8                epdc_submit_update
                0x0000000010027174                epdc_is_lut_complete
                0x00000000100271d4                epdc_clear_lut_complete_irq
                0x0000000010027208                epdc_is_lut_active
                0x00000000100272a4                epdc_any_luts_active
                0x00000000100272f4                epdc_any_luts_available
                0x0000000010027338                epdc_get_next_lut
                0x000000001002736c                epdc_is_working_buffer_busy
                0x00000000100273c8                epdc_is_working_buffer_complete
                0x0000000010027414                epdc_is_collision
                0x0000000010027460                epdc_dump_registers
                0x0000000010027560                epdc_set_vertical_timing
                0x00000000100275c0                epdc_init_settings
                0x000000001002785c                epdc_buffer_init
                0x00000000100278b4                epdc_load_image
 .text          0x00000000100278dc     0x1308 /home/leon/git/swp-report/iMX6_Platform_SDK/output/mx6sdl/lib/libsdk.a(gpio.o)
                0x000000001002790c                gpio_get_port_count
                0x0000000010027924                gpio_set_gpio
                0x00000000100279e8                gpio_set_direction
                0x0000000010027c44                gpio_get_direction
                0x0000000010027d8c                gpio_set_level
                0x00000000100280cc                gpio_get_level
                0x000000001002822c                gpio_set_interrupt_config
                0x0000000010028630                gpio_set_interrupt_mask
                0x0000000010028874                gpio_get_interrupt_status
                0x00000000100289d0                gpio_clear_interrupt
 .text          0x0000000010028be4        0x0 /home/leon/git/swp-report/iMX6_Platform_SDK/output/mx6sdl/lib/libsdk.a(imx6sdl_gpio_map.o)
 .text          0x0000000010028be4     0x1338 /home/leon/git/swp-report/iMX6_Platform_SDK/output/mx6sdl/lib/libsdk.a(hdmi_tx.o)
                0x0000000010028be4                hdmi_config_input_source
                0x0000000010028c24                hdmi_video_sample
                0x0000000010028e6c                update_csc_coeffs
                0x0000000010029380                hdmi_video_csc
                0x0000000010029520                hdmi_video_packetize
                0x00000000100298f0                preamble_filter_set
                0x00000000100299b0                hdmi_av_frame_composer
                0x0000000010029df8                hdmi_tx_hdcp_config
                0x0000000010029e64                hdmi_config_force_video
                0x0000000010029ebc                hdmi_config_forced_pixels
 .text          0x0000000010029f1c      0xd24 /home/leon/git/swp-report/iMX6_Platform_SDK/output/mx6sdl/lib/libsdk.a(hdmi_tx_audio.o)
                0x0000000010029f1c                hdmi_audio_mute
                0x0000000010029f6c                audio_PacketLayout
                0x0000000010029fac                audio_DMA_InterruptMask
                0x0000000010029fdc                audio_DMA_InterruptPolarity
                0x000000001002a00c                audio_DMA_ResetFIFO
                0x000000001002a030                audio_clk_N
                0x000000001002a090                audio_clk_CTS
                0x000000001002a130                audio_ComputeN
                0x000000001002a458                audio_ComputeCTS
                0x000000001002a68c                audio_DMA_StartAddr
                0x000000001002a704                audio_DMA_StopAddr
                0x000000001002a77c                audio_DMA_LockEnable
                0x000000001002a7bc                audio_DMA_BurstMode
                0x000000001002a7fc                audio_DMA_IncrType
                0x000000001002a83c                audio_DMA_Threshold
                0x000000001002a86c                audio_DMA_SetCONF1
                0x000000001002a89c                audio_DMA_Start
                0x000000001002a8c0                audio_Configure
                0x000000001002a978                Audio_ChannelCount
                0x000000001002aa68                audio_Configure_DMA
                0x000000001002ac00                audio_info_config
 .text          0x000000001002ac40     0x14e8 /home/leon/git/swp-report/iMX6_Platform_SDK/output/mx6sdl/lib/libsdk.a(hdmi_tx_phy.o)
                0x000000001002ac40                hdmi_phy_int_mask
                0x000000001002c094                hdmi_phy_init
 .text          0x000000001002c128     0x1774 /home/leon/git/swp-report/iMX6_Platform_SDK/output/mx6sdl/lib/libsdk.a(imx_i2c.o)
                0x000000001002c158                i2c_get_request_instance
                0x000000001002cbb0                i2c_xfer
                0x000000001002d2c8                i2c_read
                0x000000001002d2f8                i2c_write
                0x000000001002d328                i2c_setup_interrupt
                0x000000001002d594                i2c_init
 .text          0x000000001002d89c      0x470 /home/leon/git/swp-report/iMX6_Platform_SDK/output/mx6sdl/lib/libsdk.a(ips_disp_panel.o)
                0x000000001002db30                search_panel
                0x000000001002dbec                list_panel
                0x000000001002dc84                get_panel_by_id
 .text          0x000000001002dd0c      0xf8c /home/leon/git/swp-report/iMX6_Platform_SDK/output/mx6sdl/lib/libsdk.a(ipu_common.o)
                0x000000001002dd0c                need_csc
                0x000000001002dd74                ipu_write_field
                0x000000001002de18                ipu_read
                0x000000001002de70                ipu_write
                0x000000001002dec4                ipu_enable_display
                0x000000001002df30                ipu_disable_display
                0x000000001002dfb0                ipu_sw_reset
                0x000000001002e090                ipu_display_setup
                0x000000001002e204                ipu_dual_display_setup
                0x000000001002e308                ipu_capture_setup
                0x000000001002e74c                ipu_capture_streamoff
                0x000000001002e81c                ipu_mipi_csi2_setup
                0x000000001002ea14                ipu1_ch0_eobnd_isr
                0x000000001002ebf0                ipu_ch0_eobnd_interrupt_register
 .text          0x000000001002ec98      0xcb8 /home/leon/git/swp-report/iMX6_Platform_SDK/output/mx6sdl/lib/libsdk.a(ipu_csi.o)
                0x000000001002ec98                ipu_csi_config
                0x000000001002f2dc                ipu_smfc_fifo_allocate
                0x000000001002f438                ipu_capture_disp_link
                0x000000001002f564                ipu_disable_csi
                0x000000001002f5d0                ipu_disable_smfc
                0x000000001002f604                ipu_csi_test_mode_color
 .text          0x000000001002f950     0x1bdc /home/leon/git/swp-report/iMX6_Platform_SDK/output/mx6sdl/lib/libsdk.a(ipu_dc.o)
                0x000000001002f950                ipu_dc_config
                0x000000001002fc40                ipu_dc_write_channel_config
                0x000000001002fef8                ipu_dc_display_config
                0x000000001003008c                ipu_dc_map
                0x0000000010030420                ipu_dc_microcode_config
                0x00000000100311cc                ipu_dc_microcode_event
 .text          0x000000001003152c      0xfe4 /home/leon/git/swp-report/iMX6_Platform_SDK/output/mx6sdl/lib/libsdk.a(ipu_di.o)
                0x000000001003152c                ipu_di_config
                0x0000000010031b68                ipu_di_waveform_config
                0x0000000010031c30                ipu_di_screen_set
                0x0000000010031cc4                ipu_di_pointer_config
                0x0000000010031e14                ipu_di_bsclk_gen
                0x0000000010031f4c                ipu_di_sync_config
                0x0000000010032254                ipu_di_interface_set
 .text          0x0000000010032510      0x3e0 /home/leon/git/swp-report/iMX6_Platform_SDK/output/mx6sdl/lib/libsdk.a(ipu_dmfc.o)
                0x0000000010032510                ipu_dmfc_config
                0x00000000100327a4                ipu_dmfc_alloc
 .text          0x00000000100328f0      0x554 /home/leon/git/swp-report/iMX6_Platform_SDK/output/mx6sdl/lib/libsdk.a(ipu_dp.o)
                0x00000000100328f0                ipu_dp_config
                0x0000000010032944                ipu_dp_csc_config
                0x0000000010032ca0                ipu_dp_fg_config
 .text          0x0000000010032e44     0x2828 /home/leon/git/swp-report/iMX6_Platform_SDK/output/mx6sdl/lib/libsdk.a(ipu_idmac.o)
                0x0000000010032e44                ipu_cpmem_set_field
                0x0000000010032f70                ipu_cpmem_mod_field
                0x00000000100330fc                ipu_cpmem_read_field
                0x0000000010033258                ipu_channel_buf_ready
                0x00000000100333d0                ipu_channel_buf_not_ready
                0x0000000010033548                ipu_idmac_channel_mode_sel
                0x00000000100335d0                ipu_idmac_channel_enable
                0x0000000010033658                ipu_idmac_channel_busy
                0x0000000010033704                ipu_general_idmac_config
                0x0000000010033be8                ipu_disp_bg_idmac_config
                0x0000000010033cd0                ipu_disp_fg_idmac_config
                0x0000000010033db8                ipu_dma_update_buffer
                0x0000000010033eac                ipu_idmac_chan_cur_buff
                0x0000000010033f40                ipu_rotate_idmac_config
                0x0000000010034074                ipu_resize_idmac_config
                0x00000000100341b0                ipu_deinterlace_idmac_config
                0x0000000010034304                ipu_idma_pixel_format_config
 .text          0x000000001003566c      0x590 /home/leon/git/swp-report/iMX6_Platform_SDK/output/mx6sdl/lib/libsdk.a(ipu_vdi.o)
                0x000000001003566c                ipu_deinterlace_3_fields
                0x00000000100356bc                ipu_vdi_set_top_field_man
                0x0000000010035730                ipu_vdi_set_motion
                0x0000000010035830                ipu_vdi_init
                0x0000000010035974                ipu_vdi_uninit
                0x00000000100359bc                ips_deinterlace_proc
 .text          0x0000000010035bfc      0x4b4 /home/leon/git/swp-report/iMX6_Platform_SDK/output/mx6sdl/lib/libsdk.a(ldb.o)
                0x0000000010035dd4                ldb_config
                0x000000001003600c                ldb_set_vs_polarity
 .text          0x00000000100360b0      0x3f8 /home/leon/git/swp-report/iMX6_Platform_SDK/output/mx6sdl/lib/libsdk.a(ocotp.o)
                0x000000001003611c                Delay4Reload
                0x0000000010036360                ocotp_sense_fuse
                0x00000000100363d0                ocotp_fuse_blow_row
                0x0000000010036430                ocotp_reload_otp_shadow_registers
 .text          0x00000000100364a8     0x1328 /home/leon/git/swp-report/iMX6_Platform_SDK/output/mx6sdl/lib/libsdk.a(ecspi.o)
                0x0000000010036a94                ecspi_configure
                0x000000001003741c                ecspi_open
                0x00000000100374d4                ecspi_close
                0x00000000100375e0                ecspi_xfer
 .text          0x00000000100377d0      0x27c /home/leon/git/swp-report/iMX6_Platform_SDK/output/mx6sdl/lib/libsdk.a(timer.o)
                0x00000000100377d0                hal_delay_us
                0x000000001003783c                system_time_init
                0x0000000010037998                time_get_microseconds
 .text          0x0000000010037a4c     0x281c /home/leon/git/swp-report/iMX6_Platform_SDK/output/mx6sdl/lib/libsdk.a(imx_uart.o)
                0x0000000010037a4c                uart_get_reffreq
                0x0000000010037b48                uart_putchar
                0x0000000010037c98                uart_getchar
                0x0000000010037df8                uart_set_FIFO_mode
                0x0000000010038920                uart_set_loopback_mode
                0x0000000010038b74                uart_setup_interrupt
                0x0000000010038c40                uart_init
 .text          0x000000001003a268      0x3a8 /home/leon/git/swp-report/iMX6_Platform_SDK/output/mx6sdl/lib/libsdk.a(usb_common.o)
                0x000000001003a268                usb_get_port_speed
                0x000000001003a404                swap32
                0x000000001003a480                get_menu_item
 .text          0x000000001003a610     0x3814 /home/leon/git/swp-report/iMX6_Platform_SDK/output/mx6sdl/lib/libsdk.a(usbh_drv.o)
                0x000000001003a610                usbh_init
                0x000000001003b5a4                usbh_periodic_schedule_init
                0x000000001003ce18                usbh_bus_reset
                0x000000001003d120                usbh_enable_asynchronous_schedule
                0x000000001003d428                usbh_disable_asynchronous_schedule
                0x000000001003d730                usbh_disable_Periodic_list
                0x000000001003da38                usbh_qtd_init
                0x000000001003dc58                usbh_qh_init
 .text          0x000000001003de24     0x1184 /home/leon/git/swp-report/iMX6_Platform_SDK/output/mx6sdl/lib/libsdk.a(usdhc.o)
                0x000000001003e03c                set_card_access_mode
                0x000000001003e07c                read_usdhc_adma_mode
                0x000000001003e09c                read_usdhc_intr_mode
                0x000000001003e0bc                card_init
                0x000000001003e26c                card_emmc_init
                0x000000001003e300                card_cmd_config
                0x000000001003e414                card_get_cid
                0x000000001003e4b4                card_enter_trans
                0x000000001003e590                card_trans_status
                0x000000001003e68c                card_get_port
                0x000000001003e770                card_set_blklen
                0x000000001003e850                card_data_read
                0x000000001003eb30                card_data_write
                0x000000001003ee24                card_xfer_result
                0x000000001003ef18                card_wait_xfer_done
 .text          0x000000001003efa8     0x3478 /home/leon/git/swp-report/iMX6_Platform_SDK/output/mx6sdl/lib/libsdk.a(usdhc_host.o)
                0x0000000010040380                usdhc1_isr
                0x0000000010040398                usdhc2_isr
                0x00000000100403b0                usdhc3_isr
                0x00000000100403c8                usdhc4_isr
                0x00000000100403e0                host_init
                0x0000000010040410                host_init_active
                0x00000000100404b8                host_send_cmd
                0x00000000100408e0                host_cfg_clock
                0x0000000010041080                host_set_bus_width
                0x00000000100410b8                host_reset
                0x00000000100411e8                host_read_response
                0x00000000100413d8                host_cfg_block
                0x000000001004164c                host_clear_fifo
                0x00000000100417f8                host_setup_adma
                0x0000000010041a18                host_data_read
                0x0000000010041f20                host_data_write
 .text          0x0000000010042420      0xe08 /home/leon/git/swp-report/iMX6_Platform_SDK/output/mx6sdl/lib/libsdk.a(usdhc_mmc.o)
                0x00000000100429c0                mmc_init
                0x0000000010042a64                emmc_init
                0x0000000010042b90                emmc_print_cfg_info
                0x0000000010042dc8                mmc_set_boot_bus_width
                0x0000000010042e90                mmc_set_boot_partition
                0x0000000010042f90                mmc_set_boot_ack
                0x0000000010043014                mmc_voltage_validation
 .text          0x0000000010043228      0x800 /home/leon/git/swp-report/iMX6_Platform_SDK/output/mx6sdl/lib/libsdk.a(usdhc_sd.o)
                0x00000000100435bc                sd_init
                0x0000000010043674                sd_voltage_validation
 .text          0x0000000010043a28       0x98 /home/leon/git/swp-report/iMX6_Platform_SDK/output/mx6sdl/lib/libsdk.a(arm_abort.o)
                0x0000000010043a28                common_abort_handler
                0x0000000010043a88                data_abort_handler
                0x0000000010043aa0                prefetch_abort_handler
 .text          0x0000000010043ac0      0x634 /home/leon/git/swp-report/iMX6_Platform_SDK/output/mx6sdl/lib/libsdk.a(armv7_cache.o)
                0x0000000010043ac0                arm_dcache_state_query
                0x0000000010043b00                arm_dcache_enable
                0x0000000010043b48                arm_dcache_disable
                0x0000000010043b80                arm_dcache_invalidate
                0x0000000010043c1c                arm_dcache_invalidate_line
                0x0000000010043c88                arm_dcache_invalidate_mlines
                0x0000000010043d28                arm_dcache_flush
                0x0000000010043dc4                arm_dcache_flush_line
                0x0000000010043e30                arm_dcache_flush_mlines
                0x0000000010043ed0                arm_icache_state_query
                0x0000000010043f10                arm_icache_enable
                0x0000000010043f58                arm_icache_disable
                0x0000000010043f90                arm_icache_invalidate
                0x0000000010043fbc                arm_icache_invalidate_is
                0x0000000010043fe8                arm_icache_invalidate_line
                0x0000000010044054                arm_icache_invalidate_mlines
 .text          0x00000000100440f4        0x0 /home/leon/git/swp-report/iMX6_Platform_SDK/output/mx6sdl/lib/libsdk.a(camera_profile.o)
 .text          0x00000000100440f4     0x1e94 /home/leon/git/swp-report/iMX6_Platform_SDK/output/mx6sdl/lib/libsdk.a(hdmi_common.o)
                0x00000000100440f4                isColorSpaceConversion
                0x0000000010044130                isColorSpaceDecimation
                0x000000001004416c                isColorSpaceInterpolation
                0x00000000100441c0                isPixelRepetition
                0x00000000100441f8                hdmi_set_video_mode
 .text          0x0000000010045f88     0x1638 /home/leon/git/swp-report/iMX6_Platform_SDK/output/mx6sdl/lib/libsdk.a(ipu_ic.o)
                0x0000000010045f88                ipu_ic_enable
                0x0000000010045fd4                ipu_ic_rotation_config
                0x00000000100461e0                ipu_ic_resize_config
                0x0000000010046734                ipu_ic_deinterlace_config
                0x0000000010046910                ipu_ic_calc_resize_coeffs
                0x0000000010046a24                ipu_ic_config_resize_rate
                0x0000000010046b4c                ipu_ic_combine_config
                0x0000000010046d08                ipu_ic_csc_config
                0x00000000100473b8                ipu_ic_task_enable
 .text          0x00000000100475c0      0x8dc /home/leon/git/swp-report/iMX6_Platform_SDK/output/mx6sdl/lib/libsdk.a(epit.o)
                0x00000000100475c0                epit_reload_counter
                0x0000000010047620                epit_get_counter_value
                0x000000001004767c                epit_set_compare_event
                0x00000000100476dc                epit_get_compare_event
                0x00000000100477d4                epit_counter_disable
                0x0000000010047998                epit_counter_enable
                0x0000000010047bf4                epit_setup_interrupt
                0x0000000010047c84                epit_init
 .text          0x0000000010047e9c      0x2f8 /home/leon/git/swp-report/iMX6_Platform_SDK/output/mx6sdl/lib/libsdk.a(mx6x_usb.o)
                0x0000000010047e9c                usbEnableClocks
                0x0000000010047fc0                usbEnableTransceiver
 .text          0x0000000010048194      0x4bc /home/leon/git/swp-report/iMX6_Platform_SDK/output/mx6sdl/lib/libsdk.a(abort_handler.o)
                0x0000000010048194                dump_regs
 .text          0x0000000010048650      0x144 /home/leon/git/swp-report/iMX6_Platform_SDK/output/mx6sdl/lib/libboard_smart_device_rev_a.a(board_audio.o)
                0x0000000010048650                SGTL5000PowerUp_and_clockinit
                0x0000000010048660                spdif_get_tx_clk_freq
                0x000000001004867c                audio_codec_power_on
                0x00000000100486b8                audio_clock_config
                0x00000000100486e0                spdif_clk_cfg
                0x0000000010048744                esai_codec_power_on
                0x000000001004875c                esai_clk_sel_gate_on
 .text          0x0000000010048794       0x9c /home/leon/git/swp-report/iMX6_Platform_SDK/output/mx6sdl/lib/libboard_smart_device_rev_a.a(board_buttons.o)
                0x0000000010048794                android_buttons_iomux_config
 .text          0x0000000010048830      0x38c /home/leon/git/swp-report/iMX6_Platform_SDK/output/mx6sdl/lib/libboard_smart_device_rev_a.a(board_camera.o)
                0x0000000010048830                camera_power_on
                0x0000000010048840                csi_port0_iomux_config
                0x0000000010048874                camera_ipu1_iomux_config
                0x0000000010048a10                sensor_reset
                0x0000000010048aa8                sensor_standby
                0x0000000010048b24                sensor_clock_setting
 .text          0x0000000010048bbc      0x44c /home/leon/git/swp-report/iMX6_Platform_SDK/output/mx6sdl/lib/libboard_smart_device_rev_a.a(board_display.o)
                0x0000000010048bbc                lvds_power_on
                0x0000000010048c24                disable_para_panel
                0x0000000010048c74                tftlcd_backlight_en
                0x0000000010048d50                tftlcd_reset
                0x0000000010048de8                ldb_clock_config
                0x0000000010048ee4                epdc_clock_setting
                0x0000000010048f60                epdc_power_supply
 .text          0x0000000010049008      0x200 /home/leon/git/swp-report/iMX6_Platform_SDK/output/mx6sdl/lib/libboard_smart_device_rev_a.a(board_hdmi.o)
                0x0000000010049008                hdmi_tx_cec_pgm_iomux
                0x000000001004904c                hdmi_tx_ddc_pgm_iomux
                0x00000000100490c4                hdmi_tx_phydtb_pgm_iomux
                0x0000000010049114                hdmi_pgm_iomux
                0x0000000010049134                ext_hdmi_transmitter_power_on
                0x0000000010049144                hdmi_clock_set
 .text          0x0000000010049208        0x0 /home/leon/git/swp-report/iMX6_Platform_SDK/output/mx6sdl/lib/libboard_smart_device_rev_a.a(board_i2c.o)
 .text          0x0000000010049208       0x20 /home/leon/git/swp-report/iMX6_Platform_SDK/output/mx6sdl/lib/libboard_smart_device_rev_a.a(board_io_expanders.o)
                0x0000000010049208                board_ioexpander_init
                0x0000000010049218                board_ioexpander_iomux_config
 .text          0x0000000010049228      0x240 /home/leon/git/swp-report/iMX6_Platform_SDK/output/mx6sdl/lib/libboard_smart_device_rev_a.a(board_mipi.o)
                0x0000000010049228                mipi_cam_power_on
                0x00000000100492d0                mipi_backlight_en
                0x0000000010049320                mipi_display_reset
                0x0000000010049390                mipi_clock_set
                0x00000000100493c0                mipi_csi2_clock_set
 .text          0x0000000010049468       0x94 /home/leon/git/swp-report/iMX6_Platform_SDK/output/mx6sdl/lib/libboard_smart_device_rev_a.a(board_network.o)
                0x0000000010049468                imx_ar8031_iomux
                0x000000001004947c                imx_KSZ9021RN_reset
                0x000000001004948c                imx_ar8031_reset
                0x00000000100494d4                imx_enet_iomux
                0x00000000100494e8                imx_enet_phy_reset
 .text          0x00000000100494fc      0x128 /home/leon/git/swp-report/iMX6_Platform_SDK/output/mx6sdl/lib/libboard_smart_device_rev_a.a(board_usb.o)
                0x00000000100494fc                usbEnableVbus
                0x00000000100495a8                usbDisableVbus
                0x0000000010049614                reset_usb_hub
 .text          0x0000000010049624      0x154 /home/leon/git/swp-report/iMX6_Platform_SDK/output/mx6sdl/lib/libboard_smart_device_rev_a.a(board_usdhc.o)
                0x0000000010049624                usdhc_gpio_config
                0x0000000010049668                usdhc_card_detected
                0x00000000100496f0                usdhc_write_protected
 .text          0x0000000010049778        0x0 /home/leon/git/swp-report/iMX6_Platform_SDK/output/mx6sdl/lib/libboard_smart_device_rev_a.a(hardware_modules.o)
 .text          0x0000000010049778        0x0 /home/leon/git/swp-report/iMX6_Platform_SDK/output/mx6sdl/lib/libboard_smart_device_rev_a.a(dcd.o)
 .text          0x0000000010049778       0xa0 /home/leon/git/swp-report/iMX6_Platform_SDK/output/mx6sdl/lib/libboard_smart_device_rev_a.a(audmux_iomux_config.o)
                0x0000000010049778                audmux_iomux_config
 .text          0x0000000010049818       0x34 /home/leon/git/swp-report/iMX6_Platform_SDK/output/mx6sdl/lib/libboard_smart_device_rev_a.a(ccm_iomux_config.o)
                0x0000000010049818                ccm_iomux_config
 .text          0x000000001004984c       0x80 /home/leon/git/swp-report/iMX6_Platform_SDK/output/mx6sdl/lib/libboard_smart_device_rev_a.a(ecspi_iomux_config.o)
                0x000000001004984c                ecspi_iomux_config
 .text          0x00000000100498cc      0x3bc /home/leon/git/swp-report/iMX6_Platform_SDK/output/mx6sdl/lib/libboard_smart_device_rev_a.a(enet_iomux_config.o)
                0x00000000100498cc                enet_iomux_config
 .text          0x0000000010049c88      0x66c /home/leon/git/swp-report/iMX6_Platform_SDK/output/mx6sdl/lib/libboard_smart_device_rev_a.a(epdc_iomux_config.o)
                0x0000000010049c88                epdc_iomux_config
 .text          0x000000001004a2f4       0x80 /home/leon/git/swp-report/iMX6_Platform_SDK/output/mx6sdl/lib/libboard_smart_device_rev_a.a(i2c_iomux_config.o)
                0x000000001004a2f4                i2c_iomux_config
 .text          0x000000001004a374      0x2f8 /home/leon/git/swp-report/iMX6_Platform_SDK/output/mx6sdl/lib/libboard_smart_device_rev_a.a(iomux_config.o)
                0x000000001004a374                iomux_config
                0x000000001004a3ec                arm_iomux_config
                0x000000001004a3fc                asrc_iomux_config
                0x000000001004a40c                dcic1_iomux_config
                0x000000001004a41c                dcic2_iomux_config
                0x000000001004a42c                ecspi2_iomux_config
                0x000000001004a43c                ecspi3_iomux_config
                0x000000001004a44c                ecspi4_iomux_config
                0x000000001004a45c                eim_iomux_config
                0x000000001004a46c                epit1_iomux_config
                0x000000001004a47c                epit2_iomux_config
                0x000000001004a48c                esai_iomux_config
                0x000000001004a49c                flexcan2_iomux_config
                0x000000001004a4ac                gpmi_iomux_config
                0x000000001004a4bc                gpt_iomux_config
                0x000000001004a4cc                hdmi_iomux_config
                0x000000001004a4dc                i2c4_iomux_config
                0x000000001004a4ec                lcd_iomux_config
                0x000000001004a4fc                ldb_iomux_config
                0x000000001004a50c                mipi_csi_iomux_config
                0x000000001004a51c                mipi_dsi_iomux_config
                0x000000001004a52c                mipi_hsi_iomux_config
                0x000000001004a53c                mlb_iomux_config
                0x000000001004a54c                pcie_iomux_config
                0x000000001004a55c                pmu_iomux_config
                0x000000001004a56c                pwm2_iomux_config
                0x000000001004a57c                pwm3_iomux_config
                0x000000001004a58c                pwm4_iomux_config
                0x000000001004a59c                sdma_iomux_config
                0x000000001004a5ac                snvs_iomux_config
                0x000000001004a5bc                spdif_iomux_config
                0x000000001004a5cc                src_iomux_config
                0x000000001004a5dc                uart2_iomux_config
                0x000000001004a5ec                uart3_iomux_config
                0x000000001004a5fc                uart4_iomux_config
                0x000000001004a60c                uart5_iomux_config
                0x000000001004a61c                usb_iomux_config
                0x000000001004a62c                usdhc1_iomux_config
                0x000000001004a63c                wdog1_iomux_config
                0x000000001004a64c                wdog2_iomux_config
                0x000000001004a65c                xtalosc_iomux_config
 .text          0x000000001004a66c      0x5b0 /home/leon/git/swp-report/iMX6_Platform_SDK/output/mx6sdl/lib/libboard_smart_device_rev_a.a(ipu1_iomux_config.o)
                0x000000001004a66c                ipu1_iomux_config
 .text          0x000000001004ac1c       0x50 /home/leon/git/swp-report/iMX6_Platform_SDK/output/mx6sdl/lib/libboard_smart_device_rev_a.a(ipu_iomux_config.o)
                0x000000001004ac1c                ipu_iomux_config
 .text          0x000000001004ac6c      0x190 /home/leon/git/swp-report/iMX6_Platform_SDK/output/mx6sdl/lib/libboard_smart_device_rev_a.a(kpp_iomux_config.o)
                0x000000001004ac6c                kpp_iomux_config
 .text          0x000000001004adfc     0x2484 /home/leon/git/swp-report/iMX6_Platform_SDK/output/mx6sdl/lib/libboard_smart_device_rev_a.a(mmdc_iomux_config.o)
                0x000000001004adfc                mmdc_iomux_config
 .text          0x000000001004d280       0x34 /home/leon/git/swp-report/iMX6_Platform_SDK/output/mx6sdl/lib/libboard_smart_device_rev_a.a(pwm1_iomux_config.o)
                0x000000001004d280                pwm1_iomux_config
 .text          0x000000001004d2b4       0x70 /home/leon/git/swp-report/iMX6_Platform_SDK/output/mx6sdl/lib/libboard_smart_device_rev_a.a(sjc_iomux_config.o)
                0x000000001004d2b4                sjc_iomux_config
 .text          0x000000001004d324       0x78 /home/leon/git/swp-report/iMX6_Platform_SDK/output/mx6sdl/lib/libboard_smart_device_rev_a.a(uart1_iomux_config.o)
                0x000000001004d324                uart1_iomux_config
 .text          0x000000001004d39c       0x8c /home/leon/git/swp-report/iMX6_Platform_SDK/output/mx6sdl/lib/libboard_smart_device_rev_a.a(uart_iomux_config.o)
                0x000000001004d39c                uart_iomux_config
 .text          0x000000001004d428      0x188 /home/leon/git/swp-report/iMX6_Platform_SDK/output/mx6sdl/lib/libboard_smart_device_rev_a.a(usdhc2_iomux_config.o)
                0x000000001004d428                usdhc2_iomux_config
 .text          0x000000001004d5b0      0x188 /home/leon/git/swp-report/iMX6_Platform_SDK/output/mx6sdl/lib/libboard_smart_device_rev_a.a(usdhc3_iomux_config.o)
                0x000000001004d5b0                usdhc3_iomux_config
 .text          0x000000001004d738      0x188 /home/leon/git/swp-report/iMX6_Platform_SDK/output/mx6sdl/lib/libboard_smart_device_rev_a.a(usdhc4_iomux_config.o)
                0x000000001004d738                usdhc4_iomux_config
 .text          0x000000001004d8c0       0x80 /home/leon/git/swp-report/iMX6_Platform_SDK/output/mx6sdl/lib/libboard_smart_device_rev_a.a(usdhc_iomux_config.o)
                0x000000001004d8c0                usdhc_iomux_config
 .text          0x000000001004d940       0xe0 /home/leon/git/swp-report/iMX6_Platform_SDK/output/mx6sdl/lib/libboard_smart_device_rev_a.a(ecspi1_iomux_config.o)
                0x000000001004d940                ecspi1_iomux_config
 .text          0x000000001004da20       0x68 /home/leon/git/swp-report/iMX6_Platform_SDK/output/mx6sdl/lib/libboard_smart_device_rev_a.a(flexcan1_iomux_config.o)
                0x000000001004da20                flexcan1_iomux_config
 .text          0x000000001004da88      0x274 /home/leon/git/swp-report/iMX6_Platform_SDK/output/mx6sdl/lib/libboard_smart_device_rev_a.a(gpio1_iomux_config.o)
                0x000000001004da88                gpio1_iomux_config
 .text          0x000000001004dcfc      0x164 /home/leon/git/swp-report/iMX6_Platform_SDK/output/mx6sdl/lib/libboard_smart_device_rev_a.a(gpio2_iomux_config.o)
                0x000000001004dcfc                gpio2_iomux_config
 .text          0x000000001004de60      0x258 /home/leon/git/swp-report/iMX6_Platform_SDK/output/mx6sdl/lib/libboard_smart_device_rev_a.a(gpio3_iomux_config.o)
                0x000000001004de60                gpio3_iomux_config
 .text          0x000000001004e0b8       0xa0 /home/leon/git/swp-report/iMX6_Platform_SDK/output/mx6sdl/lib/libboard_smart_device_rev_a.a(gpio4_iomux_config.o)
                0x000000001004e0b8                gpio4_iomux_config
 .text          0x000000001004e158       0x50 /home/leon/git/swp-report/iMX6_Platform_SDK/output/mx6sdl/lib/libboard_smart_device_rev_a.a(gpio5_iomux_config.o)
                0x000000001004e158                gpio5_iomux_config
 .text          0x000000001004e1a8      0x150 /home/leon/git/swp-report/iMX6_Platform_SDK/output/mx6sdl/lib/libboard_smart_device_rev_a.a(gpio6_iomux_config.o)
                0x000000001004e1a8                gpio6_iomux_config
 .text          0x000000001004e2f8       0x7c /home/leon/git/swp-report/iMX6_Platform_SDK/output/mx6sdl/lib/libboard_smart_device_rev_a.a(gpio7_iomux_config.o)
                0x000000001004e2f8                gpio7_iomux_config
 .text          0x000000001004e374       0xdc /home/leon/git/swp-report/iMX6_Platform_SDK/output/mx6sdl/lib/libboard_smart_device_rev_a.a(gps_iomux_config.o)
                0x000000001004e374                gps_iomux_config
 .text          0x000000001004e450       0x78 /home/leon/git/swp-report/iMX6_Platform_SDK/output/mx6sdl/lib/libboard_smart_device_rev_a.a(i2c1_iomux_config.o)
                0x000000001004e450                i2c1_iomux_config
 .text          0x000000001004e4c8       0x78 /home/leon/git/swp-report/iMX6_Platform_SDK/output/mx6sdl/lib/libboard_smart_device_rev_a.a(i2c2_iomux_config.o)
                0x000000001004e4c8                i2c2_iomux_config
 .text          0x000000001004e540       0x78 /home/leon/git/swp-report/iMX6_Platform_SDK/output/mx6sdl/lib/libboard_smart_device_rev_a.a(i2c3_iomux_config.o)
                0x000000001004e540                i2c3_iomux_config
 .text          0x000000001004e5b8       0x64 /home/src/arm/target/bin/../arm-none-eabi/lib//libc.a(lib_a-assert.o)
                0x000000001004e5b8                __assert_func
                0x000000001004e60c                __assert
 .text          0x000000001004e61c       0x20 /home/src/arm/target/bin/../arm-none-eabi/lib//libc.a(lib_a-bzero.o)
                0x000000001004e61c                bzero
 .text          0x000000001004e63c       0x70 /home/src/arm/target/bin/../arm-none-eabi/lib//libc.a(lib_a-fiprintf.o)
                0x000000001004e63c                _fiprintf_r
                0x000000001004e66c                fiprintf
 .text          0x000000001004e6ac       0x8c /home/src/arm/target/bin/../arm-none-eabi/lib//libc.a(lib_a-fputc.o)
                0x000000001004e6ac                _fputc_r
                0x000000001004e6f0                fputc
 .text          0x000000001004e738        0x0 /home/src/arm/target/bin/../arm-none-eabi/lib//libc.a(lib_a-impure.o)
 .text          0x000000001004e738       0x88 /home/src/arm/target/bin/../arm-none-eabi/lib//libc.a(lib_a-init.o)
                0x000000001004e738                __libc_init_array
 .text          0x000000001004e7c0       0x40 /home/src/arm/target/bin/../arm-none-eabi/lib//libc.a(lib_a-malloc.o)
                0x000000001004e7c0                malloc
                0x000000001004e7e0                free
 .text          0x000000001004e800      0x72c /home/src/arm/target/bin/../arm-none-eabi/lib//libc.a(lib_a-mallocr.o)
                0x000000001004e800                _malloc_r
 .text          0x000000001004ef2c       0xf0 /home/src/arm/target/bin/../arm-none-eabi/lib//libc.a(lib_a-memcpy-stub.o)
                0x000000001004ef2c                memcpy
 .text          0x000000001004f01c       0xf4 /home/src/arm/target/bin/../arm-none-eabi/lib//libc.a(lib_a-memset.o)
                0x000000001004f01c                memset
 .text          0x000000001004f110        0x8 /home/src/arm/target/bin/../arm-none-eabi/lib//libc.a(lib_a-mlock.o)
                0x000000001004f110                __malloc_lock
                0x000000001004f114                __malloc_unlock
 .text          0x000000001004f118       0x74 /home/src/arm/target/bin/../arm-none-eabi/lib//libc.a(lib_a-printf.o)
                0x000000001004f118                _printf_r
                0x000000001004f14c                printf
 .text          0x000000001004f18c      0x158 /home/src/arm/target/bin/../arm-none-eabi/lib//libc.a(lib_a-putc.o)
                0x000000001004f18c                _putc_r
                0x000000001004f230                putc
 .text          0x000000001004f2e4       0x24 /home/src/arm/target/bin/../arm-none-eabi/lib//libc.a(lib_a-realloc.o)
                0x000000001004f2e4                realloc
 .text          0x000000001004f308      0x56c /home/src/arm/target/bin/../arm-none-eabi/lib//libc.a(lib_a-reallocr.o)
                0x000000001004f308                _realloc_r
 .text          0x000000001004f874       0x70 /home/src/arm/target/bin/../arm-none-eabi/lib//libc.a(lib_a-rget.o)
                0x000000001004f874                __srget_r
                0x000000001004f8d0                __srget
 .text          0x000000001004f8e4       0x44 /home/src/arm/target/bin/../arm-none-eabi/lib//libc.a(lib_a-sbrkr.o)
                0x000000001004f8e4                _sbrk_r
 .text          0x000000001004f928       0xdc /home/src/arm/target/bin/../arm-none-eabi/lib//libc.a(lib_a-sprintf.o)
                0x000000001004f928                _sprintf_r
                0x000000001004f990                sprintf
 .text          0x000000001004fa04       0x9c /home/src/arm/target/bin/../arm-none-eabi/lib//libc.a(lib_a-strcat.o)
                0x000000001004fa04                strcat
 .text          0x000000001004faa0      0x230 /home/src/arm/target/bin/../arm-none-eabi/lib//libc.a(lib_a-strcmp.o)
                0x000000001004faa0                strcmp
 .text          0x000000001004fcd0       0xf0 /home/src/arm/target/bin/../arm-none-eabi/lib//libc.a(lib_a-strcpy.o)
                0x000000001004fcd0                strcpy
 .text          0x000000001004fdc0       0x60 /home/src/arm/target/bin/../arm-none-eabi/lib//libc.a(lib_a-strlen.o)
                0x000000001004fdc0                strlen
 .text          0x000000001004fe20       0x8c /home/src/arm/target/bin/../arm-none-eabi/lib//libc.a(lib_a-strncasecmp.o)
                0x000000001004fe20                strncasecmp
 .text          0x000000001004feac       0x24 /home/src/arm/target/bin/../arm-none-eabi/lib//libc.a(lib_a-strtok.o)
                0x000000001004feac                strtok
 .text          0x000000001004fed0       0xc8 /home/src/arm/target/bin/../arm-none-eabi/lib//libc.a(lib_a-strtok_r.o)
                0x000000001004fed0                __strtok_r
                0x000000001004ff90                strtok_r
 .text          0x000000001004ff98     0x1d44 /home/src/arm/target/bin/../arm-none-eabi/lib//libc.a(lib_a-svfprintf.o)
                0x000000001004ff98                _svfprintf_r
 .text          0x0000000010051cdc      0x9f4 /home/src/arm/target/bin/../arm-none-eabi/lib//libc.a(lib_a-syscalls.o)
                0x0000000010051d90                initialise_monitor_handles
                0x0000000010051e54                _swiread
                0x0000000010051e94                _read
                0x0000000010051f58                _swilseek
                0x0000000010052064                _lseek
                0x0000000010052084                _swiwrite
                0x00000000100520c4                _write
                0x000000001005218c                _swiopen
                0x000000001005228c                _open
                0x00000000100522c0                _swiclose
                0x0000000010052338                _close
                0x0000000010052358                _kill
                0x0000000010052390                _exit
                0x00000000100523b8                _getpid
                0x00000000100523c0                _sbrk
                0x0000000010052418                _fstat
                0x000000001005244c                _stat
                0x00000000100524a0                _link
                0x00000000100524a8                _unlink
                0x00000000100524fc                _raise
                0x0000000010052500                _gettimeofday
                0x0000000010052550                _times
                0x0000000010052594                _isatty
                0x00000000100525e4                _system
                0x0000000010052668                _rename
 .text          0x00000000100526d0     0x1238 /home/src/arm/target/bin/../arm-none-eabi/lib//libc.a(lib_a-vfiprintf.o)
                0x000000001005277c                __sprint_r
                0x0000000010052794                _vfiprintf_r
                0x0000000010053810                vfiprintf
 .text          0x0000000010053908     0x1e98 /home/src/arm/target/bin/../arm-none-eabi/lib//libc.a(lib_a-vfprintf.o)
                0x0000000010053908                _vfprintf_r
                0x00000000100556a8                vfprintf
 .text          0x00000000100557a0       0x48 /home/src/arm/target/bin/../arm-none-eabi/lib//libc.a(lib_a-vprintf.o)
                0x00000000100557a0                vprintf
                0x00000000100557cc                _vprintf_r
 .text          0x00000000100557e8      0x13c /home/src/arm/target/bin/../arm-none-eabi/lib//libc.a(lib_a-wbuf.o)
                0x00000000100557e8                __swbuf_r
                0x000000001005590c                __swbuf
 .text          0x0000000010055924      0x15c /home/src/arm/target/bin/../arm-none-eabi/lib//libc.a(lib_a-wsetup.o)
                0x0000000010055924                __swsetup_r
 .text          0x0000000010055a80       0x14 /home/src/arm/target/bin/../arm-none-eabi/lib//libc.a(lib_a-abort.o)
                0x0000000010055a80                abort
 .text          0x0000000010055a94        0x0 /home/src/arm/target/bin/../arm-none-eabi/lib//libc.a(lib_a-ctype_.o)
 *fill*         0x0000000010055a94        0x4 
 .text          0x0000000010055a98     0x18d8 /home/src/arm/target/bin/../arm-none-eabi/lib//libc.a(lib_a-dtoa.o)
                0x0000000010055c78                _dtoa_r
 .text          0x0000000010057370       0x10 /home/src/arm/target/bin/../arm-none-eabi/lib//libc.a(lib_a-errno.o)
                0x0000000010057370                __errno
 .text          0x0000000010057380      0x2d4 /home/src/arm/target/bin/../arm-none-eabi/lib//libc.a(lib_a-fflush.o)
                0x0000000010057380                __sflush_r
                0x00000000100575c4                _fflush_r
                0x0000000010057618                fflush
 .text          0x0000000010057654      0x354 /home/src/arm/target/bin/../arm-none-eabi/lib//libc.a(lib_a-findfp.o)
                0x0000000010057664                _cleanup_r
                0x000000001005767c                __sfmoreglue
                0x00000000100576cc                _cleanup
                0x00000000100576f0                __sinit
                0x0000000010057858                __sfp
                0x0000000010057950                __sfp_lock_acquire
                0x0000000010057954                __sfp_lock_release
                0x0000000010057958                __sinit_lock_acquire
                0x000000001005795c                __sinit_lock_release
                0x0000000010057960                __fp_lock_all
                0x0000000010057984                __fp_unlock_all
 .text          0x00000000100579a8      0x188 /home/src/arm/target/bin/../arm-none-eabi/lib//libc.a(lib_a-fputwc.o)
                0x00000000100579a8                _fputwc_r
                0x0000000010057aec                fputwc
 .text          0x0000000010057b30      0x36c /home/src/arm/target/bin/../arm-none-eabi/lib//libc.a(lib_a-freer.o)
                0x0000000010057b30                _malloc_trim_r
                0x0000000010057c30                _free_r
 .text          0x0000000010057e9c      0x4dc /home/src/arm/target/bin/../arm-none-eabi/lib//libc.a(lib_a-fvwrite.o)
                0x0000000010057e9c                __sfvwrite_r
 .text          0x0000000010058378      0x110 /home/src/arm/target/bin/../arm-none-eabi/lib//libc.a(lib_a-fwalk.o)
                0x0000000010058378                _fwalk
                0x00000000100583fc                _fwalk_reent
 .text          0x0000000010058488       0xd0 /home/src/arm/target/bin/../arm-none-eabi/lib//libc.a(lib_a-locale.o)
                0x0000000010058488                _setlocale_r
                0x00000000100584f8                __locale_charset
                0x0000000010058504                __locale_mb_cur_max
                0x0000000010058514                __locale_msgcharset
                0x0000000010058520                __locale_cjk_lang
                0x0000000010058528                _localeconv_r
                0x0000000010058534                setlocale
                0x000000001005854c                localeconv
 .text          0x0000000010058558      0x174 /home/src/arm/target/bin/../arm-none-eabi/lib//libc.a(lib_a-makebuf.o)
                0x0000000010058558                __smakebuf_r
 .text          0x00000000100586cc      0x114 /home/src/arm/target/bin/../arm-none-eabi/lib//libc.a(lib_a-memchr-stub.o)
                0x00000000100586cc                memchr
 .text          0x00000000100587e0      0x134 /home/src/arm/target/bin/../arm-none-eabi/lib//libc.a(lib_a-memmove.o)
                0x00000000100587e0                memmove
 .text          0x0000000010058914      0xd30 /home/src/arm/target/bin/../arm-none-eabi/lib//libc.a(lib_a-mprec.o)
                0x0000000010058914                _Balloc
                0x00000000100589a0                _Bfree
                0x00000000100589bc                __multadd
                0x0000000010058a98                __s2b
                0x0000000010058b80                __hi0bits
                0x0000000010058bdc                __lo0bits
                0x0000000010058c70                __i2b
                0x0000000010058c94                __multiply
                0x0000000010058e7c                __pow5mult
                0x0000000010058f80                __lshift
                0x000000001005908c                __mcmp
                0x00000000100590ec                __mdiff
                0x0000000010059230                __ulp
                0x0000000010059294                __b2d
                0x000000001005936c                __d2b
                0x0000000010059478                __ratio
                0x0000000010059500                _mprec_log10
                0x0000000010059558                __copybits
                0x00000000100595c8                __any_on
 .text          0x0000000010059644      0x134 /home/src/arm/target/bin/../arm-none-eabi/lib//libc.a(lib_a-reent.o)
                0x0000000010059644                cleanup_glue
                0x0000000010059670                _reclaim_reent
 .text          0x0000000010059778      0x20c /home/src/arm/target/bin/../arm-none-eabi/lib//libc.a(lib_a-refill.o)
                0x00000000100597a4                __srefill_r
 .text          0x0000000010059984       0x6c /home/src/arm/target/bin/../arm-none-eabi/lib//libc.a(lib_a-s_fpclassify.o)
                0x0000000010059984                __fpclassifyd
 .text          0x00000000100599f0      0x254 /home/src/arm/target/bin/../arm-none-eabi/lib//libc.a(lib_a-signal.o)
                0x00000000100599f0                _init_signal_r
                0x0000000010059a54                _signal_r
                0x0000000010059ac8                _raise_r
                0x0000000010059b60                __sigtramp_r
                0x0000000010059bf4                raise
                0x0000000010059c08                signal
                0x0000000010059c20                _init_signal
                0x0000000010059c30                __sigtramp
 .text          0x0000000010059c44       0x50 /home/src/arm/target/bin/../arm-none-eabi/lib//libc.a(lib_a-signalr.o)
                0x0000000010059c44                _kill_r
                0x0000000010059c84                _getpid_r
 .text          0x0000000010059c94       0xd8 /home/src/arm/target/bin/../arm-none-eabi/lib//libc.a(lib_a-stdio.o)
                0x0000000010059c94                __sread
                0x0000000010059cc8                __seofread
                0x0000000010059cd0                __swrite
                0x0000000010059d28                __sseek
                0x0000000010059d58                __sclose
 .text          0x0000000010059d6c     0x101c /home/src/arm/target/bin/../arm-none-eabi/lib//libc.a(lib_a-svfiprintf.o)
                0x0000000010059d6c                __ssprint_r
                0x0000000010059f18                _svfiprintf_r
 .text          0x000000001005ad88      0x128 /home/src/arm/target/bin/../arm-none-eabi/lib//libc.a(lib_a-wcrtomb.o)
                0x000000001005ad88                _wcrtomb_r
                0x000000001005ae18                wcrtomb
 .text          0x000000001005aeb0       0x7c /home/src/arm/target/bin/../arm-none-eabi/lib//libc.a(lib_a-wctomb_r.o)
                0x000000001005aeb0                __ascii_wctomb
                0x000000001005aedc                _wctomb_r
 .text          0x000000001005af2c       0x44 /home/src/arm/target/bin/../arm-none-eabi/lib//libc.a(lib_a-writer.o)
                0x000000001005af2c                _write_r
 .text          0x000000001005af70       0x9c /home/src/arm/target/bin/../arm-none-eabi/lib//libc.a(lib_a-callocr.o)
                0x000000001005af70                _calloc_r
 .text          0x000000001005b00c       0x3c /home/src/arm/target/bin/../arm-none-eabi/lib//libc.a(lib_a-closer.o)
                0x000000001005b00c                _close_r
 .text          0x000000001005b048      0x104 /home/src/arm/target/bin/../arm-none-eabi/lib//libc.a(lib_a-fclose.o)
                0x000000001005b048                _fclose_r
                0x000000001005b138                fclose
 .text          0x000000001005b14c       0x40 /home/src/arm/target/bin/../arm-none-eabi/lib//libc.a(lib_a-fstatr.o)
                0x000000001005b14c                _fstat_r
 .text          0x000000001005b18c       0x3c /home/src/arm/target/bin/../arm-none-eabi/lib//libc.a(lib_a-isattyr.o)
                0x000000001005b18c                _isatty_r
 .text          0x000000001005b1c8       0x44 /home/src/arm/target/bin/../arm-none-eabi/lib//libc.a(lib_a-lseekr.o)
                0x000000001005b1c8                _lseek_r
 .text          0x000000001005b20c       0x44 /home/src/arm/target/bin/../arm-none-eabi/lib//libc.a(lib_a-readr.o)
                0x000000001005b20c                _read_r
 .text          0x000000001005b250      0x114 /home/src/arm/target/bin/../lib/gcc/arm-none-eabi/4.8.2//libgcc.a(_udivsi3.o)
                0x000000001005b250                __udivsi3
                0x000000001005b250                __aeabi_uidiv
                0x000000001005b344                __aeabi_uidivmod
 .text          0x000000001005b364      0x148 /home/src/arm/target/bin/../lib/gcc/arm-none-eabi/4.8.2//libgcc.a(_divsi3.o)
                0x000000001005b364                __aeabi_idiv
                0x000000001005b364                __divsi3
                0x000000001005b48c                __aeabi_idivmod
 .text          0x000000001005b4ac        0x4 /home/src/arm/target/bin/../lib/gcc/arm-none-eabi/4.8.2//libgcc.a(_dvmd_tls.o)
                0x000000001005b4ac                __aeabi_ldiv0
                0x000000001005b4ac                __aeabi_idiv0
 .text          0x000000001005b4b0      0x41c /home/src/arm/target/bin/../lib/gcc/arm-none-eabi/4.8.2//libgcc.a(_arm_addsubdf3.o)
                0x000000001005b4b0                __aeabi_drsub
                0x000000001005b4b8                __aeabi_dsub
                0x000000001005b4b8                __subdf3
                0x000000001005b4bc                __adddf3
                0x000000001005b4bc                __aeabi_dadd
                0x000000001005b7cc                __aeabi_ui2d
                0x000000001005b7cc                __floatunsidf
                0x000000001005b7f0                __floatsidf
                0x000000001005b7f0                __aeabi_i2d
                0x000000001005b818                __extendsfdf2
                0x000000001005b818                __aeabi_f2d
                0x000000001005b858                __aeabi_ul2d
                0x000000001005b858                __floatundidf
                0x000000001005b86c                __floatdidf
                0x000000001005b86c                __aeabi_l2d
 .text          0x000000001005b8cc      0x49c /home/src/arm/target/bin/../lib/gcc/arm-none-eabi/4.8.2//libgcc.a(_arm_muldivdf3.o)
                0x000000001005b8cc                __aeabi_dmul
                0x000000001005b8cc                __muldf3
                0x000000001005bb5c                __aeabi_ddiv
                0x000000001005bb5c                __divdf3
 .text          0x000000001005bd68      0x144 /home/src/arm/target/bin/../lib/gcc/arm-none-eabi/4.8.2//libgcc.a(_arm_cmpdf2.o)
                0x000000001005bd68                __gtdf2
                0x000000001005bd68                __gedf2
                0x000000001005bd70                __ltdf2
                0x000000001005bd70                __ledf2
                0x000000001005bd78                __cmpdf2
                0x000000001005bd78                __eqdf2
                0x000000001005bd78                __nedf2
                0x000000001005be00                __aeabi_cdrcmple
                0x000000001005be1c                __aeabi_cdcmple
                0x000000001005be1c                __aeabi_cdcmpeq
                0x000000001005be34                __aeabi_dcmpeq
                0x000000001005be4c                __aeabi_dcmplt
                0x000000001005be64                __aeabi_dcmple
                0x000000001005be7c                __aeabi_dcmpge
                0x000000001005be94                __aeabi_dcmpgt
 .text          0x000000001005beac       0x5c /home/src/arm/target/bin/../lib/gcc/arm-none-eabi/4.8.2//libgcc.a(_arm_fixdfsi.o)
                0x000000001005beac                __fixdfsi
                0x000000001005beac                __aeabi_d2iz
 .text          0x000000001005bf08       0x3c /home/src/arm/target/bin/../lib/gcc/arm-none-eabi/4.8.2//libgcc.a(_aeabi_uldivmod.o)
                0x000000001005bf08                __aeabi_uldivmod
 .text          0x000000001005bf44       0x84 /home/src/arm/target/bin/../lib/gcc/arm-none-eabi/4.8.2//libgcc.a(bpabi.o)
                0x000000001005bf44                __gnu_ldivmod_helper
                0x000000001005bf88                __gnu_uldivmod_helper
 .text          0x000000001005bfc8      0x4d0 /home/src/arm/target/bin/../lib/gcc/arm-none-eabi/4.8.2//libgcc.a(_divdi3.o)
                0x000000001005bfc8                __divdi3
 .text          0x000000001005c498      0x470 /home/src/arm/target/bin/../lib/gcc/arm-none-eabi/4.8.2//libgcc.a(_udivdi3.o)
                0x000000001005c498                __udivdi3
 .text          0x000000001005c908       0x48 /home/src/arm/target/bin/../lib/gcc/arm-none-eabi/4.8.2//libgcc.a(_clzsi2.o)
                0x000000001005c908                __clzsi2
 *(.glue_7t)
 .glue_7t       0x0000000000000000        0x0 linker stubs
 *(.glue_7)
 .glue_7        0x0000000000000000        0x0 linker stubs
 *(.vfp11_veneer)
 .vfp11_veneer  0x0000000000000000        0x0 linker stubs
 *(.ARM.extab* .gnu.linkonce.armextab.*)
 .ARM.extab.startup
                0x000000001005c950        0x0 /home/leon/git/swp-report/iMX6_Platform_SDK/output/mx6sdl/lib/libsdk.a(startup.o)
 .ARM.extab     0x000000001005c950        0x0 /home/src/arm/target/bin/../lib/gcc/arm-none-eabi/4.8.2//libgcc.a(_divdi3.o)
 .ARM.extab     0x000000001005c950        0x0 /home/src/arm/target/bin/../lib/gcc/arm-none-eabi/4.8.2//libgcc.a(_udivdi3.o)
 *(.gcc_except_table)

.v4_bx          0x000000001005c950        0x0
 .v4_bx         0x0000000000000000        0x0 linker stubs

.iplt           0x000000001005c950        0x0
 .iplt          0x0000000000000000        0x0 /home/src/arm/target/bin/../lib/gcc/arm-none-eabi/4.8.2//crtbegin.o

.ctors
 *crtbegin.o(.ctors)
 *crtbegin?.o(.ctors)
 *(EXCLUDE_FILE(*crtend?.o *crtend.o) .ctors)
 *(SORT(.ctors.*))
 *(.ctors)

.dtors
 *crtbegin.o(.dtors)
 *crtbegin?.o(.dtors)
 *(EXCLUDE_FILE(*crtend?.o *crtend.o) .dtors)
 *(SORT(.dtors.*))
 *(.dtors)

.rodata         0x000000001005c950    0x3c040
 *(.rodata .rodata.* .gnu.linkonce.r.*)
 .rodata        0x000000001005c950       0x9c /home/leon/git/swp-report/iMX6_Platform_SDK/output/mx6sdl/obds/smart_device_rev_a/obj/apps/common/print_clock_info.o
 .rodata        0x000000001005c9ec      0x100 /home/leon/git/swp-report/iMX6_Platform_SDK/output/mx6sdl/obds/smart_device_rev_a/obj/apps/common/print_version.o
 .rodata        0x000000001005caec      0x604 /home/leon/git/swp-report/iMX6_Platform_SDK/output/mx6sdl/obds/smart_device_rev_a/obj/apps/obds/src/obds.o
                0x000000001005cde0                MenuList_All_Tests
                0x000000001005ce3c                Menu_Commands
                0x000000001005cef8                CPU_Tests
 .rodata        0x000000001005d0f0      0x318 /home/leon/git/swp-report/iMX6_Platform_SDK/output/mx6sdl/obds/smart_device_rev_a/obj/apps/obds/src/obds_utils.o
 .rodata        0x000000001005d408      0x1c0 /home/leon/git/swp-report/iMX6_Platform_SDK/output/mx6sdl/obds/smart_device_rev_a/obj/apps/obds/src/tests/android_buttons_test.o
                0x000000001005d408                g_android_buttons_test_name
 .rodata        0x000000001005d5c8      0x3ac /home/leon/git/swp-report/iMX6_Platform_SDK/output/mx6sdl/obds/smart_device_rev_a/obj/apps/obds/src/tests/audio_esai_test.o
                0x000000001005d5c8                g_audio_esai_test_name
 .rodata        0x000000001005d974      0x22c /home/leon/git/swp-report/iMX6_Platform_SDK/output/mx6sdl/obds/smart_device_rev_a/obj/apps/obds/src/tests/audio_ssi_test.o
                0x000000001005d974                g_audio_ssi_test_name
 .rodata        0x000000001005dba0        0xc /home/leon/git/swp-report/iMX6_Platform_SDK/output/mx6sdl/obds/smart_device_rev_a/obj/apps/obds/src/tests/ddr_test.o
                0x000000001005dba0                g_ddr_test_name
 .rodata        0x000000001005dbac      0x1c0 /home/leon/git/swp-report/iMX6_Platform_SDK/output/mx6sdl/obds/smart_device_rev_a/obj/apps/obds/src/tests/deserializer_ds90ur124.o
 .rodata        0x000000001005dd6c      0x22c /home/leon/git/swp-report/iMX6_Platform_SDK/output/mx6sdl/obds/smart_device_rev_a/obj/apps/obds/src/tests/display_test.o
                0x000000001005dd6c                g_ipu_display_tests_name
 .rodata        0x000000001005df98      0x2d8 /home/leon/git/swp-report/iMX6_Platform_SDK/output/mx6sdl/obds/smart_device_rev_a/obj/apps/obds/src/tests/enet_mx6dldq_test.o
                0x000000001005df98                g_ar8031_test_name
                0x000000001005dfb8                g_KSZ9021RN_test_name
 .rodata        0x000000001005e270       0x84 /home/leon/git/swp-report/iMX6_Platform_SDK/output/mx6sdl/obds/smart_device_rev_a/obj/apps/obds/src/tests/flexcan_test.o
                0x000000001005e270                g_flexcan_test_name
 .rodata        0x000000001005e2f4       0x50 /home/leon/git/swp-report/iMX6_Platform_SDK/output/mx6sdl/obds/smart_device_rev_a/obj/apps/obds/src/tests/fm_tuner_si476x_test.o
 .rodata        0x000000001005e344       0x34 /home/leon/git/swp-report/iMX6_Platform_SDK/output/mx6sdl/obds/smart_device_rev_a/obj/apps/obds/src/tests/gpio_led.o
                0x000000001005e344                g_gpio_led_test_name
 .rodata        0x000000001005e378       0x20 /home/leon/git/swp-report/iMX6_Platform_SDK/output/mx6sdl/obds/smart_device_rev_a/obj/apps/obds/src/tests/gps_test.o
 .rodata        0x000000001005e398      0x10c /home/leon/git/swp-report/iMX6_Platform_SDK/output/mx6sdl/obds/smart_device_rev_a/obj/apps/obds/src/tests/i2c_check_light_sensor_isl29023.o
                0x000000001005e398                g_isl29023_i2c_device_id_test_name
 .rodata        0x000000001005e4a4       0x6c /home/leon/git/swp-report/iMX6_Platform_SDK/output/mx6sdl/obds/smart_device_rev_a/obj/apps/obds/src/tests/i2c_device_barometer_ppl3115.o
                0x000000001005e4a4                g_ppl3115_i2c_device_id_test_name
 .rodata        0x000000001005e510       0x1c /home/leon/git/swp-report/iMX6_Platform_SDK/output/mx6sdl/obds/smart_device_rev_a/obj/apps/obds/src/tests/i2c_device_check_cs42888.o
                0x000000001005e510                g_cs42888_i2c_device_id_test_name
 .rodata        0x000000001005e52c       0xb4 /home/leon/git/swp-report/iMX6_Platform_SDK/output/mx6sdl/obds/smart_device_rev_a/obj/apps/obds/src/tests/i2c_device_digital_compass_mag3110.o
                0x000000001005e52c                g_mag3110_i2c_device_id_test_name
 .rodata        0x000000001005e5e0       0xb4 /home/leon/git/swp-report/iMX6_Platform_SDK/output/mx6sdl/obds/smart_device_rev_a/obj/apps/obds/src/tests/i2c_device_digital_compass_mag3112.o
                0x000000001005e5e0                g_mag3112_i2c_device_id_test_name
 .rodata        0x000000001005e694      0x138 /home/leon/git/swp-report/iMX6_Platform_SDK/output/mx6sdl/obds/smart_device_rev_a/obj/apps/obds/src/tests/i2c_device_id_check_mma8450.o
                0x000000001005e694                g_mma8450_i2c_device_id_test_name
 .rodata        0x000000001005e7cc      0x138 /home/leon/git/swp-report/iMX6_Platform_SDK/output/mx6sdl/obds/smart_device_rev_a/obj/apps/obds/src/tests/i2c_device_id_check_mma8451.o
                0x000000001005e7cc                g_mma8451_i2c_device_id_test_name
 .rodata        0x000000001005e904      0x234 /home/leon/git/swp-report/iMX6_Platform_SDK/output/mx6sdl/obds/smart_device_rev_a/obj/apps/obds/src/tests/i2c_device_id_check_p1003_tsc.o
                0x000000001005e904                g_hs_tsc_p1003_i2c_device_id_test_name
 .rodata        0x000000001005eb38       0xf8 /home/leon/git/swp-report/iMX6_Platform_SDK/output/mx6sdl/obds/smart_device_rev_a/obj/apps/obds/src/tests/i2c_device_temp_sensor_emc1046.o
                0x000000001005eb38                g_emc1046_i2c_device_id_test_name
 .rodata        0x000000001005ec30       0x90 /home/leon/git/swp-report/iMX6_Platform_SDK/output/mx6sdl/obds/smart_device_rev_a/obj/apps/obds/src/tests/i2c_device_zigbee_mc1323.o
 .rodata        0x000000001005ecc0       0x88 /home/leon/git/swp-report/iMX6_Platform_SDK/output/mx6sdl/obds/smart_device_rev_a/obj/apps/obds/src/tests/i2c_eeprom_at24cxx_test.o
 .rodata        0x000000001005ed48      0x1a0 /home/leon/git/swp-report/iMX6_Platform_SDK/output/mx6sdl/obds/smart_device_rev_a/obj/apps/obds/src/tests/imx_spi_nor_test.o
                0x000000001005ed48                g_spi_nor_test_name
 .rodata        0x000000001005eee8       0x54 /home/leon/git/swp-report/iMX6_Platform_SDK/output/mx6sdl/obds/smart_device_rev_a/obj/apps/obds/src/tests/mlb_os81050.o
 .rodata        0x000000001005ef3c      0x1d8 /home/leon/git/swp-report/iMX6_Platform_SDK/output/mx6sdl/obds/smart_device_rev_a/obj/apps/obds/src/tests/mmcsd_test.o
                0x000000001005ef3c                g_mmcsd_test_name
 .rodata        0x000000001005f114      0x718 /home/leon/git/swp-report/iMX6_Platform_SDK/output/mx6sdl/obds/smart_device_rev_a/obj/apps/obds/src/tests/pmic_da9053.o
 .rodata        0x000000001005f82c      0x734 /home/leon/git/swp-report/iMX6_Platform_SDK/output/mx6sdl/obds/smart_device_rev_a/obj/apps/obds/src/tests/pmic_lt3589.o
 .rodata        0x000000001005ff60       0x54 /home/leon/git/swp-report/iMX6_Platform_SDK/output/mx6sdl/obds/smart_device_rev_a/obj/apps/obds/src/tests/pmic_max17135.o
                0x000000001005ff60                g_max17135_i2c_device_id_test_name
 .rodata        0x000000001005ffb4       0x48 /home/leon/git/swp-report/iMX6_Platform_SDK/output/mx6sdl/obds/smart_device_rev_a/obj/apps/obds/src/tests/pmic_mc13892.o
 .rodata        0x000000001005fffc      0x2dc /home/leon/git/swp-report/iMX6_Platform_SDK/output/mx6sdl/obds/smart_device_rev_a/obj/apps/obds/src/tests/program_board_id.o
                0x000000001005fffc                g_program_board_id_test_name
 .rodata        0x00000000100602d8      0x3c8 /home/leon/git/swp-report/iMX6_Platform_SDK/output/mx6sdl/obds/smart_device_rev_a/obj/apps/obds/src/tests/program_mac_address.o
                0x00000000100602d8                g_program_mac_address_test_name
 .rodata        0x00000000100606a0      0x1bc /home/leon/git/swp-report/iMX6_Platform_SDK/output/mx6sdl/obds/smart_device_rev_a/obj/apps/obds/src/tests/snvs_srtc_test.o
                0x00000000100606a0                g_snvs_srtc_test_name
 .rodata        0x000000001006085c      0x148 /home/leon/git/swp-report/iMX6_Platform_SDK/output/mx6sdl/obds/smart_device_rev_a/obj/apps/obds/src/tests/touch_button_test.o
                0x000000001006085c                g_touch_buttons_test_name
 .rodata        0x00000000100609a4      0x10c /home/leon/git/swp-report/iMX6_Platform_SDK/output/mx6sdl/obds/smart_device_rev_a/obj/apps/obds/src/tests/touch_screen.o
 .rodata        0x0000000010060ab0      0x1b0 /home/leon/git/swp-report/iMX6_Platform_SDK/output/mx6sdl/obds/smart_device_rev_a/obj/apps/obds/src/tests/touch_screen_max11801.o
 .rodata        0x0000000010060c60      0x2b0 /home/leon/git/swp-report/iMX6_Platform_SDK/output/mx6sdl/obds/smart_device_rev_a/obj/apps/obds/src/tests/usb_tests_obds.o
                0x0000000010060c60                g_usb_otg_dev_enum_test_name
                0x0000000010060c80                g_usb_host1_dev_enum_test_name
 .rodata        0x0000000010060f10      0x150 /home/leon/git/swp-report/iMX6_Platform_SDK/output/mx6sdl/obds/smart_device_rev_a/obj/apps/obds/src/tests/video_dec_ARD_MB_reset_button.o
                0x0000000010060f10                g_ard_main_board_reset_button_test
 .rodata        0x0000000010061060       0x68 /home/leon/git/swp-report/iMX6_Platform_SDK/output/mx6sdl/obds/smart_device_rev_a/obj/apps/obds/src/tests/video_dec_ARD_MBrst_from_cpu_expander.o
                0x0000000010061060                g_ard_mb_expander_reset_test_name
 .rodata        0x00000000100610c8       0x94 /home/leon/git/swp-report/iMX6_Platform_SDK/output/mx6sdl/obds/smart_device_rev_a/obj/apps/obds/src/tests/video_dec_adv7180.o
                0x00000000100610c8                g_video_dec_test_name
 .rodata        0x000000001006115c      0x180 /home/leon/git/swp-report/iMX6_Platform_SDK/output/mx6sdl/obds/smart_device_rev_a/obj/apps/obds/src/tests/weim_nor_flash_test.o
                0x000000001006115c                g_eim_NOR_flash_test_name
 .rodata        0x00000000100612dc       0x28 /home/leon/git/swp-report/iMX6_Platform_SDK/output/mx6sdl/obds/smart_device_rev_a/obj/sdk/common/ioexpander/test/max7310_test.o
                0x00000000100612dc                g_max7310_i2c_device_id_test_name
 .rodata        0x0000000010061304       0x98 /home/leon/git/swp-report/iMX6_Platform_SDK/output/mx6sdl/obds/smart_device_rev_a/obj/sdk/common/pmic/pfuse/pf0100.o
                0x0000000010061304                g_pmic_pf0100_i2c_device_id_test_name
 .rodata        0x000000001006139c       0xe4 /home/leon/git/swp-report/iMX6_Platform_SDK/output/mx6sdl/obds/smart_device_rev_a/obj/sdk/drivers/audio/src/snd_card.o
 .rodata        0x0000000010061480       0x94 /home/leon/git/swp-report/iMX6_Platform_SDK/output/mx6sdl/obds/smart_device_rev_a/obj/sdk/drivers/camera/test/camera_test.o
                0x0000000010061480                g_camera_test_name
 .rodata        0x0000000010061514      0x118 /home/leon/git/swp-report/iMX6_Platform_SDK/output/mx6sdl/obds/smart_device_rev_a/obj/sdk/drivers/camera/test/csi_test_mode.o
 .rodata        0x000000001006162c      0x118 /home/leon/git/swp-report/iMX6_Platform_SDK/output/mx6sdl/obds/smart_device_rev_a/obj/sdk/drivers/camera/test/sensor_capture.o
 .rodata        0x0000000010061744       0x68 /home/leon/git/swp-report/iMX6_Platform_SDK/output/mx6sdl/obds/smart_device_rev_a/obj/sdk/drivers/epdc/test/epdc_test.o
                0x0000000010061744                g_epdc_test_name
 .rodata        0x00000000100617ac       0x98 /home/leon/git/swp-report/iMX6_Platform_SDK/output/mx6sdl/obds/smart_device_rev_a/obj/sdk/drivers/hdmi/test/hdmi_test.o
 .rodata        0x0000000010061844     0x403c /home/leon/git/swp-report/iMX6_Platform_SDK/output/mx6sdl/obds/smart_device_rev_a/obj/sdk/drivers/hdmi/test/init_dma_data.o
                0x0000000010061844                gAudio_sample
 .rodata        0x0000000010065880       0xa0 /home/leon/git/swp-report/iMX6_Platform_SDK/output/mx6sdl/obds/smart_device_rev_a/obj/sdk/drivers/ipu/test/ips_display.o
 .rodata        0x0000000010065920    0x2f2dc /home/leon/git/swp-report/iMX6_Platform_SDK/output/mx6sdl/obds/smart_device_rev_a/obj/sdk/drivers/ipu/test/ipu_image.o
                0x000000001007773c                gImage_foretext
 .rodata        0x0000000010094bfc      0x194 /home/leon/git/swp-report/iMX6_Platform_SDK/output/mx6sdl/obds/smart_device_rev_a/obj/sdk/drivers/spi/test/imx_spi_nor_atmel.o
 .rodata        0x0000000010094d90      0x118 /home/leon/git/swp-report/iMX6_Platform_SDK/output/mx6sdl/obds/smart_device_rev_a/obj/sdk/drivers/spi/test/spi_nor_numonyx.o
 .rodata        0x0000000010094ea8       0xb0 /home/leon/git/swp-report/iMX6_Platform_SDK/output/mx6sdl/obds/smart_device_rev_a/obj/sdk/drivers/uart/test/uart_test.o
                0x0000000010094ea8                g_uart_test_name
 .rodata        0x0000000010094f58      0x218 /home/leon/git/swp-report/iMX6_Platform_SDK/output/mx6sdl/obds/smart_device_rev_a/obj/sdk/drivers/usb/test/usb0_host_test.o
 .rodata        0x0000000010095170       0xa8 /home/leon/git/swp-report/iMX6_Platform_SDK/output/mx6sdl/obds/smart_device_rev_a/obj/sdk/drivers/usb/test/usb0_host_testmodes_test.o
 .rodata        0x0000000010095218      0x38c /home/leon/git/swp-report/iMX6_Platform_SDK/output/mx6sdl/obds/smart_device_rev_a/obj/sdk/drivers/usdhc/test/usdhc_test.o
 .rodata        0x00000000100955a4       0x34 /home/leon/git/swp-report/iMX6_Platform_SDK/output/mx6sdl/lib/libsdk.a(ccm_pll.o)
                0x00000000100955a4                PLL1_OUTPUT
                0x00000000100955a8                PLL2_OUTPUT
                0x00000000100955bc                PLL3_OUTPUT
                0x00000000100955d0                PLL4_OUTPUT
                0x00000000100955d4                PLL5_OUTPUT
 .rodata        0x00000000100955d8       0x64 /home/leon/git/swp-report/iMX6_Platform_SDK/output/mx6sdl/lib/libsdk.a(gic.o)
 .rodata        0x000000001009563c       0x20 /home/leon/git/swp-report/iMX6_Platform_SDK/output/mx6sdl/lib/libsdk.a(interrupt.o)
 .rodata        0x000000001009565c      0x154 /home/leon/git/swp-report/iMX6_Platform_SDK/output/mx6sdl/lib/libsdk.a(menu.o)
 .rodata        0x00000000100957b0       0x50 /home/leon/git/swp-report/iMX6_Platform_SDK/output/mx6sdl/lib/libsdk.a(sdk_version.o)
                0x00000000100957b0                k_sdk_version
                0x00000000100957b4                k_sdk_copyright
 .rodata        0x0000000010095800       0xcc /home/leon/git/swp-report/iMX6_Platform_SDK/output/mx6sdl/lib/libsdk.a(system_util.o)
 .rodata        0x00000000100958cc       0xf4 /home/leon/git/swp-report/iMX6_Platform_SDK/output/mx6sdl/lib/libsdk.a(text_color.o)
                0x00000000100958d4                g_TextAttributeDefault
                0x00000000100958e0                g_TextAttributeBold
                0x00000000100958ec                g_TextAttributeDim
                0x00000000100958f8                g_TextAttributeUnderline
                0x0000000010095904                g_TextAttributeBlink
                0x0000000010095910                g_TextAttributeReverse
                0x000000001009591c                g_TextAttributeHidden
                0x0000000010095928                g_TextColorBlack
                0x0000000010095934                g_TextColorRed
                0x0000000010095940                g_TextColorGreen
                0x000000001009594c                g_TextColorYellow
                0x0000000010095958                g_TextColorBlue
                0x0000000010095964                g_TextColorMagenta
                0x0000000010095970                g_TextColorCyan
                0x000000001009597c                g_TextColorWhite
                0x000000001009598c                g_TextColorOrange
                0x000000001009599c                g_TextColorLightBlue
                0x00000000100959ac                g_TextColorGray
                0x00000000100959bc                g_TextColorPurple
 .rodata        0x00000000100959c0       0x28 /home/leon/git/swp-report/iMX6_Platform_SDK/output/mx6sdl/lib/libsdk.a(cs42888.o)
 .rodata        0x00000000100959e8      0x1ac /home/leon/git/swp-report/iMX6_Platform_SDK/output/mx6sdl/lib/libsdk.a(imx-ssi.o)
 .rodata        0x0000000010095b94       0x58 /home/leon/git/swp-report/iMX6_Platform_SDK/output/mx6sdl/lib/libsdk.a(imx_audmux.o)
 .rodata        0x0000000010095bec       0xf0 /home/leon/git/swp-report/iMX6_Platform_SDK/output/mx6sdl/lib/libsdk.a(imx_esai.o)
 .rodata        0x0000000010095cdc       0xdc /home/leon/git/swp-report/iMX6_Platform_SDK/output/mx6sdl/lib/libsdk.a(imx_spdif.o)
 .rodata        0x0000000010095db8      0x200 /home/leon/git/swp-report/iMX6_Platform_SDK/output/mx6sdl/lib/libsdk.a(sgtl5000.o)
 .rodata        0x0000000010095fb8      0x66c /home/leon/git/swp-report/iMX6_Platform_SDK/output/mx6sdl/lib/libsdk.a(wm8958_dac.o)
 .rodata        0x0000000010096624      0x1a4 /home/leon/git/swp-report/iMX6_Platform_SDK/output/mx6sdl/lib/libsdk.a(wm8962.o)
 .rodata        0x00000000100967c8      0x1f8 /home/leon/git/swp-report/iMX6_Platform_SDK/output/mx6sdl/lib/libsdk.a(board_id.o)
 .rodata        0x00000000100969c0       0xc4 /home/leon/git/swp-report/iMX6_Platform_SDK/output/mx6sdl/lib/libsdk.a(smd_sensor.o)
 .rodata        0x0000000010096a84      0x1c4 /home/leon/git/swp-report/iMX6_Platform_SDK/output/mx6sdl/lib/libsdk.a(enet_drv.o)
 .rodata        0x0000000010096c48       0x58 /home/leon/git/swp-report/iMX6_Platform_SDK/output/mx6sdl/lib/libsdk.a(mxc_epdc.o)
 .rodata        0x0000000010096ca0       0xe0 /home/leon/git/swp-report/iMX6_Platform_SDK/output/mx6sdl/lib/libsdk.a(gpio.o)
 .rodata        0x0000000010096d80      0x380 /home/leon/git/swp-report/iMX6_Platform_SDK/output/mx6sdl/lib/libsdk.a(imx6sdl_gpio_map.o)
                0x0000000010096d80                k_gpio_mux_registers
 .rodata        0x0000000010097100       0xb4 /home/leon/git/swp-report/iMX6_Platform_SDK/output/mx6sdl/lib/libsdk.a(hdmi_tx.o)
 .rodata        0x00000000100971b4       0x3c /home/leon/git/swp-report/iMX6_Platform_SDK/output/mx6sdl/lib/libsdk.a(hdmi_tx_audio.o)
 .rodata        0x00000000100971f0       0xec /home/leon/git/swp-report/iMX6_Platform_SDK/output/mx6sdl/lib/libsdk.a(hdmi_tx_phy.o)
 .rodata        0x00000000100972dc      0x2c4 /home/leon/git/swp-report/iMX6_Platform_SDK/output/mx6sdl/lib/libsdk.a(imx_i2c.o)
 .rodata        0x00000000100975a0       0x54 /home/leon/git/swp-report/iMX6_Platform_SDK/output/mx6sdl/lib/libsdk.a(ips_disp_panel.o)
 .rodata        0x00000000100975f4       0x74 /home/leon/git/swp-report/iMX6_Platform_SDK/output/mx6sdl/lib/libsdk.a(ipu_common.o)
 .rodata        0x0000000010097668       0xc0 /home/leon/git/swp-report/iMX6_Platform_SDK/output/mx6sdl/lib/libsdk.a(ipu_csi.o)
 .rodata        0x0000000010097728       0x9c /home/leon/git/swp-report/iMX6_Platform_SDK/output/mx6sdl/lib/libsdk.a(ipu_dc.o)
 .rodata        0x00000000100977c4       0x18 /home/leon/git/swp-report/iMX6_Platform_SDK/output/mx6sdl/lib/libsdk.a(ipu_di.o)
 .rodata        0x00000000100977dc       0x78 /home/leon/git/swp-report/iMX6_Platform_SDK/output/mx6sdl/lib/libsdk.a(ipu_dp.o)
 .rodata        0x0000000010097854       0x38 /home/leon/git/swp-report/iMX6_Platform_SDK/output/mx6sdl/lib/libsdk.a(ipu_idmac.o)
 .rodata        0x000000001009788c       0x68 /home/leon/git/swp-report/iMX6_Platform_SDK/output/mx6sdl/lib/libsdk.a(ldb.o)
 .rodata        0x00000000100978f4       0x74 /home/leon/git/swp-report/iMX6_Platform_SDK/output/mx6sdl/lib/libsdk.a(ecspi.o)
 .rodata        0x0000000010097968       0x94 /home/leon/git/swp-report/iMX6_Platform_SDK/output/mx6sdl/lib/libsdk.a(usb_common.o)
 .rodata        0x00000000100979fc       0x28 /home/leon/git/swp-report/iMX6_Platform_SDK/output/mx6sdl/lib/libsdk.a(usbh_drv.o)
 .rodata        0x0000000010097a24      0x1cc /home/leon/git/swp-report/iMX6_Platform_SDK/output/mx6sdl/lib/libsdk.a(usdhc.o)
 .rodata        0x0000000010097bf0       0x1c /home/leon/git/swp-report/iMX6_Platform_SDK/output/mx6sdl/lib/libsdk.a(usdhc_host.o)
 .rodata        0x0000000010097c0c      0x20c /home/leon/git/swp-report/iMX6_Platform_SDK/output/mx6sdl/lib/libsdk.a(usdhc_mmc.o)
 .rodata        0x0000000010097e18       0x58 /home/leon/git/swp-report/iMX6_Platform_SDK/output/mx6sdl/lib/libsdk.a(usdhc_sd.o)
                0x0000000010097e18                sd_ocr_value
                0x0000000010097e24                sd_if_cmd_arg
 .rodata        0x0000000010097e70       0x10 /home/leon/git/swp-report/iMX6_Platform_SDK/output/mx6sdl/lib/libsdk.a(hdmi_common.o)
 .rodata        0x0000000010097e80      0x1bc /home/leon/git/swp-report/iMX6_Platform_SDK/output/mx6sdl/lib/libsdk.a(ipu_ic.o)
 .rodata        0x000000001009803c      0x230 /home/leon/git/swp-report/iMX6_Platform_SDK/output/mx6sdl/lib/libsdk.a(abort_handler.o)
 .rodata        0x000000001009826c       0x64 /home/leon/git/swp-report/iMX6_Platform_SDK/output/mx6sdl/lib/libboard_smart_device_rev_a.a(board_display.o)
 .rodata        0x00000000100982d0       0x28 /home/leon/git/swp-report/iMX6_Platform_SDK/output/mx6sdl/lib/libboard_smart_device_rev_a.a(board_hdmi.o)
 .rodata        0x00000000100982f8       0x70 /home/leon/git/swp-report/iMX6_Platform_SDK/output/mx6sdl/lib/libboard_smart_device_rev_a.a(board_i2c.o)
                0x00000000100982f8                g_wm8958_i2c_device
                0x0000000010098300                g_wm8962_i2c_device
                0x0000000010098308                g_sgtl5000_i2c_device
                0x0000000010098310                g_cs42888_i2c_device
                0x0000000010098318                g_pmic_ltc3589_i2c_device
                0x0000000010098320                g_pmic_da9053_i2c_device
                0x0000000010098328                g_pmic_max17135_i2c_device
                0x0000000010098330                g_pmic_pf0100_i2c_device
                0x0000000010098338                g_adv7180_i2c_device
                0x0000000010098340                g_os81050_i2c_device
                0x0000000010098348                g_p1003_tsc_i2c_device
                0x0000000010098350                g_at24cx_i2c_device
                0x0000000010098358                g_si476x_i2c_device
                0x0000000010098360                g_mma8451_i2c_device
 .rodata        0x0000000010098368       0x84 /home/leon/git/swp-report/iMX6_Platform_SDK/output/mx6sdl/lib/libboard_smart_device_rev_a.a(ecspi_iomux_config.o)
 .rodata        0x00000000100983ec       0x84 /home/leon/git/swp-report/iMX6_Platform_SDK/output/mx6sdl/lib/libboard_smart_device_rev_a.a(i2c_iomux_config.o)
 .rodata        0x0000000010098470       0x84 /home/leon/git/swp-report/iMX6_Platform_SDK/output/mx6sdl/lib/libboard_smart_device_rev_a.a(ipu_iomux_config.o)
 .rodata        0x00000000100984f4       0x84 /home/leon/git/swp-report/iMX6_Platform_SDK/output/mx6sdl/lib/libboard_smart_device_rev_a.a(uart_iomux_config.o)
 .rodata        0x0000000010098578       0x84 /home/leon/git/swp-report/iMX6_Platform_SDK/output/mx6sdl/lib/libboard_smart_device_rev_a.a(usdhc_iomux_config.o)
 .rodata.str1.4
                0x00000000100985fc       0x3f /home/src/arm/target/bin/../arm-none-eabi/lib//libc.a(lib_a-assert.o)
                                         0x44 (size before relaxing)
 *fill*         0x000000001009863b        0x1 
 .rodata        0x000000001009863c        0x4 /home/src/arm/target/bin/../arm-none-eabi/lib//libc.a(lib_a-impure.o)
                0x000000001009863c                _global_impure_ptr
 .rodata.str1.4
                0x0000000010098640        0x2 /home/src/arm/target/bin/../arm-none-eabi/lib//libc.a(lib_a-impure.o)
                                          0x4 (size before relaxing)
 *fill*         0x0000000010098642        0x2 
 .rodata        0x0000000010098644       0x20 /home/src/arm/target/bin/../arm-none-eabi/lib//libc.a(lib_a-svfprintf.o)
 .rodata.str1.4
                0x0000000010098664       0x42 /home/src/arm/target/bin/../arm-none-eabi/lib//libc.a(lib_a-svfprintf.o)
                                         0x44 (size before relaxing)
 *fill*         0x00000000100986a6        0x2 
 .rodata.str1.4
                0x00000000100986a8        0x4 /home/src/arm/target/bin/../arm-none-eabi/lib//libc.a(lib_a-syscalls.o)
 .rodata        0x00000000100986ac       0x20 /home/src/arm/target/bin/../arm-none-eabi/lib//libc.a(lib_a-vfiprintf.o)
 .rodata.str1.4
                0x0000000000000000       0x30 /home/src/arm/target/bin/../arm-none-eabi/lib//libc.a(lib_a-vfiprintf.o)
 .rodata        0x00000000100986cc       0x20 /home/src/arm/target/bin/../arm-none-eabi/lib//libc.a(lib_a-vfprintf.o)
 .rodata.str1.4
                0x0000000000000000       0x44 /home/src/arm/target/bin/../arm-none-eabi/lib//libc.a(lib_a-vfprintf.o)
 .rodata        0x00000000100986ec      0x104 /home/src/arm/target/bin/../arm-none-eabi/lib//libc.a(lib_a-ctype_.o)
                0x00000000100986ec                _ctype_
 .rodata.str1.4
                0x00000000100987f0       0x10 /home/src/arm/target/bin/../arm-none-eabi/lib//libc.a(lib_a-dtoa.o)
                                         0x14 (size before relaxing)
 .rodata.str1.4
                0x0000000010098800        0xc /home/src/arm/target/bin/../arm-none-eabi/lib//libc.a(lib_a-locale.o)
                                         0x14 (size before relaxing)
 *fill*         0x000000001009880c        0x4 
 .rodata        0x0000000010098810      0x128 /home/src/arm/target/bin/../arm-none-eabi/lib//libc.a(lib_a-mprec.o)
                0x0000000010098820                __mprec_tens
                0x00000000100988e8                __mprec_tinytens
                0x0000000010098910                __mprec_bigtens
 .rodata        0x0000000010098938       0x20 /home/src/arm/target/bin/../arm-none-eabi/lib//libc.a(lib_a-svfiprintf.o)
 .rodata.str1.4
                0x0000000000000000       0x30 /home/src/arm/target/bin/../arm-none-eabi/lib//libc.a(lib_a-svfiprintf.o)
                0x0000000010098958                . = ALIGN (0x4)
 *(.init)
 .init          0x0000000010098958        0xc /home/src/arm/target/bin/../lib/gcc/arm-none-eabi/4.8.2//crti.o
                0x0000000010098958                _init
 .init          0x0000000010098964        0xc /home/src/arm/target/bin/../lib/gcc/arm-none-eabi/4.8.2//crtn.o
                0x0000000010098970                . = ALIGN (0x4)
                0x0000000010098970                __init_array_start = .
 *(SORT(.init_array.*))
 *(.init_array)
 .init_array    0x0000000010098970        0x4 /home/src/arm/target/bin/../lib/gcc/arm-none-eabi/4.8.2//crtbegin.o
                0x0000000010098974                __init_array_end = .
                0x0000000010098974                . = ALIGN (0x4)
 *(.fini)
 .fini          0x0000000010098974        0xc /home/src/arm/target/bin/../lib/gcc/arm-none-eabi/4.8.2//crti.o
                0x0000000010098974                _fini
 .fini          0x0000000010098980        0xc /home/src/arm/target/bin/../lib/gcc/arm-none-eabi/4.8.2//crtn.o
                0x000000001009898c                . = ALIGN (0x4)
                0x000000001009898c                __fini_array_start = .
 *(.fini_array)
 .fini_array    0x000000001009898c        0x4 /home/src/arm/target/bin/../lib/gcc/arm-none-eabi/4.8.2//crtbegin.o
 *(SORT(.fini_array.*))
                0x0000000010098990                __fini_array_end = .
                0x0000000010098990                PROVIDE (__exidx_start, .)

.eh_frame       0x0000000010098990        0x4
 .eh_frame      0x0000000010098990        0x0 /home/src/arm/target/bin/../lib/gcc/arm-none-eabi/4.8.2//crtbegin.o
 .eh_frame      0x0000000010098990        0x4 /home/src/arm/target/bin/../lib/gcc/arm-none-eabi/4.8.2//crtend.o

.ARM.exidx      0x0000000010098994        0x8
 *(.ARM.exidx* .gnu.linkonce.armexidx.*)
 .ARM.exidx.startup
                0x0000000010098994        0x8 /home/leon/git/swp-report/iMX6_Platform_SDK/output/mx6sdl/lib/libsdk.a(startup.o)
 .ARM.exidx     0x000000001009899c        0x0 /home/src/arm/target/bin/../lib/gcc/arm-none-eabi/4.8.2//libgcc.a(_divdi3.o)
                                          0x8 (size before relaxing)
 .ARM.exidx     0x000000001009899c        0x0 /home/src/arm/target/bin/../lib/gcc/arm-none-eabi/4.8.2//libgcc.a(_udivdi3.o)
                                          0x8 (size before relaxing)
                0x000000001009899c                PROVIDE (__exidx_end, .)

.rel.dyn        0x000000001009899c        0x0
 .rel.iplt      0x0000000000000000        0x0 /home/src/arm/target/bin/../lib/gcc/arm-none-eabi/4.8.2//crtbegin.o

.data           0x00000000100989a0   0x14b444
 *(.data .data.* .gnu.linkonce.d.*)
 .data          0x00000000100989a0        0x4 /home/src/arm/target/bin/../lib/gcc/arm-none-eabi/4.8.2//crtbegin.o
                0x00000000100989a0                __dso_handle
 .data          0x00000000100989a4        0x0 /home/src/arm/target/bin/../lib/gcc/arm-none-eabi/4.8.2//crti.o
 .data          0x00000000100989a4        0x0 /home/src/arm/target/bin/../lib/gcc/arm-none-eabi/4.8.2//crtend.o
 .data          0x00000000100989a4        0x0 /home/src/arm/target/bin/../lib/gcc/arm-none-eabi/4.8.2//crtn.o
 .data          0x00000000100989a4        0x0 /home/leon/git/swp-report/iMX6_Platform_SDK/output/mx6sdl/obds/smart_device_rev_a/obj/apps/common/ivt.o
 .data          0x00000000100989a4        0x0 /home/leon/git/swp-report/iMX6_Platform_SDK/output/mx6sdl/obds/smart_device_rev_a/obj/apps/common/platform_init.o
 .data          0x00000000100989a4        0x0 /home/leon/git/swp-report/iMX6_Platform_SDK/output/mx6sdl/obds/smart_device_rev_a/obj/apps/common/print_clock_info.o
 .data          0x00000000100989a4        0x0 /home/leon/git/swp-report/iMX6_Platform_SDK/output/mx6sdl/obds/smart_device_rev_a/obj/apps/common/print_version.o
 .data          0x00000000100989a4        0x4 /home/leon/git/swp-report/iMX6_Platform_SDK/output/mx6sdl/obds/smart_device_rev_a/obj/apps/obds/src/obds.o
                0x00000000100989a4                auto_run_enable
 .data          0x00000000100989a8        0x8 /home/leon/git/swp-report/iMX6_Platform_SDK/output/mx6sdl/obds/smart_device_rev_a/obj/apps/obds/src/obds_utils.o
                0x00000000100989a8                soc_sbmr1
                0x00000000100989ac                soc_sbmr2
 .data          0x00000000100989b0        0x0 /home/leon/git/swp-report/iMX6_Platform_SDK/output/mx6sdl/obds/smart_device_rev_a/obj/apps/obds/src/tests/android_buttons_test.o
 .data          0x00000000100989b0        0x0 /home/leon/git/swp-report/iMX6_Platform_SDK/output/mx6sdl/obds/smart_device_rev_a/obj/apps/obds/src/tests/audio_esai_test.o
 .data          0x00000000100989b0    0x275f4 /home/leon/git/swp-report/iMX6_Platform_SDK/output/mx6sdl/obds/smart_device_rev_a/obj/apps/obds/src/tests/audio_ssi_test.o
                0x00000000100989b0                wav_data
                0x00000000100bff78                pcm_para
                0x00000000100bff84                pcm_music
                0x00000000100bff94                pcm_record
 .data          0x00000000100bffa4        0x0 /home/leon/git/swp-report/iMX6_Platform_SDK/output/mx6sdl/obds/smart_device_rev_a/obj/apps/obds/src/tests/ddr_test.o
 .data          0x00000000100bffa4        0x0 /home/leon/git/swp-report/iMX6_Platform_SDK/output/mx6sdl/obds/smart_device_rev_a/obj/apps/obds/src/tests/deserializer_ds90ur124.o
 .data          0x00000000100bffa4    0x11e38 /home/leon/git/swp-report/iMX6_Platform_SDK/output/mx6sdl/obds/smart_device_rev_a/obj/apps/obds/src/tests/display_test.o
                0x00000000100bffa4                gImage_fsl
 .data          0x00000000100d1ddc        0x8 /home/leon/git/swp-report/iMX6_Platform_SDK/output/mx6sdl/obds/smart_device_rev_a/obj/apps/obds/src/tests/enet_mx6dldq_test.o
 .data          0x00000000100d1de4        0x0 /home/leon/git/swp-report/iMX6_Platform_SDK/output/mx6sdl/obds/smart_device_rev_a/obj/apps/obds/src/tests/flexcan_test.o
 .data          0x00000000100d1de4        0x0 /home/leon/git/swp-report/iMX6_Platform_SDK/output/mx6sdl/obds/smart_device_rev_a/obj/apps/obds/src/tests/fm_tuner_si476x_test.o
 .data          0x00000000100d1de4        0x0 /home/leon/git/swp-report/iMX6_Platform_SDK/output/mx6sdl/obds/smart_device_rev_a/obj/apps/obds/src/tests/gpio_led.o
 .data          0x00000000100d1de4        0x4 /home/leon/git/swp-report/iMX6_Platform_SDK/output/mx6sdl/obds/smart_device_rev_a/obj/apps/obds/src/tests/gps_test.o
 .data          0x00000000100d1de8        0x0 /home/leon/git/swp-report/iMX6_Platform_SDK/output/mx6sdl/obds/smart_device_rev_a/obj/apps/obds/src/tests/i2c_check_light_sensor_isl29023.o
 .data          0x00000000100d1de8        0x0 /home/leon/git/swp-report/iMX6_Platform_SDK/output/mx6sdl/obds/smart_device_rev_a/obj/apps/obds/src/tests/i2c_device_barometer_ppl3115.o
 .data          0x00000000100d1de8        0x0 /home/leon/git/swp-report/iMX6_Platform_SDK/output/mx6sdl/obds/smart_device_rev_a/obj/apps/obds/src/tests/i2c_device_check_cs42888.o
 .data          0x00000000100d1de8        0x0 /home/leon/git/swp-report/iMX6_Platform_SDK/output/mx6sdl/obds/smart_device_rev_a/obj/apps/obds/src/tests/i2c_device_digital_compass_mag3110.o
 .data          0x00000000100d1de8        0x0 /home/leon/git/swp-report/iMX6_Platform_SDK/output/mx6sdl/obds/smart_device_rev_a/obj/apps/obds/src/tests/i2c_device_digital_compass_mag3112.o
 .data          0x00000000100d1de8        0x0 /home/leon/git/swp-report/iMX6_Platform_SDK/output/mx6sdl/obds/smart_device_rev_a/obj/apps/obds/src/tests/i2c_device_id_check_mma8450.o
 .data          0x00000000100d1de8        0x0 /home/leon/git/swp-report/iMX6_Platform_SDK/output/mx6sdl/obds/smart_device_rev_a/obj/apps/obds/src/tests/i2c_device_id_check_mma8451.o
 .data          0x00000000100d1de8        0x0 /home/leon/git/swp-report/iMX6_Platform_SDK/output/mx6sdl/obds/smart_device_rev_a/obj/apps/obds/src/tests/i2c_device_id_check_p1003_tsc.o
 .data          0x00000000100d1de8        0x0 /home/leon/git/swp-report/iMX6_Platform_SDK/output/mx6sdl/obds/smart_device_rev_a/obj/apps/obds/src/tests/i2c_device_temp_sensor_emc1046.o
 .data          0x00000000100d1de8        0x0 /home/leon/git/swp-report/iMX6_Platform_SDK/output/mx6sdl/obds/smart_device_rev_a/obj/apps/obds/src/tests/i2c_device_zigbee_mc1323.o
 .data          0x00000000100d1de8        0x0 /home/leon/git/swp-report/iMX6_Platform_SDK/output/mx6sdl/obds/smart_device_rev_a/obj/apps/obds/src/tests/i2c_eeprom_at24cxx_test.o
 .data          0x00000000100d1de8        0x8 /home/leon/git/swp-report/iMX6_Platform_SDK/output/mx6sdl/obds/smart_device_rev_a/obj/apps/obds/src/tests/imx_spi_nor_test.o
                0x00000000100d1de8                AT45DB321D_id
                0x00000000100d1dec                M25P32_id
 .data          0x00000000100d1df0        0x8 /home/leon/git/swp-report/iMX6_Platform_SDK/output/mx6sdl/obds/smart_device_rev_a/obj/apps/obds/src/tests/mlb_os81050.o
 .data          0x00000000100d1df8        0x0 /home/leon/git/swp-report/iMX6_Platform_SDK/output/mx6sdl/obds/smart_device_rev_a/obj/apps/obds/src/tests/mmcsd_test.o
 .data          0x00000000100d1df8        0x0 /home/leon/git/swp-report/iMX6_Platform_SDK/output/mx6sdl/obds/smart_device_rev_a/obj/apps/obds/src/tests/pmic_da9053.o
 .data          0x00000000100d1df8        0x0 /home/leon/git/swp-report/iMX6_Platform_SDK/output/mx6sdl/obds/smart_device_rev_a/obj/apps/obds/src/tests/pmic_lt3589.o
 .data          0x00000000100d1df8        0x0 /home/leon/git/swp-report/iMX6_Platform_SDK/output/mx6sdl/obds/smart_device_rev_a/obj/apps/obds/src/tests/pmic_max17135.o
 .data          0x00000000100d1df8        0x0 /home/leon/git/swp-report/iMX6_Platform_SDK/output/mx6sdl/obds/smart_device_rev_a/obj/apps/obds/src/tests/pmic_mc13892.o
 .data          0x00000000100d1df8        0x0 /home/leon/git/swp-report/iMX6_Platform_SDK/output/mx6sdl/obds/smart_device_rev_a/obj/apps/obds/src/tests/program_board_id.o
 .data          0x00000000100d1df8        0x0 /home/leon/git/swp-report/iMX6_Platform_SDK/output/mx6sdl/obds/smart_device_rev_a/obj/apps/obds/src/tests/program_mac_address.o
 .data          0x00000000100d1df8        0x0 /home/leon/git/swp-report/iMX6_Platform_SDK/output/mx6sdl/obds/smart_device_rev_a/obj/apps/obds/src/tests/snvs_srtc_test.o
 .data          0x00000000100d1df8        0x0 /home/leon/git/swp-report/iMX6_Platform_SDK/output/mx6sdl/obds/smart_device_rev_a/obj/apps/obds/src/tests/touch_button_test.o
 .data          0x00000000100d1df8        0x0 /home/leon/git/swp-report/iMX6_Platform_SDK/output/mx6sdl/obds/smart_device_rev_a/obj/apps/obds/src/tests/touch_screen.o
 .data          0x00000000100d1df8        0x0 /home/leon/git/swp-report/iMX6_Platform_SDK/output/mx6sdl/obds/smart_device_rev_a/obj/apps/obds/src/tests/touch_screen_max11801.o
 .data          0x00000000100d1df8        0x0 /home/leon/git/swp-report/iMX6_Platform_SDK/output/mx6sdl/obds/smart_device_rev_a/obj/apps/obds/src/tests/usb_tests_obds.o
 .data          0x00000000100d1df8        0x0 /home/leon/git/swp-report/iMX6_Platform_SDK/output/mx6sdl/obds/smart_device_rev_a/obj/apps/obds/src/tests/video_dec_ARD_MB_reset_button.o
 .data          0x00000000100d1df8        0x0 /home/leon/git/swp-report/iMX6_Platform_SDK/output/mx6sdl/obds/smart_device_rev_a/obj/apps/obds/src/tests/video_dec_ARD_MBrst_from_cpu_expander.o
 .data          0x00000000100d1df8        0x0 /home/leon/git/swp-report/iMX6_Platform_SDK/output/mx6sdl/obds/smart_device_rev_a/obj/apps/obds/src/tests/video_dec_adv7180.o
 .data          0x00000000100d1df8        0x0 /home/leon/git/swp-report/iMX6_Platform_SDK/output/mx6sdl/obds/smart_device_rev_a/obj/apps/obds/src/tests/weim_nor_flash_test.o
 .data          0x00000000100d1df8        0x0 /home/leon/git/swp-report/iMX6_Platform_SDK/output/mx6sdl/obds/smart_device_rev_a/obj/sdk/common/ioexpander/test/max7310_test.o
 .data          0x00000000100d1df8        0x0 /home/leon/git/swp-report/iMX6_Platform_SDK/output/mx6sdl/obds/smart_device_rev_a/obj/sdk/common/pmic/pfuse/pf0100.o
 .data          0x00000000100d1df8       0x68 /home/leon/git/swp-report/iMX6_Platform_SDK/output/mx6sdl/obds/smart_device_rev_a/obj/sdk/drivers/audio/src/snd_card.o
                0x00000000100d1e10                snd_card_esai
                0x00000000100d1e20                snd_card_spdif
                0x00000000100d1e30                snd_card_ssi_sgtl5000
                0x00000000100d1e40                snd_card_ssi_wm8958
                0x00000000100d1e50                snd_card_ssi_wm8962
 .data          0x00000000100d1e60        0x0 /home/leon/git/swp-report/iMX6_Platform_SDK/output/mx6sdl/obds/smart_device_rev_a/obj/sdk/drivers/camera/test/adv7180_capture.o
 .data          0x00000000100d1e60       0x10 /home/leon/git/swp-report/iMX6_Platform_SDK/output/mx6sdl/obds/smart_device_rev_a/obj/sdk/drivers/camera/test/camera_test.o
 .data          0x00000000100d1e70        0x0 /home/leon/git/swp-report/iMX6_Platform_SDK/output/mx6sdl/obds/smart_device_rev_a/obj/sdk/drivers/camera/test/csi_test_mode.o
 .data          0x00000000100d1e70        0x0 /home/leon/git/swp-report/iMX6_Platform_SDK/output/mx6sdl/obds/smart_device_rev_a/obj/sdk/drivers/camera/test/sensor_capture.o
 .data          0x00000000100d1e70        0x0 /home/leon/git/swp-report/iMX6_Platform_SDK/output/mx6sdl/obds/smart_device_rev_a/obj/sdk/drivers/epdc/test/epdc_test.o
 .data          0x00000000100d1e70        0x0 /home/leon/git/swp-report/iMX6_Platform_SDK/output/mx6sdl/obds/smart_device_rev_a/obj/sdk/drivers/hdmi/test/hdmi_test.o
 .data          0x00000000100d1e70        0x0 /home/leon/git/swp-report/iMX6_Platform_SDK/output/mx6sdl/obds/smart_device_rev_a/obj/sdk/drivers/hdmi/test/init_dma_data.o
 .data          0x00000000100d1e70        0x0 /home/leon/git/swp-report/iMX6_Platform_SDK/output/mx6sdl/obds/smart_device_rev_a/obj/sdk/drivers/ipu/test/ips_display.o
 .data          0x00000000100d1e70        0x0 /home/leon/git/swp-report/iMX6_Platform_SDK/output/mx6sdl/obds/smart_device_rev_a/obj/sdk/drivers/ipu/test/ipu_image.o
 .data          0x00000000100d1e70        0x0 /home/leon/git/swp-report/iMX6_Platform_SDK/output/mx6sdl/obds/smart_device_rev_a/obj/sdk/drivers/spi/test/imx_spi_nor_atmel.o
 .data          0x00000000100d1e70        0x0 /home/leon/git/swp-report/iMX6_Platform_SDK/output/mx6sdl/obds/smart_device_rev_a/obj/sdk/drivers/spi/test/spi_nor_numonyx.o
 .data          0x00000000100d1e70        0x4 /home/leon/git/swp-report/iMX6_Platform_SDK/output/mx6sdl/obds/smart_device_rev_a/obj/sdk/drivers/uart/test/uart_test.o
 .data          0x00000000100d1e74        0x0 /home/leon/git/swp-report/iMX6_Platform_SDK/output/mx6sdl/obds/smart_device_rev_a/obj/sdk/drivers/usb/test/usb0_host_test.o
 .data          0x00000000100d1e74       0x28 /home/leon/git/swp-report/iMX6_Platform_SDK/output/mx6sdl/obds/smart_device_rev_a/obj/sdk/drivers/usb/test/usb0_host_testmodes_test.o
 .data          0x00000000100d1e9c       0x68 /home/leon/git/swp-report/iMX6_Platform_SDK/output/mx6sdl/obds/smart_device_rev_a/obj/sdk/drivers/usdhc/test/usdhc_test.o
 .data          0x00000000100d1f04        0x0 /home/leon/git/swp-report/iMX6_Platform_SDK/output/mx6sdl/lib/libsdk.a(max7310.o)
 .data          0x00000000100d1f04        0x0 /home/leon/git/swp-report/iMX6_Platform_SDK/output/mx6sdl/lib/libsdk.a(ccm_pll.o)
 .data          0x00000000100d1f04        0x0 /home/leon/git/swp-report/iMX6_Platform_SDK/output/mx6sdl/lib/libsdk.a(cortexA9.o)
 .data          0x00000000100d1f04        0x0 /home/leon/git/swp-report/iMX6_Platform_SDK/output/mx6sdl/lib/libsdk.a(gic.o)
 .data          0x00000000100d1f04        0x0 /home/leon/git/swp-report/iMX6_Platform_SDK/output/mx6sdl/lib/libsdk.a(interrupt.o)
 .data          0x00000000100d1f04        0x0 /home/leon/git/swp-report/iMX6_Platform_SDK/output/mx6sdl/lib/libsdk.a(mmu.o)
 .data          0x00000000100d1f04        0x0 /home/leon/git/swp-report/iMX6_Platform_SDK/output/mx6sdl/lib/libsdk.a(startup.o)
 .data          0x00000000100d1f04        0x0 /home/leon/git/swp-report/iMX6_Platform_SDK/output/mx6sdl/lib/libsdk.a(vectors.o)
 .data          0x00000000100d1f04        0x4 /home/leon/git/swp-report/iMX6_Platform_SDK/output/mx6sdl/lib/libsdk.a(menu.o)
 .data          0x00000000100d1f08        0x0 /home/leon/git/swp-report/iMX6_Platform_SDK/output/mx6sdl/lib/libsdk.a(sdk_version.o)
 .data          0x00000000100d1f08        0x0 /home/leon/git/swp-report/iMX6_Platform_SDK/output/mx6sdl/lib/libsdk.a(system_util.o)
 .data          0x00000000100d1f08        0x4 /home/leon/git/swp-report/iMX6_Platform_SDK/output/mx6sdl/lib/libsdk.a(text_color.o)
                0x00000000100d1f08                is_color_supported
 .data          0x00000000100d1f0c       0x28 /home/leon/git/swp-report/iMX6_Platform_SDK/output/mx6sdl/lib/libsdk.a(cs42888.o)
                0x00000000100d1f0c                cs42888_ops
                0x00000000100d1f24                cs42888
 .data          0x00000000100d1f34       0x60 /home/leon/git/swp-report/iMX6_Platform_SDK/output/mx6sdl/lib/libsdk.a(imx-ssi.o)
                0x00000000100d1f4c                imx_ssi_1
                0x00000000100d1f64                imx_ssi_2
                0x00000000100d1f7c                imx_ssi_3
 .data          0x00000000100d1f94        0x0 /home/leon/git/swp-report/iMX6_Platform_SDK/output/mx6sdl/lib/libsdk.a(imx_audmux.o)
 .data          0x00000000100d1f94       0x30 /home/leon/git/swp-report/iMX6_Platform_SDK/output/mx6sdl/lib/libsdk.a(imx_esai.o)
                0x00000000100d1fac                imx_esai_1
 .data          0x00000000100d1fc4       0x30 /home/leon/git/swp-report/iMX6_Platform_SDK/output/mx6sdl/lib/libsdk.a(imx_spdif.o)
                0x00000000100d1fdc                imx_spdif
 .data          0x00000000100d1ff4       0x28 /home/leon/git/swp-report/iMX6_Platform_SDK/output/mx6sdl/lib/libsdk.a(sgtl5000.o)
                0x00000000100d1ff4                sgtl5000_ops
                0x00000000100d200c                sgtl5000
 .data          0x00000000100d201c       0x28 /home/leon/git/swp-report/iMX6_Platform_SDK/output/mx6sdl/lib/libsdk.a(wm8958_dac.o)
                0x00000000100d201c                wm8958_ops
                0x00000000100d2034                wm8958
 .data          0x00000000100d2044       0x28 /home/leon/git/swp-report/iMX6_Platform_SDK/output/mx6sdl/lib/libsdk.a(wm8962.o)
                0x00000000100d2044                wm8962_ops
                0x00000000100d205c                wm8962
 .data          0x00000000100d206c        0x0 /home/leon/git/swp-report/iMX6_Platform_SDK/output/mx6sdl/lib/libsdk.a(board_id.o)
 .data          0x00000000100d206c       0x30 /home/leon/git/swp-report/iMX6_Platform_SDK/output/mx6sdl/lib/libsdk.a(smd_sensor.o)
                0x00000000100d206c                ov5642_strobe_on
 .data          0x00000000100d209c        0x0 /home/leon/git/swp-report/iMX6_Platform_SDK/output/mx6sdl/lib/libsdk.a(enet_drv.o)
 .data          0x00000000100d209c    0xf2cf0 /home/leon/git/swp-report/iMX6_Platform_SDK/output/mx6sdl/lib/libsdk.a(mxc_epdc.o)
                0x00000000100d209c                wv_data
                0x00000000101a327c                fsl_gray_600x230
 .data          0x00000000101c4d8c        0x0 /home/leon/git/swp-report/iMX6_Platform_SDK/output/mx6sdl/lib/libsdk.a(gpio.o)
 .data          0x00000000101c4d8c        0x0 /home/leon/git/swp-report/iMX6_Platform_SDK/output/mx6sdl/lib/libsdk.a(imx6sdl_gpio_map.o)
 .data          0x00000000101c4d8c        0x0 /home/leon/git/swp-report/iMX6_Platform_SDK/output/mx6sdl/lib/libsdk.a(hdmi_tx.o)
 .data          0x00000000101c4d8c        0x0 /home/leon/git/swp-report/iMX6_Platform_SDK/output/mx6sdl/lib/libsdk.a(hdmi_tx_audio.o)
 .data          0x00000000101c4d8c        0x0 /home/leon/git/swp-report/iMX6_Platform_SDK/output/mx6sdl/lib/libsdk.a(hdmi_tx_phy.o)
 .data          0x00000000101c4d8c        0x0 /home/leon/git/swp-report/iMX6_Platform_SDK/output/mx6sdl/lib/libsdk.a(imx_i2c.o)
 .data          0x00000000101c4d8c      0x368 /home/leon/git/swp-report/iMX6_Platform_SDK/output/mx6sdl/lib/libsdk.a(ips_disp_panel.o)
                0x00000000101c4d8c                disp_dev_list
                0x00000000101c50f0                num_of_panels
 .data          0x00000000101c50f4        0x0 /home/leon/git/swp-report/iMX6_Platform_SDK/output/mx6sdl/lib/libsdk.a(ipu_common.o)
 .data          0x00000000101c50f4        0x0 /home/leon/git/swp-report/iMX6_Platform_SDK/output/mx6sdl/lib/libsdk.a(ipu_csi.o)
 .data          0x00000000101c50f4        0x0 /home/leon/git/swp-report/iMX6_Platform_SDK/output/mx6sdl/lib/libsdk.a(ipu_dc.o)
 .data          0x00000000101c50f4        0x0 /home/leon/git/swp-report/iMX6_Platform_SDK/output/mx6sdl/lib/libsdk.a(ipu_di.o)
 .data          0x00000000101c50f4        0x0 /home/leon/git/swp-report/iMX6_Platform_SDK/output/mx6sdl/lib/libsdk.a(ipu_dmfc.o)
 .data          0x00000000101c50f4        0x0 /home/leon/git/swp-report/iMX6_Platform_SDK/output/mx6sdl/lib/libsdk.a(ipu_dp.o)
 .data          0x00000000101c50f4        0x0 /home/leon/git/swp-report/iMX6_Platform_SDK/output/mx6sdl/lib/libsdk.a(ipu_idmac.o)
 .data          0x00000000101c50f4        0x0 /home/leon/git/swp-report/iMX6_Platform_SDK/output/mx6sdl/lib/libsdk.a(ipu_vdi.o)
 .data          0x00000000101c50f4        0x0 /home/leon/git/swp-report/iMX6_Platform_SDK/output/mx6sdl/lib/libsdk.a(ldb.o)
 .data          0x00000000101c50f4        0x0 /home/leon/git/swp-report/iMX6_Platform_SDK/output/mx6sdl/lib/libsdk.a(ocotp.o)
 .data          0x00000000101c50f4        0x0 /home/leon/git/swp-report/iMX6_Platform_SDK/output/mx6sdl/lib/libsdk.a(ecspi.o)
 .data          0x00000000101c50f4        0x0 /home/leon/git/swp-report/iMX6_Platform_SDK/output/mx6sdl/lib/libsdk.a(timer.o)
 .data          0x00000000101c50f4        0x0 /home/leon/git/swp-report/iMX6_Platform_SDK/output/mx6sdl/lib/libsdk.a(imx_uart.o)
 .data          0x00000000101c50f4        0x0 /home/leon/git/swp-report/iMX6_Platform_SDK/output/mx6sdl/lib/libsdk.a(usb_common.o)
 .data          0x00000000101c50f4        0x0 /home/leon/git/swp-report/iMX6_Platform_SDK/output/mx6sdl/lib/libsdk.a(usbh_drv.o)
 .data          0x00000000101c50f4       0x58 /home/leon/git/swp-report/iMX6_Platform_SDK/output/mx6sdl/lib/libsdk.a(usdhc.o)
                0x00000000101c50f4                usdhc_device
                0x00000000101c5144                card_detect_test_en
                0x00000000101c5148                write_protect_test_en
 .data          0x00000000101c514c        0x0 /home/leon/git/swp-report/iMX6_Platform_SDK/output/mx6sdl/lib/libsdk.a(usdhc_host.o)
 .data          0x00000000101c514c        0x4 /home/leon/git/swp-report/iMX6_Platform_SDK/output/mx6sdl/lib/libsdk.a(usdhc_mmc.o)
 .data          0x00000000101c5150        0x0 /home/leon/git/swp-report/iMX6_Platform_SDK/output/mx6sdl/lib/libsdk.a(usdhc_sd.o)
 .data          0x00000000101c5150        0x4 /home/leon/git/swp-report/iMX6_Platform_SDK/output/mx6sdl/lib/libsdk.a(arm_abort.o)
 .data          0x00000000101c5154        0x0 /home/leon/git/swp-report/iMX6_Platform_SDK/output/mx6sdl/lib/libsdk.a(armv7_cache.o)
 .data          0x00000000101c5154    0x1e3c0 /home/leon/git/swp-report/iMX6_Platform_SDK/output/mx6sdl/lib/libsdk.a(camera_profile.o)
                0x00000000101c5154                g_ov3640_sensor_detection
                0x00000000101c5174                g_ov5640_sensor_detection
                0x00000000101c5194                g_ov5642_sensor_detection
                0x00000000101c51b4                g_mt9p111_sensor_detection
                0x00000000101c51c4                g_ov3640_mode_vga_640_480_30fps
                0x00000000101c5924                g_ov5640_mode_vga_640_480_30fps
                0x00000000101c68a4                g_ov5642_mode_vga_640_480_30fps
                0x00000000101c87c4                g_ov5642_af_firmware
                0x00000000101df494                g_ov5642_af_trigger
                0x00000000101df4b4                g_ov5642_af_ready
                0x00000000101df4c4                g_mt9p111_mode_vga_640_480_30fps
                0x00000000101e2c04                g_mt9p111_af_firmware
                0x00000000101e3344                g_mt9p111_af_trigger
                0x00000000101e3374                g_mt9p111_af_ready
                0x00000000101e3384                g_camera_modes
                0x00000000101e33a4                g_camera_profiles
 .data          0x00000000101e3514        0x0 /home/leon/git/swp-report/iMX6_Platform_SDK/output/mx6sdl/lib/libsdk.a(hdmi_common.o)
 .data          0x00000000101e3514        0x0 /home/leon/git/swp-report/iMX6_Platform_SDK/output/mx6sdl/lib/libsdk.a(ipu_ic.o)
 .data          0x00000000101e3514        0x0 /home/leon/git/swp-report/iMX6_Platform_SDK/output/mx6sdl/lib/libsdk.a(epit.o)
 .data          0x00000000101e3514        0x0 /home/leon/git/swp-report/iMX6_Platform_SDK/output/mx6sdl/lib/libsdk.a(mx6x_usb.o)
 .data          0x00000000101e3514        0x0 /home/leon/git/swp-report/iMX6_Platform_SDK/output/mx6sdl/lib/libsdk.a(abort_handler.o)
 .data          0x00000000101e3514        0x0 /home/leon/git/swp-report/iMX6_Platform_SDK/output/mx6sdl/lib/libboard_smart_device_rev_a.a(board_audio.o)
 .data          0x00000000101e3514        0x0 /home/leon/git/swp-report/iMX6_Platform_SDK/output/mx6sdl/lib/libboard_smart_device_rev_a.a(board_buttons.o)
 .data          0x00000000101e3514        0x1 /home/leon/git/swp-report/iMX6_Platform_SDK/output/mx6sdl/lib/libboard_smart_device_rev_a.a(board_camera.o)
                0x00000000101e3514                g_camera_i2c_port
 .data          0x00000000101e3515        0x0 /home/leon/git/swp-report/iMX6_Platform_SDK/output/mx6sdl/lib/libboard_smart_device_rev_a.a(board_display.o)
 .data          0x00000000101e3515        0x0 /home/leon/git/swp-report/iMX6_Platform_SDK/output/mx6sdl/lib/libboard_smart_device_rev_a.a(board_hdmi.o)
 .data          0x00000000101e3515        0x0 /home/leon/git/swp-report/iMX6_Platform_SDK/output/mx6sdl/lib/libboard_smart_device_rev_a.a(board_i2c.o)
 .data          0x00000000101e3515        0x0 /home/leon/git/swp-report/iMX6_Platform_SDK/output/mx6sdl/lib/libboard_smart_device_rev_a.a(board_io_expanders.o)
 .data          0x00000000101e3515        0x0 /home/leon/git/swp-report/iMX6_Platform_SDK/output/mx6sdl/lib/libboard_smart_device_rev_a.a(board_mipi.o)
 .data          0x00000000101e3515        0x0 /home/leon/git/swp-report/iMX6_Platform_SDK/output/mx6sdl/lib/libboard_smart_device_rev_a.a(board_network.o)
 .data          0x00000000101e3515        0x0 /home/leon/git/swp-report/iMX6_Platform_SDK/output/mx6sdl/lib/libboard_smart_device_rev_a.a(board_usb.o)
 .data          0x00000000101e3515        0x0 /home/leon/git/swp-report/iMX6_Platform_SDK/output/mx6sdl/lib/libboard_smart_device_rev_a.a(board_usdhc.o)
 *fill*         0x00000000101e3515        0x3 
 .data          0x00000000101e3518        0x8 /home/leon/git/swp-report/iMX6_Platform_SDK/output/mx6sdl/lib/libboard_smart_device_rev_a.a(hardware_modules.o)
                0x00000000101e3518                g_debug_uart_port
                0x00000000101e351c                g_system_timer_port
 .data          0x00000000101e3520        0x0 /home/leon/git/swp-report/iMX6_Platform_SDK/output/mx6sdl/lib/libboard_smart_device_rev_a.a(dcd.o)
 .data          0x00000000101e3520        0x0 /home/leon/git/swp-report/iMX6_Platform_SDK/output/mx6sdl/lib/libboard_smart_device_rev_a.a(audmux_iomux_config.o)
 .data          0x00000000101e3520        0x0 /home/leon/git/swp-report/iMX6_Platform_SDK/output/mx6sdl/lib/libboard_smart_device_rev_a.a(ccm_iomux_config.o)
 .data          0x00000000101e3520        0x0 /home/leon/git/swp-report/iMX6_Platform_SDK/output/mx6sdl/lib/libboard_smart_device_rev_a.a(ecspi_iomux_config.o)
 .data          0x00000000101e3520        0x0 /home/leon/git/swp-report/iMX6_Platform_SDK/output/mx6sdl/lib/libboard_smart_device_rev_a.a(enet_iomux_config.o)
 .data          0x00000000101e3520        0x0 /home/leon/git/swp-report/iMX6_Platform_SDK/output/mx6sdl/lib/libboard_smart_device_rev_a.a(epdc_iomux_config.o)
 .data          0x00000000101e3520        0x0 /home/leon/git/swp-report/iMX6_Platform_SDK/output/mx6sdl/lib/libboard_smart_device_rev_a.a(i2c_iomux_config.o)
 .data          0x00000000101e3520        0x0 /home/leon/git/swp-report/iMX6_Platform_SDK/output/mx6sdl/lib/libboard_smart_device_rev_a.a(iomux_config.o)
 .data          0x00000000101e3520        0x0 /home/leon/git/swp-report/iMX6_Platform_SDK/output/mx6sdl/lib/libboard_smart_device_rev_a.a(ipu1_iomux_config.o)
 .data          0x00000000101e3520        0x0 /home/leon/git/swp-report/iMX6_Platform_SDK/output/mx6sdl/lib/libboard_smart_device_rev_a.a(ipu_iomux_config.o)
 .data          0x00000000101e3520        0x0 /home/leon/git/swp-report/iMX6_Platform_SDK/output/mx6sdl/lib/libboard_smart_device_rev_a.a(kpp_iomux_config.o)
 .data          0x00000000101e3520        0x0 /home/leon/git/swp-report/iMX6_Platform_SDK/output/mx6sdl/lib/libboard_smart_device_rev_a.a(mmdc_iomux_config.o)
 .data          0x00000000101e3520        0x0 /home/leon/git/swp-report/iMX6_Platform_SDK/output/mx6sdl/lib/libboard_smart_device_rev_a.a(pwm1_iomux_config.o)
 .data          0x00000000101e3520        0x0 /home/leon/git/swp-report/iMX6_Platform_SDK/output/mx6sdl/lib/libboard_smart_device_rev_a.a(sjc_iomux_config.o)
 .data          0x00000000101e3520        0x0 /home/leon/git/swp-report/iMX6_Platform_SDK/output/mx6sdl/lib/libboard_smart_device_rev_a.a(uart1_iomux_config.o)
 .data          0x00000000101e3520        0x0 /home/leon/git/swp-report/iMX6_Platform_SDK/output/mx6sdl/lib/libboard_smart_device_rev_a.a(uart_iomux_config.o)
 .data          0x00000000101e3520        0x0 /home/leon/git/swp-report/iMX6_Platform_SDK/output/mx6sdl/lib/libboard_smart_device_rev_a.a(usdhc2_iomux_config.o)
 .data          0x00000000101e3520        0x0 /home/leon/git/swp-report/iMX6_Platform_SDK/output/mx6sdl/lib/libboard_smart_device_rev_a.a(usdhc3_iomux_config.o)
 .data          0x00000000101e3520        0x0 /home/leon/git/swp-report/iMX6_Platform_SDK/output/mx6sdl/lib/libboard_smart_device_rev_a.a(usdhc4_iomux_config.o)
 .data          0x00000000101e3520        0x0 /home/leon/git/swp-report/iMX6_Platform_SDK/output/mx6sdl/lib/libboard_smart_device_rev_a.a(usdhc_iomux_config.o)
 .data          0x00000000101e3520        0x0 /home/leon/git/swp-report/iMX6_Platform_SDK/output/mx6sdl/lib/libboard_smart_device_rev_a.a(ecspi1_iomux_config.o)
 .data          0x00000000101e3520        0x0 /home/leon/git/swp-report/iMX6_Platform_SDK/output/mx6sdl/lib/libboard_smart_device_rev_a.a(flexcan1_iomux_config.o)
 .data          0x00000000101e3520        0x0 /home/leon/git/swp-report/iMX6_Platform_SDK/output/mx6sdl/lib/libboard_smart_device_rev_a.a(gpio1_iomux_config.o)
 .data          0x00000000101e3520        0x0 /home/leon/git/swp-report/iMX6_Platform_SDK/output/mx6sdl/lib/libboard_smart_device_rev_a.a(gpio2_iomux_config.o)
 .data          0x00000000101e3520        0x0 /home/leon/git/swp-report/iMX6_Platform_SDK/output/mx6sdl/lib/libboard_smart_device_rev_a.a(gpio3_iomux_config.o)
 .data          0x00000000101e3520        0x0 /home/leon/git/swp-report/iMX6_Platform_SDK/output/mx6sdl/lib/libboard_smart_device_rev_a.a(gpio4_iomux_config.o)
 .data          0x00000000101e3520        0x0 /home/leon/git/swp-report/iMX6_Platform_SDK/output/mx6sdl/lib/libboard_smart_device_rev_a.a(gpio5_iomux_config.o)
 .data          0x00000000101e3520        0x0 /home/leon/git/swp-report/iMX6_Platform_SDK/output/mx6sdl/lib/libboard_smart_device_rev_a.a(gpio6_iomux_config.o)
 .data          0x00000000101e3520        0x0 /home/leon/git/swp-report/iMX6_Platform_SDK/output/mx6sdl/lib/libboard_smart_device_rev_a.a(gpio7_iomux_config.o)
 .data          0x00000000101e3520        0x0 /home/leon/git/swp-report/iMX6_Platform_SDK/output/mx6sdl/lib/libboard_smart_device_rev_a.a(gps_iomux_config.o)
 .data          0x00000000101e3520        0x0 /home/leon/git/swp-report/iMX6_Platform_SDK/output/mx6sdl/lib/libboard_smart_device_rev_a.a(i2c1_iomux_config.o)
 .data          0x00000000101e3520        0x0 /home/leon/git/swp-report/iMX6_Platform_SDK/output/mx6sdl/lib/libboard_smart_device_rev_a.a(i2c2_iomux_config.o)
 .data          0x00000000101e3520        0x0 /home/leon/git/swp-report/iMX6_Platform_SDK/output/mx6sdl/lib/libboard_smart_device_rev_a.a(i2c3_iomux_config.o)
 .data          0x00000000101e3520        0x0 /home/src/arm/target/bin/../arm-none-eabi/lib//libc.a(lib_a-assert.o)
 .data          0x00000000101e3520        0x0 /home/src/arm/target/bin/../arm-none-eabi/lib//libc.a(lib_a-bzero.o)
 .data          0x00000000101e3520        0x0 /home/src/arm/target/bin/../arm-none-eabi/lib//libc.a(lib_a-fiprintf.o)
 .data          0x00000000101e3520        0x0 /home/src/arm/target/bin/../arm-none-eabi/lib//libc.a(lib_a-fputc.o)
 .data          0x00000000101e3520      0x430 /home/src/arm/target/bin/../arm-none-eabi/lib//libc.a(lib_a-impure.o)
                0x00000000101e3520                _impure_ptr
 .data          0x00000000101e3950        0x0 /home/src/arm/target/bin/../arm-none-eabi/lib//libc.a(lib_a-init.o)
 .data          0x00000000101e3950        0x0 /home/src/arm/target/bin/../arm-none-eabi/lib//libc.a(lib_a-malloc.o)
 .data          0x00000000101e3950      0x410 /home/src/arm/target/bin/../arm-none-eabi/lib//libc.a(lib_a-mallocr.o)
                0x00000000101e3950                __malloc_av_
                0x00000000101e3d58                __malloc_sbrk_base
                0x00000000101e3d5c                __malloc_trim_threshold
 .data          0x00000000101e3d60        0x0 /home/src/arm/target/bin/../arm-none-eabi/lib//libc.a(lib_a-memcpy-stub.o)
 .data          0x00000000101e3d60        0x0 /home/src/arm/target/bin/../arm-none-eabi/lib//libc.a(lib_a-memset.o)
 .data          0x00000000101e3d60        0x0 /home/src/arm/target/bin/../arm-none-eabi/lib//libc.a(lib_a-mlock.o)
 .data          0x00000000101e3d60        0x0 /home/src/arm/target/bin/../arm-none-eabi/lib//libc.a(lib_a-printf.o)
 .data          0x00000000101e3d60        0x0 /home/src/arm/target/bin/../arm-none-eabi/lib//libc.a(lib_a-putc.o)
 .data          0x00000000101e3d60        0x0 /home/src/arm/target/bin/../arm-none-eabi/lib//libc.a(lib_a-realloc.o)
 .data          0x00000000101e3d60        0x0 /home/src/arm/target/bin/../arm-none-eabi/lib//libc.a(lib_a-reallocr.o)
 .data          0x00000000101e3d60        0x0 /home/src/arm/target/bin/../arm-none-eabi/lib//libc.a(lib_a-rget.o)
 .data          0x00000000101e3d60        0x0 /home/src/arm/target/bin/../arm-none-eabi/lib//libc.a(lib_a-sbrkr.o)
 .data          0x00000000101e3d60        0x0 /home/src/arm/target/bin/../arm-none-eabi/lib//libc.a(lib_a-sprintf.o)
 .data          0x00000000101e3d60        0x0 /home/src/arm/target/bin/../arm-none-eabi/lib//libc.a(lib_a-strcat.o)
 .data          0x00000000101e3d60        0x0 /home/src/arm/target/bin/../arm-none-eabi/lib//libc.a(lib_a-strcmp.o)
 .data          0x00000000101e3d60        0x0 /home/src/arm/target/bin/../arm-none-eabi/lib//libc.a(lib_a-strcpy.o)
 .data          0x00000000101e3d60        0x0 /home/src/arm/target/bin/../arm-none-eabi/lib//libc.a(lib_a-strlen.o)
 .data          0x00000000101e3d60        0x0 /home/src/arm/target/bin/../arm-none-eabi/lib//libc.a(lib_a-strncasecmp.o)
 .data          0x00000000101e3d60        0x0 /home/src/arm/target/bin/../arm-none-eabi/lib//libc.a(lib_a-strtok.o)
 .data          0x00000000101e3d60        0x0 /home/src/arm/target/bin/../arm-none-eabi/lib//libc.a(lib_a-strtok_r.o)
 .data          0x00000000101e3d60        0x0 /home/src/arm/target/bin/../arm-none-eabi/lib//libc.a(lib_a-svfprintf.o)
 .data          0x00000000101e3d60        0x0 /home/src/arm/target/bin/../arm-none-eabi/lib//libc.a(lib_a-syscalls.o)
 .data          0x00000000101e3d60        0x0 /home/src/arm/target/bin/../arm-none-eabi/lib//libc.a(lib_a-vfiprintf.o)
 .data          0x00000000101e3d60        0x0 /home/src/arm/target/bin/../arm-none-eabi/lib//libc.a(lib_a-vfprintf.o)
 .data          0x00000000101e3d60        0x0 /home/src/arm/target/bin/../arm-none-eabi/lib//libc.a(lib_a-vprintf.o)
 .data          0x00000000101e3d60        0x0 /home/src/arm/target/bin/../arm-none-eabi/lib//libc.a(lib_a-wbuf.o)
 .data          0x00000000101e3d60        0x0 /home/src/arm/target/bin/../arm-none-eabi/lib//libc.a(lib_a-wsetup.o)
 .data          0x00000000101e3d60        0x0 /home/src/arm/target/bin/../arm-none-eabi/lib//libc.a(lib_a-abort.o)
 .data          0x00000000101e3d60        0x4 /home/src/arm/target/bin/../arm-none-eabi/lib//libc.a(lib_a-ctype_.o)
                0x00000000101e3d60                __ctype_ptr__
 .data          0x00000000101e3d64        0x0 /home/src/arm/target/bin/../arm-none-eabi/lib//libc.a(lib_a-dtoa.o)
 .data          0x00000000101e3d64        0x0 /home/src/arm/target/bin/../arm-none-eabi/lib//libc.a(lib_a-errno.o)
 .data          0x00000000101e3d64        0x0 /home/src/arm/target/bin/../arm-none-eabi/lib//libc.a(lib_a-fflush.o)
 .data          0x00000000101e3d64        0x0 /home/src/arm/target/bin/../arm-none-eabi/lib//libc.a(lib_a-findfp.o)
 .data          0x00000000101e3d64        0x0 /home/src/arm/target/bin/../arm-none-eabi/lib//libc.a(lib_a-fputwc.o)
 .data          0x00000000101e3d64        0x0 /home/src/arm/target/bin/../arm-none-eabi/lib//libc.a(lib_a-freer.o)
 .data          0x00000000101e3d64        0x0 /home/src/arm/target/bin/../arm-none-eabi/lib//libc.a(lib_a-fvwrite.o)
 .data          0x00000000101e3d64        0x0 /home/src/arm/target/bin/../arm-none-eabi/lib//libc.a(lib_a-fwalk.o)
 .data          0x00000000101e3d64       0x7c /home/src/arm/target/bin/../arm-none-eabi/lib//libc.a(lib_a-locale.o)
                0x00000000101e3d84                __mb_cur_max
 .data          0x00000000101e3de0        0x0 /home/src/arm/target/bin/../arm-none-eabi/lib//libc.a(lib_a-makebuf.o)
 .data          0x00000000101e3de0        0x0 /home/src/arm/target/bin/../arm-none-eabi/lib//libc.a(lib_a-memchr-stub.o)
 .data          0x00000000101e3de0        0x0 /home/src/arm/target/bin/../arm-none-eabi/lib//libc.a(lib_a-memmove.o)
 .data          0x00000000101e3de0        0x0 /home/src/arm/target/bin/../arm-none-eabi/lib//libc.a(lib_a-mprec.o)
 .data          0x00000000101e3de0        0x0 /home/src/arm/target/bin/../arm-none-eabi/lib//libc.a(lib_a-reent.o)
 .data          0x00000000101e3de0        0x0 /home/src/arm/target/bin/../arm-none-eabi/lib//libc.a(lib_a-refill.o)
 .data          0x00000000101e3de0        0x0 /home/src/arm/target/bin/../arm-none-eabi/lib//libc.a(lib_a-s_fpclassify.o)
 .data          0x00000000101e3de0        0x0 /home/src/arm/target/bin/../arm-none-eabi/lib//libc.a(lib_a-signal.o)
 .data          0x00000000101e3de0        0x0 /home/src/arm/target/bin/../arm-none-eabi/lib//libc.a(lib_a-signalr.o)
 .data          0x00000000101e3de0        0x0 /home/src/arm/target/bin/../arm-none-eabi/lib//libc.a(lib_a-stdio.o)
 .data          0x00000000101e3de0        0x0 /home/src/arm/target/bin/../arm-none-eabi/lib//libc.a(lib_a-svfiprintf.o)
 .data          0x00000000101e3de0        0x0 /home/src/arm/target/bin/../arm-none-eabi/lib//libc.a(lib_a-wcrtomb.o)
 .data          0x00000000101e3de0        0x4 /home/src/arm/target/bin/../arm-none-eabi/lib//libc.a(lib_a-wctomb_r.o)
                0x00000000101e3de0                __wctomb
 .data          0x00000000101e3de4        0x0 /home/src/arm/target/bin/../arm-none-eabi/lib//libc.a(lib_a-writer.o)
 .data          0x00000000101e3de4        0x0 /home/src/arm/target/bin/../arm-none-eabi/lib//libc.a(lib_a-callocr.o)
 .data          0x00000000101e3de4        0x0 /home/src/arm/target/bin/../arm-none-eabi/lib//libc.a(lib_a-closer.o)
 .data          0x00000000101e3de4        0x0 /home/src/arm/target/bin/../arm-none-eabi/lib//libc.a(lib_a-fclose.o)
 .data          0x00000000101e3de4        0x0 /home/src/arm/target/bin/../arm-none-eabi/lib//libc.a(lib_a-fstatr.o)
 .data          0x00000000101e3de4        0x0 /home/src/arm/target/bin/../arm-none-eabi/lib//libc.a(lib_a-isattyr.o)
 .data          0x00000000101e3de4        0x0 /home/src/arm/target/bin/../arm-none-eabi/lib//libc.a(lib_a-lseekr.o)
 .data          0x00000000101e3de4        0x0 /home/src/arm/target/bin/../arm-none-eabi/lib//libc.a(lib_a-readr.o)
 .data          0x00000000101e3de4        0x0 /home/src/arm/target/bin/../lib/gcc/arm-none-eabi/4.8.2//libgcc.a(_udivsi3.o)
 .data          0x00000000101e3de4        0x0 /home/src/arm/target/bin/../lib/gcc/arm-none-eabi/4.8.2//libgcc.a(_divsi3.o)
 .data          0x00000000101e3de4        0x0 /home/src/arm/target/bin/../lib/gcc/arm-none-eabi/4.8.2//libgcc.a(_dvmd_tls.o)
 .data          0x00000000101e3de4        0x0 /home/src/arm/target/bin/../lib/gcc/arm-none-eabi/4.8.2//libgcc.a(_arm_addsubdf3.o)
 .data          0x00000000101e3de4        0x0 /home/src/arm/target/bin/../lib/gcc/arm-none-eabi/4.8.2//libgcc.a(_arm_muldivdf3.o)
 .data          0x00000000101e3de4        0x0 /home/src/arm/target/bin/../lib/gcc/arm-none-eabi/4.8.2//libgcc.a(_arm_cmpdf2.o)
 .data          0x00000000101e3de4        0x0 /home/src/arm/target/bin/../lib/gcc/arm-none-eabi/4.8.2//libgcc.a(_arm_fixdfsi.o)
 .data          0x00000000101e3de4        0x0 /home/src/arm/target/bin/../lib/gcc/arm-none-eabi/4.8.2//libgcc.a(_aeabi_uldivmod.o)
 .data          0x00000000101e3de4        0x0 /home/src/arm/target/bin/../lib/gcc/arm-none-eabi/4.8.2//libgcc.a(bpabi.o)
 .data          0x00000000101e3de4        0x0 /home/src/arm/target/bin/../lib/gcc/arm-none-eabi/4.8.2//libgcc.a(_divdi3.o)
 .data          0x00000000101e3de4        0x0 /home/src/arm/target/bin/../lib/gcc/arm-none-eabi/4.8.2//libgcc.a(_udivdi3.o)
 .data          0x00000000101e3de4        0x0 /home/src/arm/target/bin/../lib/gcc/arm-none-eabi/4.8.2//libgcc.a(_clzsi2.o)

.jcr            0x00000000101e3de4        0x4
 .jcr           0x00000000101e3de4        0x0 /home/src/arm/target/bin/../lib/gcc/arm-none-eabi/4.8.2//crtbegin.o
 .jcr           0x00000000101e3de4        0x4 /home/src/arm/target/bin/../lib/gcc/arm-none-eabi/4.8.2//crtend.o

.tm_clone_table
                0x00000000101e3de8        0x0
 .tm_clone_table
                0x00000000101e3de8        0x0 /home/src/arm/target/bin/../lib/gcc/arm-none-eabi/4.8.2//crtbegin.o
 .tm_clone_table
                0x00000000101e3de8        0x0 /home/src/arm/target/bin/../lib/gcc/arm-none-eabi/4.8.2//crtend.o

.igot.plt       0x00000000101e3de8        0x0
 .igot.plt      0x0000000000000000        0x0 /home/src/arm/target/bin/../lib/gcc/arm-none-eabi/4.8.2//crtbegin.o

.hab.data       0x0000000010400000     0x2000
                0x0000000010400000                __hab_data = .
                0x0000000010402000                . = (. + 0x2000)
 *fill*         0x0000000010400000     0x2000 
                0x0000000010402000                . = ALIGN (0x20)
                0x0000000010402000                __hab_data_end = .
                0x0000000000402000                _image_size = (. - _start_image_add)

.bss            0x0000000010402000   0x121448
                0x0000000010402000                __bss_start__ = .
 *(.shbss)
 *(.bss .bss.* .gnu.linkonce.b.*)
 .bss           0x0000000010402000       0x1c /home/src/arm/target/bin/../lib/gcc/arm-none-eabi/4.8.2//crtbegin.o
 .bss           0x000000001040201c        0x0 /home/src/arm/target/bin/../lib/gcc/arm-none-eabi/4.8.2//crti.o
 .bss           0x000000001040201c        0x0 /home/src/arm/target/bin/../lib/gcc/arm-none-eabi/4.8.2//crtend.o
 .bss           0x000000001040201c        0x0 /home/src/arm/target/bin/../lib/gcc/arm-none-eabi/4.8.2//crtn.o
 .bss           0x000000001040201c        0x0 /home/leon/git/swp-report/iMX6_Platform_SDK/output/mx6sdl/obds/smart_device_rev_a/obj/apps/common/ivt.o
 .bss           0x000000001040201c        0x0 /home/leon/git/swp-report/iMX6_Platform_SDK/output/mx6sdl/obds/smart_device_rev_a/obj/apps/common/platform_init.o
 .bss           0x000000001040201c        0x0 /home/leon/git/swp-report/iMX6_Platform_SDK/output/mx6sdl/obds/smart_device_rev_a/obj/apps/common/print_clock_info.o
 .bss           0x000000001040201c        0x0 /home/leon/git/swp-report/iMX6_Platform_SDK/output/mx6sdl/obds/smart_device_rev_a/obj/apps/common/print_version.o
 .bss           0x000000001040201c      0x7d4 /home/leon/git/swp-report/iMX6_Platform_SDK/output/mx6sdl/obds/smart_device_rev_a/obj/apps/obds/src/obds.o
                0x000000001040201c                total_tests
                0x0000000010402020                main_menuitems
                0x00000000104024d0                obds_tests
 .bss           0x00000000104027f0        0x0 /home/leon/git/swp-report/iMX6_Platform_SDK/output/mx6sdl/obds/smart_device_rev_a/obj/apps/obds/src/obds_utils.o
 .bss           0x00000000104027f0        0x0 /home/leon/git/swp-report/iMX6_Platform_SDK/output/mx6sdl/obds/smart_device_rev_a/obj/apps/obds/src/tests/android_buttons_test.o
 .bss           0x00000000104027f0        0x0 /home/leon/git/swp-report/iMX6_Platform_SDK/output/mx6sdl/obds/smart_device_rev_a/obj/apps/obds/src/tests/audio_esai_test.o
 .bss           0x00000000104027f0   0x100004 /home/leon/git/swp-report/iMX6_Platform_SDK/output/mx6sdl/obds/smart_device_rev_a/obj/apps/obds/src/tests/audio_ssi_test.o
                0x00000000104027f0                audio_record_buf
                0x00000000105027f0                snd_card
 .bss           0x00000000105027f4        0x0 /home/leon/git/swp-report/iMX6_Platform_SDK/output/mx6sdl/obds/smart_device_rev_a/obj/apps/obds/src/tests/ddr_test.o
 .bss           0x00000000105027f4        0x4 /home/leon/git/swp-report/iMX6_Platform_SDK/output/mx6sdl/obds/smart_device_rev_a/obj/apps/obds/src/tests/deserializer_ds90ur124.o
                0x00000000105027f4                ds90ur124_test_enable
 .bss           0x00000000105027f8       0x70 /home/leon/git/swp-report/iMX6_Platform_SDK/output/mx6sdl/obds/smart_device_rev_a/obj/apps/obds/src/tests/display_test.o
                0x00000000105027f8                panel_name
                0x0000000010502818                ipu_display_panel
 .bss           0x0000000010502868     0x1028 /home/leon/git/swp-report/iMX6_Platform_SDK/output/mx6sdl/obds/smart_device_rev_a/obj/apps/obds/src/tests/enet_mx6dldq_test.o
 .bss           0x0000000010503890        0x0 /home/leon/git/swp-report/iMX6_Platform_SDK/output/mx6sdl/obds/smart_device_rev_a/obj/apps/obds/src/tests/flexcan_test.o
 .bss           0x0000000010503890       0x28 /home/leon/git/swp-report/iMX6_Platform_SDK/output/mx6sdl/obds/smart_device_rev_a/obj/apps/obds/src/tests/fm_tuner_si476x_test.o
                0x0000000010503890                si476x_i2c_req
                0x00000000105038b4                si476x_test_enable
 .bss           0x00000000105038b8        0x0 /home/leon/git/swp-report/iMX6_Platform_SDK/output/mx6sdl/obds/smart_device_rev_a/obj/apps/obds/src/tests/gpio_led.o
 .bss           0x00000000105038b8        0x4 /home/leon/git/swp-report/iMX6_Platform_SDK/output/mx6sdl/obds/smart_device_rev_a/obj/apps/obds/src/tests/gps_test.o
                0x00000000105038b8                gps_test_enable
 .bss           0x00000000105038bc        0x0 /home/leon/git/swp-report/iMX6_Platform_SDK/output/mx6sdl/obds/smart_device_rev_a/obj/apps/obds/src/tests/i2c_check_light_sensor_isl29023.o
 .bss           0x00000000105038bc        0x0 /home/leon/git/swp-report/iMX6_Platform_SDK/output/mx6sdl/obds/smart_device_rev_a/obj/apps/obds/src/tests/i2c_device_barometer_ppl3115.o
 .bss           0x00000000105038bc        0x0 /home/leon/git/swp-report/iMX6_Platform_SDK/output/mx6sdl/obds/smart_device_rev_a/obj/apps/obds/src/tests/i2c_device_check_cs42888.o
 .bss           0x00000000105038bc        0x0 /home/leon/git/swp-report/iMX6_Platform_SDK/output/mx6sdl/obds/smart_device_rev_a/obj/apps/obds/src/tests/i2c_device_digital_compass_mag3110.o
 .bss           0x00000000105038bc        0x0 /home/leon/git/swp-report/iMX6_Platform_SDK/output/mx6sdl/obds/smart_device_rev_a/obj/apps/obds/src/tests/i2c_device_digital_compass_mag3112.o
 .bss           0x00000000105038bc        0x0 /home/leon/git/swp-report/iMX6_Platform_SDK/output/mx6sdl/obds/smart_device_rev_a/obj/apps/obds/src/tests/i2c_device_id_check_mma8450.o
 .bss           0x00000000105038bc        0x0 /home/leon/git/swp-report/iMX6_Platform_SDK/output/mx6sdl/obds/smart_device_rev_a/obj/apps/obds/src/tests/i2c_device_id_check_mma8451.o
 .bss           0x00000000105038bc        0x8 /home/leon/git/swp-report/iMX6_Platform_SDK/output/mx6sdl/obds/smart_device_rev_a/obj/apps/obds/src/tests/i2c_device_id_check_p1003_tsc.o
 .bss           0x00000000105038c4        0x0 /home/leon/git/swp-report/iMX6_Platform_SDK/output/mx6sdl/obds/smart_device_rev_a/obj/apps/obds/src/tests/i2c_device_temp_sensor_emc1046.o
 .bss           0x00000000105038c4        0x4 /home/leon/git/swp-report/iMX6_Platform_SDK/output/mx6sdl/obds/smart_device_rev_a/obj/apps/obds/src/tests/i2c_device_zigbee_mc1323.o
                0x00000000105038c4                buf
 .bss           0x00000000105038c8        0x4 /home/leon/git/swp-report/iMX6_Platform_SDK/output/mx6sdl/obds/smart_device_rev_a/obj/apps/obds/src/tests/i2c_eeprom_at24cxx_test.o
                0x00000000105038c8                eeprom_test_enable
 .bss           0x00000000105038cc      0x408 /home/leon/git/swp-report/iMX6_Platform_SDK/output/mx6sdl/obds/smart_device_rev_a/obj/apps/obds/src/tests/imx_spi_nor_test.o
                0x00000000105038cc                spi_nor_flash_type
                0x00000000105038d0                dev_spi_nor
                0x00000000105038d4                spi_nor_tx_buf
                0x0000000010503ad4                spi_nor_rx_buf
 .bss           0x0000000010503cd4       0x28 /home/leon/git/swp-report/iMX6_Platform_SDK/output/mx6sdl/obds/smart_device_rev_a/obj/apps/obds/src/tests/mlb_os81050.o
                0x0000000010503cf8                mlb_os81050_test_enable
 .bss           0x0000000010503cfc        0xc /home/leon/git/swp-report/iMX6_Platform_SDK/output/mx6sdl/obds/smart_device_rev_a/obj/apps/obds/src/tests/mmcsd_test.o
                0x0000000010503cfc                SDHC_UHSI_mode
                0x0000000010503d00                mmcsd_bus_width
                0x0000000010503d04                instance
 .bss           0x0000000010503d08        0x0 /home/leon/git/swp-report/iMX6_Platform_SDK/output/mx6sdl/obds/smart_device_rev_a/obj/apps/obds/src/tests/pmic_da9053.o
 .bss           0x0000000010503d08        0x0 /home/leon/git/swp-report/iMX6_Platform_SDK/output/mx6sdl/obds/smart_device_rev_a/obj/apps/obds/src/tests/pmic_lt3589.o
 .bss           0x0000000010503d08        0x0 /home/leon/git/swp-report/iMX6_Platform_SDK/output/mx6sdl/obds/smart_device_rev_a/obj/apps/obds/src/tests/pmic_max17135.o
 .bss           0x0000000010503d08        0x4 /home/leon/git/swp-report/iMX6_Platform_SDK/output/mx6sdl/obds/smart_device_rev_a/obj/apps/obds/src/tests/pmic_mc13892.o
                0x0000000010503d08                pmic_mc13892_reg
 .bss           0x0000000010503d0c        0x0 /home/leon/git/swp-report/iMX6_Platform_SDK/output/mx6sdl/obds/smart_device_rev_a/obj/apps/obds/src/tests/program_board_id.o
 .bss           0x0000000010503d0c       0x14 /home/leon/git/swp-report/iMX6_Platform_SDK/output/mx6sdl/obds/smart_device_rev_a/obj/apps/obds/src/tests/program_mac_address.o
 .bss           0x0000000010503d20        0x0 /home/leon/git/swp-report/iMX6_Platform_SDK/output/mx6sdl/obds/smart_device_rev_a/obj/apps/obds/src/tests/snvs_srtc_test.o
 .bss           0x0000000010503d20        0x0 /home/leon/git/swp-report/iMX6_Platform_SDK/output/mx6sdl/obds/smart_device_rev_a/obj/apps/obds/src/tests/touch_button_test.o
 .bss           0x0000000010503d20        0x4 /home/leon/git/swp-report/iMX6_Platform_SDK/output/mx6sdl/obds/smart_device_rev_a/obj/apps/obds/src/tests/touch_screen.o
                0x0000000010503d20                pen_status
 .bss           0x0000000010503d24        0x0 /home/leon/git/swp-report/iMX6_Platform_SDK/output/mx6sdl/obds/smart_device_rev_a/obj/apps/obds/src/tests/touch_screen_max11801.o
 .bss           0x0000000010503d24        0x0 /home/leon/git/swp-report/iMX6_Platform_SDK/output/mx6sdl/obds/smart_device_rev_a/obj/apps/obds/src/tests/usb_tests_obds.o
 .bss           0x0000000010503d24        0x0 /home/leon/git/swp-report/iMX6_Platform_SDK/output/mx6sdl/obds/smart_device_rev_a/obj/apps/obds/src/tests/video_dec_ARD_MB_reset_button.o
 .bss           0x0000000010503d24        0x0 /home/leon/git/swp-report/iMX6_Platform_SDK/output/mx6sdl/obds/smart_device_rev_a/obj/apps/obds/src/tests/video_dec_ARD_MBrst_from_cpu_expander.o
 .bss           0x0000000010503d24       0x24 /home/leon/git/swp-report/iMX6_Platform_SDK/output/mx6sdl/obds/smart_device_rev_a/obj/apps/obds/src/tests/video_dec_adv7180.o
 .bss           0x0000000010503d48        0x0 /home/leon/git/swp-report/iMX6_Platform_SDK/output/mx6sdl/obds/smart_device_rev_a/obj/apps/obds/src/tests/weim_nor_flash_test.o
 .bss           0x0000000010503d48        0x0 /home/leon/git/swp-report/iMX6_Platform_SDK/output/mx6sdl/obds/smart_device_rev_a/obj/sdk/common/ioexpander/test/max7310_test.o
 .bss           0x0000000010503d48        0x0 /home/leon/git/swp-report/iMX6_Platform_SDK/output/mx6sdl/obds/smart_device_rev_a/obj/sdk/common/pmic/pfuse/pf0100.o
 .bss           0x0000000010503d48        0x0 /home/leon/git/swp-report/iMX6_Platform_SDK/output/mx6sdl/obds/smart_device_rev_a/obj/sdk/drivers/audio/src/snd_card.o
 .bss           0x0000000010503d48        0x0 /home/leon/git/swp-report/iMX6_Platform_SDK/output/mx6sdl/obds/smart_device_rev_a/obj/sdk/drivers/camera/test/adv7180_capture.o
 .bss           0x0000000010503d48        0x0 /home/leon/git/swp-report/iMX6_Platform_SDK/output/mx6sdl/obds/smart_device_rev_a/obj/sdk/drivers/camera/test/camera_test.o
 .bss           0x0000000010503d48        0x0 /home/leon/git/swp-report/iMX6_Platform_SDK/output/mx6sdl/obds/smart_device_rev_a/obj/sdk/drivers/camera/test/csi_test_mode.o
 .bss           0x0000000010503d48        0x0 /home/leon/git/swp-report/iMX6_Platform_SDK/output/mx6sdl/obds/smart_device_rev_a/obj/sdk/drivers/camera/test/sensor_capture.o
 .bss           0x0000000010503d48        0x4 /home/leon/git/swp-report/iMX6_Platform_SDK/output/mx6sdl/obds/smart_device_rev_a/obj/sdk/drivers/epdc/test/epdc_test.o
 .bss           0x0000000010503d4c        0x0 /home/leon/git/swp-report/iMX6_Platform_SDK/output/mx6sdl/obds/smart_device_rev_a/obj/sdk/drivers/hdmi/test/hdmi_test.o
 .bss           0x0000000010503d4c        0x0 /home/leon/git/swp-report/iMX6_Platform_SDK/output/mx6sdl/obds/smart_device_rev_a/obj/sdk/drivers/hdmi/test/init_dma_data.o
 .bss           0x0000000010503d4c        0x0 /home/leon/git/swp-report/iMX6_Platform_SDK/output/mx6sdl/obds/smart_device_rev_a/obj/sdk/drivers/ipu/test/ips_display.o
 .bss           0x0000000010503d4c        0x0 /home/leon/git/swp-report/iMX6_Platform_SDK/output/mx6sdl/obds/smart_device_rev_a/obj/sdk/drivers/ipu/test/ipu_image.o
 .bss           0x0000000010503d4c      0x400 /home/leon/git/swp-report/iMX6_Platform_SDK/output/mx6sdl/obds/smart_device_rev_a/obj/sdk/drivers/spi/test/imx_spi_nor_atmel.o
 .bss           0x000000001050414c      0x400 /home/leon/git/swp-report/iMX6_Platform_SDK/output/mx6sdl/obds/smart_device_rev_a/obj/sdk/drivers/spi/test/spi_nor_numonyx.o
 .bss           0x000000001050454c        0x1 /home/leon/git/swp-report/iMX6_Platform_SDK/output/mx6sdl/obds/smart_device_rev_a/obj/sdk/drivers/uart/test/uart_test.o
 *fill*         0x000000001050454d      0xab3 
 .bss           0x0000000010505000     0x1000 /home/leon/git/swp-report/iMX6_Platform_SDK/output/mx6sdl/obds/smart_device_rev_a/obj/sdk/drivers/usb/test/usb0_host_test.o
                0x0000000010505000                frame_list
 .bss           0x0000000010506000        0x0 /home/leon/git/swp-report/iMX6_Platform_SDK/output/mx6sdl/obds/smart_device_rev_a/obj/sdk/drivers/usb/test/usb0_host_testmodes_test.o
 .bss           0x0000000010506000    0x17d00 /home/leon/git/swp-report/iMX6_Platform_SDK/output/mx6sdl/obds/smart_device_rev_a/obj/sdk/drivers/usdhc/test/usdhc_test.o
 .bss           0x000000001051dd00        0x4 /home/leon/git/swp-report/iMX6_Platform_SDK/output/mx6sdl/lib/libsdk.a(max7310.o)
 .bss           0x000000001051dd04        0x0 /home/leon/git/swp-report/iMX6_Platform_SDK/output/mx6sdl/lib/libsdk.a(ccm_pll.o)
 .bss           0x000000001051dd04        0x0 /home/leon/git/swp-report/iMX6_Platform_SDK/output/mx6sdl/lib/libsdk.a(cortexA9.o)
 .bss           0x000000001051dd04        0x0 /home/leon/git/swp-report/iMX6_Platform_SDK/output/mx6sdl/lib/libsdk.a(gic.o)
 .bss           0x000000001051dd04      0x290 /home/leon/git/swp-report/iMX6_Platform_SDK/output/mx6sdl/lib/libsdk.a(interrupt.o)
                0x000000001051dd04                g_interrupt_handlers
                0x000000001051df84                g_vectNum
 .bss           0x000000001051df94        0x0 /home/leon/git/swp-report/iMX6_Platform_SDK/output/mx6sdl/lib/libsdk.a(mmu.o)
 .bss           0x000000001051df94        0x0 /home/leon/git/swp-report/iMX6_Platform_SDK/output/mx6sdl/lib/libsdk.a(startup.o)
 .bss           0x000000001051df94        0x0 /home/leon/git/swp-report/iMX6_Platform_SDK/output/mx6sdl/lib/libsdk.a(vectors.o)
 .bss           0x000000001051df94       0x7c /home/leon/git/swp-report/iMX6_Platform_SDK/output/mx6sdl/lib/libsdk.a(menu.o)
 .bss           0x000000001051e010        0x0 /home/leon/git/swp-report/iMX6_Platform_SDK/output/mx6sdl/lib/libsdk.a(sdk_version.o)
 .bss           0x000000001051e010        0x0 /home/leon/git/swp-report/iMX6_Platform_SDK/output/mx6sdl/lib/libsdk.a(system_util.o)
 .bss           0x000000001051e010        0x0 /home/leon/git/swp-report/iMX6_Platform_SDK/output/mx6sdl/lib/libsdk.a(text_color.o)
 .bss           0x000000001051e010       0x24 /home/leon/git/swp-report/iMX6_Platform_SDK/output/mx6sdl/lib/libsdk.a(cs42888.o)
                0x000000001051e010                cs42888_i2c_req
 .bss           0x000000001051e034        0x0 /home/leon/git/swp-report/iMX6_Platform_SDK/output/mx6sdl/lib/libsdk.a(imx-ssi.o)
 .bss           0x000000001051e034        0x0 /home/leon/git/swp-report/iMX6_Platform_SDK/output/mx6sdl/lib/libsdk.a(imx_audmux.o)
 .bss           0x000000001051e034        0x0 /home/leon/git/swp-report/iMX6_Platform_SDK/output/mx6sdl/lib/libsdk.a(imx_esai.o)
 .bss           0x000000001051e034        0x0 /home/leon/git/swp-report/iMX6_Platform_SDK/output/mx6sdl/lib/libsdk.a(imx_spdif.o)
 .bss           0x000000001051e034       0x28 /home/leon/git/swp-report/iMX6_Platform_SDK/output/mx6sdl/lib/libsdk.a(sgtl5000.o)
                0x000000001051e034                sgtl5000_i2c_req
 .bss           0x000000001051e05c       0x24 /home/leon/git/swp-report/iMX6_Platform_SDK/output/mx6sdl/lib/libsdk.a(wm8958_dac.o)
                0x000000001051e05c                wm8958_i2c_req
 .bss           0x000000001051e080       0x24 /home/leon/git/swp-report/iMX6_Platform_SDK/output/mx6sdl/lib/libsdk.a(wm8962.o)
                0x000000001051e080                wm8962_i2c_req
 .bss           0x000000001051e0a4        0x0 /home/leon/git/swp-report/iMX6_Platform_SDK/output/mx6sdl/lib/libsdk.a(board_id.o)
 .bss           0x000000001051e0a4        0x0 /home/leon/git/swp-report/iMX6_Platform_SDK/output/mx6sdl/lib/libsdk.a(smd_sensor.o)
 *fill*         0x000000001051e0a4       0x1c 
 .bss           0x000000001051e0c0     0x5060 /home/leon/git/swp-report/iMX6_Platform_SDK/output/mx6sdl/lib/libsdk.a(enet_drv.o)
 .bss           0x0000000010523120        0x0 /home/leon/git/swp-report/iMX6_Platform_SDK/output/mx6sdl/lib/libsdk.a(mxc_epdc.o)
 .bss           0x0000000010523120        0x0 /home/leon/git/swp-report/iMX6_Platform_SDK/output/mx6sdl/lib/libsdk.a(gpio.o)
 .bss           0x0000000010523120        0x0 /home/leon/git/swp-report/iMX6_Platform_SDK/output/mx6sdl/lib/libsdk.a(imx6sdl_gpio_map.o)
 .bss           0x0000000010523120        0x0 /home/leon/git/swp-report/iMX6_Platform_SDK/output/mx6sdl/lib/libsdk.a(hdmi_tx.o)
 .bss           0x0000000010523120        0x0 /home/leon/git/swp-report/iMX6_Platform_SDK/output/mx6sdl/lib/libsdk.a(hdmi_tx_audio.o)
 .bss           0x0000000010523120        0x0 /home/leon/git/swp-report/iMX6_Platform_SDK/output/mx6sdl/lib/libsdk.a(hdmi_tx_phy.o)
 .bss           0x0000000010523120        0x0 /home/leon/git/swp-report/iMX6_Platform_SDK/output/mx6sdl/lib/libsdk.a(imx_i2c.o)
 .bss           0x0000000010523120        0x0 /home/leon/git/swp-report/iMX6_Platform_SDK/output/mx6sdl/lib/libsdk.a(ips_disp_panel.o)
 .bss           0x0000000010523120       0x10 /home/leon/git/swp-report/iMX6_Platform_SDK/output/mx6sdl/lib/libsdk.a(ipu_common.o)
                0x0000000010523120                csi_vdi_direct_path
                0x0000000010523124                csi_dma_band_mode
 .bss           0x0000000010523130        0x0 /home/leon/git/swp-report/iMX6_Platform_SDK/output/mx6sdl/lib/libsdk.a(ipu_csi.o)
 .bss           0x0000000010523130        0x0 /home/leon/git/swp-report/iMX6_Platform_SDK/output/mx6sdl/lib/libsdk.a(ipu_dc.o)
 .bss           0x0000000010523130        0x0 /home/leon/git/swp-report/iMX6_Platform_SDK/output/mx6sdl/lib/libsdk.a(ipu_di.o)
 .bss           0x0000000010523130        0x0 /home/leon/git/swp-report/iMX6_Platform_SDK/output/mx6sdl/lib/libsdk.a(ipu_dmfc.o)
 .bss           0x0000000010523130        0x0 /home/leon/git/swp-report/iMX6_Platform_SDK/output/mx6sdl/lib/libsdk.a(ipu_dp.o)
 .bss           0x0000000010523130        0x0 /home/leon/git/swp-report/iMX6_Platform_SDK/output/mx6sdl/lib/libsdk.a(ipu_idmac.o)
 .bss           0x0000000010523130        0x0 /home/leon/git/swp-report/iMX6_Platform_SDK/output/mx6sdl/lib/libsdk.a(ipu_vdi.o)
 .bss           0x0000000010523130        0x0 /home/leon/git/swp-report/iMX6_Platform_SDK/output/mx6sdl/lib/libsdk.a(ldb.o)
 .bss           0x0000000010523130        0x0 /home/leon/git/swp-report/iMX6_Platform_SDK/output/mx6sdl/lib/libsdk.a(ocotp.o)
 .bss           0x0000000010523130        0x0 /home/leon/git/swp-report/iMX6_Platform_SDK/output/mx6sdl/lib/libsdk.a(ecspi.o)
 .bss           0x0000000010523130        0x4 /home/leon/git/swp-report/iMX6_Platform_SDK/output/mx6sdl/lib/libsdk.a(timer.o)
                0x0000000010523130                g_microsecondTimerMultiple
 .bss           0x0000000010523134        0x0 /home/leon/git/swp-report/iMX6_Platform_SDK/output/mx6sdl/lib/libsdk.a(imx_uart.o)
 .bss           0x0000000010523134        0x0 /home/leon/git/swp-report/iMX6_Platform_SDK/output/mx6sdl/lib/libsdk.a(usb_common.o)
 .bss           0x0000000010523134        0x0 /home/leon/git/swp-report/iMX6_Platform_SDK/output/mx6sdl/lib/libsdk.a(usbh_drv.o)
 .bss           0x0000000010523134        0x8 /home/leon/git/swp-report/iMX6_Platform_SDK/output/mx6sdl/lib/libsdk.a(usdhc.o)
 .bss           0x000000001052313c        0x0 /home/leon/git/swp-report/iMX6_Platform_SDK/output/mx6sdl/lib/libsdk.a(usdhc_host.o)
 .bss           0x000000001052313c      0x214 /home/leon/git/swp-report/iMX6_Platform_SDK/output/mx6sdl/lib/libsdk.a(usdhc_mmc.o)
 .bss           0x0000000010523350        0x0 /home/leon/git/swp-report/iMX6_Platform_SDK/output/mx6sdl/lib/libsdk.a(usdhc_sd.o)
 .bss           0x0000000010523350        0x0 /home/leon/git/swp-report/iMX6_Platform_SDK/output/mx6sdl/lib/libsdk.a(arm_abort.o)
 .bss           0x0000000010523350        0x0 /home/leon/git/swp-report/iMX6_Platform_SDK/output/mx6sdl/lib/libsdk.a(armv7_cache.o)
 .bss           0x0000000010523350        0x0 /home/leon/git/swp-report/iMX6_Platform_SDK/output/mx6sdl/lib/libsdk.a(camera_profile.o)
 .bss           0x0000000010523350        0x0 /home/leon/git/swp-report/iMX6_Platform_SDK/output/mx6sdl/lib/libsdk.a(hdmi_common.o)
 .bss           0x0000000010523350        0x0 /home/leon/git/swp-report/iMX6_Platform_SDK/output/mx6sdl/lib/libsdk.a(ipu_ic.o)
 .bss           0x0000000010523350        0x0 /home/leon/git/swp-report/iMX6_Platform_SDK/output/mx6sdl/lib/libsdk.a(epit.o)
 .bss           0x0000000010523350        0x0 /home/leon/git/swp-report/iMX6_Platform_SDK/output/mx6sdl/lib/libsdk.a(mx6x_usb.o)
 .bss           0x0000000010523350        0x0 /home/leon/git/swp-report/iMX6_Platform_SDK/output/mx6sdl/lib/libsdk.a(abort_handler.o)
 .bss           0x0000000010523350        0x0 /home/leon/git/swp-report/iMX6_Platform_SDK/output/mx6sdl/lib/libboard_smart_device_rev_a.a(board_audio.o)
 .bss           0x0000000010523350        0x0 /home/leon/git/swp-report/iMX6_Platform_SDK/output/mx6sdl/lib/libboard_smart_device_rev_a.a(board_buttons.o)
 .bss           0x0000000010523350        0x0 /home/leon/git/swp-report/iMX6_Platform_SDK/output/mx6sdl/lib/libboard_smart_device_rev_a.a(board_camera.o)
 .bss           0x0000000010523350        0x0 /home/leon/git/swp-report/iMX6_Platform_SDK/output/mx6sdl/lib/libboard_smart_device_rev_a.a(board_display.o)
 .bss           0x0000000010523350        0x0 /home/leon/git/swp-report/iMX6_Platform_SDK/output/mx6sdl/lib/libboard_smart_device_rev_a.a(board_hdmi.o)
 .bss           0x0000000010523350        0x0 /home/leon/git/swp-report/iMX6_Platform_SDK/output/mx6sdl/lib/libboard_smart_device_rev_a.a(board_i2c.o)
 .bss           0x0000000010523350        0x4 /home/leon/git/swp-report/iMX6_Platform_SDK/output/mx6sdl/lib/libboard_smart_device_rev_a.a(board_io_expanders.o)
                0x0000000010523350                max7310_i2c_req_array
 .bss           0x0000000010523354        0x0 /home/leon/git/swp-report/iMX6_Platform_SDK/output/mx6sdl/lib/libboard_smart_device_rev_a.a(board_mipi.o)
 .bss           0x0000000010523354        0x0 /home/leon/git/swp-report/iMX6_Platform_SDK/output/mx6sdl/lib/libboard_smart_device_rev_a.a(board_network.o)
 .bss           0x0000000010523354        0x0 /home/leon/git/swp-report/iMX6_Platform_SDK/output/mx6sdl/lib/libboard_smart_device_rev_a.a(board_usb.o)
 .bss           0x0000000010523354        0x0 /home/leon/git/swp-report/iMX6_Platform_SDK/output/mx6sdl/lib/libboard_smart_device_rev_a.a(board_usdhc.o)
 .bss           0x0000000010523354        0x0 /home/leon/git/swp-report/iMX6_Platform_SDK/output/mx6sdl/lib/libboard_smart_device_rev_a.a(hardware_modules.o)
 .bss           0x0000000010523354        0x0 /home/leon/git/swp-report/iMX6_Platform_SDK/output/mx6sdl/lib/libboard_smart_device_rev_a.a(dcd.o)
 .bss           0x0000000010523354        0x0 /home/leon/git/swp-report/iMX6_Platform_SDK/output/mx6sdl/lib/libboard_smart_device_rev_a.a(audmux_iomux_config.o)
 .bss           0x0000000010523354        0x0 /home/leon/git/swp-report/iMX6_Platform_SDK/output/mx6sdl/lib/libboard_smart_device_rev_a.a(ccm_iomux_config.o)
 .bss           0x0000000010523354        0x0 /home/leon/git/swp-report/iMX6_Platform_SDK/output/mx6sdl/lib/libboard_smart_device_rev_a.a(ecspi_iomux_config.o)
 .bss           0x0000000010523354        0x0 /home/leon/git/swp-report/iMX6_Platform_SDK/output/mx6sdl/lib/libboard_smart_device_rev_a.a(enet_iomux_config.o)
 .bss           0x0000000010523354        0x0 /home/leon/git/swp-report/iMX6_Platform_SDK/output/mx6sdl/lib/libboard_smart_device_rev_a.a(epdc_iomux_config.o)
 .bss           0x0000000010523354        0x0 /home/leon/git/swp-report/iMX6_Platform_SDK/output/mx6sdl/lib/libboard_smart_device_rev_a.a(i2c_iomux_config.o)
 .bss           0x0000000010523354        0x0 /home/leon/git/swp-report/iMX6_Platform_SDK/output/mx6sdl/lib/libboard_smart_device_rev_a.a(iomux_config.o)
 .bss           0x0000000010523354        0x0 /home/leon/git/swp-report/iMX6_Platform_SDK/output/mx6sdl/lib/libboard_smart_device_rev_a.a(ipu1_iomux_config.o)
 .bss           0x0000000010523354        0x0 /home/leon/git/swp-report/iMX6_Platform_SDK/output/mx6sdl/lib/libboard_smart_device_rev_a.a(ipu_iomux_config.o)
 .bss           0x0000000010523354        0x0 /home/leon/git/swp-report/iMX6_Platform_SDK/output/mx6sdl/lib/libboard_smart_device_rev_a.a(kpp_iomux_config.o)
 .bss           0x0000000010523354        0x0 /home/leon/git/swp-report/iMX6_Platform_SDK/output/mx6sdl/lib/libboard_smart_device_rev_a.a(mmdc_iomux_config.o)
 .bss           0x0000000010523354        0x0 /home/leon/git/swp-report/iMX6_Platform_SDK/output/mx6sdl/lib/libboard_smart_device_rev_a.a(pwm1_iomux_config.o)
 .bss           0x0000000010523354        0x0 /home/leon/git/swp-report/iMX6_Platform_SDK/output/mx6sdl/lib/libboard_smart_device_rev_a.a(sjc_iomux_config.o)
 .bss           0x0000000010523354        0x0 /home/leon/git/swp-report/iMX6_Platform_SDK/output/mx6sdl/lib/libboard_smart_device_rev_a.a(uart1_iomux_config.o)
 .bss           0x0000000010523354        0x0 /home/leon/git/swp-report/iMX6_Platform_SDK/output/mx6sdl/lib/libboard_smart_device_rev_a.a(uart_iomux_config.o)
 .bss           0x0000000010523354        0x0 /home/leon/git/swp-report/iMX6_Platform_SDK/output/mx6sdl/lib/libboard_smart_device_rev_a.a(usdhc2_iomux_config.o)
 .bss           0x0000000010523354        0x0 /home/leon/git/swp-report/iMX6_Platform_SDK/output/mx6sdl/lib/libboard_smart_device_rev_a.a(usdhc3_iomux_config.o)
 .bss           0x0000000010523354        0x0 /home/leon/git/swp-report/iMX6_Platform_SDK/output/mx6sdl/lib/libboard_smart_device_rev_a.a(usdhc4_iomux_config.o)
 .bss           0x0000000010523354        0x0 /home/leon/git/swp-report/iMX6_Platform_SDK/output/mx6sdl/lib/libboard_smart_device_rev_a.a(usdhc_iomux_config.o)
 .bss           0x0000000010523354        0x0 /home/leon/git/swp-report/iMX6_Platform_SDK/output/mx6sdl/lib/libboard_smart_device_rev_a.a(ecspi1_iomux_config.o)
 .bss           0x0000000010523354        0x0 /home/leon/git/swp-report/iMX6_Platform_SDK/output/mx6sdl/lib/libboard_smart_device_rev_a.a(flexcan1_iomux_config.o)
 .bss           0x0000000010523354        0x0 /home/leon/git/swp-report/iMX6_Platform_SDK/output/mx6sdl/lib/libboard_smart_device_rev_a.a(gpio1_iomux_config.o)
 .bss           0x0000000010523354        0x0 /home/leon/git/swp-report/iMX6_Platform_SDK/output/mx6sdl/lib/libboard_smart_device_rev_a.a(gpio2_iomux_config.o)
 .bss           0x0000000010523354        0x0 /home/leon/git/swp-report/iMX6_Platform_SDK/output/mx6sdl/lib/libboard_smart_device_rev_a.a(gpio3_iomux_config.o)
 .bss           0x0000000010523354        0x0 /home/leon/git/swp-report/iMX6_Platform_SDK/output/mx6sdl/lib/libboard_smart_device_rev_a.a(gpio4_iomux_config.o)
 .bss           0x0000000010523354        0x0 /home/leon/git/swp-report/iMX6_Platform_SDK/output/mx6sdl/lib/libboard_smart_device_rev_a.a(gpio5_iomux_config.o)
 .bss           0x0000000010523354        0x0 /home/leon/git/swp-report/iMX6_Platform_SDK/output/mx6sdl/lib/libboard_smart_device_rev_a.a(gpio6_iomux_config.o)
 .bss           0x0000000010523354        0x0 /home/leon/git/swp-report/iMX6_Platform_SDK/output/mx6sdl/lib/libboard_smart_device_rev_a.a(gpio7_iomux_config.o)
 .bss           0x0000000010523354        0x0 /home/leon/git/swp-report/iMX6_Platform_SDK/output/mx6sdl/lib/libboard_smart_device_rev_a.a(gps_iomux_config.o)
 .bss           0x0000000010523354        0x0 /home/leon/git/swp-report/iMX6_Platform_SDK/output/mx6sdl/lib/libboard_smart_device_rev_a.a(i2c1_iomux_config.o)
 .bss           0x0000000010523354        0x0 /home/leon/git/swp-report/iMX6_Platform_SDK/output/mx6sdl/lib/libboard_smart_device_rev_a.a(i2c2_iomux_config.o)
 .bss           0x0000000010523354        0x0 /home/leon/git/swp-report/iMX6_Platform_SDK/output/mx6sdl/lib/libboard_smart_device_rev_a.a(i2c3_iomux_config.o)
 .bss           0x0000000010523354        0x0 /home/src/arm/target/bin/../arm-none-eabi/lib//libc.a(lib_a-assert.o)
 .bss           0x0000000010523354        0x0 /home/src/arm/target/bin/../arm-none-eabi/lib//libc.a(lib_a-bzero.o)
 .bss           0x0000000010523354        0x0 /home/src/arm/target/bin/../arm-none-eabi/lib//libc.a(lib_a-fiprintf.o)
 .bss           0x0000000010523354        0x0 /home/src/arm/target/bin/../arm-none-eabi/lib//libc.a(lib_a-fputc.o)
 .bss           0x0000000010523354        0x0 /home/src/arm/target/bin/../arm-none-eabi/lib//libc.a(lib_a-impure.o)
 .bss           0x0000000010523354        0x0 /home/src/arm/target/bin/../arm-none-eabi/lib//libc.a(lib_a-init.o)
 .bss           0x0000000010523354        0x0 /home/src/arm/target/bin/../arm-none-eabi/lib//libc.a(lib_a-malloc.o)
 .bss           0x0000000010523354       0x34 /home/src/arm/target/bin/../arm-none-eabi/lib//libc.a(lib_a-mallocr.o)
                0x0000000010523354                __malloc_top_pad
                0x0000000010523358                __malloc_current_mallinfo
                0x0000000010523380                __malloc_max_sbrked_mem
                0x0000000010523384                __malloc_max_total_mem
 .bss           0x0000000010523388        0x0 /home/src/arm/target/bin/../arm-none-eabi/lib//libc.a(lib_a-memcpy-stub.o)
 .bss           0x0000000010523388        0x0 /home/src/arm/target/bin/../arm-none-eabi/lib//libc.a(lib_a-memset.o)
 .bss           0x0000000010523388        0x0 /home/src/arm/target/bin/../arm-none-eabi/lib//libc.a(lib_a-mlock.o)
 .bss           0x0000000010523388        0x0 /home/src/arm/target/bin/../arm-none-eabi/lib//libc.a(lib_a-printf.o)
 .bss           0x0000000010523388        0x0 /home/src/arm/target/bin/../arm-none-eabi/lib//libc.a(lib_a-putc.o)
 .bss           0x0000000010523388        0x0 /home/src/arm/target/bin/../arm-none-eabi/lib//libc.a(lib_a-realloc.o)
 .bss           0x0000000010523388        0x0 /home/src/arm/target/bin/../arm-none-eabi/lib//libc.a(lib_a-reallocr.o)
 .bss           0x0000000010523388        0x0 /home/src/arm/target/bin/../arm-none-eabi/lib//libc.a(lib_a-rget.o)
 .bss           0x0000000010523388        0x0 /home/src/arm/target/bin/../arm-none-eabi/lib//libc.a(lib_a-sbrkr.o)
 .bss           0x0000000010523388        0x0 /home/src/arm/target/bin/../arm-none-eabi/lib//libc.a(lib_a-sprintf.o)
 .bss           0x0000000010523388        0x0 /home/src/arm/target/bin/../arm-none-eabi/lib//libc.a(lib_a-strcat.o)
 .bss           0x0000000010523388        0x0 /home/src/arm/target/bin/../arm-none-eabi/lib//libc.a(lib_a-strcmp.o)
 .bss           0x0000000010523388        0x0 /home/src/arm/target/bin/../arm-none-eabi/lib//libc.a(lib_a-strcpy.o)
 .bss           0x0000000010523388        0x0 /home/src/arm/target/bin/../arm-none-eabi/lib//libc.a(lib_a-strlen.o)
 .bss           0x0000000010523388        0x0 /home/src/arm/target/bin/../arm-none-eabi/lib//libc.a(lib_a-strncasecmp.o)
 .bss           0x0000000010523388        0x0 /home/src/arm/target/bin/../arm-none-eabi/lib//libc.a(lib_a-strtok.o)
 .bss           0x0000000010523388        0x0 /home/src/arm/target/bin/../arm-none-eabi/lib//libc.a(lib_a-strtok_r.o)
 .bss           0x0000000010523388        0x0 /home/src/arm/target/bin/../arm-none-eabi/lib//libc.a(lib_a-svfprintf.o)
 .bss           0x0000000010523388       0xb0 /home/src/arm/target/bin/../arm-none-eabi/lib//libc.a(lib_a-syscalls.o)
 .bss           0x0000000010523438        0x0 /home/src/arm/target/bin/../arm-none-eabi/lib//libc.a(lib_a-vfiprintf.o)
 .bss           0x0000000010523438        0x0 /home/src/arm/target/bin/../arm-none-eabi/lib//libc.a(lib_a-vfprintf.o)
 .bss           0x0000000010523438        0x0 /home/src/arm/target/bin/../arm-none-eabi/lib//libc.a(lib_a-vprintf.o)
 .bss           0x0000000010523438        0x0 /home/src/arm/target/bin/../arm-none-eabi/lib//libc.a(lib_a-wbuf.o)
 .bss           0x0000000010523438        0x0 /home/src/arm/target/bin/../arm-none-eabi/lib//libc.a(lib_a-wsetup.o)
 .bss           0x0000000010523438        0x0 /home/src/arm/target/bin/../arm-none-eabi/lib//libc.a(lib_a-abort.o)
 .bss           0x0000000010523438        0x0 /home/src/arm/target/bin/../arm-none-eabi/lib//libc.a(lib_a-ctype_.o)
 .bss           0x0000000010523438        0x0 /home/src/arm/target/bin/../arm-none-eabi/lib//libc.a(lib_a-dtoa.o)
 .bss           0x0000000010523438        0x0 /home/src/arm/target/bin/../arm-none-eabi/lib//libc.a(lib_a-errno.o)
 .bss           0x0000000010523438        0x0 /home/src/arm/target/bin/../arm-none-eabi/lib//libc.a(lib_a-fflush.o)
 .bss           0x0000000010523438        0x0 /home/src/arm/target/bin/../arm-none-eabi/lib//libc.a(lib_a-findfp.o)
 .bss           0x0000000010523438        0x0 /home/src/arm/target/bin/../arm-none-eabi/lib//libc.a(lib_a-fputwc.o)
 .bss           0x0000000010523438        0x0 /home/src/arm/target/bin/../arm-none-eabi/lib//libc.a(lib_a-freer.o)
 .bss           0x0000000010523438        0x0 /home/src/arm/target/bin/../arm-none-eabi/lib//libc.a(lib_a-fvwrite.o)
 .bss           0x0000000010523438        0x0 /home/src/arm/target/bin/../arm-none-eabi/lib//libc.a(lib_a-fwalk.o)
 .bss           0x0000000010523438        0xc /home/src/arm/target/bin/../arm-none-eabi/lib//libc.a(lib_a-locale.o)
                0x0000000010523438                _PathLocale
                0x000000001052343c                __mlocale_changed
                0x0000000010523440                __nlocale_changed
 .bss           0x0000000010523444        0x0 /home/src/arm/target/bin/../arm-none-eabi/lib//libc.a(lib_a-makebuf.o)
 .bss           0x0000000010523444        0x0 /home/src/arm/target/bin/../arm-none-eabi/lib//libc.a(lib_a-memchr-stub.o)
 .bss           0x0000000010523444        0x0 /home/src/arm/target/bin/../arm-none-eabi/lib//libc.a(lib_a-memmove.o)
 .bss           0x0000000010523444        0x0 /home/src/arm/target/bin/../arm-none-eabi/lib//libc.a(lib_a-mprec.o)
 .bss           0x0000000010523444        0x0 /home/src/arm/target/bin/../arm-none-eabi/lib//libc.a(lib_a-reent.o)
 .bss           0x0000000010523444        0x0 /home/src/arm/target/bin/../arm-none-eabi/lib//libc.a(lib_a-refill.o)
 .bss           0x0000000010523444        0x0 /home/src/arm/target/bin/../arm-none-eabi/lib//libc.a(lib_a-s_fpclassify.o)
 .bss           0x0000000010523444        0x0 /home/src/arm/target/bin/../arm-none-eabi/lib//libc.a(lib_a-signal.o)
 .bss           0x0000000010523444        0x0 /home/src/arm/target/bin/../arm-none-eabi/lib//libc.a(lib_a-signalr.o)
 .bss           0x0000000010523444        0x0 /home/src/arm/target/bin/../arm-none-eabi/lib//libc.a(lib_a-stdio.o)
 .bss           0x0000000010523444        0x0 /home/src/arm/target/bin/../arm-none-eabi/lib//libc.a(lib_a-svfiprintf.o)
 .bss           0x0000000010523444        0x0 /home/src/arm/target/bin/../arm-none-eabi/lib//libc.a(lib_a-wcrtomb.o)
 .bss           0x0000000010523444        0x0 /home/src/arm/target/bin/../arm-none-eabi/lib//libc.a(lib_a-wctomb_r.o)
 .bss           0x0000000010523444        0x0 /home/src/arm/target/bin/../arm-none-eabi/lib//libc.a(lib_a-writer.o)
 .bss           0x0000000010523444        0x0 /home/src/arm/target/bin/../arm-none-eabi/lib//libc.a(lib_a-callocr.o)
 .bss           0x0000000010523444        0x0 /home/src/arm/target/bin/../arm-none-eabi/lib//libc.a(lib_a-closer.o)
 .bss           0x0000000010523444        0x0 /home/src/arm/target/bin/../arm-none-eabi/lib//libc.a(lib_a-fclose.o)
 .bss           0x0000000010523444        0x0 /home/src/arm/target/bin/../arm-none-eabi/lib//libc.a(lib_a-fstatr.o)
 .bss           0x0000000010523444        0x0 /home/src/arm/target/bin/../arm-none-eabi/lib//libc.a(lib_a-isattyr.o)
 .bss           0x0000000010523444        0x0 /home/src/arm/target/bin/../arm-none-eabi/lib//libc.a(lib_a-lseekr.o)
 .bss           0x0000000010523444        0x0 /home/src/arm/target/bin/../arm-none-eabi/lib//libc.a(lib_a-readr.o)
 .bss           0x0000000010523444        0x0 /home/src/arm/target/bin/../lib/gcc/arm-none-eabi/4.8.2//libgcc.a(_udivsi3.o)
 .bss           0x0000000010523444        0x0 /home/src/arm/target/bin/../lib/gcc/arm-none-eabi/4.8.2//libgcc.a(_divsi3.o)
 .bss           0x0000000010523444        0x0 /home/src/arm/target/bin/../lib/gcc/arm-none-eabi/4.8.2//libgcc.a(_dvmd_tls.o)
 .bss           0x0000000010523444        0x0 /home/src/arm/target/bin/../lib/gcc/arm-none-eabi/4.8.2//libgcc.a(_arm_addsubdf3.o)
 .bss           0x0000000010523444        0x0 /home/src/arm/target/bin/../lib/gcc/arm-none-eabi/4.8.2//libgcc.a(_arm_muldivdf3.o)
 .bss           0x0000000010523444        0x0 /home/src/arm/target/bin/../lib/gcc/arm-none-eabi/4.8.2//libgcc.a(_arm_cmpdf2.o)
 .bss           0x0000000010523444        0x0 /home/src/arm/target/bin/../lib/gcc/arm-none-eabi/4.8.2//libgcc.a(_arm_fixdfsi.o)
 .bss           0x0000000010523444        0x0 /home/src/arm/target/bin/../lib/gcc/arm-none-eabi/4.8.2//libgcc.a(_aeabi_uldivmod.o)
 .bss           0x0000000010523444        0x0 /home/src/arm/target/bin/../lib/gcc/arm-none-eabi/4.8.2//libgcc.a(bpabi.o)
 .bss           0x0000000010523444        0x0 /home/src/arm/target/bin/../lib/gcc/arm-none-eabi/4.8.2//libgcc.a(_divdi3.o)
 .bss           0x0000000010523444        0x0 /home/src/arm/target/bin/../lib/gcc/arm-none-eabi/4.8.2//libgcc.a(_udivdi3.o)
 .bss           0x0000000010523444        0x0 /home/src/arm/target/bin/../lib/gcc/arm-none-eabi/4.8.2//libgcc.a(_clzsi2.o)
 *(COMMON)
 COMMON         0x0000000010523444        0x4 /home/src/arm/target/bin/../arm-none-eabi/lib//libc.a(lib_a-reent.o)
                0x0000000010523444                errno
 *(.bss)
                0x0000000010523448                __bss_end__ = .

.stacks         0x0000000010523448     0xc000
                0x0000000010523448                __stacks_start = .
                0x000000001052f448                . = (. + 0xc000)
 *fill*         0x0000000010523448     0xc000 
                0x000000001052f448                __stacks_end = .
                0x000000001052f448                top_of_stacks = .
                0x000000001052f460                free_memory_start = ALIGN (0x20)
                0x000000001852f448                . = (. + 0x8000000)
                0x000000001852f448                free_memory_end = .
                0x000000001852f448                _end = .
                0x000000001852f448                PROVIDE (end, .)
START GROUP
LOAD /home/leon/git/swp-report/iMX6_Platform_SDK/output/mx6sdl/obds/smart_device_rev_a/obj/apps/common/ivt.o
LOAD /home/leon/git/swp-report/iMX6_Platform_SDK/output/mx6sdl/obds/smart_device_rev_a/obj/apps/common/platform_init.o
LOAD /home/leon/git/swp-report/iMX6_Platform_SDK/output/mx6sdl/obds/smart_device_rev_a/obj/apps/common/print_clock_info.o
LOAD /home/leon/git/swp-report/iMX6_Platform_SDK/output/mx6sdl/obds/smart_device_rev_a/obj/apps/common/print_version.o
LOAD /home/leon/git/swp-report/iMX6_Platform_SDK/output/mx6sdl/obds/smart_device_rev_a/obj/apps/obds/src/obds.o
LOAD /home/leon/git/swp-report/iMX6_Platform_SDK/output/mx6sdl/obds/smart_device_rev_a/obj/apps/obds/src/obds_utils.o
LOAD /home/leon/git/swp-report/iMX6_Platform_SDK/output/mx6sdl/obds/smart_device_rev_a/obj/apps/obds/src/tests/android_buttons_test.o
LOAD /home/leon/git/swp-report/iMX6_Platform_SDK/output/mx6sdl/obds/smart_device_rev_a/obj/apps/obds/src/tests/audio_esai_test.o
LOAD /home/leon/git/swp-report/iMX6_Platform_SDK/output/mx6sdl/obds/smart_device_rev_a/obj/apps/obds/src/tests/audio_ssi_test.o
LOAD /home/leon/git/swp-report/iMX6_Platform_SDK/output/mx6sdl/obds/smart_device_rev_a/obj/apps/obds/src/tests/ddr_test.o
LOAD /home/leon/git/swp-report/iMX6_Platform_SDK/output/mx6sdl/obds/smart_device_rev_a/obj/apps/obds/src/tests/deserializer_ds90ur124.o
LOAD /home/leon/git/swp-report/iMX6_Platform_SDK/output/mx6sdl/obds/smart_device_rev_a/obj/apps/obds/src/tests/display_test.o
LOAD /home/leon/git/swp-report/iMX6_Platform_SDK/output/mx6sdl/obds/smart_device_rev_a/obj/apps/obds/src/tests/enet_mx6dldq_test.o
LOAD /home/leon/git/swp-report/iMX6_Platform_SDK/output/mx6sdl/obds/smart_device_rev_a/obj/apps/obds/src/tests/flexcan_test.o
LOAD /home/leon/git/swp-report/iMX6_Platform_SDK/output/mx6sdl/obds/smart_device_rev_a/obj/apps/obds/src/tests/fm_tuner_si476x_test.o
LOAD /home/leon/git/swp-report/iMX6_Platform_SDK/output/mx6sdl/obds/smart_device_rev_a/obj/apps/obds/src/tests/gpio_led.o
LOAD /home/leon/git/swp-report/iMX6_Platform_SDK/output/mx6sdl/obds/smart_device_rev_a/obj/apps/obds/src/tests/gps_test.o
LOAD /home/leon/git/swp-report/iMX6_Platform_SDK/output/mx6sdl/obds/smart_device_rev_a/obj/apps/obds/src/tests/i2c_check_light_sensor_isl29023.o
LOAD /home/leon/git/swp-report/iMX6_Platform_SDK/output/mx6sdl/obds/smart_device_rev_a/obj/apps/obds/src/tests/i2c_device_barometer_ppl3115.o
LOAD /home/leon/git/swp-report/iMX6_Platform_SDK/output/mx6sdl/obds/smart_device_rev_a/obj/apps/obds/src/tests/i2c_device_check_cs42888.o
LOAD /home/leon/git/swp-report/iMX6_Platform_SDK/output/mx6sdl/obds/smart_device_rev_a/obj/apps/obds/src/tests/i2c_device_digital_compass_mag3110.o
LOAD /home/leon/git/swp-report/iMX6_Platform_SDK/output/mx6sdl/obds/smart_device_rev_a/obj/apps/obds/src/tests/i2c_device_digital_compass_mag3112.o
LOAD /home/leon/git/swp-report/iMX6_Platform_SDK/output/mx6sdl/obds/smart_device_rev_a/obj/apps/obds/src/tests/i2c_device_id_check_mma8450.o
LOAD /home/leon/git/swp-report/iMX6_Platform_SDK/output/mx6sdl/obds/smart_device_rev_a/obj/apps/obds/src/tests/i2c_device_id_check_mma8451.o
LOAD /home/leon/git/swp-report/iMX6_Platform_SDK/output/mx6sdl/obds/smart_device_rev_a/obj/apps/obds/src/tests/i2c_device_id_check_p1003_tsc.o
LOAD /home/leon/git/swp-report/iMX6_Platform_SDK/output/mx6sdl/obds/smart_device_rev_a/obj/apps/obds/src/tests/i2c_device_temp_sensor_emc1046.o
LOAD /home/leon/git/swp-report/iMX6_Platform_SDK/output/mx6sdl/obds/smart_device_rev_a/obj/apps/obds/src/tests/i2c_device_zigbee_mc1323.o
LOAD /home/leon/git/swp-report/iMX6_Platform_SDK/output/mx6sdl/obds/smart_device_rev_a/obj/apps/obds/src/tests/i2c_eeprom_at24cxx_test.o
LOAD /home/leon/git/swp-report/iMX6_Platform_SDK/output/mx6sdl/obds/smart_device_rev_a/obj/apps/obds/src/tests/imx_spi_nor_test.o
LOAD /home/leon/git/swp-report/iMX6_Platform_SDK/output/mx6sdl/obds/smart_device_rev_a/obj/apps/obds/src/tests/mlb_os81050.o
LOAD /home/leon/git/swp-report/iMX6_Platform_SDK/output/mx6sdl/obds/smart_device_rev_a/obj/apps/obds/src/tests/mmcsd_test.o
LOAD /home/leon/git/swp-report/iMX6_Platform_SDK/output/mx6sdl/obds/smart_device_rev_a/obj/apps/obds/src/tests/pmic_da9053.o
LOAD /home/leon/git/swp-report/iMX6_Platform_SDK/output/mx6sdl/obds/smart_device_rev_a/obj/apps/obds/src/tests/pmic_lt3589.o
LOAD /home/leon/git/swp-report/iMX6_Platform_SDK/output/mx6sdl/obds/smart_device_rev_a/obj/apps/obds/src/tests/pmic_max17135.o
LOAD /home/leon/git/swp-report/iMX6_Platform_SDK/output/mx6sdl/obds/smart_device_rev_a/obj/apps/obds/src/tests/pmic_mc13892.o
LOAD /home/leon/git/swp-report/iMX6_Platform_SDK/output/mx6sdl/obds/smart_device_rev_a/obj/apps/obds/src/tests/program_board_id.o
LOAD /home/leon/git/swp-report/iMX6_Platform_SDK/output/mx6sdl/obds/smart_device_rev_a/obj/apps/obds/src/tests/program_mac_address.o
LOAD /home/leon/git/swp-report/iMX6_Platform_SDK/output/mx6sdl/obds/smart_device_rev_a/obj/apps/obds/src/tests/snvs_srtc_test.o
LOAD /home/leon/git/swp-report/iMX6_Platform_SDK/output/mx6sdl/obds/smart_device_rev_a/obj/apps/obds/src/tests/touch_button_test.o
LOAD /home/leon/git/swp-report/iMX6_Platform_SDK/output/mx6sdl/obds/smart_device_rev_a/obj/apps/obds/src/tests/touch_screen.o
LOAD /home/leon/git/swp-report/iMX6_Platform_SDK/output/mx6sdl/obds/smart_device_rev_a/obj/apps/obds/src/tests/touch_screen_max11801.o
LOAD /home/leon/git/swp-report/iMX6_Platform_SDK/output/mx6sdl/obds/smart_device_rev_a/obj/apps/obds/src/tests/usb_tests_obds.o
LOAD /home/leon/git/swp-report/iMX6_Platform_SDK/output/mx6sdl/obds/smart_device_rev_a/obj/apps/obds/src/tests/video_dec_ARD_MB_reset_button.o
LOAD /home/leon/git/swp-report/iMX6_Platform_SDK/output/mx6sdl/obds/smart_device_rev_a/obj/apps/obds/src/tests/video_dec_ARD_MBrst_from_cpu_expander.o
LOAD /home/leon/git/swp-report/iMX6_Platform_SDK/output/mx6sdl/obds/smart_device_rev_a/obj/apps/obds/src/tests/video_dec_adv7180.o
LOAD /home/leon/git/swp-report/iMX6_Platform_SDK/output/mx6sdl/obds/smart_device_rev_a/obj/apps/obds/src/tests/weim_nor_flash_test.o
LOAD /home/leon/git/swp-report/iMX6_Platform_SDK/output/mx6sdl/obds/smart_device_rev_a/obj/sdk/common/ioexpander/test/max7310_test.o
LOAD /home/leon/git/swp-report/iMX6_Platform_SDK/output/mx6sdl/obds/smart_device_rev_a/obj/sdk/common/pmic/pfuse/pf0100.o
LOAD /home/leon/git/swp-report/iMX6_Platform_SDK/output/mx6sdl/obds/smart_device_rev_a/obj/sdk/drivers/audio/src/snd_card.o
LOAD /home/leon/git/swp-report/iMX6_Platform_SDK/output/mx6sdl/obds/smart_device_rev_a/obj/sdk/drivers/camera/test/adv7180_capture.o
LOAD /home/leon/git/swp-report/iMX6_Platform_SDK/output/mx6sdl/obds/smart_device_rev_a/obj/sdk/drivers/camera/test/camera_test.o
LOAD /home/leon/git/swp-report/iMX6_Platform_SDK/output/mx6sdl/obds/smart_device_rev_a/obj/sdk/drivers/camera/test/csi_test_mode.o
LOAD /home/leon/git/swp-report/iMX6_Platform_SDK/output/mx6sdl/obds/smart_device_rev_a/obj/sdk/drivers/camera/test/sensor_capture.o
LOAD /home/leon/git/swp-report/iMX6_Platform_SDK/output/mx6sdl/obds/smart_device_rev_a/obj/sdk/drivers/epdc/test/epdc_test.o
LOAD /home/leon/git/swp-report/iMX6_Platform_SDK/output/mx6sdl/obds/smart_device_rev_a/obj/sdk/drivers/hdmi/test/hdmi_test.o
LOAD /home/leon/git/swp-report/iMX6_Platform_SDK/output/mx6sdl/obds/smart_device_rev_a/obj/sdk/drivers/hdmi/test/init_dma_data.o
LOAD /home/leon/git/swp-report/iMX6_Platform_SDK/output/mx6sdl/obds/smart_device_rev_a/obj/sdk/drivers/ipu/test/ips_display.o
LOAD /home/leon/git/swp-report/iMX6_Platform_SDK/output/mx6sdl/obds/smart_device_rev_a/obj/sdk/drivers/ipu/test/ipu_image.o
LOAD /home/leon/git/swp-report/iMX6_Platform_SDK/output/mx6sdl/obds/smart_device_rev_a/obj/sdk/drivers/spi/test/imx_spi_nor_atmel.o
LOAD /home/leon/git/swp-report/iMX6_Platform_SDK/output/mx6sdl/obds/smart_device_rev_a/obj/sdk/drivers/spi/test/spi_nor_numonyx.o
LOAD /home/leon/git/swp-report/iMX6_Platform_SDK/output/mx6sdl/obds/smart_device_rev_a/obj/sdk/drivers/uart/test/uart_test.o
LOAD /home/leon/git/swp-report/iMX6_Platform_SDK/output/mx6sdl/obds/smart_device_rev_a/obj/sdk/drivers/usb/test/usb0_host_test.o
LOAD /home/leon/git/swp-report/iMX6_Platform_SDK/output/mx6sdl/obds/smart_device_rev_a/obj/sdk/drivers/usb/test/usb0_host_testmodes_test.o
LOAD /home/leon/git/swp-report/iMX6_Platform_SDK/output/mx6sdl/obds/smart_device_rev_a/obj/sdk/drivers/usdhc/test/usdhc_test.o
LOAD /home/leon/git/swp-report/iMX6_Platform_SDK/output/mx6sdl/lib/libsdk.a
LOAD /home/leon/git/swp-report/iMX6_Platform_SDK/output/mx6sdl/lib/libboard_smart_device_rev_a.a
LOAD /home/src/arm/target/bin/../arm-none-eabi/lib//libm.a
LOAD /home/src/arm/target/bin/../arm-none-eabi/lib//libstdc++.a
LOAD /home/src/arm/target/bin/../arm-none-eabi/lib//libc.a
LOAD /home/src/arm/target/bin/../lib/gcc/arm-none-eabi/4.8.2//libgcc.a
END GROUP
OUTPUT(/home/leon/git/swp-report/iMX6_Platform_SDK/output/mx6sdl/obds/smart_device_rev_a/obds.elf elf32-littlearm)

.comment        0x0000000000000000       0x11
 .comment       0x0000000000000000       0x11 /home/src/arm/target/bin/../lib/gcc/arm-none-eabi/4.8.2//crtbegin.o
                                         0x12 (size before relaxing)
 .comment       0x0000000000000000       0x12 /home/src/arm/target/bin/../lib/gcc/arm-none-eabi/4.8.2//crtend.o
 .comment       0x0000000000000000       0x12 /home/leon/git/swp-report/iMX6_Platform_SDK/output/mx6sdl/obds/smart_device_rev_a/obj/apps/common/ivt.o
 .comment       0x0000000000000000       0x12 /home/leon/git/swp-report/iMX6_Platform_SDK/output/mx6sdl/obds/smart_device_rev_a/obj/apps/common/platform_init.o
 .comment       0x0000000000000000       0x12 /home/leon/git/swp-report/iMX6_Platform_SDK/output/mx6sdl/obds/smart_device_rev_a/obj/apps/common/print_clock_info.o
 .comment       0x0000000000000000       0x12 /home/leon/git/swp-report/iMX6_Platform_SDK/output/mx6sdl/obds/smart_device_rev_a/obj/apps/common/print_version.o
 .comment       0x0000000000000000       0x12 /home/leon/git/swp-report/iMX6_Platform_SDK/output/mx6sdl/obds/smart_device_rev_a/obj/apps/obds/src/obds.o
 .comment       0x0000000000000000       0x12 /home/leon/git/swp-report/iMX6_Platform_SDK/output/mx6sdl/obds/smart_device_rev_a/obj/apps/obds/src/obds_utils.o
 .comment       0x0000000000000000       0x12 /home/leon/git/swp-report/iMX6_Platform_SDK/output/mx6sdl/obds/smart_device_rev_a/obj/apps/obds/src/tests/android_buttons_test.o
 .comment       0x0000000000000000       0x12 /home/leon/git/swp-report/iMX6_Platform_SDK/output/mx6sdl/obds/smart_device_rev_a/obj/apps/obds/src/tests/audio_esai_test.o
 .comment       0x0000000000000000       0x12 /home/leon/git/swp-report/iMX6_Platform_SDK/output/mx6sdl/obds/smart_device_rev_a/obj/apps/obds/src/tests/audio_ssi_test.o
 .comment       0x0000000000000000       0x12 /home/leon/git/swp-report/iMX6_Platform_SDK/output/mx6sdl/obds/smart_device_rev_a/obj/apps/obds/src/tests/ddr_test.o
 .comment       0x0000000000000000       0x12 /home/leon/git/swp-report/iMX6_Platform_SDK/output/mx6sdl/obds/smart_device_rev_a/obj/apps/obds/src/tests/deserializer_ds90ur124.o
 .comment       0x0000000000000000       0x12 /home/leon/git/swp-report/iMX6_Platform_SDK/output/mx6sdl/obds/smart_device_rev_a/obj/apps/obds/src/tests/display_test.o
 .comment       0x0000000000000000       0x12 /home/leon/git/swp-report/iMX6_Platform_SDK/output/mx6sdl/obds/smart_device_rev_a/obj/apps/obds/src/tests/enet_mx6dldq_test.o
 .comment       0x0000000000000000       0x12 /home/leon/git/swp-report/iMX6_Platform_SDK/output/mx6sdl/obds/smart_device_rev_a/obj/apps/obds/src/tests/flexcan_test.o
 .comment       0x0000000000000000       0x12 /home/leon/git/swp-report/iMX6_Platform_SDK/output/mx6sdl/obds/smart_device_rev_a/obj/apps/obds/src/tests/fm_tuner_si476x_test.o
 .comment       0x0000000000000000       0x12 /home/leon/git/swp-report/iMX6_Platform_SDK/output/mx6sdl/obds/smart_device_rev_a/obj/apps/obds/src/tests/gpio_led.o
 .comment       0x0000000000000000       0x12 /home/leon/git/swp-report/iMX6_Platform_SDK/output/mx6sdl/obds/smart_device_rev_a/obj/apps/obds/src/tests/gps_test.o
 .comment       0x0000000000000000       0x12 /home/leon/git/swp-report/iMX6_Platform_SDK/output/mx6sdl/obds/smart_device_rev_a/obj/apps/obds/src/tests/i2c_check_light_sensor_isl29023.o
 .comment       0x0000000000000000       0x12 /home/leon/git/swp-report/iMX6_Platform_SDK/output/mx6sdl/obds/smart_device_rev_a/obj/apps/obds/src/tests/i2c_device_barometer_ppl3115.o
 .comment       0x0000000000000000       0x12 /home/leon/git/swp-report/iMX6_Platform_SDK/output/mx6sdl/obds/smart_device_rev_a/obj/apps/obds/src/tests/i2c_device_check_cs42888.o
 .comment       0x0000000000000000       0x12 /home/leon/git/swp-report/iMX6_Platform_SDK/output/mx6sdl/obds/smart_device_rev_a/obj/apps/obds/src/tests/i2c_device_digital_compass_mag3110.o
 .comment       0x0000000000000000       0x12 /home/leon/git/swp-report/iMX6_Platform_SDK/output/mx6sdl/obds/smart_device_rev_a/obj/apps/obds/src/tests/i2c_device_digital_compass_mag3112.o
 .comment       0x0000000000000000       0x12 /home/leon/git/swp-report/iMX6_Platform_SDK/output/mx6sdl/obds/smart_device_rev_a/obj/apps/obds/src/tests/i2c_device_id_check_mma8450.o
 .comment       0x0000000000000000       0x12 /home/leon/git/swp-report/iMX6_Platform_SDK/output/mx6sdl/obds/smart_device_rev_a/obj/apps/obds/src/tests/i2c_device_id_check_mma8451.o
 .comment       0x0000000000000000       0x12 /home/leon/git/swp-report/iMX6_Platform_SDK/output/mx6sdl/obds/smart_device_rev_a/obj/apps/obds/src/tests/i2c_device_id_check_p1003_tsc.o
 .comment       0x0000000000000000       0x12 /home/leon/git/swp-report/iMX6_Platform_SDK/output/mx6sdl/obds/smart_device_rev_a/obj/apps/obds/src/tests/i2c_device_temp_sensor_emc1046.o
 .comment       0x0000000000000000       0x12 /home/leon/git/swp-report/iMX6_Platform_SDK/output/mx6sdl/obds/smart_device_rev_a/obj/apps/obds/src/tests/i2c_device_zigbee_mc1323.o
 .comment       0x0000000000000000       0x12 /home/leon/git/swp-report/iMX6_Platform_SDK/output/mx6sdl/obds/smart_device_rev_a/obj/apps/obds/src/tests/i2c_eeprom_at24cxx_test.o
 .comment       0x0000000000000000       0x12 /home/leon/git/swp-report/iMX6_Platform_SDK/output/mx6sdl/obds/smart_device_rev_a/obj/apps/obds/src/tests/imx_spi_nor_test.o
 .comment       0x0000000000000000       0x12 /home/leon/git/swp-report/iMX6_Platform_SDK/output/mx6sdl/obds/smart_device_rev_a/obj/apps/obds/src/tests/mlb_os81050.o
 .comment       0x0000000000000000       0x12 /home/leon/git/swp-report/iMX6_Platform_SDK/output/mx6sdl/obds/smart_device_rev_a/obj/apps/obds/src/tests/mmcsd_test.o
 .comment       0x0000000000000000       0x12 /home/leon/git/swp-report/iMX6_Platform_SDK/output/mx6sdl/obds/smart_device_rev_a/obj/apps/obds/src/tests/pmic_da9053.o
 .comment       0x0000000000000000       0x12 /home/leon/git/swp-report/iMX6_Platform_SDK/output/mx6sdl/obds/smart_device_rev_a/obj/apps/obds/src/tests/pmic_lt3589.o
 .comment       0x0000000000000000       0x12 /home/leon/git/swp-report/iMX6_Platform_SDK/output/mx6sdl/obds/smart_device_rev_a/obj/apps/obds/src/tests/pmic_max17135.o
 .comment       0x0000000000000000       0x12 /home/leon/git/swp-report/iMX6_Platform_SDK/output/mx6sdl/obds/smart_device_rev_a/obj/apps/obds/src/tests/pmic_mc13892.o
 .comment       0x0000000000000000       0x12 /home/leon/git/swp-report/iMX6_Platform_SDK/output/mx6sdl/obds/smart_device_rev_a/obj/apps/obds/src/tests/program_board_id.o
 .comment       0x0000000000000000       0x12 /home/leon/git/swp-report/iMX6_Platform_SDK/output/mx6sdl/obds/smart_device_rev_a/obj/apps/obds/src/tests/program_mac_address.o
 .comment       0x0000000000000000       0x12 /home/leon/git/swp-report/iMX6_Platform_SDK/output/mx6sdl/obds/smart_device_rev_a/obj/apps/obds/src/tests/snvs_srtc_test.o
 .comment       0x0000000000000000       0x12 /home/leon/git/swp-report/iMX6_Platform_SDK/output/mx6sdl/obds/smart_device_rev_a/obj/apps/obds/src/tests/touch_button_test.o
 .comment       0x0000000000000000       0x12 /home/leon/git/swp-report/iMX6_Platform_SDK/output/mx6sdl/obds/smart_device_rev_a/obj/apps/obds/src/tests/touch_screen.o
 .comment       0x0000000000000000       0x12 /home/leon/git/swp-report/iMX6_Platform_SDK/output/mx6sdl/obds/smart_device_rev_a/obj/apps/obds/src/tests/touch_screen_max11801.o
 .comment       0x0000000000000000       0x12 /home/leon/git/swp-report/iMX6_Platform_SDK/output/mx6sdl/obds/smart_device_rev_a/obj/apps/obds/src/tests/usb_tests_obds.o
 .comment       0x0000000000000000       0x12 /home/leon/git/swp-report/iMX6_Platform_SDK/output/mx6sdl/obds/smart_device_rev_a/obj/apps/obds/src/tests/video_dec_ARD_MB_reset_button.o
 .comment       0x0000000000000000       0x12 /home/leon/git/swp-report/iMX6_Platform_SDK/output/mx6sdl/obds/smart_device_rev_a/obj/apps/obds/src/tests/video_dec_ARD_MBrst_from_cpu_expander.o
 .comment       0x0000000000000000       0x12 /home/leon/git/swp-report/iMX6_Platform_SDK/output/mx6sdl/obds/smart_device_rev_a/obj/apps/obds/src/tests/video_dec_adv7180.o
 .comment       0x0000000000000000       0x12 /home/leon/git/swp-report/iMX6_Platform_SDK/output/mx6sdl/obds/smart_device_rev_a/obj/apps/obds/src/tests/weim_nor_flash_test.o
 .comment       0x0000000000000000       0x12 /home/leon/git/swp-report/iMX6_Platform_SDK/output/mx6sdl/obds/smart_device_rev_a/obj/sdk/common/ioexpander/test/max7310_test.o
 .comment       0x0000000000000000       0x12 /home/leon/git/swp-report/iMX6_Platform_SDK/output/mx6sdl/obds/smart_device_rev_a/obj/sdk/common/pmic/pfuse/pf0100.o
 .comment       0x0000000000000000       0x12 /home/leon/git/swp-report/iMX6_Platform_SDK/output/mx6sdl/obds/smart_device_rev_a/obj/sdk/drivers/audio/src/snd_card.o
 .comment       0x0000000000000000       0x12 /home/leon/git/swp-report/iMX6_Platform_SDK/output/mx6sdl/obds/smart_device_rev_a/obj/sdk/drivers/camera/test/adv7180_capture.o
 .comment       0x0000000000000000       0x12 /home/leon/git/swp-report/iMX6_Platform_SDK/output/mx6sdl/obds/smart_device_rev_a/obj/sdk/drivers/camera/test/camera_test.o
 .comment       0x0000000000000000       0x12 /home/leon/git/swp-report/iMX6_Platform_SDK/output/mx6sdl/obds/smart_device_rev_a/obj/sdk/drivers/camera/test/csi_test_mode.o
 .comment       0x0000000000000000       0x12 /home/leon/git/swp-report/iMX6_Platform_SDK/output/mx6sdl/obds/smart_device_rev_a/obj/sdk/drivers/camera/test/sensor_capture.o
 .comment       0x0000000000000000       0x12 /home/leon/git/swp-report/iMX6_Platform_SDK/output/mx6sdl/obds/smart_device_rev_a/obj/sdk/drivers/epdc/test/epdc_test.o
 .comment       0x0000000000000000       0x12 /home/leon/git/swp-report/iMX6_Platform_SDK/output/mx6sdl/obds/smart_device_rev_a/obj/sdk/drivers/hdmi/test/hdmi_test.o
 .comment       0x0000000000000000       0x12 /home/leon/git/swp-report/iMX6_Platform_SDK/output/mx6sdl/obds/smart_device_rev_a/obj/sdk/drivers/hdmi/test/init_dma_data.o
 .comment       0x0000000000000000       0x12 /home/leon/git/swp-report/iMX6_Platform_SDK/output/mx6sdl/obds/smart_device_rev_a/obj/sdk/drivers/ipu/test/ips_display.o
 .comment       0x0000000000000000       0x12 /home/leon/git/swp-report/iMX6_Platform_SDK/output/mx6sdl/obds/smart_device_rev_a/obj/sdk/drivers/ipu/test/ipu_image.o
 .comment       0x0000000000000000       0x12 /home/leon/git/swp-report/iMX6_Platform_SDK/output/mx6sdl/obds/smart_device_rev_a/obj/sdk/drivers/spi/test/imx_spi_nor_atmel.o
 .comment       0x0000000000000000       0x12 /home/leon/git/swp-report/iMX6_Platform_SDK/output/mx6sdl/obds/smart_device_rev_a/obj/sdk/drivers/spi/test/spi_nor_numonyx.o
 .comment       0x0000000000000000       0x12 /home/leon/git/swp-report/iMX6_Platform_SDK/output/mx6sdl/obds/smart_device_rev_a/obj/sdk/drivers/uart/test/uart_test.o
 .comment       0x0000000000000000       0x12 /home/leon/git/swp-report/iMX6_Platform_SDK/output/mx6sdl/obds/smart_device_rev_a/obj/sdk/drivers/usb/test/usb0_host_test.o
 .comment       0x0000000000000000       0x12 /home/leon/git/swp-report/iMX6_Platform_SDK/output/mx6sdl/obds/smart_device_rev_a/obj/sdk/drivers/usb/test/usb0_host_testmodes_test.o
 .comment       0x0000000000000000       0x12 /home/leon/git/swp-report/iMX6_Platform_SDK/output/mx6sdl/obds/smart_device_rev_a/obj/sdk/drivers/usdhc/test/usdhc_test.o
 .comment       0x0000000000000000       0x12 /home/leon/git/swp-report/iMX6_Platform_SDK/output/mx6sdl/lib/libsdk.a(max7310.o)
 .comment       0x0000000000000000       0x12 /home/leon/git/swp-report/iMX6_Platform_SDK/output/mx6sdl/lib/libsdk.a(ccm_pll.o)
 .comment       0x0000000000000000       0x12 /home/leon/git/swp-report/iMX6_Platform_SDK/output/mx6sdl/lib/libsdk.a(gic.o)
 .comment       0x0000000000000000       0x12 /home/leon/git/swp-report/iMX6_Platform_SDK/output/mx6sdl/lib/libsdk.a(interrupt.o)
 .comment       0x0000000000000000       0x12 /home/leon/git/swp-report/iMX6_Platform_SDK/output/mx6sdl/lib/libsdk.a(mmu.o)
 .comment       0x0000000000000000       0x12 /home/leon/git/swp-report/iMX6_Platform_SDK/output/mx6sdl/lib/libsdk.a(menu.o)
 .comment       0x0000000000000000       0x12 /home/leon/git/swp-report/iMX6_Platform_SDK/output/mx6sdl/lib/libsdk.a(sdk_version.o)
 .comment       0x0000000000000000       0x12 /home/leon/git/swp-report/iMX6_Platform_SDK/output/mx6sdl/lib/libsdk.a(system_util.o)
 .comment       0x0000000000000000       0x12 /home/leon/git/swp-report/iMX6_Platform_SDK/output/mx6sdl/lib/libsdk.a(text_color.o)
 .comment       0x0000000000000000       0x12 /home/leon/git/swp-report/iMX6_Platform_SDK/output/mx6sdl/lib/libsdk.a(cs42888.o)
 .comment       0x0000000000000000       0x12 /home/leon/git/swp-report/iMX6_Platform_SDK/output/mx6sdl/lib/libsdk.a(imx-ssi.o)
 .comment       0x0000000000000000       0x12 /home/leon/git/swp-report/iMX6_Platform_SDK/output/mx6sdl/lib/libsdk.a(imx_audmux.o)
 .comment       0x0000000000000000       0x12 /home/leon/git/swp-report/iMX6_Platform_SDK/output/mx6sdl/lib/libsdk.a(imx_esai.o)
 .comment       0x0000000000000000       0x12 /home/leon/git/swp-report/iMX6_Platform_SDK/output/mx6sdl/lib/libsdk.a(imx_spdif.o)
 .comment       0x0000000000000000       0x12 /home/leon/git/swp-report/iMX6_Platform_SDK/output/mx6sdl/lib/libsdk.a(sgtl5000.o)
 .comment       0x0000000000000000       0x12 /home/leon/git/swp-report/iMX6_Platform_SDK/output/mx6sdl/lib/libsdk.a(wm8958_dac.o)
 .comment       0x0000000000000000       0x12 /home/leon/git/swp-report/iMX6_Platform_SDK/output/mx6sdl/lib/libsdk.a(wm8962.o)
 .comment       0x0000000000000000       0x12 /home/leon/git/swp-report/iMX6_Platform_SDK/output/mx6sdl/lib/libsdk.a(board_id.o)
 .comment       0x0000000000000000       0x12 /home/leon/git/swp-report/iMX6_Platform_SDK/output/mx6sdl/lib/libsdk.a(smd_sensor.o)
 .comment       0x0000000000000000       0x12 /home/leon/git/swp-report/iMX6_Platform_SDK/output/mx6sdl/lib/libsdk.a(enet_drv.o)
 .comment       0x0000000000000000       0x12 /home/leon/git/swp-report/iMX6_Platform_SDK/output/mx6sdl/lib/libsdk.a(mxc_epdc.o)
 .comment       0x0000000000000000       0x12 /home/leon/git/swp-report/iMX6_Platform_SDK/output/mx6sdl/lib/libsdk.a(gpio.o)
 .comment       0x0000000000000000       0x12 /home/leon/git/swp-report/iMX6_Platform_SDK/output/mx6sdl/lib/libsdk.a(imx6sdl_gpio_map.o)
 .comment       0x0000000000000000       0x12 /home/leon/git/swp-report/iMX6_Platform_SDK/output/mx6sdl/lib/libsdk.a(hdmi_tx.o)
 .comment       0x0000000000000000       0x12 /home/leon/git/swp-report/iMX6_Platform_SDK/output/mx6sdl/lib/libsdk.a(hdmi_tx_audio.o)
 .comment       0x0000000000000000       0x12 /home/leon/git/swp-report/iMX6_Platform_SDK/output/mx6sdl/lib/libsdk.a(hdmi_tx_phy.o)
 .comment       0x0000000000000000       0x12 /home/leon/git/swp-report/iMX6_Platform_SDK/output/mx6sdl/lib/libsdk.a(imx_i2c.o)
 .comment       0x0000000000000000       0x12 /home/leon/git/swp-report/iMX6_Platform_SDK/output/mx6sdl/lib/libsdk.a(ips_disp_panel.o)
 .comment       0x0000000000000000       0x12 /home/leon/git/swp-report/iMX6_Platform_SDK/output/mx6sdl/lib/libsdk.a(ipu_common.o)
 .comment       0x0000000000000000       0x12 /home/leon/git/swp-report/iMX6_Platform_SDK/output/mx6sdl/lib/libsdk.a(ipu_csi.o)
 .comment       0x0000000000000000       0x12 /home/leon/git/swp-report/iMX6_Platform_SDK/output/mx6sdl/lib/libsdk.a(ipu_dc.o)
 .comment       0x0000000000000000       0x12 /home/leon/git/swp-report/iMX6_Platform_SDK/output/mx6sdl/lib/libsdk.a(ipu_di.o)
 .comment       0x0000000000000000       0x12 /home/leon/git/swp-report/iMX6_Platform_SDK/output/mx6sdl/lib/libsdk.a(ipu_dmfc.o)
 .comment       0x0000000000000000       0x12 /home/leon/git/swp-report/iMX6_Platform_SDK/output/mx6sdl/lib/libsdk.a(ipu_dp.o)
 .comment       0x0000000000000000       0x12 /home/leon/git/swp-report/iMX6_Platform_SDK/output/mx6sdl/lib/libsdk.a(ipu_idmac.o)
 .comment       0x0000000000000000       0x12 /home/leon/git/swp-report/iMX6_Platform_SDK/output/mx6sdl/lib/libsdk.a(ipu_vdi.o)
 .comment       0x0000000000000000       0x12 /home/leon/git/swp-report/iMX6_Platform_SDK/output/mx6sdl/lib/libsdk.a(ldb.o)
 .comment       0x0000000000000000       0x12 /home/leon/git/swp-report/iMX6_Platform_SDK/output/mx6sdl/lib/libsdk.a(ocotp.o)
 .comment       0x0000000000000000       0x12 /home/leon/git/swp-report/iMX6_Platform_SDK/output/mx6sdl/lib/libsdk.a(ecspi.o)
 .comment       0x0000000000000000       0x12 /home/leon/git/swp-report/iMX6_Platform_SDK/output/mx6sdl/lib/libsdk.a(timer.o)
 .comment       0x0000000000000000       0x12 /home/leon/git/swp-report/iMX6_Platform_SDK/output/mx6sdl/lib/libsdk.a(imx_uart.o)
 .comment       0x0000000000000000       0x12 /home/leon/git/swp-report/iMX6_Platform_SDK/output/mx6sdl/lib/libsdk.a(usb_common.o)
 .comment       0x0000000000000000       0x12 /home/leon/git/swp-report/iMX6_Platform_SDK/output/mx6sdl/lib/libsdk.a(usbh_drv.o)
 .comment       0x0000000000000000       0x12 /home/leon/git/swp-report/iMX6_Platform_SDK/output/mx6sdl/lib/libsdk.a(usdhc.o)
 .comment       0x0000000000000000       0x12 /home/leon/git/swp-report/iMX6_Platform_SDK/output/mx6sdl/lib/libsdk.a(usdhc_host.o)
 .comment       0x0000000000000000       0x12 /home/leon/git/swp-report/iMX6_Platform_SDK/output/mx6sdl/lib/libsdk.a(usdhc_mmc.o)
 .comment       0x0000000000000000       0x12 /home/leon/git/swp-report/iMX6_Platform_SDK/output/mx6sdl/lib/libsdk.a(usdhc_sd.o)
 .comment       0x0000000000000000       0x12 /home/leon/git/swp-report/iMX6_Platform_SDK/output/mx6sdl/lib/libsdk.a(armv7_cache.o)
 .comment       0x0000000000000000       0x12 /home/leon/git/swp-report/iMX6_Platform_SDK/output/mx6sdl/lib/libsdk.a(camera_profile.o)
 .comment       0x0000000000000000       0x12 /home/leon/git/swp-report/iMX6_Platform_SDK/output/mx6sdl/lib/libsdk.a(hdmi_common.o)
 .comment       0x0000000000000000       0x12 /home/leon/git/swp-report/iMX6_Platform_SDK/output/mx6sdl/lib/libsdk.a(ipu_ic.o)
 .comment       0x0000000000000000       0x12 /home/leon/git/swp-report/iMX6_Platform_SDK/output/mx6sdl/lib/libsdk.a(epit.o)
 .comment       0x0000000000000000       0x12 /home/leon/git/swp-report/iMX6_Platform_SDK/output/mx6sdl/lib/libsdk.a(mx6x_usb.o)
 .comment       0x0000000000000000       0x12 /home/leon/git/swp-report/iMX6_Platform_SDK/output/mx6sdl/lib/libsdk.a(abort_handler.o)
 .comment       0x0000000000000000       0x12 /home/leon/git/swp-report/iMX6_Platform_SDK/output/mx6sdl/lib/libboard_smart_device_rev_a.a(board_audio.o)
 .comment       0x0000000000000000       0x12 /home/leon/git/swp-report/iMX6_Platform_SDK/output/mx6sdl/lib/libboard_smart_device_rev_a.a(board_buttons.o)
 .comment       0x0000000000000000       0x12 /home/leon/git/swp-report/iMX6_Platform_SDK/output/mx6sdl/lib/libboard_smart_device_rev_a.a(board_camera.o)
 .comment       0x0000000000000000       0x12 /home/leon/git/swp-report/iMX6_Platform_SDK/output/mx6sdl/lib/libboard_smart_device_rev_a.a(board_display.o)
 .comment       0x0000000000000000       0x12 /home/leon/git/swp-report/iMX6_Platform_SDK/output/mx6sdl/lib/libboard_smart_device_rev_a.a(board_hdmi.o)
 .comment       0x0000000000000000       0x12 /home/leon/git/swp-report/iMX6_Platform_SDK/output/mx6sdl/lib/libboard_smart_device_rev_a.a(board_i2c.o)
 .comment       0x0000000000000000       0x12 /home/leon/git/swp-report/iMX6_Platform_SDK/output/mx6sdl/lib/libboard_smart_device_rev_a.a(board_io_expanders.o)
 .comment       0x0000000000000000       0x12 /home/leon/git/swp-report/iMX6_Platform_SDK/output/mx6sdl/lib/libboard_smart_device_rev_a.a(board_mipi.o)
 .comment       0x0000000000000000       0x12 /home/leon/git/swp-report/iMX6_Platform_SDK/output/mx6sdl/lib/libboard_smart_device_rev_a.a(board_network.o)
 .comment       0x0000000000000000       0x12 /home/leon/git/swp-report/iMX6_Platform_SDK/output/mx6sdl/lib/libboard_smart_device_rev_a.a(board_usb.o)
 .comment       0x0000000000000000       0x12 /home/leon/git/swp-report/iMX6_Platform_SDK/output/mx6sdl/lib/libboard_smart_device_rev_a.a(board_usdhc.o)
 .comment       0x0000000000000000       0x12 /home/leon/git/swp-report/iMX6_Platform_SDK/output/mx6sdl/lib/libboard_smart_device_rev_a.a(hardware_modules.o)
 .comment       0x0000000000000000       0x12 /home/leon/git/swp-report/iMX6_Platform_SDK/output/mx6sdl/lib/libboard_smart_device_rev_a.a(dcd.o)
 .comment       0x0000000000000000       0x12 /home/leon/git/swp-report/iMX6_Platform_SDK/output/mx6sdl/lib/libboard_smart_device_rev_a.a(audmux_iomux_config.o)
 .comment       0x0000000000000000       0x12 /home/leon/git/swp-report/iMX6_Platform_SDK/output/mx6sdl/lib/libboard_smart_device_rev_a.a(ccm_iomux_config.o)
 .comment       0x0000000000000000       0x12 /home/leon/git/swp-report/iMX6_Platform_SDK/output/mx6sdl/lib/libboard_smart_device_rev_a.a(ecspi_iomux_config.o)
 .comment       0x0000000000000000       0x12 /home/leon/git/swp-report/iMX6_Platform_SDK/output/mx6sdl/lib/libboard_smart_device_rev_a.a(enet_iomux_config.o)
 .comment       0x0000000000000000       0x12 /home/leon/git/swp-report/iMX6_Platform_SDK/output/mx6sdl/lib/libboard_smart_device_rev_a.a(epdc_iomux_config.o)
 .comment       0x0000000000000000       0x12 /home/leon/git/swp-report/iMX6_Platform_SDK/output/mx6sdl/lib/libboard_smart_device_rev_a.a(i2c_iomux_config.o)
 .comment       0x0000000000000000       0x12 /home/leon/git/swp-report/iMX6_Platform_SDK/output/mx6sdl/lib/libboard_smart_device_rev_a.a(iomux_config.o)
 .comment       0x0000000000000000       0x12 /home/leon/git/swp-report/iMX6_Platform_SDK/output/mx6sdl/lib/libboard_smart_device_rev_a.a(ipu1_iomux_config.o)
 .comment       0x0000000000000000       0x12 /home/leon/git/swp-report/iMX6_Platform_SDK/output/mx6sdl/lib/libboard_smart_device_rev_a.a(ipu_iomux_config.o)
 .comment       0x0000000000000000       0x12 /home/leon/git/swp-report/iMX6_Platform_SDK/output/mx6sdl/lib/libboard_smart_device_rev_a.a(kpp_iomux_config.o)
 .comment       0x0000000000000000       0x12 /home/leon/git/swp-report/iMX6_Platform_SDK/output/mx6sdl/lib/libboard_smart_device_rev_a.a(mmdc_iomux_config.o)
 .comment       0x0000000000000000       0x12 /home/leon/git/swp-report/iMX6_Platform_SDK/output/mx6sdl/lib/libboard_smart_device_rev_a.a(pwm1_iomux_config.o)
 .comment       0x0000000000000000       0x12 /home/leon/git/swp-report/iMX6_Platform_SDK/output/mx6sdl/lib/libboard_smart_device_rev_a.a(sjc_iomux_config.o)
 .comment       0x0000000000000000       0x12 /home/leon/git/swp-report/iMX6_Platform_SDK/output/mx6sdl/lib/libboard_smart_device_rev_a.a(uart1_iomux_config.o)
 .comment       0x0000000000000000       0x12 /home/leon/git/swp-report/iMX6_Platform_SDK/output/mx6sdl/lib/libboard_smart_device_rev_a.a(uart_iomux_config.o)
 .comment       0x0000000000000000       0x12 /home/leon/git/swp-report/iMX6_Platform_SDK/output/mx6sdl/lib/libboard_smart_device_rev_a.a(usdhc2_iomux_config.o)
 .comment       0x0000000000000000       0x12 /home/leon/git/swp-report/iMX6_Platform_SDK/output/mx6sdl/lib/libboard_smart_device_rev_a.a(usdhc3_iomux_config.o)
 .comment       0x0000000000000000       0x12 /home/leon/git/swp-report/iMX6_Platform_SDK/output/mx6sdl/lib/libboard_smart_device_rev_a.a(usdhc4_iomux_config.o)
 .comment       0x0000000000000000       0x12 /home/leon/git/swp-report/iMX6_Platform_SDK/output/mx6sdl/lib/libboard_smart_device_rev_a.a(usdhc_iomux_config.o)
 .comment       0x0000000000000000       0x12 /home/leon/git/swp-report/iMX6_Platform_SDK/output/mx6sdl/lib/libboard_smart_device_rev_a.a(ecspi1_iomux_config.o)
 .comment       0x0000000000000000       0x12 /home/leon/git/swp-report/iMX6_Platform_SDK/output/mx6sdl/lib/libboard_smart_device_rev_a.a(flexcan1_iomux_config.o)
 .comment       0x0000000000000000       0x12 /home/leon/git/swp-report/iMX6_Platform_SDK/output/mx6sdl/lib/libboard_smart_device_rev_a.a(gpio1_iomux_config.o)
 .comment       0x0000000000000000       0x12 /home/leon/git/swp-report/iMX6_Platform_SDK/output/mx6sdl/lib/libboard_smart_device_rev_a.a(gpio2_iomux_config.o)
 .comment       0x0000000000000000       0x12 /home/leon/git/swp-report/iMX6_Platform_SDK/output/mx6sdl/lib/libboard_smart_device_rev_a.a(gpio3_iomux_config.o)
 .comment       0x0000000000000000       0x12 /home/leon/git/swp-report/iMX6_Platform_SDK/output/mx6sdl/lib/libboard_smart_device_rev_a.a(gpio4_iomux_config.o)
 .comment       0x0000000000000000       0x12 /home/leon/git/swp-report/iMX6_Platform_SDK/output/mx6sdl/lib/libboard_smart_device_rev_a.a(gpio5_iomux_config.o)
 .comment       0x0000000000000000       0x12 /home/leon/git/swp-report/iMX6_Platform_SDK/output/mx6sdl/lib/libboard_smart_device_rev_a.a(gpio6_iomux_config.o)
 .comment       0x0000000000000000       0x12 /home/leon/git/swp-report/iMX6_Platform_SDK/output/mx6sdl/lib/libboard_smart_device_rev_a.a(gpio7_iomux_config.o)
 .comment       0x0000000000000000       0x12 /home/leon/git/swp-report/iMX6_Platform_SDK/output/mx6sdl/lib/libboard_smart_device_rev_a.a(gps_iomux_config.o)
 .comment       0x0000000000000000       0x12 /home/leon/git/swp-report/iMX6_Platform_SDK/output/mx6sdl/lib/libboard_smart_device_rev_a.a(i2c1_iomux_config.o)
 .comment       0x0000000000000000       0x12 /home/leon/git/swp-report/iMX6_Platform_SDK/output/mx6sdl/lib/libboard_smart_device_rev_a.a(i2c2_iomux_config.o)
 .comment       0x0000000000000000       0x12 /home/leon/git/swp-report/iMX6_Platform_SDK/output/mx6sdl/lib/libboard_smart_device_rev_a.a(i2c3_iomux_config.o)
 .comment       0x0000000000000000       0x12 /home/src/arm/target/bin/../arm-none-eabi/lib//libc.a(lib_a-assert.o)
 .comment       0x0000000000000000       0x12 /home/src/arm/target/bin/../arm-none-eabi/lib//libc.a(lib_a-bzero.o)
 .comment       0x0000000000000000       0x12 /home/src/arm/target/bin/../arm-none-eabi/lib//libc.a(lib_a-fiprintf.o)
 .comment       0x0000000000000000       0x12 /home/src/arm/target/bin/../arm-none-eabi/lib//libc.a(lib_a-fputc.o)
 .comment       0x0000000000000000       0x12 /home/src/arm/target/bin/../arm-none-eabi/lib//libc.a(lib_a-impure.o)
 .comment       0x0000000000000000       0x12 /home/src/arm/target/bin/../arm-none-eabi/lib//libc.a(lib_a-init.o)
 .comment       0x0000000000000000       0x12 /home/src/arm/target/bin/../arm-none-eabi/lib//libc.a(lib_a-malloc.o)
 .comment       0x0000000000000000       0x12 /home/src/arm/target/bin/../arm-none-eabi/lib//libc.a(lib_a-mallocr.o)
 .comment       0x0000000000000000       0x12 /home/src/arm/target/bin/../arm-none-eabi/lib//libc.a(lib_a-memcpy-stub.o)
 .comment       0x0000000000000000       0x12 /home/src/arm/target/bin/../arm-none-eabi/lib//libc.a(lib_a-memset.o)
 .comment       0x0000000000000000       0x12 /home/src/arm/target/bin/../arm-none-eabi/lib//libc.a(lib_a-mlock.o)
 .comment       0x0000000000000000       0x12 /home/src/arm/target/bin/../arm-none-eabi/lib//libc.a(lib_a-printf.o)
 .comment       0x0000000000000000       0x12 /home/src/arm/target/bin/../arm-none-eabi/lib//libc.a(lib_a-putc.o)
 .comment       0x0000000000000000       0x12 /home/src/arm/target/bin/../arm-none-eabi/lib//libc.a(lib_a-realloc.o)
 .comment       0x0000000000000000       0x12 /home/src/arm/target/bin/../arm-none-eabi/lib//libc.a(lib_a-reallocr.o)
 .comment       0x0000000000000000       0x12 /home/src/arm/target/bin/../arm-none-eabi/lib//libc.a(lib_a-rget.o)
 .comment       0x0000000000000000       0x12 /home/src/arm/target/bin/../arm-none-eabi/lib//libc.a(lib_a-sbrkr.o)
 .comment       0x0000000000000000       0x12 /home/src/arm/target/bin/../arm-none-eabi/lib//libc.a(lib_a-sprintf.o)
 .comment       0x0000000000000000       0x12 /home/src/arm/target/bin/../arm-none-eabi/lib//libc.a(lib_a-strcat.o)
 .comment       0x0000000000000000       0x12 /home/src/arm/target/bin/../arm-none-eabi/lib//libc.a(lib_a-strcpy.o)
 .comment       0x0000000000000000       0x12 /home/src/arm/target/bin/../arm-none-eabi/lib//libc.a(lib_a-strlen.o)
 .comment       0x0000000000000000       0x12 /home/src/arm/target/bin/../arm-none-eabi/lib//libc.a(lib_a-strncasecmp.o)
 .comment       0x0000000000000000       0x12 /home/src/arm/target/bin/../arm-none-eabi/lib//libc.a(lib_a-strtok.o)
 .comment       0x0000000000000000       0x12 /home/src/arm/target/bin/../arm-none-eabi/lib//libc.a(lib_a-strtok_r.o)
 .comment       0x0000000000000000       0x12 /home/src/arm/target/bin/../arm-none-eabi/lib//libc.a(lib_a-svfprintf.o)
 .comment       0x0000000000000000       0x12 /home/src/arm/target/bin/../arm-none-eabi/lib//libc.a(lib_a-syscalls.o)
 .comment       0x0000000000000000       0x12 /home/src/arm/target/bin/../arm-none-eabi/lib//libc.a(lib_a-vfiprintf.o)
 .comment       0x0000000000000000       0x12 /home/src/arm/target/bin/../arm-none-eabi/lib//libc.a(lib_a-vfprintf.o)
 .comment       0x0000000000000000       0x12 /home/src/arm/target/bin/../arm-none-eabi/lib//libc.a(lib_a-vprintf.o)
 .comment       0x0000000000000000       0x12 /home/src/arm/target/bin/../arm-none-eabi/lib//libc.a(lib_a-wbuf.o)
 .comment       0x0000000000000000       0x12 /home/src/arm/target/bin/../arm-none-eabi/lib//libc.a(lib_a-wsetup.o)
 .comment       0x0000000000000000       0x12 /home/src/arm/target/bin/../arm-none-eabi/lib//libc.a(lib_a-abort.o)
 .comment       0x0000000000000000       0x12 /home/src/arm/target/bin/../arm-none-eabi/lib//libc.a(lib_a-ctype_.o)
 .comment       0x0000000000000000       0x12 /home/src/arm/target/bin/../arm-none-eabi/lib//libc.a(lib_a-dtoa.o)
 .comment       0x0000000000000000       0x12 /home/src/arm/target/bin/../arm-none-eabi/lib//libc.a(lib_a-errno.o)
 .comment       0x0000000000000000       0x12 /home/src/arm/target/bin/../arm-none-eabi/lib//libc.a(lib_a-fflush.o)
 .comment       0x0000000000000000       0x12 /home/src/arm/target/bin/../arm-none-eabi/lib//libc.a(lib_a-findfp.o)
 .comment       0x0000000000000000       0x12 /home/src/arm/target/bin/../arm-none-eabi/lib//libc.a(lib_a-fputwc.o)
 .comment       0x0000000000000000       0x12 /home/src/arm/target/bin/../arm-none-eabi/lib//libc.a(lib_a-freer.o)
 .comment       0x0000000000000000       0x12 /home/src/arm/target/bin/../arm-none-eabi/lib//libc.a(lib_a-fvwrite.o)
 .comment       0x0000000000000000       0x12 /home/src/arm/target/bin/../arm-none-eabi/lib//libc.a(lib_a-fwalk.o)
 .comment       0x0000000000000000       0x12 /home/src/arm/target/bin/../arm-none-eabi/lib//libc.a(lib_a-locale.o)
 .comment       0x0000000000000000       0x12 /home/src/arm/target/bin/../arm-none-eabi/lib//libc.a(lib_a-makebuf.o)
 .comment       0x0000000000000000       0x12 /home/src/arm/target/bin/../arm-none-eabi/lib//libc.a(lib_a-memchr-stub.o)
 .comment       0x0000000000000000       0x12 /home/src/arm/target/bin/../arm-none-eabi/lib//libc.a(lib_a-memmove.o)
 .comment       0x0000000000000000       0x12 /home/src/arm/target/bin/../arm-none-eabi/lib//libc.a(lib_a-mprec.o)
 .comment       0x0000000000000000       0x12 /home/src/arm/target/bin/../arm-none-eabi/lib//libc.a(lib_a-reent.o)
 .comment       0x0000000000000000       0x12 /home/src/arm/target/bin/../arm-none-eabi/lib//libc.a(lib_a-refill.o)
 .comment       0x0000000000000000       0x12 /home/src/arm/target/bin/../arm-none-eabi/lib//libc.a(lib_a-s_fpclassify.o)
 .comment       0x0000000000000000       0x12 /home/src/arm/target/bin/../arm-none-eabi/lib//libc.a(lib_a-signal.o)
 .comment       0x0000000000000000       0x12 /home/src/arm/target/bin/../arm-none-eabi/lib//libc.a(lib_a-signalr.o)
 .comment       0x0000000000000000       0x12 /home/src/arm/target/bin/../arm-none-eabi/lib//libc.a(lib_a-stdio.o)
 .comment       0x0000000000000000       0x12 /home/src/arm/target/bin/../arm-none-eabi/lib//libc.a(lib_a-svfiprintf.o)
 .comment       0x0000000000000000       0x12 /home/src/arm/target/bin/../arm-none-eabi/lib//libc.a(lib_a-wcrtomb.o)
 .comment       0x0000000000000000       0x12 /home/src/arm/target/bin/../arm-none-eabi/lib//libc.a(lib_a-wctomb_r.o)
 .comment       0x0000000000000000       0x12 /home/src/arm/target/bin/../arm-none-eabi/lib//libc.a(lib_a-writer.o)
 .comment       0x0000000000000000       0x12 /home/src/arm/target/bin/../arm-none-eabi/lib//libc.a(lib_a-callocr.o)
 .comment       0x0000000000000000       0x12 /home/src/arm/target/bin/../arm-none-eabi/lib//libc.a(lib_a-closer.o)
 .comment       0x0000000000000000       0x12 /home/src/arm/target/bin/../arm-none-eabi/lib//libc.a(lib_a-fclose.o)
 .comment       0x0000000000000000       0x12 /home/src/arm/target/bin/../arm-none-eabi/lib//libc.a(lib_a-fstatr.o)
 .comment       0x0000000000000000       0x12 /home/src/arm/target/bin/../arm-none-eabi/lib//libc.a(lib_a-isattyr.o)
 .comment       0x0000000000000000       0x12 /home/src/arm/target/bin/../arm-none-eabi/lib//libc.a(lib_a-lseekr.o)
 .comment       0x0000000000000000       0x12 /home/src/arm/target/bin/../arm-none-eabi/lib//libc.a(lib_a-readr.o)
 .comment       0x0000000000000000       0x12 /home/src/arm/target/bin/../lib/gcc/arm-none-eabi/4.8.2//libgcc.a(bpabi.o)
 .comment       0x0000000000000000       0x12 /home/src/arm/target/bin/../lib/gcc/arm-none-eabi/4.8.2//libgcc.a(_divdi3.o)
 .comment       0x0000000000000000       0x12 /home/src/arm/target/bin/../lib/gcc/arm-none-eabi/4.8.2//libgcc.a(_udivdi3.o)

.ARM.attributes
                0x0000000000000000       0x3b
 .ARM.attributes
                0x0000000000000000       0x30 /home/src/arm/target/bin/../lib/gcc/arm-none-eabi/4.8.2//crtbegin.o
 .ARM.attributes
                0x0000000000000030       0x16 /home/src/arm/target/bin/../lib/gcc/arm-none-eabi/4.8.2//crti.o
 .ARM.attributes
                0x0000000000000046       0x30 /home/src/arm/target/bin/../lib/gcc/arm-none-eabi/4.8.2//crtend.o
 .ARM.attributes
                0x0000000000000076       0x18 /home/src/arm/target/bin/../lib/gcc/arm-none-eabi/4.8.2//crtn.o
 .ARM.attributes
                0x000000000000008e       0x39 /home/leon/git/swp-report/iMX6_Platform_SDK/output/mx6sdl/obds/smart_device_rev_a/obj/apps/common/ivt.o
 .ARM.attributes
                0x00000000000000c7       0x39 /home/leon/git/swp-report/iMX6_Platform_SDK/output/mx6sdl/obds/smart_device_rev_a/obj/apps/common/platform_init.o
 .ARM.attributes
                0x0000000000000100       0x39 /home/leon/git/swp-report/iMX6_Platform_SDK/output/mx6sdl/obds/smart_device_rev_a/obj/apps/common/print_clock_info.o
 .ARM.attributes
                0x0000000000000139       0x39 /home/leon/git/swp-report/iMX6_Platform_SDK/output/mx6sdl/obds/smart_device_rev_a/obj/apps/common/print_version.o
 .ARM.attributes
                0x0000000000000172       0x39 /home/leon/git/swp-report/iMX6_Platform_SDK/output/mx6sdl/obds/smart_device_rev_a/obj/apps/obds/src/obds.o
 .ARM.attributes
                0x00000000000001ab       0x39 /home/leon/git/swp-report/iMX6_Platform_SDK/output/mx6sdl/obds/smart_device_rev_a/obj/apps/obds/src/obds_utils.o
 .ARM.attributes
                0x00000000000001e4       0x39 /home/leon/git/swp-report/iMX6_Platform_SDK/output/mx6sdl/obds/smart_device_rev_a/obj/apps/obds/src/tests/android_buttons_test.o
 .ARM.attributes
                0x000000000000021d       0x39 /home/leon/git/swp-report/iMX6_Platform_SDK/output/mx6sdl/obds/smart_device_rev_a/obj/apps/obds/src/tests/audio_esai_test.o
 .ARM.attributes
                0x0000000000000256       0x39 /home/leon/git/swp-report/iMX6_Platform_SDK/output/mx6sdl/obds/smart_device_rev_a/obj/apps/obds/src/tests/audio_ssi_test.o
 .ARM.attributes
                0x000000000000028f       0x39 /home/leon/git/swp-report/iMX6_Platform_SDK/output/mx6sdl/obds/smart_device_rev_a/obj/apps/obds/src/tests/ddr_test.o
 .ARM.attributes
                0x00000000000002c8       0x39 /home/leon/git/swp-report/iMX6_Platform_SDK/output/mx6sdl/obds/smart_device_rev_a/obj/apps/obds/src/tests/deserializer_ds90ur124.o
 .ARM.attributes
                0x0000000000000301       0x39 /home/leon/git/swp-report/iMX6_Platform_SDK/output/mx6sdl/obds/smart_device_rev_a/obj/apps/obds/src/tests/display_test.o
 .ARM.attributes
                0x000000000000033a       0x39 /home/leon/git/swp-report/iMX6_Platform_SDK/output/mx6sdl/obds/smart_device_rev_a/obj/apps/obds/src/tests/enet_mx6dldq_test.o
 .ARM.attributes
                0x0000000000000373       0x39 /home/leon/git/swp-report/iMX6_Platform_SDK/output/mx6sdl/obds/smart_device_rev_a/obj/apps/obds/src/tests/flexcan_test.o
 .ARM.attributes
                0x00000000000003ac       0x39 /home/leon/git/swp-report/iMX6_Platform_SDK/output/mx6sdl/obds/smart_device_rev_a/obj/apps/obds/src/tests/fm_tuner_si476x_test.o
 .ARM.attributes
                0x00000000000003e5       0x39 /home/leon/git/swp-report/iMX6_Platform_SDK/output/mx6sdl/obds/smart_device_rev_a/obj/apps/obds/src/tests/gpio_led.o
 .ARM.attributes
                0x000000000000041e       0x39 /home/leon/git/swp-report/iMX6_Platform_SDK/output/mx6sdl/obds/smart_device_rev_a/obj/apps/obds/src/tests/gps_test.o
 .ARM.attributes
                0x0000000000000457       0x39 /home/leon/git/swp-report/iMX6_Platform_SDK/output/mx6sdl/obds/smart_device_rev_a/obj/apps/obds/src/tests/i2c_check_light_sensor_isl29023.o
 .ARM.attributes
                0x0000000000000490       0x39 /home/leon/git/swp-report/iMX6_Platform_SDK/output/mx6sdl/obds/smart_device_rev_a/obj/apps/obds/src/tests/i2c_device_barometer_ppl3115.o
 .ARM.attributes
                0x00000000000004c9       0x39 /home/leon/git/swp-report/iMX6_Platform_SDK/output/mx6sdl/obds/smart_device_rev_a/obj/apps/obds/src/tests/i2c_device_check_cs42888.o
 .ARM.attributes
                0x0000000000000502       0x39 /home/leon/git/swp-report/iMX6_Platform_SDK/output/mx6sdl/obds/smart_device_rev_a/obj/apps/obds/src/tests/i2c_device_digital_compass_mag3110.o
 .ARM.attributes
                0x000000000000053b       0x39 /home/leon/git/swp-report/iMX6_Platform_SDK/output/mx6sdl/obds/smart_device_rev_a/obj/apps/obds/src/tests/i2c_device_digital_compass_mag3112.o
 .ARM.attributes
                0x0000000000000574       0x39 /home/leon/git/swp-report/iMX6_Platform_SDK/output/mx6sdl/obds/smart_device_rev_a/obj/apps/obds/src/tests/i2c_device_id_check_mma8450.o
 .ARM.attributes
                0x00000000000005ad       0x39 /home/leon/git/swp-report/iMX6_Platform_SDK/output/mx6sdl/obds/smart_device_rev_a/obj/apps/obds/src/tests/i2c_device_id_check_mma8451.o
 .ARM.attributes
                0x00000000000005e6       0x39 /home/leon/git/swp-report/iMX6_Platform_SDK/output/mx6sdl/obds/smart_device_rev_a/obj/apps/obds/src/tests/i2c_device_id_check_p1003_tsc.o
 .ARM.attributes
                0x000000000000061f       0x39 /home/leon/git/swp-report/iMX6_Platform_SDK/output/mx6sdl/obds/smart_device_rev_a/obj/apps/obds/src/tests/i2c_device_temp_sensor_emc1046.o
 .ARM.attributes
                0x0000000000000658       0x39 /home/leon/git/swp-report/iMX6_Platform_SDK/output/mx6sdl/obds/smart_device_rev_a/obj/apps/obds/src/tests/i2c_device_zigbee_mc1323.o
 .ARM.attributes
                0x0000000000000691       0x39 /home/leon/git/swp-report/iMX6_Platform_SDK/output/mx6sdl/obds/smart_device_rev_a/obj/apps/obds/src/tests/i2c_eeprom_at24cxx_test.o
 .ARM.attributes
                0x00000000000006ca       0x39 /home/leon/git/swp-report/iMX6_Platform_SDK/output/mx6sdl/obds/smart_device_rev_a/obj/apps/obds/src/tests/imx_spi_nor_test.o
 .ARM.attributes
                0x0000000000000703       0x39 /home/leon/git/swp-report/iMX6_Platform_SDK/output/mx6sdl/obds/smart_device_rev_a/obj/apps/obds/src/tests/mlb_os81050.o
 .ARM.attributes
                0x000000000000073c       0x39 /home/leon/git/swp-report/iMX6_Platform_SDK/output/mx6sdl/obds/smart_device_rev_a/obj/apps/obds/src/tests/mmcsd_test.o
 .ARM.attributes
                0x0000000000000775       0x39 /home/leon/git/swp-report/iMX6_Platform_SDK/output/mx6sdl/obds/smart_device_rev_a/obj/apps/obds/src/tests/pmic_da9053.o
 .ARM.attributes
                0x00000000000007ae       0x39 /home/leon/git/swp-report/iMX6_Platform_SDK/output/mx6sdl/obds/smart_device_rev_a/obj/apps/obds/src/tests/pmic_lt3589.o
 .ARM.attributes
                0x00000000000007e7       0x39 /home/leon/git/swp-report/iMX6_Platform_SDK/output/mx6sdl/obds/smart_device_rev_a/obj/apps/obds/src/tests/pmic_max17135.o
 .ARM.attributes
                0x0000000000000820       0x39 /home/leon/git/swp-report/iMX6_Platform_SDK/output/mx6sdl/obds/smart_device_rev_a/obj/apps/obds/src/tests/pmic_mc13892.o
 .ARM.attributes
                0x0000000000000859       0x39 /home/leon/git/swp-report/iMX6_Platform_SDK/output/mx6sdl/obds/smart_device_rev_a/obj/apps/obds/src/tests/program_board_id.o
 .ARM.attributes
                0x0000000000000892       0x39 /home/leon/git/swp-report/iMX6_Platform_SDK/output/mx6sdl/obds/smart_device_rev_a/obj/apps/obds/src/tests/program_mac_address.o
 .ARM.attributes
                0x00000000000008cb       0x39 /home/leon/git/swp-report/iMX6_Platform_SDK/output/mx6sdl/obds/smart_device_rev_a/obj/apps/obds/src/tests/snvs_srtc_test.o
 .ARM.attributes
                0x0000000000000904       0x39 /home/leon/git/swp-report/iMX6_Platform_SDK/output/mx6sdl/obds/smart_device_rev_a/obj/apps/obds/src/tests/touch_button_test.o
 .ARM.attributes
                0x000000000000093d       0x39 /home/leon/git/swp-report/iMX6_Platform_SDK/output/mx6sdl/obds/smart_device_rev_a/obj/apps/obds/src/tests/touch_screen.o
 .ARM.attributes
                0x0000000000000976       0x39 /home/leon/git/swp-report/iMX6_Platform_SDK/output/mx6sdl/obds/smart_device_rev_a/obj/apps/obds/src/tests/touch_screen_max11801.o
 .ARM.attributes
                0x00000000000009af       0x39 /home/leon/git/swp-report/iMX6_Platform_SDK/output/mx6sdl/obds/smart_device_rev_a/obj/apps/obds/src/tests/usb_tests_obds.o
 .ARM.attributes
                0x00000000000009e8       0x39 /home/leon/git/swp-report/iMX6_Platform_SDK/output/mx6sdl/obds/smart_device_rev_a/obj/apps/obds/src/tests/video_dec_ARD_MB_reset_button.o
 .ARM.attributes
                0x0000000000000a21       0x39 /home/leon/git/swp-report/iMX6_Platform_SDK/output/mx6sdl/obds/smart_device_rev_a/obj/apps/obds/src/tests/video_dec_ARD_MBrst_from_cpu_expander.o
 .ARM.attributes
                0x0000000000000a5a       0x39 /home/leon/git/swp-report/iMX6_Platform_SDK/output/mx6sdl/obds/smart_device_rev_a/obj/apps/obds/src/tests/video_dec_adv7180.o
 .ARM.attributes
                0x0000000000000a93       0x39 /home/leon/git/swp-report/iMX6_Platform_SDK/output/mx6sdl/obds/smart_device_rev_a/obj/apps/obds/src/tests/weim_nor_flash_test.o
 .ARM.attributes
                0x0000000000000acc       0x39 /home/leon/git/swp-report/iMX6_Platform_SDK/output/mx6sdl/obds/smart_device_rev_a/obj/sdk/common/ioexpander/test/max7310_test.o
 .ARM.attributes
                0x0000000000000b05       0x39 /home/leon/git/swp-report/iMX6_Platform_SDK/output/mx6sdl/obds/smart_device_rev_a/obj/sdk/common/pmic/pfuse/pf0100.o
 .ARM.attributes
                0x0000000000000b3e       0x39 /home/leon/git/swp-report/iMX6_Platform_SDK/output/mx6sdl/obds/smart_device_rev_a/obj/sdk/drivers/audio/src/snd_card.o
 .ARM.attributes
                0x0000000000000b77       0x39 /home/leon/git/swp-report/iMX6_Platform_SDK/output/mx6sdl/obds/smart_device_rev_a/obj/sdk/drivers/camera/test/adv7180_capture.o
 .ARM.attributes
                0x0000000000000bb0       0x39 /home/leon/git/swp-report/iMX6_Platform_SDK/output/mx6sdl/obds/smart_device_rev_a/obj/sdk/drivers/camera/test/camera_test.o
 .ARM.attributes
                0x0000000000000be9       0x39 /home/leon/git/swp-report/iMX6_Platform_SDK/output/mx6sdl/obds/smart_device_rev_a/obj/sdk/drivers/camera/test/csi_test_mode.o
 .ARM.attributes
                0x0000000000000c22       0x39 /home/leon/git/swp-report/iMX6_Platform_SDK/output/mx6sdl/obds/smart_device_rev_a/obj/sdk/drivers/camera/test/sensor_capture.o
 .ARM.attributes
                0x0000000000000c5b       0x39 /home/leon/git/swp-report/iMX6_Platform_SDK/output/mx6sdl/obds/smart_device_rev_a/obj/sdk/drivers/epdc/test/epdc_test.o
 .ARM.attributes
                0x0000000000000c94       0x39 /home/leon/git/swp-report/iMX6_Platform_SDK/output/mx6sdl/obds/smart_device_rev_a/obj/sdk/drivers/hdmi/test/hdmi_test.o
 .ARM.attributes
                0x0000000000000ccd       0x39 /home/leon/git/swp-report/iMX6_Platform_SDK/output/mx6sdl/obds/smart_device_rev_a/obj/sdk/drivers/hdmi/test/init_dma_data.o
 .ARM.attributes
                0x0000000000000d06       0x39 /home/leon/git/swp-report/iMX6_Platform_SDK/output/mx6sdl/obds/smart_device_rev_a/obj/sdk/drivers/ipu/test/ips_display.o
 .ARM.attributes
                0x0000000000000d3f       0x39 /home/leon/git/swp-report/iMX6_Platform_SDK/output/mx6sdl/obds/smart_device_rev_a/obj/sdk/drivers/ipu/test/ipu_image.o
 .ARM.attributes
                0x0000000000000d78       0x39 /home/leon/git/swp-report/iMX6_Platform_SDK/output/mx6sdl/obds/smart_device_rev_a/obj/sdk/drivers/spi/test/imx_spi_nor_atmel.o
 .ARM.attributes
                0x0000000000000db1       0x39 /home/leon/git/swp-report/iMX6_Platform_SDK/output/mx6sdl/obds/smart_device_rev_a/obj/sdk/drivers/spi/test/spi_nor_numonyx.o
 .ARM.attributes
                0x0000000000000dea       0x39 /home/leon/git/swp-report/iMX6_Platform_SDK/output/mx6sdl/obds/smart_device_rev_a/obj/sdk/drivers/uart/test/uart_test.o
 .ARM.attributes
                0x0000000000000e23       0x39 /home/leon/git/swp-report/iMX6_Platform_SDK/output/mx6sdl/obds/smart_device_rev_a/obj/sdk/drivers/usb/test/usb0_host_test.o
 .ARM.attributes
                0x0000000000000e5c       0x39 /home/leon/git/swp-report/iMX6_Platform_SDK/output/mx6sdl/obds/smart_device_rev_a/obj/sdk/drivers/usb/test/usb0_host_testmodes_test.o
 .ARM.attributes
                0x0000000000000e95       0x39 /home/leon/git/swp-report/iMX6_Platform_SDK/output/mx6sdl/obds/smart_device_rev_a/obj/sdk/drivers/usdhc/test/usdhc_test.o
 .ARM.attributes
                0x0000000000000ece       0x39 /home/leon/git/swp-report/iMX6_Platform_SDK/output/mx6sdl/lib/libsdk.a(max7310.o)
 .ARM.attributes
                0x0000000000000f07       0x39 /home/leon/git/swp-report/iMX6_Platform_SDK/output/mx6sdl/lib/libsdk.a(ccm_pll.o)
 .ARM.attributes
                0x0000000000000f40       0x16 /home/leon/git/swp-report/iMX6_Platform_SDK/output/mx6sdl/lib/libsdk.a(cortexA9.o)
 .ARM.attributes
                0x0000000000000f56       0x39 /home/leon/git/swp-report/iMX6_Platform_SDK/output/mx6sdl/lib/libsdk.a(gic.o)
 .ARM.attributes
                0x0000000000000f8f       0x39 /home/leon/git/swp-report/iMX6_Platform_SDK/output/mx6sdl/lib/libsdk.a(interrupt.o)
 .ARM.attributes
                0x0000000000000fc8       0x39 /home/leon/git/swp-report/iMX6_Platform_SDK/output/mx6sdl/lib/libsdk.a(mmu.o)
 .ARM.attributes
                0x0000000000001001       0x16 /home/leon/git/swp-report/iMX6_Platform_SDK/output/mx6sdl/lib/libsdk.a(startup.o)
 .ARM.attributes
                0x0000000000001017       0x14 /home/leon/git/swp-report/iMX6_Platform_SDK/output/mx6sdl/lib/libsdk.a(vectors.o)
 .ARM.attributes
                0x000000000000102b       0x39 /home/leon/git/swp-report/iMX6_Platform_SDK/output/mx6sdl/lib/libsdk.a(menu.o)
 .ARM.attributes
                0x0000000000001064       0x39 /home/leon/git/swp-report/iMX6_Platform_SDK/output/mx6sdl/lib/libsdk.a(sdk_version.o)
 .ARM.attributes
                0x000000000000109d       0x39 /home/leon/git/swp-report/iMX6_Platform_SDK/output/mx6sdl/lib/libsdk.a(system_util.o)
 .ARM.attributes
                0x00000000000010d6       0x39 /home/leon/git/swp-report/iMX6_Platform_SDK/output/mx6sdl/lib/libsdk.a(text_color.o)
 .ARM.attributes
                0x000000000000110f       0x39 /home/leon/git/swp-report/iMX6_Platform_SDK/output/mx6sdl/lib/libsdk.a(cs42888.o)
 .ARM.attributes
                0x0000000000001148       0x39 /home/leon/git/swp-report/iMX6_Platform_SDK/output/mx6sdl/lib/libsdk.a(imx-ssi.o)
 .ARM.attributes
                0x0000000000001181       0x39 /home/leon/git/swp-report/iMX6_Platform_SDK/output/mx6sdl/lib/libsdk.a(imx_audmux.o)
 .ARM.attributes
                0x00000000000011ba       0x39 /home/leon/git/swp-report/iMX6_Platform_SDK/output/mx6sdl/lib/libsdk.a(imx_esai.o)
 .ARM.attributes
                0x00000000000011f3       0x39 /home/leon/git/swp-report/iMX6_Platform_SDK/output/mx6sdl/lib/libsdk.a(imx_spdif.o)
 .ARM.attributes
                0x000000000000122c       0x39 /home/leon/git/swp-report/iMX6_Platform_SDK/output/mx6sdl/lib/libsdk.a(sgtl5000.o)
 .ARM.attributes
                0x0000000000001265       0x39 /home/leon/git/swp-report/iMX6_Platform_SDK/output/mx6sdl/lib/libsdk.a(wm8958_dac.o)
 .ARM.attributes
                0x000000000000129e       0x39 /home/leon/git/swp-report/iMX6_Platform_SDK/output/mx6sdl/lib/libsdk.a(wm8962.o)
 .ARM.attributes
                0x00000000000012d7       0x39 /home/leon/git/swp-report/iMX6_Platform_SDK/output/mx6sdl/lib/libsdk.a(board_id.o)
 .ARM.attributes
                0x0000000000001310       0x39 /home/leon/git/swp-report/iMX6_Platform_SDK/output/mx6sdl/lib/libsdk.a(smd_sensor.o)
 .ARM.attributes
                0x0000000000001349       0x39 /home/leon/git/swp-report/iMX6_Platform_SDK/output/mx6sdl/lib/libsdk.a(enet_drv.o)
 .ARM.attributes
                0x0000000000001382       0x39 /home/leon/git/swp-report/iMX6_Platform_SDK/output/mx6sdl/lib/libsdk.a(mxc_epdc.o)
 .ARM.attributes
                0x00000000000013bb       0x39 /home/leon/git/swp-report/iMX6_Platform_SDK/output/mx6sdl/lib/libsdk.a(gpio.o)
 .ARM.attributes
                0x00000000000013f4       0x39 /home/leon/git/swp-report/iMX6_Platform_SDK/output/mx6sdl/lib/libsdk.a(imx6sdl_gpio_map.o)
 .ARM.attributes
                0x000000000000142d       0x39 /home/leon/git/swp-report/iMX6_Platform_SDK/output/mx6sdl/lib/libsdk.a(hdmi_tx.o)
 .ARM.attributes
                0x0000000000001466       0x39 /home/leon/git/swp-report/iMX6_Platform_SDK/output/mx6sdl/lib/libsdk.a(hdmi_tx_audio.o)
 .ARM.attributes
                0x000000000000149f       0x39 /home/leon/git/swp-report/iMX6_Platform_SDK/output/mx6sdl/lib/libsdk.a(hdmi_tx_phy.o)
 .ARM.attributes
                0x00000000000014d8       0x39 /home/leon/git/swp-report/iMX6_Platform_SDK/output/mx6sdl/lib/libsdk.a(imx_i2c.o)
 .ARM.attributes
                0x0000000000001511       0x39 /home/leon/git/swp-report/iMX6_Platform_SDK/output/mx6sdl/lib/libsdk.a(ips_disp_panel.o)
 .ARM.attributes
                0x000000000000154a       0x39 /home/leon/git/swp-report/iMX6_Platform_SDK/output/mx6sdl/lib/libsdk.a(ipu_common.o)
 .ARM.attributes
                0x0000000000001583       0x39 /home/leon/git/swp-report/iMX6_Platform_SDK/output/mx6sdl/lib/libsdk.a(ipu_csi.o)
 .ARM.attributes
                0x00000000000015bc       0x39 /home/leon/git/swp-report/iMX6_Platform_SDK/output/mx6sdl/lib/libsdk.a(ipu_dc.o)
 .ARM.attributes
                0x00000000000015f5       0x39 /home/leon/git/swp-report/iMX6_Platform_SDK/output/mx6sdl/lib/libsdk.a(ipu_di.o)
 .ARM.attributes
                0x000000000000162e       0x39 /home/leon/git/swp-report/iMX6_Platform_SDK/output/mx6sdl/lib/libsdk.a(ipu_dmfc.o)
 .ARM.attributes
                0x0000000000001667       0x39 /home/leon/git/swp-report/iMX6_Platform_SDK/output/mx6sdl/lib/libsdk.a(ipu_dp.o)
 .ARM.attributes
                0x00000000000016a0       0x39 /home/leon/git/swp-report/iMX6_Platform_SDK/output/mx6sdl/lib/libsdk.a(ipu_idmac.o)
 .ARM.attributes
                0x00000000000016d9       0x39 /home/leon/git/swp-report/iMX6_Platform_SDK/output/mx6sdl/lib/libsdk.a(ipu_vdi.o)
 .ARM.attributes
                0x0000000000001712       0x39 /home/leon/git/swp-report/iMX6_Platform_SDK/output/mx6sdl/lib/libsdk.a(ldb.o)
 .ARM.attributes
                0x000000000000174b       0x39 /home/leon/git/swp-report/iMX6_Platform_SDK/output/mx6sdl/lib/libsdk.a(ocotp.o)
 .ARM.attributes
                0x0000000000001784       0x39 /home/leon/git/swp-report/iMX6_Platform_SDK/output/mx6sdl/lib/libsdk.a(ecspi.o)
 .ARM.attributes
                0x00000000000017bd       0x39 /home/leon/git/swp-report/iMX6_Platform_SDK/output/mx6sdl/lib/libsdk.a(timer.o)
 .ARM.attributes
                0x00000000000017f6       0x39 /home/leon/git/swp-report/iMX6_Platform_SDK/output/mx6sdl/lib/libsdk.a(imx_uart.o)
 .ARM.attributes
                0x000000000000182f       0x39 /home/leon/git/swp-report/iMX6_Platform_SDK/output/mx6sdl/lib/libsdk.a(usb_common.o)
 .ARM.attributes
                0x0000000000001868       0x39 /home/leon/git/swp-report/iMX6_Platform_SDK/output/mx6sdl/lib/libsdk.a(usbh_drv.o)
 .ARM.attributes
                0x00000000000018a1       0x39 /home/leon/git/swp-report/iMX6_Platform_SDK/output/mx6sdl/lib/libsdk.a(usdhc.o)
 .ARM.attributes
                0x00000000000018da       0x39 /home/leon/git/swp-report/iMX6_Platform_SDK/output/mx6sdl/lib/libsdk.a(usdhc_host.o)
 .ARM.attributes
                0x0000000000001913       0x39 /home/leon/git/swp-report/iMX6_Platform_SDK/output/mx6sdl/lib/libsdk.a(usdhc_mmc.o)
 .ARM.attributes
                0x000000000000194c       0x39 /home/leon/git/swp-report/iMX6_Platform_SDK/output/mx6sdl/lib/libsdk.a(usdhc_sd.o)
 .ARM.attributes
                0x0000000000001985       0x14 /home/leon/git/swp-report/iMX6_Platform_SDK/output/mx6sdl/lib/libsdk.a(arm_abort.o)
 .ARM.attributes
                0x0000000000001999       0x39 /home/leon/git/swp-report/iMX6_Platform_SDK/output/mx6sdl/lib/libsdk.a(armv7_cache.o)
 .ARM.attributes
                0x00000000000019d2       0x39 /home/leon/git/swp-report/iMX6_Platform_SDK/output/mx6sdl/lib/libsdk.a(camera_profile.o)
 .ARM.attributes
                0x0000000000001a0b       0x39 /home/leon/git/swp-report/iMX6_Platform_SDK/output/mx6sdl/lib/libsdk.a(hdmi_common.o)
 .ARM.attributes
                0x0000000000001a44       0x39 /home/leon/git/swp-report/iMX6_Platform_SDK/output/mx6sdl/lib/libsdk.a(ipu_ic.o)
 .ARM.attributes
                0x0000000000001a7d       0x39 /home/leon/git/swp-report/iMX6_Platform_SDK/output/mx6sdl/lib/libsdk.a(epit.o)
 .ARM.attributes
                0x0000000000001ab6       0x39 /home/leon/git/swp-report/iMX6_Platform_SDK/output/mx6sdl/lib/libsdk.a(mx6x_usb.o)
 .ARM.attributes
                0x0000000000001aef       0x39 /home/leon/git/swp-report/iMX6_Platform_SDK/output/mx6sdl/lib/libsdk.a(abort_handler.o)
 .ARM.attributes
                0x0000000000001b28       0x39 /home/leon/git/swp-report/iMX6_Platform_SDK/output/mx6sdl/lib/libboard_smart_device_rev_a.a(board_audio.o)
 .ARM.attributes
                0x0000000000001b61       0x39 /home/leon/git/swp-report/iMX6_Platform_SDK/output/mx6sdl/lib/libboard_smart_device_rev_a.a(board_buttons.o)
 .ARM.attributes
                0x0000000000001b9a       0x39 /home/leon/git/swp-report/iMX6_Platform_SDK/output/mx6sdl/lib/libboard_smart_device_rev_a.a(board_camera.o)
 .ARM.attributes
                0x0000000000001bd3       0x39 /home/leon/git/swp-report/iMX6_Platform_SDK/output/mx6sdl/lib/libboard_smart_device_rev_a.a(board_display.o)
 .ARM.attributes
                0x0000000000001c0c       0x39 /home/leon/git/swp-report/iMX6_Platform_SDK/output/mx6sdl/lib/libboard_smart_device_rev_a.a(board_hdmi.o)
 .ARM.attributes
                0x0000000000001c45       0x39 /home/leon/git/swp-report/iMX6_Platform_SDK/output/mx6sdl/lib/libboard_smart_device_rev_a.a(board_i2c.o)
 .ARM.attributes
                0x0000000000001c7e       0x39 /home/leon/git/swp-report/iMX6_Platform_SDK/output/mx6sdl/lib/libboard_smart_device_rev_a.a(board_io_expanders.o)
 .ARM.attributes
                0x0000000000001cb7       0x39 /home/leon/git/swp-report/iMX6_Platform_SDK/output/mx6sdl/lib/libboard_smart_device_rev_a.a(board_mipi.o)
 .ARM.attributes
                0x0000000000001cf0       0x39 /home/leon/git/swp-report/iMX6_Platform_SDK/output/mx6sdl/lib/libboard_smart_device_rev_a.a(board_network.o)
 .ARM.attributes
                0x0000000000001d29       0x39 /home/leon/git/swp-report/iMX6_Platform_SDK/output/mx6sdl/lib/libboard_smart_device_rev_a.a(board_usb.o)
 .ARM.attributes
                0x0000000000001d62       0x39 /home/leon/git/swp-report/iMX6_Platform_SDK/output/mx6sdl/lib/libboard_smart_device_rev_a.a(board_usdhc.o)
 .ARM.attributes
                0x0000000000001d9b       0x39 /home/leon/git/swp-report/iMX6_Platform_SDK/output/mx6sdl/lib/libboard_smart_device_rev_a.a(hardware_modules.o)
 .ARM.attributes
                0x0000000000001dd4       0x39 /home/leon/git/swp-report/iMX6_Platform_SDK/output/mx6sdl/lib/libboard_smart_device_rev_a.a(dcd.o)
 .ARM.attributes
                0x0000000000001e0d       0x39 /home/leon/git/swp-report/iMX6_Platform_SDK/output/mx6sdl/lib/libboard_smart_device_rev_a.a(audmux_iomux_config.o)
 .ARM.attributes
                0x0000000000001e46       0x39 /home/leon/git/swp-report/iMX6_Platform_SDK/output/mx6sdl/lib/libboard_smart_device_rev_a.a(ccm_iomux_config.o)
 .ARM.attributes
                0x0000000000001e7f       0x39 /home/leon/git/swp-report/iMX6_Platform_SDK/output/mx6sdl/lib/libboard_smart_device_rev_a.a(ecspi_iomux_config.o)
 .ARM.attributes
                0x0000000000001eb8       0x39 /home/leon/git/swp-report/iMX6_Platform_SDK/output/mx6sdl/lib/libboard_smart_device_rev_a.a(enet_iomux_config.o)
 .ARM.attributes
                0x0000000000001ef1       0x39 /home/leon/git/swp-report/iMX6_Platform_SDK/output/mx6sdl/lib/libboard_smart_device_rev_a.a(epdc_iomux_config.o)
 .ARM.attributes
                0x0000000000001f2a       0x39 /home/leon/git/swp-report/iMX6_Platform_SDK/output/mx6sdl/lib/libboard_smart_device_rev_a.a(i2c_iomux_config.o)
 .ARM.attributes
                0x0000000000001f63       0x39 /home/leon/git/swp-report/iMX6_Platform_SDK/output/mx6sdl/lib/libboard_smart_device_rev_a.a(iomux_config.o)
 .ARM.attributes
                0x0000000000001f9c       0x39 /home/leon/git/swp-report/iMX6_Platform_SDK/output/mx6sdl/lib/libboard_smart_device_rev_a.a(ipu1_iomux_config.o)
 .ARM.attributes
                0x0000000000001fd5       0x39 /home/leon/git/swp-report/iMX6_Platform_SDK/output/mx6sdl/lib/libboard_smart_device_rev_a.a(ipu_iomux_config.o)
 .ARM.attributes
                0x000000000000200e       0x39 /home/leon/git/swp-report/iMX6_Platform_SDK/output/mx6sdl/lib/libboard_smart_device_rev_a.a(kpp_iomux_config.o)
 .ARM.attributes
                0x0000000000002047       0x39 /home/leon/git/swp-report/iMX6_Platform_SDK/output/mx6sdl/lib/libboard_smart_device_rev_a.a(mmdc_iomux_config.o)
 .ARM.attributes
                0x0000000000002080       0x39 /home/leon/git/swp-report/iMX6_Platform_SDK/output/mx6sdl/lib/libboard_smart_device_rev_a.a(pwm1_iomux_config.o)
 .ARM.attributes
                0x00000000000020b9       0x39 /home/leon/git/swp-report/iMX6_Platform_SDK/output/mx6sdl/lib/libboard_smart_device_rev_a.a(sjc_iomux_config.o)
 .ARM.attributes
                0x00000000000020f2       0x39 /home/leon/git/swp-report/iMX6_Platform_SDK/output/mx6sdl/lib/libboard_smart_device_rev_a.a(uart1_iomux_config.o)
 .ARM.attributes
                0x000000000000212b       0x39 /home/leon/git/swp-report/iMX6_Platform_SDK/output/mx6sdl/lib/libboard_smart_device_rev_a.a(uart_iomux_config.o)
 .ARM.attributes
                0x0000000000002164       0x39 /home/leon/git/swp-report/iMX6_Platform_SDK/output/mx6sdl/lib/libboard_smart_device_rev_a.a(usdhc2_iomux_config.o)
 .ARM.attributes
                0x000000000000219d       0x39 /home/leon/git/swp-report/iMX6_Platform_SDK/output/mx6sdl/lib/libboard_smart_device_rev_a.a(usdhc3_iomux_config.o)
 .ARM.attributes
                0x00000000000021d6       0x39 /home/leon/git/swp-report/iMX6_Platform_SDK/output/mx6sdl/lib/libboard_smart_device_rev_a.a(usdhc4_iomux_config.o)
 .ARM.attributes
                0x000000000000220f       0x39 /home/leon/git/swp-report/iMX6_Platform_SDK/output/mx6sdl/lib/libboard_smart_device_rev_a.a(usdhc_iomux_config.o)
 .ARM.attributes
                0x0000000000002248       0x39 /home/leon/git/swp-report/iMX6_Platform_SDK/output/mx6sdl/lib/libboard_smart_device_rev_a.a(ecspi1_iomux_config.o)
 .ARM.attributes
                0x0000000000002281       0x39 /home/leon/git/swp-report/iMX6_Platform_SDK/output/mx6sdl/lib/libboard_smart_device_rev_a.a(flexcan1_iomux_config.o)
 .ARM.attributes
                0x00000000000022ba       0x39 /home/leon/git/swp-report/iMX6_Platform_SDK/output/mx6sdl/lib/libboard_smart_device_rev_a.a(gpio1_iomux_config.o)
 .ARM.attributes
                0x00000000000022f3       0x39 /home/leon/git/swp-report/iMX6_Platform_SDK/output/mx6sdl/lib/libboard_smart_device_rev_a.a(gpio2_iomux_config.o)
 .ARM.attributes
                0x000000000000232c       0x39 /home/leon/git/swp-report/iMX6_Platform_SDK/output/mx6sdl/lib/libboard_smart_device_rev_a.a(gpio3_iomux_config.o)
 .ARM.attributes
                0x0000000000002365       0x39 /home/leon/git/swp-report/iMX6_Platform_SDK/output/mx6sdl/lib/libboard_smart_device_rev_a.a(gpio4_iomux_config.o)
 .ARM.attributes
                0x000000000000239e       0x39 /home/leon/git/swp-report/iMX6_Platform_SDK/output/mx6sdl/lib/libboard_smart_device_rev_a.a(gpio5_iomux_config.o)
 .ARM.attributes
                0x00000000000023d7       0x39 /home/leon/git/swp-report/iMX6_Platform_SDK/output/mx6sdl/lib/libboard_smart_device_rev_a.a(gpio6_iomux_config.o)
 .ARM.attributes
                0x0000000000002410       0x39 /home/leon/git/swp-report/iMX6_Platform_SDK/output/mx6sdl/lib/libboard_smart_device_rev_a.a(gpio7_iomux_config.o)
 .ARM.attributes
                0x0000000000002449       0x39 /home/leon/git/swp-report/iMX6_Platform_SDK/output/mx6sdl/lib/libboard_smart_device_rev_a.a(gps_iomux_config.o)
 .ARM.attributes
                0x0000000000002482       0x39 /home/leon/git/swp-report/iMX6_Platform_SDK/output/mx6sdl/lib/libboard_smart_device_rev_a.a(i2c1_iomux_config.o)
 .ARM.attributes
                0x00000000000024bb       0x39 /home/leon/git/swp-report/iMX6_Platform_SDK/output/mx6sdl/lib/libboard_smart_device_rev_a.a(i2c2_iomux_config.o)
 .ARM.attributes
                0x00000000000024f4       0x39 /home/leon/git/swp-report/iMX6_Platform_SDK/output/mx6sdl/lib/libboard_smart_device_rev_a.a(i2c3_iomux_config.o)
 .ARM.attributes
                0x000000000000252d       0x30 /home/src/arm/target/bin/../arm-none-eabi/lib//libc.a(lib_a-assert.o)
 .ARM.attributes
                0x000000000000255d       0x30 /home/src/arm/target/bin/../arm-none-eabi/lib//libc.a(lib_a-bzero.o)
 .ARM.attributes
                0x000000000000258d       0x30 /home/src/arm/target/bin/../arm-none-eabi/lib//libc.a(lib_a-fiprintf.o)
 .ARM.attributes
                0x00000000000025bd       0x30 /home/src/arm/target/bin/../arm-none-eabi/lib//libc.a(lib_a-fputc.o)
 .ARM.attributes
                0x00000000000025ed       0x30 /home/src/arm/target/bin/../arm-none-eabi/lib//libc.a(lib_a-impure.o)
 .ARM.attributes
                0x000000000000261d       0x30 /home/src/arm/target/bin/../arm-none-eabi/lib//libc.a(lib_a-init.o)
 .ARM.attributes
                0x000000000000264d       0x30 /home/src/arm/target/bin/../arm-none-eabi/lib//libc.a(lib_a-malloc.o)
 .ARM.attributes
                0x000000000000267d       0x30 /home/src/arm/target/bin/../arm-none-eabi/lib//libc.a(lib_a-mallocr.o)
 .ARM.attributes
                0x00000000000026ad       0x30 /home/src/arm/target/bin/../arm-none-eabi/lib//libc.a(lib_a-memcpy-stub.o)
 .ARM.attributes
                0x00000000000026dd       0x30 /home/src/arm/target/bin/../arm-none-eabi/lib//libc.a(lib_a-memset.o)
 .ARM.attributes
                0x000000000000270d       0x30 /home/src/arm/target/bin/../arm-none-eabi/lib//libc.a(lib_a-mlock.o)
 .ARM.attributes
                0x000000000000273d       0x30 /home/src/arm/target/bin/../arm-none-eabi/lib//libc.a(lib_a-printf.o)
 .ARM.attributes
                0x000000000000276d       0x30 /home/src/arm/target/bin/../arm-none-eabi/lib//libc.a(lib_a-putc.o)
 .ARM.attributes
                0x000000000000279d       0x30 /home/src/arm/target/bin/../arm-none-eabi/lib//libc.a(lib_a-realloc.o)
 .ARM.attributes
                0x00000000000027cd       0x30 /home/src/arm/target/bin/../arm-none-eabi/lib//libc.a(lib_a-reallocr.o)
 .ARM.attributes
                0x00000000000027fd       0x30 /home/src/arm/target/bin/../arm-none-eabi/lib//libc.a(lib_a-rget.o)
 .ARM.attributes
                0x000000000000282d       0x30 /home/src/arm/target/bin/../arm-none-eabi/lib//libc.a(lib_a-sbrkr.o)
 .ARM.attributes
                0x000000000000285d       0x30 /home/src/arm/target/bin/../arm-none-eabi/lib//libc.a(lib_a-sprintf.o)
 .ARM.attributes
                0x000000000000288d       0x30 /home/src/arm/target/bin/../arm-none-eabi/lib//libc.a(lib_a-strcat.o)
 .ARM.attributes
                0x00000000000028bd       0x16 /home/src/arm/target/bin/../arm-none-eabi/lib//libc.a(lib_a-strcmp.o)
 .ARM.attributes
                0x00000000000028d3       0x30 /home/src/arm/target/bin/../arm-none-eabi/lib//libc.a(lib_a-strcpy.o)
 .ARM.attributes
                0x0000000000002903       0x30 /home/src/arm/target/bin/../arm-none-eabi/lib//libc.a(lib_a-strlen.o)
 .ARM.attributes
                0x0000000000002933       0x30 /home/src/arm/target/bin/../arm-none-eabi/lib//libc.a(lib_a-strncasecmp.o)
 .ARM.attributes
                0x0000000000002963       0x30 /home/src/arm/target/bin/../arm-none-eabi/lib//libc.a(lib_a-strtok.o)
 .ARM.attributes
                0x0000000000002993       0x30 /home/src/arm/target/bin/../arm-none-eabi/lib//libc.a(lib_a-strtok_r.o)
 .ARM.attributes
                0x00000000000029c3       0x30 /home/src/arm/target/bin/../arm-none-eabi/lib//libc.a(lib_a-svfprintf.o)
 .ARM.attributes
                0x00000000000029f3       0x30 /home/src/arm/target/bin/../arm-none-eabi/lib//libc.a(lib_a-syscalls.o)
 .ARM.attributes
                0x0000000000002a23       0x30 /home/src/arm/target/bin/../arm-none-eabi/lib//libc.a(lib_a-vfiprintf.o)
 .ARM.attributes
                0x0000000000002a53       0x30 /home/src/arm/target/bin/../arm-none-eabi/lib//libc.a(lib_a-vfprintf.o)
 .ARM.attributes
                0x0000000000002a83       0x30 /home/src/arm/target/bin/../arm-none-eabi/lib//libc.a(lib_a-vprintf.o)
 .ARM.attributes
                0x0000000000002ab3       0x30 /home/src/arm/target/bin/../arm-none-eabi/lib//libc.a(lib_a-wbuf.o)
 .ARM.attributes
                0x0000000000002ae3       0x30 /home/src/arm/target/bin/../arm-none-eabi/lib//libc.a(lib_a-wsetup.o)
 .ARM.attributes
                0x0000000000002b13       0x30 /home/src/arm/target/bin/../arm-none-eabi/lib//libc.a(lib_a-abort.o)
 .ARM.attributes
                0x0000000000002b43       0x30 /home/src/arm/target/bin/../arm-none-eabi/lib//libc.a(lib_a-ctype_.o)
 .ARM.attributes
                0x0000000000002b73       0x30 /home/src/arm/target/bin/../arm-none-eabi/lib//libc.a(lib_a-dtoa.o)
 .ARM.attributes
                0x0000000000002ba3       0x30 /home/src/arm/target/bin/../arm-none-eabi/lib//libc.a(lib_a-errno.o)
 .ARM.attributes
                0x0000000000002bd3       0x30 /home/src/arm/target/bin/../arm-none-eabi/lib//libc.a(lib_a-fflush.o)
 .ARM.attributes
                0x0000000000002c03       0x30 /home/src/arm/target/bin/../arm-none-eabi/lib//libc.a(lib_a-findfp.o)
 .ARM.attributes
                0x0000000000002c33       0x30 /home/src/arm/target/bin/../arm-none-eabi/lib//libc.a(lib_a-fputwc.o)
 .ARM.attributes
                0x0000000000002c63       0x30 /home/src/arm/target/bin/../arm-none-eabi/lib//libc.a(lib_a-freer.o)
 .ARM.attributes
                0x0000000000002c93       0x30 /home/src/arm/target/bin/../arm-none-eabi/lib//libc.a(lib_a-fvwrite.o)
 .ARM.attributes
                0x0000000000002cc3       0x30 /home/src/arm/target/bin/../arm-none-eabi/lib//libc.a(lib_a-fwalk.o)
 .ARM.attributes
                0x0000000000002cf3       0x30 /home/src/arm/target/bin/../arm-none-eabi/lib//libc.a(lib_a-locale.o)
 .ARM.attributes
                0x0000000000002d23       0x30 /home/src/arm/target/bin/../arm-none-eabi/lib//libc.a(lib_a-makebuf.o)
 .ARM.attributes
                0x0000000000002d53       0x30 /home/src/arm/target/bin/../arm-none-eabi/lib//libc.a(lib_a-memchr-stub.o)
 .ARM.attributes
                0x0000000000002d83       0x30 /home/src/arm/target/bin/../arm-none-eabi/lib//libc.a(lib_a-memmove.o)
 .ARM.attributes
                0x0000000000002db3       0x30 /home/src/arm/target/bin/../arm-none-eabi/lib//libc.a(lib_a-mprec.o)
 .ARM.attributes
                0x0000000000002de3       0x30 /home/src/arm/target/bin/../arm-none-eabi/lib//libc.a(lib_a-reent.o)
 .ARM.attributes
                0x0000000000002e13       0x30 /home/src/arm/target/bin/../arm-none-eabi/lib//libc.a(lib_a-refill.o)
 .ARM.attributes
                0x0000000000002e43       0x30 /home/src/arm/target/bin/../arm-none-eabi/lib//libc.a(lib_a-s_fpclassify.o)
 .ARM.attributes
                0x0000000000002e73       0x30 /home/src/arm/target/bin/../arm-none-eabi/lib//libc.a(lib_a-signal.o)
 .ARM.attributes
                0x0000000000002ea3       0x30 /home/src/arm/target/bin/../arm-none-eabi/lib//libc.a(lib_a-signalr.o)
 .ARM.attributes
                0x0000000000002ed3       0x30 /home/src/arm/target/bin/../arm-none-eabi/lib//libc.a(lib_a-stdio.o)
 .ARM.attributes
                0x0000000000002f03       0x30 /home/src/arm/target/bin/../arm-none-eabi/lib//libc.a(lib_a-svfiprintf.o)
 .ARM.attributes
                0x0000000000002f33       0x30 /home/src/arm/target/bin/../arm-none-eabi/lib//libc.a(lib_a-wcrtomb.o)
 .ARM.attributes
                0x0000000000002f63       0x30 /home/src/arm/target/bin/../arm-none-eabi/lib//libc.a(lib_a-wctomb_r.o)
 .ARM.attributes
                0x0000000000002f93       0x30 /home/src/arm/target/bin/../arm-none-eabi/lib//libc.a(lib_a-writer.o)
 .ARM.attributes
                0x0000000000002fc3       0x30 /home/src/arm/target/bin/../arm-none-eabi/lib//libc.a(lib_a-callocr.o)
 .ARM.attributes
                0x0000000000002ff3       0x30 /home/src/arm/target/bin/../arm-none-eabi/lib//libc.a(lib_a-closer.o)
 .ARM.attributes
                0x0000000000003023       0x30 /home/src/arm/target/bin/../arm-none-eabi/lib//libc.a(lib_a-fclose.o)
 .ARM.attributes
                0x0000000000003053       0x30 /home/src/arm/target/bin/../arm-none-eabi/lib//libc.a(lib_a-fstatr.o)
 .ARM.attributes
                0x0000000000003083       0x30 /home/src/arm/target/bin/../arm-none-eabi/lib//libc.a(lib_a-isattyr.o)
 .ARM.attributes
                0x00000000000030b3       0x30 /home/src/arm/target/bin/../arm-none-eabi/lib//libc.a(lib_a-lseekr.o)
 .ARM.attributes
                0x00000000000030e3       0x30 /home/src/arm/target/bin/../arm-none-eabi/lib//libc.a(lib_a-readr.o)
 .ARM.attributes
                0x0000000000003113       0x18 /home/src/arm/target/bin/../lib/gcc/arm-none-eabi/4.8.2//libgcc.a(_udivsi3.o)
 .ARM.attributes
                0x000000000000312b       0x18 /home/src/arm/target/bin/../lib/gcc/arm-none-eabi/4.8.2//libgcc.a(_divsi3.o)
 .ARM.attributes
                0x0000000000003143       0x18 /home/src/arm/target/bin/../lib/gcc/arm-none-eabi/4.8.2//libgcc.a(_dvmd_tls.o)
 .ARM.attributes
                0x000000000000315b       0x18 /home/src/arm/target/bin/../lib/gcc/arm-none-eabi/4.8.2//libgcc.a(_arm_addsubdf3.o)
 .ARM.attributes
                0x0000000000003173       0x18 /home/src/arm/target/bin/../lib/gcc/arm-none-eabi/4.8.2//libgcc.a(_arm_muldivdf3.o)
 .ARM.attributes
                0x000000000000318b       0x18 /home/src/arm/target/bin/../lib/gcc/arm-none-eabi/4.8.2//libgcc.a(_arm_cmpdf2.o)
 .ARM.attributes
                0x00000000000031a3       0x18 /home/src/arm/target/bin/../lib/gcc/arm-none-eabi/4.8.2//libgcc.a(_arm_fixdfsi.o)
 .ARM.attributes
                0x00000000000031bb       0x18 /home/src/arm/target/bin/../lib/gcc/arm-none-eabi/4.8.2//libgcc.a(_aeabi_uldivmod.o)
 .ARM.attributes
                0x00000000000031d3       0x30 /home/src/arm/target/bin/../lib/gcc/arm-none-eabi/4.8.2//libgcc.a(bpabi.o)
 .ARM.attributes
                0x0000000000003203       0x30 /home/src/arm/target/bin/../lib/gcc/arm-none-eabi/4.8.2//libgcc.a(_divdi3.o)
 .ARM.attributes
                0x0000000000003233       0x30 /home/src/arm/target/bin/../lib/gcc/arm-none-eabi/4.8.2//libgcc.a(_udivdi3.o)
 .ARM.attributes
                0x0000000000003263       0x18 /home/src/arm/target/bin/../lib/gcc/arm-none-eabi/4.8.2//libgcc.a(_clzsi2.o)

.debug_info     0x0000000000000000    0x858ed
 .debug_info    0x0000000000000000      0x1ff /home/leon/git/swp-report/iMX6_Platform_SDK/output/mx6sdl/obds/smart_device_rev_a/obj/apps/common/ivt.o
 .debug_info    0x00000000000001ff      0x191 /home/leon/git/swp-report/iMX6_Platform_SDK/output/mx6sdl/obds/smart_device_rev_a/obj/apps/common/platform_init.o
 .debug_info    0x0000000000000390      0x16f /home/leon/git/swp-report/iMX6_Platform_SDK/output/mx6sdl/obds/smart_device_rev_a/obj/apps/common/print_clock_info.o
 .debug_info    0x00000000000004ff      0x1aa /home/leon/git/swp-report/iMX6_Platform_SDK/output/mx6sdl/obds/smart_device_rev_a/obj/apps/common/print_version.o
 .debug_info    0x00000000000006a9      0xaf3 /home/leon/git/swp-report/iMX6_Platform_SDK/output/mx6sdl/obds/smart_device_rev_a/obj/apps/obds/src/obds.o
 .debug_info    0x000000000000119c      0x19d /home/leon/git/swp-report/iMX6_Platform_SDK/output/mx6sdl/obds/smart_device_rev_a/obj/apps/obds/src/obds_utils.o
 .debug_info    0x0000000000001339      0x9d9 /home/leon/git/swp-report/iMX6_Platform_SDK/output/mx6sdl/obds/smart_device_rev_a/obj/apps/obds/src/tests/android_buttons_test.o
 .debug_info    0x0000000000001d12      0xdfe /home/leon/git/swp-report/iMX6_Platform_SDK/output/mx6sdl/obds/smart_device_rev_a/obj/apps/obds/src/tests/audio_esai_test.o
 .debug_info    0x0000000000002b10      0xea2 /home/leon/git/swp-report/iMX6_Platform_SDK/output/mx6sdl/obds/smart_device_rev_a/obj/apps/obds/src/tests/audio_ssi_test.o
 .debug_info    0x00000000000039b2      0x409 /home/leon/git/swp-report/iMX6_Platform_SDK/output/mx6sdl/obds/smart_device_rev_a/obj/apps/obds/src/tests/ddr_test.o
 .debug_info    0x0000000000003dbb      0x171 /home/leon/git/swp-report/iMX6_Platform_SDK/output/mx6sdl/obds/smart_device_rev_a/obj/apps/obds/src/tests/deserializer_ds90ur124.o
 .debug_info    0x0000000000003f2c      0xed5 /home/leon/git/swp-report/iMX6_Platform_SDK/output/mx6sdl/obds/smart_device_rev_a/obj/apps/obds/src/tests/display_test.o
 .debug_info    0x0000000000004e01     0x1d3c /home/leon/git/swp-report/iMX6_Platform_SDK/output/mx6sdl/obds/smart_device_rev_a/obj/apps/obds/src/tests/enet_mx6dldq_test.o
 .debug_info    0x0000000000006b3d      0x138 /home/leon/git/swp-report/iMX6_Platform_SDK/output/mx6sdl/obds/smart_device_rev_a/obj/apps/obds/src/tests/flexcan_test.o
 .debug_info    0x0000000000006c75      0x26e /home/leon/git/swp-report/iMX6_Platform_SDK/output/mx6sdl/obds/smart_device_rev_a/obj/apps/obds/src/tests/fm_tuner_si476x_test.o
 .debug_info    0x0000000000006ee3      0x9c4 /home/leon/git/swp-report/iMX6_Platform_SDK/output/mx6sdl/obds/smart_device_rev_a/obj/apps/obds/src/tests/gpio_led.o
 .debug_info    0x00000000000078a7      0x182 /home/leon/git/swp-report/iMX6_Platform_SDK/output/mx6sdl/obds/smart_device_rev_a/obj/apps/obds/src/tests/gps_test.o
 .debug_info    0x0000000000007a29      0xc79 /home/leon/git/swp-report/iMX6_Platform_SDK/output/mx6sdl/obds/smart_device_rev_a/obj/apps/obds/src/tests/i2c_check_light_sensor_isl29023.o
 .debug_info    0x00000000000086a2      0x3a7 /home/leon/git/swp-report/iMX6_Platform_SDK/output/mx6sdl/obds/smart_device_rev_a/obj/apps/obds/src/tests/i2c_device_barometer_ppl3115.o
 .debug_info    0x0000000000008a49      0x508 /home/leon/git/swp-report/iMX6_Platform_SDK/output/mx6sdl/obds/smart_device_rev_a/obj/apps/obds/src/tests/i2c_device_check_cs42888.o
 .debug_info    0x0000000000008f51      0x370 /home/leon/git/swp-report/iMX6_Platform_SDK/output/mx6sdl/obds/smart_device_rev_a/obj/apps/obds/src/tests/i2c_device_digital_compass_mag3110.o
 .debug_info    0x00000000000092c1      0x370 /home/leon/git/swp-report/iMX6_Platform_SDK/output/mx6sdl/obds/smart_device_rev_a/obj/apps/obds/src/tests/i2c_device_digital_compass_mag3112.o
 .debug_info    0x0000000000009631      0xcd3 /home/leon/git/swp-report/iMX6_Platform_SDK/output/mx6sdl/obds/smart_device_rev_a/obj/apps/obds/src/tests/i2c_device_id_check_mma8450.o
 .debug_info    0x000000000000a304      0xcd3 /home/leon/git/swp-report/iMX6_Platform_SDK/output/mx6sdl/obds/smart_device_rev_a/obj/apps/obds/src/tests/i2c_device_id_check_mma8451.o
 .debug_info    0x000000000000afd7      0xc9f /home/leon/git/swp-report/iMX6_Platform_SDK/output/mx6sdl/obds/smart_device_rev_a/obj/apps/obds/src/tests/i2c_device_id_check_p1003_tsc.o
 .debug_info    0x000000000000bc76      0x4c8 /home/leon/git/swp-report/iMX6_Platform_SDK/output/mx6sdl/obds/smart_device_rev_a/obj/apps/obds/src/tests/i2c_device_temp_sensor_emc1046.o
 .debug_info    0x000000000000c13e      0x37e /home/leon/git/swp-report/iMX6_Platform_SDK/output/mx6sdl/obds/smart_device_rev_a/obj/apps/obds/src/tests/i2c_device_zigbee_mc1323.o
 .debug_info    0x000000000000c4bc      0x2ef /home/leon/git/swp-report/iMX6_Platform_SDK/output/mx6sdl/obds/smart_device_rev_a/obj/apps/obds/src/tests/i2c_eeprom_at24cxx_test.o
 .debug_info    0x000000000000c7ab      0x440 /home/leon/git/swp-report/iMX6_Platform_SDK/output/mx6sdl/obds/smart_device_rev_a/obj/apps/obds/src/tests/imx_spi_nor_test.o
 .debug_info    0x000000000000cbeb      0x2e7 /home/leon/git/swp-report/iMX6_Platform_SDK/output/mx6sdl/obds/smart_device_rev_a/obj/apps/obds/src/tests/mlb_os81050.o
 .debug_info    0x000000000000ced2      0x17e /home/leon/git/swp-report/iMX6_Platform_SDK/output/mx6sdl/obds/smart_device_rev_a/obj/apps/obds/src/tests/mmcsd_test.o
 .debug_info    0x000000000000d050      0x2d1 /home/leon/git/swp-report/iMX6_Platform_SDK/output/mx6sdl/obds/smart_device_rev_a/obj/apps/obds/src/tests/pmic_da9053.o
 .debug_info    0x000000000000d321      0xbea /home/leon/git/swp-report/iMX6_Platform_SDK/output/mx6sdl/obds/smart_device_rev_a/obj/apps/obds/src/tests/pmic_lt3589.o
 .debug_info    0x000000000000df0b      0x2e8 /home/leon/git/swp-report/iMX6_Platform_SDK/output/mx6sdl/obds/smart_device_rev_a/obj/apps/obds/src/tests/pmic_max17135.o
 .debug_info    0x000000000000e1f3      0x21a /home/leon/git/swp-report/iMX6_Platform_SDK/output/mx6sdl/obds/smart_device_rev_a/obj/apps/obds/src/tests/pmic_mc13892.o
 .debug_info    0x000000000000e40d      0x345 /home/leon/git/swp-report/iMX6_Platform_SDK/output/mx6sdl/obds/smart_device_rev_a/obj/apps/obds/src/tests/program_board_id.o
 .debug_info    0x000000000000e752      0xba1 /home/leon/git/swp-report/iMX6_Platform_SDK/output/mx6sdl/obds/smart_device_rev_a/obj/apps/obds/src/tests/program_mac_address.o
 .debug_info    0x000000000000f2f3      0x4ee /home/leon/git/swp-report/iMX6_Platform_SDK/output/mx6sdl/obds/smart_device_rev_a/obj/apps/obds/src/tests/snvs_srtc_test.o
 .debug_info    0x000000000000f7e1      0xb9a /home/leon/git/swp-report/iMX6_Platform_SDK/output/mx6sdl/obds/smart_device_rev_a/obj/apps/obds/src/tests/touch_button_test.o
 .debug_info    0x000000000001037b      0xbf2 /home/leon/git/swp-report/iMX6_Platform_SDK/output/mx6sdl/obds/smart_device_rev_a/obj/apps/obds/src/tests/touch_screen.o
 .debug_info    0x0000000000010f6d      0xde5 /home/leon/git/swp-report/iMX6_Platform_SDK/output/mx6sdl/obds/smart_device_rev_a/obj/apps/obds/src/tests/touch_screen_max11801.o
 .debug_info    0x0000000000011d52      0xcd2 /home/leon/git/swp-report/iMX6_Platform_SDK/output/mx6sdl/obds/smart_device_rev_a/obj/apps/obds/src/tests/usb_tests_obds.o
 .debug_info    0x0000000000012a24      0x138 /home/leon/git/swp-report/iMX6_Platform_SDK/output/mx6sdl/obds/smart_device_rev_a/obj/apps/obds/src/tests/video_dec_ARD_MB_reset_button.o
 .debug_info    0x0000000000012b5c      0x12a /home/leon/git/swp-report/iMX6_Platform_SDK/output/mx6sdl/obds/smart_device_rev_a/obj/apps/obds/src/tests/video_dec_ARD_MBrst_from_cpu_expander.o
 .debug_info    0x0000000000012c86      0xb5e /home/leon/git/swp-report/iMX6_Platform_SDK/output/mx6sdl/obds/smart_device_rev_a/obj/apps/obds/src/tests/video_dec_adv7180.o
 .debug_info    0x00000000000137e4      0x1be /home/leon/git/swp-report/iMX6_Platform_SDK/output/mx6sdl/obds/smart_device_rev_a/obj/apps/obds/src/tests/weim_nor_flash_test.o
 .debug_info    0x00000000000139a2      0x272 /home/leon/git/swp-report/iMX6_Platform_SDK/output/mx6sdl/obds/smart_device_rev_a/obj/sdk/common/ioexpander/test/max7310_test.o
 .debug_info    0x0000000000013c14      0x3af /home/leon/git/swp-report/iMX6_Platform_SDK/output/mx6sdl/obds/smart_device_rev_a/obj/sdk/common/pmic/pfuse/pf0100.o
 .debug_info    0x0000000000013fc3      0x75a /home/leon/git/swp-report/iMX6_Platform_SDK/output/mx6sdl/obds/smart_device_rev_a/obj/sdk/drivers/audio/src/snd_card.o
 .debug_info    0x000000000001471d      0x9a6 /home/leon/git/swp-report/iMX6_Platform_SDK/output/mx6sdl/obds/smart_device_rev_a/obj/sdk/drivers/camera/test/camera_test.o
 .debug_info    0x00000000000150c3      0xb0f /home/leon/git/swp-report/iMX6_Platform_SDK/output/mx6sdl/obds/smart_device_rev_a/obj/sdk/drivers/camera/test/csi_test_mode.o
 .debug_info    0x0000000000015bd2      0xc8c /home/leon/git/swp-report/iMX6_Platform_SDK/output/mx6sdl/obds/smart_device_rev_a/obj/sdk/drivers/camera/test/sensor_capture.o
 .debug_info    0x000000000001685e      0xaa6 /home/leon/git/swp-report/iMX6_Platform_SDK/output/mx6sdl/obds/smart_device_rev_a/obj/sdk/drivers/epdc/test/epdc_test.o
 .debug_info    0x0000000000017304      0xff8 /home/leon/git/swp-report/iMX6_Platform_SDK/output/mx6sdl/obds/smart_device_rev_a/obj/sdk/drivers/hdmi/test/hdmi_test.o
 .debug_info    0x00000000000182fc      0x345 /home/leon/git/swp-report/iMX6_Platform_SDK/output/mx6sdl/obds/smart_device_rev_a/obj/sdk/drivers/hdmi/test/init_dma_data.o
 .debug_info    0x0000000000018641      0xf2d /home/leon/git/swp-report/iMX6_Platform_SDK/output/mx6sdl/obds/smart_device_rev_a/obj/sdk/drivers/ipu/test/ips_display.o
 .debug_info    0x000000000001956e      0x4c1 /home/leon/git/swp-report/iMX6_Platform_SDK/output/mx6sdl/obds/smart_device_rev_a/obj/sdk/drivers/ipu/test/ipu_image.o
 .debug_info    0x0000000000019a2f      0x466 /home/leon/git/swp-report/iMX6_Platform_SDK/output/mx6sdl/obds/smart_device_rev_a/obj/sdk/drivers/spi/test/imx_spi_nor_atmel.o
 .debug_info    0x0000000000019e95      0x333 /home/leon/git/swp-report/iMX6_Platform_SDK/output/mx6sdl/obds/smart_device_rev_a/obj/sdk/drivers/spi/test/spi_nor_numonyx.o
 .debug_info    0x000000000001a1c8      0x9fc /home/leon/git/swp-report/iMX6_Platform_SDK/output/mx6sdl/obds/smart_device_rev_a/obj/sdk/drivers/uart/test/uart_test.o
 .debug_info    0x000000000001abc4     0x17ce /home/leon/git/swp-report/iMX6_Platform_SDK/output/mx6sdl/obds/smart_device_rev_a/obj/sdk/drivers/usb/test/usb0_host_test.o
 .debug_info    0x000000000001c392      0x8b4 /home/leon/git/swp-report/iMX6_Platform_SDK/output/mx6sdl/obds/smart_device_rev_a/obj/sdk/drivers/usb/test/usb0_host_testmodes_test.o
 .debug_info    0x000000000001cc46      0xc3b /home/leon/git/swp-report/iMX6_Platform_SDK/output/mx6sdl/obds/smart_device_rev_a/obj/sdk/drivers/usdhc/test/usdhc_test.o
 .debug_info    0x000000000001d881      0x2be /home/leon/git/swp-report/iMX6_Platform_SDK/output/mx6sdl/lib/libsdk.a(max7310.o)
 .debug_info    0x000000000001db3f     0x1ad0 /home/leon/git/swp-report/iMX6_Platform_SDK/output/mx6sdl/lib/libsdk.a(ccm_pll.o)
 .debug_info    0x000000000001f60f      0x767 /home/leon/git/swp-report/iMX6_Platform_SDK/output/mx6sdl/lib/libsdk.a(gic.o)
 .debug_info    0x000000000001fd76      0x61f /home/leon/git/swp-report/iMX6_Platform_SDK/output/mx6sdl/lib/libsdk.a(interrupt.o)
 .debug_info    0x0000000000020395      0x3b3 /home/leon/git/swp-report/iMX6_Platform_SDK/output/mx6sdl/lib/libsdk.a(mmu.o)
 .debug_info    0x0000000000020748      0xd5c /home/leon/git/swp-report/iMX6_Platform_SDK/output/mx6sdl/lib/libsdk.a(menu.o)
 .debug_info    0x00000000000214a4       0x74 /home/leon/git/swp-report/iMX6_Platform_SDK/output/mx6sdl/lib/libsdk.a(sdk_version.o)
 .debug_info    0x0000000000021518     0x1360 /home/leon/git/swp-report/iMX6_Platform_SDK/output/mx6sdl/lib/libsdk.a(system_util.o)
 .debug_info    0x0000000000022878      0x278 /home/leon/git/swp-report/iMX6_Platform_SDK/output/mx6sdl/lib/libsdk.a(text_color.o)
 .debug_info    0x0000000000022af0      0x62c /home/leon/git/swp-report/iMX6_Platform_SDK/output/mx6sdl/lib/libsdk.a(cs42888.o)
 .debug_info    0x000000000002311c     0x150d /home/leon/git/swp-report/iMX6_Platform_SDK/output/mx6sdl/lib/libsdk.a(imx-ssi.o)
 .debug_info    0x0000000000024629      0xbc4 /home/leon/git/swp-report/iMX6_Platform_SDK/output/mx6sdl/lib/libsdk.a(imx_audmux.o)
 .debug_info    0x00000000000251ed     0x163d /home/leon/git/swp-report/iMX6_Platform_SDK/output/mx6sdl/lib/libsdk.a(imx_esai.o)
 .debug_info    0x000000000002682a     0x1192 /home/leon/git/swp-report/iMX6_Platform_SDK/output/mx6sdl/lib/libsdk.a(imx_spdif.o)
 .debug_info    0x00000000000279bc      0x92d /home/leon/git/swp-report/iMX6_Platform_SDK/output/mx6sdl/lib/libsdk.a(sgtl5000.o)
 .debug_info    0x00000000000282e9      0x70a /home/leon/git/swp-report/iMX6_Platform_SDK/output/mx6sdl/lib/libsdk.a(wm8958_dac.o)
 .debug_info    0x00000000000289f3      0x708 /home/leon/git/swp-report/iMX6_Platform_SDK/output/mx6sdl/lib/libsdk.a(wm8962.o)
 .debug_info    0x00000000000290fb      0x4c7 /home/leon/git/swp-report/iMX6_Platform_SDK/output/mx6sdl/lib/libsdk.a(board_id.o)
 .debug_info    0x00000000000295c2      0x7dc /home/leon/git/swp-report/iMX6_Platform_SDK/output/mx6sdl/lib/libsdk.a(smd_sensor.o)
 .debug_info    0x0000000000029d9e     0x1fc4 /home/leon/git/swp-report/iMX6_Platform_SDK/output/mx6sdl/lib/libsdk.a(enet_drv.o)
 .debug_info    0x000000000002bd62     0x16bf /home/leon/git/swp-report/iMX6_Platform_SDK/output/mx6sdl/lib/libsdk.a(mxc_epdc.o)
 .debug_info    0x000000000002d421      0x7ee /home/leon/git/swp-report/iMX6_Platform_SDK/output/mx6sdl/lib/libsdk.a(gpio.o)
 .debug_info    0x000000000002dc0f       0x9e /home/leon/git/swp-report/iMX6_Platform_SDK/output/mx6sdl/lib/libsdk.a(imx6sdl_gpio_map.o)
 .debug_info    0x000000000002dcad     0x1d92 /home/leon/git/swp-report/iMX6_Platform_SDK/output/mx6sdl/lib/libsdk.a(hdmi_tx.o)
 .debug_info    0x000000000002fa3f      0xe33 /home/leon/git/swp-report/iMX6_Platform_SDK/output/mx6sdl/lib/libsdk.a(hdmi_tx_audio.o)
 .debug_info    0x0000000000030872      0xbef /home/leon/git/swp-report/iMX6_Platform_SDK/output/mx6sdl/lib/libsdk.a(hdmi_tx_phy.o)
 .debug_info    0x0000000000031461      0xd95 /home/leon/git/swp-report/iMX6_Platform_SDK/output/mx6sdl/lib/libsdk.a(imx_i2c.o)
 .debug_info    0x00000000000321f6      0x61d /home/leon/git/swp-report/iMX6_Platform_SDK/output/mx6sdl/lib/libsdk.a(ips_disp_panel.o)
 .debug_info    0x0000000000032813      0xb02 /home/leon/git/swp-report/iMX6_Platform_SDK/output/mx6sdl/lib/libsdk.a(ipu_common.o)
 .debug_info    0x0000000000033315      0x31a /home/leon/git/swp-report/iMX6_Platform_SDK/output/mx6sdl/lib/libsdk.a(ipu_csi.o)
 .debug_info    0x000000000003362f      0x4e8 /home/leon/git/swp-report/iMX6_Platform_SDK/output/mx6sdl/lib/libsdk.a(ipu_dc.o)
 .debug_info    0x0000000000033b17      0x6e0 /home/leon/git/swp-report/iMX6_Platform_SDK/output/mx6sdl/lib/libsdk.a(ipu_di.o)
 .debug_info    0x00000000000341f7      0x1bc /home/leon/git/swp-report/iMX6_Platform_SDK/output/mx6sdl/lib/libsdk.a(ipu_dmfc.o)
 .debug_info    0x00000000000343b3      0x21c /home/leon/git/swp-report/iMX6_Platform_SDK/output/mx6sdl/lib/libsdk.a(ipu_dp.o)
 .debug_info    0x00000000000345cf     0x1522 /home/leon/git/swp-report/iMX6_Platform_SDK/output/mx6sdl/lib/libsdk.a(ipu_idmac.o)
 .debug_info    0x0000000000035af1      0x745 /home/leon/git/swp-report/iMX6_Platform_SDK/output/mx6sdl/lib/libsdk.a(ipu_vdi.o)
 .debug_info    0x0000000000036236      0x3fa /home/leon/git/swp-report/iMX6_Platform_SDK/output/mx6sdl/lib/libsdk.a(ldb.o)
 .debug_info    0x0000000000036630      0x489 /home/leon/git/swp-report/iMX6_Platform_SDK/output/mx6sdl/lib/libsdk.a(ocotp.o)
 .debug_info    0x0000000000036ab9      0x6a3 /home/leon/git/swp-report/iMX6_Platform_SDK/output/mx6sdl/lib/libsdk.a(ecspi.o)
 .debug_info    0x000000000003715c      0x2f5 /home/leon/git/swp-report/iMX6_Platform_SDK/output/mx6sdl/lib/libsdk.a(timer.o)
 .debug_info    0x0000000000037451     0x10ca /home/leon/git/swp-report/iMX6_Platform_SDK/output/mx6sdl/lib/libsdk.a(imx_uart.o)
 .debug_info    0x000000000003851b     0x115e /home/leon/git/swp-report/iMX6_Platform_SDK/output/mx6sdl/lib/libsdk.a(usb_common.o)
 .debug_info    0x0000000000039679     0x1aca /home/leon/git/swp-report/iMX6_Platform_SDK/output/mx6sdl/lib/libsdk.a(usbh_drv.o)
 .debug_info    0x000000000003b143      0xe90 /home/leon/git/swp-report/iMX6_Platform_SDK/output/mx6sdl/lib/libsdk.a(usdhc.o)
 .debug_info    0x000000000003bfd3     0x1932 /home/leon/git/swp-report/iMX6_Platform_SDK/output/mx6sdl/lib/libsdk.a(usdhc_host.o)
 .debug_info    0x000000000003d905      0x953 /home/leon/git/swp-report/iMX6_Platform_SDK/output/mx6sdl/lib/libsdk.a(usdhc_mmc.o)
 .debug_info    0x000000000003e258      0x639 /home/leon/git/swp-report/iMX6_Platform_SDK/output/mx6sdl/lib/libsdk.a(usdhc_sd.o)
 .debug_info    0x000000000003e891      0x487 /home/leon/git/swp-report/iMX6_Platform_SDK/output/mx6sdl/lib/libsdk.a(armv7_cache.o)
 .debug_info    0x000000000003ed18      0x438 /home/leon/git/swp-report/iMX6_Platform_SDK/output/mx6sdl/lib/libsdk.a(camera_profile.o)
 .debug_info    0x000000000003f150      0x2f8 /home/leon/git/swp-report/iMX6_Platform_SDK/output/mx6sdl/lib/libsdk.a(hdmi_common.o)
 .debug_info    0x000000000003f448      0x75a /home/leon/git/swp-report/iMX6_Platform_SDK/output/mx6sdl/lib/libsdk.a(ipu_ic.o)
 .debug_info    0x000000000003fba2      0x968 /home/leon/git/swp-report/iMX6_Platform_SDK/output/mx6sdl/lib/libsdk.a(epit.o)
 .debug_info    0x000000000004050a      0x578 /home/leon/git/swp-report/iMX6_Platform_SDK/output/mx6sdl/lib/libsdk.a(mx6x_usb.o)
 .debug_info    0x0000000000040a82      0x205 /home/leon/git/swp-report/iMX6_Platform_SDK/output/mx6sdl/lib/libsdk.a(abort_handler.o)
 .debug_info    0x0000000000040c87      0x3c7 /home/leon/git/swp-report/iMX6_Platform_SDK/output/mx6sdl/lib/libboard_smart_device_rev_a.a(board_audio.o)
 .debug_info    0x000000000004104e      0x5f2 /home/leon/git/swp-report/iMX6_Platform_SDK/output/mx6sdl/lib/libboard_smart_device_rev_a.a(board_buttons.o)
 .debug_info    0x0000000000041640     0x162e /home/leon/git/swp-report/iMX6_Platform_SDK/output/mx6sdl/lib/libboard_smart_device_rev_a.a(board_camera.o)
 .debug_info    0x0000000000042c6e      0x6c3 /home/leon/git/swp-report/iMX6_Platform_SDK/output/mx6sdl/lib/libboard_smart_device_rev_a.a(board_display.o)
 .debug_info    0x0000000000043331      0xa7c /home/leon/git/swp-report/iMX6_Platform_SDK/output/mx6sdl/lib/libboard_smart_device_rev_a.a(board_hdmi.o)
 .debug_info    0x0000000000043dad      0x1be /home/leon/git/swp-report/iMX6_Platform_SDK/output/mx6sdl/lib/libboard_smart_device_rev_a.a(board_i2c.o)
 .debug_info    0x0000000000043f6b      0x1d5 /home/leon/git/swp-report/iMX6_Platform_SDK/output/mx6sdl/lib/libboard_smart_device_rev_a.a(board_io_expanders.o)
 .debug_info    0x0000000000044140      0x92e /home/leon/git/swp-report/iMX6_Platform_SDK/output/mx6sdl/lib/libboard_smart_device_rev_a.a(board_mipi.o)
 .debug_info    0x0000000000044a6e      0x10f /home/leon/git/swp-report/iMX6_Platform_SDK/output/mx6sdl/lib/libboard_smart_device_rev_a.a(board_network.o)
 .debug_info    0x0000000000044b7d      0x1b7 /home/leon/git/swp-report/iMX6_Platform_SDK/output/mx6sdl/lib/libboard_smart_device_rev_a.a(board_usb.o)
 .debug_info    0x0000000000044d34      0x151 /home/leon/git/swp-report/iMX6_Platform_SDK/output/mx6sdl/lib/libboard_smart_device_rev_a.a(board_usdhc.o)
 .debug_info    0x0000000000044e85       0x9f /home/leon/git/swp-report/iMX6_Platform_SDK/output/mx6sdl/lib/libboard_smart_device_rev_a.a(hardware_modules.o)
 .debug_info    0x0000000000044f24       0xe6 /home/leon/git/swp-report/iMX6_Platform_SDK/output/mx6sdl/lib/libboard_smart_device_rev_a.a(dcd.o)
 .debug_info    0x000000000004500a      0x5fa /home/leon/git/swp-report/iMX6_Platform_SDK/output/mx6sdl/lib/libboard_smart_device_rev_a.a(audmux_iomux_config.o)
 .debug_info    0x0000000000045604      0x1e2 /home/leon/git/swp-report/iMX6_Platform_SDK/output/mx6sdl/lib/libboard_smart_device_rev_a.a(ccm_iomux_config.o)
 .debug_info    0x00000000000457e6       0xc9 /home/leon/git/swp-report/iMX6_Platform_SDK/output/mx6sdl/lib/libboard_smart_device_rev_a.a(ecspi_iomux_config.o)
 .debug_info    0x00000000000458af     0x1c08 /home/leon/git/swp-report/iMX6_Platform_SDK/output/mx6sdl/lib/libboard_smart_device_rev_a.a(enet_iomux_config.o)
 .debug_info    0x00000000000474b7     0x4392 /home/leon/git/swp-report/iMX6_Platform_SDK/output/mx6sdl/lib/libboard_smart_device_rev_a.a(epdc_iomux_config.o)
 .debug_info    0x000000000004b849       0xc9 /home/leon/git/swp-report/iMX6_Platform_SDK/output/mx6sdl/lib/libboard_smart_device_rev_a.a(i2c_iomux_config.o)
 .debug_info    0x000000000004b912      0x2db /home/leon/git/swp-report/iMX6_Platform_SDK/output/mx6sdl/lib/libboard_smart_device_rev_a.a(iomux_config.o)
 .debug_info    0x000000000004bbed     0x384a /home/leon/git/swp-report/iMX6_Platform_SDK/output/mx6sdl/lib/libboard_smart_device_rev_a.a(ipu1_iomux_config.o)
 .debug_info    0x000000000004f437       0xc9 /home/leon/git/swp-report/iMX6_Platform_SDK/output/mx6sdl/lib/libboard_smart_device_rev_a.a(ipu_iomux_config.o)
 .debug_info    0x000000000004f500      0xf16 /home/leon/git/swp-report/iMX6_Platform_SDK/output/mx6sdl/lib/libboard_smart_device_rev_a.a(kpp_iomux_config.o)
 .debug_info    0x0000000000050416     0x365e /home/leon/git/swp-report/iMX6_Platform_SDK/output/mx6sdl/lib/libboard_smart_device_rev_a.a(mmdc_iomux_config.o)
 .debug_info    0x0000000000053a74      0x1e2 /home/leon/git/swp-report/iMX6_Platform_SDK/output/mx6sdl/lib/libboard_smart_device_rev_a.a(pwm1_iomux_config.o)
 .debug_info    0x0000000000053c56      0x6a2 /home/leon/git/swp-report/iMX6_Platform_SDK/output/mx6sdl/lib/libboard_smart_device_rev_a.a(sjc_iomux_config.o)
 .debug_info    0x00000000000542f8      0x394 /home/leon/git/swp-report/iMX6_Platform_SDK/output/mx6sdl/lib/libboard_smart_device_rev_a.a(uart1_iomux_config.o)
 .debug_info    0x000000000005468c       0xc9 /home/leon/git/swp-report/iMX6_Platform_SDK/output/mx6sdl/lib/libboard_smart_device_rev_a.a(uart_iomux_config.o)
 .debug_info    0x0000000000054755     0x1014 /home/leon/git/swp-report/iMX6_Platform_SDK/output/mx6sdl/lib/libboard_smart_device_rev_a.a(usdhc2_iomux_config.o)
 .debug_info    0x0000000000055769     0x1014 /home/leon/git/swp-report/iMX6_Platform_SDK/output/mx6sdl/lib/libboard_smart_device_rev_a.a(usdhc3_iomux_config.o)
 .debug_info    0x000000000005677d     0x1014 /home/leon/git/swp-report/iMX6_Platform_SDK/output/mx6sdl/lib/libboard_smart_device_rev_a.a(usdhc4_iomux_config.o)
 .debug_info    0x0000000000057791       0xc9 /home/leon/git/swp-report/iMX6_Platform_SDK/output/mx6sdl/lib/libboard_smart_device_rev_a.a(usdhc_iomux_config.o)
 .debug_info    0x000000000005785a      0x822 /home/leon/git/swp-report/iMX6_Platform_SDK/output/mx6sdl/lib/libboard_smart_device_rev_a.a(ecspi1_iomux_config.o)
 .debug_info    0x000000000005807c      0x3b4 /home/leon/git/swp-report/iMX6_Platform_SDK/output/mx6sdl/lib/libboard_smart_device_rev_a.a(flexcan1_iomux_config.o)
 .debug_info    0x0000000000058430     0x1a42 /home/leon/git/swp-report/iMX6_Platform_SDK/output/mx6sdl/lib/libboard_smart_device_rev_a.a(gpio1_iomux_config.o)
 .debug_info    0x0000000000059e72      0xeca /home/leon/git/swp-report/iMX6_Platform_SDK/output/mx6sdl/lib/libboard_smart_device_rev_a.a(gpio2_iomux_config.o)
 .debug_info    0x000000000005ad3c     0x17d2 /home/leon/git/swp-report/iMX6_Platform_SDK/output/mx6sdl/lib/libboard_smart_device_rev_a.a(gpio3_iomux_config.o)
 .debug_info    0x000000000005c50e      0x67a /home/leon/git/swp-report/iMX6_Platform_SDK/output/mx6sdl/lib/libboard_smart_device_rev_a.a(gpio4_iomux_config.o)
 .debug_info    0x000000000005cb88      0x33a /home/leon/git/swp-report/iMX6_Platform_SDK/output/mx6sdl/lib/libboard_smart_device_rev_a.a(gpio5_iomux_config.o)
 .debug_info    0x000000000005cec2      0xd72 /home/leon/git/swp-report/iMX6_Platform_SDK/output/mx6sdl/lib/libboard_smart_device_rev_a.a(gpio6_iomux_config.o)
 .debug_info    0x000000000005dc34      0x4f2 /home/leon/git/swp-report/iMX6_Platform_SDK/output/mx6sdl/lib/libboard_smart_device_rev_a.a(gpio7_iomux_config.o)
 .debug_info    0x000000000005e126      0x79c /home/leon/git/swp-report/iMX6_Platform_SDK/output/mx6sdl/lib/libboard_smart_device_rev_a.a(gps_iomux_config.o)
 .debug_info    0x000000000005e8c2      0x3fe /home/leon/git/swp-report/iMX6_Platform_SDK/output/mx6sdl/lib/libboard_smart_device_rev_a.a(i2c1_iomux_config.o)
 .debug_info    0x000000000005ecc0      0x43e /home/leon/git/swp-report/iMX6_Platform_SDK/output/mx6sdl/lib/libboard_smart_device_rev_a.a(i2c2_iomux_config.o)
 .debug_info    0x000000000005f0fe      0x43e /home/leon/git/swp-report/iMX6_Platform_SDK/output/mx6sdl/lib/libboard_smart_device_rev_a.a(i2c3_iomux_config.o)
 .debug_info    0x000000000005f53c      0x990 /home/src/arm/target/bin/../arm-none-eabi/lib//libc.a(lib_a-assert.o)
 .debug_info    0x000000000005fecc       0xc8 /home/src/arm/target/bin/../arm-none-eabi/lib//libc.a(lib_a-bzero.o)
 .debug_info    0x000000000005ff94      0x9c2 /home/src/arm/target/bin/../arm-none-eabi/lib//libc.a(lib_a-fiprintf.o)
 .debug_info    0x0000000000060956      0x9d1 /home/src/arm/target/bin/../arm-none-eabi/lib//libc.a(lib_a-fputc.o)
 .debug_info    0x0000000000061327      0x894 /home/src/arm/target/bin/../arm-none-eabi/lib//libc.a(lib_a-impure.o)
 .debug_info    0x0000000000061bbb      0x105 /home/src/arm/target/bin/../arm-none-eabi/lib//libc.a(lib_a-init.o)
 .debug_info    0x0000000000061cc0      0x915 /home/src/arm/target/bin/../arm-none-eabi/lib//libc.a(lib_a-malloc.o)
 .debug_info    0x00000000000625d5      0xd81 /home/src/arm/target/bin/../arm-none-eabi/lib//libc.a(lib_a-mallocr.o)
 .debug_info    0x0000000000063356      0x131 /home/src/arm/target/bin/../arm-none-eabi/lib//libc.a(lib_a-memcpy-stub.o)
 .debug_info    0x0000000000063487      0x117 /home/src/arm/target/bin/../arm-none-eabi/lib//libc.a(lib_a-memset.o)
 .debug_info    0x000000000006359e      0x8b4 /home/src/arm/target/bin/../arm-none-eabi/lib//libc.a(lib_a-mlock.o)
 .debug_info    0x0000000000063e52      0x9ab /home/src/arm/target/bin/../arm-none-eabi/lib//libc.a(lib_a-printf.o)
 .debug_info    0x00000000000647fd      0xa0a /home/src/arm/target/bin/../arm-none-eabi/lib//libc.a(lib_a-putc.o)
 .debug_info    0x0000000000065207      0x8e3 /home/src/arm/target/bin/../arm-none-eabi/lib//libc.a(lib_a-realloc.o)
 .debug_info    0x0000000000065aea      0xcd4 /home/src/arm/target/bin/../arm-none-eabi/lib//libc.a(lib_a-reallocr.o)
 .debug_info    0x00000000000667be      0x94f /home/src/arm/target/bin/../arm-none-eabi/lib//libc.a(lib_a-rget.o)
 .debug_info    0x000000000006710d      0x8f4 /home/src/arm/target/bin/../arm-none-eabi/lib//libc.a(lib_a-sbrkr.o)
 .debug_info    0x0000000000067a01      0x9ee /home/src/arm/target/bin/../arm-none-eabi/lib//libc.a(lib_a-sprintf.o)
 .debug_info    0x00000000000683ef      0x110 /home/src/arm/target/bin/../arm-none-eabi/lib//libc.a(lib_a-strcat.o)
 .debug_info    0x00000000000684ff       0xaa /home/src/arm/target/bin/../arm-none-eabi/lib//libc.a(lib_a-strcmp.o)
 .debug_info    0x00000000000685a9       0xbd /home/src/arm/target/bin/../arm-none-eabi/lib//libc.a(lib_a-strcpy.o)
 .debug_info    0x0000000000068666       0xb5 /home/src/arm/target/bin/../arm-none-eabi/lib//libc.a(lib_a-strlen.o)
 .debug_info    0x000000000006871b      0x16f /home/src/arm/target/bin/../arm-none-eabi/lib//libc.a(lib_a-strncasecmp.o)
 .debug_info    0x000000000006888a      0x8fa /home/src/arm/target/bin/../arm-none-eabi/lib//libc.a(lib_a-strtok.o)
 .debug_info    0x0000000000069184      0x182 /home/src/arm/target/bin/../arm-none-eabi/lib//libc.a(lib_a-strtok_r.o)
 .debug_info    0x0000000000069306     0x1678 /home/src/arm/target/bin/../arm-none-eabi/lib//libc.a(lib_a-svfprintf.o)
 .debug_info    0x000000000006a97e     0x1e01 /home/src/arm/target/bin/../arm-none-eabi/lib//libc.a(lib_a-syscalls.o)
 .debug_info    0x000000000006c77f     0x153c /home/src/arm/target/bin/../arm-none-eabi/lib//libc.a(lib_a-vfiprintf.o)
 .debug_info    0x000000000006dcbb     0x1828 /home/src/arm/target/bin/../arm-none-eabi/lib//libc.a(lib_a-vfprintf.o)
 .debug_info    0x000000000006f4e3      0x987 /home/src/arm/target/bin/../arm-none-eabi/lib//libc.a(lib_a-vprintf.o)
 .debug_info    0x000000000006fe6a      0x9cc /home/src/arm/target/bin/../arm-none-eabi/lib//libc.a(lib_a-wbuf.o)
 .debug_info    0x0000000000070836      0x93b /home/src/arm/target/bin/../arm-none-eabi/lib//libc.a(lib_a-wsetup.o)
 .debug_info    0x0000000000071171       0xd4 /home/src/arm/target/bin/../arm-none-eabi/lib//libc.a(lib_a-abort.o)
 .debug_info    0x0000000000071245       0x6f /home/src/arm/target/bin/../arm-none-eabi/lib//libc.a(lib_a-ctype_.o)
 .debug_info    0x00000000000712b4     0x1326 /home/src/arm/target/bin/../arm-none-eabi/lib//libc.a(lib_a-dtoa.o)
 .debug_info    0x00000000000725da      0x889 /home/src/arm/target/bin/../arm-none-eabi/lib//libc.a(lib_a-errno.o)
 .debug_info    0x0000000000072e63      0xab7 /home/src/arm/target/bin/../arm-none-eabi/lib//libc.a(lib_a-fflush.o)
 .debug_info    0x000000000007391a      0xd39 /home/src/arm/target/bin/../arm-none-eabi/lib//libc.a(lib_a-findfp.o)
 .debug_info    0x0000000000074653      0xac7 /home/src/arm/target/bin/../arm-none-eabi/lib//libc.a(lib_a-fputwc.o)
 .debug_info    0x000000000007511a      0xc06 /home/src/arm/target/bin/../arm-none-eabi/lib//libc.a(lib_a-freer.o)
 .debug_info    0x0000000000075d20      0xc4a /home/src/arm/target/bin/../arm-none-eabi/lib//libc.a(lib_a-fvwrite.o)
 .debug_info    0x000000000007696a      0x99e /home/src/arm/target/bin/../arm-none-eabi/lib//libc.a(lib_a-fwalk.o)
 .debug_info    0x0000000000077308      0xbe5 /home/src/arm/target/bin/../arm-none-eabi/lib//libc.a(lib_a-locale.o)
 .debug_info    0x0000000000077eed      0xae6 /home/src/arm/target/bin/../arm-none-eabi/lib//libc.a(lib_a-makebuf.o)
 .debug_info    0x00000000000789d3      0x129 /home/src/arm/target/bin/../arm-none-eabi/lib//libc.a(lib_a-memchr-stub.o)
 .debug_info    0x0000000000078afc      0x131 /home/src/arm/target/bin/../arm-none-eabi/lib//libc.a(lib_a-memmove.o)
 .debug_info    0x0000000000078c2d     0x167e /home/src/arm/target/bin/../arm-none-eabi/lib//libc.a(lib_a-mprec.o)
 .debug_info    0x000000000007a2ab      0x9f9 /home/src/arm/target/bin/../arm-none-eabi/lib//libc.a(lib_a-reent.o)
 .debug_info    0x000000000007aca4      0xa5e /home/src/arm/target/bin/../arm-none-eabi/lib//libc.a(lib_a-refill.o)
 .debug_info    0x000000000007b702       0xdb /home/src/arm/target/bin/../arm-none-eabi/lib//libc.a(lib_a-s_fpclassify.o)
 .debug_info    0x000000000007b7dd      0xb5e /home/src/arm/target/bin/../arm-none-eabi/lib//libc.a(lib_a-signal.o)
 .debug_info    0x000000000007c33b      0x958 /home/src/arm/target/bin/../arm-none-eabi/lib//libc.a(lib_a-signalr.o)
 .debug_info    0x000000000007cc93      0xb89 /home/src/arm/target/bin/../arm-none-eabi/lib//libc.a(lib_a-stdio.o)
 .debug_info    0x000000000007d81c     0x1001 /home/src/arm/target/bin/../arm-none-eabi/lib//libc.a(lib_a-svfiprintf.o)
 .debug_info    0x000000000007e81d      0xa77 /home/src/arm/target/bin/../arm-none-eabi/lib//libc.a(lib_a-wcrtomb.o)
 .debug_info    0x000000000007f294      0x9b5 /home/src/arm/target/bin/../arm-none-eabi/lib//libc.a(lib_a-wctomb_r.o)
 .debug_info    0x000000000007fc49      0x929 /home/src/arm/target/bin/../arm-none-eabi/lib//libc.a(lib_a-writer.o)
 .debug_info    0x0000000000080572      0x9e0 /home/src/arm/target/bin/../arm-none-eabi/lib//libc.a(lib_a-callocr.o)
 .debug_info    0x0000000000080f52      0x8e0 /home/src/arm/target/bin/../arm-none-eabi/lib//libc.a(lib_a-closer.o)
 .debug_info    0x0000000000081832      0x9e5 /home/src/arm/target/bin/../arm-none-eabi/lib//libc.a(lib_a-fclose.o)
 .debug_info    0x0000000000082217      0xa5e /home/src/arm/target/bin/../arm-none-eabi/lib//libc.a(lib_a-fstatr.o)
 .debug_info    0x0000000000082c75      0x8e0 /home/src/arm/target/bin/../arm-none-eabi/lib//libc.a(lib_a-isattyr.o)
 .debug_info    0x0000000000083555      0x90c /home/src/arm/target/bin/../arm-none-eabi/lib//libc.a(lib_a-lseekr.o)
 .debug_info    0x0000000000083e61      0x922 /home/src/arm/target/bin/../arm-none-eabi/lib//libc.a(lib_a-readr.o)
 .debug_info    0x0000000000084783       0x87 /home/src/arm/target/bin/../lib/gcc/arm-none-eabi/4.8.2//libgcc.a(_udivsi3.o)
 .debug_info    0x000000000008480a       0x87 /home/src/arm/target/bin/../lib/gcc/arm-none-eabi/4.8.2//libgcc.a(_divsi3.o)
 .debug_info    0x0000000000084891       0x87 /home/src/arm/target/bin/../lib/gcc/arm-none-eabi/4.8.2//libgcc.a(_dvmd_tls.o)
 .debug_info    0x0000000000084918       0x88 /home/src/arm/target/bin/../lib/gcc/arm-none-eabi/4.8.2//libgcc.a(_arm_addsubdf3.o)
 .debug_info    0x00000000000849a0       0x88 /home/src/arm/target/bin/../lib/gcc/arm-none-eabi/4.8.2//libgcc.a(_arm_muldivdf3.o)
 .debug_info    0x0000000000084a28       0x88 /home/src/arm/target/bin/../lib/gcc/arm-none-eabi/4.8.2//libgcc.a(_arm_cmpdf2.o)
 .debug_info    0x0000000000084ab0       0x88 /home/src/arm/target/bin/../lib/gcc/arm-none-eabi/4.8.2//libgcc.a(_arm_fixdfsi.o)
 .debug_info    0x0000000000084b38       0x83 /home/src/arm/target/bin/../lib/gcc/arm-none-eabi/4.8.2//libgcc.a(_aeabi_uldivmod.o)
 .debug_info    0x0000000000084bbb      0x164 /home/src/arm/target/bin/../lib/gcc/arm-none-eabi/4.8.2//libgcc.a(bpabi.o)
 .debug_info    0x0000000000084d1f      0x5c4 /home/src/arm/target/bin/../lib/gcc/arm-none-eabi/4.8.2//libgcc.a(_divdi3.o)
 .debug_info    0x00000000000852e3      0x583 /home/src/arm/target/bin/../lib/gcc/arm-none-eabi/4.8.2//libgcc.a(_udivdi3.o)
 .debug_info    0x0000000000085866       0x87 /home/src/arm/target/bin/../lib/gcc/arm-none-eabi/4.8.2//libgcc.a(_clzsi2.o)

.debug_abbrev   0x0000000000000000    0x15a3c
 .debug_abbrev  0x0000000000000000       0xe6 /home/leon/git/swp-report/iMX6_Platform_SDK/output/mx6sdl/obds/smart_device_rev_a/obj/apps/common/ivt.o
 .debug_abbrev  0x00000000000000e6       0x89 /home/leon/git/swp-report/iMX6_Platform_SDK/output/mx6sdl/obds/smart_device_rev_a/obj/apps/common/platform_init.o
 .debug_abbrev  0x000000000000016f       0xa1 /home/leon/git/swp-report/iMX6_Platform_SDK/output/mx6sdl/obds/smart_device_rev_a/obj/apps/common/print_clock_info.o
 .debug_abbrev  0x0000000000000210       0xcf /home/leon/git/swp-report/iMX6_Platform_SDK/output/mx6sdl/obds/smart_device_rev_a/obj/apps/common/print_version.o
 .debug_abbrev  0x00000000000002df      0x213 /home/leon/git/swp-report/iMX6_Platform_SDK/output/mx6sdl/obds/smart_device_rev_a/obj/apps/obds/src/obds.o
 .debug_abbrev  0x00000000000004f2       0x80 /home/leon/git/swp-report/iMX6_Platform_SDK/output/mx6sdl/obds/smart_device_rev_a/obj/apps/obds/src/obds_utils.o
 .debug_abbrev  0x0000000000000572      0x22f /home/leon/git/swp-report/iMX6_Platform_SDK/output/mx6sdl/obds/smart_device_rev_a/obj/apps/obds/src/tests/android_buttons_test.o
 .debug_abbrev  0x00000000000007a1      0x1f4 /home/leon/git/swp-report/iMX6_Platform_SDK/output/mx6sdl/obds/smart_device_rev_a/obj/apps/obds/src/tests/audio_esai_test.o
 .debug_abbrev  0x0000000000000995      0x1f0 /home/leon/git/swp-report/iMX6_Platform_SDK/output/mx6sdl/obds/smart_device_rev_a/obj/apps/obds/src/tests/audio_ssi_test.o
 .debug_abbrev  0x0000000000000b85      0x18f /home/leon/git/swp-report/iMX6_Platform_SDK/output/mx6sdl/obds/smart_device_rev_a/obj/apps/obds/src/tests/ddr_test.o
 .debug_abbrev  0x0000000000000d14       0xd9 /home/leon/git/swp-report/iMX6_Platform_SDK/output/mx6sdl/obds/smart_device_rev_a/obj/apps/obds/src/tests/deserializer_ds90ur124.o
 .debug_abbrev  0x0000000000000ded      0x23a /home/leon/git/swp-report/iMX6_Platform_SDK/output/mx6sdl/obds/smart_device_rev_a/obj/apps/obds/src/tests/display_test.o
 .debug_abbrev  0x0000000000001027      0x2a8 /home/leon/git/swp-report/iMX6_Platform_SDK/output/mx6sdl/obds/smart_device_rev_a/obj/apps/obds/src/tests/enet_mx6dldq_test.o
 .debug_abbrev  0x00000000000012cf       0xad /home/leon/git/swp-report/iMX6_Platform_SDK/output/mx6sdl/obds/smart_device_rev_a/obj/apps/obds/src/tests/flexcan_test.o
 .debug_abbrev  0x000000000000137c      0x11c /home/leon/git/swp-report/iMX6_Platform_SDK/output/mx6sdl/obds/smart_device_rev_a/obj/apps/obds/src/tests/fm_tuner_si476x_test.o
 .debug_abbrev  0x0000000000001498      0x209 /home/leon/git/swp-report/iMX6_Platform_SDK/output/mx6sdl/obds/smart_device_rev_a/obj/apps/obds/src/tests/gpio_led.o
 .debug_abbrev  0x00000000000016a1       0x9c /home/leon/git/swp-report/iMX6_Platform_SDK/output/mx6sdl/obds/smart_device_rev_a/obj/apps/obds/src/tests/gps_test.o
 .debug_abbrev  0x000000000000173d      0x20e /home/leon/git/swp-report/iMX6_Platform_SDK/output/mx6sdl/obds/smart_device_rev_a/obj/apps/obds/src/tests/i2c_check_light_sensor_isl29023.o
 .debug_abbrev  0x000000000000194b      0x13c /home/leon/git/swp-report/iMX6_Platform_SDK/output/mx6sdl/obds/smart_device_rev_a/obj/apps/obds/src/tests/i2c_device_barometer_ppl3115.o
 .debug_abbrev  0x0000000000001a87      0x11e /home/leon/git/swp-report/iMX6_Platform_SDK/output/mx6sdl/obds/smart_device_rev_a/obj/apps/obds/src/tests/i2c_device_check_cs42888.o
 .debug_abbrev  0x0000000000001ba5      0x115 /home/leon/git/swp-report/iMX6_Platform_SDK/output/mx6sdl/obds/smart_device_rev_a/obj/apps/obds/src/tests/i2c_device_digital_compass_mag3110.o
 .debug_abbrev  0x0000000000001cba      0x115 /home/leon/git/swp-report/iMX6_Platform_SDK/output/mx6sdl/obds/smart_device_rev_a/obj/apps/obds/src/tests/i2c_device_digital_compass_mag3112.o
 .debug_abbrev  0x0000000000001dcf      0x21d /home/leon/git/swp-report/iMX6_Platform_SDK/output/mx6sdl/obds/smart_device_rev_a/obj/apps/obds/src/tests/i2c_device_id_check_mma8450.o
 .debug_abbrev  0x0000000000001fec      0x21d /home/leon/git/swp-report/iMX6_Platform_SDK/output/mx6sdl/obds/smart_device_rev_a/obj/apps/obds/src/tests/i2c_device_id_check_mma8451.o
 .debug_abbrev  0x0000000000002209      0x214 /home/leon/git/swp-report/iMX6_Platform_SDK/output/mx6sdl/obds/smart_device_rev_a/obj/apps/obds/src/tests/i2c_device_id_check_p1003_tsc.o
 .debug_abbrev  0x000000000000241d      0x154 /home/leon/git/swp-report/iMX6_Platform_SDK/output/mx6sdl/obds/smart_device_rev_a/obj/apps/obds/src/tests/i2c_device_temp_sensor_emc1046.o
 .debug_abbrev  0x0000000000002571      0x122 /home/leon/git/swp-report/iMX6_Platform_SDK/output/mx6sdl/obds/smart_device_rev_a/obj/apps/obds/src/tests/i2c_device_zigbee_mc1323.o
 .debug_abbrev  0x0000000000002693      0x119 /home/leon/git/swp-report/iMX6_Platform_SDK/output/mx6sdl/obds/smart_device_rev_a/obj/apps/obds/src/tests/i2c_eeprom_at24cxx_test.o
 .debug_abbrev  0x00000000000027ac      0x137 /home/leon/git/swp-report/iMX6_Platform_SDK/output/mx6sdl/obds/smart_device_rev_a/obj/apps/obds/src/tests/imx_spi_nor_test.o
 .debug_abbrev  0x00000000000028e3      0x12d /home/leon/git/swp-report/iMX6_Platform_SDK/output/mx6sdl/obds/smart_device_rev_a/obj/apps/obds/src/tests/mlb_os81050.o
 .debug_abbrev  0x0000000000002a10       0xbe /home/leon/git/swp-report/iMX6_Platform_SDK/output/mx6sdl/obds/smart_device_rev_a/obj/apps/obds/src/tests/mmcsd_test.o
 .debug_abbrev  0x0000000000002ace      0x11b /home/leon/git/swp-report/iMX6_Platform_SDK/output/mx6sdl/obds/smart_device_rev_a/obj/apps/obds/src/tests/pmic_da9053.o
 .debug_abbrev  0x0000000000002be9      0x26f /home/leon/git/swp-report/iMX6_Platform_SDK/output/mx6sdl/obds/smart_device_rev_a/obj/apps/obds/src/tests/pmic_lt3589.o
 .debug_abbrev  0x0000000000002e58      0x14b /home/leon/git/swp-report/iMX6_Platform_SDK/output/mx6sdl/obds/smart_device_rev_a/obj/apps/obds/src/tests/pmic_max17135.o
 .debug_abbrev  0x0000000000002fa3      0x117 /home/leon/git/swp-report/iMX6_Platform_SDK/output/mx6sdl/obds/smart_device_rev_a/obj/apps/obds/src/tests/pmic_mc13892.o
 .debug_abbrev  0x00000000000030ba      0x161 /home/leon/git/swp-report/iMX6_Platform_SDK/output/mx6sdl/obds/smart_device_rev_a/obj/apps/obds/src/tests/program_board_id.o
 .debug_abbrev  0x000000000000321b      0x283 /home/leon/git/swp-report/iMX6_Platform_SDK/output/mx6sdl/obds/smart_device_rev_a/obj/apps/obds/src/tests/program_mac_address.o
 .debug_abbrev  0x000000000000349e      0x12f /home/leon/git/swp-report/iMX6_Platform_SDK/output/mx6sdl/obds/smart_device_rev_a/obj/apps/obds/src/tests/snvs_srtc_test.o
 .debug_abbrev  0x00000000000035cd      0x201 /home/leon/git/swp-report/iMX6_Platform_SDK/output/mx6sdl/obds/smart_device_rev_a/obj/apps/obds/src/tests/touch_button_test.o
 .debug_abbrev  0x00000000000037ce      0x239 /home/leon/git/swp-report/iMX6_Platform_SDK/output/mx6sdl/obds/smart_device_rev_a/obj/apps/obds/src/tests/touch_screen.o
 .debug_abbrev  0x0000000000003a07      0x28a /home/leon/git/swp-report/iMX6_Platform_SDK/output/mx6sdl/obds/smart_device_rev_a/obj/apps/obds/src/tests/touch_screen_max11801.o
 .debug_abbrev  0x0000000000003c91      0x145 /home/leon/git/swp-report/iMX6_Platform_SDK/output/mx6sdl/obds/smart_device_rev_a/obj/apps/obds/src/tests/usb_tests_obds.o
 .debug_abbrev  0x0000000000003dd6       0xad /home/leon/git/swp-report/iMX6_Platform_SDK/output/mx6sdl/obds/smart_device_rev_a/obj/apps/obds/src/tests/video_dec_ARD_MB_reset_button.o
 .debug_abbrev  0x0000000000003e83       0xad /home/leon/git/swp-report/iMX6_Platform_SDK/output/mx6sdl/obds/smart_device_rev_a/obj/apps/obds/src/tests/video_dec_ARD_MBrst_from_cpu_expander.o
 .debug_abbrev  0x0000000000003f30      0x22a /home/leon/git/swp-report/iMX6_Platform_SDK/output/mx6sdl/obds/smart_device_rev_a/obj/apps/obds/src/tests/video_dec_adv7180.o
 .debug_abbrev  0x000000000000415a       0xd4 /home/leon/git/swp-report/iMX6_Platform_SDK/output/mx6sdl/obds/smart_device_rev_a/obj/apps/obds/src/tests/weim_nor_flash_test.o
 .debug_abbrev  0x000000000000422e      0x10f /home/leon/git/swp-report/iMX6_Platform_SDK/output/mx6sdl/obds/smart_device_rev_a/obj/sdk/common/ioexpander/test/max7310_test.o
 .debug_abbrev  0x000000000000433d      0x126 /home/leon/git/swp-report/iMX6_Platform_SDK/output/mx6sdl/obds/smart_device_rev_a/obj/sdk/common/pmic/pfuse/pf0100.o
 .debug_abbrev  0x0000000000004463      0x133 /home/leon/git/swp-report/iMX6_Platform_SDK/output/mx6sdl/obds/smart_device_rev_a/obj/sdk/drivers/audio/src/snd_card.o
 .debug_abbrev  0x0000000000004596      0x1f2 /home/leon/git/swp-report/iMX6_Platform_SDK/output/mx6sdl/obds/smart_device_rev_a/obj/sdk/drivers/camera/test/camera_test.o
 .debug_abbrev  0x0000000000004788      0x1df /home/leon/git/swp-report/iMX6_Platform_SDK/output/mx6sdl/obds/smart_device_rev_a/obj/sdk/drivers/camera/test/csi_test_mode.o
 .debug_abbrev  0x0000000000004967      0x1ea /home/leon/git/swp-report/iMX6_Platform_SDK/output/mx6sdl/obds/smart_device_rev_a/obj/sdk/drivers/camera/test/sensor_capture.o
 .debug_abbrev  0x0000000000004b51      0x228 /home/leon/git/swp-report/iMX6_Platform_SDK/output/mx6sdl/obds/smart_device_rev_a/obj/sdk/drivers/epdc/test/epdc_test.o
 .debug_abbrev  0x0000000000004d79      0x15c /home/leon/git/swp-report/iMX6_Platform_SDK/output/mx6sdl/obds/smart_device_rev_a/obj/sdk/drivers/hdmi/test/hdmi_test.o
 .debug_abbrev  0x0000000000004ed5      0x117 /home/leon/git/swp-report/iMX6_Platform_SDK/output/mx6sdl/obds/smart_device_rev_a/obj/sdk/drivers/hdmi/test/init_dma_data.o
 .debug_abbrev  0x0000000000004fec      0x21c /home/leon/git/swp-report/iMX6_Platform_SDK/output/mx6sdl/obds/smart_device_rev_a/obj/sdk/drivers/ipu/test/ips_display.o
 .debug_abbrev  0x0000000000005208      0x10d /home/leon/git/swp-report/iMX6_Platform_SDK/output/mx6sdl/obds/smart_device_rev_a/obj/sdk/drivers/ipu/test/ipu_image.o
 .debug_abbrev  0x0000000000005315      0x188 /home/leon/git/swp-report/iMX6_Platform_SDK/output/mx6sdl/obds/smart_device_rev_a/obj/sdk/drivers/spi/test/imx_spi_nor_atmel.o
 .debug_abbrev  0x000000000000549d      0x15b /home/leon/git/swp-report/iMX6_Platform_SDK/output/mx6sdl/obds/smart_device_rev_a/obj/sdk/drivers/spi/test/spi_nor_numonyx.o
 .debug_abbrev  0x00000000000055f8      0x1f9 /home/leon/git/swp-report/iMX6_Platform_SDK/output/mx6sdl/obds/smart_device_rev_a/obj/sdk/drivers/uart/test/uart_test.o
 .debug_abbrev  0x00000000000057f1      0x1b7 /home/leon/git/swp-report/iMX6_Platform_SDK/output/mx6sdl/obds/smart_device_rev_a/obj/sdk/drivers/usb/test/usb0_host_test.o
 .debug_abbrev  0x00000000000059a8      0x129 /home/leon/git/swp-report/iMX6_Platform_SDK/output/mx6sdl/obds/smart_device_rev_a/obj/sdk/drivers/usb/test/usb0_host_testmodes_test.o
 .debug_abbrev  0x0000000000005ad1      0x261 /home/leon/git/swp-report/iMX6_Platform_SDK/output/mx6sdl/obds/smart_device_rev_a/obj/sdk/drivers/usdhc/test/usdhc_test.o
 .debug_abbrev  0x0000000000005d32       0xf9 /home/leon/git/swp-report/iMX6_Platform_SDK/output/mx6sdl/lib/libsdk.a(max7310.o)
 .debug_abbrev  0x0000000000005e2b      0x1b1 /home/leon/git/swp-report/iMX6_Platform_SDK/output/mx6sdl/lib/libsdk.a(ccm_pll.o)
 .debug_abbrev  0x0000000000005fdc      0x188 /home/leon/git/swp-report/iMX6_Platform_SDK/output/mx6sdl/lib/libsdk.a(gic.o)
 .debug_abbrev  0x0000000000006164      0x11a /home/leon/git/swp-report/iMX6_Platform_SDK/output/mx6sdl/lib/libsdk.a(interrupt.o)
 .debug_abbrev  0x000000000000627e      0x172 /home/leon/git/swp-report/iMX6_Platform_SDK/output/mx6sdl/lib/libsdk.a(mmu.o)
 .debug_abbrev  0x00000000000063f0      0x2d1 /home/leon/git/swp-report/iMX6_Platform_SDK/output/mx6sdl/lib/libsdk.a(menu.o)
 .debug_abbrev  0x00000000000066c1       0x43 /home/leon/git/swp-report/iMX6_Platform_SDK/output/mx6sdl/lib/libsdk.a(sdk_version.o)
 .debug_abbrev  0x0000000000006704      0x28d /home/leon/git/swp-report/iMX6_Platform_SDK/output/mx6sdl/lib/libsdk.a(system_util.o)
 .debug_abbrev  0x0000000000006991       0xd0 /home/leon/git/swp-report/iMX6_Platform_SDK/output/mx6sdl/lib/libsdk.a(text_color.o)
 .debug_abbrev  0x0000000000006a61      0x13e /home/leon/git/swp-report/iMX6_Platform_SDK/output/mx6sdl/lib/libsdk.a(cs42888.o)
 .debug_abbrev  0x0000000000006b9f      0x267 /home/leon/git/swp-report/iMX6_Platform_SDK/output/mx6sdl/lib/libsdk.a(imx-ssi.o)
 .debug_abbrev  0x0000000000006e06      0x172 /home/leon/git/swp-report/iMX6_Platform_SDK/output/mx6sdl/lib/libsdk.a(imx_audmux.o)
 .debug_abbrev  0x0000000000006f78      0x267 /home/leon/git/swp-report/iMX6_Platform_SDK/output/mx6sdl/lib/libsdk.a(imx_esai.o)
 .debug_abbrev  0x00000000000071df      0x22e /home/leon/git/swp-report/iMX6_Platform_SDK/output/mx6sdl/lib/libsdk.a(imx_spdif.o)
 .debug_abbrev  0x000000000000740d      0x1df /home/leon/git/swp-report/iMX6_Platform_SDK/output/mx6sdl/lib/libsdk.a(sgtl5000.o)
 .debug_abbrev  0x00000000000075ec      0x1aa /home/leon/git/swp-report/iMX6_Platform_SDK/output/mx6sdl/lib/libsdk.a(wm8958_dac.o)
 .debug_abbrev  0x0000000000007796      0x1c4 /home/leon/git/swp-report/iMX6_Platform_SDK/output/mx6sdl/lib/libsdk.a(wm8962.o)
 .debug_abbrev  0x000000000000795a      0x13a /home/leon/git/swp-report/iMX6_Platform_SDK/output/mx6sdl/lib/libsdk.a(board_id.o)
 .debug_abbrev  0x0000000000007a94      0x19d /home/leon/git/swp-report/iMX6_Platform_SDK/output/mx6sdl/lib/libsdk.a(smd_sensor.o)
 .debug_abbrev  0x0000000000007c31      0x2e7 /home/leon/git/swp-report/iMX6_Platform_SDK/output/mx6sdl/lib/libsdk.a(enet_drv.o)
 .debug_abbrev  0x0000000000007f18      0x277 /home/leon/git/swp-report/iMX6_Platform_SDK/output/mx6sdl/lib/libsdk.a(mxc_epdc.o)
 .debug_abbrev  0x000000000000818f      0x228 /home/leon/git/swp-report/iMX6_Platform_SDK/output/mx6sdl/lib/libsdk.a(gpio.o)
 .debug_abbrev  0x00000000000083b7       0x5b /home/leon/git/swp-report/iMX6_Platform_SDK/output/mx6sdl/lib/libsdk.a(imx6sdl_gpio_map.o)
 .debug_abbrev  0x0000000000008412      0x1af /home/leon/git/swp-report/iMX6_Platform_SDK/output/mx6sdl/lib/libsdk.a(hdmi_tx.o)
 .debug_abbrev  0x00000000000085c1      0x1c1 /home/leon/git/swp-report/iMX6_Platform_SDK/output/mx6sdl/lib/libsdk.a(hdmi_tx_audio.o)
 .debug_abbrev  0x0000000000008782      0x180 /home/leon/git/swp-report/iMX6_Platform_SDK/output/mx6sdl/lib/libsdk.a(hdmi_tx_phy.o)
 .debug_abbrev  0x0000000000008902      0x2c9 /home/leon/git/swp-report/iMX6_Platform_SDK/output/mx6sdl/lib/libsdk.a(imx_i2c.o)
 .debug_abbrev  0x0000000000008bcb      0x1ac /home/leon/git/swp-report/iMX6_Platform_SDK/output/mx6sdl/lib/libsdk.a(ips_disp_panel.o)
 .debug_abbrev  0x0000000000008d77      0x212 /home/leon/git/swp-report/iMX6_Platform_SDK/output/mx6sdl/lib/libsdk.a(ipu_common.o)
 .debug_abbrev  0x0000000000008f89       0xf9 /home/leon/git/swp-report/iMX6_Platform_SDK/output/mx6sdl/lib/libsdk.a(ipu_csi.o)
 .debug_abbrev  0x0000000000009082      0x164 /home/leon/git/swp-report/iMX6_Platform_SDK/output/mx6sdl/lib/libsdk.a(ipu_dc.o)
 .debug_abbrev  0x00000000000091e6      0x1ac /home/leon/git/swp-report/iMX6_Platform_SDK/output/mx6sdl/lib/libsdk.a(ipu_di.o)
 .debug_abbrev  0x0000000000009392       0x8e /home/leon/git/swp-report/iMX6_Platform_SDK/output/mx6sdl/lib/libsdk.a(ipu_dmfc.o)
 .debug_abbrev  0x0000000000009420       0xc7 /home/leon/git/swp-report/iMX6_Platform_SDK/output/mx6sdl/lib/libsdk.a(ipu_dp.o)
 .debug_abbrev  0x00000000000094e7      0x20c /home/leon/git/swp-report/iMX6_Platform_SDK/output/mx6sdl/lib/libsdk.a(ipu_idmac.o)
 .debug_abbrev  0x00000000000096f3      0x161 /home/leon/git/swp-report/iMX6_Platform_SDK/output/mx6sdl/lib/libsdk.a(ipu_vdi.o)
 .debug_abbrev  0x0000000000009854      0x144 /home/leon/git/swp-report/iMX6_Platform_SDK/output/mx6sdl/lib/libsdk.a(ldb.o)
 .debug_abbrev  0x0000000000009998      0x1ae /home/leon/git/swp-report/iMX6_Platform_SDK/output/mx6sdl/lib/libsdk.a(ocotp.o)
 .debug_abbrev  0x0000000000009b46      0x1f9 /home/leon/git/swp-report/iMX6_Platform_SDK/output/mx6sdl/lib/libsdk.a(ecspi.o)
 .debug_abbrev  0x0000000000009d3f      0x122 /home/leon/git/swp-report/iMX6_Platform_SDK/output/mx6sdl/lib/libsdk.a(timer.o)
 .debug_abbrev  0x0000000000009e61      0x1e3 /home/leon/git/swp-report/iMX6_Platform_SDK/output/mx6sdl/lib/libsdk.a(imx_uart.o)
 .debug_abbrev  0x000000000000a044      0x241 /home/leon/git/swp-report/iMX6_Platform_SDK/output/mx6sdl/lib/libsdk.a(usb_common.o)
 .debug_abbrev  0x000000000000a285      0x1c8 /home/leon/git/swp-report/iMX6_Platform_SDK/output/mx6sdl/lib/libsdk.a(usbh_drv.o)
 .debug_abbrev  0x000000000000a44d      0x20c /home/leon/git/swp-report/iMX6_Platform_SDK/output/mx6sdl/lib/libsdk.a(usdhc.o)
 .debug_abbrev  0x000000000000a659      0x296 /home/leon/git/swp-report/iMX6_Platform_SDK/output/mx6sdl/lib/libsdk.a(usdhc_host.o)
 .debug_abbrev  0x000000000000a8ef      0x1ac /home/leon/git/swp-report/iMX6_Platform_SDK/output/mx6sdl/lib/libsdk.a(usdhc_mmc.o)
 .debug_abbrev  0x000000000000aa9b      0x143 /home/leon/git/swp-report/iMX6_Platform_SDK/output/mx6sdl/lib/libsdk.a(usdhc_sd.o)
 .debug_abbrev  0x000000000000abde      0x133 /home/leon/git/swp-report/iMX6_Platform_SDK/output/mx6sdl/lib/libsdk.a(armv7_cache.o)
 .debug_abbrev  0x000000000000ad11       0xab /home/leon/git/swp-report/iMX6_Platform_SDK/output/mx6sdl/lib/libsdk.a(camera_profile.o)
 .debug_abbrev  0x000000000000adbc       0xb9 /home/leon/git/swp-report/iMX6_Platform_SDK/output/mx6sdl/lib/libsdk.a(hdmi_common.o)
 .debug_abbrev  0x000000000000ae75      0x171 /home/leon/git/swp-report/iMX6_Platform_SDK/output/mx6sdl/lib/libsdk.a(ipu_ic.o)
 .debug_abbrev  0x000000000000afe6      0x194 /home/leon/git/swp-report/iMX6_Platform_SDK/output/mx6sdl/lib/libsdk.a(epit.o)
 .debug_abbrev  0x000000000000b17a      0x155 /home/leon/git/swp-report/iMX6_Platform_SDK/output/mx6sdl/lib/libsdk.a(mx6x_usb.o)
 .debug_abbrev  0x000000000000b2cf       0xc8 /home/leon/git/swp-report/iMX6_Platform_SDK/output/mx6sdl/lib/libsdk.a(abort_handler.o)
 .debug_abbrev  0x000000000000b397      0x109 /home/leon/git/swp-report/iMX6_Platform_SDK/output/mx6sdl/lib/libboard_smart_device_rev_a.a(board_audio.o)
 .debug_abbrev  0x000000000000b4a0      0x127 /home/leon/git/swp-report/iMX6_Platform_SDK/output/mx6sdl/lib/libboard_smart_device_rev_a.a(board_buttons.o)
 .debug_abbrev  0x000000000000b5c7      0x18a /home/leon/git/swp-report/iMX6_Platform_SDK/output/mx6sdl/lib/libboard_smart_device_rev_a.a(board_camera.o)
 .debug_abbrev  0x000000000000b751      0x187 /home/leon/git/swp-report/iMX6_Platform_SDK/output/mx6sdl/lib/libboard_smart_device_rev_a.a(board_display.o)
 .debug_abbrev  0x000000000000b8d8      0x152 /home/leon/git/swp-report/iMX6_Platform_SDK/output/mx6sdl/lib/libboard_smart_device_rev_a.a(board_hdmi.o)
 .debug_abbrev  0x000000000000ba2a       0x69 /home/leon/git/swp-report/iMX6_Platform_SDK/output/mx6sdl/lib/libboard_smart_device_rev_a.a(board_i2c.o)
 .debug_abbrev  0x000000000000ba93       0xb0 /home/leon/git/swp-report/iMX6_Platform_SDK/output/mx6sdl/lib/libboard_smart_device_rev_a.a(board_io_expanders.o)
 .debug_abbrev  0x000000000000bb43      0x141 /home/leon/git/swp-report/iMX6_Platform_SDK/output/mx6sdl/lib/libboard_smart_device_rev_a.a(board_mipi.o)
 .debug_abbrev  0x000000000000bc84       0x86 /home/leon/git/swp-report/iMX6_Platform_SDK/output/mx6sdl/lib/libboard_smart_device_rev_a.a(board_network.o)
 .debug_abbrev  0x000000000000bd0a       0xcd /home/leon/git/swp-report/iMX6_Platform_SDK/output/mx6sdl/lib/libboard_smart_device_rev_a.a(board_usb.o)
 .debug_abbrev  0x000000000000bdd7       0xbb /home/leon/git/swp-report/iMX6_Platform_SDK/output/mx6sdl/lib/libboard_smart_device_rev_a.a(board_usdhc.o)
 .debug_abbrev  0x000000000000be92       0x44 /home/leon/git/swp-report/iMX6_Platform_SDK/output/mx6sdl/lib/libboard_smart_device_rev_a.a(hardware_modules.o)
 .debug_abbrev  0x000000000000bed6       0x75 /home/leon/git/swp-report/iMX6_Platform_SDK/output/mx6sdl/lib/libboard_smart_device_rev_a.a(dcd.o)
 .debug_abbrev  0x000000000000bf4b       0xa4 /home/leon/git/swp-report/iMX6_Platform_SDK/output/mx6sdl/lib/libboard_smart_device_rev_a.a(audmux_iomux_config.o)
 .debug_abbrev  0x000000000000bfef       0xf1 /home/leon/git/swp-report/iMX6_Platform_SDK/output/mx6sdl/lib/libboard_smart_device_rev_a.a(ccm_iomux_config.o)
 .debug_abbrev  0x000000000000c0e0       0x79 /home/leon/git/swp-report/iMX6_Platform_SDK/output/mx6sdl/lib/libboard_smart_device_rev_a.a(ecspi_iomux_config.o)
 .debug_abbrev  0x000000000000c159       0xf1 /home/leon/git/swp-report/iMX6_Platform_SDK/output/mx6sdl/lib/libboard_smart_device_rev_a.a(enet_iomux_config.o)
 .debug_abbrev  0x000000000000c24a      0x106 /home/leon/git/swp-report/iMX6_Platform_SDK/output/mx6sdl/lib/libboard_smart_device_rev_a.a(epdc_iomux_config.o)
 .debug_abbrev  0x000000000000c350       0x79 /home/leon/git/swp-report/iMX6_Platform_SDK/output/mx6sdl/lib/libboard_smart_device_rev_a.a(i2c_iomux_config.o)
 .debug_abbrev  0x000000000000c3c9       0x42 /home/leon/git/swp-report/iMX6_Platform_SDK/output/mx6sdl/lib/libboard_smart_device_rev_a.a(iomux_config.o)
 .debug_abbrev  0x000000000000c40b       0xa4 /home/leon/git/swp-report/iMX6_Platform_SDK/output/mx6sdl/lib/libboard_smart_device_rev_a.a(ipu1_iomux_config.o)
 .debug_abbrev  0x000000000000c4af       0x79 /home/leon/git/swp-report/iMX6_Platform_SDK/output/mx6sdl/lib/libboard_smart_device_rev_a.a(ipu_iomux_config.o)
 .debug_abbrev  0x000000000000c528       0xf1 /home/leon/git/swp-report/iMX6_Platform_SDK/output/mx6sdl/lib/libboard_smart_device_rev_a.a(kpp_iomux_config.o)
 .debug_abbrev  0x000000000000c619      0x106 /home/leon/git/swp-report/iMX6_Platform_SDK/output/mx6sdl/lib/libboard_smart_device_rev_a.a(mmdc_iomux_config.o)
 .debug_abbrev  0x000000000000c71f       0xf1 /home/leon/git/swp-report/iMX6_Platform_SDK/output/mx6sdl/lib/libboard_smart_device_rev_a.a(pwm1_iomux_config.o)
 .debug_abbrev  0x000000000000c810       0xa4 /home/leon/git/swp-report/iMX6_Platform_SDK/output/mx6sdl/lib/libboard_smart_device_rev_a.a(sjc_iomux_config.o)
 .debug_abbrev  0x000000000000c8b4       0xf1 /home/leon/git/swp-report/iMX6_Platform_SDK/output/mx6sdl/lib/libboard_smart_device_rev_a.a(uart1_iomux_config.o)
 .debug_abbrev  0x000000000000c9a5       0x79 /home/leon/git/swp-report/iMX6_Platform_SDK/output/mx6sdl/lib/libboard_smart_device_rev_a.a(uart_iomux_config.o)
 .debug_abbrev  0x000000000000ca1e       0xf1 /home/leon/git/swp-report/iMX6_Platform_SDK/output/mx6sdl/lib/libboard_smart_device_rev_a.a(usdhc2_iomux_config.o)
 .debug_abbrev  0x000000000000cb0f       0xf1 /home/leon/git/swp-report/iMX6_Platform_SDK/output/mx6sdl/lib/libboard_smart_device_rev_a.a(usdhc3_iomux_config.o)
 .debug_abbrev  0x000000000000cc00       0xf1 /home/leon/git/swp-report/iMX6_Platform_SDK/output/mx6sdl/lib/libboard_smart_device_rev_a.a(usdhc4_iomux_config.o)
 .debug_abbrev  0x000000000000ccf1       0x79 /home/leon/git/swp-report/iMX6_Platform_SDK/output/mx6sdl/lib/libboard_smart_device_rev_a.a(usdhc_iomux_config.o)
 .debug_abbrev  0x000000000000cd6a       0xf1 /home/leon/git/swp-report/iMX6_Platform_SDK/output/mx6sdl/lib/libboard_smart_device_rev_a.a(ecspi1_iomux_config.o)
 .debug_abbrev  0x000000000000ce5b       0xf1 /home/leon/git/swp-report/iMX6_Platform_SDK/output/mx6sdl/lib/libboard_smart_device_rev_a.a(flexcan1_iomux_config.o)
 .debug_abbrev  0x000000000000cf4c       0xf1 /home/leon/git/swp-report/iMX6_Platform_SDK/output/mx6sdl/lib/libboard_smart_device_rev_a.a(gpio1_iomux_config.o)
 .debug_abbrev  0x000000000000d03d      0x106 /home/leon/git/swp-report/iMX6_Platform_SDK/output/mx6sdl/lib/libboard_smart_device_rev_a.a(gpio2_iomux_config.o)
 .debug_abbrev  0x000000000000d143      0x106 /home/leon/git/swp-report/iMX6_Platform_SDK/output/mx6sdl/lib/libboard_smart_device_rev_a.a(gpio3_iomux_config.o)
 .debug_abbrev  0x000000000000d249       0xf1 /home/leon/git/swp-report/iMX6_Platform_SDK/output/mx6sdl/lib/libboard_smart_device_rev_a.a(gpio4_iomux_config.o)
 .debug_abbrev  0x000000000000d33a      0x106 /home/leon/git/swp-report/iMX6_Platform_SDK/output/mx6sdl/lib/libboard_smart_device_rev_a.a(gpio5_iomux_config.o)
 .debug_abbrev  0x000000000000d440      0x106 /home/leon/git/swp-report/iMX6_Platform_SDK/output/mx6sdl/lib/libboard_smart_device_rev_a.a(gpio6_iomux_config.o)
 .debug_abbrev  0x000000000000d546       0xf1 /home/leon/git/swp-report/iMX6_Platform_SDK/output/mx6sdl/lib/libboard_smart_device_rev_a.a(gpio7_iomux_config.o)
 .debug_abbrev  0x000000000000d637      0x106 /home/leon/git/swp-report/iMX6_Platform_SDK/output/mx6sdl/lib/libboard_smart_device_rev_a.a(gps_iomux_config.o)
 .debug_abbrev  0x000000000000d73d       0xf1 /home/leon/git/swp-report/iMX6_Platform_SDK/output/mx6sdl/lib/libboard_smart_device_rev_a.a(i2c1_iomux_config.o)
 .debug_abbrev  0x000000000000d82e       0xf1 /home/leon/git/swp-report/iMX6_Platform_SDK/output/mx6sdl/lib/libboard_smart_device_rev_a.a(i2c2_iomux_config.o)
 .debug_abbrev  0x000000000000d91f       0xf1 /home/leon/git/swp-report/iMX6_Platform_SDK/output/mx6sdl/lib/libboard_smart_device_rev_a.a(i2c3_iomux_config.o)
 .debug_abbrev  0x000000000000da10      0x1f8 /home/src/arm/target/bin/../arm-none-eabi/lib//libc.a(lib_a-assert.o)
 .debug_abbrev  0x000000000000dc08       0x8c /home/src/arm/target/bin/../arm-none-eabi/lib//libc.a(lib_a-bzero.o)
 .debug_abbrev  0x000000000000dc94      0x216 /home/src/arm/target/bin/../arm-none-eabi/lib//libc.a(lib_a-fiprintf.o)
 .debug_abbrev  0x000000000000deaa      0x22f /home/src/arm/target/bin/../arm-none-eabi/lib//libc.a(lib_a-fputc.o)
 .debug_abbrev  0x000000000000e0d9      0x180 /home/src/arm/target/bin/../arm-none-eabi/lib//libc.a(lib_a-impure.o)
 .debug_abbrev  0x000000000000e259       0xba /home/src/arm/target/bin/../arm-none-eabi/lib//libc.a(lib_a-init.o)
 .debug_abbrev  0x000000000000e313      0x1f7 /home/src/arm/target/bin/../arm-none-eabi/lib//libc.a(lib_a-malloc.o)
 .debug_abbrev  0x000000000000e50a      0x2a2 /home/src/arm/target/bin/../arm-none-eabi/lib//libc.a(lib_a-mallocr.o)
 .debug_abbrev  0x000000000000e7ac       0xab /home/src/arm/target/bin/../arm-none-eabi/lib//libc.a(lib_a-memcpy-stub.o)
 .debug_abbrev  0x000000000000e857       0x9f /home/src/arm/target/bin/../arm-none-eabi/lib//libc.a(lib_a-memset.o)
 .debug_abbrev  0x000000000000e8f6      0x19a /home/src/arm/target/bin/../arm-none-eabi/lib//libc.a(lib_a-mlock.o)
 .debug_abbrev  0x000000000000ea90      0x227 /home/src/arm/target/bin/../arm-none-eabi/lib//libc.a(lib_a-printf.o)
 .debug_abbrev  0x000000000000ecb7      0x229 /home/src/arm/target/bin/../arm-none-eabi/lib//libc.a(lib_a-putc.o)
 .debug_abbrev  0x000000000000eee0      0x1d9 /home/src/arm/target/bin/../arm-none-eabi/lib//libc.a(lib_a-realloc.o)
 .debug_abbrev  0x000000000000f0b9      0x25b /home/src/arm/target/bin/../arm-none-eabi/lib//libc.a(lib_a-reallocr.o)
 .debug_abbrev  0x000000000000f314      0x22a /home/src/arm/target/bin/../arm-none-eabi/lib//libc.a(lib_a-rget.o)
 .debug_abbrev  0x000000000000f53e      0x1fd /home/src/arm/target/bin/../arm-none-eabi/lib//libc.a(lib_a-sbrkr.o)
 .debug_abbrev  0x000000000000f73b      0x218 /home/src/arm/target/bin/../arm-none-eabi/lib//libc.a(lib_a-sprintf.o)
 .debug_abbrev  0x000000000000f953       0xb3 /home/src/arm/target/bin/../arm-none-eabi/lib//libc.a(lib_a-strcat.o)
 .debug_abbrev  0x000000000000fa06       0x14 /home/src/arm/target/bin/../arm-none-eabi/lib//libc.a(lib_a-strcmp.o)
 .debug_abbrev  0x000000000000fa1a       0x72 /home/src/arm/target/bin/../arm-none-eabi/lib//libc.a(lib_a-strcpy.o)
 .debug_abbrev  0x000000000000fa8c       0x70 /home/src/arm/target/bin/../arm-none-eabi/lib//libc.a(lib_a-strlen.o)
 .debug_abbrev  0x000000000000fafc       0xcb /home/src/arm/target/bin/../arm-none-eabi/lib//libc.a(lib_a-strncasecmp.o)
 .debug_abbrev  0x000000000000fbc7      0x1ea /home/src/arm/target/bin/../arm-none-eabi/lib//libc.a(lib_a-strtok.o)
 .debug_abbrev  0x000000000000fdb1       0xed /home/src/arm/target/bin/../arm-none-eabi/lib//libc.a(lib_a-strtok_r.o)
 .debug_abbrev  0x000000000000fe9e      0x36f /home/src/arm/target/bin/../arm-none-eabi/lib//libc.a(lib_a-svfprintf.o)
 .debug_abbrev  0x000000000001020d      0x50d /home/src/arm/target/bin/../arm-none-eabi/lib//libc.a(lib_a-syscalls.o)
 .debug_abbrev  0x000000000001071a      0x3af /home/src/arm/target/bin/../arm-none-eabi/lib//libc.a(lib_a-vfiprintf.o)
 .debug_abbrev  0x0000000000010ac9      0x3cd /home/src/arm/target/bin/../arm-none-eabi/lib//libc.a(lib_a-vfprintf.o)
 .debug_abbrev  0x0000000000010e96      0x204 /home/src/arm/target/bin/../arm-none-eabi/lib//libc.a(lib_a-vprintf.o)
 .debug_abbrev  0x000000000001109a      0x25b /home/src/arm/target/bin/../arm-none-eabi/lib//libc.a(lib_a-wbuf.o)
 .debug_abbrev  0x00000000000112f5      0x20b /home/src/arm/target/bin/../arm-none-eabi/lib//libc.a(lib_a-wsetup.o)
 .debug_abbrev  0x0000000000011500       0x95 /home/src/arm/target/bin/../arm-none-eabi/lib//libc.a(lib_a-abort.o)
 .debug_abbrev  0x0000000000011595       0x4e /home/src/arm/target/bin/../arm-none-eabi/lib//libc.a(lib_a-ctype_.o)
 .debug_abbrev  0x00000000000115e3      0x2da /home/src/arm/target/bin/../arm-none-eabi/lib//libc.a(lib_a-dtoa.o)
 .debug_abbrev  0x00000000000118bd      0x18f /home/src/arm/target/bin/../arm-none-eabi/lib//libc.a(lib_a-errno.o)
 .debug_abbrev  0x0000000000011a4c      0x28d /home/src/arm/target/bin/../arm-none-eabi/lib//libc.a(lib_a-fflush.o)
 .debug_abbrev  0x0000000000011cd9      0x339 /home/src/arm/target/bin/../arm-none-eabi/lib//libc.a(lib_a-findfp.o)
 .debug_abbrev  0x0000000000012012      0x2a1 /home/src/arm/target/bin/../arm-none-eabi/lib//libc.a(lib_a-fputwc.o)
 .debug_abbrev  0x00000000000122b3      0x26b /home/src/arm/target/bin/../arm-none-eabi/lib//libc.a(lib_a-freer.o)
 .debug_abbrev  0x000000000001251e      0x247 /home/src/arm/target/bin/../arm-none-eabi/lib//libc.a(lib_a-fvwrite.o)
 .debug_abbrev  0x0000000000012765      0x1c2 /home/src/arm/target/bin/../arm-none-eabi/lib//libc.a(lib_a-fwalk.o)
 .debug_abbrev  0x0000000000012927      0x2a3 /home/src/arm/target/bin/../arm-none-eabi/lib//libc.a(lib_a-locale.o)
 .debug_abbrev  0x0000000000012bca      0x206 /home/src/arm/target/bin/../arm-none-eabi/lib//libc.a(lib_a-makebuf.o)
 .debug_abbrev  0x0000000000012dd0       0xba /home/src/arm/target/bin/../arm-none-eabi/lib//libc.a(lib_a-memchr-stub.o)
 .debug_abbrev  0x0000000000012e8a       0xab /home/src/arm/target/bin/../arm-none-eabi/lib//libc.a(lib_a-memmove.o)
 .debug_abbrev  0x0000000000012f35      0x3bd /home/src/arm/target/bin/../arm-none-eabi/lib//libc.a(lib_a-mprec.o)
 .debug_abbrev  0x00000000000132f2      0x258 /home/src/arm/target/bin/../arm-none-eabi/lib//libc.a(lib_a-reent.o)
 .debug_abbrev  0x000000000001354a      0x265 /home/src/arm/target/bin/../arm-none-eabi/lib//libc.a(lib_a-refill.o)
 .debug_abbrev  0x00000000000137af       0x6f /home/src/arm/target/bin/../arm-none-eabi/lib//libc.a(lib_a-s_fpclassify.o)
 .debug_abbrev  0x000000000001381e      0x2c4 /home/src/arm/target/bin/../arm-none-eabi/lib//libc.a(lib_a-signal.o)
 .debug_abbrev  0x0000000000013ae2      0x1fa /home/src/arm/target/bin/../arm-none-eabi/lib//libc.a(lib_a-signalr.o)
 .debug_abbrev  0x0000000000013cdc      0x22b /home/src/arm/target/bin/../arm-none-eabi/lib//libc.a(lib_a-stdio.o)
 .debug_abbrev  0x0000000000013f07      0x2a9 /home/src/arm/target/bin/../arm-none-eabi/lib//libc.a(lib_a-svfiprintf.o)
 .debug_abbrev  0x00000000000141b0      0x213 /home/src/arm/target/bin/../arm-none-eabi/lib//libc.a(lib_a-wcrtomb.o)
 .debug_abbrev  0x00000000000143c3      0x212 /home/src/arm/target/bin/../arm-none-eabi/lib//libc.a(lib_a-wctomb_r.o)
 .debug_abbrev  0x00000000000145d5      0x1f4 /home/src/arm/target/bin/../arm-none-eabi/lib//libc.a(lib_a-writer.o)
 .debug_abbrev  0x00000000000147c9      0x213 /home/src/arm/target/bin/../arm-none-eabi/lib//libc.a(lib_a-callocr.o)
 .debug_abbrev  0x00000000000149dc      0x1ef /home/src/arm/target/bin/../arm-none-eabi/lib//libc.a(lib_a-closer.o)
 .debug_abbrev  0x0000000000014bcb      0x273 /home/src/arm/target/bin/../arm-none-eabi/lib//libc.a(lib_a-fclose.o)
 .debug_abbrev  0x0000000000014e3e      0x1fe /home/src/arm/target/bin/../arm-none-eabi/lib//libc.a(lib_a-fstatr.o)
 .debug_abbrev  0x000000000001503c      0x1ef /home/src/arm/target/bin/../arm-none-eabi/lib//libc.a(lib_a-isattyr.o)
 .debug_abbrev  0x000000000001522b      0x1fe /home/src/arm/target/bin/../arm-none-eabi/lib//libc.a(lib_a-lseekr.o)
 .debug_abbrev  0x0000000000015429      0x1ef /home/src/arm/target/bin/../arm-none-eabi/lib//libc.a(lib_a-readr.o)
 .debug_abbrev  0x0000000000015618       0x14 /home/src/arm/target/bin/../lib/gcc/arm-none-eabi/4.8.2//libgcc.a(_udivsi3.o)
 .debug_abbrev  0x000000000001562c       0x14 /home/src/arm/target/bin/../lib/gcc/arm-none-eabi/4.8.2//libgcc.a(_divsi3.o)
 .debug_abbrev  0x0000000000015640       0x14 /home/src/arm/target/bin/../lib/gcc/arm-none-eabi/4.8.2//libgcc.a(_dvmd_tls.o)
 .debug_abbrev  0x0000000000015654       0x14 /home/src/arm/target/bin/../lib/gcc/arm-none-eabi/4.8.2//libgcc.a(_arm_addsubdf3.o)
 .debug_abbrev  0x0000000000015668       0x14 /home/src/arm/target/bin/../lib/gcc/arm-none-eabi/4.8.2//libgcc.a(_arm_muldivdf3.o)
 .debug_abbrev  0x000000000001567c       0x14 /home/src/arm/target/bin/../lib/gcc/arm-none-eabi/4.8.2//libgcc.a(_arm_cmpdf2.o)
 .debug_abbrev  0x0000000000015690       0x14 /home/src/arm/target/bin/../lib/gcc/arm-none-eabi/4.8.2//libgcc.a(_arm_fixdfsi.o)
 .debug_abbrev  0x00000000000156a4       0x14 /home/src/arm/target/bin/../lib/gcc/arm-none-eabi/4.8.2//libgcc.a(_aeabi_uldivmod.o)
 .debug_abbrev  0x00000000000156b8       0xb7 /home/src/arm/target/bin/../lib/gcc/arm-none-eabi/4.8.2//libgcc.a(bpabi.o)
 .debug_abbrev  0x000000000001576f      0x165 /home/src/arm/target/bin/../lib/gcc/arm-none-eabi/4.8.2//libgcc.a(_divdi3.o)
 .debug_abbrev  0x00000000000158d4      0x154 /home/src/arm/target/bin/../lib/gcc/arm-none-eabi/4.8.2//libgcc.a(_udivdi3.o)
 .debug_abbrev  0x0000000000015a28       0x14 /home/src/arm/target/bin/../lib/gcc/arm-none-eabi/4.8.2//libgcc.a(_clzsi2.o)

.debug_aranges  0x0000000000000000     0x1d78
 .debug_aranges
                0x0000000000000000       0x18 /home/leon/git/swp-report/iMX6_Platform_SDK/output/mx6sdl/obds/smart_device_rev_a/obj/apps/common/ivt.o
 .debug_aranges
                0x0000000000000018       0x20 /home/leon/git/swp-report/iMX6_Platform_SDK/output/mx6sdl/obds/smart_device_rev_a/obj/apps/common/platform_init.o
 .debug_aranges
                0x0000000000000038       0x20 /home/leon/git/swp-report/iMX6_Platform_SDK/output/mx6sdl/obds/smart_device_rev_a/obj/apps/common/print_clock_info.o
 .debug_aranges
                0x0000000000000058       0x20 /home/leon/git/swp-report/iMX6_Platform_SDK/output/mx6sdl/obds/smart_device_rev_a/obj/apps/common/print_version.o
 .debug_aranges
                0x0000000000000078       0x20 /home/leon/git/swp-report/iMX6_Platform_SDK/output/mx6sdl/obds/smart_device_rev_a/obj/apps/obds/src/obds.o
 .debug_aranges
                0x0000000000000098       0x20 /home/leon/git/swp-report/iMX6_Platform_SDK/output/mx6sdl/obds/smart_device_rev_a/obj/apps/obds/src/obds_utils.o
 .debug_aranges
                0x00000000000000b8       0x20 /home/leon/git/swp-report/iMX6_Platform_SDK/output/mx6sdl/obds/smart_device_rev_a/obj/apps/obds/src/tests/android_buttons_test.o
 .debug_aranges
                0x00000000000000d8       0x20 /home/leon/git/swp-report/iMX6_Platform_SDK/output/mx6sdl/obds/smart_device_rev_a/obj/apps/obds/src/tests/audio_esai_test.o
 .debug_aranges
                0x00000000000000f8       0x20 /home/leon/git/swp-report/iMX6_Platform_SDK/output/mx6sdl/obds/smart_device_rev_a/obj/apps/obds/src/tests/audio_ssi_test.o
 .debug_aranges
                0x0000000000000118       0x20 /home/leon/git/swp-report/iMX6_Platform_SDK/output/mx6sdl/obds/smart_device_rev_a/obj/apps/obds/src/tests/ddr_test.o
 .debug_aranges
                0x0000000000000138       0x20 /home/leon/git/swp-report/iMX6_Platform_SDK/output/mx6sdl/obds/smart_device_rev_a/obj/apps/obds/src/tests/deserializer_ds90ur124.o
 .debug_aranges
                0x0000000000000158       0x20 /home/leon/git/swp-report/iMX6_Platform_SDK/output/mx6sdl/obds/smart_device_rev_a/obj/apps/obds/src/tests/display_test.o
 .debug_aranges
                0x0000000000000178       0x20 /home/leon/git/swp-report/iMX6_Platform_SDK/output/mx6sdl/obds/smart_device_rev_a/obj/apps/obds/src/tests/enet_mx6dldq_test.o
 .debug_aranges
                0x0000000000000198       0x20 /home/leon/git/swp-report/iMX6_Platform_SDK/output/mx6sdl/obds/smart_device_rev_a/obj/apps/obds/src/tests/flexcan_test.o
 .debug_aranges
                0x00000000000001b8       0x20 /home/leon/git/swp-report/iMX6_Platform_SDK/output/mx6sdl/obds/smart_device_rev_a/obj/apps/obds/src/tests/fm_tuner_si476x_test.o
 .debug_aranges
                0x00000000000001d8       0x20 /home/leon/git/swp-report/iMX6_Platform_SDK/output/mx6sdl/obds/smart_device_rev_a/obj/apps/obds/src/tests/gpio_led.o
 .debug_aranges
                0x00000000000001f8       0x20 /home/leon/git/swp-report/iMX6_Platform_SDK/output/mx6sdl/obds/smart_device_rev_a/obj/apps/obds/src/tests/gps_test.o
 .debug_aranges
                0x0000000000000218       0x20 /home/leon/git/swp-report/iMX6_Platform_SDK/output/mx6sdl/obds/smart_device_rev_a/obj/apps/obds/src/tests/i2c_check_light_sensor_isl29023.o
 .debug_aranges
                0x0000000000000238       0x20 /home/leon/git/swp-report/iMX6_Platform_SDK/output/mx6sdl/obds/smart_device_rev_a/obj/apps/obds/src/tests/i2c_device_barometer_ppl3115.o
 .debug_aranges
                0x0000000000000258       0x20 /home/leon/git/swp-report/iMX6_Platform_SDK/output/mx6sdl/obds/smart_device_rev_a/obj/apps/obds/src/tests/i2c_device_check_cs42888.o
 .debug_aranges
                0x0000000000000278       0x20 /home/leon/git/swp-report/iMX6_Platform_SDK/output/mx6sdl/obds/smart_device_rev_a/obj/apps/obds/src/tests/i2c_device_digital_compass_mag3110.o
 .debug_aranges
                0x0000000000000298       0x20 /home/leon/git/swp-report/iMX6_Platform_SDK/output/mx6sdl/obds/smart_device_rev_a/obj/apps/obds/src/tests/i2c_device_digital_compass_mag3112.o
 .debug_aranges
                0x00000000000002b8       0x20 /home/leon/git/swp-report/iMX6_Platform_SDK/output/mx6sdl/obds/smart_device_rev_a/obj/apps/obds/src/tests/i2c_device_id_check_mma8450.o
 .debug_aranges
                0x00000000000002d8       0x20 /home/leon/git/swp-report/iMX6_Platform_SDK/output/mx6sdl/obds/smart_device_rev_a/obj/apps/obds/src/tests/i2c_device_id_check_mma8451.o
 .debug_aranges
                0x00000000000002f8       0x20 /home/leon/git/swp-report/iMX6_Platform_SDK/output/mx6sdl/obds/smart_device_rev_a/obj/apps/obds/src/tests/i2c_device_id_check_p1003_tsc.o
 .debug_aranges
                0x0000000000000318       0x20 /home/leon/git/swp-report/iMX6_Platform_SDK/output/mx6sdl/obds/smart_device_rev_a/obj/apps/obds/src/tests/i2c_device_temp_sensor_emc1046.o
 .debug_aranges
                0x0000000000000338       0x20 /home/leon/git/swp-report/iMX6_Platform_SDK/output/mx6sdl/obds/smart_device_rev_a/obj/apps/obds/src/tests/i2c_device_zigbee_mc1323.o
 .debug_aranges
                0x0000000000000358       0x20 /home/leon/git/swp-report/iMX6_Platform_SDK/output/mx6sdl/obds/smart_device_rev_a/obj/apps/obds/src/tests/i2c_eeprom_at24cxx_test.o
 .debug_aranges
                0x0000000000000378       0x20 /home/leon/git/swp-report/iMX6_Platform_SDK/output/mx6sdl/obds/smart_device_rev_a/obj/apps/obds/src/tests/imx_spi_nor_test.o
 .debug_aranges
                0x0000000000000398       0x20 /home/leon/git/swp-report/iMX6_Platform_SDK/output/mx6sdl/obds/smart_device_rev_a/obj/apps/obds/src/tests/mlb_os81050.o
 .debug_aranges
                0x00000000000003b8       0x20 /home/leon/git/swp-report/iMX6_Platform_SDK/output/mx6sdl/obds/smart_device_rev_a/obj/apps/obds/src/tests/mmcsd_test.o
 .debug_aranges
                0x00000000000003d8       0x20 /home/leon/git/swp-report/iMX6_Platform_SDK/output/mx6sdl/obds/smart_device_rev_a/obj/apps/obds/src/tests/pmic_da9053.o
 .debug_aranges
                0x00000000000003f8       0x20 /home/leon/git/swp-report/iMX6_Platform_SDK/output/mx6sdl/obds/smart_device_rev_a/obj/apps/obds/src/tests/pmic_lt3589.o
 .debug_aranges
                0x0000000000000418       0x20 /home/leon/git/swp-report/iMX6_Platform_SDK/output/mx6sdl/obds/smart_device_rev_a/obj/apps/obds/src/tests/pmic_max17135.o
 .debug_aranges
                0x0000000000000438       0x20 /home/leon/git/swp-report/iMX6_Platform_SDK/output/mx6sdl/obds/smart_device_rev_a/obj/apps/obds/src/tests/pmic_mc13892.o
 .debug_aranges
                0x0000000000000458       0x20 /home/leon/git/swp-report/iMX6_Platform_SDK/output/mx6sdl/obds/smart_device_rev_a/obj/apps/obds/src/tests/program_board_id.o
 .debug_aranges
                0x0000000000000478       0x20 /home/leon/git/swp-report/iMX6_Platform_SDK/output/mx6sdl/obds/smart_device_rev_a/obj/apps/obds/src/tests/program_mac_address.o
 .debug_aranges
                0x0000000000000498       0x20 /home/leon/git/swp-report/iMX6_Platform_SDK/output/mx6sdl/obds/smart_device_rev_a/obj/apps/obds/src/tests/snvs_srtc_test.o
 .debug_aranges
                0x00000000000004b8       0x20 /home/leon/git/swp-report/iMX6_Platform_SDK/output/mx6sdl/obds/smart_device_rev_a/obj/apps/obds/src/tests/touch_button_test.o
 .debug_aranges
                0x00000000000004d8       0x20 /home/leon/git/swp-report/iMX6_Platform_SDK/output/mx6sdl/obds/smart_device_rev_a/obj/apps/obds/src/tests/touch_screen.o
 .debug_aranges
                0x00000000000004f8       0x20 /home/leon/git/swp-report/iMX6_Platform_SDK/output/mx6sdl/obds/smart_device_rev_a/obj/apps/obds/src/tests/touch_screen_max11801.o
 .debug_aranges
                0x0000000000000518       0x20 /home/leon/git/swp-report/iMX6_Platform_SDK/output/mx6sdl/obds/smart_device_rev_a/obj/apps/obds/src/tests/usb_tests_obds.o
 .debug_aranges
                0x0000000000000538       0x20 /home/leon/git/swp-report/iMX6_Platform_SDK/output/mx6sdl/obds/smart_device_rev_a/obj/apps/obds/src/tests/video_dec_ARD_MB_reset_button.o
 .debug_aranges
                0x0000000000000558       0x20 /home/leon/git/swp-report/iMX6_Platform_SDK/output/mx6sdl/obds/smart_device_rev_a/obj/apps/obds/src/tests/video_dec_ARD_MBrst_from_cpu_expander.o
 .debug_aranges
                0x0000000000000578       0x20 /home/leon/git/swp-report/iMX6_Platform_SDK/output/mx6sdl/obds/smart_device_rev_a/obj/apps/obds/src/tests/video_dec_adv7180.o
 .debug_aranges
                0x0000000000000598       0x20 /home/leon/git/swp-report/iMX6_Platform_SDK/output/mx6sdl/obds/smart_device_rev_a/obj/apps/obds/src/tests/weim_nor_flash_test.o
 .debug_aranges
                0x00000000000005b8       0x20 /home/leon/git/swp-report/iMX6_Platform_SDK/output/mx6sdl/obds/smart_device_rev_a/obj/sdk/common/ioexpander/test/max7310_test.o
 .debug_aranges
                0x00000000000005d8       0x20 /home/leon/git/swp-report/iMX6_Platform_SDK/output/mx6sdl/obds/smart_device_rev_a/obj/sdk/common/pmic/pfuse/pf0100.o
 .debug_aranges
                0x00000000000005f8       0x20 /home/leon/git/swp-report/iMX6_Platform_SDK/output/mx6sdl/obds/smart_device_rev_a/obj/sdk/drivers/audio/src/snd_card.o
 .debug_aranges
                0x0000000000000618       0x20 /home/leon/git/swp-report/iMX6_Platform_SDK/output/mx6sdl/obds/smart_device_rev_a/obj/sdk/drivers/camera/test/camera_test.o
 .debug_aranges
                0x0000000000000638       0x20 /home/leon/git/swp-report/iMX6_Platform_SDK/output/mx6sdl/obds/smart_device_rev_a/obj/sdk/drivers/camera/test/csi_test_mode.o
 .debug_aranges
                0x0000000000000658       0x20 /home/leon/git/swp-report/iMX6_Platform_SDK/output/mx6sdl/obds/smart_device_rev_a/obj/sdk/drivers/camera/test/sensor_capture.o
 .debug_aranges
                0x0000000000000678       0x20 /home/leon/git/swp-report/iMX6_Platform_SDK/output/mx6sdl/obds/smart_device_rev_a/obj/sdk/drivers/epdc/test/epdc_test.o
 .debug_aranges
                0x0000000000000698       0x20 /home/leon/git/swp-report/iMX6_Platform_SDK/output/mx6sdl/obds/smart_device_rev_a/obj/sdk/drivers/hdmi/test/hdmi_test.o
 .debug_aranges
                0x00000000000006b8       0x20 /home/leon/git/swp-report/iMX6_Platform_SDK/output/mx6sdl/obds/smart_device_rev_a/obj/sdk/drivers/hdmi/test/init_dma_data.o
 .debug_aranges
                0x00000000000006d8       0x20 /home/leon/git/swp-report/iMX6_Platform_SDK/output/mx6sdl/obds/smart_device_rev_a/obj/sdk/drivers/ipu/test/ips_display.o
 .debug_aranges
                0x00000000000006f8       0x20 /home/leon/git/swp-report/iMX6_Platform_SDK/output/mx6sdl/obds/smart_device_rev_a/obj/sdk/drivers/ipu/test/ipu_image.o
 .debug_aranges
                0x0000000000000718       0x20 /home/leon/git/swp-report/iMX6_Platform_SDK/output/mx6sdl/obds/smart_device_rev_a/obj/sdk/drivers/spi/test/imx_spi_nor_atmel.o
 .debug_aranges
                0x0000000000000738       0x20 /home/leon/git/swp-report/iMX6_Platform_SDK/output/mx6sdl/obds/smart_device_rev_a/obj/sdk/drivers/spi/test/spi_nor_numonyx.o
 .debug_aranges
                0x0000000000000758       0x20 /home/leon/git/swp-report/iMX6_Platform_SDK/output/mx6sdl/obds/smart_device_rev_a/obj/sdk/drivers/uart/test/uart_test.o
 .debug_aranges
                0x0000000000000778       0x20 /home/leon/git/swp-report/iMX6_Platform_SDK/output/mx6sdl/obds/smart_device_rev_a/obj/sdk/drivers/usb/test/usb0_host_test.o
 .debug_aranges
                0x0000000000000798       0x20 /home/leon/git/swp-report/iMX6_Platform_SDK/output/mx6sdl/obds/smart_device_rev_a/obj/sdk/drivers/usb/test/usb0_host_testmodes_test.o
 .debug_aranges
                0x00000000000007b8       0x20 /home/leon/git/swp-report/iMX6_Platform_SDK/output/mx6sdl/obds/smart_device_rev_a/obj/sdk/drivers/usdhc/test/usdhc_test.o
 .debug_aranges
                0x00000000000007d8       0x20 /home/leon/git/swp-report/iMX6_Platform_SDK/output/mx6sdl/lib/libsdk.a(max7310.o)
 .debug_aranges
                0x00000000000007f8       0x20 /home/leon/git/swp-report/iMX6_Platform_SDK/output/mx6sdl/lib/libsdk.a(ccm_pll.o)
 .debug_aranges
                0x0000000000000818       0x20 /home/leon/git/swp-report/iMX6_Platform_SDK/output/mx6sdl/lib/libsdk.a(gic.o)
 .debug_aranges
                0x0000000000000838       0x20 /home/leon/git/swp-report/iMX6_Platform_SDK/output/mx6sdl/lib/libsdk.a(interrupt.o)
 .debug_aranges
                0x0000000000000858       0x20 /home/leon/git/swp-report/iMX6_Platform_SDK/output/mx6sdl/lib/libsdk.a(mmu.o)
 .debug_aranges
                0x0000000000000878       0x20 /home/leon/git/swp-report/iMX6_Platform_SDK/output/mx6sdl/lib/libsdk.a(menu.o)
 .debug_aranges
                0x0000000000000898       0x18 /home/leon/git/swp-report/iMX6_Platform_SDK/output/mx6sdl/lib/libsdk.a(sdk_version.o)
 .debug_aranges
                0x00000000000008b0       0x20 /home/leon/git/swp-report/iMX6_Platform_SDK/output/mx6sdl/lib/libsdk.a(system_util.o)
 .debug_aranges
                0x00000000000008d0       0x20 /home/leon/git/swp-report/iMX6_Platform_SDK/output/mx6sdl/lib/libsdk.a(text_color.o)
 .debug_aranges
                0x00000000000008f0       0x20 /home/leon/git/swp-report/iMX6_Platform_SDK/output/mx6sdl/lib/libsdk.a(cs42888.o)
 .debug_aranges
                0x0000000000000910       0x20 /home/leon/git/swp-report/iMX6_Platform_SDK/output/mx6sdl/lib/libsdk.a(imx-ssi.o)
 .debug_aranges
                0x0000000000000930       0x20 /home/leon/git/swp-report/iMX6_Platform_SDK/output/mx6sdl/lib/libsdk.a(imx_audmux.o)
 .debug_aranges
                0x0000000000000950       0x20 /home/leon/git/swp-report/iMX6_Platform_SDK/output/mx6sdl/lib/libsdk.a(imx_esai.o)
 .debug_aranges
                0x0000000000000970       0x20 /home/leon/git/swp-report/iMX6_Platform_SDK/output/mx6sdl/lib/libsdk.a(imx_spdif.o)
 .debug_aranges
                0x0000000000000990       0x20 /home/leon/git/swp-report/iMX6_Platform_SDK/output/mx6sdl/lib/libsdk.a(sgtl5000.o)
 .debug_aranges
                0x00000000000009b0       0x20 /home/leon/git/swp-report/iMX6_Platform_SDK/output/mx6sdl/lib/libsdk.a(wm8958_dac.o)
 .debug_aranges
                0x00000000000009d0       0x20 /home/leon/git/swp-report/iMX6_Platform_SDK/output/mx6sdl/lib/libsdk.a(wm8962.o)
 .debug_aranges
                0x00000000000009f0       0x20 /home/leon/git/swp-report/iMX6_Platform_SDK/output/mx6sdl/lib/libsdk.a(board_id.o)
 .debug_aranges
                0x0000000000000a10       0x20 /home/leon/git/swp-report/iMX6_Platform_SDK/output/mx6sdl/lib/libsdk.a(smd_sensor.o)
 .debug_aranges
                0x0000000000000a30       0x20 /home/leon/git/swp-report/iMX6_Platform_SDK/output/mx6sdl/lib/libsdk.a(enet_drv.o)
 .debug_aranges
                0x0000000000000a50       0x20 /home/leon/git/swp-report/iMX6_Platform_SDK/output/mx6sdl/lib/libsdk.a(mxc_epdc.o)
 .debug_aranges
                0x0000000000000a70       0x20 /home/leon/git/swp-report/iMX6_Platform_SDK/output/mx6sdl/lib/libsdk.a(gpio.o)
 .debug_aranges
                0x0000000000000a90       0x18 /home/leon/git/swp-report/iMX6_Platform_SDK/output/mx6sdl/lib/libsdk.a(imx6sdl_gpio_map.o)
 .debug_aranges
                0x0000000000000aa8       0x20 /home/leon/git/swp-report/iMX6_Platform_SDK/output/mx6sdl/lib/libsdk.a(hdmi_tx.o)
 .debug_aranges
                0x0000000000000ac8       0x20 /home/leon/git/swp-report/iMX6_Platform_SDK/output/mx6sdl/lib/libsdk.a(hdmi_tx_audio.o)
 .debug_aranges
                0x0000000000000ae8       0x20 /home/leon/git/swp-report/iMX6_Platform_SDK/output/mx6sdl/lib/libsdk.a(hdmi_tx_phy.o)
 .debug_aranges
                0x0000000000000b08       0x20 /home/leon/git/swp-report/iMX6_Platform_SDK/output/mx6sdl/lib/libsdk.a(imx_i2c.o)
 .debug_aranges
                0x0000000000000b28       0x20 /home/leon/git/swp-report/iMX6_Platform_SDK/output/mx6sdl/lib/libsdk.a(ips_disp_panel.o)
 .debug_aranges
                0x0000000000000b48       0x20 /home/leon/git/swp-report/iMX6_Platform_SDK/output/mx6sdl/lib/libsdk.a(ipu_common.o)
 .debug_aranges
                0x0000000000000b68       0x20 /home/leon/git/swp-report/iMX6_Platform_SDK/output/mx6sdl/lib/libsdk.a(ipu_csi.o)
 .debug_aranges
                0x0000000000000b88       0x20 /home/leon/git/swp-report/iMX6_Platform_SDK/output/mx6sdl/lib/libsdk.a(ipu_dc.o)
 .debug_aranges
                0x0000000000000ba8       0x20 /home/leon/git/swp-report/iMX6_Platform_SDK/output/mx6sdl/lib/libsdk.a(ipu_di.o)
 .debug_aranges
                0x0000000000000bc8       0x20 /home/leon/git/swp-report/iMX6_Platform_SDK/output/mx6sdl/lib/libsdk.a(ipu_dmfc.o)
 .debug_aranges
                0x0000000000000be8       0x20 /home/leon/git/swp-report/iMX6_Platform_SDK/output/mx6sdl/lib/libsdk.a(ipu_dp.o)
 .debug_aranges
                0x0000000000000c08       0x20 /home/leon/git/swp-report/iMX6_Platform_SDK/output/mx6sdl/lib/libsdk.a(ipu_idmac.o)
 .debug_aranges
                0x0000000000000c28       0x20 /home/leon/git/swp-report/iMX6_Platform_SDK/output/mx6sdl/lib/libsdk.a(ipu_vdi.o)
 .debug_aranges
                0x0000000000000c48       0x20 /home/leon/git/swp-report/iMX6_Platform_SDK/output/mx6sdl/lib/libsdk.a(ldb.o)
 .debug_aranges
                0x0000000000000c68       0x20 /home/leon/git/swp-report/iMX6_Platform_SDK/output/mx6sdl/lib/libsdk.a(ocotp.o)
 .debug_aranges
                0x0000000000000c88       0x20 /home/leon/git/swp-report/iMX6_Platform_SDK/output/mx6sdl/lib/libsdk.a(ecspi.o)
 .debug_aranges
                0x0000000000000ca8       0x20 /home/leon/git/swp-report/iMX6_Platform_SDK/output/mx6sdl/lib/libsdk.a(timer.o)
 .debug_aranges
                0x0000000000000cc8       0x20 /home/leon/git/swp-report/iMX6_Platform_SDK/output/mx6sdl/lib/libsdk.a(imx_uart.o)
 .debug_aranges
                0x0000000000000ce8       0x20 /home/leon/git/swp-report/iMX6_Platform_SDK/output/mx6sdl/lib/libsdk.a(usb_common.o)
 .debug_aranges
                0x0000000000000d08       0x20 /home/leon/git/swp-report/iMX6_Platform_SDK/output/mx6sdl/lib/libsdk.a(usbh_drv.o)
 .debug_aranges
                0x0000000000000d28       0x20 /home/leon/git/swp-report/iMX6_Platform_SDK/output/mx6sdl/lib/libsdk.a(usdhc.o)
 .debug_aranges
                0x0000000000000d48       0x20 /home/leon/git/swp-report/iMX6_Platform_SDK/output/mx6sdl/lib/libsdk.a(usdhc_host.o)
 .debug_aranges
                0x0000000000000d68       0x20 /home/leon/git/swp-report/iMX6_Platform_SDK/output/mx6sdl/lib/libsdk.a(usdhc_mmc.o)
 .debug_aranges
                0x0000000000000d88       0x20 /home/leon/git/swp-report/iMX6_Platform_SDK/output/mx6sdl/lib/libsdk.a(usdhc_sd.o)
 .debug_aranges
                0x0000000000000da8       0x20 /home/leon/git/swp-report/iMX6_Platform_SDK/output/mx6sdl/lib/libsdk.a(armv7_cache.o)
 .debug_aranges
                0x0000000000000dc8       0x18 /home/leon/git/swp-report/iMX6_Platform_SDK/output/mx6sdl/lib/libsdk.a(camera_profile.o)
 .debug_aranges
                0x0000000000000de0       0x20 /home/leon/git/swp-report/iMX6_Platform_SDK/output/mx6sdl/lib/libsdk.a(hdmi_common.o)
 .debug_aranges
                0x0000000000000e00       0x20 /home/leon/git/swp-report/iMX6_Platform_SDK/output/mx6sdl/lib/libsdk.a(ipu_ic.o)
 .debug_aranges
                0x0000000000000e20       0x20 /home/leon/git/swp-report/iMX6_Platform_SDK/output/mx6sdl/lib/libsdk.a(epit.o)
 .debug_aranges
                0x0000000000000e40       0x20 /home/leon/git/swp-report/iMX6_Platform_SDK/output/mx6sdl/lib/libsdk.a(mx6x_usb.o)
 .debug_aranges
                0x0000000000000e60       0x20 /home/leon/git/swp-report/iMX6_Platform_SDK/output/mx6sdl/lib/libsdk.a(abort_handler.o)
 .debug_aranges
                0x0000000000000e80       0x20 /home/leon/git/swp-report/iMX6_Platform_SDK/output/mx6sdl/lib/libboard_smart_device_rev_a.a(board_audio.o)
 .debug_aranges
                0x0000000000000ea0       0x20 /home/leon/git/swp-report/iMX6_Platform_SDK/output/mx6sdl/lib/libboard_smart_device_rev_a.a(board_buttons.o)
 .debug_aranges
                0x0000000000000ec0       0x20 /home/leon/git/swp-report/iMX6_Platform_SDK/output/mx6sdl/lib/libboard_smart_device_rev_a.a(board_camera.o)
 .debug_aranges
                0x0000000000000ee0       0x20 /home/leon/git/swp-report/iMX6_Platform_SDK/output/mx6sdl/lib/libboard_smart_device_rev_a.a(board_display.o)
 .debug_aranges
                0x0000000000000f00       0x20 /home/leon/git/swp-report/iMX6_Platform_SDK/output/mx6sdl/lib/libboard_smart_device_rev_a.a(board_hdmi.o)
 .debug_aranges
                0x0000000000000f20       0x18 /home/leon/git/swp-report/iMX6_Platform_SDK/output/mx6sdl/lib/libboard_smart_device_rev_a.a(board_i2c.o)
 .debug_aranges
                0x0000000000000f38       0x20 /home/leon/git/swp-report/iMX6_Platform_SDK/output/mx6sdl/lib/libboard_smart_device_rev_a.a(board_io_expanders.o)
 .debug_aranges
                0x0000000000000f58       0x20 /home/leon/git/swp-report/iMX6_Platform_SDK/output/mx6sdl/lib/libboard_smart_device_rev_a.a(board_mipi.o)
 .debug_aranges
                0x0000000000000f78       0x20 /home/leon/git/swp-report/iMX6_Platform_SDK/output/mx6sdl/lib/libboard_smart_device_rev_a.a(board_network.o)
 .debug_aranges
                0x0000000000000f98       0x20 /home/leon/git/swp-report/iMX6_Platform_SDK/output/mx6sdl/lib/libboard_smart_device_rev_a.a(board_usb.o)
 .debug_aranges
                0x0000000000000fb8       0x20 /home/leon/git/swp-report/iMX6_Platform_SDK/output/mx6sdl/lib/libboard_smart_device_rev_a.a(board_usdhc.o)
 .debug_aranges
                0x0000000000000fd8       0x18 /home/leon/git/swp-report/iMX6_Platform_SDK/output/mx6sdl/lib/libboard_smart_device_rev_a.a(hardware_modules.o)
 .debug_aranges
                0x0000000000000ff0       0x18 /home/leon/git/swp-report/iMX6_Platform_SDK/output/mx6sdl/lib/libboard_smart_device_rev_a.a(dcd.o)
 .debug_aranges
                0x0000000000001008       0x20 /home/leon/git/swp-report/iMX6_Platform_SDK/output/mx6sdl/lib/libboard_smart_device_rev_a.a(audmux_iomux_config.o)
 .debug_aranges
                0x0000000000001028       0x20 /home/leon/git/swp-report/iMX6_Platform_SDK/output/mx6sdl/lib/libboard_smart_device_rev_a.a(ccm_iomux_config.o)
 .debug_aranges
                0x0000000000001048       0x20 /home/leon/git/swp-report/iMX6_Platform_SDK/output/mx6sdl/lib/libboard_smart_device_rev_a.a(ecspi_iomux_config.o)
 .debug_aranges
                0x0000000000001068       0x20 /home/leon/git/swp-report/iMX6_Platform_SDK/output/mx6sdl/lib/libboard_smart_device_rev_a.a(enet_iomux_config.o)
 .debug_aranges
                0x0000000000001088       0x20 /home/leon/git/swp-report/iMX6_Platform_SDK/output/mx6sdl/lib/libboard_smart_device_rev_a.a(epdc_iomux_config.o)
 .debug_aranges
                0x00000000000010a8       0x20 /home/leon/git/swp-report/iMX6_Platform_SDK/output/mx6sdl/lib/libboard_smart_device_rev_a.a(i2c_iomux_config.o)
 .debug_aranges
                0x00000000000010c8       0x20 /home/leon/git/swp-report/iMX6_Platform_SDK/output/mx6sdl/lib/libboard_smart_device_rev_a.a(iomux_config.o)
 .debug_aranges
                0x00000000000010e8       0x20 /home/leon/git/swp-report/iMX6_Platform_SDK/output/mx6sdl/lib/libboard_smart_device_rev_a.a(ipu1_iomux_config.o)
 .debug_aranges
                0x0000000000001108       0x20 /home/leon/git/swp-report/iMX6_Platform_SDK/output/mx6sdl/lib/libboard_smart_device_rev_a.a(ipu_iomux_config.o)
 .debug_aranges
                0x0000000000001128       0x20 /home/leon/git/swp-report/iMX6_Platform_SDK/output/mx6sdl/lib/libboard_smart_device_rev_a.a(kpp_iomux_config.o)
 .debug_aranges
                0x0000000000001148       0x20 /home/leon/git/swp-report/iMX6_Platform_SDK/output/mx6sdl/lib/libboard_smart_device_rev_a.a(mmdc_iomux_config.o)
 .debug_aranges
                0x0000000000001168       0x20 /home/leon/git/swp-report/iMX6_Platform_SDK/output/mx6sdl/lib/libboard_smart_device_rev_a.a(pwm1_iomux_config.o)
 .debug_aranges
                0x0000000000001188       0x20 /home/leon/git/swp-report/iMX6_Platform_SDK/output/mx6sdl/lib/libboard_smart_device_rev_a.a(sjc_iomux_config.o)
 .debug_aranges
                0x00000000000011a8       0x20 /home/leon/git/swp-report/iMX6_Platform_SDK/output/mx6sdl/lib/libboard_smart_device_rev_a.a(uart1_iomux_config.o)
 .debug_aranges
                0x00000000000011c8       0x20 /home/leon/git/swp-report/iMX6_Platform_SDK/output/mx6sdl/lib/libboard_smart_device_rev_a.a(uart_iomux_config.o)
 .debug_aranges
                0x00000000000011e8       0x20 /home/leon/git/swp-report/iMX6_Platform_SDK/output/mx6sdl/lib/libboard_smart_device_rev_a.a(usdhc2_iomux_config.o)
 .debug_aranges
                0x0000000000001208       0x20 /home/leon/git/swp-report/iMX6_Platform_SDK/output/mx6sdl/lib/libboard_smart_device_rev_a.a(usdhc3_iomux_config.o)
 .debug_aranges
                0x0000000000001228       0x20 /home/leon/git/swp-report/iMX6_Platform_SDK/output/mx6sdl/lib/libboard_smart_device_rev_a.a(usdhc4_iomux_config.o)
 .debug_aranges
                0x0000000000001248       0x20 /home/leon/git/swp-report/iMX6_Platform_SDK/output/mx6sdl/lib/libboard_smart_device_rev_a.a(usdhc_iomux_config.o)
 .debug_aranges
                0x0000000000001268       0x20 /home/leon/git/swp-report/iMX6_Platform_SDK/output/mx6sdl/lib/libboard_smart_device_rev_a.a(ecspi1_iomux_config.o)
 .debug_aranges
                0x0000000000001288       0x20 /home/leon/git/swp-report/iMX6_Platform_SDK/output/mx6sdl/lib/libboard_smart_device_rev_a.a(flexcan1_iomux_config.o)
 .debug_aranges
                0x00000000000012a8       0x20 /home/leon/git/swp-report/iMX6_Platform_SDK/output/mx6sdl/lib/libboard_smart_device_rev_a.a(gpio1_iomux_config.o)
 .debug_aranges
                0x00000000000012c8       0x20 /home/leon/git/swp-report/iMX6_Platform_SDK/output/mx6sdl/lib/libboard_smart_device_rev_a.a(gpio2_iomux_config.o)
 .debug_aranges
                0x00000000000012e8       0x20 /home/leon/git/swp-report/iMX6_Platform_SDK/output/mx6sdl/lib/libboard_smart_device_rev_a.a(gpio3_iomux_config.o)
 .debug_aranges
                0x0000000000001308       0x20 /home/leon/git/swp-report/iMX6_Platform_SDK/output/mx6sdl/lib/libboard_smart_device_rev_a.a(gpio4_iomux_config.o)
 .debug_aranges
                0x0000000000001328       0x20 /home/leon/git/swp-report/iMX6_Platform_SDK/output/mx6sdl/lib/libboard_smart_device_rev_a.a(gpio5_iomux_config.o)
 .debug_aranges
                0x0000000000001348       0x20 /home/leon/git/swp-report/iMX6_Platform_SDK/output/mx6sdl/lib/libboard_smart_device_rev_a.a(gpio6_iomux_config.o)
 .debug_aranges
                0x0000000000001368       0x20 /home/leon/git/swp-report/iMX6_Platform_SDK/output/mx6sdl/lib/libboard_smart_device_rev_a.a(gpio7_iomux_config.o)
 .debug_aranges
                0x0000000000001388       0x20 /home/leon/git/swp-report/iMX6_Platform_SDK/output/mx6sdl/lib/libboard_smart_device_rev_a.a(gps_iomux_config.o)
 .debug_aranges
                0x00000000000013a8       0x20 /home/leon/git/swp-report/iMX6_Platform_SDK/output/mx6sdl/lib/libboard_smart_device_rev_a.a(i2c1_iomux_config.o)
 .debug_aranges
                0x00000000000013c8       0x20 /home/leon/git/swp-report/iMX6_Platform_SDK/output/mx6sdl/lib/libboard_smart_device_rev_a.a(i2c2_iomux_config.o)
 .debug_aranges
                0x00000000000013e8       0x20 /home/leon/git/swp-report/iMX6_Platform_SDK/output/mx6sdl/lib/libboard_smart_device_rev_a.a(i2c3_iomux_config.o)
 .debug_aranges
                0x0000000000001408       0x20 /home/src/arm/target/bin/../arm-none-eabi/lib//libc.a(lib_a-assert.o)
 .debug_aranges
                0x0000000000001428       0x20 /home/src/arm/target/bin/../arm-none-eabi/lib//libc.a(lib_a-bzero.o)
 .debug_aranges
                0x0000000000001448       0x20 /home/src/arm/target/bin/../arm-none-eabi/lib//libc.a(lib_a-fiprintf.o)
 .debug_aranges
                0x0000000000001468       0x20 /home/src/arm/target/bin/../arm-none-eabi/lib//libc.a(lib_a-fputc.o)
 .debug_aranges
                0x0000000000001488       0x18 /home/src/arm/target/bin/../arm-none-eabi/lib//libc.a(lib_a-impure.o)
 .debug_aranges
                0x00000000000014a0       0x20 /home/src/arm/target/bin/../arm-none-eabi/lib//libc.a(lib_a-init.o)
 .debug_aranges
                0x00000000000014c0       0x20 /home/src/arm/target/bin/../arm-none-eabi/lib//libc.a(lib_a-malloc.o)
 .debug_aranges
                0x00000000000014e0       0x20 /home/src/arm/target/bin/../arm-none-eabi/lib//libc.a(lib_a-mallocr.o)
 .debug_aranges
                0x0000000000001500       0x20 /home/src/arm/target/bin/../arm-none-eabi/lib//libc.a(lib_a-memcpy-stub.o)
 .debug_aranges
                0x0000000000001520       0x20 /home/src/arm/target/bin/../arm-none-eabi/lib//libc.a(lib_a-memset.o)
 .debug_aranges
                0x0000000000001540       0x20 /home/src/arm/target/bin/../arm-none-eabi/lib//libc.a(lib_a-mlock.o)
 .debug_aranges
                0x0000000000001560       0x20 /home/src/arm/target/bin/../arm-none-eabi/lib//libc.a(lib_a-printf.o)
 .debug_aranges
                0x0000000000001580       0x20 /home/src/arm/target/bin/../arm-none-eabi/lib//libc.a(lib_a-putc.o)
 .debug_aranges
                0x00000000000015a0       0x20 /home/src/arm/target/bin/../arm-none-eabi/lib//libc.a(lib_a-realloc.o)
 .debug_aranges
                0x00000000000015c0       0x20 /home/src/arm/target/bin/../arm-none-eabi/lib//libc.a(lib_a-reallocr.o)
 .debug_aranges
                0x00000000000015e0       0x20 /home/src/arm/target/bin/../arm-none-eabi/lib//libc.a(lib_a-rget.o)
 .debug_aranges
                0x0000000000001600       0x20 /home/src/arm/target/bin/../arm-none-eabi/lib//libc.a(lib_a-sbrkr.o)
 .debug_aranges
                0x0000000000001620       0x20 /home/src/arm/target/bin/../arm-none-eabi/lib//libc.a(lib_a-sprintf.o)
 .debug_aranges
                0x0000000000001640       0x20 /home/src/arm/target/bin/../arm-none-eabi/lib//libc.a(lib_a-strcat.o)
 .debug_aranges
                0x0000000000001660       0x20 /home/src/arm/target/bin/../arm-none-eabi/lib//libc.a(lib_a-strcmp.o)
 .debug_aranges
                0x0000000000001680       0x20 /home/src/arm/target/bin/../arm-none-eabi/lib//libc.a(lib_a-strcpy.o)
 .debug_aranges
                0x00000000000016a0       0x20 /home/src/arm/target/bin/../arm-none-eabi/lib//libc.a(lib_a-strlen.o)
 .debug_aranges
                0x00000000000016c0       0x20 /home/src/arm/target/bin/../arm-none-eabi/lib//libc.a(lib_a-strncasecmp.o)
 .debug_aranges
                0x00000000000016e0       0x20 /home/src/arm/target/bin/../arm-none-eabi/lib//libc.a(lib_a-strtok.o)
 .debug_aranges
                0x0000000000001700       0x20 /home/src/arm/target/bin/../arm-none-eabi/lib//libc.a(lib_a-strtok_r.o)
 .debug_aranges
                0x0000000000001720       0x20 /home/src/arm/target/bin/../arm-none-eabi/lib//libc.a(lib_a-svfprintf.o)
 .debug_aranges
                0x0000000000001740       0x20 /home/src/arm/target/bin/../arm-none-eabi/lib//libc.a(lib_a-syscalls.o)
 .debug_aranges
                0x0000000000001760       0x20 /home/src/arm/target/bin/../arm-none-eabi/lib//libc.a(lib_a-vfiprintf.o)
 .debug_aranges
                0x0000000000001780       0x20 /home/src/arm/target/bin/../arm-none-eabi/lib//libc.a(lib_a-vfprintf.o)
 .debug_aranges
                0x00000000000017a0       0x20 /home/src/arm/target/bin/../arm-none-eabi/lib//libc.a(lib_a-vprintf.o)
 .debug_aranges
                0x00000000000017c0       0x20 /home/src/arm/target/bin/../arm-none-eabi/lib//libc.a(lib_a-wbuf.o)
 .debug_aranges
                0x00000000000017e0       0x20 /home/src/arm/target/bin/../arm-none-eabi/lib//libc.a(lib_a-wsetup.o)
 .debug_aranges
                0x0000000000001800       0x20 /home/src/arm/target/bin/../arm-none-eabi/lib//libc.a(lib_a-abort.o)
 .debug_aranges
                0x0000000000001820       0x18 /home/src/arm/target/bin/../arm-none-eabi/lib//libc.a(lib_a-ctype_.o)
 .debug_aranges
                0x0000000000001838       0x20 /home/src/arm/target/bin/../arm-none-eabi/lib//libc.a(lib_a-dtoa.o)
 .debug_aranges
                0x0000000000001858       0x20 /home/src/arm/target/bin/../arm-none-eabi/lib//libc.a(lib_a-errno.o)
 .debug_aranges
                0x0000000000001878       0x20 /home/src/arm/target/bin/../arm-none-eabi/lib//libc.a(lib_a-fflush.o)
 .debug_aranges
                0x0000000000001898       0x20 /home/src/arm/target/bin/../arm-none-eabi/lib//libc.a(lib_a-findfp.o)
 .debug_aranges
                0x00000000000018b8       0x20 /home/src/arm/target/bin/../arm-none-eabi/lib//libc.a(lib_a-fputwc.o)
 .debug_aranges
                0x00000000000018d8       0x20 /home/src/arm/target/bin/../arm-none-eabi/lib//libc.a(lib_a-freer.o)
 .debug_aranges
                0x00000000000018f8       0x20 /home/src/arm/target/bin/../arm-none-eabi/lib//libc.a(lib_a-fvwrite.o)
 .debug_aranges
                0x0000000000001918       0x20 /home/src/arm/target/bin/../arm-none-eabi/lib//libc.a(lib_a-fwalk.o)
 .debug_aranges
                0x0000000000001938       0x20 /home/src/arm/target/bin/../arm-none-eabi/lib//libc.a(lib_a-locale.o)
 .debug_aranges
                0x0000000000001958       0x20 /home/src/arm/target/bin/../arm-none-eabi/lib//libc.a(lib_a-makebuf.o)
 .debug_aranges
                0x0000000000001978       0x20 /home/src/arm/target/bin/../arm-none-eabi/lib//libc.a(lib_a-memchr-stub.o)
 .debug_aranges
                0x0000000000001998       0x20 /home/src/arm/target/bin/../arm-none-eabi/lib//libc.a(lib_a-memmove.o)
 .debug_aranges
                0x00000000000019b8       0x20 /home/src/arm/target/bin/../arm-none-eabi/lib//libc.a(lib_a-mprec.o)
 .debug_aranges
                0x00000000000019d8       0x20 /home/src/arm/target/bin/../arm-none-eabi/lib//libc.a(lib_a-reent.o)
 .debug_aranges
                0x00000000000019f8       0x20 /home/src/arm/target/bin/../arm-none-eabi/lib//libc.a(lib_a-refill.o)
 .debug_aranges
                0x0000000000001a18       0x20 /home/src/arm/target/bin/../arm-none-eabi/lib//libc.a(lib_a-s_fpclassify.o)
 .debug_aranges
                0x0000000000001a38       0x20 /home/src/arm/target/bin/../arm-none-eabi/lib//libc.a(lib_a-signal.o)
 .debug_aranges
                0x0000000000001a58       0x20 /home/src/arm/target/bin/../arm-none-eabi/lib//libc.a(lib_a-signalr.o)
 .debug_aranges
                0x0000000000001a78       0x20 /home/src/arm/target/bin/../arm-none-eabi/lib//libc.a(lib_a-stdio.o)
 .debug_aranges
                0x0000000000001a98       0x20 /home/src/arm/target/bin/../arm-none-eabi/lib//libc.a(lib_a-svfiprintf.o)
 .debug_aranges
                0x0000000000001ab8       0x20 /home/src/arm/target/bin/../arm-none-eabi/lib//libc.a(lib_a-wcrtomb.o)
 .debug_aranges
                0x0000000000001ad8       0x20 /home/src/arm/target/bin/../arm-none-eabi/lib//libc.a(lib_a-wctomb_r.o)
 .debug_aranges
                0x0000000000001af8       0x20 /home/src/arm/target/bin/../arm-none-eabi/lib//libc.a(lib_a-writer.o)
 .debug_aranges
                0x0000000000001b18       0x20 /home/src/arm/target/bin/../arm-none-eabi/lib//libc.a(lib_a-callocr.o)
 .debug_aranges
                0x0000000000001b38       0x20 /home/src/arm/target/bin/../arm-none-eabi/lib//libc.a(lib_a-closer.o)
 .debug_aranges
                0x0000000000001b58       0x20 /home/src/arm/target/bin/../arm-none-eabi/lib//libc.a(lib_a-fclose.o)
 .debug_aranges
                0x0000000000001b78       0x20 /home/src/arm/target/bin/../arm-none-eabi/lib//libc.a(lib_a-fstatr.o)
 .debug_aranges
                0x0000000000001b98       0x20 /home/src/arm/target/bin/../arm-none-eabi/lib//libc.a(lib_a-isattyr.o)
 .debug_aranges
                0x0000000000001bb8       0x20 /home/src/arm/target/bin/../arm-none-eabi/lib//libc.a(lib_a-lseekr.o)
 .debug_aranges
                0x0000000000001bd8       0x20 /home/src/arm/target/bin/../arm-none-eabi/lib//libc.a(lib_a-readr.o)
 .debug_aranges
                0x0000000000001bf8       0x20 /home/src/arm/target/bin/../lib/gcc/arm-none-eabi/4.8.2//libgcc.a(_udivsi3.o)
 .debug_aranges
                0x0000000000001c18       0x20 /home/src/arm/target/bin/../lib/gcc/arm-none-eabi/4.8.2//libgcc.a(_divsi3.o)
 .debug_aranges
                0x0000000000001c38       0x20 /home/src/arm/target/bin/../lib/gcc/arm-none-eabi/4.8.2//libgcc.a(_dvmd_tls.o)
 .debug_aranges
                0x0000000000001c58       0x20 /home/src/arm/target/bin/../lib/gcc/arm-none-eabi/4.8.2//libgcc.a(_arm_addsubdf3.o)
 .debug_aranges
                0x0000000000001c78       0x20 /home/src/arm/target/bin/../lib/gcc/arm-none-eabi/4.8.2//libgcc.a(_arm_muldivdf3.o)
 .debug_aranges
                0x0000000000001c98       0x20 /home/src/arm/target/bin/../lib/gcc/arm-none-eabi/4.8.2//libgcc.a(_arm_cmpdf2.o)
 .debug_aranges
                0x0000000000001cb8       0x20 /home/src/arm/target/bin/../lib/gcc/arm-none-eabi/4.8.2//libgcc.a(_arm_fixdfsi.o)
 .debug_aranges
                0x0000000000001cd8       0x20 /home/src/arm/target/bin/../lib/gcc/arm-none-eabi/4.8.2//libgcc.a(_aeabi_uldivmod.o)
 .debug_aranges
                0x0000000000001cf8       0x20 /home/src/arm/target/bin/../lib/gcc/arm-none-eabi/4.8.2//libgcc.a(bpabi.o)
 .debug_aranges
                0x0000000000001d18       0x20 /home/src/arm/target/bin/../lib/gcc/arm-none-eabi/4.8.2//libgcc.a(_divdi3.o)
 .debug_aranges
                0x0000000000001d38       0x20 /home/src/arm/target/bin/../lib/gcc/arm-none-eabi/4.8.2//libgcc.a(_udivdi3.o)
 .debug_aranges
                0x0000000000001d58       0x20 /home/src/arm/target/bin/../lib/gcc/arm-none-eabi/4.8.2//libgcc.a(_clzsi2.o)

.debug_line     0x0000000000000000    0x235ea
 .debug_line    0x0000000000000000       0xf2 /home/leon/git/swp-report/iMX6_Platform_SDK/output/mx6sdl/obds/smart_device_rev_a/obj/apps/common/ivt.o
 .debug_line    0x00000000000000f2      0x1ab /home/leon/git/swp-report/iMX6_Platform_SDK/output/mx6sdl/obds/smart_device_rev_a/obj/apps/common/platform_init.o
 .debug_line    0x000000000000029d      0x160 /home/leon/git/swp-report/iMX6_Platform_SDK/output/mx6sdl/obds/smart_device_rev_a/obj/apps/common/print_clock_info.o
 .debug_line    0x00000000000003fd      0x16b /home/leon/git/swp-report/iMX6_Platform_SDK/output/mx6sdl/obds/smart_device_rev_a/obj/apps/common/print_version.o
 .debug_line    0x0000000000000568      0x328 /home/leon/git/swp-report/iMX6_Platform_SDK/output/mx6sdl/obds/smart_device_rev_a/obj/apps/obds/src/obds.o
 .debug_line    0x0000000000000890       0xf0 /home/leon/git/swp-report/iMX6_Platform_SDK/output/mx6sdl/obds/smart_device_rev_a/obj/apps/obds/src/obds_utils.o
 .debug_line    0x0000000000000980      0x20d /home/leon/git/swp-report/iMX6_Platform_SDK/output/mx6sdl/obds/smart_device_rev_a/obj/apps/obds/src/tests/android_buttons_test.o
 .debug_line    0x0000000000000b8d      0x411 /home/leon/git/swp-report/iMX6_Platform_SDK/output/mx6sdl/obds/smart_device_rev_a/obj/apps/obds/src/tests/audio_esai_test.o
 .debug_line    0x0000000000000f9e      0x2df /home/leon/git/swp-report/iMX6_Platform_SDK/output/mx6sdl/obds/smart_device_rev_a/obj/apps/obds/src/tests/audio_ssi_test.o
 .debug_line    0x000000000000127d      0x262 /home/leon/git/swp-report/iMX6_Platform_SDK/output/mx6sdl/obds/smart_device_rev_a/obj/apps/obds/src/tests/ddr_test.o
 .debug_line    0x00000000000014df      0x20f /home/leon/git/swp-report/iMX6_Platform_SDK/output/mx6sdl/obds/smart_device_rev_a/obj/apps/obds/src/tests/deserializer_ds90ur124.o
 .debug_line    0x00000000000016ee      0x2cd /home/leon/git/swp-report/iMX6_Platform_SDK/output/mx6sdl/obds/smart_device_rev_a/obj/apps/obds/src/tests/display_test.o
 .debug_line    0x00000000000019bb      0x2c8 /home/leon/git/swp-report/iMX6_Platform_SDK/output/mx6sdl/obds/smart_device_rev_a/obj/apps/obds/src/tests/enet_mx6dldq_test.o
 .debug_line    0x0000000000001c83       0xd1 /home/leon/git/swp-report/iMX6_Platform_SDK/output/mx6sdl/obds/smart_device_rev_a/obj/apps/obds/src/tests/flexcan_test.o
 .debug_line    0x0000000000001d54      0x228 /home/leon/git/swp-report/iMX6_Platform_SDK/output/mx6sdl/obds/smart_device_rev_a/obj/apps/obds/src/tests/fm_tuner_si476x_test.o
 .debug_line    0x0000000000001f7c      0x1fc /home/leon/git/swp-report/iMX6_Platform_SDK/output/mx6sdl/obds/smart_device_rev_a/obj/apps/obds/src/tests/gpio_led.o
 .debug_line    0x0000000000002178      0x1b3 /home/leon/git/swp-report/iMX6_Platform_SDK/output/mx6sdl/obds/smart_device_rev_a/obj/apps/obds/src/tests/gps_test.o
 .debug_line    0x000000000000232b      0x304 /home/leon/git/swp-report/iMX6_Platform_SDK/output/mx6sdl/obds/smart_device_rev_a/obj/apps/obds/src/tests/i2c_check_light_sensor_isl29023.o
 .debug_line    0x000000000000262f      0x22c /home/leon/git/swp-report/iMX6_Platform_SDK/output/mx6sdl/obds/smart_device_rev_a/obj/apps/obds/src/tests/i2c_device_barometer_ppl3115.o
 .debug_line    0x000000000000285b      0x1b8 /home/leon/git/swp-report/iMX6_Platform_SDK/output/mx6sdl/obds/smart_device_rev_a/obj/apps/obds/src/tests/i2c_device_check_cs42888.o
 .debug_line    0x0000000000002a13      0x223 /home/leon/git/swp-report/iMX6_Platform_SDK/output/mx6sdl/obds/smart_device_rev_a/obj/apps/obds/src/tests/i2c_device_digital_compass_mag3110.o
 .debug_line    0x0000000000002c36      0x223 /home/leon/git/swp-report/iMX6_Platform_SDK/output/mx6sdl/obds/smart_device_rev_a/obj/apps/obds/src/tests/i2c_device_digital_compass_mag3112.o
 .debug_line    0x0000000000002e59      0x3ec /home/leon/git/swp-report/iMX6_Platform_SDK/output/mx6sdl/obds/smart_device_rev_a/obj/apps/obds/src/tests/i2c_device_id_check_mma8450.o
 .debug_line    0x0000000000003245      0x3f1 /home/leon/git/swp-report/iMX6_Platform_SDK/output/mx6sdl/obds/smart_device_rev_a/obj/apps/obds/src/tests/i2c_device_id_check_mma8451.o
 .debug_line    0x0000000000003636      0x30b /home/leon/git/swp-report/iMX6_Platform_SDK/output/mx6sdl/obds/smart_device_rev_a/obj/apps/obds/src/tests/i2c_device_id_check_p1003_tsc.o
 .debug_line    0x0000000000003941      0x28c /home/leon/git/swp-report/iMX6_Platform_SDK/output/mx6sdl/obds/smart_device_rev_a/obj/apps/obds/src/tests/i2c_device_temp_sensor_emc1046.o
 .debug_line    0x0000000000003bcd      0x1ef /home/leon/git/swp-report/iMX6_Platform_SDK/output/mx6sdl/obds/smart_device_rev_a/obj/apps/obds/src/tests/i2c_device_zigbee_mc1323.o
 .debug_line    0x0000000000003dbc      0x234 /home/leon/git/swp-report/iMX6_Platform_SDK/output/mx6sdl/obds/smart_device_rev_a/obj/apps/obds/src/tests/i2c_eeprom_at24cxx_test.o
 .debug_line    0x0000000000003ff0      0x228 /home/leon/git/swp-report/iMX6_Platform_SDK/output/mx6sdl/obds/smart_device_rev_a/obj/apps/obds/src/tests/imx_spi_nor_test.o
 .debug_line    0x0000000000004218      0x23a /home/leon/git/swp-report/iMX6_Platform_SDK/output/mx6sdl/obds/smart_device_rev_a/obj/apps/obds/src/tests/mlb_os81050.o
 .debug_line    0x0000000000004452      0x154 /home/leon/git/swp-report/iMX6_Platform_SDK/output/mx6sdl/obds/smart_device_rev_a/obj/apps/obds/src/tests/mmcsd_test.o
 .debug_line    0x00000000000045a6      0x205 /home/leon/git/swp-report/iMX6_Platform_SDK/output/mx6sdl/obds/smart_device_rev_a/obj/apps/obds/src/tests/pmic_da9053.o
 .debug_line    0x00000000000047ab      0x3f1 /home/leon/git/swp-report/iMX6_Platform_SDK/output/mx6sdl/obds/smart_device_rev_a/obj/apps/obds/src/tests/pmic_lt3589.o
 .debug_line    0x0000000000004b9c      0x1d1 /home/leon/git/swp-report/iMX6_Platform_SDK/output/mx6sdl/obds/smart_device_rev_a/obj/apps/obds/src/tests/pmic_max17135.o
 .debug_line    0x0000000000004d6d       0xfe /home/leon/git/swp-report/iMX6_Platform_SDK/output/mx6sdl/obds/smart_device_rev_a/obj/apps/obds/src/tests/pmic_mc13892.o
 .debug_line    0x0000000000004e6b      0x257 /home/leon/git/swp-report/iMX6_Platform_SDK/output/mx6sdl/obds/smart_device_rev_a/obj/apps/obds/src/tests/program_board_id.o
 .debug_line    0x00000000000050c2      0x326 /home/leon/git/swp-report/iMX6_Platform_SDK/output/mx6sdl/obds/smart_device_rev_a/obj/apps/obds/src/tests/program_mac_address.o
 .debug_line    0x00000000000053e8      0x1aa /home/leon/git/swp-report/iMX6_Platform_SDK/output/mx6sdl/obds/smart_device_rev_a/obj/apps/obds/src/tests/snvs_srtc_test.o
 .debug_line    0x0000000000005592      0x23f /home/leon/git/swp-report/iMX6_Platform_SDK/output/mx6sdl/obds/smart_device_rev_a/obj/apps/obds/src/tests/touch_button_test.o
 .debug_line    0x00000000000057d1      0x2aa /home/leon/git/swp-report/iMX6_Platform_SDK/output/mx6sdl/obds/smart_device_rev_a/obj/apps/obds/src/tests/touch_screen.o
 .debug_line    0x0000000000005a7b      0x363 /home/leon/git/swp-report/iMX6_Platform_SDK/output/mx6sdl/obds/smart_device_rev_a/obj/apps/obds/src/tests/touch_screen_max11801.o
 .debug_line    0x0000000000005dde      0x24d /home/leon/git/swp-report/iMX6_Platform_SDK/output/mx6sdl/obds/smart_device_rev_a/obj/apps/obds/src/tests/usb_tests_obds.o
 .debug_line    0x000000000000602b       0xed /home/leon/git/swp-report/iMX6_Platform_SDK/output/mx6sdl/obds/smart_device_rev_a/obj/apps/obds/src/tests/video_dec_ARD_MB_reset_button.o
 .debug_line    0x0000000000006118       0xeb /home/leon/git/swp-report/iMX6_Platform_SDK/output/mx6sdl/obds/smart_device_rev_a/obj/apps/obds/src/tests/video_dec_ARD_MBrst_from_cpu_expander.o
 .debug_line    0x0000000000006203      0x265 /home/leon/git/swp-report/iMX6_Platform_SDK/output/mx6sdl/obds/smart_device_rev_a/obj/apps/obds/src/tests/video_dec_adv7180.o
 .debug_line    0x0000000000006468      0x156 /home/leon/git/swp-report/iMX6_Platform_SDK/output/mx6sdl/obds/smart_device_rev_a/obj/apps/obds/src/tests/weim_nor_flash_test.o
 .debug_line    0x00000000000065be      0x1b7 /home/leon/git/swp-report/iMX6_Platform_SDK/output/mx6sdl/obds/smart_device_rev_a/obj/sdk/common/ioexpander/test/max7310_test.o
 .debug_line    0x0000000000006775      0x1e3 /home/leon/git/swp-report/iMX6_Platform_SDK/output/mx6sdl/obds/smart_device_rev_a/obj/sdk/common/pmic/pfuse/pf0100.o
 .debug_line    0x0000000000006958      0x1a0 /home/leon/git/swp-report/iMX6_Platform_SDK/output/mx6sdl/obds/smart_device_rev_a/obj/sdk/drivers/audio/src/snd_card.o
 .debug_line    0x0000000000006af8        0x0 /home/leon/git/swp-report/iMX6_Platform_SDK/output/mx6sdl/obds/smart_device_rev_a/obj/sdk/drivers/camera/test/adv7180_capture.o
 .debug_line    0x0000000000006af8      0x1b6 /home/leon/git/swp-report/iMX6_Platform_SDK/output/mx6sdl/obds/smart_device_rev_a/obj/sdk/drivers/camera/test/camera_test.o
 .debug_line    0x0000000000006cae      0x269 /home/leon/git/swp-report/iMX6_Platform_SDK/output/mx6sdl/obds/smart_device_rev_a/obj/sdk/drivers/camera/test/csi_test_mode.o
 .debug_line    0x0000000000006f17      0x268 /home/leon/git/swp-report/iMX6_Platform_SDK/output/mx6sdl/obds/smart_device_rev_a/obj/sdk/drivers/camera/test/sensor_capture.o
 .debug_line    0x000000000000717f      0x233 /home/leon/git/swp-report/iMX6_Platform_SDK/output/mx6sdl/obds/smart_device_rev_a/obj/sdk/drivers/epdc/test/epdc_test.o
 .debug_line    0x00000000000073b2      0x293 /home/leon/git/swp-report/iMX6_Platform_SDK/output/mx6sdl/obds/smart_device_rev_a/obj/sdk/drivers/hdmi/test/hdmi_test.o
 .debug_line    0x0000000000007645      0x145 /home/leon/git/swp-report/iMX6_Platform_SDK/output/mx6sdl/obds/smart_device_rev_a/obj/sdk/drivers/hdmi/test/init_dma_data.o
 .debug_line    0x000000000000778a      0x3dd /home/leon/git/swp-report/iMX6_Platform_SDK/output/mx6sdl/obds/smart_device_rev_a/obj/sdk/drivers/ipu/test/ips_display.o
 .debug_line    0x0000000000007b67      0x1d1 /home/leon/git/swp-report/iMX6_Platform_SDK/output/mx6sdl/obds/smart_device_rev_a/obj/sdk/drivers/ipu/test/ipu_image.o
 .debug_line    0x0000000000007d38      0x2cc /home/leon/git/swp-report/iMX6_Platform_SDK/output/mx6sdl/obds/smart_device_rev_a/obj/sdk/drivers/spi/test/imx_spi_nor_atmel.o
 .debug_line    0x0000000000008004      0x21d /home/leon/git/swp-report/iMX6_Platform_SDK/output/mx6sdl/obds/smart_device_rev_a/obj/sdk/drivers/spi/test/spi_nor_numonyx.o
 .debug_line    0x0000000000008221      0x1ef /home/leon/git/swp-report/iMX6_Platform_SDK/output/mx6sdl/obds/smart_device_rev_a/obj/sdk/drivers/uart/test/uart_test.o
 .debug_line    0x0000000000008410      0xfa9 /home/leon/git/swp-report/iMX6_Platform_SDK/output/mx6sdl/obds/smart_device_rev_a/obj/sdk/drivers/usb/test/usb0_host_test.o
 .debug_line    0x00000000000093b9      0x455 /home/leon/git/swp-report/iMX6_Platform_SDK/output/mx6sdl/obds/smart_device_rev_a/obj/sdk/drivers/usb/test/usb0_host_testmodes_test.o
 .debug_line    0x000000000000980e      0x34b /home/leon/git/swp-report/iMX6_Platform_SDK/output/mx6sdl/obds/smart_device_rev_a/obj/sdk/drivers/usdhc/test/usdhc_test.o
 .debug_line    0x0000000000009b59      0x183 /home/leon/git/swp-report/iMX6_Platform_SDK/output/mx6sdl/lib/libsdk.a(max7310.o)
 .debug_line    0x0000000000009cdc      0x29e /home/leon/git/swp-report/iMX6_Platform_SDK/output/mx6sdl/lib/libsdk.a(ccm_pll.o)
 .debug_line    0x0000000000009f7a      0x154 /home/leon/git/swp-report/iMX6_Platform_SDK/output/mx6sdl/lib/libsdk.a(gic.o)
 .debug_line    0x000000000000a0ce      0x170 /home/leon/git/swp-report/iMX6_Platform_SDK/output/mx6sdl/lib/libsdk.a(interrupt.o)
 .debug_line    0x000000000000a23e      0x177 /home/leon/git/swp-report/iMX6_Platform_SDK/output/mx6sdl/lib/libsdk.a(mmu.o)
 .debug_line    0x000000000000a3b5      0x2ba /home/leon/git/swp-report/iMX6_Platform_SDK/output/mx6sdl/lib/libsdk.a(menu.o)
 .debug_line    0x000000000000a66f       0x6a /home/leon/git/swp-report/iMX6_Platform_SDK/output/mx6sdl/lib/libsdk.a(sdk_version.o)
 .debug_line    0x000000000000a6d9      0x33d /home/leon/git/swp-report/iMX6_Platform_SDK/output/mx6sdl/lib/libsdk.a(system_util.o)
 .debug_line    0x000000000000aa16       0xdf /home/leon/git/swp-report/iMX6_Platform_SDK/output/mx6sdl/lib/libsdk.a(text_color.o)
 .debug_line    0x000000000000aaf5      0x230 /home/leon/git/swp-report/iMX6_Platform_SDK/output/mx6sdl/lib/libsdk.a(cs42888.o)
 .debug_line    0x000000000000ad25     0x11be /home/leon/git/swp-report/iMX6_Platform_SDK/output/mx6sdl/lib/libsdk.a(imx-ssi.o)
 .debug_line    0x000000000000bee3      0x43b /home/leon/git/swp-report/iMX6_Platform_SDK/output/mx6sdl/lib/libsdk.a(imx_audmux.o)
 .debug_line    0x000000000000c31e      0x2ca /home/leon/git/swp-report/iMX6_Platform_SDK/output/mx6sdl/lib/libsdk.a(imx_esai.o)
 .debug_line    0x000000000000c5e8      0x216 /home/leon/git/swp-report/iMX6_Platform_SDK/output/mx6sdl/lib/libsdk.a(imx_spdif.o)
 .debug_line    0x000000000000c7fe      0x41e /home/leon/git/swp-report/iMX6_Platform_SDK/output/mx6sdl/lib/libsdk.a(sgtl5000.o)
 .debug_line    0x000000000000cc1c      0x324 /home/leon/git/swp-report/iMX6_Platform_SDK/output/mx6sdl/lib/libsdk.a(wm8958_dac.o)
 .debug_line    0x000000000000cf40      0x2dd /home/leon/git/swp-report/iMX6_Platform_SDK/output/mx6sdl/lib/libsdk.a(wm8962.o)
 .debug_line    0x000000000000d21d      0x266 /home/leon/git/swp-report/iMX6_Platform_SDK/output/mx6sdl/lib/libsdk.a(board_id.o)
 .debug_line    0x000000000000d483      0x24e /home/leon/git/swp-report/iMX6_Platform_SDK/output/mx6sdl/lib/libsdk.a(smd_sensor.o)
 .debug_line    0x000000000000d6d1      0x369 /home/leon/git/swp-report/iMX6_Platform_SDK/output/mx6sdl/lib/libsdk.a(enet_drv.o)
 .debug_line    0x000000000000da3a      0x28a /home/leon/git/swp-report/iMX6_Platform_SDK/output/mx6sdl/lib/libsdk.a(mxc_epdc.o)
 .debug_line    0x000000000000dcc4      0x7aa /home/leon/git/swp-report/iMX6_Platform_SDK/output/mx6sdl/lib/libsdk.a(gpio.o)
 .debug_line    0x000000000000e46e       0xbf /home/leon/git/swp-report/iMX6_Platform_SDK/output/mx6sdl/lib/libsdk.a(imx6sdl_gpio_map.o)
 .debug_line    0x000000000000e52d      0x2b1 /home/leon/git/swp-report/iMX6_Platform_SDK/output/mx6sdl/lib/libsdk.a(hdmi_tx.o)
 .debug_line    0x000000000000e7de      0x2b4 /home/leon/git/swp-report/iMX6_Platform_SDK/output/mx6sdl/lib/libsdk.a(hdmi_tx_audio.o)
 .debug_line    0x000000000000ea92      0x2d9 /home/leon/git/swp-report/iMX6_Platform_SDK/output/mx6sdl/lib/libsdk.a(hdmi_tx_phy.o)
 .debug_line    0x000000000000ed6b      0x992 /home/leon/git/swp-report/iMX6_Platform_SDK/output/mx6sdl/lib/libsdk.a(imx_i2c.o)
 .debug_line    0x000000000000f6fd      0x21e /home/leon/git/swp-report/iMX6_Platform_SDK/output/mx6sdl/lib/libsdk.a(ips_disp_panel.o)
 .debug_line    0x000000000000f91b      0x2fa /home/leon/git/swp-report/iMX6_Platform_SDK/output/mx6sdl/lib/libsdk.a(ipu_common.o)
 .debug_line    0x000000000000fc15      0x1bf /home/leon/git/swp-report/iMX6_Platform_SDK/output/mx6sdl/lib/libsdk.a(ipu_csi.o)
 .debug_line    0x000000000000fdd4      0x2fc /home/leon/git/swp-report/iMX6_Platform_SDK/output/mx6sdl/lib/libsdk.a(ipu_dc.o)
 .debug_line    0x00000000000100d0      0x231 /home/leon/git/swp-report/iMX6_Platform_SDK/output/mx6sdl/lib/libsdk.a(ipu_di.o)
 .debug_line    0x0000000000010301      0x13a /home/leon/git/swp-report/iMX6_Platform_SDK/output/mx6sdl/lib/libsdk.a(ipu_dmfc.o)
 .debug_line    0x000000000001043b      0x16b /home/leon/git/swp-report/iMX6_Platform_SDK/output/mx6sdl/lib/libsdk.a(ipu_dp.o)
 .debug_line    0x00000000000105a6      0x966 /home/leon/git/swp-report/iMX6_Platform_SDK/output/mx6sdl/lib/libsdk.a(ipu_idmac.o)
 .debug_line    0x0000000000010f0c      0x17c /home/leon/git/swp-report/iMX6_Platform_SDK/output/mx6sdl/lib/libsdk.a(ipu_vdi.o)
 .debug_line    0x0000000000011088      0x1db /home/leon/git/swp-report/iMX6_Platform_SDK/output/mx6sdl/lib/libsdk.a(ldb.o)
 .debug_line    0x0000000000011263      0x19e /home/leon/git/swp-report/iMX6_Platform_SDK/output/mx6sdl/lib/libsdk.a(ocotp.o)
 .debug_line    0x0000000000011401      0x849 /home/leon/git/swp-report/iMX6_Platform_SDK/output/mx6sdl/lib/libsdk.a(ecspi.o)
 .debug_line    0x0000000000011c4a      0x1ec /home/leon/git/swp-report/iMX6_Platform_SDK/output/mx6sdl/lib/libsdk.a(timer.o)
 .debug_line    0x0000000000011e36     0x12ba /home/leon/git/swp-report/iMX6_Platform_SDK/output/mx6sdl/lib/libsdk.a(imx_uart.o)
 .debug_line    0x00000000000130f0      0x285 /home/leon/git/swp-report/iMX6_Platform_SDK/output/mx6sdl/lib/libsdk.a(usb_common.o)
 .debug_line    0x0000000000013375     0x10c6 /home/leon/git/swp-report/iMX6_Platform_SDK/output/mx6sdl/lib/libsdk.a(usbh_drv.o)
 .debug_line    0x000000000001443b      0x307 /home/leon/git/swp-report/iMX6_Platform_SDK/output/mx6sdl/lib/libsdk.a(usdhc.o)
 .debug_line    0x0000000000014742     0x149b /home/leon/git/swp-report/iMX6_Platform_SDK/output/mx6sdl/lib/libsdk.a(usdhc_host.o)
 .debug_line    0x0000000000015bdd      0x318 /home/leon/git/swp-report/iMX6_Platform_SDK/output/mx6sdl/lib/libsdk.a(usdhc_mmc.o)
 .debug_line    0x0000000000015ef5      0x1c1 /home/leon/git/swp-report/iMX6_Platform_SDK/output/mx6sdl/lib/libsdk.a(usdhc_sd.o)
 .debug_line    0x00000000000160b6      0x199 /home/leon/git/swp-report/iMX6_Platform_SDK/output/mx6sdl/lib/libsdk.a(armv7_cache.o)
 .debug_line    0x000000000001624f      0x10e /home/leon/git/swp-report/iMX6_Platform_SDK/output/mx6sdl/lib/libsdk.a(camera_profile.o)
 .debug_line    0x000000000001635d      0x59e /home/leon/git/swp-report/iMX6_Platform_SDK/output/mx6sdl/lib/libsdk.a(hdmi_common.o)
 .debug_line    0x00000000000168fb      0x2ca /home/leon/git/swp-report/iMX6_Platform_SDK/output/mx6sdl/lib/libsdk.a(ipu_ic.o)
 .debug_line    0x0000000000016bc5      0x56a /home/leon/git/swp-report/iMX6_Platform_SDK/output/mx6sdl/lib/libsdk.a(epit.o)
 .debug_line    0x000000000001712f      0x260 /home/leon/git/swp-report/iMX6_Platform_SDK/output/mx6sdl/lib/libsdk.a(mx6x_usb.o)
 .debug_line    0x000000000001738f      0x230 /home/leon/git/swp-report/iMX6_Platform_SDK/output/mx6sdl/lib/libsdk.a(abort_handler.o)
 .debug_line    0x00000000000175bf      0x17c /home/leon/git/swp-report/iMX6_Platform_SDK/output/mx6sdl/lib/libboard_smart_device_rev_a.a(board_audio.o)
 .debug_line    0x000000000001773b      0x137 /home/leon/git/swp-report/iMX6_Platform_SDK/output/mx6sdl/lib/libboard_smart_device_rev_a.a(board_buttons.o)
 .debug_line    0x0000000000017872      0x230 /home/leon/git/swp-report/iMX6_Platform_SDK/output/mx6sdl/lib/libboard_smart_device_rev_a.a(board_camera.o)
 .debug_line    0x0000000000017aa2      0x194 /home/leon/git/swp-report/iMX6_Platform_SDK/output/mx6sdl/lib/libboard_smart_device_rev_a.a(board_display.o)
 .debug_line    0x0000000000017c36      0x161 /home/leon/git/swp-report/iMX6_Platform_SDK/output/mx6sdl/lib/libboard_smart_device_rev_a.a(board_hdmi.o)
 .debug_line    0x0000000000017d97       0xf9 /home/leon/git/swp-report/iMX6_Platform_SDK/output/mx6sdl/lib/libboard_smart_device_rev_a.a(board_i2c.o)
 .debug_line    0x0000000000017e90      0x118 /home/leon/git/swp-report/iMX6_Platform_SDK/output/mx6sdl/lib/libboard_smart_device_rev_a.a(board_io_expanders.o)
 .debug_line    0x0000000000017fa8      0x17d /home/leon/git/swp-report/iMX6_Platform_SDK/output/mx6sdl/lib/libboard_smart_device_rev_a.a(board_mipi.o)
 .debug_line    0x0000000000018125       0xd3 /home/leon/git/swp-report/iMX6_Platform_SDK/output/mx6sdl/lib/libboard_smart_device_rev_a.a(board_network.o)
 .debug_line    0x00000000000181f8      0x121 /home/leon/git/swp-report/iMX6_Platform_SDK/output/mx6sdl/lib/libboard_smart_device_rev_a.a(board_usb.o)
 .debug_line    0x0000000000018319      0x128 /home/leon/git/swp-report/iMX6_Platform_SDK/output/mx6sdl/lib/libboard_smart_device_rev_a.a(board_usdhc.o)
 .debug_line    0x0000000000018441       0xb7 /home/leon/git/swp-report/iMX6_Platform_SDK/output/mx6sdl/lib/libboard_smart_device_rev_a.a(hardware_modules.o)
 .debug_line    0x00000000000184f8      0x100 /home/leon/git/swp-report/iMX6_Platform_SDK/output/mx6sdl/lib/libboard_smart_device_rev_a.a(dcd.o)
 .debug_line    0x00000000000185f8      0x115 /home/leon/git/swp-report/iMX6_Platform_SDK/output/mx6sdl/lib/libboard_smart_device_rev_a.a(audmux_iomux_config.o)
 .debug_line    0x000000000001870d       0xfe /home/leon/git/swp-report/iMX6_Platform_SDK/output/mx6sdl/lib/libboard_smart_device_rev_a.a(ccm_iomux_config.o)
 .debug_line    0x000000000001880b       0x9e /home/leon/git/swp-report/iMX6_Platform_SDK/output/mx6sdl/lib/libboard_smart_device_rev_a.a(ecspi_iomux_config.o)
 .debug_line    0x00000000000188a9      0x19e /home/leon/git/swp-report/iMX6_Platform_SDK/output/mx6sdl/lib/libboard_smart_device_rev_a.a(enet_iomux_config.o)
 .debug_line    0x0000000000018a47      0x221 /home/leon/git/swp-report/iMX6_Platform_SDK/output/mx6sdl/lib/libboard_smart_device_rev_a.a(epdc_iomux_config.o)
 .debug_line    0x0000000000018c68       0x9c /home/leon/git/swp-report/iMX6_Platform_SDK/output/mx6sdl/lib/libboard_smart_device_rev_a.a(i2c_iomux_config.o)
 .debug_line    0x0000000000018d04       0xfb /home/leon/git/swp-report/iMX6_Platform_SDK/output/mx6sdl/lib/libboard_smart_device_rev_a.a(iomux_config.o)
 .debug_line    0x0000000000018dff      0x1eb /home/leon/git/swp-report/iMX6_Platform_SDK/output/mx6sdl/lib/libboard_smart_device_rev_a.a(ipu1_iomux_config.o)
 .debug_line    0x0000000000018fea       0x98 /home/leon/git/swp-report/iMX6_Platform_SDK/output/mx6sdl/lib/libboard_smart_device_rev_a.a(ipu_iomux_config.o)
 .debug_line    0x0000000000019082      0x13a /home/leon/git/swp-report/iMX6_Platform_SDK/output/mx6sdl/lib/libboard_smart_device_rev_a.a(kpp_iomux_config.o)
 .debug_line    0x00000000000191bc      0x5db /home/leon/git/swp-report/iMX6_Platform_SDK/output/mx6sdl/lib/libboard_smart_device_rev_a.a(mmdc_iomux_config.o)
 .debug_line    0x0000000000019797      0x101 /home/leon/git/swp-report/iMX6_Platform_SDK/output/mx6sdl/lib/libboard_smart_device_rev_a.a(pwm1_iomux_config.o)
 .debug_line    0x0000000000019898      0x10a /home/leon/git/swp-report/iMX6_Platform_SDK/output/mx6sdl/lib/libboard_smart_device_rev_a.a(sjc_iomux_config.o)
 .debug_line    0x00000000000199a2      0x10c /home/leon/git/swp-report/iMX6_Platform_SDK/output/mx6sdl/lib/libboard_smart_device_rev_a.a(uart1_iomux_config.o)
 .debug_line    0x0000000000019aae       0x9e /home/leon/git/swp-report/iMX6_Platform_SDK/output/mx6sdl/lib/libboard_smart_device_rev_a.a(uart_iomux_config.o)
 .debug_line    0x0000000000019b4c      0x13c /home/leon/git/swp-report/iMX6_Platform_SDK/output/mx6sdl/lib/libboard_smart_device_rev_a.a(usdhc2_iomux_config.o)
 .debug_line    0x0000000000019c88      0x13c /home/leon/git/swp-report/iMX6_Platform_SDK/output/mx6sdl/lib/libboard_smart_device_rev_a.a(usdhc3_iomux_config.o)
 .debug_line    0x0000000000019dc4      0x13c /home/leon/git/swp-report/iMX6_Platform_SDK/output/mx6sdl/lib/libboard_smart_device_rev_a.a(usdhc4_iomux_config.o)
 .debug_line    0x0000000000019f00       0x9e /home/leon/git/swp-report/iMX6_Platform_SDK/output/mx6sdl/lib/libboard_smart_device_rev_a.a(usdhc_iomux_config.o)
 .debug_line    0x0000000000019f9e      0x11f /home/leon/git/swp-report/iMX6_Platform_SDK/output/mx6sdl/lib/libboard_smart_device_rev_a.a(ecspi1_iomux_config.o)
 .debug_line    0x000000000001a0bd      0x10e /home/leon/git/swp-report/iMX6_Platform_SDK/output/mx6sdl/lib/libboard_smart_device_rev_a.a(flexcan1_iomux_config.o)
 .debug_line    0x000000000001a1cb      0x162 /home/leon/git/swp-report/iMX6_Platform_SDK/output/mx6sdl/lib/libboard_smart_device_rev_a.a(gpio1_iomux_config.o)
 .debug_line    0x000000000001a32d      0x138 /home/leon/git/swp-report/iMX6_Platform_SDK/output/mx6sdl/lib/libboard_smart_device_rev_a.a(gpio2_iomux_config.o)
 .debug_line    0x000000000001a465      0x162 /home/leon/git/swp-report/iMX6_Platform_SDK/output/mx6sdl/lib/libboard_smart_device_rev_a.a(gpio3_iomux_config.o)
 .debug_line    0x000000000001a5c7      0x114 /home/leon/git/swp-report/iMX6_Platform_SDK/output/mx6sdl/lib/libboard_smart_device_rev_a.a(gpio4_iomux_config.o)
 .debug_line    0x000000000001a6db      0x108 /home/leon/git/swp-report/iMX6_Platform_SDK/output/mx6sdl/lib/libboard_smart_device_rev_a.a(gpio5_iomux_config.o)
 .debug_line    0x000000000001a7e3      0x132 /home/leon/git/swp-report/iMX6_Platform_SDK/output/mx6sdl/lib/libboard_smart_device_rev_a.a(gpio6_iomux_config.o)
 .debug_line    0x000000000001a915      0x10e /home/leon/git/swp-report/iMX6_Platform_SDK/output/mx6sdl/lib/libboard_smart_device_rev_a.a(gpio7_iomux_config.o)
 .debug_line    0x000000000001aa23      0x11c /home/leon/git/swp-report/iMX6_Platform_SDK/output/mx6sdl/lib/libboard_smart_device_rev_a.a(gps_iomux_config.o)
 .debug_line    0x000000000001ab3f      0x10b /home/leon/git/swp-report/iMX6_Platform_SDK/output/mx6sdl/lib/libboard_smart_device_rev_a.a(i2c1_iomux_config.o)
 .debug_line    0x000000000001ac4a      0x10b /home/leon/git/swp-report/iMX6_Platform_SDK/output/mx6sdl/lib/libboard_smart_device_rev_a.a(i2c2_iomux_config.o)
 .debug_line    0x000000000001ad55      0x10b /home/leon/git/swp-report/iMX6_Platform_SDK/output/mx6sdl/lib/libboard_smart_device_rev_a.a(i2c3_iomux_config.o)
 .debug_line    0x000000000001ae60      0x167 /home/src/arm/target/bin/../arm-none-eabi/lib//libc.a(lib_a-assert.o)
 .debug_line    0x000000000001afc7       0xf2 /home/src/arm/target/bin/../arm-none-eabi/lib//libc.a(lib_a-bzero.o)
 .debug_line    0x000000000001b0b9      0x16b /home/src/arm/target/bin/../arm-none-eabi/lib//libc.a(lib_a-fiprintf.o)
 .debug_line    0x000000000001b224      0x168 /home/src/arm/target/bin/../arm-none-eabi/lib//libc.a(lib_a-fputc.o)
 .debug_line    0x000000000001b38c       0xf8 /home/src/arm/target/bin/../arm-none-eabi/lib//libc.a(lib_a-impure.o)
 .debug_line    0x000000000001b484       0xd8 /home/src/arm/target/bin/../arm-none-eabi/lib//libc.a(lib_a-init.o)
 .debug_line    0x000000000001b55c      0x14d /home/src/arm/target/bin/../arm-none-eabi/lib//libc.a(lib_a-malloc.o)
 .debug_line    0x000000000001b6a9      0x340 /home/src/arm/target/bin/../arm-none-eabi/lib//libc.a(lib_a-mallocr.o)
 .debug_line    0x000000000001b9e9      0x13d /home/src/arm/target/bin/../arm-none-eabi/lib//libc.a(lib_a-memcpy-stub.o)
 .debug_line    0x000000000001bb26      0x128 /home/src/arm/target/bin/../arm-none-eabi/lib//libc.a(lib_a-memset.o)
 .debug_line    0x000000000001bc4e      0x10a /home/src/arm/target/bin/../arm-none-eabi/lib//libc.a(lib_a-mlock.o)
 .debug_line    0x000000000001bd58      0x169 /home/src/arm/target/bin/../arm-none-eabi/lib//libc.a(lib_a-printf.o)
 .debug_line    0x000000000001bec1      0x1af /home/src/arm/target/bin/../arm-none-eabi/lib//libc.a(lib_a-putc.o)
 .debug_line    0x000000000001c070      0x148 /home/src/arm/target/bin/../arm-none-eabi/lib//libc.a(lib_a-realloc.o)
 .debug_line    0x000000000001c1b8      0x23f /home/src/arm/target/bin/../arm-none-eabi/lib//libc.a(lib_a-reallocr.o)
 .debug_line    0x000000000001c3f7      0x16a /home/src/arm/target/bin/../arm-none-eabi/lib//libc.a(lib_a-rget.o)
 .debug_line    0x000000000001c561      0x155 /home/src/arm/target/bin/../arm-none-eabi/lib//libc.a(lib_a-sbrkr.o)
 .debug_line    0x000000000001c6b6      0x1a4 /home/src/arm/target/bin/../arm-none-eabi/lib//libc.a(lib_a-sprintf.o)
 .debug_line    0x000000000001c85a       0xc6 /home/src/arm/target/bin/../arm-none-eabi/lib//libc.a(lib_a-strcat.o)
 .debug_line    0x000000000001c920      0x107 /home/src/arm/target/bin/../arm-none-eabi/lib//libc.a(lib_a-strcmp.o)
 .debug_line    0x000000000001ca27       0xae /home/src/arm/target/bin/../arm-none-eabi/lib//libc.a(lib_a-strcpy.o)
 .debug_line    0x000000000001cad5       0xf9 /home/src/arm/target/bin/../arm-none-eabi/lib//libc.a(lib_a-strlen.o)
 .debug_line    0x000000000001cbce      0x120 /home/src/arm/target/bin/../arm-none-eabi/lib//libc.a(lib_a-strncasecmp.o)
 .debug_line    0x000000000001ccee      0x147 /home/src/arm/target/bin/../arm-none-eabi/lib//libc.a(lib_a-strtok.o)
 .debug_line    0x000000000001ce35       0xe0 /home/src/arm/target/bin/../arm-none-eabi/lib//libc.a(lib_a-strtok_r.o)
 .debug_line    0x000000000001cf15      0x897 /home/src/arm/target/bin/../arm-none-eabi/lib//libc.a(lib_a-svfprintf.o)
 .debug_line    0x000000000001d7ac      0x495 /home/src/arm/target/bin/../arm-none-eabi/lib//libc.a(lib_a-syscalls.o)
 .debug_line    0x000000000001dc41      0x650 /home/src/arm/target/bin/../arm-none-eabi/lib//libc.a(lib_a-vfiprintf.o)
 .debug_line    0x000000000001e291      0x8c4 /home/src/arm/target/bin/../arm-none-eabi/lib//libc.a(lib_a-vfprintf.o)
 .debug_line    0x000000000001eb55      0x166 /home/src/arm/target/bin/../arm-none-eabi/lib//libc.a(lib_a-vprintf.o)
 .debug_line    0x000000000001ecbb      0x1ad /home/src/arm/target/bin/../arm-none-eabi/lib//libc.a(lib_a-wbuf.o)
 .debug_line    0x000000000001ee68      0x1ca /home/src/arm/target/bin/../arm-none-eabi/lib//libc.a(lib_a-wsetup.o)
 .debug_line    0x000000000001f032       0xf1 /home/src/arm/target/bin/../arm-none-eabi/lib//libc.a(lib_a-abort.o)
 .debug_line    0x000000000001f123       0x57 /home/src/arm/target/bin/../arm-none-eabi/lib//libc.a(lib_a-ctype_.o)
 .debug_line    0x000000000001f17a      0x64f /home/src/arm/target/bin/../arm-none-eabi/lib//libc.a(lib_a-dtoa.o)
 .debug_line    0x000000000001f7c9      0x113 /home/src/arm/target/bin/../arm-none-eabi/lib//libc.a(lib_a-errno.o)
 .debug_line    0x000000000001f8dc      0x231 /home/src/arm/target/bin/../arm-none-eabi/lib//libc.a(lib_a-fflush.o)
 .debug_line    0x000000000001fb0d      0x258 /home/src/arm/target/bin/../arm-none-eabi/lib//libc.a(lib_a-findfp.o)
 .debug_line    0x000000000001fd65      0x1a2 /home/src/arm/target/bin/../arm-none-eabi/lib//libc.a(lib_a-fputwc.o)
 .debug_line    0x000000000001ff07      0x21d /home/src/arm/target/bin/../arm-none-eabi/lib//libc.a(lib_a-freer.o)
 .debug_line    0x0000000000020124      0x292 /home/src/arm/target/bin/../arm-none-eabi/lib//libc.a(lib_a-fvwrite.o)
 .debug_line    0x00000000000203b6      0x19b /home/src/arm/target/bin/../arm-none-eabi/lib//libc.a(lib_a-fwalk.o)
 .debug_line    0x0000000000020551      0x189 /home/src/arm/target/bin/../arm-none-eabi/lib//libc.a(lib_a-locale.o)
 .debug_line    0x00000000000206da      0x1db /home/src/arm/target/bin/../arm-none-eabi/lib//libc.a(lib_a-makebuf.o)
 .debug_line    0x00000000000208b5      0x139 /home/src/arm/target/bin/../arm-none-eabi/lib//libc.a(lib_a-memchr-stub.o)
 .debug_line    0x00000000000209ee      0x134 /home/src/arm/target/bin/../arm-none-eabi/lib//libc.a(lib_a-memmove.o)
 .debug_line    0x0000000000020b22      0x598 /home/src/arm/target/bin/../arm-none-eabi/lib//libc.a(lib_a-mprec.o)
 .debug_line    0x00000000000210ba      0x179 /home/src/arm/target/bin/../arm-none-eabi/lib//libc.a(lib_a-reent.o)
 .debug_line    0x0000000000021233      0x1f1 /home/src/arm/target/bin/../arm-none-eabi/lib//libc.a(lib_a-refill.o)
 .debug_line    0x0000000000021424      0x104 /home/src/arm/target/bin/../arm-none-eabi/lib//libc.a(lib_a-s_fpclassify.o)
 .debug_line    0x0000000000021528      0x1e8 /home/src/arm/target/bin/../arm-none-eabi/lib//libc.a(lib_a-signal.o)
 .debug_line    0x0000000000021710      0x159 /home/src/arm/target/bin/../arm-none-eabi/lib//libc.a(lib_a-signalr.o)
 .debug_line    0x0000000000021869      0x180 /home/src/arm/target/bin/../arm-none-eabi/lib//libc.a(lib_a-stdio.o)
 .debug_line    0x00000000000219e9      0x590 /home/src/arm/target/bin/../arm-none-eabi/lib//libc.a(lib_a-svfiprintf.o)
 .debug_line    0x0000000000021f79      0x180 /home/src/arm/target/bin/../arm-none-eabi/lib//libc.a(lib_a-wcrtomb.o)
 .debug_line    0x00000000000220f9      0x170 /home/src/arm/target/bin/../arm-none-eabi/lib//libc.a(lib_a-wctomb_r.o)
 .debug_line    0x0000000000022269      0x153 /home/src/arm/target/bin/../arm-none-eabi/lib//libc.a(lib_a-writer.o)
 .debug_line    0x00000000000223bc      0x133 /home/src/arm/target/bin/../arm-none-eabi/lib//libc.a(lib_a-callocr.o)
 .debug_line    0x00000000000224ef      0x153 /home/src/arm/target/bin/../arm-none-eabi/lib//libc.a(lib_a-closer.o)
 .debug_line    0x0000000000022642      0x1a5 /home/src/arm/target/bin/../arm-none-eabi/lib//libc.a(lib_a-fclose.o)
 .debug_line    0x00000000000227e7      0x168 /home/src/arm/target/bin/../arm-none-eabi/lib//libc.a(lib_a-fstatr.o)
 .debug_line    0x000000000002294f      0x154 /home/src/arm/target/bin/../arm-none-eabi/lib//libc.a(lib_a-isattyr.o)
 .debug_line    0x0000000000022aa3      0x153 /home/src/arm/target/bin/../arm-none-eabi/lib//libc.a(lib_a-lseekr.o)
 .debug_line    0x0000000000022bf6      0x152 /home/src/arm/target/bin/../arm-none-eabi/lib//libc.a(lib_a-readr.o)
 .debug_line    0x0000000000022d48       0x8d /home/src/arm/target/bin/../lib/gcc/arm-none-eabi/4.8.2//libgcc.a(_udivsi3.o)
 .debug_line    0x0000000000022dd5       0x99 /home/src/arm/target/bin/../lib/gcc/arm-none-eabi/4.8.2//libgcc.a(_divsi3.o)
 .debug_line    0x0000000000022e6e       0x64 /home/src/arm/target/bin/../lib/gcc/arm-none-eabi/4.8.2//libgcc.a(_dvmd_tls.o)
 .debug_line    0x0000000000022ed2      0x167 /home/src/arm/target/bin/../lib/gcc/arm-none-eabi/4.8.2//libgcc.a(_arm_addsubdf3.o)
 .debug_line    0x0000000000023039      0x183 /home/src/arm/target/bin/../lib/gcc/arm-none-eabi/4.8.2//libgcc.a(_arm_muldivdf3.o)
 .debug_line    0x00000000000231bc       0xb1 /home/src/arm/target/bin/../lib/gcc/arm-none-eabi/4.8.2//libgcc.a(_arm_cmpdf2.o)
 .debug_line    0x000000000002326d       0x7b /home/src/arm/target/bin/../lib/gcc/arm-none-eabi/4.8.2//libgcc.a(_arm_fixdfsi.o)
 .debug_line    0x00000000000232e8       0x69 /home/src/arm/target/bin/../lib/gcc/arm-none-eabi/4.8.2//libgcc.a(_aeabi_uldivmod.o)
 .debug_line    0x0000000000023351       0x6a /home/src/arm/target/bin/../lib/gcc/arm-none-eabi/4.8.2//libgcc.a(bpabi.o)
 .debug_line    0x00000000000233bb       0xe4 /home/src/arm/target/bin/../lib/gcc/arm-none-eabi/4.8.2//libgcc.a(_divdi3.o)
 .debug_line    0x000000000002349f       0xda /home/src/arm/target/bin/../lib/gcc/arm-none-eabi/4.8.2//libgcc.a(_udivdi3.o)
 .debug_line    0x0000000000023579       0x71 /home/src/arm/target/bin/../lib/gcc/arm-none-eabi/4.8.2//libgcc.a(_clzsi2.o)

.debug_str      0x0000000000000000    0x27e42
 .debug_str     0x0000000000000000      0x25a /home/leon/git/swp-report/iMX6_Platform_SDK/output/mx6sdl/obds/smart_device_rev_a/obj/apps/common/ivt.o
                                        0x2c0 (size before relaxing)
 .debug_str     0x000000000000025a      0x1f4 /home/leon/git/swp-report/iMX6_Platform_SDK/output/mx6sdl/obds/smart_device_rev_a/obj/apps/common/platform_init.o
                                        0x3b6 (size before relaxing)
 .debug_str     0x000000000000044e      0x170 /home/leon/git/swp-report/iMX6_Platform_SDK/output/mx6sdl/obds/smart_device_rev_a/obj/apps/common/print_clock_info.o
                                        0x38a (size before relaxing)
 .debug_str     0x00000000000005be      0x11a /home/leon/git/swp-report/iMX6_Platform_SDK/output/mx6sdl/obds/smart_device_rev_a/obj/apps/common/print_version.o
                                        0x31f (size before relaxing)
 .debug_str     0x00000000000006d8      0x795 /home/leon/git/swp-report/iMX6_Platform_SDK/output/mx6sdl/obds/smart_device_rev_a/obj/apps/obds/src/obds.o
                                        0xae9 (size before relaxing)
 .debug_str     0x0000000000000e6d       0xd4 /home/leon/git/swp-report/iMX6_Platform_SDK/output/mx6sdl/obds/smart_device_rev_a/obj/apps/obds/src/obds_utils.o
                                        0x2cf (size before relaxing)
 .debug_str     0x0000000000000f41      0x4ab /home/leon/git/swp-report/iMX6_Platform_SDK/output/mx6sdl/obds/smart_device_rev_a/obj/apps/obds/src/tests/android_buttons_test.o
                                        0x796 (size before relaxing)
 .debug_str     0x00000000000013ec      0x404 /home/leon/git/swp-report/iMX6_Platform_SDK/output/mx6sdl/obds/smart_device_rev_a/obj/apps/obds/src/tests/audio_esai_test.o
                                        0xabd (size before relaxing)
 .debug_str     0x00000000000017f0      0x13d /home/leon/git/swp-report/iMX6_Platform_SDK/output/mx6sdl/obds/smart_device_rev_a/obj/apps/obds/src/tests/audio_ssi_test.o
                                        0xb72 (size before relaxing)
 .debug_str     0x000000000000192d      0x1b5 /home/leon/git/swp-report/iMX6_Platform_SDK/output/mx6sdl/obds/smart_device_rev_a/obj/apps/obds/src/tests/ddr_test.o
                                        0x46a (size before relaxing)
 .debug_str     0x0000000000001ae2       0xc4 /home/leon/git/swp-report/iMX6_Platform_SDK/output/mx6sdl/obds/smart_device_rev_a/obj/apps/obds/src/tests/deserializer_ds90ur124.o
                                        0x3a3 (size before relaxing)
 .debug_str     0x0000000000001ba6      0x50a /home/leon/git/swp-report/iMX6_Platform_SDK/output/mx6sdl/obds/smart_device_rev_a/obj/apps/obds/src/tests/display_test.o
                                        0xc5f (size before relaxing)
 .debug_str     0x00000000000020b0      0xe78 /home/leon/git/swp-report/iMX6_Platform_SDK/output/mx6sdl/obds/smart_device_rev_a/obj/apps/obds/src/tests/enet_mx6dldq_test.o
                                       0x11eb (size before relaxing)
 .debug_str     0x0000000000002f28       0x80 /home/leon/git/swp-report/iMX6_Platform_SDK/output/mx6sdl/obds/smart_device_rev_a/obj/apps/obds/src/tests/flexcan_test.o
                                        0x304 (size before relaxing)
 .debug_str     0x0000000000002fa8      0x12d /home/leon/git/swp-report/iMX6_Platform_SDK/output/mx6sdl/obds/smart_device_rev_a/obj/apps/obds/src/tests/fm_tuner_si476x_test.o
                                        0x410 (size before relaxing)
 .debug_str     0x00000000000030d5       0xe7 /home/leon/git/swp-report/iMX6_Platform_SDK/output/mx6sdl/obds/smart_device_rev_a/obj/apps/obds/src/tests/gpio_led.o
                                        0x765 (size before relaxing)
 .debug_str     0x00000000000031bc       0x72 /home/leon/git/swp-report/iMX6_Platform_SDK/output/mx6sdl/obds/smart_device_rev_a/obj/apps/obds/src/tests/gps_test.o
                                        0x3a1 (size before relaxing)
 .debug_str     0x000000000000322e      0x1bb /home/leon/git/swp-report/iMX6_Platform_SDK/output/mx6sdl/obds/smart_device_rev_a/obj/apps/obds/src/tests/i2c_check_light_sensor_isl29023.o
                                        0x955 (size before relaxing)
 .debug_str     0x00000000000033e9       0xd8 /home/leon/git/swp-report/iMX6_Platform_SDK/output/mx6sdl/obds/smart_device_rev_a/obj/apps/obds/src/tests/i2c_device_barometer_ppl3115.o
                                        0x53d (size before relaxing)
 .debug_str     0x00000000000034c1       0x96 /home/leon/git/swp-report/iMX6_Platform_SDK/output/mx6sdl/obds/smart_device_rev_a/obj/apps/obds/src/tests/i2c_device_check_cs42888.o
                                        0x68e (size before relaxing)
 .debug_str     0x0000000000003557       0xa8 /home/leon/git/swp-report/iMX6_Platform_SDK/output/mx6sdl/obds/smart_device_rev_a/obj/apps/obds/src/tests/i2c_device_digital_compass_mag3110.o
                                        0x52e (size before relaxing)
 .debug_str     0x00000000000035ff       0xb4 /home/leon/git/swp-report/iMX6_Platform_SDK/output/mx6sdl/obds/smart_device_rev_a/obj/apps/obds/src/tests/i2c_device_digital_compass_mag3112.o
                                        0x52e (size before relaxing)
 .debug_str     0x00000000000036b3      0x139 /home/leon/git/swp-report/iMX6_Platform_SDK/output/mx6sdl/obds/smart_device_rev_a/obj/apps/obds/src/tests/i2c_device_id_check_mma8450.o
                                        0x96c (size before relaxing)
 .debug_str     0x00000000000037ec       0xd5 /home/leon/git/swp-report/iMX6_Platform_SDK/output/mx6sdl/obds/smart_device_rev_a/obj/apps/obds/src/tests/i2c_device_id_check_mma8451.o
                                        0x96c (size before relaxing)
 .debug_str     0x00000000000038c1      0x11f /home/leon/git/swp-report/iMX6_Platform_SDK/output/mx6sdl/obds/smart_device_rev_a/obj/apps/obds/src/tests/i2c_device_id_check_p1003_tsc.o
                                        0x89b (size before relaxing)
 .debug_str     0x00000000000039e0      0x1c5 /home/leon/git/swp-report/iMX6_Platform_SDK/output/mx6sdl/obds/smart_device_rev_a/obj/apps/obds/src/tests/i2c_device_temp_sensor_emc1046.o
                                        0x634 (size before relaxing)
 .debug_str     0x0000000000003ba5       0xba /home/leon/git/swp-report/iMX6_Platform_SDK/output/mx6sdl/obds/smart_device_rev_a/obj/apps/obds/src/tests/i2c_device_zigbee_mc1323.o
                                        0x4d9 (size before relaxing)
 .debug_str     0x0000000000003c5f       0xb7 /home/leon/git/swp-report/iMX6_Platform_SDK/output/mx6sdl/obds/smart_device_rev_a/obj/apps/obds/src/tests/i2c_eeprom_at24cxx_test.o
                                        0x422 (size before relaxing)
 .debug_str     0x0000000000003d16      0x19a /home/leon/git/swp-report/iMX6_Platform_SDK/output/mx6sdl/obds/smart_device_rev_a/obj/apps/obds/src/tests/imx_spi_nor_test.o
                                        0x461 (size before relaxing)
 .debug_str     0x0000000000003eb0       0xef /home/leon/git/swp-report/iMX6_Platform_SDK/output/mx6sdl/obds/smart_device_rev_a/obj/apps/obds/src/tests/mlb_os81050.o
                                        0x442 (size before relaxing)
 .debug_str     0x0000000000003f9f       0xa1 /home/leon/git/swp-report/iMX6_Platform_SDK/output/mx6sdl/obds/smart_device_rev_a/obj/apps/obds/src/tests/mmcsd_test.o
                                        0x351 (size before relaxing)
 .debug_str     0x0000000000004040       0xae /home/leon/git/swp-report/iMX6_Platform_SDK/output/mx6sdl/obds/smart_device_rev_a/obj/apps/obds/src/tests/pmic_da9053.o
                                        0x412 (size before relaxing)
 .debug_str     0x00000000000040ee      0x115 /home/leon/git/swp-report/iMX6_Platform_SDK/output/mx6sdl/obds/smart_device_rev_a/obj/apps/obds/src/tests/pmic_lt3589.o
                                        0x847 (size before relaxing)
 .debug_str     0x0000000000004203       0xe8 /home/leon/git/swp-report/iMX6_Platform_SDK/output/mx6sdl/obds/smart_device_rev_a/obj/apps/obds/src/tests/pmic_max17135.o
                                        0x449 (size before relaxing)
 .debug_str     0x00000000000042eb       0xda /home/leon/git/swp-report/iMX6_Platform_SDK/output/mx6sdl/obds/smart_device_rev_a/obj/apps/obds/src/tests/pmic_mc13892.o
                                        0x368 (size before relaxing)
 .debug_str     0x00000000000043c5       0xad /home/leon/git/swp-report/iMX6_Platform_SDK/output/mx6sdl/obds/smart_device_rev_a/obj/apps/obds/src/tests/program_board_id.o
                                        0x482 (size before relaxing)
 .debug_str     0x0000000000004472      0x180 /home/leon/git/swp-report/iMX6_Platform_SDK/output/mx6sdl/obds/smart_device_rev_a/obj/apps/obds/src/tests/program_mac_address.o
                                        0x87e (size before relaxing)
 .debug_str     0x00000000000045f2      0x285 /home/leon/git/swp-report/iMX6_Platform_SDK/output/mx6sdl/obds/smart_device_rev_a/obj/apps/obds/src/tests/snvs_srtc_test.o
                                        0x57d (size before relaxing)
 .debug_str     0x0000000000004877       0xf2 /home/leon/git/swp-report/iMX6_Platform_SDK/output/mx6sdl/obds/smart_device_rev_a/obj/apps/obds/src/tests/touch_button_test.o
                                        0x831 (size before relaxing)
 .debug_str     0x0000000000004969       0xdc /home/leon/git/swp-report/iMX6_Platform_SDK/output/mx6sdl/obds/smart_device_rev_a/obj/apps/obds/src/tests/touch_screen.o
                                        0x826 (size before relaxing)
 .debug_str     0x0000000000004a45      0x137 /home/leon/git/swp-report/iMX6_Platform_SDK/output/mx6sdl/obds/smart_device_rev_a/obj/apps/obds/src/tests/touch_screen_max11801.o
                                        0x96f (size before relaxing)
 .debug_str     0x0000000000004b7c      0x61b /home/leon/git/swp-report/iMX6_Platform_SDK/output/mx6sdl/obds/smart_device_rev_a/obj/apps/obds/src/tests/usb_tests_obds.o
                                        0x8e0 (size before relaxing)
 .debug_str     0x0000000000005197       0x95 /home/leon/git/swp-report/iMX6_Platform_SDK/output/mx6sdl/obds/smart_device_rev_a/obj/apps/obds/src/tests/video_dec_ARD_MB_reset_button.o
                                        0x325 (size before relaxing)
 .debug_str     0x000000000000522c       0xa5 /home/leon/git/swp-report/iMX6_Platform_SDK/output/mx6sdl/obds/smart_device_rev_a/obj/apps/obds/src/tests/video_dec_ARD_MBrst_from_cpu_expander.o
                                        0x330 (size before relaxing)
 .debug_str     0x00000000000052d1      0x141 /home/leon/git/swp-report/iMX6_Platform_SDK/output/mx6sdl/obds/smart_device_rev_a/obj/apps/obds/src/tests/video_dec_adv7180.o
                                        0x86d (size before relaxing)
 .debug_str     0x0000000000005412       0xc8 /home/leon/git/swp-report/iMX6_Platform_SDK/output/mx6sdl/obds/smart_device_rev_a/obj/apps/obds/src/tests/weim_nor_flash_test.o
                                        0x363 (size before relaxing)
 .debug_str     0x00000000000054da      0x109 /home/leon/git/swp-report/iMX6_Platform_SDK/output/mx6sdl/obds/smart_device_rev_a/obj/sdk/common/ioexpander/test/max7310_test.o
                                        0x416 (size before relaxing)
 .debug_str     0x00000000000055e3      0x172 /home/leon/git/swp-report/iMX6_Platform_SDK/output/mx6sdl/obds/smart_device_rev_a/obj/sdk/common/pmic/pfuse/pf0100.o
                                        0x4be (size before relaxing)
 .debug_str     0x0000000000005755      0x1a0 /home/leon/git/swp-report/iMX6_Platform_SDK/output/mx6sdl/obds/smart_device_rev_a/obj/sdk/drivers/audio/src/snd_card.o
                                        0x70e (size before relaxing)
 .debug_str     0x00000000000058f5        0x0 /home/leon/git/swp-report/iMX6_Platform_SDK/output/mx6sdl/obds/smart_device_rev_a/obj/sdk/drivers/camera/test/adv7180_capture.o
 .debug_str     0x00000000000058f5       0xe5 /home/leon/git/swp-report/iMX6_Platform_SDK/output/mx6sdl/obds/smart_device_rev_a/obj/sdk/drivers/camera/test/camera_test.o
                                        0x711 (size before relaxing)
 .debug_str     0x00000000000059da       0xee /home/leon/git/swp-report/iMX6_Platform_SDK/output/mx6sdl/obds/smart_device_rev_a/obj/sdk/drivers/camera/test/csi_test_mode.o
                                        0x89e (size before relaxing)
 .debug_str     0x0000000000005ac8      0x145 /home/leon/git/swp-report/iMX6_Platform_SDK/output/mx6sdl/obds/smart_device_rev_a/obj/sdk/drivers/camera/test/sensor_capture.o
                                        0x9bd (size before relaxing)
 .debug_str     0x0000000000005c0d      0x15a /home/leon/git/swp-report/iMX6_Platform_SDK/output/mx6sdl/obds/smart_device_rev_a/obj/sdk/drivers/epdc/test/epdc_test.o
                                        0x78f (size before relaxing)
 .debug_str     0x0000000000005d67     0x12e5 /home/leon/git/swp-report/iMX6_Platform_SDK/output/mx6sdl/obds/smart_device_rev_a/obj/sdk/drivers/hdmi/test/hdmi_test.o
                                       0x1726 (size before relaxing)
 .debug_str     0x000000000000704c      0x13f /home/leon/git/swp-report/iMX6_Platform_SDK/output/mx6sdl/obds/smart_device_rev_a/obj/sdk/drivers/hdmi/test/init_dma_data.o
                                        0x3c3 (size before relaxing)
 .debug_str     0x000000000000718b      0x239 /home/leon/git/swp-report/iMX6_Platform_SDK/output/mx6sdl/obds/smart_device_rev_a/obj/sdk/drivers/ipu/test/ips_display.o
                                        0xa46 (size before relaxing)
 .debug_str     0x00000000000073c4      0x108 /home/leon/git/swp-report/iMX6_Platform_SDK/output/mx6sdl/obds/smart_device_rev_a/obj/sdk/drivers/ipu/test/ipu_image.o
                                        0x450 (size before relaxing)
 .debug_str     0x00000000000074cc      0x1c4 /home/leon/git/swp-report/iMX6_Platform_SDK/output/mx6sdl/obds/smart_device_rev_a/obj/sdk/drivers/spi/test/imx_spi_nor_atmel.o
                                        0x432 (size before relaxing)
 .debug_str     0x0000000000007690      0x115 /home/leon/git/swp-report/iMX6_Platform_SDK/output/mx6sdl/obds/smart_device_rev_a/obj/sdk/drivers/spi/test/spi_nor_numonyx.o
                                        0x3c2 (size before relaxing)
 .debug_str     0x00000000000077a5       0xfc /home/leon/git/swp-report/iMX6_Platform_SDK/output/mx6sdl/obds/smart_device_rev_a/obj/sdk/drivers/uart/test/uart_test.o
                                        0x7c4 (size before relaxing)
 .debug_str     0x00000000000078a1      0x3bd /home/leon/git/swp-report/iMX6_Platform_SDK/output/mx6sdl/obds/smart_device_rev_a/obj/sdk/drivers/usb/test/usb0_host_test.o
                                        0xb1e (size before relaxing)
 .debug_str     0x0000000000007c5e       0x84 /home/leon/git/swp-report/iMX6_Platform_SDK/output/mx6sdl/obds/smart_device_rev_a/obj/sdk/drivers/usb/test/usb0_host_testmodes_test.o
                                        0x483 (size before relaxing)
 .debug_str     0x0000000000007ce2      0x1aa /home/leon/git/swp-report/iMX6_Platform_SDK/output/mx6sdl/obds/smart_device_rev_a/obj/sdk/drivers/usdhc/test/usdhc_test.o
                                        0x7e9 (size before relaxing)
 .debug_str     0x0000000000007e8c       0xfd /home/leon/git/swp-report/iMX6_Platform_SDK/output/mx6sdl/lib/libsdk.a(max7310.o)
                                        0x3be (size before relaxing)
 .debug_str     0x0000000000007f89      0xe22 /home/leon/git/swp-report/iMX6_Platform_SDK/output/mx6sdl/lib/libsdk.a(ccm_pll.o)
                                       0x11ad (size before relaxing)
 .debug_str     0x0000000000008dab      0x495 /home/leon/git/swp-report/iMX6_Platform_SDK/output/mx6sdl/lib/libsdk.a(gic.o)
                                        0x705 (size before relaxing)
 .debug_str     0x0000000000009240       0xd7 /home/leon/git/swp-report/iMX6_Platform_SDK/output/mx6sdl/lib/libsdk.a(interrupt.o)
                                        0xd98 (size before relaxing)
 .debug_str     0x0000000000009317      0x1a8 /home/leon/git/swp-report/iMX6_Platform_SDK/output/mx6sdl/lib/libsdk.a(mmu.o)
                                        0x471 (size before relaxing)
 .debug_str     0x00000000000094bf      0x227 /home/leon/git/swp-report/iMX6_Platform_SDK/output/mx6sdl/lib/libsdk.a(menu.o)
                                        0x977 (size before relaxing)
 .debug_str     0x00000000000096e6       0x4a /home/leon/git/swp-report/iMX6_Platform_SDK/output/mx6sdl/lib/libsdk.a(sdk_version.o)
                                        0x195 (size before relaxing)
 .debug_str     0x0000000000009730      0x10f /home/leon/git/swp-report/iMX6_Platform_SDK/output/mx6sdl/lib/libsdk.a(system_util.o)
                                        0x8c6 (size before relaxing)
 .debug_str     0x000000000000983f      0x14a /home/leon/git/swp-report/iMX6_Platform_SDK/output/mx6sdl/lib/libsdk.a(text_color.o)
                                        0x418 (size before relaxing)
 .debug_str     0x0000000000009989       0xed /home/leon/git/swp-report/iMX6_Platform_SDK/output/mx6sdl/lib/libsdk.a(cs42888.o)
                                        0x6ad (size before relaxing)
 .debug_str     0x0000000000009a76      0x9af /home/leon/git/swp-report/iMX6_Platform_SDK/output/mx6sdl/lib/libsdk.a(imx-ssi.o)
                                        0xf1a (size before relaxing)
 .debug_str     0x000000000000a425      0x44e /home/leon/git/swp-report/iMX6_Platform_SDK/output/mx6sdl/lib/libsdk.a(imx_audmux.o)
                                        0x6fb (size before relaxing)
 .debug_str     0x000000000000a873      0x7af /home/leon/git/swp-report/iMX6_Platform_SDK/output/mx6sdl/lib/libsdk.a(imx_esai.o)
                                        0xd3b (size before relaxing)
 .debug_str     0x000000000000b022      0x819 /home/leon/git/swp-report/iMX6_Platform_SDK/output/mx6sdl/lib/libsdk.a(imx_spdif.o)
                                        0xdc3 (size before relaxing)
 .debug_str     0x000000000000b83b      0x17a /home/leon/git/swp-report/iMX6_Platform_SDK/output/mx6sdl/lib/libsdk.a(sgtl5000.o)
                                        0x788 (size before relaxing)
 .debug_str     0x000000000000b9b5      0x171 /home/leon/git/swp-report/iMX6_Platform_SDK/output/mx6sdl/lib/libsdk.a(wm8958_dac.o)
                                        0x736 (size before relaxing)
 .debug_str     0x000000000000bb26      0x124 /home/leon/git/swp-report/iMX6_Platform_SDK/output/mx6sdl/lib/libsdk.a(wm8962.o)
                                        0x6e9 (size before relaxing)
 .debug_str     0x000000000000bc4a      0x204 /home/leon/git/swp-report/iMX6_Platform_SDK/output/mx6sdl/lib/libsdk.a(board_id.o)
                                        0x4e5 (size before relaxing)
 .debug_str     0x000000000000be4e      0x260 /home/leon/git/swp-report/iMX6_Platform_SDK/output/mx6sdl/lib/libsdk.a(smd_sensor.o)
                                        0x637 (size before relaxing)
 .debug_str     0x000000000000c0ae      0x2ba /home/leon/git/swp-report/iMX6_Platform_SDK/output/mx6sdl/lib/libsdk.a(enet_drv.o)
                                       0x1266 (size before relaxing)
 .debug_str     0x000000000000c368     0x1059 /home/leon/git/swp-report/iMX6_Platform_SDK/output/mx6sdl/lib/libsdk.a(mxc_epdc.o)
                                       0x12a8 (size before relaxing)
 .debug_str     0x000000000000d3c1      0x36d /home/leon/git/swp-report/iMX6_Platform_SDK/output/mx6sdl/lib/libsdk.a(gpio.o)
                                        0x59e (size before relaxing)
 .debug_str     0x000000000000d72e       0x54 /home/leon/git/swp-report/iMX6_Platform_SDK/output/mx6sdl/lib/libsdk.a(imx6sdl_gpio_map.o)
                                        0x21e (size before relaxing)
 .debug_str     0x000000000000d782     0x1b0d /home/leon/git/swp-report/iMX6_Platform_SDK/output/mx6sdl/lib/libsdk.a(hdmi_tx.o)
                                       0x2094 (size before relaxing)
 .debug_str     0x000000000000f28f      0xb6f /home/leon/git/swp-report/iMX6_Platform_SDK/output/mx6sdl/lib/libsdk.a(hdmi_tx_audio.o)
                                        0xe6e (size before relaxing)
 .debug_str     0x000000000000fdfe      0x8d9 /home/leon/git/swp-report/iMX6_Platform_SDK/output/mx6sdl/lib/libsdk.a(hdmi_tx_phy.o)
                                        0xb69 (size before relaxing)
 .debug_str     0x00000000000106d7      0x2f6 /home/leon/git/swp-report/iMX6_Platform_SDK/output/mx6sdl/lib/libsdk.a(imx_i2c.o)
                                       0x11ac (size before relaxing)
 .debug_str     0x00000000000109cd      0x3e3 /home/leon/git/swp-report/iMX6_Platform_SDK/output/mx6sdl/lib/libsdk.a(ips_disp_panel.o)
                                        0x77d (size before relaxing)
 .debug_str     0x0000000000010db0      0x522 /home/leon/git/swp-report/iMX6_Platform_SDK/output/mx6sdl/lib/libsdk.a(ipu_common.o)
                                        0xb5b (size before relaxing)
 .debug_str     0x00000000000112d2      0x238 /home/leon/git/swp-report/iMX6_Platform_SDK/output/mx6sdl/lib/libsdk.a(ipu_csi.o)
                                        0x543 (size before relaxing)
 .debug_str     0x000000000001150a      0x225 /home/leon/git/swp-report/iMX6_Platform_SDK/output/mx6sdl/lib/libsdk.a(ipu_dc.o)
                                        0x555 (size before relaxing)
 .debug_str     0x000000000001172f      0x29f /home/leon/git/swp-report/iMX6_Platform_SDK/output/mx6sdl/lib/libsdk.a(ipu_di.o)
                                        0x604 (size before relaxing)
 .debug_str     0x00000000000119ce       0x7b /home/leon/git/swp-report/iMX6_Platform_SDK/output/mx6sdl/lib/libsdk.a(ipu_dmfc.o)
                                        0x4ac (size before relaxing)
 .debug_str     0x0000000000011a49       0x9e /home/leon/git/swp-report/iMX6_Platform_SDK/output/mx6sdl/lib/libsdk.a(ipu_dp.o)
                                        0x2f5 (size before relaxing)
 .debug_str     0x0000000000011ae7      0x37f /home/leon/git/swp-report/iMX6_Platform_SDK/output/mx6sdl/lib/libsdk.a(ipu_idmac.o)
                                        0x9a2 (size before relaxing)
 .debug_str     0x0000000000011e66      0x2f8 /home/leon/git/swp-report/iMX6_Platform_SDK/output/mx6sdl/lib/libsdk.a(ipu_vdi.o)
                                        0xa55 (size before relaxing)
 .debug_str     0x000000000001215e      0x1a4 /home/leon/git/swp-report/iMX6_Platform_SDK/output/mx6sdl/lib/libsdk.a(ldb.o)
                                        0x528 (size before relaxing)
 .debug_str     0x0000000000012302      0x2df /home/leon/git/swp-report/iMX6_Platform_SDK/output/mx6sdl/lib/libsdk.a(ocotp.o)
                                        0x4e9 (size before relaxing)
 .debug_str     0x00000000000125e1      0x2e1 /home/leon/git/swp-report/iMX6_Platform_SDK/output/mx6sdl/lib/libsdk.a(ecspi.o)
                                        0x5ba (size before relaxing)
 .debug_str     0x00000000000128c2      0x2bd /home/leon/git/swp-report/iMX6_Platform_SDK/output/mx6sdl/lib/libsdk.a(timer.o)
                                        0x50b (size before relaxing)
 .debug_str     0x0000000000012b7f      0x53f /home/leon/git/swp-report/iMX6_Platform_SDK/output/mx6sdl/lib/libsdk.a(imx_uart.o)
                                       0x1401 (size before relaxing)
 .debug_str     0x00000000000130be       0xca /home/leon/git/swp-report/iMX6_Platform_SDK/output/mx6sdl/lib/libsdk.a(usb_common.o)
                                        0x8b7 (size before relaxing)
 .debug_str     0x0000000000013188      0x581 /home/leon/git/swp-report/iMX6_Platform_SDK/output/mx6sdl/lib/libsdk.a(usbh_drv.o)
                                        0xbbe (size before relaxing)
 .debug_str     0x0000000000013709      0x55e /home/leon/git/swp-report/iMX6_Platform_SDK/output/mx6sdl/lib/libsdk.a(usdhc.o)
                                       0x1314 (size before relaxing)
 .debug_str     0x0000000000013c67      0xb3c /home/leon/git/swp-report/iMX6_Platform_SDK/output/mx6sdl/lib/libsdk.a(usdhc_host.o)
                                       0x10c0 (size before relaxing)
 .debug_str     0x00000000000147a3      0x224 /home/leon/git/swp-report/iMX6_Platform_SDK/output/mx6sdl/lib/libsdk.a(usdhc_mmc.o)
                                        0x841 (size before relaxing)
 .debug_str     0x00000000000149c7       0xae /home/leon/git/swp-report/iMX6_Platform_SDK/output/mx6sdl/lib/libsdk.a(usdhc_sd.o)
                                        0x6a0 (size before relaxing)
 .debug_str     0x0000000000014a75      0x1ea /home/leon/git/swp-report/iMX6_Platform_SDK/output/mx6sdl/lib/libsdk.a(armv7_cache.o)
                                        0x3bd (size before relaxing)
 .debug_str     0x0000000000014c5f      0x1c6 /home/leon/git/swp-report/iMX6_Platform_SDK/output/mx6sdl/lib/libsdk.a(camera_profile.o)
                                        0x5d1 (size before relaxing)
 .debug_str     0x0000000000014e25       0xbd /home/leon/git/swp-report/iMX6_Platform_SDK/output/mx6sdl/lib/libsdk.a(hdmi_common.o)
                                        0x4b0 (size before relaxing)
 .debug_str     0x0000000000014ee2      0x2ba /home/leon/git/swp-report/iMX6_Platform_SDK/output/mx6sdl/lib/libsdk.a(ipu_ic.o)
                                        0x694 (size before relaxing)
 .debug_str     0x000000000001519c      0x27c /home/leon/git/swp-report/iMX6_Platform_SDK/output/mx6sdl/lib/libsdk.a(epit.o)
                                       0x1019 (size before relaxing)
 .debug_str     0x0000000000015418      0x1b0 /home/leon/git/swp-report/iMX6_Platform_SDK/output/mx6sdl/lib/libsdk.a(mx6x_usb.o)
                                        0x4f2 (size before relaxing)
 .debug_str     0x00000000000155c8       0xbc /home/leon/git/swp-report/iMX6_Platform_SDK/output/mx6sdl/lib/libsdk.a(abort_handler.o)
                                        0x2b4 (size before relaxing)
 .debug_str     0x0000000000015684      0x239 /home/leon/git/swp-report/iMX6_Platform_SDK/output/mx6sdl/lib/libboard_smart_device_rev_a.a(board_audio.o)
                                        0x51f (size before relaxing)
 .debug_str     0x00000000000158bd      0x2bc /home/leon/git/swp-report/iMX6_Platform_SDK/output/mx6sdl/lib/libboard_smart_device_rev_a.a(board_buttons.o)
                                        0x52f (size before relaxing)
 .debug_str     0x0000000000015b79      0xe8c /home/leon/git/swp-report/iMX6_Platform_SDK/output/mx6sdl/lib/libboard_smart_device_rev_a.a(board_camera.o)
                                       0x1279 (size before relaxing)
 .debug_str     0x0000000000016a05      0x1a6 /home/leon/git/swp-report/iMX6_Platform_SDK/output/mx6sdl/lib/libboard_smart_device_rev_a.a(board_display.o)
                                        0x6a1 (size before relaxing)
 .debug_str     0x0000000000016bab      0x5ff /home/leon/git/swp-report/iMX6_Platform_SDK/output/mx6sdl/lib/libboard_smart_device_rev_a.a(board_hdmi.o)
                                        0x9d2 (size before relaxing)
 .debug_str     0x00000000000171aa       0x5a /home/leon/git/swp-report/iMX6_Platform_SDK/output/mx6sdl/lib/libboard_smart_device_rev_a.a(board_i2c.o)
                                        0x3b2 (size before relaxing)
 .debug_str     0x0000000000017204       0x82 /home/leon/git/swp-report/iMX6_Platform_SDK/output/mx6sdl/lib/libboard_smart_device_rev_a.a(board_io_expanders.o)
                                        0x353 (size before relaxing)
 .debug_str     0x0000000000017286      0x2f0 /home/leon/git/swp-report/iMX6_Platform_SDK/output/mx6sdl/lib/libboard_smart_device_rev_a.a(board_mipi.o)
                                        0x7f1 (size before relaxing)
 .debug_str     0x0000000000017576       0xa1 /home/leon/git/swp-report/iMX6_Platform_SDK/output/mx6sdl/lib/libboard_smart_device_rev_a.a(board_network.o)
                                        0x2e8 (size before relaxing)
 .debug_str     0x0000000000017617       0x70 /home/leon/git/swp-report/iMX6_Platform_SDK/output/mx6sdl/lib/libboard_smart_device_rev_a.a(board_usb.o)
                                        0x344 (size before relaxing)
 .debug_str     0x0000000000017687       0x83 /home/leon/git/swp-report/iMX6_Platform_SDK/output/mx6sdl/lib/libboard_smart_device_rev_a.a(board_usdhc.o)
                                        0x2e4 (size before relaxing)
 .debug_str     0x000000000001770a       0x4c /home/leon/git/swp-report/iMX6_Platform_SDK/output/mx6sdl/lib/libboard_smart_device_rev_a.a(hardware_modules.o)
                                        0x265 (size before relaxing)
 .debug_str     0x0000000000017756       0xb3 /home/leon/git/swp-report/iMX6_Platform_SDK/output/mx6sdl/lib/libboard_smart_device_rev_a.a(dcd.o)
                                        0x275 (size before relaxing)
 .debug_str     0x0000000000017809      0x464 /home/leon/git/swp-report/iMX6_Platform_SDK/output/mx6sdl/lib/libboard_smart_device_rev_a.a(audmux_iomux_config.o)
                                        0x5f4 (size before relaxing)
 .debug_str     0x0000000000017c6d       0x76 /home/leon/git/swp-report/iMX6_Platform_SDK/output/mx6sdl/lib/libboard_smart_device_rev_a.a(ccm_iomux_config.o)
                                        0x2e2 (size before relaxing)
 .debug_str     0x0000000000017ce3       0xcc /home/leon/git/swp-report/iMX6_Platform_SDK/output/mx6sdl/lib/libboard_smart_device_rev_a.a(ecspi_iomux_config.o)
                                        0x295 (size before relaxing)
 .debug_str     0x0000000000017daf     0x136b /home/leon/git/swp-report/iMX6_Platform_SDK/output/mx6sdl/lib/libboard_smart_device_rev_a.a(enet_iomux_config.o)
                                       0x150b (size before relaxing)
 .debug_str     0x000000000001911a     0x2c5c /home/leon/git/swp-report/iMX6_Platform_SDK/output/mx6sdl/lib/libboard_smart_device_rev_a.a(epdc_iomux_config.o)
                                       0x2f54 (size before relaxing)
 .debug_str     0x000000000001bd76       0x76 /home/leon/git/swp-report/iMX6_Platform_SDK/output/mx6sdl/lib/libboard_smart_device_rev_a.a(i2c_iomux_config.o)
                                        0x291 (size before relaxing)
 .debug_str     0x000000000001bdec      0x33d /home/leon/git/swp-report/iMX6_Platform_SDK/output/mx6sdl/lib/libboard_smart_device_rev_a.a(iomux_config.o)
                                        0x47a (size before relaxing)
 .debug_str     0x000000000001c129     0x1c9e /home/leon/git/swp-report/iMX6_Platform_SDK/output/mx6sdl/lib/libboard_smart_device_rev_a.a(ipu1_iomux_config.o)
                                       0x2972 (size before relaxing)
 .debug_str     0x000000000001ddc7       0x76 /home/leon/git/swp-report/iMX6_Platform_SDK/output/mx6sdl/lib/libboard_smart_device_rev_a.a(ipu_iomux_config.o)
                                        0x291 (size before relaxing)
 .debug_str     0x000000000001de3d      0x994 /home/leon/git/swp-report/iMX6_Platform_SDK/output/mx6sdl/lib/libboard_smart_device_rev_a.a(kpp_iomux_config.o)
                                        0xb98 (size before relaxing)
 .debug_str     0x000000000001e7d1     0x1de4 /home/leon/git/swp-report/iMX6_Platform_SDK/output/mx6sdl/lib/libboard_smart_device_rev_a.a(mmdc_iomux_config.o)
                                       0x1f74 (size before relaxing)
 .debug_str     0x00000000000205b5      0x166 /home/leon/git/swp-report/iMX6_Platform_SDK/output/mx6sdl/lib/libboard_smart_device_rev_a.a(pwm1_iomux_config.o)
                                        0x2f6 (size before relaxing)
 .debug_str     0x000000000002071b      0x334 /home/leon/git/swp-report/iMX6_Platform_SDK/output/mx6sdl/lib/libboard_smart_device_rev_a.a(sjc_iomux_config.o)
                                        0x4b6 (size before relaxing)
 .debug_str     0x0000000000020a4f      0x2fa /home/leon/git/swp-report/iMX6_Platform_SDK/output/mx6sdl/lib/libboard_smart_device_rev_a.a(uart1_iomux_config.o)
                                        0x490 (size before relaxing)
 .debug_str     0x0000000000020d49       0x78 /home/leon/git/swp-report/iMX6_Platform_SDK/output/mx6sdl/lib/libboard_smart_device_rev_a.a(uart_iomux_config.o)
                                        0x293 (size before relaxing)
 .debug_str     0x0000000000020dc1      0x984 /home/leon/git/swp-report/iMX6_Platform_SDK/output/mx6sdl/lib/libboard_smart_device_rev_a.a(usdhc2_iomux_config.o)
                                        0xc02 (size before relaxing)
 .debug_str     0x0000000000021745      0xa3c /home/leon/git/swp-report/iMX6_Platform_SDK/output/mx6sdl/lib/libboard_smart_device_rev_a.a(usdhc3_iomux_config.o)
                                        0xbd2 (size before relaxing)
 .debug_str     0x0000000000022181      0x94e /home/leon/git/swp-report/iMX6_Platform_SDK/output/mx6sdl/lib/libboard_smart_device_rev_a.a(usdhc4_iomux_config.o)
                                        0xbd2 (size before relaxing)
 .debug_str     0x0000000000022acf       0x7a /home/leon/git/swp-report/iMX6_Platform_SDK/output/mx6sdl/lib/libboard_smart_device_rev_a.a(usdhc_iomux_config.o)
                                        0x295 (size before relaxing)
 .debug_str     0x0000000000022b49      0x60a /home/leon/git/swp-report/iMX6_Platform_SDK/output/mx6sdl/lib/libboard_smart_device_rev_a.a(ecspi1_iomux_config.o)
                                        0x7a0 (size before relaxing)
 .debug_str     0x0000000000023153      0x2af /home/leon/git/swp-report/iMX6_Platform_SDK/output/mx6sdl/lib/libboard_smart_device_rev_a.a(flexcan1_iomux_config.o)
                                        0x445 (size before relaxing)
 .debug_str     0x0000000000023402      0xb02 /home/leon/git/swp-report/iMX6_Platform_SDK/output/mx6sdl/lib/libboard_smart_device_rev_a.a(gpio1_iomux_config.o)
                                       0x11de (size before relaxing)
 .debug_str     0x0000000000023f04      0x456 /home/leon/git/swp-report/iMX6_Platform_SDK/output/mx6sdl/lib/libboard_smart_device_rev_a.a(gpio2_iomux_config.o)
                                        0xb6e (size before relaxing)
 .debug_str     0x000000000002435a      0x262 /home/leon/git/swp-report/iMX6_Platform_SDK/output/mx6sdl/lib/libboard_smart_device_rev_a.a(gpio3_iomux_config.o)
                                       0x11ea (size before relaxing)
 .debug_str     0x00000000000245bc      0x24a /home/leon/git/swp-report/iMX6_Platform_SDK/output/mx6sdl/lib/libboard_smart_device_rev_a.a(gpio4_iomux_config.o)
                                        0x59e (size before relaxing)
 .debug_str     0x0000000000024806      0x162 /home/leon/git/swp-report/iMX6_Platform_SDK/output/mx6sdl/lib/libboard_smart_device_rev_a.a(gpio5_iomux_config.o)
                                        0x3e6 (size before relaxing)
 .debug_str     0x0000000000024968      0x691 /home/leon/git/swp-report/iMX6_Platform_SDK/output/mx6sdl/lib/libboard_smart_device_rev_a.a(gpio6_iomux_config.o)
                                        0xa74 (size before relaxing)
 .debug_str     0x0000000000024ff9      0x320 /home/leon/git/swp-report/iMX6_Platform_SDK/output/mx6sdl/lib/libboard_smart_device_rev_a.a(gpio7_iomux_config.o)
                                        0x4b0 (size before relaxing)
 .debug_str     0x0000000000025319      0x102 /home/leon/git/swp-report/iMX6_Platform_SDK/output/mx6sdl/lib/libboard_smart_device_rev_a.a(gps_iomux_config.o)
                                        0x73e (size before relaxing)
 .debug_str     0x000000000002541b      0x35a /home/leon/git/swp-report/iMX6_Platform_SDK/output/mx6sdl/lib/libboard_smart_device_rev_a.a(i2c1_iomux_config.o)
                                        0x4f0 (size before relaxing)
 .debug_str     0x0000000000025775      0x166 /home/leon/git/swp-report/iMX6_Platform_SDK/output/mx6sdl/lib/libboard_smart_device_rev_a.a(i2c2_iomux_config.o)
                                        0x4cc (size before relaxing)
 .debug_str     0x00000000000258db      0x31e /home/leon/git/swp-report/iMX6_Platform_SDK/output/mx6sdl/lib/libboard_smart_device_rev_a.a(i2c3_iomux_config.o)
                                        0x4b4 (size before relaxing)
 .debug_str     0x0000000000025bf9       0xbf /home/src/arm/target/bin/../arm-none-eabi/lib//libc.a(lib_a-assert.o)
                                        0x530 (size before relaxing)
 .debug_str     0x0000000000025cb8       0x7c /home/src/arm/target/bin/../arm-none-eabi/lib//libc.a(lib_a-bzero.o)
                                        0x13c (size before relaxing)
 .debug_str     0x0000000000025d34       0x90 /home/src/arm/target/bin/../arm-none-eabi/lib//libc.a(lib_a-fiprintf.o)
                                        0x538 (size before relaxing)
 .debug_str     0x0000000000025dc4       0x68 /home/src/arm/target/bin/../arm-none-eabi/lib//libc.a(lib_a-fputc.o)
                                        0x52e (size before relaxing)
 .debug_str     0x0000000000025e2c       0x94 /home/src/arm/target/bin/../arm-none-eabi/lib//libc.a(lib_a-impure.o)
                                        0x508 (size before relaxing)
 .debug_str     0x0000000000025ec0       0xd1 /home/src/arm/target/bin/../arm-none-eabi/lib//libc.a(lib_a-init.o)
                                        0x196 (size before relaxing)
 .debug_str     0x0000000000025f91       0x59 /home/src/arm/target/bin/../arm-none-eabi/lib//libc.a(lib_a-malloc.o)
                                        0x51c (size before relaxing)
 .debug_str     0x0000000000025fea      0x228 /home/src/arm/target/bin/../arm-none-eabi/lib//libc.a(lib_a-mallocr.o)
                                        0x717 (size before relaxing)
 .debug_str     0x0000000000026212       0xb7 /home/src/arm/target/bin/../arm-none-eabi/lib//libc.a(lib_a-memcpy-stub.o)
                                        0x170 (size before relaxing)
 .debug_str     0x00000000000262c9       0x4f /home/src/arm/target/bin/../arm-none-eabi/lib//libc.a(lib_a-memset.o)
                                        0x14b (size before relaxing)
 .debug_str     0x0000000000026318       0x4f /home/src/arm/target/bin/../arm-none-eabi/lib//libc.a(lib_a-mlock.o)
                                        0x511 (size before relaxing)
 .debug_str     0x0000000000026367       0x50 /home/src/arm/target/bin/../arm-none-eabi/lib//libc.a(lib_a-printf.o)
                                        0x531 (size before relaxing)
 .debug_str     0x00000000000263b7       0x42 /home/src/arm/target/bin/../arm-none-eabi/lib//libc.a(lib_a-putc.o)
                                        0x528 (size before relaxing)
 .debug_str     0x00000000000263f9       0x4f /home/src/arm/target/bin/../arm-none-eabi/lib//libc.a(lib_a-realloc.o)
                                        0x50d (size before relaxing)
 .debug_str     0x0000000000026448       0x5e /home/src/arm/target/bin/../arm-none-eabi/lib//libc.a(lib_a-reallocr.o)
                                        0x5e9 (size before relaxing)
 .debug_str     0x00000000000264a6       0x56 /home/src/arm/target/bin/../arm-none-eabi/lib//libc.a(lib_a-rget.o)
                                        0x522 (size before relaxing)
 .debug_str     0x00000000000264fc       0x44 /home/src/arm/target/bin/../arm-none-eabi/lib//libc.a(lib_a-sbrkr.o)
                                        0x4ff (size before relaxing)
 .debug_str     0x0000000000026540       0x5b /home/src/arm/target/bin/../arm-none-eabi/lib//libc.a(lib_a-sprintf.o)
                                        0x535 (size before relaxing)
 .debug_str     0x000000000002659b       0x54 /home/src/arm/target/bin/../arm-none-eabi/lib//libc.a(lib_a-strcat.o)
                                        0x142 (size before relaxing)
 .debug_str     0x00000000000265ef       0x43 /home/src/arm/target/bin/../arm-none-eabi/lib//libc.a(lib_a-strcpy.o)
                                        0x13d (size before relaxing)
 .debug_str     0x0000000000026632       0x4a /home/src/arm/target/bin/../arm-none-eabi/lib//libc.a(lib_a-strlen.o)
                                        0x144 (size before relaxing)
 .debug_str     0x000000000002667c       0x64 /home/src/arm/target/bin/../arm-none-eabi/lib//libc.a(lib_a-strncasecmp.o)
                                        0x159 (size before relaxing)
 .debug_str     0x00000000000266e0       0x4d /home/src/arm/target/bin/../arm-none-eabi/lib//libc.a(lib_a-strtok.o)
                                        0x509 (size before relaxing)
 .debug_str     0x000000000002672d       0x61 /home/src/arm/target/bin/../arm-none-eabi/lib//libc.a(lib_a-strtok_r.o)
                                        0x169 (size before relaxing)
 .debug_str     0x000000000002678e      0x2da /home/src/arm/target/bin/../arm-none-eabi/lib//libc.a(lib_a-svfprintf.o)
                                        0x892 (size before relaxing)
 .debug_str     0x0000000000026a68      0x320 /home/src/arm/target/bin/../arm-none-eabi/lib//libc.a(lib_a-syscalls.o)
                                        0x840 (size before relaxing)
 .debug_str     0x0000000000026d88       0x5f /home/src/arm/target/bin/../arm-none-eabi/lib//libc.a(lib_a-vfiprintf.o)
                                        0x6dc (size before relaxing)
 .debug_str     0x0000000000026de7        0x9 /home/src/arm/target/bin/../arm-none-eabi/lib//libc.a(lib_a-vfprintf.o)
                                        0x8ea (size before relaxing)
 .debug_str     0x0000000000026df0       0x4e /home/src/arm/target/bin/../arm-none-eabi/lib//libc.a(lib_a-vprintf.o)
                                        0x53a (size before relaxing)
 .debug_str     0x0000000000026e3e       0x40 /home/src/arm/target/bin/../arm-none-eabi/lib//libc.a(lib_a-wbuf.o)
                                        0x52c (size before relaxing)
 .debug_str     0x0000000000026e7e       0x47 /home/src/arm/target/bin/../arm-none-eabi/lib//libc.a(lib_a-wsetup.o)
                                        0x527 (size before relaxing)
 .debug_str     0x0000000000026ec5       0x3a /home/src/arm/target/bin/../arm-none-eabi/lib//libc.a(lib_a-abort.o)
                                        0x13a (size before relaxing)
 .debug_str     0x0000000000026eff       0x7d /home/src/arm/target/bin/../arm-none-eabi/lib//libc.a(lib_a-ctype_.o)
                                         0xb9 (size before relaxing)
 .debug_str     0x0000000000026f7c      0x157 /home/src/arm/target/bin/../arm-none-eabi/lib//libc.a(lib_a-dtoa.o)
                                        0x65a (size before relaxing)
 .debug_str     0x00000000000270d3       0x74 /home/src/arm/target/bin/../arm-none-eabi/lib//libc.a(lib_a-errno.o)
                                        0x4f0 (size before relaxing)
 .debug_str     0x0000000000027147       0x6a /home/src/arm/target/bin/../arm-none-eabi/lib//libc.a(lib_a-fflush.o)
                                        0x568 (size before relaxing)
 .debug_str     0x00000000000271b1      0x10a /home/src/arm/target/bin/../arm-none-eabi/lib//libc.a(lib_a-findfp.o)
                                        0x615 (size before relaxing)
 .debug_str     0x00000000000272bb       0x62 /home/src/arm/target/bin/../arm-none-eabi/lib//libc.a(lib_a-fputwc.o)
                                        0x568 (size before relaxing)
 .debug_str     0x000000000002731d       0x34 /home/src/arm/target/bin/../arm-none-eabi/lib//libc.a(lib_a-freer.o)
                                        0x661 (size before relaxing)
 .debug_str     0x0000000000027351       0x51 /home/src/arm/target/bin/../arm-none-eabi/lib//libc.a(lib_a-fvwrite.o)
                                        0x59a (size before relaxing)
 .debug_str     0x00000000000273a2       0x48 /home/src/arm/target/bin/../arm-none-eabi/lib//libc.a(lib_a-fwalk.o)
                                        0x50d (size before relaxing)
 .debug_str     0x00000000000273ea      0x14a /home/src/arm/target/bin/../arm-none-eabi/lib//libc.a(lib_a-locale.o)
                                        0x765 (size before relaxing)
 .debug_str     0x0000000000027534       0x59 /home/src/arm/target/bin/../arm-none-eabi/lib//libc.a(lib_a-makebuf.o)
                                        0x60a (size before relaxing)
 .debug_str     0x000000000002758d       0x56 /home/src/arm/target/bin/../arm-none-eabi/lib//libc.a(lib_a-memchr-stub.o)
                                        0x163 (size before relaxing)
 .debug_str     0x00000000000275e3       0x45 /home/src/arm/target/bin/../arm-none-eabi/lib//libc.a(lib_a-memmove.o)
                                        0x16a (size before relaxing)
 .debug_str     0x0000000000027628       0xa5 /home/src/arm/target/bin/../arm-none-eabi/lib//libc.a(lib_a-mprec.o)
                                        0x614 (size before relaxing)
 .debug_str     0x00000000000276cd       0x65 /home/src/arm/target/bin/../arm-none-eabi/lib//libc.a(lib_a-reent.o)
                                        0x527 (size before relaxing)
 .debug_str     0x0000000000027732       0x4c /home/src/arm/target/bin/../arm-none-eabi/lib//libc.a(lib_a-refill.o)
                                        0x563 (size before relaxing)
 .debug_str     0x000000000002777e       0x7d /home/src/arm/target/bin/../arm-none-eabi/lib//libc.a(lib_a-s_fpclassify.o)
                                        0x161 (size before relaxing)
 .debug_str     0x00000000000277fb       0xdd /home/src/arm/target/bin/../arm-none-eabi/lib//libc.a(lib_a-signal.o)
                                        0x57e (size before relaxing)
 .debug_str     0x00000000000278d8       0x3b /home/src/arm/target/bin/../arm-none-eabi/lib//libc.a(lib_a-signalr.o)
                                        0x504 (size before relaxing)
 .debug_str     0x0000000000027913       0x99 /home/src/arm/target/bin/../arm-none-eabi/lib//libc.a(lib_a-stdio.o)
                                        0x563 (size before relaxing)
 .debug_str     0x00000000000279ac        0xe /home/src/arm/target/bin/../arm-none-eabi/lib//libc.a(lib_a-svfiprintf.o)
                                        0x695 (size before relaxing)
 .debug_str     0x00000000000279ba       0x54 /home/src/arm/target/bin/../arm-none-eabi/lib//libc.a(lib_a-wcrtomb.o)
                                        0x53f (size before relaxing)
 .debug_str     0x0000000000027a0e       0x5d /home/src/arm/target/bin/../arm-none-eabi/lib//libc.a(lib_a-wctomb_r.o)
                                        0x548 (size before relaxing)
 .debug_str     0x0000000000027a6b       0x3a /home/src/arm/target/bin/../arm-none-eabi/lib//libc.a(lib_a-writer.o)
                                        0x4fc (size before relaxing)
 .debug_str     0x0000000000027aa5        0xf /home/src/arm/target/bin/../arm-none-eabi/lib//libc.a(lib_a-callocr.o)
                                        0x541 (size before relaxing)
 .debug_str     0x0000000000027ab4       0x3a /home/src/arm/target/bin/../arm-none-eabi/lib//libc.a(lib_a-closer.o)
                                        0x4ec (size before relaxing)
 .debug_str     0x0000000000027aee       0x4b /home/src/arm/target/bin/../arm-none-eabi/lib//libc.a(lib_a-fclose.o)
                                        0x554 (size before relaxing)
 .debug_str     0x0000000000027b39       0x40 /home/src/arm/target/bin/../arm-none-eabi/lib//libc.a(lib_a-fstatr.o)
                                        0x5df (size before relaxing)
 .debug_str     0x0000000000027b79       0x3b /home/src/arm/target/bin/../arm-none-eabi/lib//libc.a(lib_a-isattyr.o)
                                        0x4f6 (size before relaxing)
 .debug_str     0x0000000000027bb4       0x3a /home/src/arm/target/bin/../arm-none-eabi/lib//libc.a(lib_a-lseekr.o)
                                        0x4fa (size before relaxing)
 .debug_str     0x0000000000027bee       0x39 /home/src/arm/target/bin/../arm-none-eabi/lib//libc.a(lib_a-readr.o)
                                        0x4fa (size before relaxing)
 .debug_str     0x0000000000027c27      0x10c /home/src/arm/target/bin/../lib/gcc/arm-none-eabi/4.8.2//libgcc.a(bpabi.o)
                                        0x13b (size before relaxing)
 .debug_str     0x0000000000027d33      0x10f /home/src/arm/target/bin/../lib/gcc/arm-none-eabi/4.8.2//libgcc.a(_divdi3.o)
                                        0x1f2 (size before relaxing)
 .debug_str     0x0000000000000000      0x1f3 /home/src/arm/target/bin/../lib/gcc/arm-none-eabi/4.8.2//libgcc.a(_udivdi3.o)

.debug_frame    0x0000000000000000     0x8bf0
 .debug_frame   0x0000000000000000       0x30 /home/leon/git/swp-report/iMX6_Platform_SDK/output/mx6sdl/obds/smart_device_rev_a/obj/apps/common/platform_init.o
 .debug_frame   0x0000000000000030       0x50 /home/leon/git/swp-report/iMX6_Platform_SDK/output/mx6sdl/obds/smart_device_rev_a/obj/apps/common/print_clock_info.o
 .debug_frame   0x0000000000000080       0x30 /home/leon/git/swp-report/iMX6_Platform_SDK/output/mx6sdl/obds/smart_device_rev_a/obj/apps/common/print_version.o
 .debug_frame   0x00000000000000b0      0x198 /home/leon/git/swp-report/iMX6_Platform_SDK/output/mx6sdl/obds/smart_device_rev_a/obj/apps/obds/src/obds.o
 .debug_frame   0x0000000000000248       0x30 /home/leon/git/swp-report/iMX6_Platform_SDK/output/mx6sdl/obds/smart_device_rev_a/obj/apps/obds/src/obds_utils.o
 .debug_frame   0x0000000000000278       0x90 /home/leon/git/swp-report/iMX6_Platform_SDK/output/mx6sdl/obds/smart_device_rev_a/obj/apps/obds/src/tests/android_buttons_test.o
 .debug_frame   0x0000000000000308       0x30 /home/leon/git/swp-report/iMX6_Platform_SDK/output/mx6sdl/obds/smart_device_rev_a/obj/apps/obds/src/tests/audio_esai_test.o
 .debug_frame   0x0000000000000338       0x50 /home/leon/git/swp-report/iMX6_Platform_SDK/output/mx6sdl/obds/smart_device_rev_a/obj/apps/obds/src/tests/audio_ssi_test.o
 .debug_frame   0x0000000000000388       0x50 /home/leon/git/swp-report/iMX6_Platform_SDK/output/mx6sdl/obds/smart_device_rev_a/obj/apps/obds/src/tests/ddr_test.o
 .debug_frame   0x00000000000003d8       0x90 /home/leon/git/swp-report/iMX6_Platform_SDK/output/mx6sdl/obds/smart_device_rev_a/obj/apps/obds/src/tests/deserializer_ds90ur124.o
 .debug_frame   0x0000000000000468       0x90 /home/leon/git/swp-report/iMX6_Platform_SDK/output/mx6sdl/obds/smart_device_rev_a/obj/apps/obds/src/tests/display_test.o
 .debug_frame   0x00000000000004f8       0xd8 /home/leon/git/swp-report/iMX6_Platform_SDK/output/mx6sdl/obds/smart_device_rev_a/obj/apps/obds/src/tests/enet_mx6dldq_test.o
 .debug_frame   0x00000000000005d0       0x30 /home/leon/git/swp-report/iMX6_Platform_SDK/output/mx6sdl/obds/smart_device_rev_a/obj/apps/obds/src/tests/flexcan_test.o
 .debug_frame   0x0000000000000600       0x70 /home/leon/git/swp-report/iMX6_Platform_SDK/output/mx6sdl/obds/smart_device_rev_a/obj/apps/obds/src/tests/fm_tuner_si476x_test.o
 .debug_frame   0x0000000000000670       0x30 /home/leon/git/swp-report/iMX6_Platform_SDK/output/mx6sdl/obds/smart_device_rev_a/obj/apps/obds/src/tests/gpio_led.o
 .debug_frame   0x00000000000006a0       0x30 /home/leon/git/swp-report/iMX6_Platform_SDK/output/mx6sdl/obds/smart_device_rev_a/obj/apps/obds/src/tests/gps_test.o
 .debug_frame   0x00000000000006d0       0xd0 /home/leon/git/swp-report/iMX6_Platform_SDK/output/mx6sdl/obds/smart_device_rev_a/obj/apps/obds/src/tests/i2c_check_light_sensor_isl29023.o
 .debug_frame   0x00000000000007a0       0x90 /home/leon/git/swp-report/iMX6_Platform_SDK/output/mx6sdl/obds/smart_device_rev_a/obj/apps/obds/src/tests/i2c_device_barometer_ppl3115.o
 .debug_frame   0x0000000000000830       0x30 /home/leon/git/swp-report/iMX6_Platform_SDK/output/mx6sdl/obds/smart_device_rev_a/obj/apps/obds/src/tests/i2c_device_check_cs42888.o
 .debug_frame   0x0000000000000860       0x50 /home/leon/git/swp-report/iMX6_Platform_SDK/output/mx6sdl/obds/smart_device_rev_a/obj/apps/obds/src/tests/i2c_device_digital_compass_mag3110.o
 .debug_frame   0x00000000000008b0       0x50 /home/leon/git/swp-report/iMX6_Platform_SDK/output/mx6sdl/obds/smart_device_rev_a/obj/apps/obds/src/tests/i2c_device_digital_compass_mag3112.o
 .debug_frame   0x0000000000000900       0xd0 /home/leon/git/swp-report/iMX6_Platform_SDK/output/mx6sdl/obds/smart_device_rev_a/obj/apps/obds/src/tests/i2c_device_id_check_mma8450.o
 .debug_frame   0x00000000000009d0       0xd0 /home/leon/git/swp-report/iMX6_Platform_SDK/output/mx6sdl/obds/smart_device_rev_a/obj/apps/obds/src/tests/i2c_device_id_check_mma8451.o
 .debug_frame   0x0000000000000aa0       0xb0 /home/leon/git/swp-report/iMX6_Platform_SDK/output/mx6sdl/obds/smart_device_rev_a/obj/apps/obds/src/tests/i2c_device_id_check_p1003_tsc.o
 .debug_frame   0x0000000000000b50       0xf0 /home/leon/git/swp-report/iMX6_Platform_SDK/output/mx6sdl/obds/smart_device_rev_a/obj/apps/obds/src/tests/i2c_device_temp_sensor_emc1046.o
 .debug_frame   0x0000000000000c40       0x90 /home/leon/git/swp-report/iMX6_Platform_SDK/output/mx6sdl/obds/smart_device_rev_a/obj/apps/obds/src/tests/i2c_device_zigbee_mc1323.o
 .debug_frame   0x0000000000000cd0       0x70 /home/leon/git/swp-report/iMX6_Platform_SDK/output/mx6sdl/obds/smart_device_rev_a/obj/apps/obds/src/tests/i2c_eeprom_at24cxx_test.o
 .debug_frame   0x0000000000000d40       0xb0 /home/leon/git/swp-report/iMX6_Platform_SDK/output/mx6sdl/obds/smart_device_rev_a/obj/apps/obds/src/tests/imx_spi_nor_test.o
 .debug_frame   0x0000000000000df0       0xb0 /home/leon/git/swp-report/iMX6_Platform_SDK/output/mx6sdl/obds/smart_device_rev_a/obj/apps/obds/src/tests/mlb_os81050.o
 .debug_frame   0x0000000000000ea0       0x30 /home/leon/git/swp-report/iMX6_Platform_SDK/output/mx6sdl/obds/smart_device_rev_a/obj/apps/obds/src/tests/mmcsd_test.o
 .debug_frame   0x0000000000000ed0       0x90 /home/leon/git/swp-report/iMX6_Platform_SDK/output/mx6sdl/obds/smart_device_rev_a/obj/apps/obds/src/tests/pmic_da9053.o
 .debug_frame   0x0000000000000f60      0x110 /home/leon/git/swp-report/iMX6_Platform_SDK/output/mx6sdl/obds/smart_device_rev_a/obj/apps/obds/src/tests/pmic_lt3589.o
 .debug_frame   0x0000000000001070       0x90 /home/leon/git/swp-report/iMX6_Platform_SDK/output/mx6sdl/obds/smart_device_rev_a/obj/apps/obds/src/tests/pmic_max17135.o
 .debug_frame   0x0000000000001100       0xd0 /home/leon/git/swp-report/iMX6_Platform_SDK/output/mx6sdl/obds/smart_device_rev_a/obj/apps/obds/src/tests/pmic_mc13892.o
 .debug_frame   0x00000000000011d0       0x78 /home/leon/git/swp-report/iMX6_Platform_SDK/output/mx6sdl/obds/smart_device_rev_a/obj/apps/obds/src/tests/program_board_id.o
 .debug_frame   0x0000000000001248       0xb8 /home/leon/git/swp-report/iMX6_Platform_SDK/output/mx6sdl/obds/smart_device_rev_a/obj/apps/obds/src/tests/program_mac_address.o
 .debug_frame   0x0000000000001300       0x30 /home/leon/git/swp-report/iMX6_Platform_SDK/output/mx6sdl/obds/smart_device_rev_a/obj/apps/obds/src/tests/snvs_srtc_test.o
 .debug_frame   0x0000000000001330       0xb0 /home/leon/git/swp-report/iMX6_Platform_SDK/output/mx6sdl/obds/smart_device_rev_a/obj/apps/obds/src/tests/touch_button_test.o
 .debug_frame   0x00000000000013e0       0xf0 /home/leon/git/swp-report/iMX6_Platform_SDK/output/mx6sdl/obds/smart_device_rev_a/obj/apps/obds/src/tests/touch_screen.o
 .debug_frame   0x00000000000014d0      0x130 /home/leon/git/swp-report/iMX6_Platform_SDK/output/mx6sdl/obds/smart_device_rev_a/obj/apps/obds/src/tests/touch_screen_max11801.o
 .debug_frame   0x0000000000001600       0x70 /home/leon/git/swp-report/iMX6_Platform_SDK/output/mx6sdl/obds/smart_device_rev_a/obj/apps/obds/src/tests/usb_tests_obds.o
 .debug_frame   0x0000000000001670       0x30 /home/leon/git/swp-report/iMX6_Platform_SDK/output/mx6sdl/obds/smart_device_rev_a/obj/apps/obds/src/tests/video_dec_ARD_MB_reset_button.o
 .debug_frame   0x00000000000016a0       0x30 /home/leon/git/swp-report/iMX6_Platform_SDK/output/mx6sdl/obds/smart_device_rev_a/obj/apps/obds/src/tests/video_dec_ARD_MBrst_from_cpu_expander.o
 .debug_frame   0x00000000000016d0       0xf0 /home/leon/git/swp-report/iMX6_Platform_SDK/output/mx6sdl/obds/smart_device_rev_a/obj/apps/obds/src/tests/video_dec_adv7180.o
 .debug_frame   0x00000000000017c0       0x90 /home/leon/git/swp-report/iMX6_Platform_SDK/output/mx6sdl/obds/smart_device_rev_a/obj/apps/obds/src/tests/weim_nor_flash_test.o
 .debug_frame   0x0000000000001850       0x30 /home/leon/git/swp-report/iMX6_Platform_SDK/output/mx6sdl/obds/smart_device_rev_a/obj/sdk/common/ioexpander/test/max7310_test.o
 .debug_frame   0x0000000000001880      0x130 /home/leon/git/swp-report/iMX6_Platform_SDK/output/mx6sdl/obds/smart_device_rev_a/obj/sdk/common/pmic/pfuse/pf0100.o
 .debug_frame   0x00000000000019b0       0xd0 /home/leon/git/swp-report/iMX6_Platform_SDK/output/mx6sdl/obds/smart_device_rev_a/obj/sdk/drivers/audio/src/snd_card.o
 .debug_frame   0x0000000000001a80       0x30 /home/leon/git/swp-report/iMX6_Platform_SDK/output/mx6sdl/obds/smart_device_rev_a/obj/sdk/drivers/camera/test/camera_test.o
 .debug_frame   0x0000000000001ab0       0x30 /home/leon/git/swp-report/iMX6_Platform_SDK/output/mx6sdl/obds/smart_device_rev_a/obj/sdk/drivers/camera/test/csi_test_mode.o
 .debug_frame   0x0000000000001ae0       0x30 /home/leon/git/swp-report/iMX6_Platform_SDK/output/mx6sdl/obds/smart_device_rev_a/obj/sdk/drivers/camera/test/sensor_capture.o
 .debug_frame   0x0000000000001b10       0xd0 /home/leon/git/swp-report/iMX6_Platform_SDK/output/mx6sdl/obds/smart_device_rev_a/obj/sdk/drivers/epdc/test/epdc_test.o
 .debug_frame   0x0000000000001be0       0xb0 /home/leon/git/swp-report/iMX6_Platform_SDK/output/mx6sdl/obds/smart_device_rev_a/obj/sdk/drivers/hdmi/test/hdmi_test.o
 .debug_frame   0x0000000000001c90       0x30 /home/leon/git/swp-report/iMX6_Platform_SDK/output/mx6sdl/obds/smart_device_rev_a/obj/sdk/drivers/hdmi/test/init_dma_data.o
 .debug_frame   0x0000000000001cc0       0xf0 /home/leon/git/swp-report/iMX6_Platform_SDK/output/mx6sdl/obds/smart_device_rev_a/obj/sdk/drivers/ipu/test/ips_display.o
 .debug_frame   0x0000000000001db0       0xb0 /home/leon/git/swp-report/iMX6_Platform_SDK/output/mx6sdl/obds/smart_device_rev_a/obj/sdk/drivers/ipu/test/ipu_image.o
 .debug_frame   0x0000000000001e60       0xf0 /home/leon/git/swp-report/iMX6_Platform_SDK/output/mx6sdl/obds/smart_device_rev_a/obj/sdk/drivers/spi/test/imx_spi_nor_atmel.o
 .debug_frame   0x0000000000001f50      0x110 /home/leon/git/swp-report/iMX6_Platform_SDK/output/mx6sdl/obds/smart_device_rev_a/obj/sdk/drivers/spi/test/spi_nor_numonyx.o
 .debug_frame   0x0000000000002060       0x50 /home/leon/git/swp-report/iMX6_Platform_SDK/output/mx6sdl/obds/smart_device_rev_a/obj/sdk/drivers/uart/test/uart_test.o
 .debug_frame   0x00000000000020b0      0x110 /home/leon/git/swp-report/iMX6_Platform_SDK/output/mx6sdl/obds/smart_device_rev_a/obj/sdk/drivers/usb/test/usb0_host_test.o
 .debug_frame   0x00000000000021c0       0x30 /home/leon/git/swp-report/iMX6_Platform_SDK/output/mx6sdl/obds/smart_device_rev_a/obj/sdk/drivers/usb/test/usb0_host_testmodes_test.o
 .debug_frame   0x00000000000021f0      0x170 /home/leon/git/swp-report/iMX6_Platform_SDK/output/mx6sdl/obds/smart_device_rev_a/obj/sdk/drivers/usdhc/test/usdhc_test.o
 .debug_frame   0x0000000000002360       0x90 /home/leon/git/swp-report/iMX6_Platform_SDK/output/mx6sdl/lib/libsdk.a(max7310.o)
 .debug_frame   0x00000000000023f0      0x130 /home/leon/git/swp-report/iMX6_Platform_SDK/output/mx6sdl/lib/libsdk.a(ccm_pll.o)
 .debug_frame   0x0000000000002520      0x230 /home/leon/git/swp-report/iMX6_Platform_SDK/output/mx6sdl/lib/libsdk.a(gic.o)
 .debug_frame   0x0000000000002750       0xb8 /home/leon/git/swp-report/iMX6_Platform_SDK/output/mx6sdl/lib/libsdk.a(interrupt.o)
 .debug_frame   0x0000000000002808       0xb0 /home/leon/git/swp-report/iMX6_Platform_SDK/output/mx6sdl/lib/libsdk.a(mmu.o)
 .debug_frame   0x00000000000028b8      0x170 /home/leon/git/swp-report/iMX6_Platform_SDK/output/mx6sdl/lib/libsdk.a(menu.o)
 .debug_frame   0x0000000000002a28       0xe0 /home/leon/git/swp-report/iMX6_Platform_SDK/output/mx6sdl/lib/libsdk.a(system_util.o)
 .debug_frame   0x0000000000002b08       0x54 /home/leon/git/swp-report/iMX6_Platform_SDK/output/mx6sdl/lib/libsdk.a(text_color.o)
 .debug_frame   0x0000000000002b5c       0xf0 /home/leon/git/swp-report/iMX6_Platform_SDK/output/mx6sdl/lib/libsdk.a(cs42888.o)
 .debug_frame   0x0000000000002c4c      0x170 /home/leon/git/swp-report/iMX6_Platform_SDK/output/mx6sdl/lib/libsdk.a(imx-ssi.o)
 .debug_frame   0x0000000000002dbc       0x70 /home/leon/git/swp-report/iMX6_Platform_SDK/output/mx6sdl/lib/libsdk.a(imx_audmux.o)
 .debug_frame   0x0000000000002e2c      0x190 /home/leon/git/swp-report/iMX6_Platform_SDK/output/mx6sdl/lib/libsdk.a(imx_esai.o)
 .debug_frame   0x0000000000002fbc      0x110 /home/leon/git/swp-report/iMX6_Platform_SDK/output/mx6sdl/lib/libsdk.a(imx_spdif.o)
 .debug_frame   0x00000000000030cc      0x1b8 /home/leon/git/swp-report/iMX6_Platform_SDK/output/mx6sdl/lib/libsdk.a(sgtl5000.o)
 .debug_frame   0x0000000000003284      0x130 /home/leon/git/swp-report/iMX6_Platform_SDK/output/mx6sdl/lib/libsdk.a(wm8958_dac.o)
 .debug_frame   0x00000000000033b4      0x150 /home/leon/git/swp-report/iMX6_Platform_SDK/output/mx6sdl/lib/libsdk.a(wm8962.o)
 .debug_frame   0x0000000000003504       0xf0 /home/leon/git/swp-report/iMX6_Platform_SDK/output/mx6sdl/lib/libsdk.a(board_id.o)
 .debug_frame   0x00000000000035f4      0x150 /home/leon/git/swp-report/iMX6_Platform_SDK/output/mx6sdl/lib/libsdk.a(smd_sensor.o)
 .debug_frame   0x0000000000003744      0x270 /home/leon/git/swp-report/iMX6_Platform_SDK/output/mx6sdl/lib/libsdk.a(enet_drv.o)
 .debug_frame   0x00000000000039b4      0x390 /home/leon/git/swp-report/iMX6_Platform_SDK/output/mx6sdl/lib/libsdk.a(mxc_epdc.o)
 .debug_frame   0x0000000000003d44      0x178 /home/leon/git/swp-report/iMX6_Platform_SDK/output/mx6sdl/lib/libsdk.a(gpio.o)
 .debug_frame   0x0000000000003ebc      0x150 /home/leon/git/swp-report/iMX6_Platform_SDK/output/mx6sdl/lib/libsdk.a(hdmi_tx.o)
 .debug_frame   0x000000000000400c      0x2b0 /home/leon/git/swp-report/iMX6_Platform_SDK/output/mx6sdl/lib/libsdk.a(hdmi_tx_audio.o)
 .debug_frame   0x00000000000042bc      0x2b0 /home/leon/git/swp-report/iMX6_Platform_SDK/output/mx6sdl/lib/libsdk.a(hdmi_tx_phy.o)
 .debug_frame   0x000000000000456c      0x1d8 /home/leon/git/swp-report/iMX6_Platform_SDK/output/mx6sdl/lib/libsdk.a(imx_i2c.o)
 .debug_frame   0x0000000000004744      0x230 /home/leon/git/swp-report/iMX6_Platform_SDK/output/mx6sdl/lib/libsdk.a(ips_disp_panel.o)
 .debug_frame   0x0000000000004974      0x1d0 /home/leon/git/swp-report/iMX6_Platform_SDK/output/mx6sdl/lib/libsdk.a(ipu_common.o)
 .debug_frame   0x0000000000004b44       0xd0 /home/leon/git/swp-report/iMX6_Platform_SDK/output/mx6sdl/lib/libsdk.a(ipu_csi.o)
 .debug_frame   0x0000000000004c14       0xd0 /home/leon/git/swp-report/iMX6_Platform_SDK/output/mx6sdl/lib/libsdk.a(ipu_dc.o)
 .debug_frame   0x0000000000004ce4       0xf4 /home/leon/git/swp-report/iMX6_Platform_SDK/output/mx6sdl/lib/libsdk.a(ipu_di.o)
 .debug_frame   0x0000000000004dd8       0x50 /home/leon/git/swp-report/iMX6_Platform_SDK/output/mx6sdl/lib/libsdk.a(ipu_dmfc.o)
 .debug_frame   0x0000000000004e28       0x70 /home/leon/git/swp-report/iMX6_Platform_SDK/output/mx6sdl/lib/libsdk.a(ipu_dp.o)
 .debug_frame   0x0000000000004e98      0x230 /home/leon/git/swp-report/iMX6_Platform_SDK/output/mx6sdl/lib/libsdk.a(ipu_idmac.o)
 .debug_frame   0x00000000000050c8      0x110 /home/leon/git/swp-report/iMX6_Platform_SDK/output/mx6sdl/lib/libsdk.a(ipu_vdi.o)
 .debug_frame   0x00000000000051d8       0x70 /home/leon/git/swp-report/iMX6_Platform_SDK/output/mx6sdl/lib/libsdk.a(ldb.o)
 .debug_frame   0x0000000000005248       0xf0 /home/leon/git/swp-report/iMX6_Platform_SDK/output/mx6sdl/lib/libsdk.a(ocotp.o)
 .debug_frame   0x0000000000005338       0xf0 /home/leon/git/swp-report/iMX6_Platform_SDK/output/mx6sdl/lib/libsdk.a(ecspi.o)
 .debug_frame   0x0000000000005428       0x90 /home/leon/git/swp-report/iMX6_Platform_SDK/output/mx6sdl/lib/libsdk.a(timer.o)
 .debug_frame   0x00000000000054b8       0xf0 /home/leon/git/swp-report/iMX6_Platform_SDK/output/mx6sdl/lib/libsdk.a(imx_uart.o)
 .debug_frame   0x00000000000055a8       0x70 /home/leon/git/swp-report/iMX6_Platform_SDK/output/mx6sdl/lib/libsdk.a(usb_common.o)
 .debug_frame   0x0000000000005618      0x110 /home/leon/git/swp-report/iMX6_Platform_SDK/output/mx6sdl/lib/libsdk.a(usbh_drv.o)
 .debug_frame   0x0000000000005728      0x250 /home/leon/git/swp-report/iMX6_Platform_SDK/output/mx6sdl/lib/libsdk.a(usdhc.o)
 .debug_frame   0x0000000000005978      0x330 /home/leon/git/swp-report/iMX6_Platform_SDK/output/mx6sdl/lib/libsdk.a(usdhc_host.o)
 .debug_frame   0x0000000000005ca8      0x1b0 /home/leon/git/swp-report/iMX6_Platform_SDK/output/mx6sdl/lib/libsdk.a(usdhc_mmc.o)
 .debug_frame   0x0000000000005e58       0x90 /home/leon/git/swp-report/iMX6_Platform_SDK/output/mx6sdl/lib/libsdk.a(usdhc_sd.o)
 .debug_frame   0x0000000000005ee8      0x210 /home/leon/git/swp-report/iMX6_Platform_SDK/output/mx6sdl/lib/libsdk.a(armv7_cache.o)
 .debug_frame   0x00000000000060f8       0xb0 /home/leon/git/swp-report/iMX6_Platform_SDK/output/mx6sdl/lib/libsdk.a(hdmi_common.o)
 .debug_frame   0x00000000000061a8      0x130 /home/leon/git/swp-report/iMX6_Platform_SDK/output/mx6sdl/lib/libsdk.a(ipu_ic.o)
 .debug_frame   0x00000000000062d8      0x110 /home/leon/git/swp-report/iMX6_Platform_SDK/output/mx6sdl/lib/libsdk.a(epit.o)
 .debug_frame   0x00000000000063e8       0x50 /home/leon/git/swp-report/iMX6_Platform_SDK/output/mx6sdl/lib/libsdk.a(mx6x_usb.o)
 .debug_frame   0x0000000000006438       0x38 /home/leon/git/swp-report/iMX6_Platform_SDK/output/mx6sdl/lib/libsdk.a(abort_handler.o)
 .debug_frame   0x0000000000006470       0xf0 /home/leon/git/swp-report/iMX6_Platform_SDK/output/mx6sdl/lib/libboard_smart_device_rev_a.a(board_audio.o)
 .debug_frame   0x0000000000006560       0x30 /home/leon/git/swp-report/iMX6_Platform_SDK/output/mx6sdl/lib/libboard_smart_device_rev_a.a(board_buttons.o)
 .debug_frame   0x0000000000006590       0xd0 /home/leon/git/swp-report/iMX6_Platform_SDK/output/mx6sdl/lib/libboard_smart_device_rev_a.a(board_camera.o)
 .debug_frame   0x0000000000006660       0xf0 /home/leon/git/swp-report/iMX6_Platform_SDK/output/mx6sdl/lib/libboard_smart_device_rev_a.a(board_display.o)
 .debug_frame   0x0000000000006750       0xd0 /home/leon/git/swp-report/iMX6_Platform_SDK/output/mx6sdl/lib/libboard_smart_device_rev_a.a(board_hdmi.o)
 .debug_frame   0x0000000000006820       0x50 /home/leon/git/swp-report/iMX6_Platform_SDK/output/mx6sdl/lib/libboard_smart_device_rev_a.a(board_io_expanders.o)
 .debug_frame   0x0000000000006870       0xb0 /home/leon/git/swp-report/iMX6_Platform_SDK/output/mx6sdl/lib/libboard_smart_device_rev_a.a(board_mipi.o)
 .debug_frame   0x0000000000006920       0xb0 /home/leon/git/swp-report/iMX6_Platform_SDK/output/mx6sdl/lib/libboard_smart_device_rev_a.a(board_network.o)
 .debug_frame   0x00000000000069d0       0x70 /home/leon/git/swp-report/iMX6_Platform_SDK/output/mx6sdl/lib/libboard_smart_device_rev_a.a(board_usb.o)
 .debug_frame   0x0000000000006a40       0x70 /home/leon/git/swp-report/iMX6_Platform_SDK/output/mx6sdl/lib/libboard_smart_device_rev_a.a(board_usdhc.o)
 .debug_frame   0x0000000000006ab0       0x30 /home/leon/git/swp-report/iMX6_Platform_SDK/output/mx6sdl/lib/libboard_smart_device_rev_a.a(audmux_iomux_config.o)
 .debug_frame   0x0000000000006ae0       0x30 /home/leon/git/swp-report/iMX6_Platform_SDK/output/mx6sdl/lib/libboard_smart_device_rev_a.a(ccm_iomux_config.o)
 .debug_frame   0x0000000000006b10       0x30 /home/leon/git/swp-report/iMX6_Platform_SDK/output/mx6sdl/lib/libboard_smart_device_rev_a.a(ecspi_iomux_config.o)
 .debug_frame   0x0000000000006b40       0x30 /home/leon/git/swp-report/iMX6_Platform_SDK/output/mx6sdl/lib/libboard_smart_device_rev_a.a(enet_iomux_config.o)
 .debug_frame   0x0000000000006b70       0x30 /home/leon/git/swp-report/iMX6_Platform_SDK/output/mx6sdl/lib/libboard_smart_device_rev_a.a(epdc_iomux_config.o)
 .debug_frame   0x0000000000006ba0       0x30 /home/leon/git/swp-report/iMX6_Platform_SDK/output/mx6sdl/lib/libboard_smart_device_rev_a.a(i2c_iomux_config.o)
 .debug_frame   0x0000000000006bd0      0x530 /home/leon/git/swp-report/iMX6_Platform_SDK/output/mx6sdl/lib/libboard_smart_device_rev_a.a(iomux_config.o)
 .debug_frame   0x0000000000007100       0x30 /home/leon/git/swp-report/iMX6_Platform_SDK/output/mx6sdl/lib/libboard_smart_device_rev_a.a(ipu1_iomux_config.o)
 .debug_frame   0x0000000000007130       0x30 /home/leon/git/swp-report/iMX6_Platform_SDK/output/mx6sdl/lib/libboard_smart_device_rev_a.a(ipu_iomux_config.o)
 .debug_frame   0x0000000000007160       0x30 /home/leon/git/swp-report/iMX6_Platform_SDK/output/mx6sdl/lib/libboard_smart_device_rev_a.a(kpp_iomux_config.o)
 .debug_frame   0x0000000000007190       0x30 /home/leon/git/swp-report/iMX6_Platform_SDK/output/mx6sdl/lib/libboard_smart_device_rev_a.a(mmdc_iomux_config.o)
 .debug_frame   0x00000000000071c0       0x30 /home/leon/git/swp-report/iMX6_Platform_SDK/output/mx6sdl/lib/libboard_smart_device_rev_a.a(pwm1_iomux_config.o)
 .debug_frame   0x00000000000071f0       0x30 /home/leon/git/swp-report/iMX6_Platform_SDK/output/mx6sdl/lib/libboard_smart_device_rev_a.a(sjc_iomux_config.o)
 .debug_frame   0x0000000000007220       0x30 /home/leon/git/swp-report/iMX6_Platform_SDK/output/mx6sdl/lib/libboard_smart_device_rev_a.a(uart1_iomux_config.o)
 .debug_frame   0x0000000000007250       0x30 /home/leon/git/swp-report/iMX6_Platform_SDK/output/mx6sdl/lib/libboard_smart_device_rev_a.a(uart_iomux_config.o)
 .debug_frame   0x0000000000007280       0x30 /home/leon/git/swp-report/iMX6_Platform_SDK/output/mx6sdl/lib/libboard_smart_device_rev_a.a(usdhc2_iomux_config.o)
 .debug_frame   0x00000000000072b0       0x30 /home/leon/git/swp-report/iMX6_Platform_SDK/output/mx6sdl/lib/libboard_smart_device_rev_a.a(usdhc3_iomux_config.o)
 .debug_frame   0x00000000000072e0       0x30 /home/leon/git/swp-report/iMX6_Platform_SDK/output/mx6sdl/lib/libboard_smart_device_rev_a.a(usdhc4_iomux_config.o)
 .debug_frame   0x0000000000007310       0x30 /home/leon/git/swp-report/iMX6_Platform_SDK/output/mx6sdl/lib/libboard_smart_device_rev_a.a(usdhc_iomux_config.o)
 .debug_frame   0x0000000000007340       0x30 /home/leon/git/swp-report/iMX6_Platform_SDK/output/mx6sdl/lib/libboard_smart_device_rev_a.a(ecspi1_iomux_config.o)
 .debug_frame   0x0000000000007370       0x30 /home/leon/git/swp-report/iMX6_Platform_SDK/output/mx6sdl/lib/libboard_smart_device_rev_a.a(flexcan1_iomux_config.o)
 .debug_frame   0x00000000000073a0       0x30 /home/leon/git/swp-report/iMX6_Platform_SDK/output/mx6sdl/lib/libboard_smart_device_rev_a.a(gpio1_iomux_config.o)
 .debug_frame   0x00000000000073d0       0x30 /home/leon/git/swp-report/iMX6_Platform_SDK/output/mx6sdl/lib/libboard_smart_device_rev_a.a(gpio2_iomux_config.o)
 .debug_frame   0x0000000000007400       0x30 /home/leon/git/swp-report/iMX6_Platform_SDK/output/mx6sdl/lib/libboard_smart_device_rev_a.a(gpio3_iomux_config.o)
 .debug_frame   0x0000000000007430       0x30 /home/leon/git/swp-report/iMX6_Platform_SDK/output/mx6sdl/lib/libboard_smart_device_rev_a.a(gpio4_iomux_config.o)
 .debug_frame   0x0000000000007460       0x30 /home/leon/git/swp-report/iMX6_Platform_SDK/output/mx6sdl/lib/libboard_smart_device_rev_a.a(gpio5_iomux_config.o)
 .debug_frame   0x0000000000007490       0x30 /home/leon/git/swp-report/iMX6_Platform_SDK/output/mx6sdl/lib/libboard_smart_device_rev_a.a(gpio6_iomux_config.o)
 .debug_frame   0x00000000000074c0       0x30 /home/leon/git/swp-report/iMX6_Platform_SDK/output/mx6sdl/lib/libboard_smart_device_rev_a.a(gpio7_iomux_config.o)
 .debug_frame   0x00000000000074f0       0x30 /home/leon/git/swp-report/iMX6_Platform_SDK/output/mx6sdl/lib/libboard_smart_device_rev_a.a(gps_iomux_config.o)
 .debug_frame   0x0000000000007520       0x30 /home/leon/git/swp-report/iMX6_Platform_SDK/output/mx6sdl/lib/libboard_smart_device_rev_a.a(i2c1_iomux_config.o)
 .debug_frame   0x0000000000007550       0x30 /home/leon/git/swp-report/iMX6_Platform_SDK/output/mx6sdl/lib/libboard_smart_device_rev_a.a(i2c2_iomux_config.o)
 .debug_frame   0x0000000000007580       0x30 /home/leon/git/swp-report/iMX6_Platform_SDK/output/mx6sdl/lib/libboard_smart_device_rev_a.a(i2c3_iomux_config.o)
 .debug_frame   0x00000000000075b0       0x40 /home/src/arm/target/bin/../arm-none-eabi/lib//libc.a(lib_a-assert.o)
 .debug_frame   0x00000000000075f0       0x20 /home/src/arm/target/bin/../arm-none-eabi/lib//libc.a(lib_a-bzero.o)
 .debug_frame   0x0000000000007610       0x54 /home/src/arm/target/bin/../arm-none-eabi/lib//libc.a(lib_a-fiprintf.o)
 .debug_frame   0x0000000000007664       0x48 /home/src/arm/target/bin/../arm-none-eabi/lib//libc.a(lib_a-fputc.o)
 .debug_frame   0x00000000000076ac       0x2c /home/src/arm/target/bin/../arm-none-eabi/lib//libc.a(lib_a-init.o)
 .debug_frame   0x00000000000076d8       0x40 /home/src/arm/target/bin/../arm-none-eabi/lib//libc.a(lib_a-malloc.o)
 .debug_frame   0x0000000000007718       0x38 /home/src/arm/target/bin/../arm-none-eabi/lib//libc.a(lib_a-mallocr.o)
 .debug_frame   0x0000000000007750       0x2c /home/src/arm/target/bin/../arm-none-eabi/lib//libc.a(lib_a-memcpy-stub.o)
 .debug_frame   0x000000000000777c       0x2c /home/src/arm/target/bin/../arm-none-eabi/lib//libc.a(lib_a-memset.o)
 .debug_frame   0x00000000000077a8       0x30 /home/src/arm/target/bin/../arm-none-eabi/lib//libc.a(lib_a-mlock.o)
 .debug_frame   0x00000000000077d8       0x58 /home/src/arm/target/bin/../arm-none-eabi/lib//libc.a(lib_a-printf.o)
 .debug_frame   0x0000000000007830       0x48 /home/src/arm/target/bin/../arm-none-eabi/lib//libc.a(lib_a-putc.o)
 .debug_frame   0x0000000000007878       0x28 /home/src/arm/target/bin/../arm-none-eabi/lib//libc.a(lib_a-realloc.o)
 .debug_frame   0x00000000000078a0       0x38 /home/src/arm/target/bin/../arm-none-eabi/lib//libc.a(lib_a-reallocr.o)
 .debug_frame   0x00000000000078d8       0x3c /home/src/arm/target/bin/../arm-none-eabi/lib//libc.a(lib_a-rget.o)
 .debug_frame   0x0000000000007914       0x2c /home/src/arm/target/bin/../arm-none-eabi/lib//libc.a(lib_a-sbrkr.o)
 .debug_frame   0x0000000000007940       0x60 /home/src/arm/target/bin/../arm-none-eabi/lib//libc.a(lib_a-sprintf.o)
 .debug_frame   0x00000000000079a0       0x2c /home/src/arm/target/bin/../arm-none-eabi/lib//libc.a(lib_a-strcat.o)
 .debug_frame   0x00000000000079cc       0x20 /home/src/arm/target/bin/../arm-none-eabi/lib//libc.a(lib_a-strcpy.o)
 .debug_frame   0x00000000000079ec       0x20 /home/src/arm/target/bin/../arm-none-eabi/lib//libc.a(lib_a-strlen.o)
 .debug_frame   0x0000000000007a0c       0x28 /home/src/arm/target/bin/../arm-none-eabi/lib//libc.a(lib_a-strncasecmp.o)
 .debug_frame   0x0000000000007a34       0x28 /home/src/arm/target/bin/../arm-none-eabi/lib//libc.a(lib_a-strtok.o)
 .debug_frame   0x0000000000007a5c       0x3c /home/src/arm/target/bin/../arm-none-eabi/lib//libc.a(lib_a-strtok_r.o)
 .debug_frame   0x0000000000007a98       0x3c /home/src/arm/target/bin/../arm-none-eabi/lib//libc.a(lib_a-svfprintf.o)
 .debug_frame   0x0000000000007ad4      0x2ec /home/src/arm/target/bin/../arm-none-eabi/lib//libc.a(lib_a-syscalls.o)
 .debug_frame   0x0000000000007dc0       0xb8 /home/src/arm/target/bin/../arm-none-eabi/lib//libc.a(lib_a-vfiprintf.o)
 .debug_frame   0x0000000000007e78       0x84 /home/src/arm/target/bin/../arm-none-eabi/lib//libc.a(lib_a-vfprintf.o)
 .debug_frame   0x0000000000007efc       0x40 /home/src/arm/target/bin/../arm-none-eabi/lib//libc.a(lib_a-vprintf.o)
 .debug_frame   0x0000000000007f3c       0x3c /home/src/arm/target/bin/../arm-none-eabi/lib//libc.a(lib_a-wbuf.o)
 .debug_frame   0x0000000000007f78       0x2c /home/src/arm/target/bin/../arm-none-eabi/lib//libc.a(lib_a-wsetup.o)
 .debug_frame   0x0000000000007fa4       0x28 /home/src/arm/target/bin/../arm-none-eabi/lib//libc.a(lib_a-abort.o)
 .debug_frame   0x0000000000007fcc       0x64 /home/src/arm/target/bin/../arm-none-eabi/lib//libc.a(lib_a-dtoa.o)
 .debug_frame   0x0000000000008030       0x20 /home/src/arm/target/bin/../arm-none-eabi/lib//libc.a(lib_a-errno.o)
 .debug_frame   0x0000000000008050       0x64 /home/src/arm/target/bin/../arm-none-eabi/lib//libc.a(lib_a-fflush.o)
 .debug_frame   0x00000000000080b4      0x130 /home/src/arm/target/bin/../arm-none-eabi/lib//libc.a(lib_a-findfp.o)
 .debug_frame   0x00000000000081e4       0x50 /home/src/arm/target/bin/../arm-none-eabi/lib//libc.a(lib_a-fputwc.o)
 .debug_frame   0x0000000000008234       0x50 /home/src/arm/target/bin/../arm-none-eabi/lib//libc.a(lib_a-freer.o)
 .debug_frame   0x0000000000008284       0x38 /home/src/arm/target/bin/../arm-none-eabi/lib//libc.a(lib_a-fvwrite.o)
 .debug_frame   0x00000000000082bc       0x54 /home/src/arm/target/bin/../arm-none-eabi/lib//libc.a(lib_a-fwalk.o)
 .debug_frame   0x0000000000008310       0x98 /home/src/arm/target/bin/../arm-none-eabi/lib//libc.a(lib_a-locale.o)
 .debug_frame   0x00000000000083a8       0x30 /home/src/arm/target/bin/../arm-none-eabi/lib//libc.a(lib_a-makebuf.o)
 .debug_frame   0x00000000000083d8       0x2c /home/src/arm/target/bin/../arm-none-eabi/lib//libc.a(lib_a-memchr-stub.o)
 .debug_frame   0x0000000000008404       0x2c /home/src/arm/target/bin/../arm-none-eabi/lib//libc.a(lib_a-memmove.o)
 .debug_frame   0x0000000000008430      0x210 /home/src/arm/target/bin/../arm-none-eabi/lib//libc.a(lib_a-mprec.o)
 .debug_frame   0x0000000000008640       0x48 /home/src/arm/target/bin/../arm-none-eabi/lib//libc.a(lib_a-reent.o)
 .debug_frame   0x0000000000008688       0x48 /home/src/arm/target/bin/../arm-none-eabi/lib//libc.a(lib_a-refill.o)
 .debug_frame   0x00000000000086d0       0x20 /home/src/arm/target/bin/../arm-none-eabi/lib//libc.a(lib_a-s_fpclassify.o)
 .debug_frame   0x00000000000086f0       0xc0 /home/src/arm/target/bin/../arm-none-eabi/lib//libc.a(lib_a-signal.o)
 .debug_frame   0x00000000000087b0       0x44 /home/src/arm/target/bin/../arm-none-eabi/lib//libc.a(lib_a-signalr.o)
 .debug_frame   0x00000000000087f4       0x88 /home/src/arm/target/bin/../arm-none-eabi/lib//libc.a(lib_a-stdio.o)
 .debug_frame   0x000000000000887c       0x64 /home/src/arm/target/bin/../arm-none-eabi/lib//libc.a(lib_a-svfiprintf.o)
 .debug_frame   0x00000000000088e0       0x58 /home/src/arm/target/bin/../arm-none-eabi/lib//libc.a(lib_a-wcrtomb.o)
 .debug_frame   0x0000000000008938       0x44 /home/src/arm/target/bin/../arm-none-eabi/lib//libc.a(lib_a-wctomb_r.o)
 .debug_frame   0x000000000000897c       0x2c /home/src/arm/target/bin/../arm-none-eabi/lib//libc.a(lib_a-writer.o)
 .debug_frame   0x00000000000089a8       0x28 /home/src/arm/target/bin/../arm-none-eabi/lib//libc.a(lib_a-callocr.o)
 .debug_frame   0x00000000000089d0       0x2c /home/src/arm/target/bin/../arm-none-eabi/lib//libc.a(lib_a-closer.o)
 .debug_frame   0x00000000000089fc       0x3c /home/src/arm/target/bin/../arm-none-eabi/lib//libc.a(lib_a-fclose.o)
 .debug_frame   0x0000000000008a38       0x2c /home/src/arm/target/bin/../arm-none-eabi/lib//libc.a(lib_a-fstatr.o)
 .debug_frame   0x0000000000008a64       0x2c /home/src/arm/target/bin/../arm-none-eabi/lib//libc.a(lib_a-isattyr.o)
 .debug_frame   0x0000000000008a90       0x2c /home/src/arm/target/bin/../arm-none-eabi/lib//libc.a(lib_a-lseekr.o)
 .debug_frame   0x0000000000008abc       0x2c /home/src/arm/target/bin/../arm-none-eabi/lib//libc.a(lib_a-readr.o)
 .debug_frame   0x0000000000008ae8       0x20 /home/src/arm/target/bin/../lib/gcc/arm-none-eabi/4.8.2//libgcc.a(_udivsi3.o)
 .debug_frame   0x0000000000008b08       0x20 /home/src/arm/target/bin/../lib/gcc/arm-none-eabi/4.8.2//libgcc.a(_divsi3.o)
 .debug_frame   0x0000000000008b28       0x58 /home/src/arm/target/bin/../lib/gcc/arm-none-eabi/4.8.2//libgcc.a(bpabi.o)
 .debug_frame   0x0000000000008b80       0x38 /home/src/arm/target/bin/../lib/gcc/arm-none-eabi/4.8.2//libgcc.a(_divdi3.o)
 .debug_frame   0x0000000000008bb8       0x38 /home/src/arm/target/bin/../lib/gcc/arm-none-eabi/4.8.2//libgcc.a(_udivdi3.o)

.debug_ranges   0x0000000000000000      0xb68
 .debug_ranges  0x0000000000000000       0x18 /home/leon/git/swp-report/iMX6_Platform_SDK/output/mx6sdl/lib/libsdk.a(menu.o)
 .debug_ranges  0x0000000000000018       0x30 /home/src/arm/target/bin/../arm-none-eabi/lib//libc.a(lib_a-fputc.o)
 .debug_ranges  0x0000000000000048       0x28 /home/src/arm/target/bin/../arm-none-eabi/lib//libc.a(lib_a-mallocr.o)
 .debug_ranges  0x0000000000000070       0x40 /home/src/arm/target/bin/../arm-none-eabi/lib//libc.a(lib_a-putc.o)
 .debug_ranges  0x00000000000000b0       0xb8 /home/src/arm/target/bin/../arm-none-eabi/lib//libc.a(lib_a-reallocr.o)
 .debug_ranges  0x0000000000000168       0x20 /home/src/arm/target/bin/../arm-none-eabi/lib//libc.a(lib_a-rget.o)
 .debug_ranges  0x0000000000000188       0x10 /home/src/arm/target/bin/../arm-none-eabi/lib//libc.a(lib_a-strcpy.o)
 .debug_ranges  0x0000000000000198       0x10 /home/src/arm/target/bin/../arm-none-eabi/lib//libc.a(lib_a-strlen.o)
 .debug_ranges  0x00000000000001a8       0x18 /home/src/arm/target/bin/../arm-none-eabi/lib//libc.a(lib_a-strncasecmp.o)
 .debug_ranges  0x00000000000001c0      0x120 /home/src/arm/target/bin/../arm-none-eabi/lib//libc.a(lib_a-svfprintf.o)
 .debug_ranges  0x00000000000002e0      0x200 /home/src/arm/target/bin/../arm-none-eabi/lib//libc.a(lib_a-syscalls.o)
 .debug_ranges  0x00000000000004e0      0x1a8 /home/src/arm/target/bin/../arm-none-eabi/lib//libc.a(lib_a-vfiprintf.o)
 .debug_ranges  0x0000000000000688      0x118 /home/src/arm/target/bin/../arm-none-eabi/lib//libc.a(lib_a-vfprintf.o)
 .debug_ranges  0x00000000000007a0       0x20 /home/src/arm/target/bin/../arm-none-eabi/lib//libc.a(lib_a-wbuf.o)
 .debug_ranges  0x00000000000007c0       0x20 /home/src/arm/target/bin/../arm-none-eabi/lib//libc.a(lib_a-wsetup.o)
 .debug_ranges  0x00000000000007e0       0x38 /home/src/arm/target/bin/../arm-none-eabi/lib//libc.a(lib_a-fflush.o)
 .debug_ranges  0x0000000000000818       0x68 /home/src/arm/target/bin/../arm-none-eabi/lib//libc.a(lib_a-findfp.o)
 .debug_ranges  0x0000000000000880       0x38 /home/src/arm/target/bin/../arm-none-eabi/lib//libc.a(lib_a-fputwc.o)
 .debug_ranges  0x00000000000008b8       0x20 /home/src/arm/target/bin/../arm-none-eabi/lib//libc.a(lib_a-fvwrite.o)
 .debug_ranges  0x00000000000008d8       0x48 /home/src/arm/target/bin/../arm-none-eabi/lib//libc.a(lib_a-mprec.o)
 .debug_ranges  0x0000000000000920       0x18 /home/src/arm/target/bin/../arm-none-eabi/lib//libc.a(lib_a-reent.o)
 .debug_ranges  0x0000000000000938       0x20 /home/src/arm/target/bin/../arm-none-eabi/lib//libc.a(lib_a-refill.o)
 .debug_ranges  0x0000000000000958       0x50 /home/src/arm/target/bin/../arm-none-eabi/lib//libc.a(lib_a-svfiprintf.o)
 .debug_ranges  0x00000000000009a8       0x30 /home/src/arm/target/bin/../arm-none-eabi/lib//libc.a(lib_a-callocr.o)
 .debug_ranges  0x00000000000009d8       0x18 /home/src/arm/target/bin/../arm-none-eabi/lib//libc.a(lib_a-fclose.o)
 .debug_ranges  0x00000000000009f0       0xa8 /home/src/arm/target/bin/../lib/gcc/arm-none-eabi/4.8.2//libgcc.a(_divdi3.o)
 .debug_ranges  0x0000000000000a98       0xd0 /home/src/arm/target/bin/../lib/gcc/arm-none-eabi/4.8.2//libgcc.a(_udivdi3.o)

.debug_loc      0x0000000000000000    0x15569
 .debug_loc     0x0000000000000000      0x114 /home/src/arm/target/bin/../arm-none-eabi/lib//libc.a(lib_a-assert.o)
 .debug_loc     0x0000000000000114       0x41 /home/src/arm/target/bin/../arm-none-eabi/lib//libc.a(lib_a-bzero.o)
 .debug_loc     0x0000000000000155       0x6e /home/src/arm/target/bin/../arm-none-eabi/lib//libc.a(lib_a-fiprintf.o)
 .debug_loc     0x00000000000001c3       0xd9 /home/src/arm/target/bin/../arm-none-eabi/lib//libc.a(lib_a-fputc.o)
 .debug_loc     0x000000000000029c       0xa2 /home/src/arm/target/bin/../arm-none-eabi/lib//libc.a(lib_a-init.o)
 .debug_loc     0x000000000000033e       0x58 /home/src/arm/target/bin/../arm-none-eabi/lib//libc.a(lib_a-malloc.o)
 .debug_loc     0x0000000000000396      0xcee /home/src/arm/target/bin/../arm-none-eabi/lib//libc.a(lib_a-mallocr.o)
 .debug_loc     0x0000000000001084      0x1c1 /home/src/arm/target/bin/../arm-none-eabi/lib//libc.a(lib_a-memcpy-stub.o)
 .debug_loc     0x0000000000001245      0x175 /home/src/arm/target/bin/../arm-none-eabi/lib//libc.a(lib_a-memset.o)
 .debug_loc     0x00000000000013ba       0x34 /home/src/arm/target/bin/../arm-none-eabi/lib//libc.a(lib_a-printf.o)
 .debug_loc     0x00000000000013ee      0x1c5 /home/src/arm/target/bin/../arm-none-eabi/lib//libc.a(lib_a-putc.o)
 .debug_loc     0x00000000000015b3       0x58 /home/src/arm/target/bin/../arm-none-eabi/lib//libc.a(lib_a-realloc.o)
 .debug_loc     0x000000000000160b      0xed3 /home/src/arm/target/bin/../arm-none-eabi/lib//libc.a(lib_a-reallocr.o)
 .debug_loc     0x00000000000024de       0xb0 /home/src/arm/target/bin/../arm-none-eabi/lib//libc.a(lib_a-rget.o)
 .debug_loc     0x000000000000258e       0x66 /home/src/arm/target/bin/../arm-none-eabi/lib//libc.a(lib_a-sbrkr.o)
 .debug_loc     0x00000000000025f4       0x79 /home/src/arm/target/bin/../arm-none-eabi/lib//libc.a(lib_a-sprintf.o)
 .debug_loc     0x000000000000266d       0xf8 /home/src/arm/target/bin/../arm-none-eabi/lib//libc.a(lib_a-strcat.o)
 .debug_loc     0x0000000000002765       0x21 /home/src/arm/target/bin/../arm-none-eabi/lib//libc.a(lib_a-strcpy.o)
 .debug_loc     0x0000000000002786       0x21 /home/src/arm/target/bin/../arm-none-eabi/lib//libc.a(lib_a-strlen.o)
 .debug_loc     0x00000000000027a7      0x1b1 /home/src/arm/target/bin/../arm-none-eabi/lib//libc.a(lib_a-strncasecmp.o)
 .debug_loc     0x0000000000002958       0x61 /home/src/arm/target/bin/../arm-none-eabi/lib//libc.a(lib_a-strtok.o)
 .debug_loc     0x00000000000029b9      0x257 /home/src/arm/target/bin/../arm-none-eabi/lib//libc.a(lib_a-strtok_r.o)
 .debug_loc     0x0000000000002c10     0x215f /home/src/arm/target/bin/../arm-none-eabi/lib//libc.a(lib_a-svfprintf.o)
 .debug_loc     0x0000000000004d6f     0x135b /home/src/arm/target/bin/../arm-none-eabi/lib//libc.a(lib_a-syscalls.o)
 .debug_loc     0x00000000000060ca     0x1c73 /home/src/arm/target/bin/../arm-none-eabi/lib//libc.a(lib_a-vfiprintf.o)
 .debug_loc     0x0000000000007d3d     0x233a /home/src/arm/target/bin/../arm-none-eabi/lib//libc.a(lib_a-vfprintf.o)
 .debug_loc     0x000000000000a077       0xb2 /home/src/arm/target/bin/../arm-none-eabi/lib//libc.a(lib_a-vprintf.o)
 .debug_loc     0x000000000000a129      0x15a /home/src/arm/target/bin/../arm-none-eabi/lib//libc.a(lib_a-wbuf.o)
 .debug_loc     0x000000000000a283       0xd4 /home/src/arm/target/bin/../arm-none-eabi/lib//libc.a(lib_a-wsetup.o)
 .debug_loc     0x000000000000a357     0x3000 /home/src/arm/target/bin/../arm-none-eabi/lib//libc.a(lib_a-dtoa.o)
 .debug_loc     0x000000000000d357      0x2db /home/src/arm/target/bin/../arm-none-eabi/lib//libc.a(lib_a-fflush.o)
 .debug_loc     0x000000000000d632      0x2dd /home/src/arm/target/bin/../arm-none-eabi/lib//libc.a(lib_a-findfp.o)
 .debug_loc     0x000000000000d90f      0x304 /home/src/arm/target/bin/../arm-none-eabi/lib//libc.a(lib_a-fputwc.o)
 .debug_loc     0x000000000000dc13      0x3fc /home/src/arm/target/bin/../arm-none-eabi/lib//libc.a(lib_a-freer.o)
 .debug_loc     0x000000000000e00f      0x612 /home/src/arm/target/bin/../arm-none-eabi/lib//libc.a(lib_a-fvwrite.o)
 .debug_loc     0x000000000000e621      0x284 /home/src/arm/target/bin/../arm-none-eabi/lib//libc.a(lib_a-fwalk.o)
 .debug_loc     0x000000000000e8a5      0x100 /home/src/arm/target/bin/../arm-none-eabi/lib//libc.a(lib_a-locale.o)
 .debug_loc     0x000000000000e9a5      0x170 /home/src/arm/target/bin/../arm-none-eabi/lib//libc.a(lib_a-makebuf.o)
 .debug_loc     0x000000000000eb15      0x15a /home/src/arm/target/bin/../arm-none-eabi/lib//libc.a(lib_a-memchr-stub.o)
 .debug_loc     0x000000000000ec6f      0x2b0 /home/src/arm/target/bin/../arm-none-eabi/lib//libc.a(lib_a-memmove.o)
 .debug_loc     0x000000000000ef1f     0x2890 /home/src/arm/target/bin/../arm-none-eabi/lib//libc.a(lib_a-mprec.o)
 .debug_loc     0x00000000000117af      0x13e /home/src/arm/target/bin/../arm-none-eabi/lib//libc.a(lib_a-reent.o)
 .debug_loc     0x00000000000118ed      0x14e /home/src/arm/target/bin/../arm-none-eabi/lib//libc.a(lib_a-refill.o)
 .debug_loc     0x0000000000011a3b       0x84 /home/src/arm/target/bin/../arm-none-eabi/lib//libc.a(lib_a-s_fpclassify.o)
 .debug_loc     0x0000000000011abf      0x32c /home/src/arm/target/bin/../arm-none-eabi/lib//libc.a(lib_a-signal.o)
 .debug_loc     0x0000000000011deb       0x9a /home/src/arm/target/bin/../arm-none-eabi/lib//libc.a(lib_a-signalr.o)
 .debug_loc     0x0000000000011e85      0x2b5 /home/src/arm/target/bin/../arm-none-eabi/lib//libc.a(lib_a-stdio.o)
 .debug_loc     0x000000000001213a     0x1221 /home/src/arm/target/bin/../arm-none-eabi/lib//libc.a(lib_a-svfiprintf.o)
 .debug_loc     0x000000000001335b      0x253 /home/src/arm/target/bin/../arm-none-eabi/lib//libc.a(lib_a-wcrtomb.o)
 .debug_loc     0x00000000000135ae      0x116 /home/src/arm/target/bin/../arm-none-eabi/lib//libc.a(lib_a-wctomb_r.o)
 .debug_loc     0x00000000000136c4       0xa5 /home/src/arm/target/bin/../arm-none-eabi/lib//libc.a(lib_a-writer.o)
 .debug_loc     0x0000000000013769      0x20c /home/src/arm/target/bin/../arm-none-eabi/lib//libc.a(lib_a-callocr.o)
 .debug_loc     0x0000000000013975       0x4d /home/src/arm/target/bin/../arm-none-eabi/lib//libc.a(lib_a-closer.o)
 .debug_loc     0x00000000000139c2      0x163 /home/src/arm/target/bin/../arm-none-eabi/lib//libc.a(lib_a-fclose.o)
 .debug_loc     0x0000000000013b25       0x79 /home/src/arm/target/bin/../arm-none-eabi/lib//libc.a(lib_a-fstatr.o)
 .debug_loc     0x0000000000013b9e       0x4d /home/src/arm/target/bin/../arm-none-eabi/lib//libc.a(lib_a-isattyr.o)
 .debug_loc     0x0000000000013beb       0xa5 /home/src/arm/target/bin/../arm-none-eabi/lib//libc.a(lib_a-lseekr.o)
 .debug_loc     0x0000000000013c90       0xa5 /home/src/arm/target/bin/../arm-none-eabi/lib//libc.a(lib_a-readr.o)
 .debug_loc     0x0000000000013d35       0xa0 /home/src/arm/target/bin/../lib/gcc/arm-none-eabi/4.8.2//libgcc.a(bpabi.o)
 .debug_loc     0x0000000000013dd5      0xb31 /home/src/arm/target/bin/../lib/gcc/arm-none-eabi/4.8.2//libgcc.a(_divdi3.o)
 .debug_loc     0x0000000000014906      0xc63 /home/src/arm/target/bin/../lib/gcc/arm-none-eabi/4.8.2//libgcc.a(_udivdi3.o)

Cross Reference Table

Symbol                                            File
AT45DB321D_id                                     /home/leon/git/swp-report/iMX6_Platform_SDK/output/mx6sdl/obds/smart_device_rev_a/obj/apps/obds/src/tests/imx_spi_nor_test.o
Audio_ChannelCount                                /home/leon/git/swp-report/iMX6_Platform_SDK/output/mx6sdl/lib/libsdk.a(hdmi_tx_audio.o)
CPU_Tests                                         /home/leon/git/swp-report/iMX6_Platform_SDK/output/mx6sdl/obds/smart_device_rev_a/obj/apps/obds/src/obds.o
DA9053_Read                                       /home/leon/git/swp-report/iMX6_Platform_SDK/output/mx6sdl/obds/smart_device_rev_a/obj/apps/obds/src/tests/touch_screen.o
DA9053_Write                                      /home/leon/git/swp-report/iMX6_Platform_SDK/output/mx6sdl/obds/smart_device_rev_a/obj/apps/obds/src/tests/touch_screen.o
Delay4Reload                                      /home/leon/git/swp-report/iMX6_Platform_SDK/output/mx6sdl/lib/libsdk.a(ocotp.o)
IRQ_HDLR                                          /home/leon/git/swp-report/iMX6_Platform_SDK/output/mx6sdl/lib/libsdk.a(interrupt.o)
                                                  /home/leon/git/swp-report/iMX6_Platform_SDK/output/mx6sdl/lib/libsdk.a(vectors.o)
KSZ9021RN_test_main                               /home/leon/git/swp-report/iMX6_Platform_SDK/output/mx6sdl/obds/smart_device_rev_a/obj/apps/obds/src/tests/enet_mx6dldq_test.o
M25P32_id                                         /home/leon/git/swp-report/iMX6_Platform_SDK/output/mx6sdl/obds/smart_device_rev_a/obj/apps/obds/src/tests/imx_spi_nor_test.o
MenuList_All_Tests                                /home/leon/git/swp-report/iMX6_Platform_SDK/output/mx6sdl/obds/smart_device_rev_a/obj/apps/obds/src/obds.o
Menu_Commands                                     /home/leon/git/swp-report/iMX6_Platform_SDK/output/mx6sdl/obds/smart_device_rev_a/obj/apps/obds/src/obds.o
PLL1_OUTPUT                                       /home/leon/git/swp-report/iMX6_Platform_SDK/output/mx6sdl/lib/libsdk.a(ccm_pll.o)
PLL2_OUTPUT                                       /home/leon/git/swp-report/iMX6_Platform_SDK/output/mx6sdl/lib/libsdk.a(ccm_pll.o)
PLL3_OUTPUT                                       /home/leon/git/swp-report/iMX6_Platform_SDK/output/mx6sdl/lib/libsdk.a(ccm_pll.o)
PLL4_OUTPUT                                       /home/leon/git/swp-report/iMX6_Platform_SDK/output/mx6sdl/lib/libsdk.a(ccm_pll.o)
PLL5_OUTPUT                                       /home/leon/git/swp-report/iMX6_Platform_SDK/output/mx6sdl/lib/libsdk.a(ccm_pll.o)
SDHC_UHSI_mode                                    /home/leon/git/swp-report/iMX6_Platform_SDK/output/mx6sdl/obds/smart_device_rev_a/obj/apps/obds/src/tests/mmcsd_test.o
SGTL5000PowerUp_and_clockinit                     /home/leon/git/swp-report/iMX6_Platform_SDK/output/mx6sdl/lib/libboard_smart_device_rev_a.a(board_audio.o)
                                                  /home/leon/git/swp-report/iMX6_Platform_SDK/output/mx6sdl/lib/libsdk.a(sgtl5000.o)
WM8958_DAC_configure                              /home/leon/git/swp-report/iMX6_Platform_SDK/output/mx6sdl/lib/libsdk.a(wm8958_dac.o)
WM8958_DAC_deinit                                 /home/leon/git/swp-report/iMX6_Platform_SDK/output/mx6sdl/lib/libsdk.a(wm8958_dac.o)
WM8958_DAC_init                                   /home/leon/git/swp-report/iMX6_Platform_SDK/output/mx6sdl/lib/libsdk.a(wm8958_dac.o)
WM8958_dump                                       /home/leon/git/swp-report/iMX6_Platform_SDK/output/mx6sdl/lib/libsdk.a(wm8958_dac.o)
WM8962_DAC_configure                              /home/leon/git/swp-report/iMX6_Platform_SDK/output/mx6sdl/lib/libsdk.a(wm8962.o)
WM8962_DAC_deinit                                 /home/leon/git/swp-report/iMX6_Platform_SDK/output/mx6sdl/lib/libsdk.a(wm8962.o)
WM8962_DAC_init                                   /home/leon/git/swp-report/iMX6_Platform_SDK/output/mx6sdl/lib/libsdk.a(wm8962.o)
WM8962_dump                                       /home/leon/git/swp-report/iMX6_Platform_SDK/output/mx6sdl/lib/libsdk.a(wm8962.o)
_Balloc                                           /home/src/arm/target/bin/../arm-none-eabi/lib//libc.a(lib_a-mprec.o)
                                                  /home/src/arm/target/bin/../arm-none-eabi/lib//libc.a(lib_a-dtoa.o)
_Bfree                                            /home/src/arm/target/bin/../arm-none-eabi/lib//libc.a(lib_a-mprec.o)
                                                  /home/src/arm/target/bin/../arm-none-eabi/lib//libc.a(lib_a-dtoa.o)
_ITM_deregisterTMCloneTable                       /home/src/arm/target/bin/../lib/gcc/arm-none-eabi/4.8.2//crtbegin.o
_ITM_registerTMCloneTable                         /home/src/arm/target/bin/../lib/gcc/arm-none-eabi/4.8.2//crtbegin.o
_Jv_RegisterClasses                               /home/src/arm/target/bin/../lib/gcc/arm-none-eabi/4.8.2//crtbegin.o
_PathLocale                                       /home/src/arm/target/bin/../arm-none-eabi/lib//libc.a(lib_a-locale.o)
__TMC_END__                                       /home/src/arm/target/bin/../lib/gcc/arm-none-eabi/4.8.2//crtend.o
                                                  /home/src/arm/target/bin/../lib/gcc/arm-none-eabi/4.8.2//crtbegin.o
__adddf3                                          /home/src/arm/target/bin/../lib/gcc/arm-none-eabi/4.8.2//libgcc.a(_arm_addsubdf3.o)
__aeabi_cdcmpeq                                   /home/src/arm/target/bin/../lib/gcc/arm-none-eabi/4.8.2//libgcc.a(_arm_cmpdf2.o)
__aeabi_cdcmple                                   /home/src/arm/target/bin/../lib/gcc/arm-none-eabi/4.8.2//libgcc.a(_arm_cmpdf2.o)
__aeabi_cdrcmple                                  /home/src/arm/target/bin/../lib/gcc/arm-none-eabi/4.8.2//libgcc.a(_arm_cmpdf2.o)
__aeabi_d2iz                                      /home/src/arm/target/bin/../lib/gcc/arm-none-eabi/4.8.2//libgcc.a(_arm_fixdfsi.o)
                                                  /home/src/arm/target/bin/../arm-none-eabi/lib//libc.a(lib_a-dtoa.o)
__aeabi_dadd                                      /home/src/arm/target/bin/../lib/gcc/arm-none-eabi/4.8.2//libgcc.a(_arm_addsubdf3.o)
                                                  /home/src/arm/target/bin/../arm-none-eabi/lib//libc.a(lib_a-dtoa.o)
__aeabi_dcmpeq                                    /home/src/arm/target/bin/../lib/gcc/arm-none-eabi/4.8.2//libgcc.a(_arm_cmpdf2.o)
                                                  /home/src/arm/target/bin/../arm-none-eabi/lib//libc.a(lib_a-dtoa.o)
                                                  /home/src/arm/target/bin/../arm-none-eabi/lib//libc.a(lib_a-vfprintf.o)
                                                  /home/src/arm/target/bin/../arm-none-eabi/lib//libc.a(lib_a-svfprintf.o)
__aeabi_dcmpge                                    /home/src/arm/target/bin/../lib/gcc/arm-none-eabi/4.8.2//libgcc.a(_arm_cmpdf2.o)
                                                  /home/src/arm/target/bin/../arm-none-eabi/lib//libc.a(lib_a-dtoa.o)
__aeabi_dcmpgt                                    /home/src/arm/target/bin/../lib/gcc/arm-none-eabi/4.8.2//libgcc.a(_arm_cmpdf2.o)
                                                  /home/src/arm/target/bin/../arm-none-eabi/lib//libc.a(lib_a-dtoa.o)
__aeabi_dcmple                                    /home/src/arm/target/bin/../lib/gcc/arm-none-eabi/4.8.2//libgcc.a(_arm_cmpdf2.o)
__aeabi_dcmplt                                    /home/src/arm/target/bin/../lib/gcc/arm-none-eabi/4.8.2//libgcc.a(_arm_cmpdf2.o)
                                                  /home/src/arm/target/bin/../arm-none-eabi/lib//libc.a(lib_a-dtoa.o)
                                                  /home/src/arm/target/bin/../arm-none-eabi/lib//libc.a(lib_a-vfprintf.o)
                                                  /home/src/arm/target/bin/../arm-none-eabi/lib//libc.a(lib_a-svfprintf.o)
__aeabi_ddiv                                      /home/src/arm/target/bin/../lib/gcc/arm-none-eabi/4.8.2//libgcc.a(_arm_muldivdf3.o)
                                                  /home/src/arm/target/bin/../arm-none-eabi/lib//libc.a(lib_a-mprec.o)
                                                  /home/src/arm/target/bin/../arm-none-eabi/lib//libc.a(lib_a-dtoa.o)
__aeabi_dmul                                      /home/src/arm/target/bin/../lib/gcc/arm-none-eabi/4.8.2//libgcc.a(_arm_muldivdf3.o)
                                                  /home/src/arm/target/bin/../arm-none-eabi/lib//libc.a(lib_a-mprec.o)
                                                  /home/src/arm/target/bin/../arm-none-eabi/lib//libc.a(lib_a-dtoa.o)
__aeabi_drsub                                     /home/src/arm/target/bin/../lib/gcc/arm-none-eabi/4.8.2//libgcc.a(_arm_addsubdf3.o)
__aeabi_dsub                                      /home/src/arm/target/bin/../lib/gcc/arm-none-eabi/4.8.2//libgcc.a(_arm_addsubdf3.o)
                                                  /home/src/arm/target/bin/../arm-none-eabi/lib//libc.a(lib_a-dtoa.o)
__aeabi_f2d                                       /home/src/arm/target/bin/../lib/gcc/arm-none-eabi/4.8.2//libgcc.a(_arm_addsubdf3.o)
__aeabi_i2d                                       /home/src/arm/target/bin/../lib/gcc/arm-none-eabi/4.8.2//libgcc.a(_arm_addsubdf3.o)
                                                  /home/src/arm/target/bin/../arm-none-eabi/lib//libc.a(lib_a-dtoa.o)
__aeabi_idiv                                      /home/src/arm/target/bin/../lib/gcc/arm-none-eabi/4.8.2//libgcc.a(_divsi3.o)
                                                  /home/src/arm/target/bin/../arm-none-eabi/lib//libc.a(lib_a-fvwrite.o)
                                                  /home/leon/git/swp-report/iMX6_Platform_SDK/output/mx6sdl/lib/libsdk.a(ipu_ic.o)
                                                  /home/leon/git/swp-report/iMX6_Platform_SDK/output/mx6sdl/lib/libsdk.a(usdhc_host.o)
                                                  /home/leon/git/swp-report/iMX6_Platform_SDK/output/mx6sdl/lib/libsdk.a(ipu_common.o)
__aeabi_idiv0                                     /home/src/arm/target/bin/../lib/gcc/arm-none-eabi/4.8.2//libgcc.a(_dvmd_tls.o)
                                                  /home/src/arm/target/bin/../lib/gcc/arm-none-eabi/4.8.2//libgcc.a(_divsi3.o)
                                                  /home/src/arm/target/bin/../lib/gcc/arm-none-eabi/4.8.2//libgcc.a(_udivsi3.o)
__aeabi_idivmod                                   /home/src/arm/target/bin/../lib/gcc/arm-none-eabi/4.8.2//libgcc.a(_divsi3.o)
                                                  /home/leon/git/swp-report/iMX6_Platform_SDK/output/mx6sdl/lib/libsdk.a(usdhc_host.o)
                                                  /home/leon/git/swp-report/iMX6_Platform_SDK/output/mx6sdl/lib/libsdk.a(ipu_common.o)
__aeabi_l2d                                       /home/src/arm/target/bin/../lib/gcc/arm-none-eabi/4.8.2//libgcc.a(_arm_addsubdf3.o)
__aeabi_ldiv0                                     /home/src/arm/target/bin/../lib/gcc/arm-none-eabi/4.8.2//libgcc.a(_dvmd_tls.o)
                                                  /home/src/arm/target/bin/../lib/gcc/arm-none-eabi/4.8.2//libgcc.a(_aeabi_uldivmod.o)
__aeabi_ui2d                                      /home/src/arm/target/bin/../lib/gcc/arm-none-eabi/4.8.2//libgcc.a(_arm_addsubdf3.o)
                                                  /home/src/arm/target/bin/../arm-none-eabi/lib//libc.a(lib_a-dtoa.o)
__aeabi_uidiv                                     /home/src/arm/target/bin/../lib/gcc/arm-none-eabi/4.8.2//libgcc.a(_udivsi3.o)
                                                  /home/src/arm/target/bin/../lib/gcc/arm-none-eabi/4.8.2//libgcc.a(_udivdi3.o)
                                                  /home/src/arm/target/bin/../lib/gcc/arm-none-eabi/4.8.2//libgcc.a(_divdi3.o)
                                                  /home/src/arm/target/bin/../arm-none-eabi/lib//libc.a(lib_a-dtoa.o)
                                                  /home/leon/git/swp-report/iMX6_Platform_SDK/output/mx6sdl/lib/libsdk.a(imx_i2c.o)
                                                  /home/leon/git/swp-report/iMX6_Platform_SDK/output/mx6sdl/lib/libsdk.a(imx-ssi.o)
                                                  /home/leon/git/swp-report/iMX6_Platform_SDK/output/mx6sdl/lib/libsdk.a(ccm_pll.o)
                                                  /home/leon/git/swp-report/iMX6_Platform_SDK/output/mx6sdl/obds/smart_device_rev_a/obj/sdk/drivers/spi/test/imx_spi_nor_atmel.o
__aeabi_uidivmod                                  /home/src/arm/target/bin/../lib/gcc/arm-none-eabi/4.8.2//libgcc.a(_udivsi3.o)
                                                  /home/src/arm/target/bin/../lib/gcc/arm-none-eabi/4.8.2//libgcc.a(_udivdi3.o)
                                                  /home/src/arm/target/bin/../lib/gcc/arm-none-eabi/4.8.2//libgcc.a(_divdi3.o)
                                                  /home/leon/git/swp-report/iMX6_Platform_SDK/output/mx6sdl/obds/smart_device_rev_a/obj/sdk/drivers/spi/test/imx_spi_nor_atmel.o
__aeabi_ul2d                                      /home/src/arm/target/bin/../lib/gcc/arm-none-eabi/4.8.2//libgcc.a(_arm_addsubdf3.o)
__aeabi_uldivmod                                  /home/src/arm/target/bin/../lib/gcc/arm-none-eabi/4.8.2//libgcc.a(_aeabi_uldivmod.o)
                                                  /home/leon/git/swp-report/iMX6_Platform_SDK/output/mx6sdl/lib/libsdk.a(timer.o)
__any_on                                          /home/src/arm/target/bin/../arm-none-eabi/lib//libc.a(lib_a-mprec.o)
__ascii_wctomb                                    /home/src/arm/target/bin/../arm-none-eabi/lib//libc.a(lib_a-wctomb_r.o)
__assert                                          /home/src/arm/target/bin/../arm-none-eabi/lib//libc.a(lib_a-assert.o)
__assert_func                                     /home/src/arm/target/bin/../arm-none-eabi/lib//libc.a(lib_a-assert.o)
                                                  /home/leon/git/swp-report/iMX6_Platform_SDK/output/mx6sdl/lib/libboard_smart_device_rev_a.a(usdhc_iomux_config.o)
                                                  /home/leon/git/swp-report/iMX6_Platform_SDK/output/mx6sdl/lib/libboard_smart_device_rev_a.a(uart_iomux_config.o)
                                                  /home/leon/git/swp-report/iMX6_Platform_SDK/output/mx6sdl/lib/libboard_smart_device_rev_a.a(ipu_iomux_config.o)
                                                  /home/leon/git/swp-report/iMX6_Platform_SDK/output/mx6sdl/lib/libboard_smart_device_rev_a.a(i2c_iomux_config.o)
                                                  /home/leon/git/swp-report/iMX6_Platform_SDK/output/mx6sdl/lib/libboard_smart_device_rev_a.a(ecspi_iomux_config.o)
                                                  /home/leon/git/swp-report/iMX6_Platform_SDK/output/mx6sdl/lib/libsdk.a(gic.o)
__b2d                                             /home/src/arm/target/bin/../arm-none-eabi/lib//libc.a(lib_a-mprec.o)
__bss_end__                                       /home/leon/git/swp-report/iMX6_Platform_SDK/output/mx6sdl/lib/libsdk.a(startup.o)
__bss_start__                                     /home/leon/git/swp-report/iMX6_Platform_SDK/output/mx6sdl/lib/libsdk.a(startup.o)
__clzsi2                                          /home/src/arm/target/bin/../lib/gcc/arm-none-eabi/4.8.2//libgcc.a(_clzsi2.o)
                                                  /home/src/arm/target/bin/../lib/gcc/arm-none-eabi/4.8.2//libgcc.a(_udivdi3.o)
                                                  /home/src/arm/target/bin/../lib/gcc/arm-none-eabi/4.8.2//libgcc.a(_divdi3.o)
__cmpdf2                                          /home/src/arm/target/bin/../lib/gcc/arm-none-eabi/4.8.2//libgcc.a(_arm_cmpdf2.o)
__copybits                                        /home/src/arm/target/bin/../arm-none-eabi/lib//libc.a(lib_a-mprec.o)
__ctype_ptr__                                     /home/src/arm/target/bin/../arm-none-eabi/lib//libc.a(lib_a-ctype_.o)
                                                  /home/src/arm/target/bin/../arm-none-eabi/lib//libc.a(lib_a-strncasecmp.o)
__d2b                                             /home/src/arm/target/bin/../arm-none-eabi/lib//libc.a(lib_a-mprec.o)
                                                  /home/src/arm/target/bin/../arm-none-eabi/lib//libc.a(lib_a-dtoa.o)
__deregister_frame_info                           /home/src/arm/target/bin/../lib/gcc/arm-none-eabi/4.8.2//crtbegin.o
__divdf3                                          /home/src/arm/target/bin/../lib/gcc/arm-none-eabi/4.8.2//libgcc.a(_arm_muldivdf3.o)
__divdi3                                          /home/src/arm/target/bin/../lib/gcc/arm-none-eabi/4.8.2//libgcc.a(_divdi3.o)
                                                  /home/src/arm/target/bin/../lib/gcc/arm-none-eabi/4.8.2//libgcc.a(bpabi.o)
__divsi3                                          /home/src/arm/target/bin/../lib/gcc/arm-none-eabi/4.8.2//libgcc.a(_divsi3.o)
__dso_handle                                      /home/src/arm/target/bin/../lib/gcc/arm-none-eabi/4.8.2//crtbegin.o
__eqdf2                                           /home/src/arm/target/bin/../lib/gcc/arm-none-eabi/4.8.2//libgcc.a(_arm_cmpdf2.o)
__errno                                           /home/src/arm/target/bin/../arm-none-eabi/lib//libc.a(lib_a-errno.o)
                                                  /home/src/arm/target/bin/../arm-none-eabi/lib//libc.a(lib_a-syscalls.o)
__extendsfdf2                                     /home/src/arm/target/bin/../lib/gcc/arm-none-eabi/4.8.2//libgcc.a(_arm_addsubdf3.o)
__fixdfsi                                         /home/src/arm/target/bin/../lib/gcc/arm-none-eabi/4.8.2//libgcc.a(_arm_fixdfsi.o)
__floatdidf                                       /home/src/arm/target/bin/../lib/gcc/arm-none-eabi/4.8.2//libgcc.a(_arm_addsubdf3.o)
__floatsidf                                       /home/src/arm/target/bin/../lib/gcc/arm-none-eabi/4.8.2//libgcc.a(_arm_addsubdf3.o)
__floatundidf                                     /home/src/arm/target/bin/../lib/gcc/arm-none-eabi/4.8.2//libgcc.a(_arm_addsubdf3.o)
__floatunsidf                                     /home/src/arm/target/bin/../lib/gcc/arm-none-eabi/4.8.2//libgcc.a(_arm_addsubdf3.o)
__fp_lock_all                                     /home/src/arm/target/bin/../arm-none-eabi/lib//libc.a(lib_a-findfp.o)
__fp_unlock_all                                   /home/src/arm/target/bin/../arm-none-eabi/lib//libc.a(lib_a-findfp.o)
__fpclassifyd                                     /home/src/arm/target/bin/../arm-none-eabi/lib//libc.a(lib_a-s_fpclassify.o)
                                                  /home/src/arm/target/bin/../arm-none-eabi/lib//libc.a(lib_a-vfprintf.o)
                                                  /home/src/arm/target/bin/../arm-none-eabi/lib//libc.a(lib_a-svfprintf.o)
__gedf2                                           /home/src/arm/target/bin/../lib/gcc/arm-none-eabi/4.8.2//libgcc.a(_arm_cmpdf2.o)
__gnu_ldivmod_helper                              /home/src/arm/target/bin/../lib/gcc/arm-none-eabi/4.8.2//libgcc.a(bpabi.o)
__gnu_uldivmod_helper                             /home/src/arm/target/bin/../lib/gcc/arm-none-eabi/4.8.2//libgcc.a(bpabi.o)
                                                  /home/src/arm/target/bin/../lib/gcc/arm-none-eabi/4.8.2//libgcc.a(_aeabi_uldivmod.o)
__gtdf2                                           /home/src/arm/target/bin/../lib/gcc/arm-none-eabi/4.8.2//libgcc.a(_arm_cmpdf2.o)
__hab_data                                        /home/leon/git/swp-report/iMX6_Platform_SDK/output/mx6sdl/obds/smart_device_rev_a/obj/apps/common/ivt.o
__hi0bits                                         /home/src/arm/target/bin/../arm-none-eabi/lib//libc.a(lib_a-mprec.o)
                                                  /home/src/arm/target/bin/../arm-none-eabi/lib//libc.a(lib_a-dtoa.o)
__i2b                                             /home/src/arm/target/bin/../arm-none-eabi/lib//libc.a(lib_a-mprec.o)
                                                  /home/src/arm/target/bin/../arm-none-eabi/lib//libc.a(lib_a-dtoa.o)
__init_array_end                                  /home/src/arm/target/bin/../arm-none-eabi/lib//libc.a(lib_a-init.o)
__init_array_start                                /home/src/arm/target/bin/../arm-none-eabi/lib//libc.a(lib_a-init.o)
__l1_page_table_start                             /home/leon/git/swp-report/iMX6_Platform_SDK/output/mx6sdl/lib/libsdk.a(mmu.o)
__ledf2                                           /home/src/arm/target/bin/../lib/gcc/arm-none-eabi/4.8.2//libgcc.a(_arm_cmpdf2.o)
__libc_init_array                                 /home/src/arm/target/bin/../arm-none-eabi/lib//libc.a(lib_a-init.o)
                                                  /home/leon/git/swp-report/iMX6_Platform_SDK/output/mx6sdl/lib/libsdk.a(startup.o)
__lo0bits                                         /home/src/arm/target/bin/../arm-none-eabi/lib//libc.a(lib_a-mprec.o)
__locale_charset                                  /home/src/arm/target/bin/../arm-none-eabi/lib//libc.a(lib_a-locale.o)
                                                  /home/src/arm/target/bin/../arm-none-eabi/lib//libc.a(lib_a-wctomb_r.o)
                                                  /home/src/arm/target/bin/../arm-none-eabi/lib//libc.a(lib_a-wcrtomb.o)
__locale_cjk_lang                                 /home/src/arm/target/bin/../arm-none-eabi/lib//libc.a(lib_a-locale.o)
__locale_mb_cur_max                               /home/src/arm/target/bin/../arm-none-eabi/lib//libc.a(lib_a-locale.o)
                                                  /home/src/arm/target/bin/../arm-none-eabi/lib//libc.a(lib_a-fputwc.o)
__locale_msgcharset                               /home/src/arm/target/bin/../arm-none-eabi/lib//libc.a(lib_a-locale.o)
__lshift                                          /home/src/arm/target/bin/../arm-none-eabi/lib//libc.a(lib_a-mprec.o)
                                                  /home/src/arm/target/bin/../arm-none-eabi/lib//libc.a(lib_a-dtoa.o)
__ltdf2                                           /home/src/arm/target/bin/../lib/gcc/arm-none-eabi/4.8.2//libgcc.a(_arm_cmpdf2.o)
__malloc_av_                                      /home/src/arm/target/bin/../arm-none-eabi/lib//libc.a(lib_a-mallocr.o)
                                                  /home/src/arm/target/bin/../arm-none-eabi/lib//libc.a(lib_a-freer.o)
                                                  /home/src/arm/target/bin/../arm-none-eabi/lib//libc.a(lib_a-reallocr.o)
__malloc_current_mallinfo                         /home/src/arm/target/bin/../arm-none-eabi/lib//libc.a(lib_a-mallocr.o)
                                                  /home/src/arm/target/bin/../arm-none-eabi/lib//libc.a(lib_a-freer.o)
__malloc_lock                                     /home/src/arm/target/bin/../arm-none-eabi/lib//libc.a(lib_a-mlock.o)
                                                  /home/src/arm/target/bin/../arm-none-eabi/lib//libc.a(lib_a-freer.o)
                                                  /home/src/arm/target/bin/../arm-none-eabi/lib//libc.a(lib_a-reallocr.o)
                                                  /home/src/arm/target/bin/../arm-none-eabi/lib//libc.a(lib_a-mallocr.o)
__malloc_max_sbrked_mem                           /home/src/arm/target/bin/../arm-none-eabi/lib//libc.a(lib_a-mallocr.o)
__malloc_max_total_mem                            /home/src/arm/target/bin/../arm-none-eabi/lib//libc.a(lib_a-mallocr.o)
__malloc_sbrk_base                                /home/src/arm/target/bin/../arm-none-eabi/lib//libc.a(lib_a-mallocr.o)
                                                  /home/src/arm/target/bin/../arm-none-eabi/lib//libc.a(lib_a-freer.o)
__malloc_top_pad                                  /home/src/arm/target/bin/../arm-none-eabi/lib//libc.a(lib_a-mallocr.o)
                                                  /home/src/arm/target/bin/../arm-none-eabi/lib//libc.a(lib_a-freer.o)
__malloc_trim_threshold                           /home/src/arm/target/bin/../arm-none-eabi/lib//libc.a(lib_a-mallocr.o)
                                                  /home/src/arm/target/bin/../arm-none-eabi/lib//libc.a(lib_a-freer.o)
__malloc_unlock                                   /home/src/arm/target/bin/../arm-none-eabi/lib//libc.a(lib_a-mlock.o)
                                                  /home/src/arm/target/bin/../arm-none-eabi/lib//libc.a(lib_a-freer.o)
                                                  /home/src/arm/target/bin/../arm-none-eabi/lib//libc.a(lib_a-reallocr.o)
                                                  /home/src/arm/target/bin/../arm-none-eabi/lib//libc.a(lib_a-mallocr.o)
__mb_cur_max                                      /home/src/arm/target/bin/../arm-none-eabi/lib//libc.a(lib_a-locale.o)
__mcmp                                            /home/src/arm/target/bin/../arm-none-eabi/lib//libc.a(lib_a-mprec.o)
                                                  /home/src/arm/target/bin/../arm-none-eabi/lib//libc.a(lib_a-dtoa.o)
__mdiff                                           /home/src/arm/target/bin/../arm-none-eabi/lib//libc.a(lib_a-mprec.o)
                                                  /home/src/arm/target/bin/../arm-none-eabi/lib//libc.a(lib_a-dtoa.o)
__mlocale_changed                                 /home/src/arm/target/bin/../arm-none-eabi/lib//libc.a(lib_a-locale.o)
__mprec_bigtens                                   /home/src/arm/target/bin/../arm-none-eabi/lib//libc.a(lib_a-mprec.o)
                                                  /home/src/arm/target/bin/../arm-none-eabi/lib//libc.a(lib_a-dtoa.o)
__mprec_tens                                      /home/src/arm/target/bin/../arm-none-eabi/lib//libc.a(lib_a-mprec.o)
                                                  /home/src/arm/target/bin/../arm-none-eabi/lib//libc.a(lib_a-dtoa.o)
__mprec_tinytens                                  /home/src/arm/target/bin/../arm-none-eabi/lib//libc.a(lib_a-mprec.o)
__muldf3                                          /home/src/arm/target/bin/../lib/gcc/arm-none-eabi/4.8.2//libgcc.a(_arm_muldivdf3.o)
__multadd                                         /home/src/arm/target/bin/../arm-none-eabi/lib//libc.a(lib_a-mprec.o)
                                                  /home/src/arm/target/bin/../arm-none-eabi/lib//libc.a(lib_a-dtoa.o)
__multiply                                        /home/src/arm/target/bin/../arm-none-eabi/lib//libc.a(lib_a-mprec.o)
                                                  /home/src/arm/target/bin/../arm-none-eabi/lib//libc.a(lib_a-dtoa.o)
__nedf2                                           /home/src/arm/target/bin/../lib/gcc/arm-none-eabi/4.8.2//libgcc.a(_arm_cmpdf2.o)
__nlocale_changed                                 /home/src/arm/target/bin/../arm-none-eabi/lib//libc.a(lib_a-locale.o)
__pow5mult                                        /home/src/arm/target/bin/../arm-none-eabi/lib//libc.a(lib_a-mprec.o)
                                                  /home/src/arm/target/bin/../arm-none-eabi/lib//libc.a(lib_a-dtoa.o)
__preinit_array_end                               /home/src/arm/target/bin/../arm-none-eabi/lib//libc.a(lib_a-init.o)
__preinit_array_start                             /home/src/arm/target/bin/../arm-none-eabi/lib//libc.a(lib_a-init.o)
__ram_vectors_end                                 /home/leon/git/swp-report/iMX6_Platform_SDK/output/mx6sdl/lib/libsdk.a(startup.o)
__ram_vectors_start                               /home/leon/git/swp-report/iMX6_Platform_SDK/output/mx6sdl/lib/libsdk.a(startup.o)
__ratio                                           /home/src/arm/target/bin/../arm-none-eabi/lib//libc.a(lib_a-mprec.o)
__register_frame_info                             /home/src/arm/target/bin/../lib/gcc/arm-none-eabi/4.8.2//crtbegin.o
__s2b                                             /home/src/arm/target/bin/../arm-none-eabi/lib//libc.a(lib_a-mprec.o)
__sclose                                          /home/src/arm/target/bin/../arm-none-eabi/lib//libc.a(lib_a-stdio.o)
                                                  /home/src/arm/target/bin/../arm-none-eabi/lib//libc.a(lib_a-findfp.o)
__seofread                                        /home/src/arm/target/bin/../arm-none-eabi/lib//libc.a(lib_a-stdio.o)
__sflush_r                                        /home/src/arm/target/bin/../arm-none-eabi/lib//libc.a(lib_a-fflush.o)
                                                  /home/src/arm/target/bin/../arm-none-eabi/lib//libc.a(lib_a-refill.o)
__sfmoreglue                                      /home/src/arm/target/bin/../arm-none-eabi/lib//libc.a(lib_a-findfp.o)
__sfp                                             /home/src/arm/target/bin/../arm-none-eabi/lib//libc.a(lib_a-findfp.o)
__sfp_lock_acquire                                /home/src/arm/target/bin/../arm-none-eabi/lib//libc.a(lib_a-findfp.o)
                                                  /home/src/arm/target/bin/../arm-none-eabi/lib//libc.a(lib_a-fclose.o)
__sfp_lock_release                                /home/src/arm/target/bin/../arm-none-eabi/lib//libc.a(lib_a-findfp.o)
                                                  /home/src/arm/target/bin/../arm-none-eabi/lib//libc.a(lib_a-fclose.o)
__sfvwrite_r                                      /home/src/arm/target/bin/../arm-none-eabi/lib//libc.a(lib_a-fvwrite.o)
                                                  /home/src/arm/target/bin/../arm-none-eabi/lib//libc.a(lib_a-vfiprintf.o)
__sigtramp                                        /home/src/arm/target/bin/../arm-none-eabi/lib//libc.a(lib_a-signal.o)
__sigtramp_r                                      /home/src/arm/target/bin/../arm-none-eabi/lib//libc.a(lib_a-signal.o)
__sinit                                           /home/src/arm/target/bin/../arm-none-eabi/lib//libc.a(lib_a-findfp.o)
                                                  /home/src/arm/target/bin/../arm-none-eabi/lib//libc.a(lib_a-fclose.o)
                                                  /home/src/arm/target/bin/../arm-none-eabi/lib//libc.a(lib_a-refill.o)
                                                  /home/src/arm/target/bin/../arm-none-eabi/lib//libc.a(lib_a-fputwc.o)
                                                  /home/src/arm/target/bin/../arm-none-eabi/lib//libc.a(lib_a-fflush.o)
                                                  /home/src/arm/target/bin/../arm-none-eabi/lib//libc.a(lib_a-wsetup.o)
                                                  /home/src/arm/target/bin/../arm-none-eabi/lib//libc.a(lib_a-wbuf.o)
                                                  /home/src/arm/target/bin/../arm-none-eabi/lib//libc.a(lib_a-vfprintf.o)
                                                  /home/src/arm/target/bin/../arm-none-eabi/lib//libc.a(lib_a-vfiprintf.o)
                                                  /home/src/arm/target/bin/../arm-none-eabi/lib//libc.a(lib_a-syscalls.o)
                                                  /home/src/arm/target/bin/../arm-none-eabi/lib//libc.a(lib_a-rget.o)
                                                  /home/src/arm/target/bin/../arm-none-eabi/lib//libc.a(lib_a-putc.o)
                                                  /home/src/arm/target/bin/../arm-none-eabi/lib//libc.a(lib_a-fputc.o)
__sinit_lock_acquire                              /home/src/arm/target/bin/../arm-none-eabi/lib//libc.a(lib_a-findfp.o)
__sinit_lock_release                              /home/src/arm/target/bin/../arm-none-eabi/lib//libc.a(lib_a-findfp.o)
__smakebuf_r                                      /home/src/arm/target/bin/../arm-none-eabi/lib//libc.a(lib_a-makebuf.o)
                                                  /home/src/arm/target/bin/../arm-none-eabi/lib//libc.a(lib_a-refill.o)
                                                  /home/src/arm/target/bin/../arm-none-eabi/lib//libc.a(lib_a-wsetup.o)
__sprint_r                                        /home/src/arm/target/bin/../arm-none-eabi/lib//libc.a(lib_a-vfiprintf.o)
                                                  /home/src/arm/target/bin/../arm-none-eabi/lib//libc.a(lib_a-vfprintf.o)
__sread                                           /home/src/arm/target/bin/../arm-none-eabi/lib//libc.a(lib_a-stdio.o)
                                                  /home/src/arm/target/bin/../arm-none-eabi/lib//libc.a(lib_a-findfp.o)
__srefill_r                                       /home/src/arm/target/bin/../arm-none-eabi/lib//libc.a(lib_a-refill.o)
                                                  /home/src/arm/target/bin/../arm-none-eabi/lib//libc.a(lib_a-rget.o)
__srget                                           /home/src/arm/target/bin/../arm-none-eabi/lib//libc.a(lib_a-rget.o)
__srget_r                                         /home/src/arm/target/bin/../arm-none-eabi/lib//libc.a(lib_a-rget.o)
                                                  /home/leon/git/swp-report/iMX6_Platform_SDK/output/mx6sdl/lib/libsdk.a(usb_common.o)
                                                  /home/leon/git/swp-report/iMX6_Platform_SDK/output/mx6sdl/lib/libsdk.a(system_util.o)
                                                  /home/leon/git/swp-report/iMX6_Platform_SDK/output/mx6sdl/lib/libsdk.a(menu.o)
                                                  /home/leon/git/swp-report/iMX6_Platform_SDK/output/mx6sdl/obds/smart_device_rev_a/obj/sdk/drivers/usdhc/test/usdhc_test.o
                                                  /home/leon/git/swp-report/iMX6_Platform_SDK/output/mx6sdl/obds/smart_device_rev_a/obj/sdk/drivers/uart/test/uart_test.o
                                                  /home/leon/git/swp-report/iMX6_Platform_SDK/output/mx6sdl/obds/smart_device_rev_a/obj/sdk/drivers/ipu/test/ips_display.o
                                                  /home/leon/git/swp-report/iMX6_Platform_SDK/output/mx6sdl/obds/smart_device_rev_a/obj/sdk/drivers/epdc/test/epdc_test.o
                                                  /home/leon/git/swp-report/iMX6_Platform_SDK/output/mx6sdl/obds/smart_device_rev_a/obj/sdk/drivers/camera/test/sensor_capture.o
                                                  /home/leon/git/swp-report/iMX6_Platform_SDK/output/mx6sdl/obds/smart_device_rev_a/obj/sdk/drivers/camera/test/csi_test_mode.o
                                                  /home/leon/git/swp-report/iMX6_Platform_SDK/output/mx6sdl/obds/smart_device_rev_a/obj/sdk/drivers/camera/test/camera_test.o
                                                  /home/leon/git/swp-report/iMX6_Platform_SDK/output/mx6sdl/obds/smart_device_rev_a/obj/apps/obds/src/tests/video_dec_adv7180.o
                                                  /home/leon/git/swp-report/iMX6_Platform_SDK/output/mx6sdl/obds/smart_device_rev_a/obj/apps/obds/src/tests/touch_screen_max11801.o
                                                  /home/leon/git/swp-report/iMX6_Platform_SDK/output/mx6sdl/obds/smart_device_rev_a/obj/apps/obds/src/tests/touch_screen.o
                                                  /home/leon/git/swp-report/iMX6_Platform_SDK/output/mx6sdl/obds/smart_device_rev_a/obj/apps/obds/src/tests/touch_button_test.o
                                                  /home/leon/git/swp-report/iMX6_Platform_SDK/output/mx6sdl/obds/smart_device_rev_a/obj/apps/obds/src/tests/program_mac_address.o
                                                  /home/leon/git/swp-report/iMX6_Platform_SDK/output/mx6sdl/obds/smart_device_rev_a/obj/apps/obds/src/tests/pmic_lt3589.o
                                                  /home/leon/git/swp-report/iMX6_Platform_SDK/output/mx6sdl/obds/smart_device_rev_a/obj/apps/obds/src/tests/i2c_device_id_check_p1003_tsc.o
                                                  /home/leon/git/swp-report/iMX6_Platform_SDK/output/mx6sdl/obds/smart_device_rev_a/obj/apps/obds/src/tests/i2c_device_id_check_mma8451.o
                                                  /home/leon/git/swp-report/iMX6_Platform_SDK/output/mx6sdl/obds/smart_device_rev_a/obj/apps/obds/src/tests/i2c_device_id_check_mma8450.o
                                                  /home/leon/git/swp-report/iMX6_Platform_SDK/output/mx6sdl/obds/smart_device_rev_a/obj/apps/obds/src/tests/i2c_check_light_sensor_isl29023.o
                                                  /home/leon/git/swp-report/iMX6_Platform_SDK/output/mx6sdl/obds/smart_device_rev_a/obj/apps/obds/src/tests/gpio_led.o
                                                  /home/leon/git/swp-report/iMX6_Platform_SDK/output/mx6sdl/obds/smart_device_rev_a/obj/apps/obds/src/tests/display_test.o
                                                  /home/leon/git/swp-report/iMX6_Platform_SDK/output/mx6sdl/obds/smart_device_rev_a/obj/apps/obds/src/tests/audio_ssi_test.o
                                                  /home/leon/git/swp-report/iMX6_Platform_SDK/output/mx6sdl/obds/smart_device_rev_a/obj/apps/obds/src/tests/audio_esai_test.o
                                                  /home/leon/git/swp-report/iMX6_Platform_SDK/output/mx6sdl/obds/smart_device_rev_a/obj/apps/obds/src/tests/android_buttons_test.o
__sseek                                           /home/src/arm/target/bin/../arm-none-eabi/lib//libc.a(lib_a-stdio.o)
                                                  /home/src/arm/target/bin/../arm-none-eabi/lib//libc.a(lib_a-makebuf.o)
                                                  /home/src/arm/target/bin/../arm-none-eabi/lib//libc.a(lib_a-findfp.o)
__ssprint_r                                       /home/src/arm/target/bin/../arm-none-eabi/lib//libc.a(lib_a-svfiprintf.o)
                                                  /home/src/arm/target/bin/../arm-none-eabi/lib//libc.a(lib_a-svfprintf.o)
__stacks_start                                    /home/leon/git/swp-report/iMX6_Platform_SDK/output/mx6sdl/lib/libsdk.a(startup.o)
__start_boot_data                                 /home/leon/git/swp-report/iMX6_Platform_SDK/output/mx6sdl/obds/smart_device_rev_a/obj/apps/common/ivt.o
__strtok_r                                        /home/src/arm/target/bin/../arm-none-eabi/lib//libc.a(lib_a-strtok_r.o)
                                                  /home/src/arm/target/bin/../arm-none-eabi/lib//libc.a(lib_a-strtok.o)
__subdf3                                          /home/src/arm/target/bin/../lib/gcc/arm-none-eabi/4.8.2//libgcc.a(_arm_addsubdf3.o)
__swbuf                                           /home/src/arm/target/bin/../arm-none-eabi/lib//libc.a(lib_a-wbuf.o)
__swbuf_r                                         /home/src/arm/target/bin/../arm-none-eabi/lib//libc.a(lib_a-wbuf.o)
                                                  /home/src/arm/target/bin/../arm-none-eabi/lib//libc.a(lib_a-fputwc.o)
                                                  /home/src/arm/target/bin/../arm-none-eabi/lib//libc.a(lib_a-putc.o)
__swrite                                          /home/src/arm/target/bin/../arm-none-eabi/lib//libc.a(lib_a-stdio.o)
                                                  /home/src/arm/target/bin/../arm-none-eabi/lib//libc.a(lib_a-findfp.o)
__swsetup_r                                       /home/src/arm/target/bin/../arm-none-eabi/lib//libc.a(lib_a-wsetup.o)
                                                  /home/src/arm/target/bin/../arm-none-eabi/lib//libc.a(lib_a-fvwrite.o)
                                                  /home/src/arm/target/bin/../arm-none-eabi/lib//libc.a(lib_a-wbuf.o)
                                                  /home/src/arm/target/bin/../arm-none-eabi/lib//libc.a(lib_a-vfprintf.o)
                                                  /home/src/arm/target/bin/../arm-none-eabi/lib//libc.a(lib_a-vfiprintf.o)
__udivdi3                                         /home/src/arm/target/bin/../lib/gcc/arm-none-eabi/4.8.2//libgcc.a(_udivdi3.o)
                                                  /home/src/arm/target/bin/../lib/gcc/arm-none-eabi/4.8.2//libgcc.a(bpabi.o)
__udivsi3                                         /home/src/arm/target/bin/../lib/gcc/arm-none-eabi/4.8.2//libgcc.a(_udivsi3.o)
__ulp                                             /home/src/arm/target/bin/../arm-none-eabi/lib//libc.a(lib_a-mprec.o)
__wctomb                                          /home/src/arm/target/bin/../arm-none-eabi/lib//libc.a(lib_a-wctomb_r.o)
                                                  /home/src/arm/target/bin/../arm-none-eabi/lib//libc.a(lib_a-wcrtomb.o)
_calloc_r                                         /home/src/arm/target/bin/../arm-none-eabi/lib//libc.a(lib_a-callocr.o)
                                                  /home/src/arm/target/bin/../arm-none-eabi/lib//libc.a(lib_a-mprec.o)
_cleanup                                          /home/src/arm/target/bin/../arm-none-eabi/lib//libc.a(lib_a-findfp.o)
_cleanup_r                                        /home/src/arm/target/bin/../arm-none-eabi/lib//libc.a(lib_a-findfp.o)
                                                  /home/src/arm/target/bin/../arm-none-eabi/lib//libc.a(lib_a-makebuf.o)
_close                                            /home/src/arm/target/bin/../arm-none-eabi/lib//libc.a(lib_a-syscalls.o)
                                                  /home/src/arm/target/bin/../arm-none-eabi/lib//libc.a(lib_a-closer.o)
_close_r                                          /home/src/arm/target/bin/../arm-none-eabi/lib//libc.a(lib_a-closer.o)
                                                  /home/src/arm/target/bin/../arm-none-eabi/lib//libc.a(lib_a-stdio.o)
_ctype_                                           /home/src/arm/target/bin/../arm-none-eabi/lib//libc.a(lib_a-ctype_.o)
_dtoa_r                                           /home/src/arm/target/bin/../arm-none-eabi/lib//libc.a(lib_a-dtoa.o)
                                                  /home/src/arm/target/bin/../arm-none-eabi/lib//libc.a(lib_a-vfprintf.o)
                                                  /home/src/arm/target/bin/../arm-none-eabi/lib//libc.a(lib_a-svfprintf.o)
_exit                                             /home/src/arm/target/bin/../arm-none-eabi/lib//libc.a(lib_a-syscalls.o)
                                                  /home/src/arm/target/bin/../arm-none-eabi/lib//libc.a(lib_a-abort.o)
_fclose_r                                         /home/src/arm/target/bin/../arm-none-eabi/lib//libc.a(lib_a-fclose.o)
_fflush_r                                         /home/src/arm/target/bin/../arm-none-eabi/lib//libc.a(lib_a-fflush.o)
                                                  /home/src/arm/target/bin/../arm-none-eabi/lib//libc.a(lib_a-fclose.o)
                                                  /home/src/arm/target/bin/../arm-none-eabi/lib//libc.a(lib_a-refill.o)
                                                  /home/src/arm/target/bin/../arm-none-eabi/lib//libc.a(lib_a-fvwrite.o)
                                                  /home/src/arm/target/bin/../arm-none-eabi/lib//libc.a(lib_a-wbuf.o)
                                                  /home/src/arm/target/bin/../arm-none-eabi/lib//libc.a(lib_a-vfprintf.o)
                                                  /home/src/arm/target/bin/../arm-none-eabi/lib//libc.a(lib_a-vfiprintf.o)
_fini                                             /home/src/arm/target/bin/../lib/gcc/arm-none-eabi/4.8.2//crti.o
_fiprintf_r                                       /home/src/arm/target/bin/../arm-none-eabi/lib//libc.a(lib_a-fiprintf.o)
_fputc_r                                          /home/src/arm/target/bin/../arm-none-eabi/lib//libc.a(lib_a-fputc.o)
_fputwc_r                                         /home/src/arm/target/bin/../arm-none-eabi/lib//libc.a(lib_a-fputwc.o)
                                                  /home/src/arm/target/bin/../arm-none-eabi/lib//libc.a(lib_a-vfiprintf.o)
_free_r                                           /home/src/arm/target/bin/../arm-none-eabi/lib//libc.a(lib_a-freer.o)
                                                  /home/src/arm/target/bin/../arm-none-eabi/lib//libc.a(lib_a-fclose.o)
                                                  /home/src/arm/target/bin/../arm-none-eabi/lib//libc.a(lib_a-svfiprintf.o)
                                                  /home/src/arm/target/bin/../arm-none-eabi/lib//libc.a(lib_a-refill.o)
                                                  /home/src/arm/target/bin/../arm-none-eabi/lib//libc.a(lib_a-reent.o)
                                                  /home/src/arm/target/bin/../arm-none-eabi/lib//libc.a(lib_a-fvwrite.o)
                                                  /home/src/arm/target/bin/../arm-none-eabi/lib//libc.a(lib_a-fflush.o)
                                                  /home/src/arm/target/bin/../arm-none-eabi/lib//libc.a(lib_a-wsetup.o)
                                                  /home/src/arm/target/bin/../arm-none-eabi/lib//libc.a(lib_a-reallocr.o)
                                                  /home/src/arm/target/bin/../arm-none-eabi/lib//libc.a(lib_a-mallocr.o)
                                                  /home/src/arm/target/bin/../arm-none-eabi/lib//libc.a(lib_a-malloc.o)
_fstat                                            /home/src/arm/target/bin/../arm-none-eabi/lib//libc.a(lib_a-syscalls.o)
                                                  /home/src/arm/target/bin/../arm-none-eabi/lib//libc.a(lib_a-fstatr.o)
_fstat_r                                          /home/src/arm/target/bin/../arm-none-eabi/lib//libc.a(lib_a-fstatr.o)
                                                  /home/src/arm/target/bin/../arm-none-eabi/lib//libc.a(lib_a-makebuf.o)
_fwalk                                            /home/src/arm/target/bin/../arm-none-eabi/lib//libc.a(lib_a-fwalk.o)
                                                  /home/src/arm/target/bin/../arm-none-eabi/lib//libc.a(lib_a-refill.o)
                                                  /home/src/arm/target/bin/../arm-none-eabi/lib//libc.a(lib_a-findfp.o)
_fwalk_reent                                      /home/src/arm/target/bin/../arm-none-eabi/lib//libc.a(lib_a-fwalk.o)
                                                  /home/src/arm/target/bin/../arm-none-eabi/lib//libc.a(lib_a-fflush.o)
_getpid                                           /home/src/arm/target/bin/../arm-none-eabi/lib//libc.a(lib_a-syscalls.o)
                                                  /home/src/arm/target/bin/../arm-none-eabi/lib//libc.a(lib_a-signalr.o)
_getpid_r                                         /home/src/arm/target/bin/../arm-none-eabi/lib//libc.a(lib_a-signalr.o)
                                                  /home/src/arm/target/bin/../arm-none-eabi/lib//libc.a(lib_a-signal.o)
_gettimeofday                                     /home/src/arm/target/bin/../arm-none-eabi/lib//libc.a(lib_a-syscalls.o)
_global_impure_ptr                                /home/src/arm/target/bin/../arm-none-eabi/lib//libc.a(lib_a-impure.o)
                                                  /home/src/arm/target/bin/../arm-none-eabi/lib//libc.a(lib_a-refill.o)
                                                  /home/src/arm/target/bin/../arm-none-eabi/lib//libc.a(lib_a-findfp.o)
                                                  /home/src/arm/target/bin/../arm-none-eabi/lib//libc.a(lib_a-fflush.o)
_image_size                                       /home/leon/git/swp-report/iMX6_Platform_SDK/output/mx6sdl/obds/smart_device_rev_a/obj/apps/common/ivt.o
_impure_ptr                                       /home/src/arm/target/bin/../arm-none-eabi/lib//libc.a(lib_a-impure.o)
                                                  /home/src/arm/target/bin/../arm-none-eabi/lib//libc.a(lib_a-fclose.o)
                                                  /home/src/arm/target/bin/../arm-none-eabi/lib//libc.a(lib_a-wcrtomb.o)
                                                  /home/src/arm/target/bin/../arm-none-eabi/lib//libc.a(lib_a-signal.o)
                                                  /home/src/arm/target/bin/../arm-none-eabi/lib//libc.a(lib_a-reent.o)
                                                  /home/src/arm/target/bin/../arm-none-eabi/lib//libc.a(lib_a-locale.o)
                                                  /home/src/arm/target/bin/../arm-none-eabi/lib//libc.a(lib_a-fputwc.o)
                                                  /home/src/arm/target/bin/../arm-none-eabi/lib//libc.a(lib_a-findfp.o)
                                                  /home/src/arm/target/bin/../arm-none-eabi/lib//libc.a(lib_a-fflush.o)
                                                  /home/src/arm/target/bin/../arm-none-eabi/lib//libc.a(lib_a-errno.o)
                                                  /home/src/arm/target/bin/../arm-none-eabi/lib//libc.a(lib_a-wsetup.o)
                                                  /home/src/arm/target/bin/../arm-none-eabi/lib//libc.a(lib_a-wbuf.o)
                                                  /home/src/arm/target/bin/../arm-none-eabi/lib//libc.a(lib_a-vprintf.o)
                                                  /home/src/arm/target/bin/../arm-none-eabi/lib//libc.a(lib_a-vfprintf.o)
                                                  /home/src/arm/target/bin/../arm-none-eabi/lib//libc.a(lib_a-vfiprintf.o)
                                                  /home/src/arm/target/bin/../arm-none-eabi/lib//libc.a(lib_a-syscalls.o)
                                                  /home/src/arm/target/bin/../arm-none-eabi/lib//libc.a(lib_a-strtok.o)
                                                  /home/src/arm/target/bin/../arm-none-eabi/lib//libc.a(lib_a-sprintf.o)
                                                  /home/src/arm/target/bin/../arm-none-eabi/lib//libc.a(lib_a-rget.o)
                                                  /home/src/arm/target/bin/../arm-none-eabi/lib//libc.a(lib_a-realloc.o)
                                                  /home/src/arm/target/bin/../arm-none-eabi/lib//libc.a(lib_a-putc.o)
                                                  /home/src/arm/target/bin/../arm-none-eabi/lib//libc.a(lib_a-printf.o)
                                                  /home/src/arm/target/bin/../arm-none-eabi/lib//libc.a(lib_a-malloc.o)
                                                  /home/src/arm/target/bin/../arm-none-eabi/lib//libc.a(lib_a-fputc.o)
                                                  /home/src/arm/target/bin/../arm-none-eabi/lib//libc.a(lib_a-fiprintf.o)
                                                  /home/src/arm/target/bin/../arm-none-eabi/lib//libc.a(lib_a-assert.o)
                                                  /home/leon/git/swp-report/iMX6_Platform_SDK/output/mx6sdl/lib/libsdk.a(usb_common.o)
                                                  /home/leon/git/swp-report/iMX6_Platform_SDK/output/mx6sdl/lib/libsdk.a(system_util.o)
                                                  /home/leon/git/swp-report/iMX6_Platform_SDK/output/mx6sdl/lib/libsdk.a(menu.o)
                                                  /home/leon/git/swp-report/iMX6_Platform_SDK/output/mx6sdl/obds/smart_device_rev_a/obj/sdk/drivers/usdhc/test/usdhc_test.o
                                                  /home/leon/git/swp-report/iMX6_Platform_SDK/output/mx6sdl/obds/smart_device_rev_a/obj/sdk/drivers/uart/test/uart_test.o
                                                  /home/leon/git/swp-report/iMX6_Platform_SDK/output/mx6sdl/obds/smart_device_rev_a/obj/sdk/drivers/ipu/test/ips_display.o
                                                  /home/leon/git/swp-report/iMX6_Platform_SDK/output/mx6sdl/obds/smart_device_rev_a/obj/sdk/drivers/epdc/test/epdc_test.o
                                                  /home/leon/git/swp-report/iMX6_Platform_SDK/output/mx6sdl/obds/smart_device_rev_a/obj/sdk/drivers/camera/test/sensor_capture.o
                                                  /home/leon/git/swp-report/iMX6_Platform_SDK/output/mx6sdl/obds/smart_device_rev_a/obj/sdk/drivers/camera/test/csi_test_mode.o
                                                  /home/leon/git/swp-report/iMX6_Platform_SDK/output/mx6sdl/obds/smart_device_rev_a/obj/sdk/drivers/camera/test/camera_test.o
                                                  /home/leon/git/swp-report/iMX6_Platform_SDK/output/mx6sdl/obds/smart_device_rev_a/obj/apps/obds/src/tests/video_dec_adv7180.o
                                                  /home/leon/git/swp-report/iMX6_Platform_SDK/output/mx6sdl/obds/smart_device_rev_a/obj/apps/obds/src/tests/touch_screen_max11801.o
                                                  /home/leon/git/swp-report/iMX6_Platform_SDK/output/mx6sdl/obds/smart_device_rev_a/obj/apps/obds/src/tests/touch_screen.o
                                                  /home/leon/git/swp-report/iMX6_Platform_SDK/output/mx6sdl/obds/smart_device_rev_a/obj/apps/obds/src/tests/touch_button_test.o
                                                  /home/leon/git/swp-report/iMX6_Platform_SDK/output/mx6sdl/obds/smart_device_rev_a/obj/apps/obds/src/tests/program_mac_address.o
                                                  /home/leon/git/swp-report/iMX6_Platform_SDK/output/mx6sdl/obds/smart_device_rev_a/obj/apps/obds/src/tests/pmic_lt3589.o
                                                  /home/leon/git/swp-report/iMX6_Platform_SDK/output/mx6sdl/obds/smart_device_rev_a/obj/apps/obds/src/tests/i2c_device_id_check_p1003_tsc.o
                                                  /home/leon/git/swp-report/iMX6_Platform_SDK/output/mx6sdl/obds/smart_device_rev_a/obj/apps/obds/src/tests/i2c_device_id_check_mma8451.o
                                                  /home/leon/git/swp-report/iMX6_Platform_SDK/output/mx6sdl/obds/smart_device_rev_a/obj/apps/obds/src/tests/i2c_device_id_check_mma8450.o
                                                  /home/leon/git/swp-report/iMX6_Platform_SDK/output/mx6sdl/obds/smart_device_rev_a/obj/apps/obds/src/tests/i2c_check_light_sensor_isl29023.o
                                                  /home/leon/git/swp-report/iMX6_Platform_SDK/output/mx6sdl/obds/smart_device_rev_a/obj/apps/obds/src/tests/gpio_led.o
                                                  /home/leon/git/swp-report/iMX6_Platform_SDK/output/mx6sdl/obds/smart_device_rev_a/obj/apps/obds/src/tests/display_test.o
                                                  /home/leon/git/swp-report/iMX6_Platform_SDK/output/mx6sdl/obds/smart_device_rev_a/obj/apps/obds/src/tests/audio_ssi_test.o
                                                  /home/leon/git/swp-report/iMX6_Platform_SDK/output/mx6sdl/obds/smart_device_rev_a/obj/apps/obds/src/tests/audio_esai_test.o
                                                  /home/leon/git/swp-report/iMX6_Platform_SDK/output/mx6sdl/obds/smart_device_rev_a/obj/apps/obds/src/tests/android_buttons_test.o
_init                                             /home/src/arm/target/bin/../lib/gcc/arm-none-eabi/4.8.2//crti.o
                                                  /home/src/arm/target/bin/../arm-none-eabi/lib//libc.a(lib_a-init.o)
_init_signal                                      /home/src/arm/target/bin/../arm-none-eabi/lib//libc.a(lib_a-signal.o)
_init_signal_r                                    /home/src/arm/target/bin/../arm-none-eabi/lib//libc.a(lib_a-signal.o)
_isatty                                           /home/src/arm/target/bin/../arm-none-eabi/lib//libc.a(lib_a-syscalls.o)
                                                  /home/src/arm/target/bin/../arm-none-eabi/lib//libc.a(lib_a-isattyr.o)
_isatty_r                                         /home/src/arm/target/bin/../arm-none-eabi/lib//libc.a(lib_a-isattyr.o)
                                                  /home/src/arm/target/bin/../arm-none-eabi/lib//libc.a(lib_a-makebuf.o)
_kill                                             /home/src/arm/target/bin/../arm-none-eabi/lib//libc.a(lib_a-syscalls.o)
                                                  /home/src/arm/target/bin/../arm-none-eabi/lib//libc.a(lib_a-signalr.o)
_kill_r                                           /home/src/arm/target/bin/../arm-none-eabi/lib//libc.a(lib_a-signalr.o)
                                                  /home/src/arm/target/bin/../arm-none-eabi/lib//libc.a(lib_a-signal.o)
_link                                             /home/src/arm/target/bin/../arm-none-eabi/lib//libc.a(lib_a-syscalls.o)
_localeconv_r                                     /home/src/arm/target/bin/../arm-none-eabi/lib//libc.a(lib_a-locale.o)
                                                  /home/src/arm/target/bin/../arm-none-eabi/lib//libc.a(lib_a-vfprintf.o)
                                                  /home/src/arm/target/bin/../arm-none-eabi/lib//libc.a(lib_a-svfprintf.o)
_lseek                                            /home/src/arm/target/bin/../arm-none-eabi/lib//libc.a(lib_a-syscalls.o)
                                                  /home/src/arm/target/bin/../arm-none-eabi/lib//libc.a(lib_a-lseekr.o)
_lseek_r                                          /home/src/arm/target/bin/../arm-none-eabi/lib//libc.a(lib_a-lseekr.o)
                                                  /home/src/arm/target/bin/../arm-none-eabi/lib//libc.a(lib_a-stdio.o)
_malloc_r                                         /home/src/arm/target/bin/../arm-none-eabi/lib//libc.a(lib_a-mallocr.o)
                                                  /home/src/arm/target/bin/../arm-none-eabi/lib//libc.a(lib_a-callocr.o)
                                                  /home/src/arm/target/bin/../arm-none-eabi/lib//libc.a(lib_a-svfiprintf.o)
                                                  /home/src/arm/target/bin/../arm-none-eabi/lib//libc.a(lib_a-signal.o)
                                                  /home/src/arm/target/bin/../arm-none-eabi/lib//libc.a(lib_a-makebuf.o)
                                                  /home/src/arm/target/bin/../arm-none-eabi/lib//libc.a(lib_a-fvwrite.o)
                                                  /home/src/arm/target/bin/../arm-none-eabi/lib//libc.a(lib_a-findfp.o)
                                                  /home/src/arm/target/bin/../arm-none-eabi/lib//libc.a(lib_a-svfprintf.o)
                                                  /home/src/arm/target/bin/../arm-none-eabi/lib//libc.a(lib_a-reallocr.o)
                                                  /home/src/arm/target/bin/../arm-none-eabi/lib//libc.a(lib_a-malloc.o)
_malloc_trim_r                                    /home/src/arm/target/bin/../arm-none-eabi/lib//libc.a(lib_a-freer.o)
_mprec_log10                                      /home/src/arm/target/bin/../arm-none-eabi/lib//libc.a(lib_a-mprec.o)
_open                                             /home/src/arm/target/bin/../arm-none-eabi/lib//libc.a(lib_a-syscalls.o)
_printf_r                                         /home/src/arm/target/bin/../arm-none-eabi/lib//libc.a(lib_a-printf.o)
_putc_r                                           /home/src/arm/target/bin/../arm-none-eabi/lib//libc.a(lib_a-putc.o)
                                                  /home/src/arm/target/bin/../arm-none-eabi/lib//libc.a(lib_a-fputc.o)
_raise                                            /home/src/arm/target/bin/../arm-none-eabi/lib//libc.a(lib_a-syscalls.o)
_raise_r                                          /home/src/arm/target/bin/../arm-none-eabi/lib//libc.a(lib_a-signal.o)
_read                                             /home/src/arm/target/bin/../arm-none-eabi/lib//libc.a(lib_a-syscalls.o)
                                                  /home/src/arm/target/bin/../arm-none-eabi/lib//libc.a(lib_a-readr.o)
_read_r                                           /home/src/arm/target/bin/../arm-none-eabi/lib//libc.a(lib_a-readr.o)
                                                  /home/src/arm/target/bin/../arm-none-eabi/lib//libc.a(lib_a-stdio.o)
_realloc_r                                        /home/src/arm/target/bin/../arm-none-eabi/lib//libc.a(lib_a-reallocr.o)
                                                  /home/src/arm/target/bin/../arm-none-eabi/lib//libc.a(lib_a-svfiprintf.o)
                                                  /home/src/arm/target/bin/../arm-none-eabi/lib//libc.a(lib_a-fvwrite.o)
                                                  /home/src/arm/target/bin/../arm-none-eabi/lib//libc.a(lib_a-realloc.o)
_reclaim_reent                                    /home/src/arm/target/bin/../arm-none-eabi/lib//libc.a(lib_a-reent.o)
_rename                                           /home/src/arm/target/bin/../arm-none-eabi/lib//libc.a(lib_a-syscalls.o)
_sbrk                                             /home/src/arm/target/bin/../arm-none-eabi/lib//libc.a(lib_a-syscalls.o)
                                                  /home/src/arm/target/bin/../arm-none-eabi/lib//libc.a(lib_a-sbrkr.o)
_sbrk_r                                           /home/src/arm/target/bin/../arm-none-eabi/lib//libc.a(lib_a-sbrkr.o)
                                                  /home/src/arm/target/bin/../arm-none-eabi/lib//libc.a(lib_a-freer.o)
                                                  /home/src/arm/target/bin/../arm-none-eabi/lib//libc.a(lib_a-mallocr.o)
_setlocale_r                                      /home/src/arm/target/bin/../arm-none-eabi/lib//libc.a(lib_a-locale.o)
_signal_r                                         /home/src/arm/target/bin/../arm-none-eabi/lib//libc.a(lib_a-signal.o)
_sprintf_r                                        /home/src/arm/target/bin/../arm-none-eabi/lib//libc.a(lib_a-sprintf.o)
_start                                            /home/leon/git/swp-report/iMX6_Platform_SDK/output/mx6sdl/lib/libsdk.a(startup.o)
                                                  /home/leon/git/swp-report/iMX6_Platform_SDK/output/mx6sdl/lib/libsdk.a(vectors.o)
                                                  /home/leon/git/swp-report/iMX6_Platform_SDK/output/mx6sdl/obds/smart_device_rev_a/obj/apps/common/ivt.o
_start_image_add                                  /home/leon/git/swp-report/iMX6_Platform_SDK/output/mx6sdl/obds/smart_device_rev_a/obj/apps/common/ivt.o
_stat                                             /home/src/arm/target/bin/../arm-none-eabi/lib//libc.a(lib_a-syscalls.o)
_svfiprintf_r                                     /home/src/arm/target/bin/../arm-none-eabi/lib//libc.a(lib_a-svfiprintf.o)
_svfprintf_r                                      /home/src/arm/target/bin/../arm-none-eabi/lib//libc.a(lib_a-svfprintf.o)
                                                  /home/src/arm/target/bin/../arm-none-eabi/lib//libc.a(lib_a-sprintf.o)
_swiclose                                         /home/src/arm/target/bin/../arm-none-eabi/lib//libc.a(lib_a-syscalls.o)
_swilseek                                         /home/src/arm/target/bin/../arm-none-eabi/lib//libc.a(lib_a-syscalls.o)
_swiopen                                          /home/src/arm/target/bin/../arm-none-eabi/lib//libc.a(lib_a-syscalls.o)
_swiread                                          /home/src/arm/target/bin/../arm-none-eabi/lib//libc.a(lib_a-syscalls.o)
_swiwrite                                         /home/src/arm/target/bin/../arm-none-eabi/lib//libc.a(lib_a-syscalls.o)
_sys_exit                                         /home/leon/git/swp-report/iMX6_Platform_SDK/output/mx6sdl/lib/libsdk.a(system_util.o)
                                                  /home/leon/git/swp-report/iMX6_Platform_SDK/output/mx6sdl/lib/libsdk.a(startup.o)
_system                                           /home/src/arm/target/bin/../arm-none-eabi/lib//libc.a(lib_a-syscalls.o)
_times                                            /home/src/arm/target/bin/../arm-none-eabi/lib//libc.a(lib_a-syscalls.o)
_unlink                                           /home/src/arm/target/bin/../arm-none-eabi/lib//libc.a(lib_a-syscalls.o)
_vfiprintf_r                                      /home/src/arm/target/bin/../arm-none-eabi/lib//libc.a(lib_a-vfiprintf.o)
                                                  /home/src/arm/target/bin/../arm-none-eabi/lib//libc.a(lib_a-fiprintf.o)
_vfprintf_r                                       /home/src/arm/target/bin/../arm-none-eabi/lib//libc.a(lib_a-vfprintf.o)
                                                  /home/src/arm/target/bin/../arm-none-eabi/lib//libc.a(lib_a-vprintf.o)
                                                  /home/src/arm/target/bin/../arm-none-eabi/lib//libc.a(lib_a-printf.o)
_vprintf_r                                        /home/src/arm/target/bin/../arm-none-eabi/lib//libc.a(lib_a-vprintf.o)
_wcrtomb_r                                        /home/src/arm/target/bin/../arm-none-eabi/lib//libc.a(lib_a-wcrtomb.o)
                                                  /home/src/arm/target/bin/../arm-none-eabi/lib//libc.a(lib_a-fputwc.o)
_wctomb_r                                         /home/src/arm/target/bin/../arm-none-eabi/lib//libc.a(lib_a-wctomb_r.o)
_write                                            /home/src/arm/target/bin/../arm-none-eabi/lib//libc.a(lib_a-syscalls.o)
                                                  /home/src/arm/target/bin/../arm-none-eabi/lib//libc.a(lib_a-writer.o)
_write_r                                          /home/src/arm/target/bin/../arm-none-eabi/lib//libc.a(lib_a-writer.o)
                                                  /home/src/arm/target/bin/../arm-none-eabi/lib//libc.a(lib_a-stdio.o)
abort                                             /home/src/arm/target/bin/../arm-none-eabi/lib//libc.a(lib_a-abort.o)
                                                  /home/src/arm/target/bin/../arm-none-eabi/lib//libc.a(lib_a-assert.o)
adv7180_i2c_device_id_check                       /home/leon/git/swp-report/iMX6_Platform_SDK/output/mx6sdl/obds/smart_device_rev_a/obj/apps/obds/src/tests/video_dec_adv7180.o
adv7180_i2c_init_obds                             /home/leon/git/swp-report/iMX6_Platform_SDK/output/mx6sdl/obds/smart_device_rev_a/obj/apps/obds/src/tests/video_dec_adv7180.o
                                                  /home/leon/git/swp-report/iMX6_Platform_SDK/output/mx6sdl/obds/smart_device_rev_a/obj/apps/obds/src/tests/video_dec_ARD_MBrst_from_cpu_expander.o
                                                  /home/leon/git/swp-report/iMX6_Platform_SDK/output/mx6sdl/obds/smart_device_rev_a/obj/apps/obds/src/tests/video_dec_ARD_MB_reset_button.o
                                                  /home/leon/git/swp-report/iMX6_Platform_SDK/output/mx6sdl/obds/smart_device_rev_a/obj/apps/obds/src/tests/deserializer_ds90ur124.o
adv7180_reg_read                                  /home/leon/git/swp-report/iMX6_Platform_SDK/output/mx6sdl/obds/smart_device_rev_a/obj/apps/obds/src/tests/video_dec_adv7180.o
                                                  /home/leon/git/swp-report/iMX6_Platform_SDK/output/mx6sdl/obds/smart_device_rev_a/obj/apps/obds/src/tests/video_dec_ARD_MBrst_from_cpu_expander.o
                                                  /home/leon/git/swp-report/iMX6_Platform_SDK/output/mx6sdl/obds/smart_device_rev_a/obj/apps/obds/src/tests/video_dec_ARD_MB_reset_button.o
adv7180_reg_write                                 /home/leon/git/swp-report/iMX6_Platform_SDK/output/mx6sdl/obds/smart_device_rev_a/obj/apps/obds/src/tests/video_dec_adv7180.o
                                                  /home/leon/git/swp-report/iMX6_Platform_SDK/output/mx6sdl/obds/smart_device_rev_a/obj/apps/obds/src/tests/video_dec_ARD_MBrst_from_cpu_expander.o
                                                  /home/leon/git/swp-report/iMX6_Platform_SDK/output/mx6sdl/obds/smart_device_rev_a/obj/apps/obds/src/tests/video_dec_ARD_MB_reset_button.o
adv7180_set_gpio_output                           /home/leon/git/swp-report/iMX6_Platform_SDK/output/mx6sdl/obds/smart_device_rev_a/obj/apps/obds/src/tests/video_dec_adv7180.o
                                                  /home/leon/git/swp-report/iMX6_Platform_SDK/output/mx6sdl/obds/smart_device_rev_a/obj/apps/obds/src/tests/video_dec_ARD_MB_reset_button.o
                                                  /home/leon/git/swp-report/iMX6_Platform_SDK/output/mx6sdl/obds/smart_device_rev_a/obj/apps/obds/src/tests/deserializer_ds90ur124.o
adv7180_set_tristate_output                       /home/leon/git/swp-report/iMX6_Platform_SDK/output/mx6sdl/obds/smart_device_rev_a/obj/apps/obds/src/tests/video_dec_adv7180.o
                                                  /home/leon/git/swp-report/iMX6_Platform_SDK/output/mx6sdl/obds/smart_device_rev_a/obj/apps/obds/src/tests/deserializer_ds90ur124.o
adv7180_test_main                                 /home/leon/git/swp-report/iMX6_Platform_SDK/output/mx6sdl/obds/smart_device_rev_a/obj/apps/obds/src/tests/video_dec_adv7180.o
android_buttons_iomux_config                      /home/leon/git/swp-report/iMX6_Platform_SDK/output/mx6sdl/lib/libboard_smart_device_rev_a.a(board_buttons.o)
                                                  /home/leon/git/swp-report/iMX6_Platform_SDK/output/mx6sdl/obds/smart_device_rev_a/obj/apps/obds/src/tests/android_buttons_test.o
android_buttons_test                              /home/leon/git/swp-report/iMX6_Platform_SDK/output/mx6sdl/obds/smart_device_rev_a/obj/apps/obds/src/tests/android_buttons_test.o
ar8031_test_main                                  /home/leon/git/swp-report/iMX6_Platform_SDK/output/mx6sdl/obds/smart_device_rev_a/obj/apps/obds/src/tests/enet_mx6dldq_test.o
                                                  /home/leon/git/swp-report/iMX6_Platform_SDK/output/mx6sdl/obds/smart_device_rev_a/obj/apps/obds/src/obds.o
ard_mb_expander_reset_test                        /home/leon/git/swp-report/iMX6_Platform_SDK/output/mx6sdl/obds/smart_device_rev_a/obj/apps/obds/src/tests/video_dec_ARD_MBrst_from_cpu_expander.o
ard_mb_reset_test                                 /home/leon/git/swp-report/iMX6_Platform_SDK/output/mx6sdl/obds/smart_device_rev_a/obj/apps/obds/src/tests/video_dec_ARD_MB_reset_button.o
arm_branch_prediction_disable                     /home/leon/git/swp-report/iMX6_Platform_SDK/output/mx6sdl/lib/libsdk.a(cortexA9.o)
arm_branch_prediction_enable                      /home/leon/git/swp-report/iMX6_Platform_SDK/output/mx6sdl/lib/libsdk.a(cortexA9.o)
arm_branch_target_cache_invalidate                /home/leon/git/swp-report/iMX6_Platform_SDK/output/mx6sdl/lib/libsdk.a(cortexA9.o)
arm_branch_target_cache_invalidate_is             /home/leon/git/swp-report/iMX6_Platform_SDK/output/mx6sdl/lib/libsdk.a(cortexA9.o)
arm_dcache_disable                                /home/leon/git/swp-report/iMX6_Platform_SDK/output/mx6sdl/lib/libsdk.a(armv7_cache.o)
arm_dcache_enable                                 /home/leon/git/swp-report/iMX6_Platform_SDK/output/mx6sdl/lib/libsdk.a(armv7_cache.o)
arm_dcache_flush                                  /home/leon/git/swp-report/iMX6_Platform_SDK/output/mx6sdl/lib/libsdk.a(armv7_cache.o)
arm_dcache_flush_line                             /home/leon/git/swp-report/iMX6_Platform_SDK/output/mx6sdl/lib/libsdk.a(armv7_cache.o)
arm_dcache_flush_mlines                           /home/leon/git/swp-report/iMX6_Platform_SDK/output/mx6sdl/lib/libsdk.a(armv7_cache.o)
                                                  /home/leon/git/swp-report/iMX6_Platform_SDK/output/mx6sdl/lib/libsdk.a(usdhc.o)
arm_dcache_invalidate                             /home/leon/git/swp-report/iMX6_Platform_SDK/output/mx6sdl/lib/libsdk.a(armv7_cache.o)
arm_dcache_invalidate_line                        /home/leon/git/swp-report/iMX6_Platform_SDK/output/mx6sdl/lib/libsdk.a(armv7_cache.o)
arm_dcache_invalidate_mlines                      /home/leon/git/swp-report/iMX6_Platform_SDK/output/mx6sdl/lib/libsdk.a(armv7_cache.o)
                                                  /home/leon/git/swp-report/iMX6_Platform_SDK/output/mx6sdl/lib/libsdk.a(usdhc.o)
arm_dcache_state_query                            /home/leon/git/swp-report/iMX6_Platform_SDK/output/mx6sdl/lib/libsdk.a(armv7_cache.o)
                                                  /home/leon/git/swp-report/iMX6_Platform_SDK/output/mx6sdl/lib/libsdk.a(usdhc.o)
arm_icache_disable                                /home/leon/git/swp-report/iMX6_Platform_SDK/output/mx6sdl/lib/libsdk.a(armv7_cache.o)
arm_icache_enable                                 /home/leon/git/swp-report/iMX6_Platform_SDK/output/mx6sdl/lib/libsdk.a(armv7_cache.o)
arm_icache_invalidate                             /home/leon/git/swp-report/iMX6_Platform_SDK/output/mx6sdl/lib/libsdk.a(armv7_cache.o)
arm_icache_invalidate_is                          /home/leon/git/swp-report/iMX6_Platform_SDK/output/mx6sdl/lib/libsdk.a(armv7_cache.o)
arm_icache_invalidate_line                        /home/leon/git/swp-report/iMX6_Platform_SDK/output/mx6sdl/lib/libsdk.a(armv7_cache.o)
arm_icache_invalidate_mlines                      /home/leon/git/swp-report/iMX6_Platform_SDK/output/mx6sdl/lib/libsdk.a(armv7_cache.o)
arm_icache_state_query                            /home/leon/git/swp-report/iMX6_Platform_SDK/output/mx6sdl/lib/libsdk.a(armv7_cache.o)
arm_iomux_config                                  /home/leon/git/swp-report/iMX6_Platform_SDK/output/mx6sdl/lib/libboard_smart_device_rev_a.a(iomux_config.o)
arm_set_interrupt_state                           /home/leon/git/swp-report/iMX6_Platform_SDK/output/mx6sdl/lib/libsdk.a(cortexA9.o)
                                                  /home/leon/git/swp-report/iMX6_Platform_SDK/output/mx6sdl/obds/smart_device_rev_a/obj/apps/common/platform_init.o
arm_unified_tlb_invalidate                        /home/leon/git/swp-report/iMX6_Platform_SDK/output/mx6sdl/lib/libsdk.a(cortexA9.o)
                                                  /home/leon/git/swp-report/iMX6_Platform_SDK/output/mx6sdl/lib/libsdk.a(mmu.o)
arm_unified_tlb_invalidate_is                     /home/leon/git/swp-report/iMX6_Platform_SDK/output/mx6sdl/lib/libsdk.a(cortexA9.o)
asrc_iomux_config                                 /home/leon/git/swp-report/iMX6_Platform_SDK/output/mx6sdl/lib/libboard_smart_device_rev_a.a(iomux_config.o)
audio_ComputeCTS                                  /home/leon/git/swp-report/iMX6_Platform_SDK/output/mx6sdl/lib/libsdk.a(hdmi_tx_audio.o)
audio_ComputeN                                    /home/leon/git/swp-report/iMX6_Platform_SDK/output/mx6sdl/lib/libsdk.a(hdmi_tx_audio.o)
audio_Configure                                   /home/leon/git/swp-report/iMX6_Platform_SDK/output/mx6sdl/lib/libsdk.a(hdmi_tx_audio.o)
                                                  /home/leon/git/swp-report/iMX6_Platform_SDK/output/mx6sdl/obds/smart_device_rev_a/obj/sdk/drivers/hdmi/test/hdmi_test.o
audio_Configure_DMA                               /home/leon/git/swp-report/iMX6_Platform_SDK/output/mx6sdl/lib/libsdk.a(hdmi_tx_audio.o)
                                                  /home/leon/git/swp-report/iMX6_Platform_SDK/output/mx6sdl/obds/smart_device_rev_a/obj/sdk/drivers/hdmi/test/hdmi_test.o
audio_DMA_BurstMode                               /home/leon/git/swp-report/iMX6_Platform_SDK/output/mx6sdl/lib/libsdk.a(hdmi_tx_audio.o)
audio_DMA_IncrType                                /home/leon/git/swp-report/iMX6_Platform_SDK/output/mx6sdl/lib/libsdk.a(hdmi_tx_audio.o)
audio_DMA_InterruptMask                           /home/leon/git/swp-report/iMX6_Platform_SDK/output/mx6sdl/lib/libsdk.a(hdmi_tx_audio.o)
audio_DMA_InterruptPolarity                       /home/leon/git/swp-report/iMX6_Platform_SDK/output/mx6sdl/lib/libsdk.a(hdmi_tx_audio.o)
audio_DMA_LockEnable                              /home/leon/git/swp-report/iMX6_Platform_SDK/output/mx6sdl/lib/libsdk.a(hdmi_tx_audio.o)
audio_DMA_ResetFIFO                               /home/leon/git/swp-report/iMX6_Platform_SDK/output/mx6sdl/lib/libsdk.a(hdmi_tx_audio.o)
audio_DMA_SetCONF1                                /home/leon/git/swp-report/iMX6_Platform_SDK/output/mx6sdl/lib/libsdk.a(hdmi_tx_audio.o)
audio_DMA_Start                                   /home/leon/git/swp-report/iMX6_Platform_SDK/output/mx6sdl/lib/libsdk.a(hdmi_tx_audio.o)
audio_DMA_StartAddr                               /home/leon/git/swp-report/iMX6_Platform_SDK/output/mx6sdl/lib/libsdk.a(hdmi_tx_audio.o)
audio_DMA_StopAddr                                /home/leon/git/swp-report/iMX6_Platform_SDK/output/mx6sdl/lib/libsdk.a(hdmi_tx_audio.o)
audio_DMA_Threshold                               /home/leon/git/swp-report/iMX6_Platform_SDK/output/mx6sdl/lib/libsdk.a(hdmi_tx_audio.o)
audio_PacketLayout                                /home/leon/git/swp-report/iMX6_Platform_SDK/output/mx6sdl/lib/libsdk.a(hdmi_tx_audio.o)
audio_clk_CTS                                     /home/leon/git/swp-report/iMX6_Platform_SDK/output/mx6sdl/lib/libsdk.a(hdmi_tx_audio.o)
audio_clk_N                                       /home/leon/git/swp-report/iMX6_Platform_SDK/output/mx6sdl/lib/libsdk.a(hdmi_tx_audio.o)
audio_clock_config                                /home/leon/git/swp-report/iMX6_Platform_SDK/output/mx6sdl/lib/libboard_smart_device_rev_a.a(board_audio.o)
                                                  /home/leon/git/swp-report/iMX6_Platform_SDK/output/mx6sdl/obds/smart_device_rev_a/obj/apps/obds/src/tests/audio_ssi_test.o
audio_codec_power_on                              /home/leon/git/swp-report/iMX6_Platform_SDK/output/mx6sdl/lib/libboard_smart_device_rev_a.a(board_audio.o)
                                                  /home/leon/git/swp-report/iMX6_Platform_SDK/output/mx6sdl/lib/libsdk.a(smd_sensor.o)
                                                  /home/leon/git/swp-report/iMX6_Platform_SDK/output/mx6sdl/obds/smart_device_rev_a/obj/apps/obds/src/tests/audio_ssi_test.o
audio_info_config                                 /home/leon/git/swp-report/iMX6_Platform_SDK/output/mx6sdl/lib/libsdk.a(hdmi_tx_audio.o)
audio_record_buf                                  /home/leon/git/swp-report/iMX6_Platform_SDK/output/mx6sdl/obds/smart_device_rev_a/obj/apps/obds/src/tests/audio_ssi_test.o
audio_test_init                                   /home/leon/git/swp-report/iMX6_Platform_SDK/output/mx6sdl/obds/smart_device_rev_a/obj/apps/obds/src/tests/audio_ssi_test.o
audmux_iomux_config                               /home/leon/git/swp-report/iMX6_Platform_SDK/output/mx6sdl/lib/libboard_smart_device_rev_a.a(audmux_iomux_config.o)
                                                  /home/leon/git/swp-report/iMX6_Platform_SDK/output/mx6sdl/lib/libboard_smart_device_rev_a.a(iomux_config.o)
                                                  /home/leon/git/swp-report/iMX6_Platform_SDK/output/mx6sdl/lib/libsdk.a(imx-ssi.o)
audmux_port_set                                   /home/leon/git/swp-report/iMX6_Platform_SDK/output/mx6sdl/lib/libsdk.a(imx_audmux.o)
audmux_route                                      /home/leon/git/swp-report/iMX6_Platform_SDK/output/mx6sdl/lib/libsdk.a(imx_audmux.o)
                                                  /home/leon/git/swp-report/iMX6_Platform_SDK/output/mx6sdl/obds/smart_device_rev_a/obj/apps/obds/src/tests/audio_ssi_test.o
auto_run_enable                                   /home/leon/git/swp-report/iMX6_Platform_SDK/output/mx6sdl/obds/smart_device_rev_a/obj/apps/obds/src/obds.o
                                                  /home/leon/git/swp-report/iMX6_Platform_SDK/output/mx6sdl/obds/smart_device_rev_a/obj/apps/obds/src/tests/mlb_os81050.o
                                                  /home/leon/git/swp-report/iMX6_Platform_SDK/output/mx6sdl/obds/smart_device_rev_a/obj/apps/obds/src/tests/i2c_eeprom_at24cxx_test.o
                                                  /home/leon/git/swp-report/iMX6_Platform_SDK/output/mx6sdl/obds/smart_device_rev_a/obj/apps/obds/src/tests/gps_test.o
                                                  /home/leon/git/swp-report/iMX6_Platform_SDK/output/mx6sdl/obds/smart_device_rev_a/obj/apps/obds/src/tests/fm_tuner_si476x_test.o
                                                  /home/leon/git/swp-report/iMX6_Platform_SDK/output/mx6sdl/obds/smart_device_rev_a/obj/apps/obds/src/tests/deserializer_ds90ur124.o
bd                                                /home/leon/git/swp-report/iMX6_Platform_SDK/output/mx6sdl/obds/smart_device_rev_a/obj/apps/common/ivt.o
board_description                                 /home/leon/git/swp-report/iMX6_Platform_SDK/output/mx6sdl/lib/libsdk.a(board_id.o)
board_ioexpander_init                             /home/leon/git/swp-report/iMX6_Platform_SDK/output/mx6sdl/lib/libboard_smart_device_rev_a.a(board_io_expanders.o)
                                                  /home/leon/git/swp-report/iMX6_Platform_SDK/output/mx6sdl/obds/smart_device_rev_a/obj/apps/common/platform_init.o
board_ioexpander_iomux_config                     /home/leon/git/swp-report/iMX6_Platform_SDK/output/mx6sdl/lib/libboard_smart_device_rev_a.a(board_io_expanders.o)
                                                  /home/leon/git/swp-report/iMX6_Platform_SDK/output/mx6sdl/obds/smart_device_rev_a/obj/sdk/common/ioexpander/test/max7310_test.o
                                                  /home/leon/git/swp-report/iMX6_Platform_SDK/output/mx6sdl/obds/smart_device_rev_a/obj/apps/obds/src/tests/video_dec_ARD_MBrst_from_cpu_expander.o
                                                  /home/leon/git/swp-report/iMX6_Platform_SDK/output/mx6sdl/obds/smart_device_rev_a/obj/apps/obds/src/tests/mlb_os81050.o
                                                  /home/leon/git/swp-report/iMX6_Platform_SDK/output/mx6sdl/obds/smart_device_rev_a/obj/apps/obds/src/tests/fm_tuner_si476x_test.o
board_name                                        /home/leon/git/swp-report/iMX6_Platform_SDK/output/mx6sdl/lib/libsdk.a(board_id.o)
                                                  /home/leon/git/swp-report/iMX6_Platform_SDK/output/mx6sdl/obds/smart_device_rev_a/obj/apps/obds/src/tests/program_board_id.o
                                                  /home/leon/git/swp-report/iMX6_Platform_SDK/output/mx6sdl/obds/smart_device_rev_a/obj/apps/obds/src/obds.o
                                                  /home/leon/git/swp-report/iMX6_Platform_SDK/output/mx6sdl/obds/smart_device_rev_a/obj/apps/common/print_version.o
board_revision                                    /home/leon/git/swp-report/iMX6_Platform_SDK/output/mx6sdl/lib/libsdk.a(board_id.o)
                                                  /home/leon/git/swp-report/iMX6_Platform_SDK/output/mx6sdl/obds/smart_device_rev_a/obj/apps/obds/src/tests/program_board_id.o
                                                  /home/leon/git/swp-report/iMX6_Platform_SDK/output/mx6sdl/obds/smart_device_rev_a/obj/apps/obds/src/obds.o
                                                  /home/leon/git/swp-report/iMX6_Platform_SDK/output/mx6sdl/obds/smart_device_rev_a/obj/apps/common/print_version.o
buf                                               /home/leon/git/swp-report/iMX6_Platform_SDK/output/mx6sdl/obds/smart_device_rev_a/obj/apps/obds/src/tests/i2c_device_zigbee_mc1323.o
bzero                                             /home/src/arm/target/bin/../arm-none-eabi/lib//libc.a(lib_a-bzero.o)
                                                  /home/leon/git/swp-report/iMX6_Platform_SDK/output/mx6sdl/lib/libsdk.a(mmu.o)
camera_ipu1_iomux_config                          /home/leon/git/swp-report/iMX6_Platform_SDK/output/mx6sdl/lib/libboard_smart_device_rev_a.a(board_camera.o)
camera_power_on                                   /home/leon/git/swp-report/iMX6_Platform_SDK/output/mx6sdl/lib/libboard_smart_device_rev_a.a(board_camera.o)
                                                  /home/leon/git/swp-report/iMX6_Platform_SDK/output/mx6sdl/lib/libsdk.a(smd_sensor.o)
camera_strobeflash_off                            /home/leon/git/swp-report/iMX6_Platform_SDK/output/mx6sdl/lib/libsdk.a(smd_sensor.o)
camera_strobeflash_on                             /home/leon/git/swp-report/iMX6_Platform_SDK/output/mx6sdl/lib/libsdk.a(smd_sensor.o)
camera_test                                       /home/leon/git/swp-report/iMX6_Platform_SDK/output/mx6sdl/obds/smart_device_rev_a/obj/sdk/drivers/camera/test/camera_test.o
                                                  /home/leon/git/swp-report/iMX6_Platform_SDK/output/mx6sdl/obds/smart_device_rev_a/obj/apps/obds/src/obds.o
card_cmd_config                                   /home/leon/git/swp-report/iMX6_Platform_SDK/output/mx6sdl/lib/libsdk.a(usdhc.o)
                                                  /home/leon/git/swp-report/iMX6_Platform_SDK/output/mx6sdl/lib/libsdk.a(usdhc_sd.o)
                                                  /home/leon/git/swp-report/iMX6_Platform_SDK/output/mx6sdl/lib/libsdk.a(usdhc_mmc.o)
card_data_read                                    /home/leon/git/swp-report/iMX6_Platform_SDK/output/mx6sdl/lib/libsdk.a(usdhc.o)
                                                  /home/leon/git/swp-report/iMX6_Platform_SDK/output/mx6sdl/obds/smart_device_rev_a/obj/sdk/drivers/usdhc/test/usdhc_test.o
card_data_write                                   /home/leon/git/swp-report/iMX6_Platform_SDK/output/mx6sdl/lib/libsdk.a(usdhc.o)
                                                  /home/leon/git/swp-report/iMX6_Platform_SDK/output/mx6sdl/obds/smart_device_rev_a/obj/sdk/drivers/usdhc/test/usdhc_test.o
card_detect_test_en                               /home/leon/git/swp-report/iMX6_Platform_SDK/output/mx6sdl/lib/libsdk.a(usdhc.o)
                                                  /home/leon/git/swp-report/iMX6_Platform_SDK/output/mx6sdl/obds/smart_device_rev_a/obj/apps/obds/src/tests/mmcsd_test.o
card_emmc_init                                    /home/leon/git/swp-report/iMX6_Platform_SDK/output/mx6sdl/lib/libsdk.a(usdhc.o)
                                                  /home/leon/git/swp-report/iMX6_Platform_SDK/output/mx6sdl/obds/smart_device_rev_a/obj/sdk/drivers/usdhc/test/usdhc_test.o
card_enter_trans                                  /home/leon/git/swp-report/iMX6_Platform_SDK/output/mx6sdl/lib/libsdk.a(usdhc.o)
                                                  /home/leon/git/swp-report/iMX6_Platform_SDK/output/mx6sdl/lib/libsdk.a(usdhc_sd.o)
                                                  /home/leon/git/swp-report/iMX6_Platform_SDK/output/mx6sdl/lib/libsdk.a(usdhc_mmc.o)
card_get_cid                                      /home/leon/git/swp-report/iMX6_Platform_SDK/output/mx6sdl/lib/libsdk.a(usdhc.o)
                                                  /home/leon/git/swp-report/iMX6_Platform_SDK/output/mx6sdl/lib/libsdk.a(usdhc_sd.o)
                                                  /home/leon/git/swp-report/iMX6_Platform_SDK/output/mx6sdl/lib/libsdk.a(usdhc_mmc.o)
card_get_port                                     /home/leon/git/swp-report/iMX6_Platform_SDK/output/mx6sdl/lib/libsdk.a(usdhc.o)
                                                  /home/leon/git/swp-report/iMX6_Platform_SDK/output/mx6sdl/lib/libsdk.a(usdhc_sd.o)
                                                  /home/leon/git/swp-report/iMX6_Platform_SDK/output/mx6sdl/lib/libsdk.a(usdhc_mmc.o)
                                                  /home/leon/git/swp-report/iMX6_Platform_SDK/output/mx6sdl/lib/libsdk.a(usdhc_host.o)
card_init                                         /home/leon/git/swp-report/iMX6_Platform_SDK/output/mx6sdl/lib/libsdk.a(usdhc.o)
                                                  /home/leon/git/swp-report/iMX6_Platform_SDK/output/mx6sdl/obds/smart_device_rev_a/obj/sdk/drivers/usdhc/test/usdhc_test.o
card_set_blklen                                   /home/leon/git/swp-report/iMX6_Platform_SDK/output/mx6sdl/lib/libsdk.a(usdhc.o)
card_trans_status                                 /home/leon/git/swp-report/iMX6_Platform_SDK/output/mx6sdl/lib/libsdk.a(usdhc.o)
                                                  /home/leon/git/swp-report/iMX6_Platform_SDK/output/mx6sdl/lib/libsdk.a(usdhc_mmc.o)
card_wait_xfer_done                               /home/leon/git/swp-report/iMX6_Platform_SDK/output/mx6sdl/lib/libsdk.a(usdhc.o)
card_xfer_result                                  /home/leon/git/swp-report/iMX6_Platform_SDK/output/mx6sdl/lib/libsdk.a(usdhc.o)
                                                  /home/leon/git/swp-report/iMX6_Platform_SDK/output/mx6sdl/obds/smart_device_rev_a/obj/sdk/drivers/usdhc/test/usdhc_test.o
ccm_ccgr_config                                   /home/leon/git/swp-report/iMX6_Platform_SDK/output/mx6sdl/lib/libsdk.a(ccm_pll.o)
ccm_enter_low_power                               /home/leon/git/swp-report/iMX6_Platform_SDK/output/mx6sdl/lib/libsdk.a(ccm_pll.o)
ccm_init                                          /home/leon/git/swp-report/iMX6_Platform_SDK/output/mx6sdl/lib/libsdk.a(ccm_pll.o)
                                                  /home/leon/git/swp-report/iMX6_Platform_SDK/output/mx6sdl/obds/smart_device_rev_a/obj/apps/common/platform_init.o
ccm_iomux_config                                  /home/leon/git/swp-report/iMX6_Platform_SDK/output/mx6sdl/lib/libboard_smart_device_rev_a.a(ccm_iomux_config.o)
                                                  /home/leon/git/swp-report/iMX6_Platform_SDK/output/mx6sdl/lib/libboard_smart_device_rev_a.a(iomux_config.o)
                                                  /home/leon/git/swp-report/iMX6_Platform_SDK/output/mx6sdl/lib/libboard_smart_device_rev_a.a(board_audio.o)
ccm_set_lpm_wakeup_source                         /home/leon/git/swp-report/iMX6_Platform_SDK/output/mx6sdl/lib/libsdk.a(ccm_pll.o)
check_android_button_status                       /home/leon/git/swp-report/iMX6_Platform_SDK/output/mx6sdl/obds/smart_device_rev_a/obj/apps/obds/src/tests/android_buttons_test.o
chip_name                                         /home/leon/git/swp-report/iMX6_Platform_SDK/output/mx6sdl/lib/libsdk.a(board_id.o)
                                                  /home/leon/git/swp-report/iMX6_Platform_SDK/output/mx6sdl/obds/smart_device_rev_a/obj/apps/obds/src/tests/program_board_id.o
                                                  /home/leon/git/swp-report/iMX6_Platform_SDK/output/mx6sdl/obds/smart_device_rev_a/obj/apps/obds/src/obds.o
                                                  /home/leon/git/swp-report/iMX6_Platform_SDK/output/mx6sdl/obds/smart_device_rev_a/obj/apps/common/print_version.o
chip_revision                                     /home/leon/git/swp-report/iMX6_Platform_SDK/output/mx6sdl/lib/libsdk.a(board_id.o)
                                                  /home/leon/git/swp-report/iMX6_Platform_SDK/output/mx6sdl/obds/smart_device_rev_a/obj/apps/obds/src/tests/program_board_id.o
                                                  /home/leon/git/swp-report/iMX6_Platform_SDK/output/mx6sdl/obds/smart_device_rev_a/obj/apps/obds/src/obds.o
                                                  /home/leon/git/swp-report/iMX6_Platform_SDK/output/mx6sdl/obds/smart_device_rev_a/obj/apps/common/print_version.o
cleanup_glue                                      /home/src/arm/target/bin/../arm-none-eabi/lib//libc.a(lib_a-reent.o)
clock_gating_config                               /home/leon/git/swp-report/iMX6_Platform_SDK/output/mx6sdl/lib/libsdk.a(ccm_pll.o)
                                                  /home/leon/git/swp-report/iMX6_Platform_SDK/output/mx6sdl/lib/libboard_smart_device_rev_a.a(board_audio.o)
                                                  /home/leon/git/swp-report/iMX6_Platform_SDK/output/mx6sdl/lib/libsdk.a(epit.o)
                                                  /home/leon/git/swp-report/iMX6_Platform_SDK/output/mx6sdl/lib/libsdk.a(imx_uart.o)
                                                  /home/leon/git/swp-report/iMX6_Platform_SDK/output/mx6sdl/lib/libsdk.a(ecspi.o)
                                                  /home/leon/git/swp-report/iMX6_Platform_SDK/output/mx6sdl/lib/libsdk.a(imx_i2c.o)
common_abort_handler                              /home/leon/git/swp-report/iMX6_Platform_SDK/output/mx6sdl/lib/libsdk.a(arm_abort.o)
configure_android_button                          /home/leon/git/swp-report/iMX6_Platform_SDK/output/mx6sdl/obds/smart_device_rev_a/obj/apps/obds/src/tests/android_buttons_test.o
cpu_get_current                                   /home/leon/git/swp-report/iMX6_Platform_SDK/output/mx6sdl/lib/libsdk.a(cortexA9.o)
cs42888                                           /home/leon/git/swp-report/iMX6_Platform_SDK/output/mx6sdl/lib/libsdk.a(cs42888.o)
                                                  /home/leon/git/swp-report/iMX6_Platform_SDK/output/mx6sdl/obds/smart_device_rev_a/obj/sdk/drivers/audio/src/snd_card.o
cs42888_config                                    /home/leon/git/swp-report/iMX6_Platform_SDK/output/mx6sdl/lib/libsdk.a(cs42888.o)
cs42888_deinit                                    /home/leon/git/swp-report/iMX6_Platform_SDK/output/mx6sdl/lib/libsdk.a(cs42888.o)
                                                  /home/leon/git/swp-report/iMX6_Platform_SDK/output/mx6sdl/obds/smart_device_rev_a/obj/apps/obds/src/tests/i2c_device_check_cs42888.o
cs42888_dev_info                                  /home/leon/git/swp-report/iMX6_Platform_SDK/output/mx6sdl/lib/libsdk.a(cs42888.o)
cs42888_i2c_req                                   /home/leon/git/swp-report/iMX6_Platform_SDK/output/mx6sdl/lib/libsdk.a(cs42888.o)
cs42888_init                                      /home/leon/git/swp-report/iMX6_Platform_SDK/output/mx6sdl/lib/libsdk.a(cs42888.o)
                                                  /home/leon/git/swp-report/iMX6_Platform_SDK/output/mx6sdl/obds/smart_device_rev_a/obj/apps/obds/src/tests/i2c_device_check_cs42888.o
cs42888_ops                                       /home/leon/git/swp-report/iMX6_Platform_SDK/output/mx6sdl/lib/libsdk.a(cs42888.o)
csi_dma_band_mode                                 /home/leon/git/swp-report/iMX6_Platform_SDK/output/mx6sdl/lib/libsdk.a(ipu_common.o)
                                                  /home/leon/git/swp-report/iMX6_Platform_SDK/output/mx6sdl/obds/smart_device_rev_a/obj/sdk/drivers/camera/test/csi_test_mode.o
                                                  /home/leon/git/swp-report/iMX6_Platform_SDK/output/mx6sdl/obds/smart_device_rev_a/obj/sdk/drivers/camera/test/camera_test.o
csi_port0_iomux_config                            /home/leon/git/swp-report/iMX6_Platform_SDK/output/mx6sdl/lib/libboard_smart_device_rev_a.a(board_camera.o)
                                                  /home/leon/git/swp-report/iMX6_Platform_SDK/output/mx6sdl/lib/libsdk.a(smd_sensor.o)
                                                  /home/leon/git/swp-report/iMX6_Platform_SDK/output/mx6sdl/obds/smart_device_rev_a/obj/apps/obds/src/tests/deserializer_ds90ur124.o
csi_test_mode                                     /home/leon/git/swp-report/iMX6_Platform_SDK/output/mx6sdl/obds/smart_device_rev_a/obj/sdk/drivers/camera/test/csi_test_mode.o
                                                  /home/leon/git/swp-report/iMX6_Platform_SDK/output/mx6sdl/obds/smart_device_rev_a/obj/sdk/drivers/camera/test/camera_test.o
csi_vdi_direct_path                               /home/leon/git/swp-report/iMX6_Platform_SDK/output/mx6sdl/lib/libsdk.a(ipu_common.o)
                                                  /home/leon/git/swp-report/iMX6_Platform_SDK/output/mx6sdl/lib/libsdk.a(ipu_idmac.o)
                                                  /home/leon/git/swp-report/iMX6_Platform_SDK/output/mx6sdl/lib/libsdk.a(ipu_csi.o)
da9053_i2c_reg                                    /home/leon/git/swp-report/iMX6_Platform_SDK/output/mx6sdl/obds/smart_device_rev_a/obj/apps/obds/src/tests/pmic_da9053.o
data_abort_handler                                /home/leon/git/swp-report/iMX6_Platform_SDK/output/mx6sdl/lib/libsdk.a(arm_abort.o)
                                                  /home/leon/git/swp-report/iMX6_Platform_SDK/output/mx6sdl/lib/libsdk.a(vectors.o)
dcic1_iomux_config                                /home/leon/git/swp-report/iMX6_Platform_SDK/output/mx6sdl/lib/libboard_smart_device_rev_a.a(iomux_config.o)
dcic2_iomux_config                                /home/leon/git/swp-report/iMX6_Platform_SDK/output/mx6sdl/lib/libboard_smart_device_rev_a.a(iomux_config.o)
ddr_test                                          /home/leon/git/swp-report/iMX6_Platform_SDK/output/mx6sdl/obds/smart_device_rev_a/obj/apps/obds/src/tests/ddr_test.o
                                                  /home/leon/git/swp-report/iMX6_Platform_SDK/output/mx6sdl/obds/smart_device_rev_a/obj/apps/obds/src/obds.o
default_interrupt_routine                         /home/leon/git/swp-report/iMX6_Platform_SDK/output/mx6sdl/lib/libsdk.a(interrupt.o)
deserializer_io_config                            /home/leon/git/swp-report/iMX6_Platform_SDK/output/mx6sdl/obds/smart_device_rev_a/obj/apps/obds/src/tests/deserializer_ds90ur124.o
dev_spi_nor                                       /home/leon/git/swp-report/iMX6_Platform_SDK/output/mx6sdl/obds/smart_device_rev_a/obj/apps/obds/src/tests/imx_spi_nor_test.o
                                                  /home/leon/git/swp-report/iMX6_Platform_SDK/output/mx6sdl/obds/smart_device_rev_a/obj/sdk/drivers/spi/test/spi_nor_numonyx.o
                                                  /home/leon/git/swp-report/iMX6_Platform_SDK/output/mx6sdl/obds/smart_device_rev_a/obj/sdk/drivers/spi/test/imx_spi_nor_atmel.o
device_id_check_mc13892                           /home/leon/git/swp-report/iMX6_Platform_SDK/output/mx6sdl/obds/smart_device_rev_a/obj/apps/obds/src/tests/pmic_mc13892.o
disable_L1_cache                                  /home/leon/git/swp-report/iMX6_Platform_SDK/output/mx6sdl/lib/libsdk.a(cortexA9.o)
disable_interrupt                                 /home/leon/git/swp-report/iMX6_Platform_SDK/output/mx6sdl/lib/libsdk.a(interrupt.o)
                                                  /home/leon/git/swp-report/iMX6_Platform_SDK/output/mx6sdl/lib/libsdk.a(epit.o)
                                                  /home/leon/git/swp-report/iMX6_Platform_SDK/output/mx6sdl/lib/libsdk.a(usdhc.o)
                                                  /home/leon/git/swp-report/iMX6_Platform_SDK/output/mx6sdl/lib/libsdk.a(imx_uart.o)
                                                  /home/leon/git/swp-report/iMX6_Platform_SDK/output/mx6sdl/lib/libsdk.a(imx_i2c.o)
                                                  /home/leon/git/swp-report/iMX6_Platform_SDK/output/mx6sdl/obds/smart_device_rev_a/obj/sdk/drivers/hdmi/test/hdmi_test.o
disable_para_panel                                /home/leon/git/swp-report/iMX6_Platform_SDK/output/mx6sdl/lib/libboard_smart_device_rev_a.a(board_display.o)
disable_strict_align_check                        /home/leon/git/swp-report/iMX6_Platform_SDK/output/mx6sdl/lib/libsdk.a(cortexA9.o)
                                                  /home/leon/git/swp-report/iMX6_Platform_SDK/output/mx6sdl/obds/smart_device_rev_a/obj/apps/common/platform_init.o
disp_dev_list                                     /home/leon/git/swp-report/iMX6_Platform_SDK/output/mx6sdl/lib/libsdk.a(ips_disp_panel.o)
ds90ur124_init                                    /home/leon/git/swp-report/iMX6_Platform_SDK/output/mx6sdl/obds/smart_device_rev_a/obj/apps/obds/src/tests/deserializer_ds90ur124.o
ds90ur124_receive_cnx_test                        /home/leon/git/swp-report/iMX6_Platform_SDK/output/mx6sdl/obds/smart_device_rev_a/obj/apps/obds/src/tests/deserializer_ds90ur124.o
ds90ur124_test_enable                             /home/leon/git/swp-report/iMX6_Platform_SDK/output/mx6sdl/obds/smart_device_rev_a/obj/apps/obds/src/tests/deserializer_ds90ur124.o
ds90ur124_test_main                               /home/leon/git/swp-report/iMX6_Platform_SDK/output/mx6sdl/obds/smart_device_rev_a/obj/apps/obds/src/tests/deserializer_ds90ur124.o
dump_regs                                         /home/leon/git/swp-report/iMX6_Platform_SDK/output/mx6sdl/lib/libsdk.a(abort_handler.o)
                                                  /home/leon/git/swp-report/iMX6_Platform_SDK/output/mx6sdl/lib/libsdk.a(arm_abort.o)
ecspi1_iomux_config                               /home/leon/git/swp-report/iMX6_Platform_SDK/output/mx6sdl/lib/libboard_smart_device_rev_a.a(ecspi1_iomux_config.o)
                                                  /home/leon/git/swp-report/iMX6_Platform_SDK/output/mx6sdl/lib/libboard_smart_device_rev_a.a(iomux_config.o)
                                                  /home/leon/git/swp-report/iMX6_Platform_SDK/output/mx6sdl/lib/libboard_smart_device_rev_a.a(ecspi_iomux_config.o)
ecspi2_iomux_config                               /home/leon/git/swp-report/iMX6_Platform_SDK/output/mx6sdl/lib/libboard_smart_device_rev_a.a(iomux_config.o)
                                                  /home/leon/git/swp-report/iMX6_Platform_SDK/output/mx6sdl/lib/libboard_smart_device_rev_a.a(ecspi_iomux_config.o)
ecspi3_iomux_config                               /home/leon/git/swp-report/iMX6_Platform_SDK/output/mx6sdl/lib/libboard_smart_device_rev_a.a(iomux_config.o)
                                                  /home/leon/git/swp-report/iMX6_Platform_SDK/output/mx6sdl/lib/libboard_smart_device_rev_a.a(ecspi_iomux_config.o)
ecspi4_iomux_config                               /home/leon/git/swp-report/iMX6_Platform_SDK/output/mx6sdl/lib/libboard_smart_device_rev_a.a(iomux_config.o)
                                                  /home/leon/git/swp-report/iMX6_Platform_SDK/output/mx6sdl/lib/libboard_smart_device_rev_a.a(ecspi_iomux_config.o)
ecspi_close                                       /home/leon/git/swp-report/iMX6_Platform_SDK/output/mx6sdl/lib/libsdk.a(ecspi.o)
ecspi_configure                                   /home/leon/git/swp-report/iMX6_Platform_SDK/output/mx6sdl/lib/libsdk.a(ecspi.o)
ecspi_iomux_config                                /home/leon/git/swp-report/iMX6_Platform_SDK/output/mx6sdl/lib/libboard_smart_device_rev_a.a(ecspi_iomux_config.o)
                                                  /home/leon/git/swp-report/iMX6_Platform_SDK/output/mx6sdl/lib/libsdk.a(ecspi.o)
ecspi_open                                        /home/leon/git/swp-report/iMX6_Platform_SDK/output/mx6sdl/lib/libsdk.a(ecspi.o)
                                                  /home/leon/git/swp-report/iMX6_Platform_SDK/output/mx6sdl/obds/smart_device_rev_a/obj/apps/obds/src/tests/imx_spi_nor_test.o
ecspi_xfer                                        /home/leon/git/swp-report/iMX6_Platform_SDK/output/mx6sdl/lib/libsdk.a(ecspi.o)
                                                  /home/leon/git/swp-report/iMX6_Platform_SDK/output/mx6sdl/obds/smart_device_rev_a/obj/sdk/drivers/spi/test/spi_nor_numonyx.o
                                                  /home/leon/git/swp-report/iMX6_Platform_SDK/output/mx6sdl/obds/smart_device_rev_a/obj/sdk/drivers/spi/test/imx_spi_nor_atmel.o
eeprom_test_enable                                /home/leon/git/swp-report/iMX6_Platform_SDK/output/mx6sdl/obds/smart_device_rev_a/obj/apps/obds/src/tests/i2c_eeprom_at24cxx_test.o
eim_iomux_config                                  /home/leon/git/swp-report/iMX6_Platform_SDK/output/mx6sdl/lib/libboard_smart_device_rev_a.a(iomux_config.o)
                                                  /home/leon/git/swp-report/iMX6_Platform_SDK/output/mx6sdl/obds/smart_device_rev_a/obj/apps/obds/src/tests/weim_nor_flash_test.o
eim_nor_flash_test                                /home/leon/git/swp-report/iMX6_Platform_SDK/output/mx6sdl/obds/smart_device_rev_a/obj/apps/obds/src/tests/weim_nor_flash_test.o
emmc_init                                         /home/leon/git/swp-report/iMX6_Platform_SDK/output/mx6sdl/lib/libsdk.a(usdhc_mmc.o)
                                                  /home/leon/git/swp-report/iMX6_Platform_SDK/output/mx6sdl/lib/libsdk.a(usdhc.o)
emmc_print_cfg_info                               /home/leon/git/swp-report/iMX6_Platform_SDK/output/mx6sdl/lib/libsdk.a(usdhc_mmc.o)
                                                  /home/leon/git/swp-report/iMX6_Platform_SDK/output/mx6sdl/obds/smart_device_rev_a/obj/sdk/drivers/usdhc/test/usdhc_test.o
emuerateDevice                                    /home/leon/git/swp-report/iMX6_Platform_SDK/output/mx6sdl/obds/smart_device_rev_a/obj/sdk/drivers/usb/test/usb0_host_test.o
enable_interrupt                                  /home/leon/git/swp-report/iMX6_Platform_SDK/output/mx6sdl/lib/libsdk.a(interrupt.o)
                                                  /home/leon/git/swp-report/iMX6_Platform_SDK/output/mx6sdl/lib/libsdk.a(epit.o)
                                                  /home/leon/git/swp-report/iMX6_Platform_SDK/output/mx6sdl/lib/libsdk.a(usdhc.o)
                                                  /home/leon/git/swp-report/iMX6_Platform_SDK/output/mx6sdl/lib/libsdk.a(imx_uart.o)
                                                  /home/leon/git/swp-report/iMX6_Platform_SDK/output/mx6sdl/lib/libsdk.a(ipu_common.o)
                                                  /home/leon/git/swp-report/iMX6_Platform_SDK/output/mx6sdl/lib/libsdk.a(imx_i2c.o)
                                                  /home/leon/git/swp-report/iMX6_Platform_SDK/output/mx6sdl/obds/smart_device_rev_a/obj/sdk/drivers/hdmi/test/hdmi_test.o
enable_neon_fpu                                   /home/leon/git/swp-report/iMX6_Platform_SDK/output/mx6sdl/lib/libsdk.a(cortexA9.o)
                                                  /home/leon/git/swp-report/iMX6_Platform_SDK/output/mx6sdl/obds/smart_device_rev_a/obj/apps/common/platform_init.o
end                                               /home/src/arm/target/bin/../arm-none-eabi/lib//libc.a(lib_a-syscalls.o)
enet_iomux_config                                 /home/leon/git/swp-report/iMX6_Platform_SDK/output/mx6sdl/lib/libboard_smart_device_rev_a.a(enet_iomux_config.o)
                                                  /home/leon/git/swp-report/iMX6_Platform_SDK/output/mx6sdl/lib/libboard_smart_device_rev_a.a(iomux_config.o)
                                                  /home/leon/git/swp-report/iMX6_Platform_SDK/output/mx6sdl/lib/libboard_smart_device_rev_a.a(board_network.o)
enet_phy_rework_ar8031                            /home/leon/git/swp-report/iMX6_Platform_SDK/output/mx6sdl/lib/libsdk.a(enet_drv.o)
enet_phy_rework_ksz9021                           /home/leon/git/swp-report/iMX6_Platform_SDK/output/mx6sdl/lib/libsdk.a(enet_drv.o)
enet_test_main                                    /home/leon/git/swp-report/iMX6_Platform_SDK/output/mx6sdl/obds/smart_device_rev_a/obj/apps/obds/src/tests/enet_mx6dldq_test.o
epdc_any_luts_active                              /home/leon/git/swp-report/iMX6_Platform_SDK/output/mx6sdl/lib/libsdk.a(mxc_epdc.o)
epdc_any_luts_available                           /home/leon/git/swp-report/iMX6_Platform_SDK/output/mx6sdl/lib/libsdk.a(mxc_epdc.o)
epdc_buffer_init                                  /home/leon/git/swp-report/iMX6_Platform_SDK/output/mx6sdl/lib/libsdk.a(mxc_epdc.o)
                                                  /home/leon/git/swp-report/iMX6_Platform_SDK/output/mx6sdl/obds/smart_device_rev_a/obj/sdk/drivers/epdc/test/epdc_test.o
epdc_clear_lut_complete_irq                       /home/leon/git/swp-report/iMX6_Platform_SDK/output/mx6sdl/lib/libsdk.a(mxc_epdc.o)
epdc_clock_setting                                /home/leon/git/swp-report/iMX6_Platform_SDK/output/mx6sdl/lib/libboard_smart_device_rev_a.a(board_display.o)
                                                  /home/leon/git/swp-report/iMX6_Platform_SDK/output/mx6sdl/obds/smart_device_rev_a/obj/sdk/drivers/epdc/test/epdc_test.o
epdc_dump_registers                               /home/leon/git/swp-report/iMX6_Platform_SDK/output/mx6sdl/lib/libsdk.a(mxc_epdc.o)
epdc_get_next_lut                                 /home/leon/git/swp-report/iMX6_Platform_SDK/output/mx6sdl/lib/libsdk.a(mxc_epdc.o)
                                                  /home/leon/git/swp-report/iMX6_Platform_SDK/output/mx6sdl/obds/smart_device_rev_a/obj/sdk/drivers/epdc/test/epdc_test.o
epdc_init_settings                                /home/leon/git/swp-report/iMX6_Platform_SDK/output/mx6sdl/lib/libsdk.a(mxc_epdc.o)
                                                  /home/leon/git/swp-report/iMX6_Platform_SDK/output/mx6sdl/obds/smart_device_rev_a/obj/sdk/drivers/epdc/test/epdc_test.o
epdc_iomux_config                                 /home/leon/git/swp-report/iMX6_Platform_SDK/output/mx6sdl/lib/libboard_smart_device_rev_a.a(epdc_iomux_config.o)
                                                  /home/leon/git/swp-report/iMX6_Platform_SDK/output/mx6sdl/lib/libboard_smart_device_rev_a.a(iomux_config.o)
                                                  /home/leon/git/swp-report/iMX6_Platform_SDK/output/mx6sdl/obds/smart_device_rev_a/obj/sdk/drivers/epdc/test/epdc_test.o
epdc_is_collision                                 /home/leon/git/swp-report/iMX6_Platform_SDK/output/mx6sdl/lib/libsdk.a(mxc_epdc.o)
epdc_is_lut_active                                /home/leon/git/swp-report/iMX6_Platform_SDK/output/mx6sdl/lib/libsdk.a(mxc_epdc.o)
                                                  /home/leon/git/swp-report/iMX6_Platform_SDK/output/mx6sdl/obds/smart_device_rev_a/obj/sdk/drivers/epdc/test/epdc_test.o
epdc_is_lut_complete                              /home/leon/git/swp-report/iMX6_Platform_SDK/output/mx6sdl/lib/libsdk.a(mxc_epdc.o)
epdc_is_working_buffer_busy                       /home/leon/git/swp-report/iMX6_Platform_SDK/output/mx6sdl/lib/libsdk.a(mxc_epdc.o)
                                                  /home/leon/git/swp-report/iMX6_Platform_SDK/output/mx6sdl/obds/smart_device_rev_a/obj/sdk/drivers/epdc/test/epdc_test.o
epdc_is_working_buffer_complete                   /home/leon/git/swp-report/iMX6_Platform_SDK/output/mx6sdl/lib/libsdk.a(mxc_epdc.o)
epdc_load_image                                   /home/leon/git/swp-report/iMX6_Platform_SDK/output/mx6sdl/lib/libsdk.a(mxc_epdc.o)
                                                  /home/leon/git/swp-report/iMX6_Platform_SDK/output/mx6sdl/obds/smart_device_rev_a/obj/sdk/drivers/epdc/test/epdc_test.o
epdc_power_supply                                 /home/leon/git/swp-report/iMX6_Platform_SDK/output/mx6sdl/lib/libboard_smart_device_rev_a.a(board_display.o)
                                                  /home/leon/git/swp-report/iMX6_Platform_SDK/output/mx6sdl/obds/smart_device_rev_a/obj/sdk/drivers/epdc/test/epdc_test.o
epdc_pvi_svga_sdr_init                            /home/leon/git/swp-report/iMX6_Platform_SDK/output/mx6sdl/obds/smart_device_rev_a/obj/sdk/drivers/epdc/test/epdc_test.o
epdc_reset                                        /home/leon/git/swp-report/iMX6_Platform_SDK/output/mx6sdl/lib/libsdk.a(mxc_epdc.o)
                                                  /home/leon/git/swp-report/iMX6_Platform_SDK/output/mx6sdl/obds/smart_device_rev_a/obj/sdk/drivers/epdc/test/epdc_test.o
epdc_send_erase_to_color                          /home/leon/git/swp-report/iMX6_Platform_SDK/output/mx6sdl/obds/smart_device_rev_a/obj/sdk/drivers/epdc/test/epdc_test.o
epdc_send_image_update                            /home/leon/git/swp-report/iMX6_Platform_SDK/output/mx6sdl/obds/smart_device_rev_a/obj/sdk/drivers/epdc/test/epdc_test.o
epdc_send_mode0_to_black_update                   /home/leon/git/swp-report/iMX6_Platform_SDK/output/mx6sdl/obds/smart_device_rev_a/obj/sdk/drivers/epdc/test/epdc_test.o
epdc_set_update_addr                              /home/leon/git/swp-report/iMX6_Platform_SDK/output/mx6sdl/lib/libsdk.a(mxc_epdc.o)
                                                  /home/leon/git/swp-report/iMX6_Platform_SDK/output/mx6sdl/obds/smart_device_rev_a/obj/sdk/drivers/epdc/test/epdc_test.o
epdc_set_update_coord                             /home/leon/git/swp-report/iMX6_Platform_SDK/output/mx6sdl/lib/libsdk.a(mxc_epdc.o)
                                                  /home/leon/git/swp-report/iMX6_Platform_SDK/output/mx6sdl/obds/smart_device_rev_a/obj/sdk/drivers/epdc/test/epdc_test.o
epdc_set_update_dimensions                        /home/leon/git/swp-report/iMX6_Platform_SDK/output/mx6sdl/lib/libsdk.a(mxc_epdc.o)
                                                  /home/leon/git/swp-report/iMX6_Platform_SDK/output/mx6sdl/obds/smart_device_rev_a/obj/sdk/drivers/epdc/test/epdc_test.o
epdc_set_vertical_timing                          /home/leon/git/swp-report/iMX6_Platform_SDK/output/mx6sdl/lib/libsdk.a(mxc_epdc.o)
epdc_submit_update                                /home/leon/git/swp-report/iMX6_Platform_SDK/output/mx6sdl/lib/libsdk.a(mxc_epdc.o)
                                                  /home/leon/git/swp-report/iMX6_Platform_SDK/output/mx6sdl/obds/smart_device_rev_a/obj/sdk/drivers/epdc/test/epdc_test.o
epdc_test                                         /home/leon/git/swp-report/iMX6_Platform_SDK/output/mx6sdl/obds/smart_device_rev_a/obj/sdk/drivers/epdc/test/epdc_test.o
                                                  /home/leon/git/swp-report/iMX6_Platform_SDK/output/mx6sdl/obds/smart_device_rev_a/obj/apps/obds/src/obds.o
epdc_update_image                                 /home/leon/git/swp-report/iMX6_Platform_SDK/output/mx6sdl/obds/smart_device_rev_a/obj/sdk/drivers/epdc/test/epdc_test.o
epit1_iomux_config                                /home/leon/git/swp-report/iMX6_Platform_SDK/output/mx6sdl/lib/libboard_smart_device_rev_a.a(iomux_config.o)
epit2_iomux_config                                /home/leon/git/swp-report/iMX6_Platform_SDK/output/mx6sdl/lib/libboard_smart_device_rev_a.a(iomux_config.o)
epit_counter_disable                              /home/leon/git/swp-report/iMX6_Platform_SDK/output/mx6sdl/lib/libsdk.a(epit.o)
                                                  /home/leon/git/swp-report/iMX6_Platform_SDK/output/mx6sdl/lib/libsdk.a(timer.o)
epit_counter_enable                               /home/leon/git/swp-report/iMX6_Platform_SDK/output/mx6sdl/lib/libsdk.a(epit.o)
                                                  /home/leon/git/swp-report/iMX6_Platform_SDK/output/mx6sdl/lib/libsdk.a(timer.o)
epit_get_compare_event                            /home/leon/git/swp-report/iMX6_Platform_SDK/output/mx6sdl/lib/libsdk.a(epit.o)
                                                  /home/leon/git/swp-report/iMX6_Platform_SDK/output/mx6sdl/lib/libsdk.a(timer.o)
epit_get_counter_value                            /home/leon/git/swp-report/iMX6_Platform_SDK/output/mx6sdl/lib/libsdk.a(epit.o)
epit_init                                         /home/leon/git/swp-report/iMX6_Platform_SDK/output/mx6sdl/lib/libsdk.a(epit.o)
                                                  /home/leon/git/swp-report/iMX6_Platform_SDK/output/mx6sdl/lib/libsdk.a(timer.o)
epit_reload_counter                               /home/leon/git/swp-report/iMX6_Platform_SDK/output/mx6sdl/lib/libsdk.a(epit.o)
epit_set_compare_event                            /home/leon/git/swp-report/iMX6_Platform_SDK/output/mx6sdl/lib/libsdk.a(epit.o)
epit_setup_interrupt                              /home/leon/git/swp-report/iMX6_Platform_SDK/output/mx6sdl/lib/libsdk.a(epit.o)
errno                                             /home/src/arm/target/bin/../arm-none-eabi/lib//libc.a(lib_a-reent.o)
                                                  /home/src/arm/target/bin/../arm-none-eabi/lib//libc.a(lib_a-readr.o)
                                                  /home/src/arm/target/bin/../arm-none-eabi/lib//libc.a(lib_a-lseekr.o)
                                                  /home/src/arm/target/bin/../arm-none-eabi/lib//libc.a(lib_a-isattyr.o)
                                                  /home/src/arm/target/bin/../arm-none-eabi/lib//libc.a(lib_a-fstatr.o)
                                                  /home/src/arm/target/bin/../arm-none-eabi/lib//libc.a(lib_a-closer.o)
                                                  /home/src/arm/target/bin/../arm-none-eabi/lib//libc.a(lib_a-writer.o)
                                                  /home/src/arm/target/bin/../arm-none-eabi/lib//libc.a(lib_a-signalr.o)
                                                  /home/src/arm/target/bin/../arm-none-eabi/lib//libc.a(lib_a-sbrkr.o)
esai_clk_sel_gate_on                              /home/leon/git/swp-report/iMX6_Platform_SDK/output/mx6sdl/lib/libboard_smart_device_rev_a.a(board_audio.o)
                                                  /home/leon/git/swp-report/iMX6_Platform_SDK/output/mx6sdl/lib/libsdk.a(imx_esai.o)
esai_codec_power_on                               /home/leon/git/swp-report/iMX6_Platform_SDK/output/mx6sdl/lib/libboard_smart_device_rev_a.a(board_audio.o)
                                                  /home/leon/git/swp-report/iMX6_Platform_SDK/output/mx6sdl/lib/libsdk.a(cs42888.o)
esai_config                                       /home/leon/git/swp-report/iMX6_Platform_SDK/output/mx6sdl/lib/libsdk.a(imx_esai.o)
esai_deinit                                       /home/leon/git/swp-report/iMX6_Platform_SDK/output/mx6sdl/lib/libsdk.a(imx_esai.o)
esai_init                                         /home/leon/git/swp-report/iMX6_Platform_SDK/output/mx6sdl/lib/libsdk.a(imx_esai.o)
esai_iomux_config                                 /home/leon/git/swp-report/iMX6_Platform_SDK/output/mx6sdl/lib/libboard_smart_device_rev_a.a(iomux_config.o)
                                                  /home/leon/git/swp-report/iMX6_Platform_SDK/output/mx6sdl/lib/libsdk.a(imx_esai.o)
esai_test                                         /home/leon/git/swp-report/iMX6_Platform_SDK/output/mx6sdl/obds/smart_device_rev_a/obj/apps/obds/src/tests/audio_esai_test.o
esai_write_fifo                                   /home/leon/git/swp-report/iMX6_Platform_SDK/output/mx6sdl/lib/libsdk.a(imx_esai.o)
exception_handler                                 /home/leon/git/swp-report/iMX6_Platform_SDK/output/mx6sdl/lib/libsdk.a(vectors.o)
ext_hdmi_transmitter_power_on                     /home/leon/git/swp-report/iMX6_Platform_SDK/output/mx6sdl/lib/libboard_smart_device_rev_a.a(board_hdmi.o)
                                                  /home/leon/git/swp-report/iMX6_Platform_SDK/output/mx6sdl/lib/libsdk.a(ips_disp_panel.o)
fclose                                            /home/src/arm/target/bin/../arm-none-eabi/lib//libc.a(lib_a-fclose.o)
                                                  /home/src/arm/target/bin/../arm-none-eabi/lib//libc.a(lib_a-findfp.o)
fflush                                            /home/src/arm/target/bin/../arm-none-eabi/lib//libc.a(lib_a-fflush.o)
                                                  /home/src/arm/target/bin/../arm-none-eabi/lib//libc.a(lib_a-refill.o)
fiprintf                                          /home/src/arm/target/bin/../arm-none-eabi/lib//libc.a(lib_a-fiprintf.o)
                                                  /home/src/arm/target/bin/../arm-none-eabi/lib//libc.a(lib_a-assert.o)
flexcan1_iomux_config                             /home/leon/git/swp-report/iMX6_Platform_SDK/output/mx6sdl/lib/libboard_smart_device_rev_a.a(flexcan1_iomux_config.o)
                                                  /home/leon/git/swp-report/iMX6_Platform_SDK/output/mx6sdl/lib/libboard_smart_device_rev_a.a(iomux_config.o)
flexcan2_iomux_config                             /home/leon/git/swp-report/iMX6_Platform_SDK/output/mx6sdl/lib/libboard_smart_device_rev_a.a(iomux_config.o)
flexcan_test                                      /home/leon/git/swp-report/iMX6_Platform_SDK/output/mx6sdl/obds/smart_device_rev_a/obj/apps/obds/src/tests/flexcan_test.o
fputc                                             /home/src/arm/target/bin/../arm-none-eabi/lib//libc.a(lib_a-fputc.o)
                                                  /home/leon/git/swp-report/iMX6_Platform_SDK/output/mx6sdl/lib/libsdk.a(system_util.o)
                                                  /home/leon/git/swp-report/iMX6_Platform_SDK/output/mx6sdl/lib/libsdk.a(menu.o)
                                                  /home/leon/git/swp-report/iMX6_Platform_SDK/output/mx6sdl/obds/smart_device_rev_a/obj/apps/obds/src/tests/program_mac_address.o
fputwc                                            /home/src/arm/target/bin/../arm-none-eabi/lib//libc.a(lib_a-fputwc.o)
frame_list                                        /home/leon/git/swp-report/iMX6_Platform_SDK/output/mx6sdl/obds/smart_device_rev_a/obj/sdk/drivers/usb/test/usb0_host_test.o
free                                              /home/src/arm/target/bin/../arm-none-eabi/lib//libc.a(lib_a-malloc.o)
                                                  /home/leon/git/swp-report/iMX6_Platform_SDK/output/mx6sdl/lib/libsdk.a(usbh_drv.o)
                                                  /home/leon/git/swp-report/iMX6_Platform_SDK/output/mx6sdl/obds/smart_device_rev_a/obj/sdk/drivers/usb/test/usb0_host_test.o
                                                  /home/leon/git/swp-report/iMX6_Platform_SDK/output/mx6sdl/obds/smart_device_rev_a/obj/apps/obds/src/tests/usb_tests_obds.o
                                                  /home/leon/git/swp-report/iMX6_Platform_SDK/output/mx6sdl/obds/smart_device_rev_a/obj/apps/obds/src/obds.o
free_test_results                                 /home/leon/git/swp-report/iMX6_Platform_SDK/output/mx6sdl/obds/smart_device_rev_a/obj/apps/obds/src/obds.o
fsl_gray_600x230                                  /home/leon/git/swp-report/iMX6_Platform_SDK/output/mx6sdl/lib/libsdk.a(mxc_epdc.o)
gAudio_sample                                     /home/leon/git/swp-report/iMX6_Platform_SDK/output/mx6sdl/obds/smart_device_rev_a/obj/sdk/drivers/hdmi/test/init_dma_data.o
gImage_foretext                                   /home/leon/git/swp-report/iMX6_Platform_SDK/output/mx6sdl/obds/smart_device_rev_a/obj/sdk/drivers/ipu/test/ipu_image.o
gImage_fsl                                        /home/leon/git/swp-report/iMX6_Platform_SDK/output/mx6sdl/obds/smart_device_rev_a/obj/apps/obds/src/tests/display_test.o
g_KSZ9021RN_test_name                             /home/leon/git/swp-report/iMX6_Platform_SDK/output/mx6sdl/obds/smart_device_rev_a/obj/apps/obds/src/tests/enet_mx6dldq_test.o
g_TextAttributeBlink                              /home/leon/git/swp-report/iMX6_Platform_SDK/output/mx6sdl/lib/libsdk.a(text_color.o)
g_TextAttributeBold                               /home/leon/git/swp-report/iMX6_Platform_SDK/output/mx6sdl/lib/libsdk.a(text_color.o)
                                                  /home/leon/git/swp-report/iMX6_Platform_SDK/output/mx6sdl/lib/libsdk.a(system_util.o)
                                                  /home/leon/git/swp-report/iMX6_Platform_SDK/output/mx6sdl/lib/libsdk.a(menu.o)
                                                  /home/leon/git/swp-report/iMX6_Platform_SDK/output/mx6sdl/obds/smart_device_rev_a/obj/apps/obds/src/tests/program_mac_address.o
                                                  /home/leon/git/swp-report/iMX6_Platform_SDK/output/mx6sdl/obds/smart_device_rev_a/obj/apps/obds/src/tests/program_board_id.o
                                                  /home/leon/git/swp-report/iMX6_Platform_SDK/output/mx6sdl/obds/smart_device_rev_a/obj/apps/obds/src/obds.o
g_TextAttributeDefault                            /home/leon/git/swp-report/iMX6_Platform_SDK/output/mx6sdl/lib/libsdk.a(text_color.o)
                                                  /home/leon/git/swp-report/iMX6_Platform_SDK/output/mx6sdl/lib/libsdk.a(menu.o)
                                                  /home/leon/git/swp-report/iMX6_Platform_SDK/output/mx6sdl/obds/smart_device_rev_a/obj/apps/obds/src/tests/snvs_srtc_test.o
                                                  /home/leon/git/swp-report/iMX6_Platform_SDK/output/mx6sdl/obds/smart_device_rev_a/obj/apps/obds/src/obds.o
g_TextAttributeDim                                /home/leon/git/swp-report/iMX6_Platform_SDK/output/mx6sdl/lib/libsdk.a(text_color.o)
                                                  /home/leon/git/swp-report/iMX6_Platform_SDK/output/mx6sdl/obds/smart_device_rev_a/obj/apps/obds/src/obds.o
g_TextAttributeHidden                             /home/leon/git/swp-report/iMX6_Platform_SDK/output/mx6sdl/lib/libsdk.a(text_color.o)
g_TextAttributeReverse                            /home/leon/git/swp-report/iMX6_Platform_SDK/output/mx6sdl/lib/libsdk.a(text_color.o)
g_TextAttributeUnderline                          /home/leon/git/swp-report/iMX6_Platform_SDK/output/mx6sdl/lib/libsdk.a(text_color.o)
g_TextColorBlack                                  /home/leon/git/swp-report/iMX6_Platform_SDK/output/mx6sdl/lib/libsdk.a(text_color.o)
g_TextColorBlue                                   /home/leon/git/swp-report/iMX6_Platform_SDK/output/mx6sdl/lib/libsdk.a(text_color.o)
                                                  /home/leon/git/swp-report/iMX6_Platform_SDK/output/mx6sdl/lib/libsdk.a(menu.o)
g_TextColorCyan                                   /home/leon/git/swp-report/iMX6_Platform_SDK/output/mx6sdl/lib/libsdk.a(text_color.o)
g_TextColorGray                                   /home/leon/git/swp-report/iMX6_Platform_SDK/output/mx6sdl/lib/libsdk.a(text_color.o)
                                                  /home/leon/git/swp-report/iMX6_Platform_SDK/output/mx6sdl/obds/smart_device_rev_a/obj/apps/obds/src/obds.o
g_TextColorGreen                                  /home/leon/git/swp-report/iMX6_Platform_SDK/output/mx6sdl/lib/libsdk.a(text_color.o)
                                                  /home/leon/git/swp-report/iMX6_Platform_SDK/output/mx6sdl/obds/smart_device_rev_a/obj/apps/obds/src/obds.o
g_TextColorLightBlue                              /home/leon/git/swp-report/iMX6_Platform_SDK/output/mx6sdl/lib/libsdk.a(text_color.o)
g_TextColorMagenta                                /home/leon/git/swp-report/iMX6_Platform_SDK/output/mx6sdl/lib/libsdk.a(text_color.o)
                                                  /home/leon/git/swp-report/iMX6_Platform_SDK/output/mx6sdl/lib/libsdk.a(menu.o)
g_TextColorOrange                                 /home/leon/git/swp-report/iMX6_Platform_SDK/output/mx6sdl/lib/libsdk.a(text_color.o)
g_TextColorPurple                                 /home/leon/git/swp-report/iMX6_Platform_SDK/output/mx6sdl/lib/libsdk.a(text_color.o)
g_TextColorRed                                    /home/leon/git/swp-report/iMX6_Platform_SDK/output/mx6sdl/lib/libsdk.a(text_color.o)
                                                  /home/leon/git/swp-report/iMX6_Platform_SDK/output/mx6sdl/lib/libsdk.a(system_util.o)
                                                  /home/leon/git/swp-report/iMX6_Platform_SDK/output/mx6sdl/lib/libsdk.a(menu.o)
                                                  /home/leon/git/swp-report/iMX6_Platform_SDK/output/mx6sdl/obds/smart_device_rev_a/obj/apps/obds/src/tests/program_mac_address.o
                                                  /home/leon/git/swp-report/iMX6_Platform_SDK/output/mx6sdl/obds/smart_device_rev_a/obj/apps/obds/src/tests/program_board_id.o
                                                  /home/leon/git/swp-report/iMX6_Platform_SDK/output/mx6sdl/obds/smart_device_rev_a/obj/apps/obds/src/obds.o
g_TextColorWhite                                  /home/leon/git/swp-report/iMX6_Platform_SDK/output/mx6sdl/lib/libsdk.a(text_color.o)
g_TextColorYellow                                 /home/leon/git/swp-report/iMX6_Platform_SDK/output/mx6sdl/lib/libsdk.a(text_color.o)
                                                  /home/leon/git/swp-report/iMX6_Platform_SDK/output/mx6sdl/lib/libsdk.a(menu.o)
                                                  /home/leon/git/swp-report/iMX6_Platform_SDK/output/mx6sdl/obds/smart_device_rev_a/obj/apps/obds/src/tests/snvs_srtc_test.o
                                                  /home/leon/git/swp-report/iMX6_Platform_SDK/output/mx6sdl/obds/smart_device_rev_a/obj/apps/obds/src/obds.o
g_adv7180_i2c_device                              /home/leon/git/swp-report/iMX6_Platform_SDK/output/mx6sdl/lib/libboard_smart_device_rev_a.a(board_i2c.o)
                                                  /home/leon/git/swp-report/iMX6_Platform_SDK/output/mx6sdl/obds/smart_device_rev_a/obj/apps/obds/src/tests/video_dec_adv7180.o
g_android_buttons_test_name                       /home/leon/git/swp-report/iMX6_Platform_SDK/output/mx6sdl/obds/smart_device_rev_a/obj/apps/obds/src/tests/android_buttons_test.o
g_ar8031_test_name                                /home/leon/git/swp-report/iMX6_Platform_SDK/output/mx6sdl/obds/smart_device_rev_a/obj/apps/obds/src/tests/enet_mx6dldq_test.o
                                                  /home/leon/git/swp-report/iMX6_Platform_SDK/output/mx6sdl/obds/smart_device_rev_a/obj/apps/obds/src/obds.o
g_ard_main_board_reset_button_test                /home/leon/git/swp-report/iMX6_Platform_SDK/output/mx6sdl/obds/smart_device_rev_a/obj/apps/obds/src/tests/video_dec_ARD_MB_reset_button.o
g_ard_mb_expander_reset_test_name                 /home/leon/git/swp-report/iMX6_Platform_SDK/output/mx6sdl/obds/smart_device_rev_a/obj/apps/obds/src/tests/video_dec_ARD_MBrst_from_cpu_expander.o
g_at24cx_i2c_device                               /home/leon/git/swp-report/iMX6_Platform_SDK/output/mx6sdl/lib/libboard_smart_device_rev_a.a(board_i2c.o)
                                                  /home/leon/git/swp-report/iMX6_Platform_SDK/output/mx6sdl/obds/smart_device_rev_a/obj/apps/obds/src/tests/i2c_eeprom_at24cxx_test.o
g_audio_esai_test_name                            /home/leon/git/swp-report/iMX6_Platform_SDK/output/mx6sdl/obds/smart_device_rev_a/obj/apps/obds/src/tests/audio_esai_test.o
g_audio_ssi_test_name                             /home/leon/git/swp-report/iMX6_Platform_SDK/output/mx6sdl/obds/smart_device_rev_a/obj/apps/obds/src/tests/audio_ssi_test.o
                                                  /home/leon/git/swp-report/iMX6_Platform_SDK/output/mx6sdl/obds/smart_device_rev_a/obj/apps/obds/src/obds.o
g_camera_i2c_port                                 /home/leon/git/swp-report/iMX6_Platform_SDK/output/mx6sdl/lib/libboard_smart_device_rev_a.a(board_camera.o)
                                                  /home/leon/git/swp-report/iMX6_Platform_SDK/output/mx6sdl/lib/libsdk.a(smd_sensor.o)
g_camera_modes                                    /home/leon/git/swp-report/iMX6_Platform_SDK/output/mx6sdl/lib/libsdk.a(camera_profile.o)
g_camera_profiles                                 /home/leon/git/swp-report/iMX6_Platform_SDK/output/mx6sdl/lib/libsdk.a(camera_profile.o)
                                                  /home/leon/git/swp-report/iMX6_Platform_SDK/output/mx6sdl/lib/libsdk.a(smd_sensor.o)
g_camera_test_name                                /home/leon/git/swp-report/iMX6_Platform_SDK/output/mx6sdl/obds/smart_device_rev_a/obj/sdk/drivers/camera/test/camera_test.o
                                                  /home/leon/git/swp-report/iMX6_Platform_SDK/output/mx6sdl/obds/smart_device_rev_a/obj/apps/obds/src/obds.o
g_cs42888_i2c_device                              /home/leon/git/swp-report/iMX6_Platform_SDK/output/mx6sdl/lib/libboard_smart_device_rev_a.a(board_i2c.o)
                                                  /home/leon/git/swp-report/iMX6_Platform_SDK/output/mx6sdl/lib/libsdk.a(cs42888.o)
g_cs42888_i2c_device_id_test_name                 /home/leon/git/swp-report/iMX6_Platform_SDK/output/mx6sdl/obds/smart_device_rev_a/obj/apps/obds/src/tests/i2c_device_check_cs42888.o
g_ddr_test_name                                   /home/leon/git/swp-report/iMX6_Platform_SDK/output/mx6sdl/obds/smart_device_rev_a/obj/apps/obds/src/tests/ddr_test.o
                                                  /home/leon/git/swp-report/iMX6_Platform_SDK/output/mx6sdl/obds/smart_device_rev_a/obj/apps/obds/src/obds.o
g_debug_uart_port                                 /home/leon/git/swp-report/iMX6_Platform_SDK/output/mx6sdl/lib/libboard_smart_device_rev_a.a(hardware_modules.o)
                                                  /home/leon/git/swp-report/iMX6_Platform_SDK/output/mx6sdl/lib/libsdk.a(system_util.o)
                                                  /home/leon/git/swp-report/iMX6_Platform_SDK/output/mx6sdl/obds/smart_device_rev_a/obj/sdk/drivers/camera/test/csi_test_mode.o
                                                  /home/leon/git/swp-report/iMX6_Platform_SDK/output/mx6sdl/obds/smart_device_rev_a/obj/apps/common/print_clock_info.o
                                                  /home/leon/git/swp-report/iMX6_Platform_SDK/output/mx6sdl/obds/smart_device_rev_a/obj/apps/common/platform_init.o
g_eim_NOR_flash_test_name                         /home/leon/git/swp-report/iMX6_Platform_SDK/output/mx6sdl/obds/smart_device_rev_a/obj/apps/obds/src/tests/weim_nor_flash_test.o
g_emc1046_i2c_device_id_test_name                 /home/leon/git/swp-report/iMX6_Platform_SDK/output/mx6sdl/obds/smart_device_rev_a/obj/apps/obds/src/tests/i2c_device_temp_sensor_emc1046.o
g_epdc_test_name                                  /home/leon/git/swp-report/iMX6_Platform_SDK/output/mx6sdl/obds/smart_device_rev_a/obj/sdk/drivers/epdc/test/epdc_test.o
                                                  /home/leon/git/swp-report/iMX6_Platform_SDK/output/mx6sdl/obds/smart_device_rev_a/obj/apps/obds/src/obds.o
g_flexcan_test_name                               /home/leon/git/swp-report/iMX6_Platform_SDK/output/mx6sdl/obds/smart_device_rev_a/obj/apps/obds/src/tests/flexcan_test.o
g_gpio_led_test_name                              /home/leon/git/swp-report/iMX6_Platform_SDK/output/mx6sdl/obds/smart_device_rev_a/obj/apps/obds/src/tests/gpio_led.o
                                                  /home/leon/git/swp-report/iMX6_Platform_SDK/output/mx6sdl/obds/smart_device_rev_a/obj/apps/obds/src/obds.o
g_hs_tsc_p1003_i2c_device_id_test_name            /home/leon/git/swp-report/iMX6_Platform_SDK/output/mx6sdl/obds/smart_device_rev_a/obj/apps/obds/src/tests/i2c_device_id_check_p1003_tsc.o
                                                  /home/leon/git/swp-report/iMX6_Platform_SDK/output/mx6sdl/obds/smart_device_rev_a/obj/apps/obds/src/obds.o
g_interrupt_handlers                              /home/leon/git/swp-report/iMX6_Platform_SDK/output/mx6sdl/lib/libsdk.a(interrupt.o)
g_ipu_display_tests_name                          /home/leon/git/swp-report/iMX6_Platform_SDK/output/mx6sdl/obds/smart_device_rev_a/obj/apps/obds/src/tests/display_test.o
                                                  /home/leon/git/swp-report/iMX6_Platform_SDK/output/mx6sdl/obds/smart_device_rev_a/obj/apps/obds/src/obds.o
g_isl29023_i2c_device_id_test_name                /home/leon/git/swp-report/iMX6_Platform_SDK/output/mx6sdl/obds/smart_device_rev_a/obj/apps/obds/src/tests/i2c_check_light_sensor_isl29023.o
                                                  /home/leon/git/swp-report/iMX6_Platform_SDK/output/mx6sdl/obds/smart_device_rev_a/obj/apps/obds/src/obds.o
g_mag3110_i2c_device_id_test_name                 /home/leon/git/swp-report/iMX6_Platform_SDK/output/mx6sdl/obds/smart_device_rev_a/obj/apps/obds/src/tests/i2c_device_digital_compass_mag3110.o
                                                  /home/leon/git/swp-report/iMX6_Platform_SDK/output/mx6sdl/obds/smart_device_rev_a/obj/apps/obds/src/obds.o
g_mag3112_i2c_device_id_test_name                 /home/leon/git/swp-report/iMX6_Platform_SDK/output/mx6sdl/obds/smart_device_rev_a/obj/apps/obds/src/tests/i2c_device_digital_compass_mag3112.o
g_max17135_i2c_device_id_test_name                /home/leon/git/swp-report/iMX6_Platform_SDK/output/mx6sdl/obds/smart_device_rev_a/obj/apps/obds/src/tests/pmic_max17135.o
g_max7310_i2c_device_id_test_name                 /home/leon/git/swp-report/iMX6_Platform_SDK/output/mx6sdl/obds/smart_device_rev_a/obj/sdk/common/ioexpander/test/max7310_test.o
g_microsecondTimerMultiple                        /home/leon/git/swp-report/iMX6_Platform_SDK/output/mx6sdl/lib/libsdk.a(timer.o)
g_mma8450_i2c_device_id_test_name                 /home/leon/git/swp-report/iMX6_Platform_SDK/output/mx6sdl/obds/smart_device_rev_a/obj/apps/obds/src/tests/i2c_device_id_check_mma8450.o
g_mma8451_i2c_device                              /home/leon/git/swp-report/iMX6_Platform_SDK/output/mx6sdl/lib/libboard_smart_device_rev_a.a(board_i2c.o)
g_mma8451_i2c_device_id_test_name                 /home/leon/git/swp-report/iMX6_Platform_SDK/output/mx6sdl/obds/smart_device_rev_a/obj/apps/obds/src/tests/i2c_device_id_check_mma8451.o
                                                  /home/leon/git/swp-report/iMX6_Platform_SDK/output/mx6sdl/obds/smart_device_rev_a/obj/apps/obds/src/obds.o
g_mmcsd_test_name                                 /home/leon/git/swp-report/iMX6_Platform_SDK/output/mx6sdl/obds/smart_device_rev_a/obj/apps/obds/src/tests/mmcsd_test.o
                                                  /home/leon/git/swp-report/iMX6_Platform_SDK/output/mx6sdl/obds/smart_device_rev_a/obj/apps/obds/src/obds.o
g_mt9p111_af_firmware                             /home/leon/git/swp-report/iMX6_Platform_SDK/output/mx6sdl/lib/libsdk.a(camera_profile.o)
g_mt9p111_af_ready                                /home/leon/git/swp-report/iMX6_Platform_SDK/output/mx6sdl/lib/libsdk.a(camera_profile.o)
g_mt9p111_af_trigger                              /home/leon/git/swp-report/iMX6_Platform_SDK/output/mx6sdl/lib/libsdk.a(camera_profile.o)
g_mt9p111_mode_vga_640_480_30fps                  /home/leon/git/swp-report/iMX6_Platform_SDK/output/mx6sdl/lib/libsdk.a(camera_profile.o)
g_mt9p111_sensor_detection                        /home/leon/git/swp-report/iMX6_Platform_SDK/output/mx6sdl/lib/libsdk.a(camera_profile.o)
g_os81050_i2c_device                              /home/leon/git/swp-report/iMX6_Platform_SDK/output/mx6sdl/lib/libboard_smart_device_rev_a.a(board_i2c.o)
                                                  /home/leon/git/swp-report/iMX6_Platform_SDK/output/mx6sdl/obds/smart_device_rev_a/obj/apps/obds/src/tests/mlb_os81050.o
g_ov3640_mode_vga_640_480_30fps                   /home/leon/git/swp-report/iMX6_Platform_SDK/output/mx6sdl/lib/libsdk.a(camera_profile.o)
g_ov3640_sensor_detection                         /home/leon/git/swp-report/iMX6_Platform_SDK/output/mx6sdl/lib/libsdk.a(camera_profile.o)
g_ov5640_mode_vga_640_480_30fps                   /home/leon/git/swp-report/iMX6_Platform_SDK/output/mx6sdl/lib/libsdk.a(camera_profile.o)
g_ov5640_sensor_detection                         /home/leon/git/swp-report/iMX6_Platform_SDK/output/mx6sdl/lib/libsdk.a(camera_profile.o)
g_ov5642_af_firmware                              /home/leon/git/swp-report/iMX6_Platform_SDK/output/mx6sdl/lib/libsdk.a(camera_profile.o)
g_ov5642_af_ready                                 /home/leon/git/swp-report/iMX6_Platform_SDK/output/mx6sdl/lib/libsdk.a(camera_profile.o)
g_ov5642_af_trigger                               /home/leon/git/swp-report/iMX6_Platform_SDK/output/mx6sdl/lib/libsdk.a(camera_profile.o)
g_ov5642_mode_vga_640_480_30fps                   /home/leon/git/swp-report/iMX6_Platform_SDK/output/mx6sdl/lib/libsdk.a(camera_profile.o)
g_ov5642_sensor_detection                         /home/leon/git/swp-report/iMX6_Platform_SDK/output/mx6sdl/lib/libsdk.a(camera_profile.o)
g_p1003_tsc_i2c_device                            /home/leon/git/swp-report/iMX6_Platform_SDK/output/mx6sdl/lib/libboard_smart_device_rev_a.a(board_i2c.o)
                                                  /home/leon/git/swp-report/iMX6_Platform_SDK/output/mx6sdl/obds/smart_device_rev_a/obj/apps/obds/src/tests/i2c_device_id_check_p1003_tsc.o
g_pmic_da9053_i2c_device                          /home/leon/git/swp-report/iMX6_Platform_SDK/output/mx6sdl/lib/libboard_smart_device_rev_a.a(board_i2c.o)
                                                  /home/leon/git/swp-report/iMX6_Platform_SDK/output/mx6sdl/obds/smart_device_rev_a/obj/apps/obds/src/tests/touch_screen.o
                                                  /home/leon/git/swp-report/iMX6_Platform_SDK/output/mx6sdl/obds/smart_device_rev_a/obj/apps/obds/src/tests/pmic_da9053.o
g_pmic_ltc3589_i2c_device                         /home/leon/git/swp-report/iMX6_Platform_SDK/output/mx6sdl/lib/libboard_smart_device_rev_a.a(board_i2c.o)
                                                  /home/leon/git/swp-report/iMX6_Platform_SDK/output/mx6sdl/obds/smart_device_rev_a/obj/apps/obds/src/tests/pmic_lt3589.o
g_pmic_max17135_i2c_device                        /home/leon/git/swp-report/iMX6_Platform_SDK/output/mx6sdl/lib/libboard_smart_device_rev_a.a(board_i2c.o)
                                                  /home/leon/git/swp-report/iMX6_Platform_SDK/output/mx6sdl/obds/smart_device_rev_a/obj/apps/obds/src/tests/pmic_max17135.o
g_pmic_pf0100_i2c_device                          /home/leon/git/swp-report/iMX6_Platform_SDK/output/mx6sdl/lib/libboard_smart_device_rev_a.a(board_i2c.o)
                                                  /home/leon/git/swp-report/iMX6_Platform_SDK/output/mx6sdl/obds/smart_device_rev_a/obj/sdk/common/pmic/pfuse/pf0100.o
g_pmic_pf0100_i2c_device_id_test_name             /home/leon/git/swp-report/iMX6_Platform_SDK/output/mx6sdl/obds/smart_device_rev_a/obj/sdk/common/pmic/pfuse/pf0100.o
                                                  /home/leon/git/swp-report/iMX6_Platform_SDK/output/mx6sdl/obds/smart_device_rev_a/obj/apps/obds/src/obds.o
g_ppl3115_i2c_device_id_test_name                 /home/leon/git/swp-report/iMX6_Platform_SDK/output/mx6sdl/obds/smart_device_rev_a/obj/apps/obds/src/tests/i2c_device_barometer_ppl3115.o
g_program_board_id_test_name                      /home/leon/git/swp-report/iMX6_Platform_SDK/output/mx6sdl/obds/smart_device_rev_a/obj/apps/obds/src/tests/program_board_id.o
                                                  /home/leon/git/swp-report/iMX6_Platform_SDK/output/mx6sdl/obds/smart_device_rev_a/obj/apps/obds/src/obds.o
g_program_mac_address_test_name                   /home/leon/git/swp-report/iMX6_Platform_SDK/output/mx6sdl/obds/smart_device_rev_a/obj/apps/obds/src/tests/program_mac_address.o
                                                  /home/leon/git/swp-report/iMX6_Platform_SDK/output/mx6sdl/obds/smart_device_rev_a/obj/apps/obds/src/obds.o
g_sgtl5000_i2c_device                             /home/leon/git/swp-report/iMX6_Platform_SDK/output/mx6sdl/lib/libboard_smart_device_rev_a.a(board_i2c.o)
                                                  /home/leon/git/swp-report/iMX6_Platform_SDK/output/mx6sdl/lib/libsdk.a(sgtl5000.o)
g_si476x_i2c_device                               /home/leon/git/swp-report/iMX6_Platform_SDK/output/mx6sdl/lib/libboard_smart_device_rev_a.a(board_i2c.o)
                                                  /home/leon/git/swp-report/iMX6_Platform_SDK/output/mx6sdl/obds/smart_device_rev_a/obj/apps/obds/src/tests/fm_tuner_si476x_test.o
g_snvs_srtc_test_name                             /home/leon/git/swp-report/iMX6_Platform_SDK/output/mx6sdl/obds/smart_device_rev_a/obj/apps/obds/src/tests/snvs_srtc_test.o
                                                  /home/leon/git/swp-report/iMX6_Platform_SDK/output/mx6sdl/obds/smart_device_rev_a/obj/apps/obds/src/obds.o
g_spi_nor_test_name                               /home/leon/git/swp-report/iMX6_Platform_SDK/output/mx6sdl/obds/smart_device_rev_a/obj/apps/obds/src/tests/imx_spi_nor_test.o
                                                  /home/leon/git/swp-report/iMX6_Platform_SDK/output/mx6sdl/obds/smart_device_rev_a/obj/apps/obds/src/obds.o
g_system_timer_port                               /home/leon/git/swp-report/iMX6_Platform_SDK/output/mx6sdl/lib/libboard_smart_device_rev_a.a(hardware_modules.o)
                                                  /home/leon/git/swp-report/iMX6_Platform_SDK/output/mx6sdl/lib/libsdk.a(timer.o)
g_touch_buttons_test_name                         /home/leon/git/swp-report/iMX6_Platform_SDK/output/mx6sdl/obds/smart_device_rev_a/obj/apps/obds/src/tests/touch_button_test.o
g_uart_test_name                                  /home/leon/git/swp-report/iMX6_Platform_SDK/output/mx6sdl/obds/smart_device_rev_a/obj/sdk/drivers/uart/test/uart_test.o
                                                  /home/leon/git/swp-report/iMX6_Platform_SDK/output/mx6sdl/obds/smart_device_rev_a/obj/apps/obds/src/obds.o
g_usb_host1_dev_enum_test_name                    /home/leon/git/swp-report/iMX6_Platform_SDK/output/mx6sdl/obds/smart_device_rev_a/obj/apps/obds/src/tests/usb_tests_obds.o
g_usb_otg_dev_enum_test_name                      /home/leon/git/swp-report/iMX6_Platform_SDK/output/mx6sdl/obds/smart_device_rev_a/obj/apps/obds/src/tests/usb_tests_obds.o
                                                  /home/leon/git/swp-report/iMX6_Platform_SDK/output/mx6sdl/obds/smart_device_rev_a/obj/apps/obds/src/obds.o
g_vectNum                                         /home/leon/git/swp-report/iMX6_Platform_SDK/output/mx6sdl/lib/libsdk.a(interrupt.o)
g_video_dec_test_name                             /home/leon/git/swp-report/iMX6_Platform_SDK/output/mx6sdl/obds/smart_device_rev_a/obj/apps/obds/src/tests/video_dec_adv7180.o
g_wm8958_i2c_device                               /home/leon/git/swp-report/iMX6_Platform_SDK/output/mx6sdl/lib/libboard_smart_device_rev_a.a(board_i2c.o)
                                                  /home/leon/git/swp-report/iMX6_Platform_SDK/output/mx6sdl/lib/libsdk.a(wm8958_dac.o)
g_wm8962_i2c_device                               /home/leon/git/swp-report/iMX6_Platform_SDK/output/mx6sdl/lib/libboard_smart_device_rev_a.a(board_i2c.o)
                                                  /home/leon/git/swp-report/iMX6_Platform_SDK/output/mx6sdl/lib/libsdk.a(wm8962.o)
get_arm_private_peripheral_base                   /home/leon/git/swp-report/iMX6_Platform_SDK/output/mx6sdl/lib/libsdk.a(cortexA9.o)
                                                  /home/leon/git/swp-report/iMX6_Platform_SDK/output/mx6sdl/lib/libsdk.a(gic.o)
get_board_id                                      /home/leon/git/swp-report/iMX6_Platform_SDK/output/mx6sdl/lib/libsdk.a(board_id.o)
                                                  /home/leon/git/swp-report/iMX6_Platform_SDK/output/mx6sdl/obds/smart_device_rev_a/obj/apps/obds/src/tests/program_board_id.o
                                                  /home/leon/git/swp-report/iMX6_Platform_SDK/output/mx6sdl/obds/smart_device_rev_a/obj/apps/obds/src/obds.o
                                                  /home/leon/git/swp-report/iMX6_Platform_SDK/output/mx6sdl/obds/smart_device_rev_a/obj/apps/common/print_version.o
get_color_supported                               /home/leon/git/swp-report/iMX6_Platform_SDK/output/mx6sdl/lib/libsdk.a(text_color.o)
get_ddr_density                                   /home/leon/git/swp-report/iMX6_Platform_SDK/output/mx6sdl/obds/smart_device_rev_a/obj/apps/obds/src/tests/ddr_test.o
get_input_hex                                     /home/leon/git/swp-report/iMX6_Platform_SDK/output/mx6sdl/lib/libsdk.a(system_util.o)
get_main_clock                                    /home/leon/git/swp-report/iMX6_Platform_SDK/output/mx6sdl/lib/libsdk.a(ccm_pll.o)
                                                  /home/leon/git/swp-report/iMX6_Platform_SDK/output/mx6sdl/lib/libsdk.a(timer.o)
                                                  /home/leon/git/swp-report/iMX6_Platform_SDK/output/mx6sdl/lib/libsdk.a(imx_i2c.o)
                                                  /home/leon/git/swp-report/iMX6_Platform_SDK/output/mx6sdl/lib/libsdk.a(enet_drv.o)
                                                  /home/leon/git/swp-report/iMX6_Platform_SDK/output/mx6sdl/obds/smart_device_rev_a/obj/apps/common/print_clock_info.o
get_menu_item                                     /home/leon/git/swp-report/iMX6_Platform_SDK/output/mx6sdl/lib/libsdk.a(usb_common.o)
                                                  /home/leon/git/swp-report/iMX6_Platform_SDK/output/mx6sdl/obds/smart_device_rev_a/obj/sdk/drivers/usb/test/usb0_host_testmodes_test.o
get_panel_by_id                                   /home/leon/git/swp-report/iMX6_Platform_SDK/output/mx6sdl/lib/libsdk.a(ips_disp_panel.o)
                                                  /home/leon/git/swp-report/iMX6_Platform_SDK/output/mx6sdl/obds/smart_device_rev_a/obj/apps/obds/src/tests/display_test.o
get_peri_clock                                    /home/leon/git/swp-report/iMX6_Platform_SDK/output/mx6sdl/lib/libsdk.a(ccm_pll.o)
                                                  /home/leon/git/swp-report/iMX6_Platform_SDK/output/mx6sdl/lib/libsdk.a(imx_uart.o)
                                                  /home/leon/git/swp-report/iMX6_Platform_SDK/output/mx6sdl/obds/smart_device_rev_a/obj/apps/common/print_clock_info.o
gic_cpu_enable                                    /home/leon/git/swp-report/iMX6_Platform_SDK/output/mx6sdl/lib/libsdk.a(gic.o)
gic_enable                                        /home/leon/git/swp-report/iMX6_Platform_SDK/output/mx6sdl/lib/libsdk.a(gic.o)
gic_enable_irq                                    /home/leon/git/swp-report/iMX6_Platform_SDK/output/mx6sdl/lib/libsdk.a(gic.o)
                                                  /home/leon/git/swp-report/iMX6_Platform_SDK/output/mx6sdl/lib/libsdk.a(interrupt.o)
gic_init                                          /home/leon/git/swp-report/iMX6_Platform_SDK/output/mx6sdl/lib/libsdk.a(gic.o)
                                                  /home/leon/git/swp-report/iMX6_Platform_SDK/output/mx6sdl/obds/smart_device_rev_a/obj/apps/common/platform_init.o
gic_init_cpu                                      /home/leon/git/swp-report/iMX6_Platform_SDK/output/mx6sdl/lib/libsdk.a(gic.o)
gic_read_irq_ack                                  /home/leon/git/swp-report/iMX6_Platform_SDK/output/mx6sdl/lib/libsdk.a(gic.o)
                                                  /home/leon/git/swp-report/iMX6_Platform_SDK/output/mx6sdl/lib/libsdk.a(interrupt.o)
gic_send_sgi                                      /home/leon/git/swp-report/iMX6_Platform_SDK/output/mx6sdl/lib/libsdk.a(gic.o)
gic_set_cpu_priority_mask                         /home/leon/git/swp-report/iMX6_Platform_SDK/output/mx6sdl/lib/libsdk.a(gic.o)
gic_set_cpu_target                                /home/leon/git/swp-report/iMX6_Platform_SDK/output/mx6sdl/lib/libsdk.a(gic.o)
                                                  /home/leon/git/swp-report/iMX6_Platform_SDK/output/mx6sdl/lib/libsdk.a(interrupt.o)
gic_set_irq_priority                              /home/leon/git/swp-report/iMX6_Platform_SDK/output/mx6sdl/lib/libsdk.a(gic.o)
                                                  /home/leon/git/swp-report/iMX6_Platform_SDK/output/mx6sdl/lib/libsdk.a(interrupt.o)
gic_set_irq_security                              /home/leon/git/swp-report/iMX6_Platform_SDK/output/mx6sdl/lib/libsdk.a(gic.o)
                                                  /home/leon/git/swp-report/iMX6_Platform_SDK/output/mx6sdl/lib/libsdk.a(interrupt.o)
gic_write_end_of_irq                              /home/leon/git/swp-report/iMX6_Platform_SDK/output/mx6sdl/lib/libsdk.a(gic.o)
                                                  /home/leon/git/swp-report/iMX6_Platform_SDK/output/mx6sdl/lib/libsdk.a(interrupt.o)
gpio1_iomux_config                                /home/leon/git/swp-report/iMX6_Platform_SDK/output/mx6sdl/lib/libboard_smart_device_rev_a.a(gpio1_iomux_config.o)
                                                  /home/leon/git/swp-report/iMX6_Platform_SDK/output/mx6sdl/lib/libboard_smart_device_rev_a.a(iomux_config.o)
gpio2_iomux_config                                /home/leon/git/swp-report/iMX6_Platform_SDK/output/mx6sdl/lib/libboard_smart_device_rev_a.a(gpio2_iomux_config.o)
                                                  /home/leon/git/swp-report/iMX6_Platform_SDK/output/mx6sdl/lib/libboard_smart_device_rev_a.a(iomux_config.o)
gpio3_iomux_config                                /home/leon/git/swp-report/iMX6_Platform_SDK/output/mx6sdl/lib/libboard_smart_device_rev_a.a(gpio3_iomux_config.o)
                                                  /home/leon/git/swp-report/iMX6_Platform_SDK/output/mx6sdl/lib/libboard_smart_device_rev_a.a(iomux_config.o)
gpio4_iomux_config                                /home/leon/git/swp-report/iMX6_Platform_SDK/output/mx6sdl/lib/libboard_smart_device_rev_a.a(gpio4_iomux_config.o)
                                                  /home/leon/git/swp-report/iMX6_Platform_SDK/output/mx6sdl/lib/libboard_smart_device_rev_a.a(iomux_config.o)
gpio5_iomux_config                                /home/leon/git/swp-report/iMX6_Platform_SDK/output/mx6sdl/lib/libboard_smart_device_rev_a.a(gpio5_iomux_config.o)
                                                  /home/leon/git/swp-report/iMX6_Platform_SDK/output/mx6sdl/lib/libboard_smart_device_rev_a.a(iomux_config.o)
gpio6_iomux_config                                /home/leon/git/swp-report/iMX6_Platform_SDK/output/mx6sdl/lib/libboard_smart_device_rev_a.a(gpio6_iomux_config.o)
                                                  /home/leon/git/swp-report/iMX6_Platform_SDK/output/mx6sdl/lib/libboard_smart_device_rev_a.a(iomux_config.o)
gpio7_iomux_config                                /home/leon/git/swp-report/iMX6_Platform_SDK/output/mx6sdl/lib/libboard_smart_device_rev_a.a(gpio7_iomux_config.o)
                                                  /home/leon/git/swp-report/iMX6_Platform_SDK/output/mx6sdl/lib/libboard_smart_device_rev_a.a(iomux_config.o)
gpio_clear_interrupt                              /home/leon/git/swp-report/iMX6_Platform_SDK/output/mx6sdl/lib/libsdk.a(gpio.o)
                                                  /home/leon/git/swp-report/iMX6_Platform_SDK/output/mx6sdl/obds/smart_device_rev_a/obj/apps/obds/src/tests/android_buttons_test.o
gpio_get_direction                                /home/leon/git/swp-report/iMX6_Platform_SDK/output/mx6sdl/lib/libsdk.a(gpio.o)
gpio_get_interrupt_status                         /home/leon/git/swp-report/iMX6_Platform_SDK/output/mx6sdl/lib/libsdk.a(gpio.o)
                                                  /home/leon/git/swp-report/iMX6_Platform_SDK/output/mx6sdl/obds/smart_device_rev_a/obj/apps/obds/src/tests/android_buttons_test.o
gpio_get_level                                    /home/leon/git/swp-report/iMX6_Platform_SDK/output/mx6sdl/lib/libsdk.a(gpio.o)
                                                  /home/leon/git/swp-report/iMX6_Platform_SDK/output/mx6sdl/lib/libboard_smart_device_rev_a.a(board_usdhc.o)
                                                  /home/leon/git/swp-report/iMX6_Platform_SDK/output/mx6sdl/obds/smart_device_rev_a/obj/apps/obds/src/tests/touch_screen_max11801.o
                                                  /home/leon/git/swp-report/iMX6_Platform_SDK/output/mx6sdl/obds/smart_device_rev_a/obj/apps/obds/src/tests/deserializer_ds90ur124.o
gpio_get_port_count                               /home/leon/git/swp-report/iMX6_Platform_SDK/output/mx6sdl/lib/libsdk.a(gpio.o)
gpio_led_test                                     /home/leon/git/swp-report/iMX6_Platform_SDK/output/mx6sdl/obds/smart_device_rev_a/obj/apps/obds/src/tests/gpio_led.o
                                                  /home/leon/git/swp-report/iMX6_Platform_SDK/output/mx6sdl/obds/smart_device_rev_a/obj/apps/obds/src/obds.o
gpio_set_direction                                /home/leon/git/swp-report/iMX6_Platform_SDK/output/mx6sdl/lib/libsdk.a(gpio.o)
                                                  /home/leon/git/swp-report/iMX6_Platform_SDK/output/mx6sdl/lib/libboard_smart_device_rev_a.a(board_usb.o)
                                                  /home/leon/git/swp-report/iMX6_Platform_SDK/output/mx6sdl/lib/libboard_smart_device_rev_a.a(board_network.o)
                                                  /home/leon/git/swp-report/iMX6_Platform_SDK/output/mx6sdl/lib/libboard_smart_device_rev_a.a(board_mipi.o)
                                                  /home/leon/git/swp-report/iMX6_Platform_SDK/output/mx6sdl/lib/libboard_smart_device_rev_a.a(board_display.o)
                                                  /home/leon/git/swp-report/iMX6_Platform_SDK/output/mx6sdl/lib/libboard_smart_device_rev_a.a(board_camera.o)
                                                  /home/leon/git/swp-report/iMX6_Platform_SDK/output/mx6sdl/lib/libboard_smart_device_rev_a.a(board_audio.o)
                                                  /home/leon/git/swp-report/iMX6_Platform_SDK/output/mx6sdl/obds/smart_device_rev_a/obj/apps/obds/src/tests/i2c_device_temp_sensor_emc1046.o
                                                  /home/leon/git/swp-report/iMX6_Platform_SDK/output/mx6sdl/obds/smart_device_rev_a/obj/apps/obds/src/tests/i2c_device_id_check_mma8451.o
                                                  /home/leon/git/swp-report/iMX6_Platform_SDK/output/mx6sdl/obds/smart_device_rev_a/obj/apps/obds/src/tests/i2c_device_id_check_mma8450.o
                                                  /home/leon/git/swp-report/iMX6_Platform_SDK/output/mx6sdl/obds/smart_device_rev_a/obj/apps/obds/src/tests/i2c_device_digital_compass_mag3112.o
                                                  /home/leon/git/swp-report/iMX6_Platform_SDK/output/mx6sdl/obds/smart_device_rev_a/obj/apps/obds/src/tests/i2c_device_digital_compass_mag3110.o
                                                  /home/leon/git/swp-report/iMX6_Platform_SDK/output/mx6sdl/obds/smart_device_rev_a/obj/apps/obds/src/tests/i2c_device_barometer_ppl3115.o
                                                  /home/leon/git/swp-report/iMX6_Platform_SDK/output/mx6sdl/obds/smart_device_rev_a/obj/apps/obds/src/tests/i2c_check_light_sensor_isl29023.o
                                                  /home/leon/git/swp-report/iMX6_Platform_SDK/output/mx6sdl/obds/smart_device_rev_a/obj/apps/obds/src/tests/gpio_led.o
                                                  /home/leon/git/swp-report/iMX6_Platform_SDK/output/mx6sdl/obds/smart_device_rev_a/obj/apps/obds/src/tests/deserializer_ds90ur124.o
                                                  /home/leon/git/swp-report/iMX6_Platform_SDK/output/mx6sdl/obds/smart_device_rev_a/obj/apps/obds/src/tests/android_buttons_test.o
gpio_set_gpio                                     /home/leon/git/swp-report/iMX6_Platform_SDK/output/mx6sdl/lib/libsdk.a(gpio.o)
                                                  /home/leon/git/swp-report/iMX6_Platform_SDK/output/mx6sdl/lib/libboard_smart_device_rev_a.a(board_usb.o)
                                                  /home/leon/git/swp-report/iMX6_Platform_SDK/output/mx6sdl/lib/libboard_smart_device_rev_a.a(board_mipi.o)
                                                  /home/leon/git/swp-report/iMX6_Platform_SDK/output/mx6sdl/lib/libboard_smart_device_rev_a.a(board_display.o)
                                                  /home/leon/git/swp-report/iMX6_Platform_SDK/output/mx6sdl/lib/libboard_smart_device_rev_a.a(board_buttons.o)
                                                  /home/leon/git/swp-report/iMX6_Platform_SDK/output/mx6sdl/lib/libboard_smart_device_rev_a.a(board_audio.o)
                                                  /home/leon/git/swp-report/iMX6_Platform_SDK/output/mx6sdl/obds/smart_device_rev_a/obj/apps/obds/src/tests/i2c_device_id_check_mma8451.o
gpio_set_interrupt_config                         /home/leon/git/swp-report/iMX6_Platform_SDK/output/mx6sdl/lib/libsdk.a(gpio.o)
                                                  /home/leon/git/swp-report/iMX6_Platform_SDK/output/mx6sdl/obds/smart_device_rev_a/obj/apps/obds/src/tests/android_buttons_test.o
gpio_set_interrupt_mask                           /home/leon/git/swp-report/iMX6_Platform_SDK/output/mx6sdl/lib/libsdk.a(gpio.o)
                                                  /home/leon/git/swp-report/iMX6_Platform_SDK/output/mx6sdl/obds/smart_device_rev_a/obj/apps/obds/src/tests/android_buttons_test.o
gpio_set_level                                    /home/leon/git/swp-report/iMX6_Platform_SDK/output/mx6sdl/lib/libsdk.a(gpio.o)
                                                  /home/leon/git/swp-report/iMX6_Platform_SDK/output/mx6sdl/lib/libboard_smart_device_rev_a.a(board_usb.o)
                                                  /home/leon/git/swp-report/iMX6_Platform_SDK/output/mx6sdl/lib/libboard_smart_device_rev_a.a(board_network.o)
                                                  /home/leon/git/swp-report/iMX6_Platform_SDK/output/mx6sdl/lib/libboard_smart_device_rev_a.a(board_mipi.o)
                                                  /home/leon/git/swp-report/iMX6_Platform_SDK/output/mx6sdl/lib/libboard_smart_device_rev_a.a(board_display.o)
                                                  /home/leon/git/swp-report/iMX6_Platform_SDK/output/mx6sdl/lib/libboard_smart_device_rev_a.a(board_camera.o)
                                                  /home/leon/git/swp-report/iMX6_Platform_SDK/output/mx6sdl/lib/libboard_smart_device_rev_a.a(board_audio.o)
                                                  /home/leon/git/swp-report/iMX6_Platform_SDK/output/mx6sdl/obds/smart_device_rev_a/obj/apps/obds/src/tests/i2c_device_temp_sensor_emc1046.o
                                                  /home/leon/git/swp-report/iMX6_Platform_SDK/output/mx6sdl/obds/smart_device_rev_a/obj/apps/obds/src/tests/i2c_device_id_check_mma8451.o
                                                  /home/leon/git/swp-report/iMX6_Platform_SDK/output/mx6sdl/obds/smart_device_rev_a/obj/apps/obds/src/tests/i2c_device_id_check_mma8450.o
                                                  /home/leon/git/swp-report/iMX6_Platform_SDK/output/mx6sdl/obds/smart_device_rev_a/obj/apps/obds/src/tests/i2c_device_digital_compass_mag3112.o
                                                  /home/leon/git/swp-report/iMX6_Platform_SDK/output/mx6sdl/obds/smart_device_rev_a/obj/apps/obds/src/tests/i2c_device_digital_compass_mag3110.o
                                                  /home/leon/git/swp-report/iMX6_Platform_SDK/output/mx6sdl/obds/smart_device_rev_a/obj/apps/obds/src/tests/i2c_device_barometer_ppl3115.o
                                                  /home/leon/git/swp-report/iMX6_Platform_SDK/output/mx6sdl/obds/smart_device_rev_a/obj/apps/obds/src/tests/i2c_check_light_sensor_isl29023.o
                                                  /home/leon/git/swp-report/iMX6_Platform_SDK/output/mx6sdl/obds/smart_device_rev_a/obj/apps/obds/src/tests/gpio_led.o
gpmi_iomux_config                                 /home/leon/git/swp-report/iMX6_Platform_SDK/output/mx6sdl/lib/libboard_smart_device_rev_a.a(iomux_config.o)
gps_iomux_config                                  /home/leon/git/swp-report/iMX6_Platform_SDK/output/mx6sdl/lib/libboard_smart_device_rev_a.a(gps_iomux_config.o)
                                                  /home/leon/git/swp-report/iMX6_Platform_SDK/output/mx6sdl/lib/libboard_smart_device_rev_a.a(iomux_config.o)
gps_test                                          /home/leon/git/swp-report/iMX6_Platform_SDK/output/mx6sdl/obds/smart_device_rev_a/obj/apps/obds/src/tests/gps_test.o
gps_test_enable                                   /home/leon/git/swp-report/iMX6_Platform_SDK/output/mx6sdl/obds/smart_device_rev_a/obj/apps/obds/src/tests/gps_test.o
gpt_iomux_config                                  /home/leon/git/swp-report/iMX6_Platform_SDK/output/mx6sdl/lib/libboard_smart_device_rev_a.a(iomux_config.o)
gpu_clock_config                                  /home/leon/git/swp-report/iMX6_Platform_SDK/output/mx6sdl/lib/libsdk.a(ccm_pll.o)
hal_delay_us                                      /home/leon/git/swp-report/iMX6_Platform_SDK/output/mx6sdl/lib/libsdk.a(timer.o)
                                                  /home/leon/git/swp-report/iMX6_Platform_SDK/output/mx6sdl/lib/libboard_smart_device_rev_a.a(board_network.o)
                                                  /home/leon/git/swp-report/iMX6_Platform_SDK/output/mx6sdl/lib/libboard_smart_device_rev_a.a(board_mipi.o)
                                                  /home/leon/git/swp-report/iMX6_Platform_SDK/output/mx6sdl/lib/libboard_smart_device_rev_a.a(board_display.o)
                                                  /home/leon/git/swp-report/iMX6_Platform_SDK/output/mx6sdl/lib/libboard_smart_device_rev_a.a(board_camera.o)
                                                  /home/leon/git/swp-report/iMX6_Platform_SDK/output/mx6sdl/lib/libsdk.a(usdhc_sd.o)
                                                  /home/leon/git/swp-report/iMX6_Platform_SDK/output/mx6sdl/lib/libsdk.a(usdhc_mmc.o)
                                                  /home/leon/git/swp-report/iMX6_Platform_SDK/output/mx6sdl/lib/libsdk.a(usdhc_host.o)
                                                  /home/leon/git/swp-report/iMX6_Platform_SDK/output/mx6sdl/lib/libsdk.a(ecspi.o)
                                                  /home/leon/git/swp-report/iMX6_Platform_SDK/output/mx6sdl/lib/libsdk.a(ipu_common.o)
                                                  /home/leon/git/swp-report/iMX6_Platform_SDK/output/mx6sdl/lib/libsdk.a(hdmi_tx_phy.o)
                                                  /home/leon/git/swp-report/iMX6_Platform_SDK/output/mx6sdl/lib/libsdk.a(enet_drv.o)
                                                  /home/leon/git/swp-report/iMX6_Platform_SDK/output/mx6sdl/lib/libsdk.a(smd_sensor.o)
                                                  /home/leon/git/swp-report/iMX6_Platform_SDK/output/mx6sdl/lib/libsdk.a(wm8962.o)
                                                  /home/leon/git/swp-report/iMX6_Platform_SDK/output/mx6sdl/lib/libsdk.a(wm8958_dac.o)
                                                  /home/leon/git/swp-report/iMX6_Platform_SDK/output/mx6sdl/lib/libsdk.a(sgtl5000.o)
                                                  /home/leon/git/swp-report/iMX6_Platform_SDK/output/mx6sdl/lib/libsdk.a(cs42888.o)
                                                  /home/leon/git/swp-report/iMX6_Platform_SDK/output/mx6sdl/obds/smart_device_rev_a/obj/sdk/drivers/spi/test/spi_nor_numonyx.o
                                                  /home/leon/git/swp-report/iMX6_Platform_SDK/output/mx6sdl/obds/smart_device_rev_a/obj/sdk/drivers/hdmi/test/hdmi_test.o
                                                  /home/leon/git/swp-report/iMX6_Platform_SDK/output/mx6sdl/obds/smart_device_rev_a/obj/sdk/drivers/camera/test/csi_test_mode.o
                                                  /home/leon/git/swp-report/iMX6_Platform_SDK/output/mx6sdl/obds/smart_device_rev_a/obj/apps/obds/src/tests/video_dec_adv7180.o
                                                  /home/leon/git/swp-report/iMX6_Platform_SDK/output/mx6sdl/obds/smart_device_rev_a/obj/apps/obds/src/tests/video_dec_ARD_MBrst_from_cpu_expander.o
                                                  /home/leon/git/swp-report/iMX6_Platform_SDK/output/mx6sdl/obds/smart_device_rev_a/obj/apps/obds/src/tests/video_dec_ARD_MB_reset_button.o
                                                  /home/leon/git/swp-report/iMX6_Platform_SDK/output/mx6sdl/obds/smart_device_rev_a/obj/apps/obds/src/tests/touch_screen_max11801.o
                                                  /home/leon/git/swp-report/iMX6_Platform_SDK/output/mx6sdl/obds/smart_device_rev_a/obj/apps/obds/src/tests/touch_screen.o
                                                  /home/leon/git/swp-report/iMX6_Platform_SDK/output/mx6sdl/obds/smart_device_rev_a/obj/apps/obds/src/tests/snvs_srtc_test.o
                                                  /home/leon/git/swp-report/iMX6_Platform_SDK/output/mx6sdl/obds/smart_device_rev_a/obj/apps/obds/src/tests/mlb_os81050.o
                                                  /home/leon/git/swp-report/iMX6_Platform_SDK/output/mx6sdl/obds/smart_device_rev_a/obj/apps/obds/src/tests/i2c_device_temp_sensor_emc1046.o
                                                  /home/leon/git/swp-report/iMX6_Platform_SDK/output/mx6sdl/obds/smart_device_rev_a/obj/apps/obds/src/tests/i2c_device_id_check_p1003_tsc.o
                                                  /home/leon/git/swp-report/iMX6_Platform_SDK/output/mx6sdl/obds/smart_device_rev_a/obj/apps/obds/src/tests/i2c_device_id_check_mma8451.o
                                                  /home/leon/git/swp-report/iMX6_Platform_SDK/output/mx6sdl/obds/smart_device_rev_a/obj/apps/obds/src/tests/i2c_device_id_check_mma8450.o
                                                  /home/leon/git/swp-report/iMX6_Platform_SDK/output/mx6sdl/obds/smart_device_rev_a/obj/apps/obds/src/tests/i2c_device_digital_compass_mag3112.o
                                                  /home/leon/git/swp-report/iMX6_Platform_SDK/output/mx6sdl/obds/smart_device_rev_a/obj/apps/obds/src/tests/i2c_device_digital_compass_mag3110.o
                                                  /home/leon/git/swp-report/iMX6_Platform_SDK/output/mx6sdl/obds/smart_device_rev_a/obj/apps/obds/src/tests/i2c_device_barometer_ppl3115.o
                                                  /home/leon/git/swp-report/iMX6_Platform_SDK/output/mx6sdl/obds/smart_device_rev_a/obj/apps/obds/src/tests/i2c_check_light_sensor_isl29023.o
                                                  /home/leon/git/swp-report/iMX6_Platform_SDK/output/mx6sdl/obds/smart_device_rev_a/obj/apps/obds/src/tests/gpio_led.o
                                                  /home/leon/git/swp-report/iMX6_Platform_SDK/output/mx6sdl/obds/smart_device_rev_a/obj/apps/obds/src/tests/fm_tuner_si476x_test.o
                                                  /home/leon/git/swp-report/iMX6_Platform_SDK/output/mx6sdl/obds/smart_device_rev_a/obj/apps/obds/src/tests/enet_mx6dldq_test.o
hdmi_1080P60_video_output                         /home/leon/git/swp-report/iMX6_Platform_SDK/output/mx6sdl/obds/smart_device_rev_a/obj/sdk/drivers/hdmi/test/hdmi_test.o
hdmi_720P60_video_output                          /home/leon/git/swp-report/iMX6_Platform_SDK/output/mx6sdl/obds/smart_device_rev_a/obj/sdk/drivers/hdmi/test/hdmi_test.o
hdmi_720p_init                                    /home/leon/git/swp-report/iMX6_Platform_SDK/output/mx6sdl/obds/smart_device_rev_a/obj/apps/obds/src/tests/display_test.o
hdmi_audio_mute                                   /home/leon/git/swp-report/iMX6_Platform_SDK/output/mx6sdl/lib/libsdk.a(hdmi_tx_audio.o)
                                                  /home/leon/git/swp-report/iMX6_Platform_SDK/output/mx6sdl/obds/smart_device_rev_a/obj/sdk/drivers/hdmi/test/hdmi_test.o
                                                  /home/leon/git/swp-report/iMX6_Platform_SDK/output/mx6sdl/obds/smart_device_rev_a/obj/apps/obds/src/tests/display_test.o
hdmi_av_frame_composer                            /home/leon/git/swp-report/iMX6_Platform_SDK/output/mx6sdl/lib/libsdk.a(hdmi_tx.o)
                                                  /home/leon/git/swp-report/iMX6_Platform_SDK/output/mx6sdl/obds/smart_device_rev_a/obj/sdk/drivers/hdmi/test/hdmi_test.o
                                                  /home/leon/git/swp-report/iMX6_Platform_SDK/output/mx6sdl/obds/smart_device_rev_a/obj/apps/obds/src/tests/display_test.o
hdmi_clock_set                                    /home/leon/git/swp-report/iMX6_Platform_SDK/output/mx6sdl/lib/libboard_smart_device_rev_a.a(board_hdmi.o)
                                                  /home/leon/git/swp-report/iMX6_Platform_SDK/output/mx6sdl/lib/libsdk.a(ips_disp_panel.o)
hdmi_config_force_video                           /home/leon/git/swp-report/iMX6_Platform_SDK/output/mx6sdl/lib/libsdk.a(hdmi_tx.o)
hdmi_config_forced_pixels                         /home/leon/git/swp-report/iMX6_Platform_SDK/output/mx6sdl/lib/libsdk.a(hdmi_tx.o)
hdmi_config_input_source                          /home/leon/git/swp-report/iMX6_Platform_SDK/output/mx6sdl/lib/libsdk.a(hdmi_tx.o)
                                                  /home/leon/git/swp-report/iMX6_Platform_SDK/output/mx6sdl/obds/smart_device_rev_a/obj/sdk/drivers/hdmi/test/hdmi_test.o
                                                  /home/leon/git/swp-report/iMX6_Platform_SDK/output/mx6sdl/obds/smart_device_rev_a/obj/apps/obds/src/tests/display_test.o
hdmi_iomux_config                                 /home/leon/git/swp-report/iMX6_Platform_SDK/output/mx6sdl/lib/libboard_smart_device_rev_a.a(iomux_config.o)
hdmi_pgm_iomux                                    /home/leon/git/swp-report/iMX6_Platform_SDK/output/mx6sdl/lib/libboard_smart_device_rev_a.a(board_hdmi.o)
                                                  /home/leon/git/swp-report/iMX6_Platform_SDK/output/mx6sdl/lib/libsdk.a(ips_disp_panel.o)
hdmi_phy_init                                     /home/leon/git/swp-report/iMX6_Platform_SDK/output/mx6sdl/lib/libsdk.a(hdmi_tx_phy.o)
                                                  /home/leon/git/swp-report/iMX6_Platform_SDK/output/mx6sdl/obds/smart_device_rev_a/obj/sdk/drivers/hdmi/test/hdmi_test.o
                                                  /home/leon/git/swp-report/iMX6_Platform_SDK/output/mx6sdl/obds/smart_device_rev_a/obj/apps/obds/src/tests/display_test.o
hdmi_phy_int_mask                                 /home/leon/git/swp-report/iMX6_Platform_SDK/output/mx6sdl/lib/libsdk.a(hdmi_tx_phy.o)
hdmi_set_video_mode                               /home/leon/git/swp-report/iMX6_Platform_SDK/output/mx6sdl/lib/libsdk.a(hdmi_common.o)
                                                  /home/leon/git/swp-report/iMX6_Platform_SDK/output/mx6sdl/lib/libsdk.a(hdmi_tx.o)
hdmi_test                                         /home/leon/git/swp-report/iMX6_Platform_SDK/output/mx6sdl/obds/smart_device_rev_a/obj/sdk/drivers/hdmi/test/hdmi_test.o
hdmi_tx_ISR                                       /home/leon/git/swp-report/iMX6_Platform_SDK/output/mx6sdl/obds/smart_device_rev_a/obj/sdk/drivers/hdmi/test/hdmi_test.o
hdmi_tx_cec_pgm_iomux                             /home/leon/git/swp-report/iMX6_Platform_SDK/output/mx6sdl/lib/libboard_smart_device_rev_a.a(board_hdmi.o)
hdmi_tx_ddc_pgm_iomux                             /home/leon/git/swp-report/iMX6_Platform_SDK/output/mx6sdl/lib/libboard_smart_device_rev_a.a(board_hdmi.o)
hdmi_tx_hdcp_config                               /home/leon/git/swp-report/iMX6_Platform_SDK/output/mx6sdl/lib/libsdk.a(hdmi_tx.o)
                                                  /home/leon/git/swp-report/iMX6_Platform_SDK/output/mx6sdl/obds/smart_device_rev_a/obj/sdk/drivers/hdmi/test/hdmi_test.o
                                                  /home/leon/git/swp-report/iMX6_Platform_SDK/output/mx6sdl/obds/smart_device_rev_a/obj/apps/obds/src/tests/display_test.o
hdmi_tx_phydtb_pgm_iomux                          /home/leon/git/swp-report/iMX6_Platform_SDK/output/mx6sdl/lib/libboard_smart_device_rev_a.a(board_hdmi.o)
hdmi_video_csc                                    /home/leon/git/swp-report/iMX6_Platform_SDK/output/mx6sdl/lib/libsdk.a(hdmi_tx.o)
                                                  /home/leon/git/swp-report/iMX6_Platform_SDK/output/mx6sdl/obds/smart_device_rev_a/obj/sdk/drivers/hdmi/test/hdmi_test.o
                                                  /home/leon/git/swp-report/iMX6_Platform_SDK/output/mx6sdl/obds/smart_device_rev_a/obj/apps/obds/src/tests/display_test.o
hdmi_video_packetize                              /home/leon/git/swp-report/iMX6_Platform_SDK/output/mx6sdl/lib/libsdk.a(hdmi_tx.o)
                                                  /home/leon/git/swp-report/iMX6_Platform_SDK/output/mx6sdl/obds/smart_device_rev_a/obj/sdk/drivers/hdmi/test/hdmi_test.o
                                                  /home/leon/git/swp-report/iMX6_Platform_SDK/output/mx6sdl/obds/smart_device_rev_a/obj/apps/obds/src/tests/display_test.o
hdmi_video_sample                                 /home/leon/git/swp-report/iMX6_Platform_SDK/output/mx6sdl/lib/libsdk.a(hdmi_tx.o)
                                                  /home/leon/git/swp-report/iMX6_Platform_SDK/output/mx6sdl/obds/smart_device_rev_a/obj/sdk/drivers/hdmi/test/hdmi_test.o
                                                  /home/leon/git/swp-report/iMX6_Platform_SDK/output/mx6sdl/obds/smart_device_rev_a/obj/apps/obds/src/tests/display_test.o
host_cfg_block                                    /home/leon/git/swp-report/iMX6_Platform_SDK/output/mx6sdl/lib/libsdk.a(usdhc_host.o)
                                                  /home/leon/git/swp-report/iMX6_Platform_SDK/output/mx6sdl/lib/libsdk.a(usdhc_mmc.o)
                                                  /home/leon/git/swp-report/iMX6_Platform_SDK/output/mx6sdl/lib/libsdk.a(usdhc.o)
host_cfg_clock                                    /home/leon/git/swp-report/iMX6_Platform_SDK/output/mx6sdl/lib/libsdk.a(usdhc_host.o)
                                                  /home/leon/git/swp-report/iMX6_Platform_SDK/output/mx6sdl/lib/libsdk.a(usdhc_sd.o)
                                                  /home/leon/git/swp-report/iMX6_Platform_SDK/output/mx6sdl/lib/libsdk.a(usdhc_mmc.o)
                                                  /home/leon/git/swp-report/iMX6_Platform_SDK/output/mx6sdl/lib/libsdk.a(usdhc.o)
host_clear_fifo                                   /home/leon/git/swp-report/iMX6_Platform_SDK/output/mx6sdl/lib/libsdk.a(usdhc_host.o)
                                                  /home/leon/git/swp-report/iMX6_Platform_SDK/output/mx6sdl/lib/libsdk.a(usdhc.o)
host_data_read                                    /home/leon/git/swp-report/iMX6_Platform_SDK/output/mx6sdl/lib/libsdk.a(usdhc_host.o)
                                                  /home/leon/git/swp-report/iMX6_Platform_SDK/output/mx6sdl/lib/libsdk.a(usdhc_mmc.o)
                                                  /home/leon/git/swp-report/iMX6_Platform_SDK/output/mx6sdl/lib/libsdk.a(usdhc.o)
host_data_write                                   /home/leon/git/swp-report/iMX6_Platform_SDK/output/mx6sdl/lib/libsdk.a(usdhc_host.o)
                                                  /home/leon/git/swp-report/iMX6_Platform_SDK/output/mx6sdl/lib/libsdk.a(usdhc.o)
host_init                                         /home/leon/git/swp-report/iMX6_Platform_SDK/output/mx6sdl/lib/libsdk.a(usdhc_host.o)
                                                  /home/leon/git/swp-report/iMX6_Platform_SDK/output/mx6sdl/lib/libsdk.a(usdhc.o)
host_init_active                                  /home/leon/git/swp-report/iMX6_Platform_SDK/output/mx6sdl/lib/libsdk.a(usdhc_host.o)
                                                  /home/leon/git/swp-report/iMX6_Platform_SDK/output/mx6sdl/lib/libsdk.a(usdhc.o)
host_read_response                                /home/leon/git/swp-report/iMX6_Platform_SDK/output/mx6sdl/lib/libsdk.a(usdhc_host.o)
                                                  /home/leon/git/swp-report/iMX6_Platform_SDK/output/mx6sdl/lib/libsdk.a(usdhc_sd.o)
                                                  /home/leon/git/swp-report/iMX6_Platform_SDK/output/mx6sdl/lib/libsdk.a(usdhc_mmc.o)
                                                  /home/leon/git/swp-report/iMX6_Platform_SDK/output/mx6sdl/lib/libsdk.a(usdhc.o)
host_reset                                        /home/leon/git/swp-report/iMX6_Platform_SDK/output/mx6sdl/lib/libsdk.a(usdhc_host.o)
                                                  /home/leon/git/swp-report/iMX6_Platform_SDK/output/mx6sdl/lib/libsdk.a(usdhc.o)
host_send_cmd                                     /home/leon/git/swp-report/iMX6_Platform_SDK/output/mx6sdl/lib/libsdk.a(usdhc_host.o)
                                                  /home/leon/git/swp-report/iMX6_Platform_SDK/output/mx6sdl/lib/libsdk.a(usdhc_sd.o)
                                                  /home/leon/git/swp-report/iMX6_Platform_SDK/output/mx6sdl/lib/libsdk.a(usdhc_mmc.o)
                                                  /home/leon/git/swp-report/iMX6_Platform_SDK/output/mx6sdl/lib/libsdk.a(usdhc.o)
host_set_bus_width                                /home/leon/git/swp-report/iMX6_Platform_SDK/output/mx6sdl/lib/libsdk.a(usdhc_host.o)
                                                  /home/leon/git/swp-report/iMX6_Platform_SDK/output/mx6sdl/lib/libsdk.a(usdhc_sd.o)
                                                  /home/leon/git/swp-report/iMX6_Platform_SDK/output/mx6sdl/lib/libsdk.a(usdhc_mmc.o)
host_setup_adma                                   /home/leon/git/swp-report/iMX6_Platform_SDK/output/mx6sdl/lib/libsdk.a(usdhc_host.o)
                                                  /home/leon/git/swp-report/iMX6_Platform_SDK/output/mx6sdl/lib/libsdk.a(usdhc.o)
i2c1_iomux_config                                 /home/leon/git/swp-report/iMX6_Platform_SDK/output/mx6sdl/lib/libboard_smart_device_rev_a.a(i2c1_iomux_config.o)
                                                  /home/leon/git/swp-report/iMX6_Platform_SDK/output/mx6sdl/lib/libboard_smart_device_rev_a.a(iomux_config.o)
                                                  /home/leon/git/swp-report/iMX6_Platform_SDK/output/mx6sdl/lib/libboard_smart_device_rev_a.a(i2c_iomux_config.o)
i2c2_iomux_config                                 /home/leon/git/swp-report/iMX6_Platform_SDK/output/mx6sdl/lib/libboard_smart_device_rev_a.a(i2c2_iomux_config.o)
                                                  /home/leon/git/swp-report/iMX6_Platform_SDK/output/mx6sdl/lib/libboard_smart_device_rev_a.a(iomux_config.o)
                                                  /home/leon/git/swp-report/iMX6_Platform_SDK/output/mx6sdl/lib/libboard_smart_device_rev_a.a(i2c_iomux_config.o)
i2c3_iomux_config                                 /home/leon/git/swp-report/iMX6_Platform_SDK/output/mx6sdl/lib/libboard_smart_device_rev_a.a(i2c3_iomux_config.o)
                                                  /home/leon/git/swp-report/iMX6_Platform_SDK/output/mx6sdl/lib/libboard_smart_device_rev_a.a(iomux_config.o)
                                                  /home/leon/git/swp-report/iMX6_Platform_SDK/output/mx6sdl/lib/libboard_smart_device_rev_a.a(i2c_iomux_config.o)
i2c4_iomux_config                                 /home/leon/git/swp-report/iMX6_Platform_SDK/output/mx6sdl/lib/libboard_smart_device_rev_a.a(iomux_config.o)
                                                  /home/leon/git/swp-report/iMX6_Platform_SDK/output/mx6sdl/lib/libboard_smart_device_rev_a.a(i2c_iomux_config.o)
i2c_device_check_cs42888                          /home/leon/git/swp-report/iMX6_Platform_SDK/output/mx6sdl/obds/smart_device_rev_a/obj/apps/obds/src/tests/i2c_device_check_cs42888.o
i2c_device_check_max11801                         /home/leon/git/swp-report/iMX6_Platform_SDK/output/mx6sdl/obds/smart_device_rev_a/obj/apps/obds/src/tests/touch_screen_max11801.o
i2c_device_check_max11801_AUX                     /home/leon/git/swp-report/iMX6_Platform_SDK/output/mx6sdl/obds/smart_device_rev_a/obj/apps/obds/src/tests/touch_screen_max11801.o
i2c_device_emc1046_test                           /home/leon/git/swp-report/iMX6_Platform_SDK/output/mx6sdl/obds/smart_device_rev_a/obj/apps/obds/src/tests/i2c_device_temp_sensor_emc1046.o
i2c_device_id_check_DA9053                        /home/leon/git/swp-report/iMX6_Platform_SDK/output/mx6sdl/obds/smart_device_rev_a/obj/apps/obds/src/tests/pmic_da9053.o
i2c_device_id_check_MAX17135                      /home/leon/git/swp-report/iMX6_Platform_SDK/output/mx6sdl/obds/smart_device_rev_a/obj/apps/obds/src/tests/pmic_max17135.o
i2c_device_id_check_MMA8450                       /home/leon/git/swp-report/iMX6_Platform_SDK/output/mx6sdl/obds/smart_device_rev_a/obj/apps/obds/src/tests/i2c_device_id_check_mma8450.o
i2c_device_id_check_MMA8451                       /home/leon/git/swp-report/iMX6_Platform_SDK/output/mx6sdl/obds/smart_device_rev_a/obj/apps/obds/src/tests/i2c_device_id_check_mma8451.o
                                                  /home/leon/git/swp-report/iMX6_Platform_SDK/output/mx6sdl/obds/smart_device_rev_a/obj/apps/obds/src/obds.o
i2c_device_id_check_emc1046                       /home/leon/git/swp-report/iMX6_Platform_SDK/output/mx6sdl/obds/smart_device_rev_a/obj/apps/obds/src/tests/i2c_device_temp_sensor_emc1046.o
i2c_device_id_check_isl29023                      /home/leon/git/swp-report/iMX6_Platform_SDK/output/mx6sdl/obds/smart_device_rev_a/obj/apps/obds/src/tests/i2c_check_light_sensor_isl29023.o
                                                  /home/leon/git/swp-report/iMX6_Platform_SDK/output/mx6sdl/obds/smart_device_rev_a/obj/apps/obds/src/obds.o
i2c_device_id_check_mag3110                       /home/leon/git/swp-report/iMX6_Platform_SDK/output/mx6sdl/obds/smart_device_rev_a/obj/apps/obds/src/tests/i2c_device_digital_compass_mag3110.o
                                                  /home/leon/git/swp-report/iMX6_Platform_SDK/output/mx6sdl/obds/smart_device_rev_a/obj/apps/obds/src/obds.o
i2c_device_id_check_mag3112                       /home/leon/git/swp-report/iMX6_Platform_SDK/output/mx6sdl/obds/smart_device_rev_a/obj/apps/obds/src/tests/i2c_device_digital_compass_mag3112.o
i2c_device_id_check_mc1323                        /home/leon/git/swp-report/iMX6_Platform_SDK/output/mx6sdl/obds/smart_device_rev_a/obj/apps/obds/src/tests/i2c_device_zigbee_mc1323.o
i2c_device_id_check_p1003                         /home/leon/git/swp-report/iMX6_Platform_SDK/output/mx6sdl/obds/smart_device_rev_a/obj/apps/obds/src/tests/i2c_device_id_check_p1003_tsc.o
                                                  /home/leon/git/swp-report/iMX6_Platform_SDK/output/mx6sdl/obds/smart_device_rev_a/obj/apps/obds/src/obds.o
i2c_device_id_check_ppl3115                       /home/leon/git/swp-report/iMX6_Platform_SDK/output/mx6sdl/obds/smart_device_rev_a/obj/apps/obds/src/tests/i2c_device_barometer_ppl3115.o
i2c_device_id_check_touch_button                  /home/leon/git/swp-report/iMX6_Platform_SDK/output/mx6sdl/obds/smart_device_rev_a/obj/apps/obds/src/tests/touch_button_test.o
i2c_device_mc1323_test                            /home/leon/git/swp-report/iMX6_Platform_SDK/output/mx6sdl/obds/smart_device_rev_a/obj/apps/obds/src/tests/i2c_device_zigbee_mc1323.o
i2c_device_ppl3115_test                           /home/leon/git/swp-report/iMX6_Platform_SDK/output/mx6sdl/obds/smart_device_rev_a/obj/apps/obds/src/tests/i2c_device_barometer_ppl3115.o
i2c_get_request_instance                          /home/leon/git/swp-report/iMX6_Platform_SDK/output/mx6sdl/lib/libsdk.a(imx_i2c.o)
i2c_init                                          /home/leon/git/swp-report/iMX6_Platform_SDK/output/mx6sdl/lib/libsdk.a(imx_i2c.o)
                                                  /home/leon/git/swp-report/iMX6_Platform_SDK/output/mx6sdl/lib/libsdk.a(smd_sensor.o)
                                                  /home/leon/git/swp-report/iMX6_Platform_SDK/output/mx6sdl/lib/libsdk.a(wm8962.o)
                                                  /home/leon/git/swp-report/iMX6_Platform_SDK/output/mx6sdl/lib/libsdk.a(wm8958_dac.o)
                                                  /home/leon/git/swp-report/iMX6_Platform_SDK/output/mx6sdl/lib/libsdk.a(sgtl5000.o)
                                                  /home/leon/git/swp-report/iMX6_Platform_SDK/output/mx6sdl/lib/libsdk.a(cs42888.o)
                                                  /home/leon/git/swp-report/iMX6_Platform_SDK/output/mx6sdl/lib/libsdk.a(max7310.o)
                                                  /home/leon/git/swp-report/iMX6_Platform_SDK/output/mx6sdl/obds/smart_device_rev_a/obj/sdk/common/pmic/pfuse/pf0100.o
                                                  /home/leon/git/swp-report/iMX6_Platform_SDK/output/mx6sdl/obds/smart_device_rev_a/obj/apps/obds/src/tests/video_dec_adv7180.o
                                                  /home/leon/git/swp-report/iMX6_Platform_SDK/output/mx6sdl/obds/smart_device_rev_a/obj/apps/obds/src/tests/touch_screen_max11801.o
                                                  /home/leon/git/swp-report/iMX6_Platform_SDK/output/mx6sdl/obds/smart_device_rev_a/obj/apps/obds/src/tests/touch_screen.o
                                                  /home/leon/git/swp-report/iMX6_Platform_SDK/output/mx6sdl/obds/smart_device_rev_a/obj/apps/obds/src/tests/touch_button_test.o
                                                  /home/leon/git/swp-report/iMX6_Platform_SDK/output/mx6sdl/obds/smart_device_rev_a/obj/apps/obds/src/tests/pmic_max17135.o
                                                  /home/leon/git/swp-report/iMX6_Platform_SDK/output/mx6sdl/obds/smart_device_rev_a/obj/apps/obds/src/tests/pmic_lt3589.o
                                                  /home/leon/git/swp-report/iMX6_Platform_SDK/output/mx6sdl/obds/smart_device_rev_a/obj/apps/obds/src/tests/pmic_da9053.o
                                                  /home/leon/git/swp-report/iMX6_Platform_SDK/output/mx6sdl/obds/smart_device_rev_a/obj/apps/obds/src/tests/mlb_os81050.o
                                                  /home/leon/git/swp-report/iMX6_Platform_SDK/output/mx6sdl/obds/smart_device_rev_a/obj/apps/obds/src/tests/i2c_eeprom_at24cxx_test.o
                                                  /home/leon/git/swp-report/iMX6_Platform_SDK/output/mx6sdl/obds/smart_device_rev_a/obj/apps/obds/src/tests/i2c_device_zigbee_mc1323.o
                                                  /home/leon/git/swp-report/iMX6_Platform_SDK/output/mx6sdl/obds/smart_device_rev_a/obj/apps/obds/src/tests/i2c_device_temp_sensor_emc1046.o
                                                  /home/leon/git/swp-report/iMX6_Platform_SDK/output/mx6sdl/obds/smart_device_rev_a/obj/apps/obds/src/tests/i2c_device_id_check_p1003_tsc.o
                                                  /home/leon/git/swp-report/iMX6_Platform_SDK/output/mx6sdl/obds/smart_device_rev_a/obj/apps/obds/src/tests/i2c_device_id_check_mma8451.o
                                                  /home/leon/git/swp-report/iMX6_Platform_SDK/output/mx6sdl/obds/smart_device_rev_a/obj/apps/obds/src/tests/i2c_device_id_check_mma8450.o
                                                  /home/leon/git/swp-report/iMX6_Platform_SDK/output/mx6sdl/obds/smart_device_rev_a/obj/apps/obds/src/tests/i2c_device_digital_compass_mag3112.o
                                                  /home/leon/git/swp-report/iMX6_Platform_SDK/output/mx6sdl/obds/smart_device_rev_a/obj/apps/obds/src/tests/i2c_device_digital_compass_mag3110.o
                                                  /home/leon/git/swp-report/iMX6_Platform_SDK/output/mx6sdl/obds/smart_device_rev_a/obj/apps/obds/src/tests/i2c_device_barometer_ppl3115.o
                                                  /home/leon/git/swp-report/iMX6_Platform_SDK/output/mx6sdl/obds/smart_device_rev_a/obj/apps/obds/src/tests/i2c_check_light_sensor_isl29023.o
                                                  /home/leon/git/swp-report/iMX6_Platform_SDK/output/mx6sdl/obds/smart_device_rev_a/obj/apps/obds/src/tests/fm_tuner_si476x_test.o
i2c_iomux_config                                  /home/leon/git/swp-report/iMX6_Platform_SDK/output/mx6sdl/lib/libboard_smart_device_rev_a.a(i2c_iomux_config.o)
                                                  /home/leon/git/swp-report/iMX6_Platform_SDK/output/mx6sdl/lib/libsdk.a(imx_i2c.o)
i2c_read                                          /home/leon/git/swp-report/iMX6_Platform_SDK/output/mx6sdl/lib/libsdk.a(imx_i2c.o)
                                                  /home/leon/git/swp-report/iMX6_Platform_SDK/output/mx6sdl/lib/libsdk.a(sgtl5000.o)
                                                  /home/leon/git/swp-report/iMX6_Platform_SDK/output/mx6sdl/lib/libsdk.a(cs42888.o)
                                                  /home/leon/git/swp-report/iMX6_Platform_SDK/output/mx6sdl/lib/libsdk.a(max7310.o)
i2c_setup_interrupt                               /home/leon/git/swp-report/iMX6_Platform_SDK/output/mx6sdl/lib/libsdk.a(imx_i2c.o)
i2c_write                                         /home/leon/git/swp-report/iMX6_Platform_SDK/output/mx6sdl/lib/libsdk.a(imx_i2c.o)
                                                  /home/leon/git/swp-report/iMX6_Platform_SDK/output/mx6sdl/lib/libsdk.a(sgtl5000.o)
                                                  /home/leon/git/swp-report/iMX6_Platform_SDK/output/mx6sdl/lib/libsdk.a(cs42888.o)
                                                  /home/leon/git/swp-report/iMX6_Platform_SDK/output/mx6sdl/lib/libsdk.a(max7310.o)
i2c_xfer                                          /home/leon/git/swp-report/iMX6_Platform_SDK/output/mx6sdl/lib/libsdk.a(imx_i2c.o)
                                                  /home/leon/git/swp-report/iMX6_Platform_SDK/output/mx6sdl/lib/libsdk.a(smd_sensor.o)
                                                  /home/leon/git/swp-report/iMX6_Platform_SDK/output/mx6sdl/lib/libsdk.a(wm8962.o)
                                                  /home/leon/git/swp-report/iMX6_Platform_SDK/output/mx6sdl/lib/libsdk.a(wm8958_dac.o)
                                                  /home/leon/git/swp-report/iMX6_Platform_SDK/output/mx6sdl/obds/smart_device_rev_a/obj/sdk/common/pmic/pfuse/pf0100.o
                                                  /home/leon/git/swp-report/iMX6_Platform_SDK/output/mx6sdl/obds/smart_device_rev_a/obj/apps/obds/src/tests/video_dec_adv7180.o
                                                  /home/leon/git/swp-report/iMX6_Platform_SDK/output/mx6sdl/obds/smart_device_rev_a/obj/apps/obds/src/tests/touch_screen_max11801.o
                                                  /home/leon/git/swp-report/iMX6_Platform_SDK/output/mx6sdl/obds/smart_device_rev_a/obj/apps/obds/src/tests/touch_screen.o
                                                  /home/leon/git/swp-report/iMX6_Platform_SDK/output/mx6sdl/obds/smart_device_rev_a/obj/apps/obds/src/tests/touch_button_test.o
                                                  /home/leon/git/swp-report/iMX6_Platform_SDK/output/mx6sdl/obds/smart_device_rev_a/obj/apps/obds/src/tests/pmic_max17135.o
                                                  /home/leon/git/swp-report/iMX6_Platform_SDK/output/mx6sdl/obds/smart_device_rev_a/obj/apps/obds/src/tests/pmic_lt3589.o
                                                  /home/leon/git/swp-report/iMX6_Platform_SDK/output/mx6sdl/obds/smart_device_rev_a/obj/apps/obds/src/tests/pmic_da9053.o
                                                  /home/leon/git/swp-report/iMX6_Platform_SDK/output/mx6sdl/obds/smart_device_rev_a/obj/apps/obds/src/tests/mlb_os81050.o
                                                  /home/leon/git/swp-report/iMX6_Platform_SDK/output/mx6sdl/obds/smart_device_rev_a/obj/apps/obds/src/tests/i2c_eeprom_at24cxx_test.o
                                                  /home/leon/git/swp-report/iMX6_Platform_SDK/output/mx6sdl/obds/smart_device_rev_a/obj/apps/obds/src/tests/i2c_device_zigbee_mc1323.o
                                                  /home/leon/git/swp-report/iMX6_Platform_SDK/output/mx6sdl/obds/smart_device_rev_a/obj/apps/obds/src/tests/i2c_device_temp_sensor_emc1046.o
                                                  /home/leon/git/swp-report/iMX6_Platform_SDK/output/mx6sdl/obds/smart_device_rev_a/obj/apps/obds/src/tests/i2c_device_id_check_p1003_tsc.o
                                                  /home/leon/git/swp-report/iMX6_Platform_SDK/output/mx6sdl/obds/smart_device_rev_a/obj/apps/obds/src/tests/i2c_device_id_check_mma8451.o
                                                  /home/leon/git/swp-report/iMX6_Platform_SDK/output/mx6sdl/obds/smart_device_rev_a/obj/apps/obds/src/tests/i2c_device_id_check_mma8450.o
                                                  /home/leon/git/swp-report/iMX6_Platform_SDK/output/mx6sdl/obds/smart_device_rev_a/obj/apps/obds/src/tests/i2c_device_digital_compass_mag3112.o
                                                  /home/leon/git/swp-report/iMX6_Platform_SDK/output/mx6sdl/obds/smart_device_rev_a/obj/apps/obds/src/tests/i2c_device_digital_compass_mag3110.o
                                                  /home/leon/git/swp-report/iMX6_Platform_SDK/output/mx6sdl/obds/smart_device_rev_a/obj/apps/obds/src/tests/i2c_device_barometer_ppl3115.o
                                                  /home/leon/git/swp-report/iMX6_Platform_SDK/output/mx6sdl/obds/smart_device_rev_a/obj/apps/obds/src/tests/i2c_check_light_sensor_isl29023.o
                                                  /home/leon/git/swp-report/iMX6_Platform_SDK/output/mx6sdl/obds/smart_device_rev_a/obj/apps/obds/src/tests/fm_tuner_si476x_test.o
i2s_audio_test                                    /home/leon/git/swp-report/iMX6_Platform_SDK/output/mx6sdl/obds/smart_device_rev_a/obj/apps/obds/src/tests/audio_ssi_test.o
                                                  /home/leon/git/swp-report/iMX6_Platform_SDK/output/mx6sdl/obds/smart_device_rev_a/obj/apps/obds/src/obds.o
imx_KSZ9021RN_reset                               /home/leon/git/swp-report/iMX6_Platform_SDK/output/mx6sdl/lib/libboard_smart_device_rev_a.a(board_network.o)
                                                  /home/leon/git/swp-report/iMX6_Platform_SDK/output/mx6sdl/obds/smart_device_rev_a/obj/apps/obds/src/tests/enet_mx6dldq_test.o
imx_ar8031_iomux                                  /home/leon/git/swp-report/iMX6_Platform_SDK/output/mx6sdl/lib/libboard_smart_device_rev_a.a(board_network.o)
imx_ar8031_reset                                  /home/leon/git/swp-report/iMX6_Platform_SDK/output/mx6sdl/lib/libboard_smart_device_rev_a.a(board_network.o)
                                                  /home/leon/git/swp-report/iMX6_Platform_SDK/output/mx6sdl/obds/smart_device_rev_a/obj/apps/obds/src/tests/enet_mx6dldq_test.o
imx_enet_get_phy_status                           /home/leon/git/swp-report/iMX6_Platform_SDK/output/mx6sdl/lib/libsdk.a(enet_drv.o)
imx_enet_init                                     /home/leon/git/swp-report/iMX6_Platform_SDK/output/mx6sdl/lib/libsdk.a(enet_drv.o)
                                                  /home/leon/git/swp-report/iMX6_Platform_SDK/output/mx6sdl/obds/smart_device_rev_a/obj/apps/obds/src/tests/enet_mx6dldq_test.o
imx_enet_iomux                                    /home/leon/git/swp-report/iMX6_Platform_SDK/output/mx6sdl/lib/libboard_smart_device_rev_a.a(board_network.o)
                                                  /home/leon/git/swp-report/iMX6_Platform_SDK/output/mx6sdl/obds/smart_device_rev_a/obj/apps/obds/src/tests/enet_mx6dldq_test.o
imx_enet_isolate_phy                              /home/leon/git/swp-report/iMX6_Platform_SDK/output/mx6sdl/lib/libsdk.a(enet_drv.o)
imx_enet_mii_read                                 /home/leon/git/swp-report/iMX6_Platform_SDK/output/mx6sdl/lib/libsdk.a(enet_drv.o)
imx_enet_mii_type                                 /home/leon/git/swp-report/iMX6_Platform_SDK/output/mx6sdl/lib/libsdk.a(enet_drv.o)
                                                  /home/leon/git/swp-report/iMX6_Platform_SDK/output/mx6sdl/obds/smart_device_rev_a/obj/apps/obds/src/tests/enet_mx6dldq_test.o
imx_enet_mii_write                                /home/leon/git/swp-report/iMX6_Platform_SDK/output/mx6sdl/lib/libsdk.a(enet_drv.o)
imx_enet_phy_enable_external_loopback             /home/leon/git/swp-report/iMX6_Platform_SDK/output/mx6sdl/lib/libsdk.a(enet_drv.o)
imx_enet_phy_init                                 /home/leon/git/swp-report/iMX6_Platform_SDK/output/mx6sdl/lib/libsdk.a(enet_drv.o)
                                                  /home/leon/git/swp-report/iMX6_Platform_SDK/output/mx6sdl/obds/smart_device_rev_a/obj/apps/obds/src/tests/enet_mx6dldq_test.o
imx_enet_phy_reset                                /home/leon/git/swp-report/iMX6_Platform_SDK/output/mx6sdl/lib/libboard_smart_device_rev_a.a(board_network.o)
imx_enet_poll                                     /home/leon/git/swp-report/iMX6_Platform_SDK/output/mx6sdl/lib/libsdk.a(enet_drv.o)
                                                  /home/leon/git/swp-report/iMX6_Platform_SDK/output/mx6sdl/obds/smart_device_rev_a/obj/apps/obds/src/tests/enet_mx6dldq_test.o
imx_enet_recv                                     /home/leon/git/swp-report/iMX6_Platform_SDK/output/mx6sdl/lib/libsdk.a(enet_drv.o)
                                                  /home/leon/git/swp-report/iMX6_Platform_SDK/output/mx6sdl/obds/smart_device_rev_a/obj/apps/obds/src/tests/enet_mx6dldq_test.o
imx_enet_send                                     /home/leon/git/swp-report/iMX6_Platform_SDK/output/mx6sdl/lib/libsdk.a(enet_drv.o)
                                                  /home/leon/git/swp-report/iMX6_Platform_SDK/output/mx6sdl/obds/smart_device_rev_a/obj/apps/obds/src/tests/enet_mx6dldq_test.o
imx_enet_start                                    /home/leon/git/swp-report/iMX6_Platform_SDK/output/mx6sdl/lib/libsdk.a(enet_drv.o)
                                                  /home/leon/git/swp-report/iMX6_Platform_SDK/output/mx6sdl/obds/smart_device_rev_a/obj/apps/obds/src/tests/enet_mx6dldq_test.o
imx_enet_stop                                     /home/leon/git/swp-report/iMX6_Platform_SDK/output/mx6sdl/lib/libsdk.a(enet_drv.o)
                                                  /home/leon/git/swp-report/iMX6_Platform_SDK/output/mx6sdl/obds/smart_device_rev_a/obj/apps/obds/src/tests/enet_mx6dldq_test.o
imx_enet_unisolate_phy                            /home/leon/git/swp-report/iMX6_Platform_SDK/output/mx6sdl/lib/libsdk.a(enet_drv.o)
imx_esai_1                                        /home/leon/git/swp-report/iMX6_Platform_SDK/output/mx6sdl/lib/libsdk.a(imx_esai.o)
                                                  /home/leon/git/swp-report/iMX6_Platform_SDK/output/mx6sdl/obds/smart_device_rev_a/obj/sdk/drivers/audio/src/snd_card.o
imx_spdif                                         /home/leon/git/swp-report/iMX6_Platform_SDK/output/mx6sdl/lib/libsdk.a(imx_spdif.o)
                                                  /home/leon/git/swp-report/iMX6_Platform_SDK/output/mx6sdl/obds/smart_device_rev_a/obj/sdk/drivers/audio/src/snd_card.o
imx_ssi_1                                         /home/leon/git/swp-report/iMX6_Platform_SDK/output/mx6sdl/lib/libsdk.a(imx-ssi.o)
imx_ssi_2                                         /home/leon/git/swp-report/iMX6_Platform_SDK/output/mx6sdl/lib/libsdk.a(imx-ssi.o)
                                                  /home/leon/git/swp-report/iMX6_Platform_SDK/output/mx6sdl/obds/smart_device_rev_a/obj/sdk/drivers/audio/src/snd_card.o
imx_ssi_3                                         /home/leon/git/swp-report/iMX6_Platform_SDK/output/mx6sdl/lib/libsdk.a(imx-ssi.o)
init_android_buttons                              /home/leon/git/swp-report/iMX6_Platform_SDK/output/mx6sdl/obds/smart_device_rev_a/obj/apps/obds/src/tests/android_buttons_test.o
init_dma_data                                     /home/leon/git/swp-report/iMX6_Platform_SDK/output/mx6sdl/obds/smart_device_rev_a/obj/sdk/drivers/hdmi/test/init_dma_data.o
                                                  /home/leon/git/swp-report/iMX6_Platform_SDK/output/mx6sdl/obds/smart_device_rev_a/obj/sdk/drivers/hdmi/test/hdmi_test.o
init_hdmi_interrupt                               /home/leon/git/swp-report/iMX6_Platform_SDK/output/mx6sdl/obds/smart_device_rev_a/obj/sdk/drivers/hdmi/test/hdmi_test.o
initialise_monitor_handles                        /home/src/arm/target/bin/../arm-none-eabi/lib//libc.a(lib_a-syscalls.o)
input_dcd                                         /home/leon/git/swp-report/iMX6_Platform_SDK/output/mx6sdl/lib/libboard_smart_device_rev_a.a(dcd.o)
input_dcd_hdr                                     /home/leon/git/swp-report/iMX6_Platform_SDK/output/mx6sdl/lib/libboard_smart_device_rev_a.a(dcd.o)
                                                  /home/leon/git/swp-report/iMX6_Platform_SDK/output/mx6sdl/obds/smart_device_rev_a/obj/apps/common/ivt.o
input_dcd_wrt_cmd                                 /home/leon/git/swp-report/iMX6_Platform_SDK/output/mx6sdl/lib/libboard_smart_device_rev_a.a(dcd.o)
input_ivt                                         /home/leon/git/swp-report/iMX6_Platform_SDK/output/mx6sdl/obds/smart_device_rev_a/obj/apps/common/ivt.o
instance                                          /home/leon/git/swp-report/iMX6_Platform_SDK/output/mx6sdl/obds/smart_device_rev_a/obj/apps/obds/src/tests/mmcsd_test.o
iomux_config                                      /home/leon/git/swp-report/iMX6_Platform_SDK/output/mx6sdl/lib/libboard_smart_device_rev_a.a(iomux_config.o)
ips_deinterlace_proc                              /home/leon/git/swp-report/iMX6_Platform_SDK/output/mx6sdl/lib/libsdk.a(ipu_vdi.o)
                                                  /home/leon/git/swp-report/iMX6_Platform_SDK/output/mx6sdl/lib/libsdk.a(ipu_common.o)
ips_display_test                                  /home/leon/git/swp-report/iMX6_Platform_SDK/output/mx6sdl/obds/smart_device_rev_a/obj/sdk/drivers/ipu/test/ips_display.o
ips_ext_hdmi_transmitter_1080P60_stream           /home/leon/git/swp-report/iMX6_Platform_SDK/output/mx6sdl/obds/smart_device_rev_a/obj/sdk/drivers/ipu/test/ips_display.o
ips_hannstar_xga_yuv_stream                       /home/leon/git/swp-report/iMX6_Platform_SDK/output/mx6sdl/obds/smart_device_rev_a/obj/sdk/drivers/ipu/test/ips_display.o
ips_hdmi_1080P60_stream                           /home/leon/git/swp-report/iMX6_Platform_SDK/output/mx6sdl/obds/smart_device_rev_a/obj/sdk/drivers/ipu/test/ips_display.o
                                                  /home/leon/git/swp-report/iMX6_Platform_SDK/output/mx6sdl/obds/smart_device_rev_a/obj/sdk/drivers/hdmi/test/hdmi_test.o
ips_hdmi_720P60_stream                            /home/leon/git/swp-report/iMX6_Platform_SDK/output/mx6sdl/obds/smart_device_rev_a/obj/sdk/drivers/ipu/test/ips_display.o
                                                  /home/leon/git/swp-report/iMX6_Platform_SDK/output/mx6sdl/obds/smart_device_rev_a/obj/sdk/drivers/hdmi/test/hdmi_test.o
ips_hdmi_stream                                   /home/leon/git/swp-report/iMX6_Platform_SDK/output/mx6sdl/obds/smart_device_rev_a/obj/sdk/drivers/ipu/test/ips_display.o
                                                  /home/leon/git/swp-report/iMX6_Platform_SDK/output/mx6sdl/obds/smart_device_rev_a/obj/sdk/drivers/hdmi/test/hdmi_test.o
ips_mipi_wvga_rgb_stream                          /home/leon/git/swp-report/iMX6_Platform_SDK/output/mx6sdl/obds/smart_device_rev_a/obj/sdk/drivers/ipu/test/ips_display.o
ipu1_ch0_eobnd_isr                                /home/leon/git/swp-report/iMX6_Platform_SDK/output/mx6sdl/lib/libsdk.a(ipu_common.o)
ipu1_iomux_config                                 /home/leon/git/swp-report/iMX6_Platform_SDK/output/mx6sdl/lib/libboard_smart_device_rev_a.a(ipu1_iomux_config.o)
                                                  /home/leon/git/swp-report/iMX6_Platform_SDK/output/mx6sdl/lib/libboard_smart_device_rev_a.a(ipu_iomux_config.o)
                                                  /home/leon/git/swp-report/iMX6_Platform_SDK/output/mx6sdl/lib/libboard_smart_device_rev_a.a(iomux_config.o)
                                                  /home/leon/git/swp-report/iMX6_Platform_SDK/output/mx6sdl/lib/libboard_smart_device_rev_a.a(board_hdmi.o)
                                                  /home/leon/git/swp-report/iMX6_Platform_SDK/output/mx6sdl/lib/libsdk.a(ips_disp_panel.o)
                                                  /home/leon/git/swp-report/iMX6_Platform_SDK/output/mx6sdl/obds/smart_device_rev_a/obj/sdk/drivers/camera/test/sensor_capture.o
                                                  /home/leon/git/swp-report/iMX6_Platform_SDK/output/mx6sdl/obds/smart_device_rev_a/obj/sdk/drivers/camera/test/csi_test_mode.o
ipu_capture_disp_link                             /home/leon/git/swp-report/iMX6_Platform_SDK/output/mx6sdl/lib/libsdk.a(ipu_csi.o)
                                                  /home/leon/git/swp-report/iMX6_Platform_SDK/output/mx6sdl/lib/libsdk.a(ipu_common.o)
ipu_capture_setup                                 /home/leon/git/swp-report/iMX6_Platform_SDK/output/mx6sdl/lib/libsdk.a(ipu_common.o)
                                                  /home/leon/git/swp-report/iMX6_Platform_SDK/output/mx6sdl/obds/smart_device_rev_a/obj/sdk/drivers/camera/test/sensor_capture.o
                                                  /home/leon/git/swp-report/iMX6_Platform_SDK/output/mx6sdl/obds/smart_device_rev_a/obj/sdk/drivers/camera/test/csi_test_mode.o
ipu_capture_streamoff                             /home/leon/git/swp-report/iMX6_Platform_SDK/output/mx6sdl/lib/libsdk.a(ipu_common.o)
                                                  /home/leon/git/swp-report/iMX6_Platform_SDK/output/mx6sdl/obds/smart_device_rev_a/obj/sdk/drivers/camera/test/sensor_capture.o
                                                  /home/leon/git/swp-report/iMX6_Platform_SDK/output/mx6sdl/obds/smart_device_rev_a/obj/sdk/drivers/camera/test/csi_test_mode.o
ipu_ch0_eobnd_interrupt_register                  /home/leon/git/swp-report/iMX6_Platform_SDK/output/mx6sdl/lib/libsdk.a(ipu_common.o)
ipu_channel_buf_not_ready                         /home/leon/git/swp-report/iMX6_Platform_SDK/output/mx6sdl/lib/libsdk.a(ipu_idmac.o)
ipu_channel_buf_ready                             /home/leon/git/swp-report/iMX6_Platform_SDK/output/mx6sdl/lib/libsdk.a(ipu_idmac.o)
                                                  /home/leon/git/swp-report/iMX6_Platform_SDK/output/mx6sdl/lib/libsdk.a(ipu_vdi.o)
                                                  /home/leon/git/swp-report/iMX6_Platform_SDK/output/mx6sdl/lib/libsdk.a(ipu_common.o)
ipu_cpmem_mod_field                               /home/leon/git/swp-report/iMX6_Platform_SDK/output/mx6sdl/lib/libsdk.a(ipu_idmac.o)
                                                  /home/leon/git/swp-report/iMX6_Platform_SDK/output/mx6sdl/obds/smart_device_rev_a/obj/sdk/drivers/ipu/test/ips_display.o
ipu_cpmem_read_field                              /home/leon/git/swp-report/iMX6_Platform_SDK/output/mx6sdl/lib/libsdk.a(ipu_idmac.o)
ipu_cpmem_set_field                               /home/leon/git/swp-report/iMX6_Platform_SDK/output/mx6sdl/lib/libsdk.a(ipu_idmac.o)
                                                  /home/leon/git/swp-report/iMX6_Platform_SDK/output/mx6sdl/lib/libsdk.a(ipu_common.o)
ipu_csi_config                                    /home/leon/git/swp-report/iMX6_Platform_SDK/output/mx6sdl/lib/libsdk.a(ipu_csi.o)
                                                  /home/leon/git/swp-report/iMX6_Platform_SDK/output/mx6sdl/lib/libsdk.a(ipu_common.o)
ipu_csi_test_mode_color                           /home/leon/git/swp-report/iMX6_Platform_SDK/output/mx6sdl/lib/libsdk.a(ipu_csi.o)
                                                  /home/leon/git/swp-report/iMX6_Platform_SDK/output/mx6sdl/obds/smart_device_rev_a/obj/sdk/drivers/camera/test/csi_test_mode.o
ipu_dc_config                                     /home/leon/git/swp-report/iMX6_Platform_SDK/output/mx6sdl/lib/libsdk.a(ipu_dc.o)
                                                  /home/leon/git/swp-report/iMX6_Platform_SDK/output/mx6sdl/lib/libsdk.a(ipu_common.o)
ipu_dc_display_config                             /home/leon/git/swp-report/iMX6_Platform_SDK/output/mx6sdl/lib/libsdk.a(ipu_dc.o)
ipu_dc_map                                        /home/leon/git/swp-report/iMX6_Platform_SDK/output/mx6sdl/lib/libsdk.a(ipu_dc.o)
ipu_dc_microcode_config                           /home/leon/git/swp-report/iMX6_Platform_SDK/output/mx6sdl/lib/libsdk.a(ipu_dc.o)
ipu_dc_microcode_event                            /home/leon/git/swp-report/iMX6_Platform_SDK/output/mx6sdl/lib/libsdk.a(ipu_dc.o)
ipu_dc_write_channel_config                       /home/leon/git/swp-report/iMX6_Platform_SDK/output/mx6sdl/lib/libsdk.a(ipu_dc.o)
ipu_deinterlace_3_fields                          /home/leon/git/swp-report/iMX6_Platform_SDK/output/mx6sdl/lib/libsdk.a(ipu_vdi.o)
ipu_deinterlace_idmac_config                      /home/leon/git/swp-report/iMX6_Platform_SDK/output/mx6sdl/lib/libsdk.a(ipu_idmac.o)
                                                  /home/leon/git/swp-report/iMX6_Platform_SDK/output/mx6sdl/lib/libsdk.a(ipu_vdi.o)
ipu_di_bsclk_gen                                  /home/leon/git/swp-report/iMX6_Platform_SDK/output/mx6sdl/lib/libsdk.a(ipu_di.o)
ipu_di_config                                     /home/leon/git/swp-report/iMX6_Platform_SDK/output/mx6sdl/lib/libsdk.a(ipu_di.o)
                                                  /home/leon/git/swp-report/iMX6_Platform_SDK/output/mx6sdl/lib/libsdk.a(ipu_common.o)
ipu_di_interface_set                              /home/leon/git/swp-report/iMX6_Platform_SDK/output/mx6sdl/lib/libsdk.a(ipu_di.o)
ipu_di_pointer_config                             /home/leon/git/swp-report/iMX6_Platform_SDK/output/mx6sdl/lib/libsdk.a(ipu_di.o)
ipu_di_screen_set                                 /home/leon/git/swp-report/iMX6_Platform_SDK/output/mx6sdl/lib/libsdk.a(ipu_di.o)
ipu_di_sync_config                                /home/leon/git/swp-report/iMX6_Platform_SDK/output/mx6sdl/lib/libsdk.a(ipu_di.o)
ipu_di_waveform_config                            /home/leon/git/swp-report/iMX6_Platform_SDK/output/mx6sdl/lib/libsdk.a(ipu_di.o)
ipu_disable_csi                                   /home/leon/git/swp-report/iMX6_Platform_SDK/output/mx6sdl/lib/libsdk.a(ipu_csi.o)
                                                  /home/leon/git/swp-report/iMX6_Platform_SDK/output/mx6sdl/lib/libsdk.a(ipu_common.o)
ipu_disable_display                               /home/leon/git/swp-report/iMX6_Platform_SDK/output/mx6sdl/lib/libsdk.a(ipu_common.o)
ipu_disable_smfc                                  /home/leon/git/swp-report/iMX6_Platform_SDK/output/mx6sdl/lib/libsdk.a(ipu_csi.o)
                                                  /home/leon/git/swp-report/iMX6_Platform_SDK/output/mx6sdl/lib/libsdk.a(ipu_common.o)
ipu_disp_bg_idmac_config                          /home/leon/git/swp-report/iMX6_Platform_SDK/output/mx6sdl/lib/libsdk.a(ipu_idmac.o)
                                                  /home/leon/git/swp-report/iMX6_Platform_SDK/output/mx6sdl/lib/libsdk.a(ipu_common.o)
ipu_disp_fg_idmac_config                          /home/leon/git/swp-report/iMX6_Platform_SDK/output/mx6sdl/lib/libsdk.a(ipu_idmac.o)
                                                  /home/leon/git/swp-report/iMX6_Platform_SDK/output/mx6sdl/lib/libsdk.a(ipu_common.o)
ipu_display_panel                                 /home/leon/git/swp-report/iMX6_Platform_SDK/output/mx6sdl/obds/smart_device_rev_a/obj/apps/obds/src/tests/display_test.o
                                                  /home/leon/git/swp-report/iMX6_Platform_SDK/output/mx6sdl/obds/smart_device_rev_a/obj/apps/obds/src/obds.o
ipu_display_setup                                 /home/leon/git/swp-report/iMX6_Platform_SDK/output/mx6sdl/lib/libsdk.a(ipu_common.o)
                                                  /home/leon/git/swp-report/iMX6_Platform_SDK/output/mx6sdl/obds/smart_device_rev_a/obj/sdk/drivers/ipu/test/ips_display.o
                                                  /home/leon/git/swp-report/iMX6_Platform_SDK/output/mx6sdl/obds/smart_device_rev_a/obj/apps/obds/src/tests/display_test.o
ipu_display_test_main                             /home/leon/git/swp-report/iMX6_Platform_SDK/output/mx6sdl/obds/smart_device_rev_a/obj/apps/obds/src/tests/display_test.o
                                                  /home/leon/git/swp-report/iMX6_Platform_SDK/output/mx6sdl/obds/smart_device_rev_a/obj/apps/obds/src/obds.o
ipu_dma_update_buffer                             /home/leon/git/swp-report/iMX6_Platform_SDK/output/mx6sdl/lib/libsdk.a(ipu_idmac.o)
ipu_dmfc_alloc                                    /home/leon/git/swp-report/iMX6_Platform_SDK/output/mx6sdl/lib/libsdk.a(ipu_dmfc.o)
                                                  /home/leon/git/swp-report/iMX6_Platform_SDK/output/mx6sdl/obds/smart_device_rev_a/obj/sdk/drivers/ipu/test/ips_display.o
ipu_dmfc_config                                   /home/leon/git/swp-report/iMX6_Platform_SDK/output/mx6sdl/lib/libsdk.a(ipu_dmfc.o)
                                                  /home/leon/git/swp-report/iMX6_Platform_SDK/output/mx6sdl/lib/libsdk.a(ipu_common.o)
ipu_dp_config                                     /home/leon/git/swp-report/iMX6_Platform_SDK/output/mx6sdl/lib/libsdk.a(ipu_dp.o)
                                                  /home/leon/git/swp-report/iMX6_Platform_SDK/output/mx6sdl/lib/libsdk.a(ipu_common.o)
ipu_dp_csc_config                                 /home/leon/git/swp-report/iMX6_Platform_SDK/output/mx6sdl/lib/libsdk.a(ipu_dp.o)
ipu_dp_fg_config                                  /home/leon/git/swp-report/iMX6_Platform_SDK/output/mx6sdl/lib/libsdk.a(ipu_dp.o)
ipu_dual_display_setup                            /home/leon/git/swp-report/iMX6_Platform_SDK/output/mx6sdl/lib/libsdk.a(ipu_common.o)
ipu_enable_display                                /home/leon/git/swp-report/iMX6_Platform_SDK/output/mx6sdl/lib/libsdk.a(ipu_common.o)
                                                  /home/leon/git/swp-report/iMX6_Platform_SDK/output/mx6sdl/obds/smart_device_rev_a/obj/sdk/drivers/ipu/test/ips_display.o
                                                  /home/leon/git/swp-report/iMX6_Platform_SDK/output/mx6sdl/obds/smart_device_rev_a/obj/sdk/drivers/camera/test/sensor_capture.o
                                                  /home/leon/git/swp-report/iMX6_Platform_SDK/output/mx6sdl/obds/smart_device_rev_a/obj/sdk/drivers/camera/test/csi_test_mode.o
                                                  /home/leon/git/swp-report/iMX6_Platform_SDK/output/mx6sdl/obds/smart_device_rev_a/obj/apps/obds/src/tests/display_test.o
ipu_general_idmac_config                          /home/leon/git/swp-report/iMX6_Platform_SDK/output/mx6sdl/lib/libsdk.a(ipu_idmac.o)
                                                  /home/leon/git/swp-report/iMX6_Platform_SDK/output/mx6sdl/lib/libsdk.a(ipu_common.o)
ipu_hsp_clk_config                                /home/leon/git/swp-report/iMX6_Platform_SDK/output/mx6sdl/lib/libsdk.a(ccm_pll.o)
ipu_ic_calc_resize_coeffs                         /home/leon/git/swp-report/iMX6_Platform_SDK/output/mx6sdl/lib/libsdk.a(ipu_ic.o)
ipu_ic_combine_config                             /home/leon/git/swp-report/iMX6_Platform_SDK/output/mx6sdl/lib/libsdk.a(ipu_ic.o)
ipu_ic_config_resize_rate                         /home/leon/git/swp-report/iMX6_Platform_SDK/output/mx6sdl/lib/libsdk.a(ipu_ic.o)
ipu_ic_csc_config                                 /home/leon/git/swp-report/iMX6_Platform_SDK/output/mx6sdl/lib/libsdk.a(ipu_ic.o)
ipu_ic_deinterlace_config                         /home/leon/git/swp-report/iMX6_Platform_SDK/output/mx6sdl/lib/libsdk.a(ipu_ic.o)
                                                  /home/leon/git/swp-report/iMX6_Platform_SDK/output/mx6sdl/lib/libsdk.a(ipu_vdi.o)
ipu_ic_enable                                     /home/leon/git/swp-report/iMX6_Platform_SDK/output/mx6sdl/lib/libsdk.a(ipu_ic.o)
                                                  /home/leon/git/swp-report/iMX6_Platform_SDK/output/mx6sdl/lib/libsdk.a(ipu_vdi.o)
ipu_ic_resize_config                              /home/leon/git/swp-report/iMX6_Platform_SDK/output/mx6sdl/lib/libsdk.a(ipu_ic.o)
ipu_ic_rotation_config                            /home/leon/git/swp-report/iMX6_Platform_SDK/output/mx6sdl/lib/libsdk.a(ipu_ic.o)
ipu_ic_task_enable                                /home/leon/git/swp-report/iMX6_Platform_SDK/output/mx6sdl/lib/libsdk.a(ipu_ic.o)
                                                  /home/leon/git/swp-report/iMX6_Platform_SDK/output/mx6sdl/lib/libsdk.a(ipu_vdi.o)
ipu_idma_pixel_format_config                      /home/leon/git/swp-report/iMX6_Platform_SDK/output/mx6sdl/lib/libsdk.a(ipu_idmac.o)
ipu_idmac_chan_cur_buff                           /home/leon/git/swp-report/iMX6_Platform_SDK/output/mx6sdl/lib/libsdk.a(ipu_idmac.o)
ipu_idmac_channel_busy                            /home/leon/git/swp-report/iMX6_Platform_SDK/output/mx6sdl/lib/libsdk.a(ipu_idmac.o)
                                                  /home/leon/git/swp-report/iMX6_Platform_SDK/output/mx6sdl/lib/libsdk.a(ipu_vdi.o)
ipu_idmac_channel_enable                          /home/leon/git/swp-report/iMX6_Platform_SDK/output/mx6sdl/lib/libsdk.a(ipu_idmac.o)
                                                  /home/leon/git/swp-report/iMX6_Platform_SDK/output/mx6sdl/lib/libsdk.a(ipu_common.o)
ipu_idmac_channel_mode_sel                        /home/leon/git/swp-report/iMX6_Platform_SDK/output/mx6sdl/lib/libsdk.a(ipu_idmac.o)
ipu_iomux_config                                  /home/leon/git/swp-report/iMX6_Platform_SDK/output/mx6sdl/lib/libboard_smart_device_rev_a.a(ipu_iomux_config.o)
                                                  /home/leon/git/swp-report/iMX6_Platform_SDK/output/mx6sdl/obds/smart_device_rev_a/obj/apps/obds/src/tests/display_test.o
ipu_mipi_csi2_setup                               /home/leon/git/swp-report/iMX6_Platform_SDK/output/mx6sdl/lib/libsdk.a(ipu_common.o)
ipu_read                                          /home/leon/git/swp-report/iMX6_Platform_SDK/output/mx6sdl/lib/libsdk.a(ipu_common.o)
                                                  /home/leon/git/swp-report/iMX6_Platform_SDK/output/mx6sdl/lib/libsdk.a(ipu_vdi.o)
ipu_resize_idmac_config                           /home/leon/git/swp-report/iMX6_Platform_SDK/output/mx6sdl/lib/libsdk.a(ipu_idmac.o)
ipu_rotate_idmac_config                           /home/leon/git/swp-report/iMX6_Platform_SDK/output/mx6sdl/lib/libsdk.a(ipu_idmac.o)
ipu_smfc_fifo_allocate                            /home/leon/git/swp-report/iMX6_Platform_SDK/output/mx6sdl/lib/libsdk.a(ipu_csi.o)
                                                  /home/leon/git/swp-report/iMX6_Platform_SDK/output/mx6sdl/lib/libsdk.a(ipu_common.o)
ipu_sw_reset                                      /home/leon/git/swp-report/iMX6_Platform_SDK/output/mx6sdl/lib/libsdk.a(ipu_common.o)
                                                  /home/leon/git/swp-report/iMX6_Platform_SDK/output/mx6sdl/obds/smart_device_rev_a/obj/sdk/drivers/ipu/test/ips_display.o
                                                  /home/leon/git/swp-report/iMX6_Platform_SDK/output/mx6sdl/obds/smart_device_rev_a/obj/sdk/drivers/camera/test/sensor_capture.o
                                                  /home/leon/git/swp-report/iMX6_Platform_SDK/output/mx6sdl/obds/smart_device_rev_a/obj/sdk/drivers/camera/test/csi_test_mode.o
                                                  /home/leon/git/swp-report/iMX6_Platform_SDK/output/mx6sdl/obds/smart_device_rev_a/obj/apps/obds/src/tests/display_test.o
ipu_vdi_init                                      /home/leon/git/swp-report/iMX6_Platform_SDK/output/mx6sdl/lib/libsdk.a(ipu_vdi.o)
ipu_vdi_set_motion                                /home/leon/git/swp-report/iMX6_Platform_SDK/output/mx6sdl/lib/libsdk.a(ipu_vdi.o)
ipu_vdi_set_top_field_man                         /home/leon/git/swp-report/iMX6_Platform_SDK/output/mx6sdl/lib/libsdk.a(ipu_vdi.o)
ipu_vdi_uninit                                    /home/leon/git/swp-report/iMX6_Platform_SDK/output/mx6sdl/lib/libsdk.a(ipu_vdi.o)
ipu_write                                         /home/leon/git/swp-report/iMX6_Platform_SDK/output/mx6sdl/lib/libsdk.a(ipu_common.o)
                                                  /home/leon/git/swp-report/iMX6_Platform_SDK/output/mx6sdl/lib/libsdk.a(ipu_vdi.o)
ipu_write_field                                   /home/leon/git/swp-report/iMX6_Platform_SDK/output/mx6sdl/lib/libsdk.a(ipu_common.o)
                                                  /home/leon/git/swp-report/iMX6_Platform_SDK/output/mx6sdl/lib/libsdk.a(ipu_ic.o)
                                                  /home/leon/git/swp-report/iMX6_Platform_SDK/output/mx6sdl/lib/libsdk.a(ipu_vdi.o)
                                                  /home/leon/git/swp-report/iMX6_Platform_SDK/output/mx6sdl/lib/libsdk.a(ipu_idmac.o)
                                                  /home/leon/git/swp-report/iMX6_Platform_SDK/output/mx6sdl/lib/libsdk.a(ipu_dp.o)
                                                  /home/leon/git/swp-report/iMX6_Platform_SDK/output/mx6sdl/lib/libsdk.a(ipu_dmfc.o)
                                                  /home/leon/git/swp-report/iMX6_Platform_SDK/output/mx6sdl/lib/libsdk.a(ipu_di.o)
                                                  /home/leon/git/swp-report/iMX6_Platform_SDK/output/mx6sdl/lib/libsdk.a(ipu_dc.o)
                                                  /home/leon/git/swp-report/iMX6_Platform_SDK/output/mx6sdl/lib/libsdk.a(ipu_csi.o)
isColorSpaceConversion                            /home/leon/git/swp-report/iMX6_Platform_SDK/output/mx6sdl/lib/libsdk.a(hdmi_common.o)
                                                  /home/leon/git/swp-report/iMX6_Platform_SDK/output/mx6sdl/lib/libsdk.a(hdmi_tx.o)
isColorSpaceDecimation                            /home/leon/git/swp-report/iMX6_Platform_SDK/output/mx6sdl/lib/libsdk.a(hdmi_common.o)
                                                  /home/leon/git/swp-report/iMX6_Platform_SDK/output/mx6sdl/lib/libsdk.a(hdmi_tx.o)
isColorSpaceInterpolation                         /home/leon/git/swp-report/iMX6_Platform_SDK/output/mx6sdl/lib/libsdk.a(hdmi_common.o)
                                                  /home/leon/git/swp-report/iMX6_Platform_SDK/output/mx6sdl/lib/libsdk.a(hdmi_tx.o)
isPixelRepetition                                 /home/leon/git/swp-report/iMX6_Platform_SDK/output/mx6sdl/lib/libsdk.a(hdmi_common.o)
is_color_supported                                /home/leon/git/swp-report/iMX6_Platform_SDK/output/mx6sdl/lib/libsdk.a(text_color.o)
is_input_char                                     /home/leon/git/swp-report/iMX6_Platform_SDK/output/mx6sdl/lib/libsdk.a(system_util.o)
                                                  /home/leon/git/swp-report/iMX6_Platform_SDK/output/mx6sdl/obds/smart_device_rev_a/obj/sdk/drivers/camera/test/sensor_capture.o
                                                  /home/leon/git/swp-report/iMX6_Platform_SDK/output/mx6sdl/obds/smart_device_rev_a/obj/apps/obds/src/tests/program_mac_address.o
                                                  /home/leon/git/swp-report/iMX6_Platform_SDK/output/mx6sdl/obds/smart_device_rev_a/obj/apps/obds/src/tests/program_board_id.o
                                                  /home/leon/git/swp-report/iMX6_Platform_SDK/output/mx6sdl/obds/smart_device_rev_a/obj/apps/obds/src/tests/pmic_da9053.o
                                                  /home/leon/git/swp-report/iMX6_Platform_SDK/output/mx6sdl/obds/smart_device_rev_a/obj/apps/obds/src/tests/mmcsd_test.o
                                                  /home/leon/git/swp-report/iMX6_Platform_SDK/output/mx6sdl/obds/smart_device_rev_a/obj/apps/obds/src/tests/mlb_os81050.o
                                                  /home/leon/git/swp-report/iMX6_Platform_SDK/output/mx6sdl/obds/smart_device_rev_a/obj/apps/obds/src/tests/i2c_eeprom_at24cxx_test.o
                                                  /home/leon/git/swp-report/iMX6_Platform_SDK/output/mx6sdl/obds/smart_device_rev_a/obj/apps/obds/src/tests/gps_test.o
                                                  /home/leon/git/swp-report/iMX6_Platform_SDK/output/mx6sdl/obds/smart_device_rev_a/obj/apps/obds/src/tests/fm_tuner_si476x_test.o
                                                  /home/leon/git/swp-report/iMX6_Platform_SDK/output/mx6sdl/obds/smart_device_rev_a/obj/apps/obds/src/tests/enet_mx6dldq_test.o
                                                  /home/leon/git/swp-report/iMX6_Platform_SDK/output/mx6sdl/obds/smart_device_rev_a/obj/apps/obds/src/tests/display_test.o
                                                  /home/leon/git/swp-report/iMX6_Platform_SDK/output/mx6sdl/obds/smart_device_rev_a/obj/apps/obds/src/tests/deserializer_ds90ur124.o
                                                  /home/leon/git/swp-report/iMX6_Platform_SDK/output/mx6sdl/obds/smart_device_rev_a/obj/apps/obds/src/tests/audio_ssi_test.o
                                                  /home/leon/git/swp-report/iMX6_Platform_SDK/output/mx6sdl/obds/smart_device_rev_a/obj/apps/obds/src/tests/android_buttons_test.o
                                                  /home/leon/git/swp-report/iMX6_Platform_SDK/output/mx6sdl/obds/smart_device_rev_a/obj/apps/obds/src/obds.o
jump_to_sdp                                       /home/leon/git/swp-report/iMX6_Platform_SDK/output/mx6sdl/lib/libsdk.a(system_util.o)
k_gpio_mux_registers                              /home/leon/git/swp-report/iMX6_Platform_SDK/output/mx6sdl/lib/libsdk.a(imx6sdl_gpio_map.o)
                                                  /home/leon/git/swp-report/iMX6_Platform_SDK/output/mx6sdl/lib/libsdk.a(gpio.o)
k_sdk_copyright                                   /home/leon/git/swp-report/iMX6_Platform_SDK/output/mx6sdl/lib/libsdk.a(sdk_version.o)
                                                  /home/leon/git/swp-report/iMX6_Platform_SDK/output/mx6sdl/obds/smart_device_rev_a/obj/apps/common/print_version.o
k_sdk_version                                     /home/leon/git/swp-report/iMX6_Platform_SDK/output/mx6sdl/lib/libsdk.a(sdk_version.o)
                                                  /home/leon/git/swp-report/iMX6_Platform_SDK/output/mx6sdl/obds/smart_device_rev_a/obj/apps/common/print_version.o
kpp_iomux_config                                  /home/leon/git/swp-report/iMX6_Platform_SDK/output/mx6sdl/lib/libboard_smart_device_rev_a.a(kpp_iomux_config.o)
                                                  /home/leon/git/swp-report/iMX6_Platform_SDK/output/mx6sdl/lib/libboard_smart_device_rev_a.a(iomux_config.o)
lcd_iomux_config                                  /home/leon/git/swp-report/iMX6_Platform_SDK/output/mx6sdl/lib/libboard_smart_device_rev_a.a(iomux_config.o)
ldb_clock_config                                  /home/leon/git/swp-report/iMX6_Platform_SDK/output/mx6sdl/lib/libboard_smart_device_rev_a.a(board_display.o)
                                                  /home/leon/git/swp-report/iMX6_Platform_SDK/output/mx6sdl/lib/libsdk.a(ips_disp_panel.o)
ldb_config                                        /home/leon/git/swp-report/iMX6_Platform_SDK/output/mx6sdl/lib/libsdk.a(ldb.o)
                                                  /home/leon/git/swp-report/iMX6_Platform_SDK/output/mx6sdl/lib/libsdk.a(ips_disp_panel.o)
ldb_iomux_config                                  /home/leon/git/swp-report/iMX6_Platform_SDK/output/mx6sdl/lib/libboard_smart_device_rev_a.a(iomux_config.o)
                                                  /home/leon/git/swp-report/iMX6_Platform_SDK/output/mx6sdl/lib/libsdk.a(ips_disp_panel.o)
ldb_set_vs_polarity                               /home/leon/git/swp-report/iMX6_Platform_SDK/output/mx6sdl/lib/libsdk.a(ldb.o)
list_panel                                        /home/leon/git/swp-report/iMX6_Platform_SDK/output/mx6sdl/lib/libsdk.a(ips_disp_panel.o)
                                                  /home/leon/git/swp-report/iMX6_Platform_SDK/output/mx6sdl/obds/smart_device_rev_a/obj/apps/obds/src/tests/display_test.o
load_centralized_image                            /home/leon/git/swp-report/iMX6_Platform_SDK/output/mx6sdl/obds/smart_device_rev_a/obj/sdk/drivers/ipu/test/ipu_image.o
                                                  /home/leon/git/swp-report/iMX6_Platform_SDK/output/mx6sdl/obds/smart_device_rev_a/obj/sdk/drivers/ipu/test/ips_display.o
                                                  /home/leon/git/swp-report/iMX6_Platform_SDK/output/mx6sdl/obds/smart_device_rev_a/obj/apps/obds/src/tests/display_test.o
load_foreground_image                             /home/leon/git/swp-report/iMX6_Platform_SDK/output/mx6sdl/obds/smart_device_rev_a/obj/sdk/drivers/ipu/test/ipu_image.o
load_horiz_image                                  /home/leon/git/swp-report/iMX6_Platform_SDK/output/mx6sdl/obds/smart_device_rev_a/obj/sdk/drivers/ipu/test/ipu_image.o
load_vert_image                                   /home/leon/git/swp-report/iMX6_Platform_SDK/output/mx6sdl/obds/smart_device_rev_a/obj/sdk/drivers/ipu/test/ipu_image.o
localeconv                                        /home/src/arm/target/bin/../arm-none-eabi/lib//libc.a(lib_a-locale.o)
ltc3589_backlight_en                              /home/leon/git/swp-report/iMX6_Platform_SDK/output/mx6sdl/obds/smart_device_rev_a/obj/apps/obds/src/tests/pmic_lt3589.o
ltc3589_camera_power_on                           /home/leon/git/swp-report/iMX6_Platform_SDK/output/mx6sdl/obds/smart_device_rev_a/obj/apps/obds/src/tests/pmic_lt3589.o
ltc3589_eval                                      /home/leon/git/swp-report/iMX6_Platform_SDK/output/mx6sdl/obds/smart_device_rev_a/obj/apps/obds/src/tests/pmic_lt3589.o
ltc3589_i2c_device_id_check                       /home/leon/git/swp-report/iMX6_Platform_SDK/output/mx6sdl/obds/smart_device_rev_a/obj/apps/obds/src/tests/pmic_lt3589.o
ltc3589_reg_read                                  /home/leon/git/swp-report/iMX6_Platform_SDK/output/mx6sdl/obds/smart_device_rev_a/obj/apps/obds/src/tests/pmic_lt3589.o
ltc3589_reg_write                                 /home/leon/git/swp-report/iMX6_Platform_SDK/output/mx6sdl/obds/smart_device_rev_a/obj/apps/obds/src/tests/pmic_lt3589.o
lvds_power_on                                     /home/leon/git/swp-report/iMX6_Platform_SDK/output/mx6sdl/lib/libboard_smart_device_rev_a.a(board_display.o)
                                                  /home/leon/git/swp-report/iMX6_Platform_SDK/output/mx6sdl/lib/libsdk.a(ips_disp_panel.o)
m29w256gl_auto_dev_id                             /home/leon/git/swp-report/iMX6_Platform_SDK/output/mx6sdl/obds/smart_device_rev_a/obj/apps/obds/src/tests/weim_nor_flash_test.o
m29w256gl_auto_manu_id                            /home/leon/git/swp-report/iMX6_Platform_SDK/output/mx6sdl/obds/smart_device_rev_a/obj/apps/obds/src/tests/weim_nor_flash_test.o
mac_address_str                                   /home/leon/git/swp-report/iMX6_Platform_SDK/output/mx6sdl/obds/smart_device_rev_a/obj/apps/obds/src/tests/program_mac_address.o
mag3110_reg_read                                  /home/leon/git/swp-report/iMX6_Platform_SDK/output/mx6sdl/obds/smart_device_rev_a/obj/apps/obds/src/tests/i2c_device_digital_compass_mag3110.o
mag3112_reg_read                                  /home/leon/git/swp-report/iMX6_Platform_SDK/output/mx6sdl/obds/smart_device_rev_a/obj/apps/obds/src/tests/i2c_device_digital_compass_mag3112.o
main                                              /home/leon/git/swp-report/iMX6_Platform_SDK/output/mx6sdl/obds/smart_device_rev_a/obj/apps/obds/src/obds.o
                                                  /home/leon/git/swp-report/iMX6_Platform_SDK/output/mx6sdl/lib/libsdk.a(startup.o)
main_menuitems                                    /home/leon/git/swp-report/iMX6_Platform_SDK/output/mx6sdl/obds/smart_device_rev_a/obj/apps/obds/src/obds.o
malloc                                            /home/src/arm/target/bin/../arm-none-eabi/lib//libc.a(lib_a-malloc.o)
                                                  /home/leon/git/swp-report/iMX6_Platform_SDK/output/mx6sdl/lib/libsdk.a(usbh_drv.o)
                                                  /home/leon/git/swp-report/iMX6_Platform_SDK/output/mx6sdl/lib/libsdk.a(system_util.o)
                                                  /home/leon/git/swp-report/iMX6_Platform_SDK/output/mx6sdl/obds/smart_device_rev_a/obj/sdk/drivers/usb/test/usb0_host_test.o
                                                  /home/leon/git/swp-report/iMX6_Platform_SDK/output/mx6sdl/obds/smart_device_rev_a/obj/apps/obds/src/tests/usb_tests_obds.o
                                                  /home/leon/git/swp-report/iMX6_Platform_SDK/output/mx6sdl/obds/smart_device_rev_a/obj/apps/obds/src/obds.o
max11801_reg_read_multi                           /home/leon/git/swp-report/iMX6_Platform_SDK/output/mx6sdl/obds/smart_device_rev_a/obj/apps/obds/src/tests/touch_screen_max11801.o
max11801_reg_read_single                          /home/leon/git/swp-report/iMX6_Platform_SDK/output/mx6sdl/obds/smart_device_rev_a/obj/apps/obds/src/tests/touch_screen_max11801.o
max11801_reg_write                                /home/leon/git/swp-report/iMX6_Platform_SDK/output/mx6sdl/obds/smart_device_rev_a/obj/apps/obds/src/tests/touch_screen_max11801.o
max11801_ts_test                                  /home/leon/git/swp-report/iMX6_Platform_SDK/output/mx6sdl/obds/smart_device_rev_a/obj/apps/obds/src/tests/touch_screen_max11801.o
max17135_reg_read                                 /home/leon/git/swp-report/iMX6_Platform_SDK/output/mx6sdl/obds/smart_device_rev_a/obj/apps/obds/src/tests/pmic_max17135.o
max17135_reg_write                                /home/leon/git/swp-report/iMX6_Platform_SDK/output/mx6sdl/obds/smart_device_rev_a/obj/apps/obds/src/tests/pmic_max17135.o
max7310_i2c_device_id_check                       /home/leon/git/swp-report/iMX6_Platform_SDK/output/mx6sdl/obds/smart_device_rev_a/obj/sdk/common/ioexpander/test/max7310_test.o
max7310_i2c_req_array                             /home/leon/git/swp-report/iMX6_Platform_SDK/output/mx6sdl/lib/libboard_smart_device_rev_a.a(board_io_expanders.o)
                                                  /home/leon/git/swp-report/iMX6_Platform_SDK/output/mx6sdl/lib/libsdk.a(max7310.o)
max7310_init                                      /home/leon/git/swp-report/iMX6_Platform_SDK/output/mx6sdl/lib/libsdk.a(max7310.o)
max7310_reg_read                                  /home/leon/git/swp-report/iMX6_Platform_SDK/output/mx6sdl/lib/libsdk.a(max7310.o)
max7310_reg_write                                 /home/leon/git/swp-report/iMX6_Platform_SDK/output/mx6sdl/lib/libsdk.a(max7310.o)
max7310_set_gpio_output                           /home/leon/git/swp-report/iMX6_Platform_SDK/output/mx6sdl/lib/libsdk.a(max7310.o)
                                                  /home/leon/git/swp-report/iMX6_Platform_SDK/output/mx6sdl/obds/smart_device_rev_a/obj/apps/obds/src/tests/video_dec_adv7180.o
                                                  /home/leon/git/swp-report/iMX6_Platform_SDK/output/mx6sdl/obds/smart_device_rev_a/obj/apps/obds/src/tests/video_dec_ARD_MBrst_from_cpu_expander.o
                                                  /home/leon/git/swp-report/iMX6_Platform_SDK/output/mx6sdl/obds/smart_device_rev_a/obj/apps/obds/src/tests/mlb_os81050.o
                                                  /home/leon/git/swp-report/iMX6_Platform_SDK/output/mx6sdl/obds/smart_device_rev_a/obj/apps/obds/src/tests/fm_tuner_si476x_test.o
mc13892_i2c_reg                                   /home/leon/git/swp-report/iMX6_Platform_SDK/output/mx6sdl/obds/smart_device_rev_a/obj/apps/obds/src/tests/pmic_mc13892.o
memchr                                            /home/src/arm/target/bin/../arm-none-eabi/lib//libc.a(lib_a-memchr-stub.o)
                                                  /home/src/arm/target/bin/../arm-none-eabi/lib//libc.a(lib_a-svfiprintf.o)
                                                  /home/src/arm/target/bin/../arm-none-eabi/lib//libc.a(lib_a-fvwrite.o)
                                                  /home/src/arm/target/bin/../arm-none-eabi/lib//libc.a(lib_a-vfprintf.o)
                                                  /home/src/arm/target/bin/../arm-none-eabi/lib//libc.a(lib_a-vfiprintf.o)
                                                  /home/src/arm/target/bin/../arm-none-eabi/lib//libc.a(lib_a-svfprintf.o)
memcpy                                            /home/src/arm/target/bin/../arm-none-eabi/lib//libc.a(lib_a-memcpy-stub.o)
                                                  /home/src/arm/target/bin/../arm-none-eabi/lib//libc.a(lib_a-svfiprintf.o)
                                                  /home/src/arm/target/bin/../arm-none-eabi/lib//libc.a(lib_a-mprec.o)
                                                  /home/src/arm/target/bin/../arm-none-eabi/lib//libc.a(lib_a-fvwrite.o)
                                                  /home/src/arm/target/bin/../arm-none-eabi/lib//libc.a(lib_a-dtoa.o)
                                                  /home/leon/git/swp-report/iMX6_Platform_SDK/output/mx6sdl/lib/libsdk.a(ipu_common.o)
                                                  /home/leon/git/swp-report/iMX6_Platform_SDK/output/mx6sdl/lib/libsdk.a(mxc_epdc.o)
                                                  /home/leon/git/swp-report/iMX6_Platform_SDK/output/mx6sdl/lib/libsdk.a(enet_drv.o)
                                                  /home/leon/git/swp-report/iMX6_Platform_SDK/output/mx6sdl/lib/libsdk.a(menu.o)
                                                  /home/leon/git/swp-report/iMX6_Platform_SDK/output/mx6sdl/obds/smart_device_rev_a/obj/sdk/drivers/spi/test/imx_spi_nor_atmel.o
                                                  /home/leon/git/swp-report/iMX6_Platform_SDK/output/mx6sdl/obds/smart_device_rev_a/obj/sdk/drivers/ipu/test/ipu_image.o
                                                  /home/leon/git/swp-report/iMX6_Platform_SDK/output/mx6sdl/obds/smart_device_rev_a/obj/apps/obds/src/tests/touch_screen_max11801.o
                                                  /home/leon/git/swp-report/iMX6_Platform_SDK/output/mx6sdl/obds/smart_device_rev_a/obj/apps/obds/src/tests/i2c_device_id_check_p1003_tsc.o
                                                  /home/leon/git/swp-report/iMX6_Platform_SDK/output/mx6sdl/obds/smart_device_rev_a/obj/apps/obds/src/tests/audio_esai_test.o
memmove                                           /home/src/arm/target/bin/../arm-none-eabi/lib//libc.a(lib_a-memmove.o)
                                                  /home/src/arm/target/bin/../arm-none-eabi/lib//libc.a(lib_a-svfiprintf.o)
                                                  /home/src/arm/target/bin/../arm-none-eabi/lib//libc.a(lib_a-fvwrite.o)
                                                  /home/src/arm/target/bin/../arm-none-eabi/lib//libc.a(lib_a-reallocr.o)
memset                                            /home/src/arm/target/bin/../arm-none-eabi/lib//libc.a(lib_a-memset.o)
                                                  /home/src/arm/target/bin/../arm-none-eabi/lib//libc.a(lib_a-callocr.o)
                                                  /home/src/arm/target/bin/../arm-none-eabi/lib//libc.a(lib_a-findfp.o)
                                                  /home/src/arm/target/bin/../arm-none-eabi/lib//libc.a(lib_a-syscalls.o)
                                                  /home/leon/git/swp-report/iMX6_Platform_SDK/output/mx6sdl/lib/libsdk.a(ipu_vdi.o)
                                                  /home/leon/git/swp-report/iMX6_Platform_SDK/output/mx6sdl/lib/libsdk.a(ipu_idmac.o)
                                                  /home/leon/git/swp-report/iMX6_Platform_SDK/output/mx6sdl/lib/libsdk.a(ipu_di.o)
                                                  /home/leon/git/swp-report/iMX6_Platform_SDK/output/mx6sdl/lib/libsdk.a(ipu_common.o)
                                                  /home/leon/git/swp-report/iMX6_Platform_SDK/output/mx6sdl/lib/libsdk.a(mxc_epdc.o)
                                                  /home/leon/git/swp-report/iMX6_Platform_SDK/output/mx6sdl/lib/libsdk.a(board_id.o)
                                                  /home/leon/git/swp-report/iMX6_Platform_SDK/output/mx6sdl/lib/libsdk.a(imx_spdif.o)
                                                  /home/leon/git/swp-report/iMX6_Platform_SDK/output/mx6sdl/lib/libsdk.a(menu.o)
                                                  /home/leon/git/swp-report/iMX6_Platform_SDK/output/mx6sdl/obds/smart_device_rev_a/obj/sdk/drivers/usdhc/test/usdhc_test.o
                                                  /home/leon/git/swp-report/iMX6_Platform_SDK/output/mx6sdl/obds/smart_device_rev_a/obj/sdk/drivers/spi/test/spi_nor_numonyx.o
                                                  /home/leon/git/swp-report/iMX6_Platform_SDK/output/mx6sdl/obds/smart_device_rev_a/obj/sdk/drivers/ipu/test/ipu_image.o
                                                  /home/leon/git/swp-report/iMX6_Platform_SDK/output/mx6sdl/obds/smart_device_rev_a/obj/sdk/drivers/ipu/test/ips_display.o
                                                  /home/leon/git/swp-report/iMX6_Platform_SDK/output/mx6sdl/obds/smart_device_rev_a/obj/sdk/drivers/hdmi/test/hdmi_test.o
                                                  /home/leon/git/swp-report/iMX6_Platform_SDK/output/mx6sdl/obds/smart_device_rev_a/obj/apps/obds/src/tests/usb_tests_obds.o
                                                  /home/leon/git/swp-report/iMX6_Platform_SDK/output/mx6sdl/obds/smart_device_rev_a/obj/apps/obds/src/tests/imx_spi_nor_test.o
                                                  /home/leon/git/swp-report/iMX6_Platform_SDK/output/mx6sdl/obds/smart_device_rev_a/obj/apps/obds/src/tests/display_test.o
                                                  /home/leon/git/swp-report/iMX6_Platform_SDK/output/mx6sdl/obds/smart_device_rev_a/obj/apps/obds/src/obds.o
                                                  /home/leon/git/swp-report/iMX6_Platform_SDK/output/mx6sdl/obds/smart_device_rev_a/obj/apps/common/print_version.o
menu_append_menuitems                             /home/leon/git/swp-report/iMX6_Platform_SDK/output/mx6sdl/lib/libsdk.a(menu.o)
                                                  /home/leon/git/swp-report/iMX6_Platform_SDK/output/mx6sdl/obds/smart_device_rev_a/obj/apps/obds/src/obds.o
menu_get_indent                                   /home/leon/git/swp-report/iMX6_Platform_SDK/output/mx6sdl/lib/libsdk.a(menu.o)
                                                  /home/leon/git/swp-report/iMX6_Platform_SDK/output/mx6sdl/lib/libsdk.a(usdhc.o)
                                                  /home/leon/git/swp-report/iMX6_Platform_SDK/output/mx6sdl/obds/smart_device_rev_a/obj/sdk/drivers/usdhc/test/usdhc_test.o
                                                  /home/leon/git/swp-report/iMX6_Platform_SDK/output/mx6sdl/obds/smart_device_rev_a/obj/sdk/drivers/uart/test/uart_test.o
                                                  /home/leon/git/swp-report/iMX6_Platform_SDK/output/mx6sdl/obds/smart_device_rev_a/obj/sdk/drivers/epdc/test/epdc_test.o
                                                  /home/leon/git/swp-report/iMX6_Platform_SDK/output/mx6sdl/obds/smart_device_rev_a/obj/sdk/common/pmic/pfuse/pf0100.o
                                                  /home/leon/git/swp-report/iMX6_Platform_SDK/output/mx6sdl/obds/smart_device_rev_a/obj/apps/obds/src/tests/weim_nor_flash_test.o
                                                  /home/leon/git/swp-report/iMX6_Platform_SDK/output/mx6sdl/obds/smart_device_rev_a/obj/apps/obds/src/tests/video_dec_adv7180.o
                                                  /home/leon/git/swp-report/iMX6_Platform_SDK/output/mx6sdl/obds/smart_device_rev_a/obj/apps/obds/src/tests/video_dec_ARD_MBrst_from_cpu_expander.o
                                                  /home/leon/git/swp-report/iMX6_Platform_SDK/output/mx6sdl/obds/smart_device_rev_a/obj/apps/obds/src/tests/video_dec_ARD_MB_reset_button.o
                                                  /home/leon/git/swp-report/iMX6_Platform_SDK/output/mx6sdl/obds/smart_device_rev_a/obj/apps/obds/src/tests/touch_screen.o
                                                  /home/leon/git/swp-report/iMX6_Platform_SDK/output/mx6sdl/obds/smart_device_rev_a/obj/apps/obds/src/tests/touch_button_test.o
                                                  /home/leon/git/swp-report/iMX6_Platform_SDK/output/mx6sdl/obds/smart_device_rev_a/obj/apps/obds/src/tests/snvs_srtc_test.o
                                                  /home/leon/git/swp-report/iMX6_Platform_SDK/output/mx6sdl/obds/smart_device_rev_a/obj/apps/obds/src/tests/program_mac_address.o
                                                  /home/leon/git/swp-report/iMX6_Platform_SDK/output/mx6sdl/obds/smart_device_rev_a/obj/apps/obds/src/tests/program_board_id.o
                                                  /home/leon/git/swp-report/iMX6_Platform_SDK/output/mx6sdl/obds/smart_device_rev_a/obj/apps/obds/src/tests/pmic_mc13892.o
                                                  /home/leon/git/swp-report/iMX6_Platform_SDK/output/mx6sdl/obds/smart_device_rev_a/obj/apps/obds/src/tests/pmic_max17135.o
                                                  /home/leon/git/swp-report/iMX6_Platform_SDK/output/mx6sdl/obds/smart_device_rev_a/obj/apps/obds/src/tests/mmcsd_test.o
                                                  /home/leon/git/swp-report/iMX6_Platform_SDK/output/mx6sdl/obds/smart_device_rev_a/obj/apps/obds/src/tests/imx_spi_nor_test.o
                                                  /home/leon/git/swp-report/iMX6_Platform_SDK/output/mx6sdl/obds/smart_device_rev_a/obj/apps/obds/src/tests/i2c_device_zigbee_mc1323.o
                                                  /home/leon/git/swp-report/iMX6_Platform_SDK/output/mx6sdl/obds/smart_device_rev_a/obj/apps/obds/src/tests/i2c_device_id_check_p1003_tsc.o
                                                  /home/leon/git/swp-report/iMX6_Platform_SDK/output/mx6sdl/obds/smart_device_rev_a/obj/apps/obds/src/tests/i2c_device_id_check_mma8451.o
                                                  /home/leon/git/swp-report/iMX6_Platform_SDK/output/mx6sdl/obds/smart_device_rev_a/obj/apps/obds/src/tests/i2c_device_id_check_mma8450.o
                                                  /home/leon/git/swp-report/iMX6_Platform_SDK/output/mx6sdl/obds/smart_device_rev_a/obj/apps/obds/src/tests/i2c_device_digital_compass_mag3112.o
                                                  /home/leon/git/swp-report/iMX6_Platform_SDK/output/mx6sdl/obds/smart_device_rev_a/obj/apps/obds/src/tests/i2c_device_digital_compass_mag3110.o
                                                  /home/leon/git/swp-report/iMX6_Platform_SDK/output/mx6sdl/obds/smart_device_rev_a/obj/apps/obds/src/tests/i2c_check_light_sensor_isl29023.o
                                                  /home/leon/git/swp-report/iMX6_Platform_SDK/output/mx6sdl/obds/smart_device_rev_a/obj/apps/obds/src/tests/gpio_led.o
                                                  /home/leon/git/swp-report/iMX6_Platform_SDK/output/mx6sdl/obds/smart_device_rev_a/obj/apps/obds/src/tests/flexcan_test.o
                                                  /home/leon/git/swp-report/iMX6_Platform_SDK/output/mx6sdl/obds/smart_device_rev_a/obj/apps/obds/src/tests/enet_mx6dldq_test.o
                                                  /home/leon/git/swp-report/iMX6_Platform_SDK/output/mx6sdl/obds/smart_device_rev_a/obj/apps/obds/src/tests/audio_ssi_test.o
                                                  /home/leon/git/swp-report/iMX6_Platform_SDK/output/mx6sdl/obds/smart_device_rev_a/obj/apps/obds/src/tests/audio_esai_test.o
                                                  /home/leon/git/swp-report/iMX6_Platform_SDK/output/mx6sdl/obds/smart_device_rev_a/obj/apps/obds/src/tests/android_buttons_test.o
                                                  /home/leon/git/swp-report/iMX6_Platform_SDK/output/mx6sdl/obds/smart_device_rev_a/obj/apps/obds/src/obds.o
menu_present                                      /home/leon/git/swp-report/iMX6_Platform_SDK/output/mx6sdl/lib/libsdk.a(menu.o)
                                                  /home/leon/git/swp-report/iMX6_Platform_SDK/output/mx6sdl/obds/smart_device_rev_a/obj/apps/obds/src/obds.o
menu_print_menuitem                               /home/leon/git/swp-report/iMX6_Platform_SDK/output/mx6sdl/lib/libsdk.a(menu.o)
menuitem_cmd_exitmenu                             /home/leon/git/swp-report/iMX6_Platform_SDK/output/mx6sdl/lib/libsdk.a(menu.o)
                                                  /home/leon/git/swp-report/iMX6_Platform_SDK/output/mx6sdl/obds/smart_device_rev_a/obj/apps/obds/src/obds.o
menuitem_cmd_showmenu                             /home/leon/git/swp-report/iMX6_Platform_SDK/output/mx6sdl/lib/libsdk.a(menu.o)
                                                  /home/leon/git/swp-report/iMX6_Platform_SDK/output/mx6sdl/obds/smart_device_rev_a/obj/apps/obds/src/obds.o
mipi_backlight_en                                 /home/leon/git/swp-report/iMX6_Platform_SDK/output/mx6sdl/lib/libboard_smart_device_rev_a.a(board_mipi.o)
                                                  /home/leon/git/swp-report/iMX6_Platform_SDK/output/mx6sdl/lib/libsdk.a(ips_disp_panel.o)
mipi_cam_power_on                                 /home/leon/git/swp-report/iMX6_Platform_SDK/output/mx6sdl/lib/libboard_smart_device_rev_a.a(board_mipi.o)
mipi_clock_set                                    /home/leon/git/swp-report/iMX6_Platform_SDK/output/mx6sdl/lib/libboard_smart_device_rev_a.a(board_mipi.o)
                                                  /home/leon/git/swp-report/iMX6_Platform_SDK/output/mx6sdl/lib/libsdk.a(ips_disp_panel.o)
mipi_csi2_clock_set                               /home/leon/git/swp-report/iMX6_Platform_SDK/output/mx6sdl/lib/libboard_smart_device_rev_a.a(board_mipi.o)
mipi_csi_iomux_config                             /home/leon/git/swp-report/iMX6_Platform_SDK/output/mx6sdl/lib/libboard_smart_device_rev_a.a(iomux_config.o)
mipi_display_reset                                /home/leon/git/swp-report/iMX6_Platform_SDK/output/mx6sdl/lib/libboard_smart_device_rev_a.a(board_mipi.o)
                                                  /home/leon/git/swp-report/iMX6_Platform_SDK/output/mx6sdl/lib/libsdk.a(ips_disp_panel.o)
mipi_dsi_iomux_config                             /home/leon/git/swp-report/iMX6_Platform_SDK/output/mx6sdl/lib/libboard_smart_device_rev_a.a(iomux_config.o)
mipi_hsi_iomux_config                             /home/leon/git/swp-report/iMX6_Platform_SDK/output/mx6sdl/lib/libboard_smart_device_rev_a.a(iomux_config.o)
mlb_io_config                                     /home/leon/git/swp-report/iMX6_Platform_SDK/output/mx6sdl/obds/smart_device_rev_a/obj/apps/obds/src/tests/mlb_os81050.o
mlb_iomux_config                                  /home/leon/git/swp-report/iMX6_Platform_SDK/output/mx6sdl/lib/libboard_smart_device_rev_a.a(iomux_config.o)
mlb_os81050_test_enable                           /home/leon/git/swp-report/iMX6_Platform_SDK/output/mx6sdl/obds/smart_device_rev_a/obj/apps/obds/src/tests/mlb_os81050.o
mma8450_get_accel                                 /home/leon/git/swp-report/iMX6_Platform_SDK/output/mx6sdl/obds/smart_device_rev_a/obj/apps/obds/src/tests/i2c_device_id_check_mma8450.o
mma8450_set_config                                /home/leon/git/swp-report/iMX6_Platform_SDK/output/mx6sdl/obds/smart_device_rev_a/obj/apps/obds/src/tests/i2c_device_id_check_mma8450.o
mma8450_show_accel                                /home/leon/git/swp-report/iMX6_Platform_SDK/output/mx6sdl/obds/smart_device_rev_a/obj/apps/obds/src/tests/i2c_device_id_check_mma8450.o
mma8451_get_accel                                 /home/leon/git/swp-report/iMX6_Platform_SDK/output/mx6sdl/obds/smart_device_rev_a/obj/apps/obds/src/tests/i2c_device_id_check_mma8451.o
mma8451_set_config                                /home/leon/git/swp-report/iMX6_Platform_SDK/output/mx6sdl/obds/smart_device_rev_a/obj/apps/obds/src/tests/i2c_device_id_check_mma8451.o
mma8451_show_accel                                /home/leon/git/swp-report/iMX6_Platform_SDK/output/mx6sdl/obds/smart_device_rev_a/obj/apps/obds/src/tests/i2c_device_id_check_mma8451.o
mmc_init                                          /home/leon/git/swp-report/iMX6_Platform_SDK/output/mx6sdl/lib/libsdk.a(usdhc_mmc.o)
                                                  /home/leon/git/swp-report/iMX6_Platform_SDK/output/mx6sdl/lib/libsdk.a(usdhc.o)
mmc_sd_test                                       /home/leon/git/swp-report/iMX6_Platform_SDK/output/mx6sdl/obds/smart_device_rev_a/obj/sdk/drivers/usdhc/test/usdhc_test.o
                                                  /home/leon/git/swp-report/iMX6_Platform_SDK/output/mx6sdl/obds/smart_device_rev_a/obj/apps/obds/src/tests/mmcsd_test.o
mmc_set_boot_ack                                  /home/leon/git/swp-report/iMX6_Platform_SDK/output/mx6sdl/lib/libsdk.a(usdhc_mmc.o)
                                                  /home/leon/git/swp-report/iMX6_Platform_SDK/output/mx6sdl/obds/smart_device_rev_a/obj/sdk/drivers/usdhc/test/usdhc_test.o
mmc_set_boot_bus_width                            /home/leon/git/swp-report/iMX6_Platform_SDK/output/mx6sdl/lib/libsdk.a(usdhc_mmc.o)
                                                  /home/leon/git/swp-report/iMX6_Platform_SDK/output/mx6sdl/obds/smart_device_rev_a/obj/sdk/drivers/usdhc/test/usdhc_test.o
mmc_set_boot_partition                            /home/leon/git/swp-report/iMX6_Platform_SDK/output/mx6sdl/lib/libsdk.a(usdhc_mmc.o)
                                                  /home/leon/git/swp-report/iMX6_Platform_SDK/output/mx6sdl/obds/smart_device_rev_a/obj/sdk/drivers/usdhc/test/usdhc_test.o
mmc_voltage_validation                            /home/leon/git/swp-report/iMX6_Platform_SDK/output/mx6sdl/lib/libsdk.a(usdhc_mmc.o)
                                                  /home/leon/git/swp-report/iMX6_Platform_SDK/output/mx6sdl/lib/libsdk.a(usdhc.o)
mmcsd_bus_width                                   /home/leon/git/swp-report/iMX6_Platform_SDK/output/mx6sdl/obds/smart_device_rev_a/obj/apps/obds/src/tests/mmcsd_test.o
mmcsd_test                                        /home/leon/git/swp-report/iMX6_Platform_SDK/output/mx6sdl/obds/smart_device_rev_a/obj/apps/obds/src/tests/mmcsd_test.o
                                                  /home/leon/git/swp-report/iMX6_Platform_SDK/output/mx6sdl/obds/smart_device_rev_a/obj/apps/obds/src/obds.o
mmdc_iomux_config                                 /home/leon/git/swp-report/iMX6_Platform_SDK/output/mx6sdl/lib/libboard_smart_device_rev_a.a(mmdc_iomux_config.o)
                                                  /home/leon/git/swp-report/iMX6_Platform_SDK/output/mx6sdl/lib/libboard_smart_device_rev_a.a(iomux_config.o)
mmu_disable                                       /home/leon/git/swp-report/iMX6_Platform_SDK/output/mx6sdl/lib/libsdk.a(mmu.o)
mmu_enable                                        /home/leon/git/swp-report/iMX6_Platform_SDK/output/mx6sdl/lib/libsdk.a(mmu.o)
mmu_init                                          /home/leon/git/swp-report/iMX6_Platform_SDK/output/mx6sdl/lib/libsdk.a(mmu.o)
                                                  /home/leon/git/swp-report/iMX6_Platform_SDK/output/mx6sdl/obds/smart_device_rev_a/obj/apps/common/platform_init.o
mmu_map_l1_range                                  /home/leon/git/swp-report/iMX6_Platform_SDK/output/mx6sdl/lib/libsdk.a(mmu.o)
                                                  /home/leon/git/swp-report/iMX6_Platform_SDK/output/mx6sdl/obds/smart_device_rev_a/obj/apps/common/platform_init.o
mmu_virtual_to_physical                           /home/leon/git/swp-report/iMX6_Platform_SDK/output/mx6sdl/lib/libsdk.a(mmu.o)
mybkpt                                            /home/leon/git/swp-report/iMX6_Platform_SDK/output/mx6sdl/lib/libsdk.a(system_util.o)
need_csc                                          /home/leon/git/swp-report/iMX6_Platform_SDK/output/mx6sdl/lib/libsdk.a(ipu_common.o)
num_of_panels                                     /home/leon/git/swp-report/iMX6_Platform_SDK/output/mx6sdl/lib/libsdk.a(ips_disp_panel.o)
obds_tests                                        /home/leon/git/swp-report/iMX6_Platform_SDK/output/mx6sdl/obds/smart_device_rev_a/obj/apps/obds/src/obds.o
ocotp_fuse_blow_row                               /home/leon/git/swp-report/iMX6_Platform_SDK/output/mx6sdl/lib/libsdk.a(ocotp.o)
                                                  /home/leon/git/swp-report/iMX6_Platform_SDK/output/mx6sdl/obds/smart_device_rev_a/obj/apps/obds/src/tests/program_mac_address.o
                                                  /home/leon/git/swp-report/iMX6_Platform_SDK/output/mx6sdl/obds/smart_device_rev_a/obj/apps/obds/src/tests/program_board_id.o
ocotp_reload_otp_shadow_registers                 /home/leon/git/swp-report/iMX6_Platform_SDK/output/mx6sdl/lib/libsdk.a(ocotp.o)
                                                  /home/leon/git/swp-report/iMX6_Platform_SDK/output/mx6sdl/obds/smart_device_rev_a/obj/apps/obds/src/tests/program_mac_address.o
                                                  /home/leon/git/swp-report/iMX6_Platform_SDK/output/mx6sdl/obds/smart_device_rev_a/obj/apps/obds/src/tests/program_board_id.o
ocotp_sense_fuse                                  /home/leon/git/swp-report/iMX6_Platform_SDK/output/mx6sdl/lib/libsdk.a(ocotp.o)
                                                  /home/leon/git/swp-report/iMX6_Platform_SDK/output/mx6sdl/obds/smart_device_rev_a/obj/apps/obds/src/tests/program_mac_address.o
                                                  /home/leon/git/swp-report/iMX6_Platform_SDK/output/mx6sdl/obds/smart_device_rev_a/obj/apps/obds/src/tests/program_board_id.o
os81050_get_message                               /home/leon/git/swp-report/iMX6_Platform_SDK/output/mx6sdl/obds/smart_device_rev_a/obj/apps/obds/src/tests/mlb_os81050.o
os81050_i2c_init                                  /home/leon/git/swp-report/iMX6_Platform_SDK/output/mx6sdl/obds/smart_device_rev_a/obj/apps/obds/src/tests/mlb_os81050.o
os81050_read_status                               /home/leon/git/swp-report/iMX6_Platform_SDK/output/mx6sdl/obds/smart_device_rev_a/obj/apps/obds/src/tests/mlb_os81050.o
os81050_test_main                                 /home/leon/git/swp-report/iMX6_Platform_SDK/output/mx6sdl/obds/smart_device_rev_a/obj/apps/obds/src/tests/mlb_os81050.o
ov5642_strobe_on                                  /home/leon/git/swp-report/iMX6_Platform_SDK/output/mx6sdl/lib/libsdk.a(smd_sensor.o)
p1003_get_touch                                   /home/leon/git/swp-report/iMX6_Platform_SDK/output/mx6sdl/obds/smart_device_rev_a/obj/apps/obds/src/tests/i2c_device_id_check_p1003_tsc.o
p1003_show_touch                                  /home/leon/git/swp-report/iMX6_Platform_SDK/output/mx6sdl/obds/smart_device_rev_a/obj/apps/obds/src/tests/i2c_device_id_check_p1003_tsc.o
p1003_version_reg_read                            /home/leon/git/swp-report/iMX6_Platform_SDK/output/mx6sdl/obds/smart_device_rev_a/obj/apps/obds/src/tests/i2c_device_id_check_p1003_tsc.o
p1003_version_reg_write                           /home/leon/git/swp-report/iMX6_Platform_SDK/output/mx6sdl/obds/smart_device_rev_a/obj/apps/obds/src/tests/i2c_device_id_check_p1003_tsc.o
panel_name                                        /home/leon/git/swp-report/iMX6_Platform_SDK/output/mx6sdl/obds/smart_device_rev_a/obj/apps/obds/src/tests/display_test.o
pcie_iomux_config                                 /home/leon/git/swp-report/iMX6_Platform_SDK/output/mx6sdl/lib/libboard_smart_device_rev_a.a(iomux_config.o)
pcm_music                                         /home/leon/git/swp-report/iMX6_Platform_SDK/output/mx6sdl/obds/smart_device_rev_a/obj/apps/obds/src/tests/audio_ssi_test.o
                                                  /home/leon/git/swp-report/iMX6_Platform_SDK/output/mx6sdl/obds/smart_device_rev_a/obj/apps/obds/src/tests/audio_esai_test.o
pcm_para                                          /home/leon/git/swp-report/iMX6_Platform_SDK/output/mx6sdl/obds/smart_device_rev_a/obj/apps/obds/src/tests/audio_ssi_test.o
pcm_record                                        /home/leon/git/swp-report/iMX6_Platform_SDK/output/mx6sdl/obds/smart_device_rev_a/obj/apps/obds/src/tests/audio_ssi_test.o
                                                  /home/leon/git/swp-report/iMX6_Platform_SDK/output/mx6sdl/obds/smart_device_rev_a/obj/apps/obds/src/tests/audio_esai_test.o
pen_status                                        /home/leon/git/swp-report/iMX6_Platform_SDK/output/mx6sdl/obds/smart_device_rev_a/obj/apps/obds/src/tests/touch_screen.o
pf0100_enable_vgen1_1v2                           /home/leon/git/swp-report/iMX6_Platform_SDK/output/mx6sdl/obds/smart_device_rev_a/obj/sdk/common/pmic/pfuse/pf0100.o
pf0100_enable_vgen2_1v5                           /home/leon/git/swp-report/iMX6_Platform_SDK/output/mx6sdl/obds/smart_device_rev_a/obj/sdk/common/pmic/pfuse/pf0100.o
pf0100_enable_vgen3_1v8                           /home/leon/git/swp-report/iMX6_Platform_SDK/output/mx6sdl/obds/smart_device_rev_a/obj/sdk/common/pmic/pfuse/pf0100.o
pf0100_enable_vgen4_1v8                           /home/leon/git/swp-report/iMX6_Platform_SDK/output/mx6sdl/obds/smart_device_rev_a/obj/sdk/common/pmic/pfuse/pf0100.o
pf0100_enable_vgen4_2v5                           /home/leon/git/swp-report/iMX6_Platform_SDK/output/mx6sdl/obds/smart_device_rev_a/obj/sdk/common/pmic/pfuse/pf0100.o
pf0100_enable_vgen6_2v8                           /home/leon/git/swp-report/iMX6_Platform_SDK/output/mx6sdl/obds/smart_device_rev_a/obj/sdk/common/pmic/pfuse/pf0100.o
pf0100_i2c_device_id_check                        /home/leon/git/swp-report/iMX6_Platform_SDK/output/mx6sdl/obds/smart_device_rev_a/obj/sdk/common/pmic/pfuse/pf0100.o
                                                  /home/leon/git/swp-report/iMX6_Platform_SDK/output/mx6sdl/obds/smart_device_rev_a/obj/apps/obds/src/obds.o
pf0100_reg_read                                   /home/leon/git/swp-report/iMX6_Platform_SDK/output/mx6sdl/obds/smart_device_rev_a/obj/sdk/common/pmic/pfuse/pf0100.o
pf0100_reg_write                                  /home/leon/git/swp-report/iMX6_Platform_SDK/output/mx6sdl/obds/smart_device_rev_a/obj/sdk/common/pmic/pfuse/pf0100.o
platform_init                                     /home/leon/git/swp-report/iMX6_Platform_SDK/output/mx6sdl/obds/smart_device_rev_a/obj/apps/common/platform_init.o
                                                  /home/leon/git/swp-report/iMX6_Platform_SDK/output/mx6sdl/obds/smart_device_rev_a/obj/apps/obds/src/obds.o
pmic_da9053_test                                  /home/leon/git/swp-report/iMX6_Platform_SDK/output/mx6sdl/obds/smart_device_rev_a/obj/apps/obds/src/tests/pmic_da9053.o
pmic_lt3589_test                                  /home/leon/git/swp-report/iMX6_Platform_SDK/output/mx6sdl/obds/smart_device_rev_a/obj/apps/obds/src/tests/pmic_lt3589.o
pmic_mc13892_reg                                  /home/leon/git/swp-report/iMX6_Platform_SDK/output/mx6sdl/obds/smart_device_rev_a/obj/apps/obds/src/tests/pmic_mc13892.o
pmic_mc13892_test                                 /home/leon/git/swp-report/iMX6_Platform_SDK/output/mx6sdl/obds/smart_device_rev_a/obj/apps/obds/src/tests/pmic_mc13892.o
pmic_open_vgen1                                   /home/leon/git/swp-report/iMX6_Platform_SDK/output/mx6sdl/obds/smart_device_rev_a/obj/apps/obds/src/tests/pmic_mc13892.o
pmic_open_vsd                                     /home/leon/git/swp-report/iMX6_Platform_SDK/output/mx6sdl/obds/smart_device_rev_a/obj/apps/obds/src/tests/pmic_mc13892.o
pmic_open_vusb                                    /home/leon/git/swp-report/iMX6_Platform_SDK/output/mx6sdl/obds/smart_device_rev_a/obj/apps/obds/src/tests/pmic_mc13892.o
pmu_iomux_config                                  /home/leon/git/swp-report/iMX6_Platform_SDK/output/mx6sdl/lib/libboard_smart_device_rev_a.a(iomux_config.o)
preamble_filter_set                               /home/leon/git/swp-report/iMX6_Platform_SDK/output/mx6sdl/lib/libsdk.a(hdmi_tx.o)
prefetch_abort_handler                            /home/leon/git/swp-report/iMX6_Platform_SDK/output/mx6sdl/lib/libsdk.a(arm_abort.o)
                                                  /home/leon/git/swp-report/iMX6_Platform_SDK/output/mx6sdl/lib/libsdk.a(vectors.o)
print_test_failed                                 /home/leon/git/swp-report/iMX6_Platform_SDK/output/mx6sdl/obds/smart_device_rev_a/obj/apps/obds/src/obds.o
print_test_not_implemented                        /home/leon/git/swp-report/iMX6_Platform_SDK/output/mx6sdl/obds/smart_device_rev_a/obj/apps/obds/src/obds.o
print_test_passed                                 /home/leon/git/swp-report/iMX6_Platform_SDK/output/mx6sdl/obds/smart_device_rev_a/obj/apps/obds/src/obds.o
print_test_skipped                                /home/leon/git/swp-report/iMX6_Platform_SDK/output/mx6sdl/obds/smart_device_rev_a/obj/apps/obds/src/obds.o
print_version                                     /home/leon/git/swp-report/iMX6_Platform_SDK/output/mx6sdl/obds/smart_device_rev_a/obj/apps/common/print_version.o
                                                  /home/leon/git/swp-report/iMX6_Platform_SDK/output/mx6sdl/obds/smart_device_rev_a/obj/apps/obds/src/obds.o
printf                                            /home/src/arm/target/bin/../arm-none-eabi/lib//libc.a(lib_a-printf.o)
                                                  /home/leon/git/swp-report/iMX6_Platform_SDK/output/mx6sdl/lib/libboard_smart_device_rev_a.a(board_hdmi.o)
                                                  /home/leon/git/swp-report/iMX6_Platform_SDK/output/mx6sdl/lib/libboard_smart_device_rev_a.a(board_display.o)
                                                  /home/leon/git/swp-report/iMX6_Platform_SDK/output/mx6sdl/lib/libsdk.a(abort_handler.o)
                                                  /home/leon/git/swp-report/iMX6_Platform_SDK/output/mx6sdl/lib/libsdk.a(ipu_ic.o)
                                                  /home/leon/git/swp-report/iMX6_Platform_SDK/output/mx6sdl/lib/libsdk.a(hdmi_common.o)
                                                  /home/leon/git/swp-report/iMX6_Platform_SDK/output/mx6sdl/lib/libsdk.a(usdhc_sd.o)
                                                  /home/leon/git/swp-report/iMX6_Platform_SDK/output/mx6sdl/lib/libsdk.a(usdhc_mmc.o)
                                                  /home/leon/git/swp-report/iMX6_Platform_SDK/output/mx6sdl/lib/libsdk.a(usdhc_host.o)
                                                  /home/leon/git/swp-report/iMX6_Platform_SDK/output/mx6sdl/lib/libsdk.a(usdhc.o)
                                                  /home/leon/git/swp-report/iMX6_Platform_SDK/output/mx6sdl/lib/libsdk.a(usbh_drv.o)
                                                  /home/leon/git/swp-report/iMX6_Platform_SDK/output/mx6sdl/lib/libsdk.a(usb_common.o)
                                                  /home/leon/git/swp-report/iMX6_Platform_SDK/output/mx6sdl/lib/libsdk.a(ecspi.o)
                                                  /home/leon/git/swp-report/iMX6_Platform_SDK/output/mx6sdl/lib/libsdk.a(ldb.o)
                                                  /home/leon/git/swp-report/iMX6_Platform_SDK/output/mx6sdl/lib/libsdk.a(ipu_idmac.o)
                                                  /home/leon/git/swp-report/iMX6_Platform_SDK/output/mx6sdl/lib/libsdk.a(ipu_di.o)
                                                  /home/leon/git/swp-report/iMX6_Platform_SDK/output/mx6sdl/lib/libsdk.a(ipu_dc.o)
                                                  /home/leon/git/swp-report/iMX6_Platform_SDK/output/mx6sdl/lib/libsdk.a(ipu_csi.o)
                                                  /home/leon/git/swp-report/iMX6_Platform_SDK/output/mx6sdl/lib/libsdk.a(ipu_common.o)
                                                  /home/leon/git/swp-report/iMX6_Platform_SDK/output/mx6sdl/lib/libsdk.a(ips_disp_panel.o)
                                                  /home/leon/git/swp-report/iMX6_Platform_SDK/output/mx6sdl/lib/libsdk.a(hdmi_tx_phy.o)
                                                  /home/leon/git/swp-report/iMX6_Platform_SDK/output/mx6sdl/lib/libsdk.a(hdmi_tx_audio.o)
                                                  /home/leon/git/swp-report/iMX6_Platform_SDK/output/mx6sdl/lib/libsdk.a(hdmi_tx.o)
                                                  /home/leon/git/swp-report/iMX6_Platform_SDK/output/mx6sdl/lib/libsdk.a(gpio.o)
                                                  /home/leon/git/swp-report/iMX6_Platform_SDK/output/mx6sdl/lib/libsdk.a(mxc_epdc.o)
                                                  /home/leon/git/swp-report/iMX6_Platform_SDK/output/mx6sdl/lib/libsdk.a(enet_drv.o)
                                                  /home/leon/git/swp-report/iMX6_Platform_SDK/output/mx6sdl/lib/libsdk.a(smd_sensor.o)
                                                  /home/leon/git/swp-report/iMX6_Platform_SDK/output/mx6sdl/lib/libsdk.a(board_id.o)
                                                  /home/leon/git/swp-report/iMX6_Platform_SDK/output/mx6sdl/lib/libsdk.a(wm8962.o)
                                                  /home/leon/git/swp-report/iMX6_Platform_SDK/output/mx6sdl/lib/libsdk.a(wm8958_dac.o)
                                                  /home/leon/git/swp-report/iMX6_Platform_SDK/output/mx6sdl/lib/libsdk.a(sgtl5000.o)
                                                  /home/leon/git/swp-report/iMX6_Platform_SDK/output/mx6sdl/lib/libsdk.a(imx_spdif.o)
                                                  /home/leon/git/swp-report/iMX6_Platform_SDK/output/mx6sdl/lib/libsdk.a(imx_esai.o)
                                                  /home/leon/git/swp-report/iMX6_Platform_SDK/output/mx6sdl/lib/libsdk.a(imx_audmux.o)
                                                  /home/leon/git/swp-report/iMX6_Platform_SDK/output/mx6sdl/lib/libsdk.a(imx-ssi.o)
                                                  /home/leon/git/swp-report/iMX6_Platform_SDK/output/mx6sdl/lib/libsdk.a(cs42888.o)
                                                  /home/leon/git/swp-report/iMX6_Platform_SDK/output/mx6sdl/lib/libsdk.a(text_color.o)
                                                  /home/leon/git/swp-report/iMX6_Platform_SDK/output/mx6sdl/lib/libsdk.a(system_util.o)
                                                  /home/leon/git/swp-report/iMX6_Platform_SDK/output/mx6sdl/lib/libsdk.a(menu.o)
                                                  /home/leon/git/swp-report/iMX6_Platform_SDK/output/mx6sdl/lib/libsdk.a(interrupt.o)
                                                  /home/leon/git/swp-report/iMX6_Platform_SDK/output/mx6sdl/obds/smart_device_rev_a/obj/sdk/drivers/usdhc/test/usdhc_test.o
                                                  /home/leon/git/swp-report/iMX6_Platform_SDK/output/mx6sdl/obds/smart_device_rev_a/obj/sdk/drivers/usb/test/usb0_host_testmodes_test.o
                                                  /home/leon/git/swp-report/iMX6_Platform_SDK/output/mx6sdl/obds/smart_device_rev_a/obj/sdk/drivers/usb/test/usb0_host_test.o
                                                  /home/leon/git/swp-report/iMX6_Platform_SDK/output/mx6sdl/obds/smart_device_rev_a/obj/sdk/drivers/uart/test/uart_test.o
                                                  /home/leon/git/swp-report/iMX6_Platform_SDK/output/mx6sdl/obds/smart_device_rev_a/obj/sdk/drivers/spi/test/spi_nor_numonyx.o
                                                  /home/leon/git/swp-report/iMX6_Platform_SDK/output/mx6sdl/obds/smart_device_rev_a/obj/sdk/drivers/spi/test/imx_spi_nor_atmel.o
                                                  /home/leon/git/swp-report/iMX6_Platform_SDK/output/mx6sdl/obds/smart_device_rev_a/obj/sdk/drivers/ipu/test/ips_display.o
                                                  /home/leon/git/swp-report/iMX6_Platform_SDK/output/mx6sdl/obds/smart_device_rev_a/obj/sdk/drivers/hdmi/test/init_dma_data.o
                                                  /home/leon/git/swp-report/iMX6_Platform_SDK/output/mx6sdl/obds/smart_device_rev_a/obj/sdk/drivers/hdmi/test/hdmi_test.o
                                                  /home/leon/git/swp-report/iMX6_Platform_SDK/output/mx6sdl/obds/smart_device_rev_a/obj/sdk/drivers/epdc/test/epdc_test.o
                                                  /home/leon/git/swp-report/iMX6_Platform_SDK/output/mx6sdl/obds/smart_device_rev_a/obj/sdk/drivers/camera/test/sensor_capture.o
                                                  /home/leon/git/swp-report/iMX6_Platform_SDK/output/mx6sdl/obds/smart_device_rev_a/obj/sdk/drivers/camera/test/csi_test_mode.o
                                                  /home/leon/git/swp-report/iMX6_Platform_SDK/output/mx6sdl/obds/smart_device_rev_a/obj/sdk/drivers/camera/test/camera_test.o
                                                  /home/leon/git/swp-report/iMX6_Platform_SDK/output/mx6sdl/obds/smart_device_rev_a/obj/sdk/drivers/audio/src/snd_card.o
                                                  /home/leon/git/swp-report/iMX6_Platform_SDK/output/mx6sdl/obds/smart_device_rev_a/obj/sdk/common/pmic/pfuse/pf0100.o
                                                  /home/leon/git/swp-report/iMX6_Platform_SDK/output/mx6sdl/obds/smart_device_rev_a/obj/apps/obds/src/tests/weim_nor_flash_test.o
                                                  /home/leon/git/swp-report/iMX6_Platform_SDK/output/mx6sdl/obds/smart_device_rev_a/obj/apps/obds/src/tests/video_dec_adv7180.o
                                                  /home/leon/git/swp-report/iMX6_Platform_SDK/output/mx6sdl/obds/smart_device_rev_a/obj/apps/obds/src/tests/video_dec_ARD_MBrst_from_cpu_expander.o
                                                  /home/leon/git/swp-report/iMX6_Platform_SDK/output/mx6sdl/obds/smart_device_rev_a/obj/apps/obds/src/tests/video_dec_ARD_MB_reset_button.o
                                                  /home/leon/git/swp-report/iMX6_Platform_SDK/output/mx6sdl/obds/smart_device_rev_a/obj/apps/obds/src/tests/usb_tests_obds.o
                                                  /home/leon/git/swp-report/iMX6_Platform_SDK/output/mx6sdl/obds/smart_device_rev_a/obj/apps/obds/src/tests/touch_screen_max11801.o
                                                  /home/leon/git/swp-report/iMX6_Platform_SDK/output/mx6sdl/obds/smart_device_rev_a/obj/apps/obds/src/tests/touch_screen.o
                                                  /home/leon/git/swp-report/iMX6_Platform_SDK/output/mx6sdl/obds/smart_device_rev_a/obj/apps/obds/src/tests/touch_button_test.o
                                                  /home/leon/git/swp-report/iMX6_Platform_SDK/output/mx6sdl/obds/smart_device_rev_a/obj/apps/obds/src/tests/snvs_srtc_test.o
                                                  /home/leon/git/swp-report/iMX6_Platform_SDK/output/mx6sdl/obds/smart_device_rev_a/obj/apps/obds/src/tests/program_mac_address.o
                                                  /home/leon/git/swp-report/iMX6_Platform_SDK/output/mx6sdl/obds/smart_device_rev_a/obj/apps/obds/src/tests/program_board_id.o
                                                  /home/leon/git/swp-report/iMX6_Platform_SDK/output/mx6sdl/obds/smart_device_rev_a/obj/apps/obds/src/tests/pmic_mc13892.o
                                                  /home/leon/git/swp-report/iMX6_Platform_SDK/output/mx6sdl/obds/smart_device_rev_a/obj/apps/obds/src/tests/pmic_max17135.o
                                                  /home/leon/git/swp-report/iMX6_Platform_SDK/output/mx6sdl/obds/smart_device_rev_a/obj/apps/obds/src/tests/pmic_lt3589.o
                                                  /home/leon/git/swp-report/iMX6_Platform_SDK/output/mx6sdl/obds/smart_device_rev_a/obj/apps/obds/src/tests/pmic_da9053.o
                                                  /home/leon/git/swp-report/iMX6_Platform_SDK/output/mx6sdl/obds/smart_device_rev_a/obj/apps/obds/src/tests/mmcsd_test.o
                                                  /home/leon/git/swp-report/iMX6_Platform_SDK/output/mx6sdl/obds/smart_device_rev_a/obj/apps/obds/src/tests/mlb_os81050.o
                                                  /home/leon/git/swp-report/iMX6_Platform_SDK/output/mx6sdl/obds/smart_device_rev_a/obj/apps/obds/src/tests/imx_spi_nor_test.o
                                                  /home/leon/git/swp-report/iMX6_Platform_SDK/output/mx6sdl/obds/smart_device_rev_a/obj/apps/obds/src/tests/i2c_eeprom_at24cxx_test.o
                                                  /home/leon/git/swp-report/iMX6_Platform_SDK/output/mx6sdl/obds/smart_device_rev_a/obj/apps/obds/src/tests/i2c_device_zigbee_mc1323.o
                                                  /home/leon/git/swp-report/iMX6_Platform_SDK/output/mx6sdl/obds/smart_device_rev_a/obj/apps/obds/src/tests/i2c_device_temp_sensor_emc1046.o
                                                  /home/leon/git/swp-report/iMX6_Platform_SDK/output/mx6sdl/obds/smart_device_rev_a/obj/apps/obds/src/tests/i2c_device_id_check_p1003_tsc.o
                                                  /home/leon/git/swp-report/iMX6_Platform_SDK/output/mx6sdl/obds/smart_device_rev_a/obj/apps/obds/src/tests/i2c_device_id_check_mma8451.o
                                                  /home/leon/git/swp-report/iMX6_Platform_SDK/output/mx6sdl/obds/smart_device_rev_a/obj/apps/obds/src/tests/i2c_device_id_check_mma8450.o
                                                  /home/leon/git/swp-report/iMX6_Platform_SDK/output/mx6sdl/obds/smart_device_rev_a/obj/apps/obds/src/tests/i2c_device_digital_compass_mag3112.o
                                                  /home/leon/git/swp-report/iMX6_Platform_SDK/output/mx6sdl/obds/smart_device_rev_a/obj/apps/obds/src/tests/i2c_device_digital_compass_mag3110.o
                                                  /home/leon/git/swp-report/iMX6_Platform_SDK/output/mx6sdl/obds/smart_device_rev_a/obj/apps/obds/src/tests/i2c_device_barometer_ppl3115.o
                                                  /home/leon/git/swp-report/iMX6_Platform_SDK/output/mx6sdl/obds/smart_device_rev_a/obj/apps/obds/src/tests/i2c_check_light_sensor_isl29023.o
                                                  /home/leon/git/swp-report/iMX6_Platform_SDK/output/mx6sdl/obds/smart_device_rev_a/obj/apps/obds/src/tests/gps_test.o
                                                  /home/leon/git/swp-report/iMX6_Platform_SDK/output/mx6sdl/obds/smart_device_rev_a/obj/apps/obds/src/tests/gpio_led.o
                                                  /home/leon/git/swp-report/iMX6_Platform_SDK/output/mx6sdl/obds/smart_device_rev_a/obj/apps/obds/src/tests/fm_tuner_si476x_test.o
                                                  /home/leon/git/swp-report/iMX6_Platform_SDK/output/mx6sdl/obds/smart_device_rev_a/obj/apps/obds/src/tests/flexcan_test.o
                                                  /home/leon/git/swp-report/iMX6_Platform_SDK/output/mx6sdl/obds/smart_device_rev_a/obj/apps/obds/src/tests/enet_mx6dldq_test.o
                                                  /home/leon/git/swp-report/iMX6_Platform_SDK/output/mx6sdl/obds/smart_device_rev_a/obj/apps/obds/src/tests/display_test.o
                                                  /home/leon/git/swp-report/iMX6_Platform_SDK/output/mx6sdl/obds/smart_device_rev_a/obj/apps/obds/src/tests/deserializer_ds90ur124.o
                                                  /home/leon/git/swp-report/iMX6_Platform_SDK/output/mx6sdl/obds/smart_device_rev_a/obj/apps/obds/src/tests/audio_ssi_test.o
                                                  /home/leon/git/swp-report/iMX6_Platform_SDK/output/mx6sdl/obds/smart_device_rev_a/obj/apps/obds/src/tests/audio_esai_test.o
                                                  /home/leon/git/swp-report/iMX6_Platform_SDK/output/mx6sdl/obds/smart_device_rev_a/obj/apps/obds/src/tests/android_buttons_test.o
                                                  /home/leon/git/swp-report/iMX6_Platform_SDK/output/mx6sdl/obds/smart_device_rev_a/obj/apps/obds/src/obds_utils.o
                                                  /home/leon/git/swp-report/iMX6_Platform_SDK/output/mx6sdl/obds/smart_device_rev_a/obj/apps/obds/src/obds.o
                                                  /home/leon/git/swp-report/iMX6_Platform_SDK/output/mx6sdl/obds/smart_device_rev_a/obj/apps/common/print_version.o
                                                  /home/leon/git/swp-report/iMX6_Platform_SDK/output/mx6sdl/obds/smart_device_rev_a/obj/apps/common/print_clock_info.o
printf_color                                      /home/leon/git/swp-report/iMX6_Platform_SDK/output/mx6sdl/lib/libsdk.a(text_color.o)
                                                  /home/leon/git/swp-report/iMX6_Platform_SDK/output/mx6sdl/lib/libsdk.a(system_util.o)
                                                  /home/leon/git/swp-report/iMX6_Platform_SDK/output/mx6sdl/lib/libsdk.a(menu.o)
                                                  /home/leon/git/swp-report/iMX6_Platform_SDK/output/mx6sdl/obds/smart_device_rev_a/obj/apps/obds/src/tests/program_mac_address.o
                                                  /home/leon/git/swp-report/iMX6_Platform_SDK/output/mx6sdl/obds/smart_device_rev_a/obj/apps/obds/src/tests/program_board_id.o
                                                  /home/leon/git/swp-report/iMX6_Platform_SDK/output/mx6sdl/obds/smart_device_rev_a/obj/apps/obds/src/obds.o
printf_hook                                       /home/leon/git/swp-report/iMX6_Platform_SDK/output/mx6sdl/obds/smart_device_rev_a/obj/apps/obds/src/obds.o
program_board_id                                  /home/leon/git/swp-report/iMX6_Platform_SDK/output/mx6sdl/obds/smart_device_rev_a/obj/apps/obds/src/tests/program_board_id.o
                                                  /home/leon/git/swp-report/iMX6_Platform_SDK/output/mx6sdl/obds/smart_device_rev_a/obj/apps/obds/src/obds.o
program_board_id_fuses                            /home/leon/git/swp-report/iMX6_Platform_SDK/output/mx6sdl/obds/smart_device_rev_a/obj/apps/obds/src/tests/program_board_id.o
program_mac_address                               /home/leon/git/swp-report/iMX6_Platform_SDK/output/mx6sdl/obds/smart_device_rev_a/obj/apps/obds/src/tests/program_mac_address.o
                                                  /home/leon/git/swp-report/iMX6_Platform_SDK/output/mx6sdl/obds/smart_device_rev_a/obj/apps/obds/src/obds.o
program_mac_address_fuses                         /home/leon/git/swp-report/iMX6_Platform_SDK/output/mx6sdl/obds/smart_device_rev_a/obj/apps/obds/src/tests/program_mac_address.o
prompt_run_test                                   /home/leon/git/swp-report/iMX6_Platform_SDK/output/mx6sdl/obds/smart_device_rev_a/obj/apps/obds/src/obds.o
                                                  /home/leon/git/swp-report/iMX6_Platform_SDK/output/mx6sdl/obds/smart_device_rev_a/obj/apps/obds/src/tests/touch_screen.o
                                                  /home/leon/git/swp-report/iMX6_Platform_SDK/output/mx6sdl/obds/smart_device_rev_a/obj/apps/obds/src/tests/pmic_mc13892.o
                                                  /home/leon/git/swp-report/iMX6_Platform_SDK/output/mx6sdl/obds/smart_device_rev_a/obj/apps/obds/src/tests/pmic_lt3589.o
                                                  /home/leon/git/swp-report/iMX6_Platform_SDK/output/mx6sdl/obds/smart_device_rev_a/obj/apps/obds/src/tests/pmic_da9053.o
                                                  /home/leon/git/swp-report/iMX6_Platform_SDK/output/mx6sdl/obds/smart_device_rev_a/obj/apps/obds/src/tests/i2c_device_zigbee_mc1323.o
putc                                              /home/src/arm/target/bin/../arm-none-eabi/lib//libc.a(lib_a-putc.o)
pwm1_iomux_config                                 /home/leon/git/swp-report/iMX6_Platform_SDK/output/mx6sdl/lib/libboard_smart_device_rev_a.a(pwm1_iomux_config.o)
                                                  /home/leon/git/swp-report/iMX6_Platform_SDK/output/mx6sdl/lib/libboard_smart_device_rev_a.a(iomux_config.o)
pwm2_iomux_config                                 /home/leon/git/swp-report/iMX6_Platform_SDK/output/mx6sdl/lib/libboard_smart_device_rev_a.a(iomux_config.o)
pwm3_iomux_config                                 /home/leon/git/swp-report/iMX6_Platform_SDK/output/mx6sdl/lib/libboard_smart_device_rev_a.a(iomux_config.o)
pwm4_iomux_config                                 /home/leon/git/swp-report/iMX6_Platform_SDK/output/mx6sdl/lib/libboard_smart_device_rev_a.a(iomux_config.o)
raise                                             /home/src/arm/target/bin/../arm-none-eabi/lib//libc.a(lib_a-signal.o)
                                                  /home/src/arm/target/bin/../arm-none-eabi/lib//libc.a(lib_a-abort.o)
read_input_string                                 /home/leon/git/swp-report/iMX6_Platform_SDK/output/mx6sdl/lib/libsdk.a(system_util.o)
read_int                                          /home/leon/git/swp-report/iMX6_Platform_SDK/output/mx6sdl/lib/libsdk.a(system_util.o)
read_mac_otp_registers                            /home/leon/git/swp-report/iMX6_Platform_SDK/output/mx6sdl/obds/smart_device_rev_a/obj/apps/obds/src/tests/program_mac_address.o
read_usdhc_adma_mode                              /home/leon/git/swp-report/iMX6_Platform_SDK/output/mx6sdl/lib/libsdk.a(usdhc.o)
                                                  /home/leon/git/swp-report/iMX6_Platform_SDK/output/mx6sdl/lib/libsdk.a(usdhc_host.o)
read_usdhc_intr_mode                              /home/leon/git/swp-report/iMX6_Platform_SDK/output/mx6sdl/lib/libsdk.a(usdhc.o)
                                                  /home/leon/git/swp-report/iMX6_Platform_SDK/output/mx6sdl/lib/libsdk.a(usdhc_host.o)
                                                  /home/leon/git/swp-report/iMX6_Platform_SDK/output/mx6sdl/obds/smart_device_rev_a/obj/sdk/drivers/usdhc/test/usdhc_test.o
realloc                                           /home/src/arm/target/bin/../arm-none-eabi/lib//libc.a(lib_a-realloc.o)
                                                  /home/leon/git/swp-report/iMX6_Platform_SDK/output/mx6sdl/lib/libsdk.a(system_util.o)
register_interrupt_routine                        /home/leon/git/swp-report/iMX6_Platform_SDK/output/mx6sdl/lib/libsdk.a(interrupt.o)
                                                  /home/leon/git/swp-report/iMX6_Platform_SDK/output/mx6sdl/lib/libsdk.a(epit.o)
                                                  /home/leon/git/swp-report/iMX6_Platform_SDK/output/mx6sdl/lib/libsdk.a(usdhc.o)
                                                  /home/leon/git/swp-report/iMX6_Platform_SDK/output/mx6sdl/lib/libsdk.a(imx_uart.o)
                                                  /home/leon/git/swp-report/iMX6_Platform_SDK/output/mx6sdl/lib/libsdk.a(ipu_common.o)
                                                  /home/leon/git/swp-report/iMX6_Platform_SDK/output/mx6sdl/lib/libsdk.a(imx_i2c.o)
                                                  /home/leon/git/swp-report/iMX6_Platform_SDK/output/mx6sdl/obds/smart_device_rev_a/obj/sdk/drivers/hdmi/test/hdmi_test.o
report_test_results                               /home/leon/git/swp-report/iMX6_Platform_SDK/output/mx6sdl/obds/smart_device_rev_a/obj/apps/obds/src/obds.o
reset_usb_hub                                     /home/leon/git/swp-report/iMX6_Platform_SDK/output/mx6sdl/lib/libboard_smart_device_rev_a.a(board_usb.o)
run_all_tests                                     /home/leon/git/swp-report/iMX6_Platform_SDK/output/mx6sdl/obds/smart_device_rev_a/obj/apps/obds/src/obds.o
run_test                                          /home/leon/git/swp-report/iMX6_Platform_SDK/output/mx6sdl/obds/smart_device_rev_a/obj/apps/obds/src/obds.o
scu_disable_maintenance_broadcast                 /home/leon/git/swp-report/iMX6_Platform_SDK/output/mx6sdl/lib/libsdk.a(cortexA9.o)
scu_enable                                        /home/leon/git/swp-report/iMX6_Platform_SDK/output/mx6sdl/lib/libsdk.a(cortexA9.o)
scu_enable_maintenance_broadcast                  /home/leon/git/swp-report/iMX6_Platform_SDK/output/mx6sdl/lib/libsdk.a(cortexA9.o)
scu_get_cpus_in_smp                               /home/leon/git/swp-report/iMX6_Platform_SDK/output/mx6sdl/lib/libsdk.a(cortexA9.o)
scu_join_smp                                      /home/leon/git/swp-report/iMX6_Platform_SDK/output/mx6sdl/lib/libsdk.a(cortexA9.o)
scu_leave_smp                                     /home/leon/git/swp-report/iMX6_Platform_SDK/output/mx6sdl/lib/libsdk.a(cortexA9.o)
scu_secure_invalidate                             /home/leon/git/swp-report/iMX6_Platform_SDK/output/mx6sdl/lib/libsdk.a(cortexA9.o)
sd_if_cmd_arg                                     /home/leon/git/swp-report/iMX6_Platform_SDK/output/mx6sdl/lib/libsdk.a(usdhc_sd.o)
sd_init                                           /home/leon/git/swp-report/iMX6_Platform_SDK/output/mx6sdl/lib/libsdk.a(usdhc_sd.o)
                                                  /home/leon/git/swp-report/iMX6_Platform_SDK/output/mx6sdl/lib/libsdk.a(usdhc.o)
sd_ocr_value                                      /home/leon/git/swp-report/iMX6_Platform_SDK/output/mx6sdl/lib/libsdk.a(usdhc_sd.o)
sd_voltage_validation                             /home/leon/git/swp-report/iMX6_Platform_SDK/output/mx6sdl/lib/libsdk.a(usdhc_sd.o)
                                                  /home/leon/git/swp-report/iMX6_Platform_SDK/output/mx6sdl/lib/libsdk.a(usdhc.o)
sdma_iomux_config                                 /home/leon/git/swp-report/iMX6_Platform_SDK/output/mx6sdl/lib/libboard_smart_device_rev_a.a(iomux_config.o)
search_panel                                      /home/leon/git/swp-report/iMX6_Platform_SDK/output/mx6sdl/lib/libsdk.a(ips_disp_panel.o)
                                                  /home/leon/git/swp-report/iMX6_Platform_SDK/output/mx6sdl/obds/smart_device_rev_a/obj/sdk/drivers/ipu/test/ips_display.o
                                                  /home/leon/git/swp-report/iMX6_Platform_SDK/output/mx6sdl/obds/smart_device_rev_a/obj/sdk/drivers/camera/test/sensor_capture.o
                                                  /home/leon/git/swp-report/iMX6_Platform_SDK/output/mx6sdl/obds/smart_device_rev_a/obj/sdk/drivers/camera/test/csi_test_mode.o
                                                  /home/leon/git/swp-report/iMX6_Platform_SDK/output/mx6sdl/obds/smart_device_rev_a/obj/apps/obds/src/tests/display_test.o
select_tests                                      /home/leon/git/swp-report/iMX6_Platform_SDK/output/mx6sdl/obds/smart_device_rev_a/obj/apps/obds/src/obds.o
sensor_af_trigger                                 /home/leon/git/swp-report/iMX6_Platform_SDK/output/mx6sdl/lib/libsdk.a(smd_sensor.o)
                                                  /home/leon/git/swp-report/iMX6_Platform_SDK/output/mx6sdl/obds/smart_device_rev_a/obj/sdk/drivers/camera/test/sensor_capture.o
sensor_autofocus_init                             /home/leon/git/swp-report/iMX6_Platform_SDK/output/mx6sdl/lib/libsdk.a(smd_sensor.o)
                                                  /home/leon/git/swp-report/iMX6_Platform_SDK/output/mx6sdl/obds/smart_device_rev_a/obj/sdk/drivers/camera/test/sensor_capture.o
sensor_capture                                    /home/leon/git/swp-report/iMX6_Platform_SDK/output/mx6sdl/obds/smart_device_rev_a/obj/sdk/drivers/camera/test/sensor_capture.o
                                                  /home/leon/git/swp-report/iMX6_Platform_SDK/output/mx6sdl/obds/smart_device_rev_a/obj/sdk/drivers/camera/test/camera_test.o
sensor_clock_setting                              /home/leon/git/swp-report/iMX6_Platform_SDK/output/mx6sdl/lib/libboard_smart_device_rev_a.a(board_camera.o)
                                                  /home/leon/git/swp-report/iMX6_Platform_SDK/output/mx6sdl/lib/libsdk.a(smd_sensor.o)
sensor_config                                     /home/leon/git/swp-report/iMX6_Platform_SDK/output/mx6sdl/lib/libsdk.a(smd_sensor.o)
                                                  /home/leon/git/swp-report/iMX6_Platform_SDK/output/mx6sdl/obds/smart_device_rev_a/obj/sdk/drivers/camera/test/sensor_capture.o
sensor_init                                       /home/leon/git/swp-report/iMX6_Platform_SDK/output/mx6sdl/lib/libsdk.a(smd_sensor.o)
sensor_reset                                      /home/leon/git/swp-report/iMX6_Platform_SDK/output/mx6sdl/lib/libboard_smart_device_rev_a.a(board_camera.o)
                                                  /home/leon/git/swp-report/iMX6_Platform_SDK/output/mx6sdl/lib/libsdk.a(smd_sensor.o)
sensor_search                                     /home/leon/git/swp-report/iMX6_Platform_SDK/output/mx6sdl/lib/libsdk.a(smd_sensor.o)
                                                  /home/leon/git/swp-report/iMX6_Platform_SDK/output/mx6sdl/obds/smart_device_rev_a/obj/sdk/drivers/camera/test/sensor_capture.o
sensor_standby                                    /home/leon/git/swp-report/iMX6_Platform_SDK/output/mx6sdl/lib/libboard_smart_device_rev_a.a(board_camera.o)
                                                  /home/leon/git/swp-report/iMX6_Platform_SDK/output/mx6sdl/obds/smart_device_rev_a/obj/sdk/drivers/camera/test/sensor_capture.o
set_background_margin                             /home/leon/git/swp-report/iMX6_Platform_SDK/output/mx6sdl/obds/smart_device_rev_a/obj/sdk/drivers/ipu/test/ipu_image.o
set_card_access_mode                              /home/leon/git/swp-report/iMX6_Platform_SDK/output/mx6sdl/lib/libsdk.a(usdhc.o)
                                                  /home/leon/git/swp-report/iMX6_Platform_SDK/output/mx6sdl/obds/smart_device_rev_a/obj/sdk/drivers/usdhc/test/usdhc_test.o
setlocale                                         /home/src/arm/target/bin/../arm-none-eabi/lib//libc.a(lib_a-locale.o)
sgtl5000                                          /home/leon/git/swp-report/iMX6_Platform_SDK/output/mx6sdl/lib/libsdk.a(sgtl5000.o)
                                                  /home/leon/git/swp-report/iMX6_Platform_SDK/output/mx6sdl/obds/smart_device_rev_a/obj/sdk/drivers/audio/src/snd_card.o
sgtl5000_deinit                                   /home/leon/git/swp-report/iMX6_Platform_SDK/output/mx6sdl/lib/libsdk.a(sgtl5000.o)
sgtl5000_i2c_req                                  /home/leon/git/swp-report/iMX6_Platform_SDK/output/mx6sdl/lib/libsdk.a(sgtl5000.o)
sgtl5000_i2s_config                               /home/leon/git/swp-report/iMX6_Platform_SDK/output/mx6sdl/lib/libsdk.a(sgtl5000.o)
sgtl5000_init                                     /home/leon/git/swp-report/iMX6_Platform_SDK/output/mx6sdl/lib/libsdk.a(sgtl5000.o)
sgtl5000_ops                                      /home/leon/git/swp-report/iMX6_Platform_SDK/output/mx6sdl/lib/libsdk.a(sgtl5000.o)
show_board_id                                     /home/leon/git/swp-report/iMX6_Platform_SDK/output/mx6sdl/lib/libsdk.a(board_id.o)
                                                  /home/leon/git/swp-report/iMX6_Platform_SDK/output/mx6sdl/obds/smart_device_rev_a/obj/apps/obds/src/tests/program_board_id.o
show_boot_switch_info                             /home/leon/git/swp-report/iMX6_Platform_SDK/output/mx6sdl/obds/smart_device_rev_a/obj/apps/obds/src/obds_utils.o
                                                  /home/leon/git/swp-report/iMX6_Platform_SDK/output/mx6sdl/obds/smart_device_rev_a/obj/apps/obds/src/obds.o
show_ddr_config                                   /home/leon/git/swp-report/iMX6_Platform_SDK/output/mx6sdl/obds/smart_device_rev_a/obj/apps/common/print_clock_info.o
                                                  /home/leon/git/swp-report/iMX6_Platform_SDK/output/mx6sdl/obds/smart_device_rev_a/obj/apps/obds/src/obds.o
show_freq                                         /home/leon/git/swp-report/iMX6_Platform_SDK/output/mx6sdl/obds/smart_device_rev_a/obj/apps/common/print_clock_info.o
                                                  /home/leon/git/swp-report/iMX6_Platform_SDK/output/mx6sdl/obds/smart_device_rev_a/obj/apps/obds/src/obds.o
si476x_i2c_req                                    /home/leon/git/swp-report/iMX6_Platform_SDK/output/mx6sdl/obds/smart_device_rev_a/obj/apps/obds/src/tests/fm_tuner_si476x_test.o
si476x_test_enable                                /home/leon/git/swp-report/iMX6_Platform_SDK/output/mx6sdl/obds/smart_device_rev_a/obj/apps/obds/src/tests/fm_tuner_si476x_test.o
si476x_test_main                                  /home/leon/git/swp-report/iMX6_Platform_SDK/output/mx6sdl/obds/smart_device_rev_a/obj/apps/obds/src/tests/fm_tuner_si476x_test.o
signal                                            /home/src/arm/target/bin/../arm-none-eabi/lib//libc.a(lib_a-signal.o)
sil9024_hdmi_power_on1                            /home/leon/git/swp-report/iMX6_Platform_SDK/output/mx6sdl/obds/smart_device_rev_a/obj/apps/obds/src/tests/pmic_lt3589.o
sjc_iomux_config                                  /home/leon/git/swp-report/iMX6_Platform_SDK/output/mx6sdl/lib/libboard_smart_device_rev_a.a(sjc_iomux_config.o)
                                                  /home/leon/git/swp-report/iMX6_Platform_SDK/output/mx6sdl/lib/libboard_smart_device_rev_a.a(iomux_config.o)
snd_card                                          /home/leon/git/swp-report/iMX6_Platform_SDK/output/mx6sdl/obds/smart_device_rev_a/obj/apps/obds/src/tests/audio_ssi_test.o
                                                  /home/leon/git/swp-report/iMX6_Platform_SDK/output/mx6sdl/obds/smart_device_rev_a/obj/apps/obds/src/tests/i2c_device_check_cs42888.o
                                                  /home/leon/git/swp-report/iMX6_Platform_SDK/output/mx6sdl/obds/smart_device_rev_a/obj/apps/obds/src/tests/audio_esai_test.o
snd_card_esai                                     /home/leon/git/swp-report/iMX6_Platform_SDK/output/mx6sdl/obds/smart_device_rev_a/obj/sdk/drivers/audio/src/snd_card.o
                                                  /home/leon/git/swp-report/iMX6_Platform_SDK/output/mx6sdl/obds/smart_device_rev_a/obj/apps/obds/src/tests/i2c_device_check_cs42888.o
                                                  /home/leon/git/swp-report/iMX6_Platform_SDK/output/mx6sdl/obds/smart_device_rev_a/obj/apps/obds/src/tests/audio_esai_test.o
snd_card_spdif                                    /home/leon/git/swp-report/iMX6_Platform_SDK/output/mx6sdl/obds/smart_device_rev_a/obj/sdk/drivers/audio/src/snd_card.o
snd_card_ssi_sgtl5000                             /home/leon/git/swp-report/iMX6_Platform_SDK/output/mx6sdl/obds/smart_device_rev_a/obj/sdk/drivers/audio/src/snd_card.o
snd_card_ssi_wm8958                               /home/leon/git/swp-report/iMX6_Platform_SDK/output/mx6sdl/obds/smart_device_rev_a/obj/sdk/drivers/audio/src/snd_card.o
                                                  /home/leon/git/swp-report/iMX6_Platform_SDK/output/mx6sdl/obds/smart_device_rev_a/obj/apps/obds/src/tests/audio_ssi_test.o
snd_card_ssi_wm8962                               /home/leon/git/swp-report/iMX6_Platform_SDK/output/mx6sdl/obds/smart_device_rev_a/obj/sdk/drivers/audio/src/snd_card.o
snvs_iomux_config                                 /home/leon/git/swp-report/iMX6_Platform_SDK/output/mx6sdl/lib/libboard_smart_device_rev_a.a(iomux_config.o)
snvs_srtc_test                                    /home/leon/git/swp-report/iMX6_Platform_SDK/output/mx6sdl/obds/smart_device_rev_a/obj/apps/obds/src/tests/snvs_srtc_test.o
                                                  /home/leon/git/swp-report/iMX6_Platform_SDK/output/mx6sdl/obds/smart_device_rev_a/obj/apps/obds/src/obds.o
soc_sbmr1                                         /home/leon/git/swp-report/iMX6_Platform_SDK/output/mx6sdl/obds/smart_device_rev_a/obj/apps/obds/src/obds_utils.o
soc_sbmr2                                         /home/leon/git/swp-report/iMX6_Platform_SDK/output/mx6sdl/obds/smart_device_rev_a/obj/apps/obds/src/obds_utils.o
spdif_clk_cfg                                     /home/leon/git/swp-report/iMX6_Platform_SDK/output/mx6sdl/lib/libboard_smart_device_rev_a.a(board_audio.o)
                                                  /home/leon/git/swp-report/iMX6_Platform_SDK/output/mx6sdl/lib/libsdk.a(imx_spdif.o)
spdif_config                                      /home/leon/git/swp-report/iMX6_Platform_SDK/output/mx6sdl/lib/libsdk.a(imx_spdif.o)
spdif_deinit                                      /home/leon/git/swp-report/iMX6_Platform_SDK/output/mx6sdl/lib/libsdk.a(imx_spdif.o)
spdif_get_tx_clk_freq                             /home/leon/git/swp-report/iMX6_Platform_SDK/output/mx6sdl/lib/libboard_smart_device_rev_a.a(board_audio.o)
                                                  /home/leon/git/swp-report/iMX6_Platform_SDK/output/mx6sdl/lib/libsdk.a(imx_spdif.o)
spdif_init                                        /home/leon/git/swp-report/iMX6_Platform_SDK/output/mx6sdl/lib/libsdk.a(imx_spdif.o)
spdif_iomux_config                                /home/leon/git/swp-report/iMX6_Platform_SDK/output/mx6sdl/lib/libboard_smart_device_rev_a.a(iomux_config.o)
                                                  /home/leon/git/swp-report/iMX6_Platform_SDK/output/mx6sdl/lib/libsdk.a(imx_spdif.o)
spdif_write_fifo                                  /home/leon/git/swp-report/iMX6_Platform_SDK/output/mx6sdl/lib/libsdk.a(imx_spdif.o)
spi_nor_erase                                     /home/leon/git/swp-report/iMX6_Platform_SDK/output/mx6sdl/obds/smart_device_rev_a/obj/apps/obds/src/tests/imx_spi_nor_test.o
spi_nor_erase_atmel                               /home/leon/git/swp-report/iMX6_Platform_SDK/output/mx6sdl/obds/smart_device_rev_a/obj/sdk/drivers/spi/test/imx_spi_nor_atmel.o
                                                  /home/leon/git/swp-report/iMX6_Platform_SDK/output/mx6sdl/obds/smart_device_rev_a/obj/apps/obds/src/tests/imx_spi_nor_test.o
spi_nor_erase_numonyx                             /home/leon/git/swp-report/iMX6_Platform_SDK/output/mx6sdl/obds/smart_device_rev_a/obj/sdk/drivers/spi/test/spi_nor_numonyx.o
                                                  /home/leon/git/swp-report/iMX6_Platform_SDK/output/mx6sdl/obds/smart_device_rev_a/obj/apps/obds/src/tests/imx_spi_nor_test.o
spi_nor_flash_type                                /home/leon/git/swp-report/iMX6_Platform_SDK/output/mx6sdl/obds/smart_device_rev_a/obj/apps/obds/src/tests/imx_spi_nor_test.o
spi_nor_query                                     /home/leon/git/swp-report/iMX6_Platform_SDK/output/mx6sdl/obds/smart_device_rev_a/obj/apps/obds/src/tests/imx_spi_nor_test.o
spi_nor_query_atmel                               /home/leon/git/swp-report/iMX6_Platform_SDK/output/mx6sdl/obds/smart_device_rev_a/obj/sdk/drivers/spi/test/imx_spi_nor_atmel.o
                                                  /home/leon/git/swp-report/iMX6_Platform_SDK/output/mx6sdl/obds/smart_device_rev_a/obj/apps/obds/src/tests/imx_spi_nor_test.o
spi_nor_query_numonyx                             /home/leon/git/swp-report/iMX6_Platform_SDK/output/mx6sdl/obds/smart_device_rev_a/obj/sdk/drivers/spi/test/spi_nor_numonyx.o
                                                  /home/leon/git/swp-report/iMX6_Platform_SDK/output/mx6sdl/obds/smart_device_rev_a/obj/apps/obds/src/tests/imx_spi_nor_test.o
spi_nor_read                                      /home/leon/git/swp-report/iMX6_Platform_SDK/output/mx6sdl/obds/smart_device_rev_a/obj/apps/obds/src/tests/imx_spi_nor_test.o
spi_nor_read_atmel                                /home/leon/git/swp-report/iMX6_Platform_SDK/output/mx6sdl/obds/smart_device_rev_a/obj/sdk/drivers/spi/test/imx_spi_nor_atmel.o
                                                  /home/leon/git/swp-report/iMX6_Platform_SDK/output/mx6sdl/obds/smart_device_rev_a/obj/apps/obds/src/tests/imx_spi_nor_test.o
spi_nor_read_numonyx                              /home/leon/git/swp-report/iMX6_Platform_SDK/output/mx6sdl/obds/smart_device_rev_a/obj/sdk/drivers/spi/test/spi_nor_numonyx.o
                                                  /home/leon/git/swp-report/iMX6_Platform_SDK/output/mx6sdl/obds/smart_device_rev_a/obj/apps/obds/src/tests/imx_spi_nor_test.o
spi_nor_rx_buf                                    /home/leon/git/swp-report/iMX6_Platform_SDK/output/mx6sdl/obds/smart_device_rev_a/obj/apps/obds/src/tests/imx_spi_nor_test.o
spi_nor_test                                      /home/leon/git/swp-report/iMX6_Platform_SDK/output/mx6sdl/obds/smart_device_rev_a/obj/apps/obds/src/tests/imx_spi_nor_test.o
                                                  /home/leon/git/swp-report/iMX6_Platform_SDK/output/mx6sdl/obds/smart_device_rev_a/obj/apps/obds/src/obds.o
spi_nor_tx_buf                                    /home/leon/git/swp-report/iMX6_Platform_SDK/output/mx6sdl/obds/smart_device_rev_a/obj/apps/obds/src/tests/imx_spi_nor_test.o
spi_nor_write                                     /home/leon/git/swp-report/iMX6_Platform_SDK/output/mx6sdl/obds/smart_device_rev_a/obj/apps/obds/src/tests/imx_spi_nor_test.o
spi_nor_write_atmel                               /home/leon/git/swp-report/iMX6_Platform_SDK/output/mx6sdl/obds/smart_device_rev_a/obj/sdk/drivers/spi/test/imx_spi_nor_atmel.o
                                                  /home/leon/git/swp-report/iMX6_Platform_SDK/output/mx6sdl/obds/smart_device_rev_a/obj/apps/obds/src/tests/imx_spi_nor_test.o
spi_nor_write_numonyx                             /home/leon/git/swp-report/iMX6_Platform_SDK/output/mx6sdl/obds/smart_device_rev_a/obj/sdk/drivers/spi/test/spi_nor_numonyx.o
                                                  /home/leon/git/swp-report/iMX6_Platform_SDK/output/mx6sdl/obds/smart_device_rev_a/obj/apps/obds/src/tests/imx_spi_nor_test.o
sprintf                                           /home/src/arm/target/bin/../arm-none-eabi/lib//libc.a(lib_a-sprintf.o)
                                                  /home/leon/git/swp-report/iMX6_Platform_SDK/output/mx6sdl/lib/libsdk.a(board_id.o)
                                                  /home/leon/git/swp-report/iMX6_Platform_SDK/output/mx6sdl/obds/smart_device_rev_a/obj/apps/obds/src/tests/program_mac_address.o
                                                  /home/leon/git/swp-report/iMX6_Platform_SDK/output/mx6sdl/obds/smart_device_rev_a/obj/apps/obds/src/obds.o
src_iomux_config                                  /home/leon/git/swp-report/iMX6_Platform_SDK/output/mx6sdl/lib/libboard_smart_device_rev_a.a(iomux_config.o)
ssi_config                                        /home/leon/git/swp-report/iMX6_Platform_SDK/output/mx6sdl/lib/libsdk.a(imx-ssi.o)
ssi_deinit                                        /home/leon/git/swp-report/iMX6_Platform_SDK/output/mx6sdl/lib/libsdk.a(imx-ssi.o)
ssi_init                                          /home/leon/git/swp-report/iMX6_Platform_SDK/output/mx6sdl/lib/libsdk.a(imx-ssi.o)
ssi_read_fifo                                     /home/leon/git/swp-report/iMX6_Platform_SDK/output/mx6sdl/lib/libsdk.a(imx-ssi.o)
ssi_write_fifo                                    /home/leon/git/swp-report/iMX6_Platform_SDK/output/mx6sdl/lib/libsdk.a(imx-ssi.o)
strcat                                            /home/src/arm/target/bin/../arm-none-eabi/lib//libc.a(lib_a-strcat.o)
                                                  /home/leon/git/swp-report/iMX6_Platform_SDK/output/mx6sdl/obds/smart_device_rev_a/obj/apps/obds/src/obds.o
strcmp                                            /home/src/arm/target/bin/../arm-none-eabi/lib//libc.a(lib_a-strcmp.o)
                                                  /home/src/arm/target/bin/../arm-none-eabi/lib//libc.a(lib_a-locale.o)
                                                  /home/leon/git/swp-report/iMX6_Platform_SDK/output/mx6sdl/lib/libboard_smart_device_rev_a.a(board_display.o)
                                                  /home/leon/git/swp-report/iMX6_Platform_SDK/output/mx6sdl/lib/libsdk.a(ipu_ic.o)
                                                  /home/leon/git/swp-report/iMX6_Platform_SDK/output/mx6sdl/lib/libsdk.a(ips_disp_panel.o)
                                                  /home/leon/git/swp-report/iMX6_Platform_SDK/output/mx6sdl/obds/smart_device_rev_a/obj/apps/obds/src/obds.o
strcpy                                            /home/src/arm/target/bin/../arm-none-eabi/lib//libc.a(lib_a-strcpy.o)
                                                  /home/src/arm/target/bin/../arm-none-eabi/lib//libc.a(lib_a-strcat.o)
                                                  /home/leon/git/swp-report/iMX6_Platform_SDK/output/mx6sdl/obds/smart_device_rev_a/obj/apps/obds/src/obds.o
strlen                                            /home/src/arm/target/bin/../arm-none-eabi/lib//libc.a(lib_a-strlen.o)
                                                  /home/src/arm/target/bin/../arm-none-eabi/lib//libc.a(lib_a-svfiprintf.o)
                                                  /home/src/arm/target/bin/../arm-none-eabi/lib//libc.a(lib_a-vfprintf.o)
                                                  /home/src/arm/target/bin/../arm-none-eabi/lib//libc.a(lib_a-vfiprintf.o)
                                                  /home/src/arm/target/bin/../arm-none-eabi/lib//libc.a(lib_a-syscalls.o)
                                                  /home/src/arm/target/bin/../arm-none-eabi/lib//libc.a(lib_a-svfprintf.o)
                                                  /home/leon/git/swp-report/iMX6_Platform_SDK/output/mx6sdl/lib/libsdk.a(menu.o)
strncasecmp                                       /home/src/arm/target/bin/../arm-none-eabi/lib//libc.a(lib_a-strncasecmp.o)
                                                  /home/leon/git/swp-report/iMX6_Platform_SDK/output/mx6sdl/lib/libsdk.a(menu.o)
strtok                                            /home/src/arm/target/bin/../arm-none-eabi/lib//libc.a(lib_a-strtok.o)
                                                  /home/leon/git/swp-report/iMX6_Platform_SDK/output/mx6sdl/obds/smart_device_rev_a/obj/apps/obds/src/obds.o
strtok_r                                          /home/src/arm/target/bin/../arm-none-eabi/lib//libc.a(lib_a-strtok_r.o)
swap32                                            /home/leon/git/swp-report/iMX6_Platform_SDK/output/mx6sdl/lib/libsdk.a(usb_common.o)
system_time_init                                  /home/leon/git/swp-report/iMX6_Platform_SDK/output/mx6sdl/lib/libsdk.a(timer.o)
                                                  /home/leon/git/swp-report/iMX6_Platform_SDK/output/mx6sdl/obds/smart_device_rev_a/obj/apps/common/platform_init.o
tftlcd_backlight_en                               /home/leon/git/swp-report/iMX6_Platform_SDK/output/mx6sdl/lib/libboard_smart_device_rev_a.a(board_display.o)
                                                  /home/leon/git/swp-report/iMX6_Platform_SDK/output/mx6sdl/lib/libsdk.a(ips_disp_panel.o)
tftlcd_reset                                      /home/leon/git/swp-report/iMX6_Platform_SDK/output/mx6sdl/lib/libboard_smart_device_rev_a.a(board_display.o)
                                                  /home/leon/git/swp-report/iMX6_Platform_SDK/output/mx6sdl/lib/libsdk.a(ips_disp_panel.o)
time_get_microseconds                             /home/leon/git/swp-report/iMX6_Platform_SDK/output/mx6sdl/lib/libsdk.a(timer.o)
top_of_stacks                                     /home/leon/git/swp-report/iMX6_Platform_SDK/output/mx6sdl/lib/libsdk.a(startup.o)
total_tests                                       /home/leon/git/swp-report/iMX6_Platform_SDK/output/mx6sdl/obds/smart_device_rev_a/obj/apps/obds/src/obds.o
touch_button_test                                 /home/leon/git/swp-report/iMX6_Platform_SDK/output/mx6sdl/obds/smart_device_rev_a/obj/apps/obds/src/tests/touch_button_test.o
touch_detect                                      /home/leon/git/swp-report/iMX6_Platform_SDK/output/mx6sdl/obds/smart_device_rev_a/obj/apps/obds/src/tests/touch_screen.o
touch_get_xy_value                                /home/leon/git/swp-report/iMX6_Platform_SDK/output/mx6sdl/obds/smart_device_rev_a/obj/apps/obds/src/tests/touch_screen.o
touch_init                                        /home/leon/git/swp-report/iMX6_Platform_SDK/output/mx6sdl/obds/smart_device_rev_a/obj/apps/obds/src/tests/touch_screen.o
touch_screen_prompt                               /home/leon/git/swp-report/iMX6_Platform_SDK/output/mx6sdl/obds/smart_device_rev_a/obj/apps/obds/src/tests/touch_screen.o
touch_screen_test                                 /home/leon/git/swp-report/iMX6_Platform_SDK/output/mx6sdl/obds/smart_device_rev_a/obj/apps/obds/src/tests/touch_screen.o
uart1_iomux_config                                /home/leon/git/swp-report/iMX6_Platform_SDK/output/mx6sdl/lib/libboard_smart_device_rev_a.a(uart1_iomux_config.o)
                                                  /home/leon/git/swp-report/iMX6_Platform_SDK/output/mx6sdl/lib/libboard_smart_device_rev_a.a(uart_iomux_config.o)
                                                  /home/leon/git/swp-report/iMX6_Platform_SDK/output/mx6sdl/lib/libboard_smart_device_rev_a.a(iomux_config.o)
uart2_iomux_config                                /home/leon/git/swp-report/iMX6_Platform_SDK/output/mx6sdl/lib/libboard_smart_device_rev_a.a(iomux_config.o)
                                                  /home/leon/git/swp-report/iMX6_Platform_SDK/output/mx6sdl/lib/libboard_smart_device_rev_a.a(uart_iomux_config.o)
                                                  /home/leon/git/swp-report/iMX6_Platform_SDK/output/mx6sdl/obds/smart_device_rev_a/obj/apps/obds/src/tests/gps_test.o
uart3_iomux_config                                /home/leon/git/swp-report/iMX6_Platform_SDK/output/mx6sdl/lib/libboard_smart_device_rev_a.a(iomux_config.o)
                                                  /home/leon/git/swp-report/iMX6_Platform_SDK/output/mx6sdl/lib/libboard_smart_device_rev_a.a(uart_iomux_config.o)
uart4_iomux_config                                /home/leon/git/swp-report/iMX6_Platform_SDK/output/mx6sdl/lib/libboard_smart_device_rev_a.a(iomux_config.o)
                                                  /home/leon/git/swp-report/iMX6_Platform_SDK/output/mx6sdl/lib/libboard_smart_device_rev_a.a(uart_iomux_config.o)
uart5_iomux_config                                /home/leon/git/swp-report/iMX6_Platform_SDK/output/mx6sdl/lib/libboard_smart_device_rev_a.a(iomux_config.o)
                                                  /home/leon/git/swp-report/iMX6_Platform_SDK/output/mx6sdl/lib/libboard_smart_device_rev_a.a(uart_iomux_config.o)
uart_get_reffreq                                  /home/leon/git/swp-report/iMX6_Platform_SDK/output/mx6sdl/lib/libsdk.a(imx_uart.o)
uart_getchar                                      /home/leon/git/swp-report/iMX6_Platform_SDK/output/mx6sdl/lib/libsdk.a(imx_uart.o)
                                                  /home/leon/git/swp-report/iMX6_Platform_SDK/output/mx6sdl/lib/libsdk.a(system_util.o)
                                                  /home/leon/git/swp-report/iMX6_Platform_SDK/output/mx6sdl/obds/smart_device_rev_a/obj/sdk/drivers/uart/test/uart_test.o
                                                  /home/leon/git/swp-report/iMX6_Platform_SDK/output/mx6sdl/obds/smart_device_rev_a/obj/sdk/drivers/camera/test/csi_test_mode.o
                                                  /home/leon/git/swp-report/iMX6_Platform_SDK/output/mx6sdl/obds/smart_device_rev_a/obj/apps/common/platform_init.o
uart_init                                         /home/leon/git/swp-report/iMX6_Platform_SDK/output/mx6sdl/lib/libsdk.a(imx_uart.o)
                                                  /home/leon/git/swp-report/iMX6_Platform_SDK/output/mx6sdl/obds/smart_device_rev_a/obj/sdk/drivers/uart/test/uart_test.o
                                                  /home/leon/git/swp-report/iMX6_Platform_SDK/output/mx6sdl/obds/smart_device_rev_a/obj/apps/obds/src/tests/gps_test.o
                                                  /home/leon/git/swp-report/iMX6_Platform_SDK/output/mx6sdl/obds/smart_device_rev_a/obj/apps/common/platform_init.o
uart_interrupt_handler                            /home/leon/git/swp-report/iMX6_Platform_SDK/output/mx6sdl/obds/smart_device_rev_a/obj/sdk/drivers/uart/test/uart_test.o
uart_iomux_config                                 /home/leon/git/swp-report/iMX6_Platform_SDK/output/mx6sdl/lib/libboard_smart_device_rev_a.a(uart_iomux_config.o)
                                                  /home/leon/git/swp-report/iMX6_Platform_SDK/output/mx6sdl/lib/libsdk.a(imx_uart.o)
uart_putchar                                      /home/leon/git/swp-report/iMX6_Platform_SDK/output/mx6sdl/lib/libsdk.a(imx_uart.o)
                                                  /home/leon/git/swp-report/iMX6_Platform_SDK/output/mx6sdl/obds/smart_device_rev_a/obj/sdk/drivers/uart/test/uart_test.o
uart_set_FIFO_mode                                /home/leon/git/swp-report/iMX6_Platform_SDK/output/mx6sdl/lib/libsdk.a(imx_uart.o)
                                                  /home/leon/git/swp-report/iMX6_Platform_SDK/output/mx6sdl/obds/smart_device_rev_a/obj/sdk/drivers/uart/test/uart_test.o
uart_set_loopback_mode                            /home/leon/git/swp-report/iMX6_Platform_SDK/output/mx6sdl/lib/libsdk.a(imx_uart.o)
                                                  /home/leon/git/swp-report/iMX6_Platform_SDK/output/mx6sdl/obds/smart_device_rev_a/obj/sdk/drivers/uart/test/uart_test.o
uart_setup_interrupt                              /home/leon/git/swp-report/iMX6_Platform_SDK/output/mx6sdl/lib/libsdk.a(imx_uart.o)
                                                  /home/leon/git/swp-report/iMX6_Platform_SDK/output/mx6sdl/obds/smart_device_rev_a/obj/sdk/drivers/uart/test/uart_test.o
uart_test                                         /home/leon/git/swp-report/iMX6_Platform_SDK/output/mx6sdl/obds/smart_device_rev_a/obj/sdk/drivers/uart/test/uart_test.o
                                                  /home/leon/git/swp-report/iMX6_Platform_SDK/output/mx6sdl/obds/smart_device_rev_a/obj/apps/obds/src/obds.o
update_csc_coeffs                                 /home/leon/git/swp-report/iMX6_Platform_SDK/output/mx6sdl/lib/libsdk.a(hdmi_tx.o)
usb0_host_test                                    /home/leon/git/swp-report/iMX6_Platform_SDK/output/mx6sdl/obds/smart_device_rev_a/obj/sdk/drivers/usb/test/usb0_host_test.o
usb0_host_testmodes_test                          /home/leon/git/swp-report/iMX6_Platform_SDK/output/mx6sdl/obds/smart_device_rev_a/obj/sdk/drivers/usb/test/usb0_host_testmodes_test.o
usbDisableVbus                                    /home/leon/git/swp-report/iMX6_Platform_SDK/output/mx6sdl/lib/libboard_smart_device_rev_a.a(board_usb.o)
usbEnableClocks                                   /home/leon/git/swp-report/iMX6_Platform_SDK/output/mx6sdl/lib/libsdk.a(mx6x_usb.o)
                                                  /home/leon/git/swp-report/iMX6_Platform_SDK/output/mx6sdl/lib/libsdk.a(usbh_drv.o)
usbEnableTransceiver                              /home/leon/git/swp-report/iMX6_Platform_SDK/output/mx6sdl/lib/libsdk.a(mx6x_usb.o)
                                                  /home/leon/git/swp-report/iMX6_Platform_SDK/output/mx6sdl/lib/libsdk.a(usbh_drv.o)
usbEnableVbus                                     /home/leon/git/swp-report/iMX6_Platform_SDK/output/mx6sdl/lib/libboard_smart_device_rev_a.a(board_usb.o)
                                                  /home/leon/git/swp-report/iMX6_Platform_SDK/output/mx6sdl/lib/libsdk.a(usbh_drv.o)
usb_enum_device                                   /home/leon/git/swp-report/iMX6_Platform_SDK/output/mx6sdl/obds/smart_device_rev_a/obj/apps/obds/src/tests/usb_tests_obds.o
usb_get_port_speed                                /home/leon/git/swp-report/iMX6_Platform_SDK/output/mx6sdl/lib/libsdk.a(usb_common.o)
                                                  /home/leon/git/swp-report/iMX6_Platform_SDK/output/mx6sdl/obds/smart_device_rev_a/obj/sdk/drivers/usb/test/usb0_host_test.o
                                                  /home/leon/git/swp-report/iMX6_Platform_SDK/output/mx6sdl/obds/smart_device_rev_a/obj/apps/obds/src/tests/usb_tests_obds.o
usb_iomux_config                                  /home/leon/git/swp-report/iMX6_Platform_SDK/output/mx6sdl/lib/libboard_smart_device_rev_a.a(iomux_config.o)
usbh_bus_reset                                    /home/leon/git/swp-report/iMX6_Platform_SDK/output/mx6sdl/lib/libsdk.a(usbh_drv.o)
                                                  /home/leon/git/swp-report/iMX6_Platform_SDK/output/mx6sdl/obds/smart_device_rev_a/obj/sdk/drivers/usb/test/usb0_host_test.o
                                                  /home/leon/git/swp-report/iMX6_Platform_SDK/output/mx6sdl/obds/smart_device_rev_a/obj/apps/obds/src/tests/usb_tests_obds.o
usbh_dev_enum_test                                /home/leon/git/swp-report/iMX6_Platform_SDK/output/mx6sdl/obds/smart_device_rev_a/obj/apps/obds/src/tests/usb_tests_obds.o
usbh_disable_Periodic_list                        /home/leon/git/swp-report/iMX6_Platform_SDK/output/mx6sdl/lib/libsdk.a(usbh_drv.o)
usbh_disable_asynchronous_schedule                /home/leon/git/swp-report/iMX6_Platform_SDK/output/mx6sdl/lib/libsdk.a(usbh_drv.o)
                                                  /home/leon/git/swp-report/iMX6_Platform_SDK/output/mx6sdl/obds/smart_device_rev_a/obj/sdk/drivers/usb/test/usb0_host_test.o
                                                  /home/leon/git/swp-report/iMX6_Platform_SDK/output/mx6sdl/obds/smart_device_rev_a/obj/apps/obds/src/tests/usb_tests_obds.o
usbh_enable_asynchronous_schedule                 /home/leon/git/swp-report/iMX6_Platform_SDK/output/mx6sdl/lib/libsdk.a(usbh_drv.o)
                                                  /home/leon/git/swp-report/iMX6_Platform_SDK/output/mx6sdl/obds/smart_device_rev_a/obj/sdk/drivers/usb/test/usb0_host_test.o
                                                  /home/leon/git/swp-report/iMX6_Platform_SDK/output/mx6sdl/obds/smart_device_rev_a/obj/apps/obds/src/tests/usb_tests_obds.o
usbh_get_config_desc                              /home/leon/git/swp-report/iMX6_Platform_SDK/output/mx6sdl/obds/smart_device_rev_a/obj/sdk/drivers/usb/test/usb0_host_test.o
usbh_get_dev_desc                                 /home/leon/git/swp-report/iMX6_Platform_SDK/output/mx6sdl/obds/smart_device_rev_a/obj/sdk/drivers/usb/test/usb0_host_test.o
                                                  /home/leon/git/swp-report/iMX6_Platform_SDK/output/mx6sdl/obds/smart_device_rev_a/obj/apps/obds/src/tests/usb_tests_obds.o
usbh_get_interface_desc                           /home/leon/git/swp-report/iMX6_Platform_SDK/output/mx6sdl/obds/smart_device_rev_a/obj/sdk/drivers/usb/test/usb0_host_test.o
usbh_get_report_desc                              /home/leon/git/swp-report/iMX6_Platform_SDK/output/mx6sdl/obds/smart_device_rev_a/obj/sdk/drivers/usb/test/usb0_host_test.o
usbh_init                                         /home/leon/git/swp-report/iMX6_Platform_SDK/output/mx6sdl/lib/libsdk.a(usbh_drv.o)
                                                  /home/leon/git/swp-report/iMX6_Platform_SDK/output/mx6sdl/obds/smart_device_rev_a/obj/sdk/drivers/usb/test/usb0_host_testmodes_test.o
                                                  /home/leon/git/swp-report/iMX6_Platform_SDK/output/mx6sdl/obds/smart_device_rev_a/obj/sdk/drivers/usb/test/usb0_host_test.o
                                                  /home/leon/git/swp-report/iMX6_Platform_SDK/output/mx6sdl/obds/smart_device_rev_a/obj/apps/obds/src/tests/usb_tests_obds.o
usbh_periodic_schedule_init                       /home/leon/git/swp-report/iMX6_Platform_SDK/output/mx6sdl/lib/libsdk.a(usbh_drv.o)
                                                  /home/leon/git/swp-report/iMX6_Platform_SDK/output/mx6sdl/obds/smart_device_rev_a/obj/sdk/drivers/usb/test/usb0_host_test.o
usbh_qh_init                                      /home/leon/git/swp-report/iMX6_Platform_SDK/output/mx6sdl/lib/libsdk.a(usbh_drv.o)
                                                  /home/leon/git/swp-report/iMX6_Platform_SDK/output/mx6sdl/obds/smart_device_rev_a/obj/sdk/drivers/usb/test/usb0_host_test.o
                                                  /home/leon/git/swp-report/iMX6_Platform_SDK/output/mx6sdl/obds/smart_device_rev_a/obj/apps/obds/src/tests/usb_tests_obds.o
usbh_qtd_init                                     /home/leon/git/swp-report/iMX6_Platform_SDK/output/mx6sdl/lib/libsdk.a(usbh_drv.o)
                                                  /home/leon/git/swp-report/iMX6_Platform_SDK/output/mx6sdl/obds/smart_device_rev_a/obj/sdk/drivers/usb/test/usb0_host_test.o
usbh_set_configuration                            /home/leon/git/swp-report/iMX6_Platform_SDK/output/mx6sdl/obds/smart_device_rev_a/obj/sdk/drivers/usb/test/usb0_host_test.o
usbh_set_device_address                           /home/leon/git/swp-report/iMX6_Platform_SDK/output/mx6sdl/obds/smart_device_rev_a/obj/sdk/drivers/usb/test/usb0_host_test.o
usbo_dev_enum_test                                /home/leon/git/swp-report/iMX6_Platform_SDK/output/mx6sdl/obds/smart_device_rev_a/obj/apps/obds/src/tests/usb_tests_obds.o
                                                  /home/leon/git/swp-report/iMX6_Platform_SDK/output/mx6sdl/obds/smart_device_rev_a/obj/apps/obds/src/obds.o
usdhc1_iomux_config                               /home/leon/git/swp-report/iMX6_Platform_SDK/output/mx6sdl/lib/libboard_smart_device_rev_a.a(iomux_config.o)
                                                  /home/leon/git/swp-report/iMX6_Platform_SDK/output/mx6sdl/lib/libboard_smart_device_rev_a.a(usdhc_iomux_config.o)
usdhc1_isr                                        /home/leon/git/swp-report/iMX6_Platform_SDK/output/mx6sdl/lib/libsdk.a(usdhc_host.o)
                                                  /home/leon/git/swp-report/iMX6_Platform_SDK/output/mx6sdl/lib/libsdk.a(usdhc.o)
usdhc2_iomux_config                               /home/leon/git/swp-report/iMX6_Platform_SDK/output/mx6sdl/lib/libboard_smart_device_rev_a.a(usdhc2_iomux_config.o)
                                                  /home/leon/git/swp-report/iMX6_Platform_SDK/output/mx6sdl/lib/libboard_smart_device_rev_a.a(usdhc_iomux_config.o)
                                                  /home/leon/git/swp-report/iMX6_Platform_SDK/output/mx6sdl/lib/libboard_smart_device_rev_a.a(iomux_config.o)
usdhc2_isr                                        /home/leon/git/swp-report/iMX6_Platform_SDK/output/mx6sdl/lib/libsdk.a(usdhc_host.o)
                                                  /home/leon/git/swp-report/iMX6_Platform_SDK/output/mx6sdl/lib/libsdk.a(usdhc.o)
usdhc3_iomux_config                               /home/leon/git/swp-report/iMX6_Platform_SDK/output/mx6sdl/lib/libboard_smart_device_rev_a.a(usdhc3_iomux_config.o)
                                                  /home/leon/git/swp-report/iMX6_Platform_SDK/output/mx6sdl/lib/libboard_smart_device_rev_a.a(usdhc_iomux_config.o)
                                                  /home/leon/git/swp-report/iMX6_Platform_SDK/output/mx6sdl/lib/libboard_smart_device_rev_a.a(iomux_config.o)
usdhc3_isr                                        /home/leon/git/swp-report/iMX6_Platform_SDK/output/mx6sdl/lib/libsdk.a(usdhc_host.o)
                                                  /home/leon/git/swp-report/iMX6_Platform_SDK/output/mx6sdl/lib/libsdk.a(usdhc.o)
usdhc4_iomux_config                               /home/leon/git/swp-report/iMX6_Platform_SDK/output/mx6sdl/lib/libboard_smart_device_rev_a.a(usdhc4_iomux_config.o)
                                                  /home/leon/git/swp-report/iMX6_Platform_SDK/output/mx6sdl/lib/libboard_smart_device_rev_a.a(usdhc_iomux_config.o)
                                                  /home/leon/git/swp-report/iMX6_Platform_SDK/output/mx6sdl/lib/libboard_smart_device_rev_a.a(iomux_config.o)
usdhc4_isr                                        /home/leon/git/swp-report/iMX6_Platform_SDK/output/mx6sdl/lib/libsdk.a(usdhc_host.o)
                                                  /home/leon/git/swp-report/iMX6_Platform_SDK/output/mx6sdl/lib/libsdk.a(usdhc.o)
usdhc_card_detected                               /home/leon/git/swp-report/iMX6_Platform_SDK/output/mx6sdl/lib/libboard_smart_device_rev_a.a(board_usdhc.o)
                                                  /home/leon/git/swp-report/iMX6_Platform_SDK/output/mx6sdl/lib/libsdk.a(usdhc.o)
                                                  /home/leon/git/swp-report/iMX6_Platform_SDK/output/mx6sdl/obds/smart_device_rev_a/obj/apps/obds/src/tests/mmcsd_test.o
usdhc_device                                      /home/leon/git/swp-report/iMX6_Platform_SDK/output/mx6sdl/lib/libsdk.a(usdhc.o)
                                                  /home/leon/git/swp-report/iMX6_Platform_SDK/output/mx6sdl/lib/libsdk.a(usdhc_sd.o)
                                                  /home/leon/git/swp-report/iMX6_Platform_SDK/output/mx6sdl/lib/libsdk.a(usdhc_mmc.o)
                                                  /home/leon/git/swp-report/iMX6_Platform_SDK/output/mx6sdl/lib/libsdk.a(usdhc_host.o)
usdhc_gpio_config                                 /home/leon/git/swp-report/iMX6_Platform_SDK/output/mx6sdl/lib/libboard_smart_device_rev_a.a(board_usdhc.o)
                                                  /home/leon/git/swp-report/iMX6_Platform_SDK/output/mx6sdl/lib/libsdk.a(usdhc_host.o)
usdhc_iomux_config                                /home/leon/git/swp-report/iMX6_Platform_SDK/output/mx6sdl/lib/libboard_smart_device_rev_a.a(usdhc_iomux_config.o)
                                                  /home/leon/git/swp-report/iMX6_Platform_SDK/output/mx6sdl/lib/libsdk.a(usdhc_host.o)
usdhc_test                                        /home/leon/git/swp-report/iMX6_Platform_SDK/output/mx6sdl/obds/smart_device_rev_a/obj/sdk/drivers/usdhc/test/usdhc_test.o
usdhc_write_protected                             /home/leon/git/swp-report/iMX6_Platform_SDK/output/mx6sdl/lib/libboard_smart_device_rev_a.a(board_usdhc.o)
                                                  /home/leon/git/swp-report/iMX6_Platform_SDK/output/mx6sdl/lib/libsdk.a(usdhc.o)
                                                  /home/leon/git/swp-report/iMX6_Platform_SDK/output/mx6sdl/obds/smart_device_rev_a/obj/apps/obds/src/tests/mmcsd_test.o
vectors                                           /home/leon/git/swp-report/iMX6_Platform_SDK/output/mx6sdl/lib/libsdk.a(vectors.o)
                                                  /home/leon/git/swp-report/iMX6_Platform_SDK/output/mx6sdl/lib/libsdk.a(startup.o)
vfiprintf                                         /home/src/arm/target/bin/../arm-none-eabi/lib//libc.a(lib_a-vfiprintf.o)
vfprintf                                          /home/src/arm/target/bin/../arm-none-eabi/lib//libc.a(lib_a-vfprintf.o)
vprintf                                           /home/src/arm/target/bin/../arm-none-eabi/lib//libc.a(lib_a-vprintf.o)
                                                  /home/leon/git/swp-report/iMX6_Platform_SDK/output/mx6sdl/lib/libsdk.a(imx_i2c.o)
                                                  /home/leon/git/swp-report/iMX6_Platform_SDK/output/mx6sdl/lib/libsdk.a(gpio.o)
                                                  /home/leon/git/swp-report/iMX6_Platform_SDK/output/mx6sdl/lib/libsdk.a(sgtl5000.o)
                                                  /home/leon/git/swp-report/iMX6_Platform_SDK/output/mx6sdl/lib/libsdk.a(text_color.o)
                                                  /home/leon/git/swp-report/iMX6_Platform_SDK/output/mx6sdl/obds/smart_device_rev_a/obj/apps/obds/src/tests/program_mac_address.o
                                                  /home/leon/git/swp-report/iMX6_Platform_SDK/output/mx6sdl/obds/smart_device_rev_a/obj/apps/obds/src/tests/program_board_id.o
                                                  /home/leon/git/swp-report/iMX6_Platform_SDK/output/mx6sdl/obds/smart_device_rev_a/obj/apps/obds/src/tests/enet_mx6dldq_test.o
                                                  /home/leon/git/swp-report/iMX6_Platform_SDK/output/mx6sdl/obds/smart_device_rev_a/obj/apps/obds/src/obds.o
wait_convertion_done                              /home/leon/git/swp-report/iMX6_Platform_SDK/output/mx6sdl/obds/smart_device_rev_a/obj/apps/obds/src/tests/i2c_device_temp_sensor_emc1046.o
wav_data                                          /home/leon/git/swp-report/iMX6_Platform_SDK/output/mx6sdl/obds/smart_device_rev_a/obj/apps/obds/src/tests/audio_ssi_test.o
wcrtomb                                           /home/src/arm/target/bin/../arm-none-eabi/lib//libc.a(lib_a-wcrtomb.o)
wdog1_iomux_config                                /home/leon/git/swp-report/iMX6_Platform_SDK/output/mx6sdl/lib/libboard_smart_device_rev_a.a(iomux_config.o)
wdog2_iomux_config                                /home/leon/git/swp-report/iMX6_Platform_SDK/output/mx6sdl/lib/libboard_smart_device_rev_a.a(iomux_config.o)
weim_nor_flash_cs_setup                           /home/leon/git/swp-report/iMX6_Platform_SDK/output/mx6sdl/obds/smart_device_rev_a/obj/apps/obds/src/tests/weim_nor_flash_test.o
wm8958                                            /home/leon/git/swp-report/iMX6_Platform_SDK/output/mx6sdl/lib/libsdk.a(wm8958_dac.o)
                                                  /home/leon/git/swp-report/iMX6_Platform_SDK/output/mx6sdl/obds/smart_device_rev_a/obj/sdk/drivers/audio/src/snd_card.o
wm8958_i2c_req                                    /home/leon/git/swp-report/iMX6_Platform_SDK/output/mx6sdl/lib/libsdk.a(wm8958_dac.o)
wm8958_ops                                        /home/leon/git/swp-report/iMX6_Platform_SDK/output/mx6sdl/lib/libsdk.a(wm8958_dac.o)
wm8962                                            /home/leon/git/swp-report/iMX6_Platform_SDK/output/mx6sdl/lib/libsdk.a(wm8962.o)
                                                  /home/leon/git/swp-report/iMX6_Platform_SDK/output/mx6sdl/obds/smart_device_rev_a/obj/sdk/drivers/audio/src/snd_card.o
wm8962_i2c_req                                    /home/leon/git/swp-report/iMX6_Platform_SDK/output/mx6sdl/lib/libsdk.a(wm8962.o)
wm8962_ops                                        /home/leon/git/swp-report/iMX6_Platform_SDK/output/mx6sdl/lib/libsdk.a(wm8962.o)
write_protect_test_en                             /home/leon/git/swp-report/iMX6_Platform_SDK/output/mx6sdl/lib/libsdk.a(usdhc.o)
                                                  /home/leon/git/swp-report/iMX6_Platform_SDK/output/mx6sdl/obds/smart_device_rev_a/obj/apps/obds/src/tests/mmcsd_test.o
wv_data                                           /home/leon/git/swp-report/iMX6_Platform_SDK/output/mx6sdl/lib/libsdk.a(mxc_epdc.o)
xtalosc_iomux_config                              /home/leon/git/swp-report/iMX6_Platform_SDK/output/mx6sdl/lib/libboard_smart_device_rev_a.a(iomux_config.o)
