Archive member included because of file (symbol)

/home/leon/git/swp-report/iMX6_Platform_SDK/output/mx6sdl/lib/libsdk.a(max7310.o)
                              /home/leon/git/swp-report/iMX6_Platform_SDK/output/mx6sdl/obds/smart_device_rev_a/obj/apps/obds/src/tests/fm_tuner_si476x_test.o (max7310_set_gpio_output)
/home/leon/git/swp-report/iMX6_Platform_SDK/output/mx6sdl/lib/libsdk.a(ccm_pll.o)
                              /home/leon/git/swp-report/iMX6_Platform_SDK/output/mx6sdl/obds/smart_device_rev_a/obj/apps/common/platform_init.o (ccm_init)
/home/leon/git/swp-report/iMX6_Platform_SDK/output/mx6sdl/lib/libsdk.a(cortexA9.o)
                              /home/leon/git/swp-report/iMX6_Platform_SDK/output/mx6sdl/obds/smart_device_rev_a/obj/apps/common/platform_init.o (arm_set_interrupt_state)
/home/leon/git/swp-report/iMX6_Platform_SDK/output/mx6sdl/lib/libsdk.a(gic.o)
                              /home/leon/git/swp-report/iMX6_Platform_SDK/output/mx6sdl/obds/smart_device_rev_a/obj/apps/common/platform_init.o (gic_init)
/home/leon/git/swp-report/iMX6_Platform_SDK/output/mx6sdl/lib/libsdk.a(interrupt.o)
                              /home/leon/git/swp-report/iMX6_Platform_SDK/output/mx6sdl/obds/smart_device_rev_a/obj/sdk/drivers/hdmi/test/hdmi_test.o (disable_interrupt)
/home/leon/git/swp-report/iMX6_Platform_SDK/output/mx6sdl/lib/libsdk.a(mmu.o)
                              /home/leon/git/swp-report/iMX6_Platform_SDK/output/mx6sdl/obds/smart_device_rev_a/obj/apps/common/platform_init.o (mmu_init)
/home/leon/git/swp-report/iMX6_Platform_SDK/output/mx6sdl/lib/libsdk.a(startup.o)
                              (_start)
/home/leon/git/swp-report/iMX6_Platform_SDK/output/mx6sdl/lib/libsdk.a(vectors.o)
                              /home/leon/git/swp-report/iMX6_Platform_SDK/output/mx6sdl/lib/libsdk.a(startup.o) (vectors)
/home/leon/git/swp-report/iMX6_Platform_SDK/output/mx6sdl/lib/libsdk.a(menu.o)
                              /home/leon/git/swp-report/iMX6_Platform_SDK/output/mx6sdl/obds/smart_device_rev_a/obj/apps/obds/src/obds.o (menu_get_indent)
/home/leon/git/swp-report/iMX6_Platform_SDK/output/mx6sdl/lib/libsdk.a(sdk_version.o)
                              /home/leon/git/swp-report/iMX6_Platform_SDK/output/mx6sdl/obds/smart_device_rev_a/obj/apps/common/print_version.o (k_sdk_version)
/home/leon/git/swp-report/iMX6_Platform_SDK/output/mx6sdl/lib/libsdk.a(system_util.o)
                              /home/leon/git/swp-report/iMX6_Platform_SDK/output/mx6sdl/lib/libsdk.a(startup.o) (_sys_exit)
/home/leon/git/swp-report/iMX6_Platform_SDK/output/mx6sdl/lib/libsdk.a(text_color.o)
                              /home/leon/git/swp-report/iMX6_Platform_SDK/output/mx6sdl/obds/smart_device_rev_a/obj/apps/obds/src/obds.o (g_TextAttributeDefault)
/home/leon/git/swp-report/iMX6_Platform_SDK/output/mx6sdl/lib/libsdk.a(cs42888.o)
                              /home/leon/git/swp-report/iMX6_Platform_SDK/output/mx6sdl/obds/smart_device_rev_a/obj/apps/obds/src/tests/i2c_device_check_cs42888.o (cs42888_init)
/home/leon/git/swp-report/iMX6_Platform_SDK/output/mx6sdl/lib/libsdk.a(imx-ssi.o)
                              /home/leon/git/swp-report/iMX6_Platform_SDK/output/mx6sdl/obds/smart_device_rev_a/obj/sdk/drivers/audio/src/snd_card.o (imx_ssi_2)
/home/leon/git/swp-report/iMX6_Platform_SDK/output/mx6sdl/lib/libsdk.a(imx_audmux.o)
                              /home/leon/git/swp-report/iMX6_Platform_SDK/output/mx6sdl/obds/smart_device_rev_a/obj/apps/obds/src/tests/audio_ssi_test.o (audmux_route)
/home/leon/git/swp-report/iMX6_Platform_SDK/output/mx6sdl/lib/libsdk.a(imx_esai.o)
                              /home/leon/git/swp-report/iMX6_Platform_SDK/output/mx6sdl/obds/smart_device_rev_a/obj/sdk/drivers/audio/src/snd_card.o (imx_esai_1)
/home/leon/git/swp-report/iMX6_Platform_SDK/output/mx6sdl/lib/libsdk.a(imx_spdif.o)
                              /home/leon/git/swp-report/iMX6_Platform_SDK/output/mx6sdl/obds/smart_device_rev_a/obj/sdk/drivers/audio/src/snd_card.o (imx_spdif)
/home/leon/git/swp-report/iMX6_Platform_SDK/output/mx6sdl/lib/libsdk.a(sgtl5000.o)
                              /home/leon/git/swp-report/iMX6_Platform_SDK/output/mx6sdl/obds/smart_device_rev_a/obj/sdk/drivers/audio/src/snd_card.o (sgtl5000)
/home/leon/git/swp-report/iMX6_Platform_SDK/output/mx6sdl/lib/libsdk.a(wm8958_dac.o)
                              /home/leon/git/swp-report/iMX6_Platform_SDK/output/mx6sdl/obds/smart_device_rev_a/obj/sdk/drivers/audio/src/snd_card.o (wm8958)
/home/leon/git/swp-report/iMX6_Platform_SDK/output/mx6sdl/lib/libsdk.a(wm8962.o)
                              /home/leon/git/swp-report/iMX6_Platform_SDK/output/mx6sdl/obds/smart_device_rev_a/obj/sdk/drivers/audio/src/snd_card.o (wm8962)
/home/leon/git/swp-report/iMX6_Platform_SDK/output/mx6sdl/lib/libsdk.a(board_id.o)
                              /home/leon/git/swp-report/iMX6_Platform_SDK/output/mx6sdl/obds/smart_device_rev_a/obj/apps/common/print_version.o (chip_name)
/home/leon/git/swp-report/iMX6_Platform_SDK/output/mx6sdl/lib/libsdk.a(smd_sensor.o)
                              /home/leon/git/swp-report/iMX6_Platform_SDK/output/mx6sdl/obds/smart_device_rev_a/obj/sdk/drivers/camera/test/sensor_capture.o (sensor_config)
/home/leon/git/swp-report/iMX6_Platform_SDK/output/mx6sdl/lib/libsdk.a(enet_drv.o)
                              /home/leon/git/swp-report/iMX6_Platform_SDK/output/mx6sdl/obds/smart_device_rev_a/obj/apps/obds/src/tests/enet_mx6dldq_test.o (imx_enet_phy_init)
/home/leon/git/swp-report/iMX6_Platform_SDK/output/mx6sdl/lib/libsdk.a(mxc_epdc.o)
                              /home/leon/git/swp-report/iMX6_Platform_SDK/output/mx6sdl/obds/smart_device_rev_a/obj/sdk/drivers/epdc/test/epdc_test.o (epdc_reset)
/home/leon/git/swp-report/iMX6_Platform_SDK/output/mx6sdl/lib/libsdk.a(gpio.o)
                              /home/leon/git/swp-report/iMX6_Platform_SDK/output/mx6sdl/obds/smart_device_rev_a/obj/apps/obds/src/tests/i2c_device_id_check_mma8451.o (gpio_set_gpio)
/home/leon/git/swp-report/iMX6_Platform_SDK/output/mx6sdl/lib/libsdk.a(imx6sdl_gpio_map.o)
                              /home/leon/git/swp-report/iMX6_Platform_SDK/output/mx6sdl/lib/libsdk.a(gpio.o) (k_gpio_mux_registers)
/home/leon/git/swp-report/iMX6_Platform_SDK/output/mx6sdl/lib/libsdk.a(hdmi_tx.o)
                              /home/leon/git/swp-report/iMX6_Platform_SDK/output/mx6sdl/obds/smart_device_rev_a/obj/apps/obds/src/tests/display_test.o (hdmi_config_input_source)
/home/leon/git/swp-report/iMX6_Platform_SDK/output/mx6sdl/lib/libsdk.a(hdmi_tx_audio.o)
                              /home/leon/git/swp-report/iMX6_Platform_SDK/output/mx6sdl/obds/smart_device_rev_a/obj/apps/obds/src/tests/display_test.o (hdmi_audio_mute)
/home/leon/git/swp-report/iMX6_Platform_SDK/output/mx6sdl/lib/libsdk.a(hdmi_tx_phy.o)
                              /home/leon/git/swp-report/iMX6_Platform_SDK/output/mx6sdl/obds/smart_device_rev_a/obj/apps/obds/src/tests/display_test.o (hdmi_phy_init)
/home/leon/git/swp-report/iMX6_Platform_SDK/output/mx6sdl/lib/libsdk.a(imx_i2c.o)
                              /home/leon/git/swp-report/iMX6_Platform_SDK/output/mx6sdl/obds/smart_device_rev_a/obj/apps/obds/src/tests/fm_tuner_si476x_test.o (i2c_xfer)
/home/leon/git/swp-report/iMX6_Platform_SDK/output/mx6sdl/lib/libsdk.a(ips_disp_panel.o)
                              /home/leon/git/swp-report/iMX6_Platform_SDK/output/mx6sdl/obds/smart_device_rev_a/obj/apps/obds/src/tests/display_test.o (search_panel)
/home/leon/git/swp-report/iMX6_Platform_SDK/output/mx6sdl/lib/libsdk.a(ipu_common.o)
                              /home/leon/git/swp-report/iMX6_Platform_SDK/output/mx6sdl/obds/smart_device_rev_a/obj/apps/obds/src/tests/display_test.o (ipu_enable_display)
/home/leon/git/swp-report/iMX6_Platform_SDK/output/mx6sdl/lib/libsdk.a(ipu_csi.o)
                              /home/leon/git/swp-report/iMX6_Platform_SDK/output/mx6sdl/lib/libsdk.a(ipu_common.o) (ipu_csi_config)
/home/leon/git/swp-report/iMX6_Platform_SDK/output/mx6sdl/lib/libsdk.a(ipu_dc.o)
                              /home/leon/git/swp-report/iMX6_Platform_SDK/output/mx6sdl/lib/libsdk.a(ipu_common.o) (ipu_dc_config)
/home/leon/git/swp-report/iMX6_Platform_SDK/output/mx6sdl/lib/libsdk.a(ipu_di.o)
                              /home/leon/git/swp-report/iMX6_Platform_SDK/output/mx6sdl/lib/libsdk.a(ipu_common.o) (ipu_di_config)
/home/leon/git/swp-report/iMX6_Platform_SDK/output/mx6sdl/lib/libsdk.a(ipu_dmfc.o)
                              /home/leon/git/swp-report/iMX6_Platform_SDK/output/mx6sdl/lib/libsdk.a(ipu_common.o) (ipu_dmfc_config)
/home/leon/git/swp-report/iMX6_Platform_SDK/output/mx6sdl/lib/libsdk.a(ipu_dp.o)
                              /home/leon/git/swp-report/iMX6_Platform_SDK/output/mx6sdl/lib/libsdk.a(ipu_common.o) (ipu_dp_config)
/home/leon/git/swp-report/iMX6_Platform_SDK/output/mx6sdl/lib/libsdk.a(ipu_idmac.o)
                              /home/leon/git/swp-report/iMX6_Platform_SDK/output/mx6sdl/lib/libsdk.a(ipu_common.o) (ipu_cpmem_set_field)
/home/leon/git/swp-report/iMX6_Platform_SDK/output/mx6sdl/lib/libsdk.a(ipu_vdi.o)
                              /home/leon/git/swp-report/iMX6_Platform_SDK/output/mx6sdl/lib/libsdk.a(ipu_common.o) (ips_deinterlace_proc)
/home/leon/git/swp-report/iMX6_Platform_SDK/output/mx6sdl/lib/libsdk.a(ldb.o)
                              /home/leon/git/swp-report/iMX6_Platform_SDK/output/mx6sdl/lib/libsdk.a(ips_disp_panel.o) (ldb_config)
/home/leon/git/swp-report/iMX6_Platform_SDK/output/mx6sdl/lib/libsdk.a(ocotp.o)
                              /home/leon/git/swp-report/iMX6_Platform_SDK/output/mx6sdl/obds/smart_device_rev_a/obj/apps/obds/src/tests/program_board_id.o (ocotp_sense_fuse)
/home/leon/git/swp-report/iMX6_Platform_SDK/output/mx6sdl/lib/libsdk.a(ecspi.o)
                              /home/leon/git/swp-report/iMX6_Platform_SDK/output/mx6sdl/obds/smart_device_rev_a/obj/apps/obds/src/tests/imx_spi_nor_test.o (ecspi_open)
/home/leon/git/swp-report/iMX6_Platform_SDK/output/mx6sdl/lib/libsdk.a(timer.o)
                              /home/leon/git/swp-report/iMX6_Platform_SDK/output/mx6sdl/obds/smart_device_rev_a/obj/apps/obds/src/tests/enet_mx6dldq_test.o (hal_delay_us)
/home/leon/git/swp-report/iMX6_Platform_SDK/output/mx6sdl/lib/libsdk.a(imx_uart.o)
                              /home/leon/git/swp-report/iMX6_Platform_SDK/output/mx6sdl/obds/smart_device_rev_a/obj/sdk/drivers/uart/test/uart_test.o (uart_putchar)
/home/leon/git/swp-report/iMX6_Platform_SDK/output/mx6sdl/lib/libsdk.a(usb_common.o)
                              /home/leon/git/swp-report/iMX6_Platform_SDK/output/mx6sdl/obds/smart_device_rev_a/obj/apps/obds/src/tests/usb_tests_obds.o (usb_get_port_speed)
/home/leon/git/swp-report/iMX6_Platform_SDK/output/mx6sdl/lib/libsdk.a(usbh_drv.o)
                              /home/leon/git/swp-report/iMX6_Platform_SDK/output/mx6sdl/obds/smart_device_rev_a/obj/apps/obds/src/tests/usb_tests_obds.o (usbh_init)
/home/leon/git/swp-report/iMX6_Platform_SDK/output/mx6sdl/lib/libsdk.a(usdhc.o)
                              /home/leon/git/swp-report/iMX6_Platform_SDK/output/mx6sdl/obds/smart_device_rev_a/obj/apps/obds/src/tests/mmcsd_test.o (card_detect_test_en)
/home/leon/git/swp-report/iMX6_Platform_SDK/output/mx6sdl/lib/libsdk.a(usdhc_host.o)
                              /home/leon/git/swp-report/iMX6_Platform_SDK/output/mx6sdl/lib/libsdk.a(usdhc.o) (usdhc1_isr)
/home/leon/git/swp-report/iMX6_Platform_SDK/output/mx6sdl/lib/libsdk.a(usdhc_mmc.o)
                              /home/leon/git/swp-report/iMX6_Platform_SDK/output/mx6sdl/lib/libsdk.a(usdhc.o) (mmc_init)
/home/leon/git/swp-report/iMX6_Platform_SDK/output/mx6sdl/lib/libsdk.a(usdhc_sd.o)
                              /home/leon/git/swp-report/iMX6_Platform_SDK/output/mx6sdl/lib/libsdk.a(usdhc.o) (sd_init)
/home/leon/git/swp-report/iMX6_Platform_SDK/output/mx6sdl/lib/libsdk.a(arm_abort.o)
                              /home/leon/git/swp-report/iMX6_Platform_SDK/output/mx6sdl/lib/libsdk.a(vectors.o) (data_abort_handler)
/home/leon/git/swp-report/iMX6_Platform_SDK/output/mx6sdl/lib/libsdk.a(armv7_cache.o)
                              /home/leon/git/swp-report/iMX6_Platform_SDK/output/mx6sdl/lib/libsdk.a(usdhc.o) (arm_dcache_state_query)
/home/leon/git/swp-report/iMX6_Platform_SDK/output/mx6sdl/lib/libsdk.a(camera_profile.o)
                              /home/leon/git/swp-report/iMX6_Platform_SDK/output/mx6sdl/lib/libsdk.a(smd_sensor.o) (g_camera_profiles)
/home/leon/git/swp-report/iMX6_Platform_SDK/output/mx6sdl/lib/libsdk.a(hdmi_common.o)
                              /home/leon/git/swp-report/iMX6_Platform_SDK/output/mx6sdl/lib/libsdk.a(hdmi_tx.o) (isColorSpaceConversion)
/home/leon/git/swp-report/iMX6_Platform_SDK/output/mx6sdl/lib/libsdk.a(ipu_ic.o)
                              /home/leon/git/swp-report/iMX6_Platform_SDK/output/mx6sdl/lib/libsdk.a(ipu_vdi.o) (ipu_ic_enable)
/home/leon/git/swp-report/iMX6_Platform_SDK/output/mx6sdl/lib/libsdk.a(epit.o)
                              /home/leon/git/swp-report/iMX6_Platform_SDK/output/mx6sdl/lib/libsdk.a(timer.o) (epit_get_compare_event)
/home/leon/git/swp-report/iMX6_Platform_SDK/output/mx6sdl/lib/libsdk.a(mx6x_usb.o)
                              /home/leon/git/swp-report/iMX6_Platform_SDK/output/mx6sdl/lib/libsdk.a(usbh_drv.o) (usbEnableClocks)
/home/leon/git/swp-report/iMX6_Platform_SDK/output/mx6sdl/lib/libsdk.a(abort_handler.o)
                              /home/leon/git/swp-report/iMX6_Platform_SDK/output/mx6sdl/lib/libsdk.a(arm_abort.o) (dump_regs)
/home/leon/git/swp-report/iMX6_Platform_SDK/output/mx6sdl/lib/libboard_smart_device_rev_a.a(board_audio.o)
                              /home/leon/git/swp-report/iMX6_Platform_SDK/output/mx6sdl/lib/libsdk.a(sgtl5000.o) (SGTL5000PowerUp_and_clockinit)
/home/leon/git/swp-report/iMX6_Platform_SDK/output/mx6sdl/lib/libboard_smart_device_rev_a.a(board_buttons.o)
                              /home/leon/git/swp-report/iMX6_Platform_SDK/output/mx6sdl/obds/smart_device_rev_a/obj/apps/obds/src/tests/android_buttons_test.o (android_buttons_iomux_config)
/home/leon/git/swp-report/iMX6_Platform_SDK/output/mx6sdl/lib/libboard_smart_device_rev_a.a(board_camera.o)
                              /home/leon/git/swp-report/iMX6_Platform_SDK/output/mx6sdl/lib/libsdk.a(smd_sensor.o) (g_camera_i2c_port)
/home/leon/git/swp-report/iMX6_Platform_SDK/output/mx6sdl/lib/libboard_smart_device_rev_a.a(board_display.o)
                              /home/leon/git/swp-report/iMX6_Platform_SDK/output/mx6sdl/lib/libsdk.a(ips_disp_panel.o) (lvds_power_on)
/home/leon/git/swp-report/iMX6_Platform_SDK/output/mx6sdl/lib/libboard_smart_device_rev_a.a(board_hdmi.o)
                              /home/leon/git/swp-report/iMX6_Platform_SDK/output/mx6sdl/lib/libsdk.a(ips_disp_panel.o) (hdmi_pgm_iomux)
/home/leon/git/swp-report/iMX6_Platform_SDK/output/mx6sdl/lib/libboard_smart_device_rev_a.a(board_i2c.o)
                              /home/leon/git/swp-report/iMX6_Platform_SDK/output/mx6sdl/lib/libsdk.a(wm8958_dac.o) (g_wm8958_i2c_device)
/home/leon/git/swp-report/iMX6_Platform_SDK/output/mx6sdl/lib/libboard_smart_device_rev_a.a(board_io_expanders.o)
                              /home/leon/git/swp-report/iMX6_Platform_SDK/output/mx6sdl/lib/libsdk.a(max7310.o) (max7310_i2c_req_array)
/home/leon/git/swp-report/iMX6_Platform_SDK/output/mx6sdl/lib/libboard_smart_device_rev_a.a(board_mipi.o)
                              /home/leon/git/swp-report/iMX6_Platform_SDK/output/mx6sdl/lib/libsdk.a(ips_disp_panel.o) (mipi_backlight_en)
/home/leon/git/swp-report/iMX6_Platform_SDK/output/mx6sdl/lib/libboard_smart_device_rev_a.a(board_network.o)
                              /home/leon/git/swp-report/iMX6_Platform_SDK/output/mx6sdl/obds/smart_device_rev_a/obj/apps/obds/src/tests/enet_mx6dldq_test.o (imx_KSZ9021RN_reset)
/home/leon/git/swp-report/iMX6_Platform_SDK/output/mx6sdl/lib/libboard_smart_device_rev_a.a(board_usb.o)
                              /home/leon/git/swp-report/iMX6_Platform_SDK/output/mx6sdl/lib/libsdk.a(usbh_drv.o) (usbEnableVbus)
/home/leon/git/swp-report/iMX6_Platform_SDK/output/mx6sdl/lib/libboard_smart_device_rev_a.a(board_usdhc.o)
                              /home/leon/git/swp-report/iMX6_Platform_SDK/output/mx6sdl/lib/libsdk.a(usdhc_host.o) (usdhc_gpio_config)
/home/leon/git/swp-report/iMX6_Platform_SDK/output/mx6sdl/lib/libboard_smart_device_rev_a.a(hardware_modules.o)
                              /home/leon/git/swp-report/iMX6_Platform_SDK/output/mx6sdl/obds/smart_device_rev_a/obj/apps/common/platform_init.o (g_debug_uart_port)
/home/leon/git/swp-report/iMX6_Platform_SDK/output/mx6sdl/lib/libboard_smart_device_rev_a.a(dcd.o)
                              /home/leon/git/swp-report/iMX6_Platform_SDK/output/mx6sdl/obds/smart_device_rev_a/obj/apps/common/ivt.o (input_dcd_hdr)
/home/leon/git/swp-report/iMX6_Platform_SDK/output/mx6sdl/lib/libboard_smart_device_rev_a.a(audmux_iomux_config.o)
                              /home/leon/git/swp-report/iMX6_Platform_SDK/output/mx6sdl/lib/libsdk.a(imx-ssi.o) (audmux_iomux_config)
/home/leon/git/swp-report/iMX6_Platform_SDK/output/mx6sdl/lib/libboard_smart_device_rev_a.a(ccm_iomux_config.o)
                              /home/leon/git/swp-report/iMX6_Platform_SDK/output/mx6sdl/lib/libboard_smart_device_rev_a.a(board_audio.o) (ccm_iomux_config)
/home/leon/git/swp-report/iMX6_Platform_SDK/output/mx6sdl/lib/libboard_smart_device_rev_a.a(ecspi_iomux_config.o)
                              /home/leon/git/swp-report/iMX6_Platform_SDK/output/mx6sdl/lib/libsdk.a(ecspi.o) (ecspi_iomux_config)
/home/leon/git/swp-report/iMX6_Platform_SDK/output/mx6sdl/lib/libboard_smart_device_rev_a.a(enet_iomux_config.o)
                              /home/leon/git/swp-report/iMX6_Platform_SDK/output/mx6sdl/lib/libboard_smart_device_rev_a.a(board_network.o) (enet_iomux_config)
/home/leon/git/swp-report/iMX6_Platform_SDK/output/mx6sdl/lib/libboard_smart_device_rev_a.a(epdc_iomux_config.o)
                              /home/leon/git/swp-report/iMX6_Platform_SDK/output/mx6sdl/obds/smart_device_rev_a/obj/sdk/drivers/epdc/test/epdc_test.o (epdc_iomux_config)
/home/leon/git/swp-report/iMX6_Platform_SDK/output/mx6sdl/lib/libboard_smart_device_rev_a.a(i2c_iomux_config.o)
                              /home/leon/git/swp-report/iMX6_Platform_SDK/output/mx6sdl/lib/libsdk.a(imx_i2c.o) (i2c_iomux_config)
/home/leon/git/swp-report/iMX6_Platform_SDK/output/mx6sdl/lib/libboard_smart_device_rev_a.a(iomux_config.o)
                              /home/leon/git/swp-report/iMX6_Platform_SDK/output/mx6sdl/lib/libboard_smart_device_rev_a.a(ecspi_iomux_config.o) (ecspi2_iomux_config)
/home/leon/git/swp-report/iMX6_Platform_SDK/output/mx6sdl/lib/libboard_smart_device_rev_a.a(ipu1_iomux_config.o)
                              /home/leon/git/swp-report/iMX6_Platform_SDK/output/mx6sdl/obds/smart_device_rev_a/obj/sdk/drivers/camera/test/csi_test_mode.o (ipu1_iomux_config)
/home/leon/git/swp-report/iMX6_Platform_SDK/output/mx6sdl/lib/libboard_smart_device_rev_a.a(ipu_iomux_config.o)
                              /home/leon/git/swp-report/iMX6_Platform_SDK/output/mx6sdl/obds/smart_device_rev_a/obj/apps/obds/src/tests/display_test.o (ipu_iomux_config)
/home/leon/git/swp-report/iMX6_Platform_SDK/output/mx6sdl/lib/libboard_smart_device_rev_a.a(kpp_iomux_config.o)
                              /home/leon/git/swp-report/iMX6_Platform_SDK/output/mx6sdl/lib/libboard_smart_device_rev_a.a(iomux_config.o) (kpp_iomux_config)
/home/leon/git/swp-report/iMX6_Platform_SDK/output/mx6sdl/lib/libboard_smart_device_rev_a.a(mmdc_iomux_config.o)
                              /home/leon/git/swp-report/iMX6_Platform_SDK/output/mx6sdl/lib/libboard_smart_device_rev_a.a(iomux_config.o) (mmdc_iomux_config)
/home/leon/git/swp-report/iMX6_Platform_SDK/output/mx6sdl/lib/libboard_smart_device_rev_a.a(pwm1_iomux_config.o)
                              /home/leon/git/swp-report/iMX6_Platform_SDK/output/mx6sdl/lib/libboard_smart_device_rev_a.a(iomux_config.o) (pwm1_iomux_config)
/home/leon/git/swp-report/iMX6_Platform_SDK/output/mx6sdl/lib/libboard_smart_device_rev_a.a(sjc_iomux_config.o)
                              /home/leon/git/swp-report/iMX6_Platform_SDK/output/mx6sdl/lib/libboard_smart_device_rev_a.a(iomux_config.o) (sjc_iomux_config)
/home/leon/git/swp-report/iMX6_Platform_SDK/output/mx6sdl/lib/libboard_smart_device_rev_a.a(uart1_iomux_config.o)
                              /home/leon/git/swp-report/iMX6_Platform_SDK/output/mx6sdl/lib/libboard_smart_device_rev_a.a(iomux_config.o) (uart1_iomux_config)
/home/leon/git/swp-report/iMX6_Platform_SDK/output/mx6sdl/lib/libboard_smart_device_rev_a.a(uart_iomux_config.o)
                              /home/leon/git/swp-report/iMX6_Platform_SDK/output/mx6sdl/lib/libsdk.a(imx_uart.o) (uart_iomux_config)
/home/leon/git/swp-report/iMX6_Platform_SDK/output/mx6sdl/lib/libboard_smart_device_rev_a.a(usdhc2_iomux_config.o)
                              /home/leon/git/swp-report/iMX6_Platform_SDK/output/mx6sdl/lib/libboard_smart_device_rev_a.a(iomux_config.o) (usdhc2_iomux_config)
/home/leon/git/swp-report/iMX6_Platform_SDK/output/mx6sdl/lib/libboard_smart_device_rev_a.a(usdhc3_iomux_config.o)
                              /home/leon/git/swp-report/iMX6_Platform_SDK/output/mx6sdl/lib/libboard_smart_device_rev_a.a(iomux_config.o) (usdhc3_iomux_config)
/home/leon/git/swp-report/iMX6_Platform_SDK/output/mx6sdl/lib/libboard_smart_device_rev_a.a(usdhc4_iomux_config.o)
                              /home/leon/git/swp-report/iMX6_Platform_SDK/output/mx6sdl/lib/libboard_smart_device_rev_a.a(iomux_config.o) (usdhc4_iomux_config)
/home/leon/git/swp-report/iMX6_Platform_SDK/output/mx6sdl/lib/libboard_smart_device_rev_a.a(usdhc_iomux_config.o)
                              /home/leon/git/swp-report/iMX6_Platform_SDK/output/mx6sdl/lib/libsdk.a(usdhc_host.o) (usdhc_iomux_config)
/home/leon/git/swp-report/iMX6_Platform_SDK/output/mx6sdl/lib/libboard_smart_device_rev_a.a(ecspi1_iomux_config.o)
                              /home/leon/git/swp-report/iMX6_Platform_SDK/output/mx6sdl/lib/libboard_smart_device_rev_a.a(ecspi_iomux_config.o) (ecspi1_iomux_config)
/home/leon/git/swp-report/iMX6_Platform_SDK/output/mx6sdl/lib/libboard_smart_device_rev_a.a(flexcan1_iomux_config.o)
                              /home/leon/git/swp-report/iMX6_Platform_SDK/output/mx6sdl/lib/libboard_smart_device_rev_a.a(iomux_config.o) (flexcan1_iomux_config)
/home/leon/git/swp-report/iMX6_Platform_SDK/output/mx6sdl/lib/libboard_smart_device_rev_a.a(gpio1_iomux_config.o)
                              /home/leon/git/swp-report/iMX6_Platform_SDK/output/mx6sdl/lib/libboard_smart_device_rev_a.a(iomux_config.o) (gpio1_iomux_config)
/home/leon/git/swp-report/iMX6_Platform_SDK/output/mx6sdl/lib/libboard_smart_device_rev_a.a(gpio2_iomux_config.o)
                              /home/leon/git/swp-report/iMX6_Platform_SDK/output/mx6sdl/lib/libboard_smart_device_rev_a.a(iomux_config.o) (gpio2_iomux_config)
/home/leon/git/swp-report/iMX6_Platform_SDK/output/mx6sdl/lib/libboard_smart_device_rev_a.a(gpio3_iomux_config.o)
                              /home/leon/git/swp-report/iMX6_Platform_SDK/output/mx6sdl/lib/libboard_smart_device_rev_a.a(iomux_config.o) (gpio3_iomux_config)
/home/leon/git/swp-report/iMX6_Platform_SDK/output/mx6sdl/lib/libboard_smart_device_rev_a.a(gpio4_iomux_config.o)
                              /home/leon/git/swp-report/iMX6_Platform_SDK/output/mx6sdl/lib/libboard_smart_device_rev_a.a(iomux_config.o) (gpio4_iomux_config)
/home/leon/git/swp-report/iMX6_Platform_SDK/output/mx6sdl/lib/libboard_smart_device_rev_a.a(gpio5_iomux_config.o)
                              /home/leon/git/swp-report/iMX6_Platform_SDK/output/mx6sdl/lib/libboard_smart_device_rev_a.a(iomux_config.o) (gpio5_iomux_config)
/home/leon/git/swp-report/iMX6_Platform_SDK/output/mx6sdl/lib/libboard_smart_device_rev_a.a(gpio6_iomux_config.o)
                              /home/leon/git/swp-report/iMX6_Platform_SDK/output/mx6sdl/lib/libboard_smart_device_rev_a.a(iomux_config.o) (gpio6_iomux_config)
/home/leon/git/swp-report/iMX6_Platform_SDK/output/mx6sdl/lib/libboard_smart_device_rev_a.a(gpio7_iomux_config.o)
                              /home/leon/git/swp-report/iMX6_Platform_SDK/output/mx6sdl/lib/libboard_smart_device_rev_a.a(iomux_config.o) (gpio7_iomux_config)
/home/leon/git/swp-report/iMX6_Platform_SDK/output/mx6sdl/lib/libboard_smart_device_rev_a.a(gps_iomux_config.o)
                              /home/leon/git/swp-report/iMX6_Platform_SDK/output/mx6sdl/lib/libboard_smart_device_rev_a.a(iomux_config.o) (gps_iomux_config)
/home/leon/git/swp-report/iMX6_Platform_SDK/output/mx6sdl/lib/libboard_smart_device_rev_a.a(i2c1_iomux_config.o)
                              /home/leon/git/swp-report/iMX6_Platform_SDK/output/mx6sdl/lib/libboard_smart_device_rev_a.a(i2c_iomux_config.o) (i2c1_iomux_config)
/home/leon/git/swp-report/iMX6_Platform_SDK/output/mx6sdl/lib/libboard_smart_device_rev_a.a(i2c2_iomux_config.o)
                              /home/leon/git/swp-report/iMX6_Platform_SDK/output/mx6sdl/lib/libboard_smart_device_rev_a.a(i2c_iomux_config.o) (i2c2_iomux_config)
/home/leon/git/swp-report/iMX6_Platform_SDK/output/mx6sdl/lib/libboard_smart_device_rev_a.a(i2c3_iomux_config.o)
                              /home/leon/git/swp-report/iMX6_Platform_SDK/output/mx6sdl/lib/libboard_smart_device_rev_a.a(i2c_iomux_config.o) (i2c3_iomux_config)
/home/leon/riotboard/arm-2012.09/bin/../arm-none-eabi/lib//libc.a(lib_a-assert.o)
                              /home/leon/git/swp-report/iMX6_Platform_SDK/output/mx6sdl/lib/libsdk.a(gic.o) (__assert_func)
/home/leon/riotboard/arm-2012.09/bin/../arm-none-eabi/lib//libc.a(lib_a-bzero.o)
                              /home/leon/git/swp-report/iMX6_Platform_SDK/output/mx6sdl/lib/libsdk.a(mmu.o) (bzero)
/home/leon/riotboard/arm-2012.09/bin/../arm-none-eabi/lib//libc.a(lib_a-fiprintf.o)
                              /home/leon/riotboard/arm-2012.09/bin/../arm-none-eabi/lib//libc.a(lib_a-assert.o) (fiprintf)
/home/leon/riotboard/arm-2012.09/bin/../arm-none-eabi/lib//libc.a(lib_a-fputc.o)
                              /home/leon/git/swp-report/iMX6_Platform_SDK/output/mx6sdl/obds/smart_device_rev_a/obj/apps/obds/src/tests/program_mac_address.o (fputc)
/home/leon/riotboard/arm-2012.09/bin/../arm-none-eabi/lib//libc.a(lib_a-impure.o)
                              /home/leon/git/swp-report/iMX6_Platform_SDK/output/mx6sdl/obds/smart_device_rev_a/obj/apps/obds/src/tests/android_buttons_test.o (_impure_ptr)
/home/leon/riotboard/arm-2012.09/bin/../arm-none-eabi/lib//libc.a(lib_a-init.o)
                              /home/leon/git/swp-report/iMX6_Platform_SDK/output/mx6sdl/lib/libsdk.a(startup.o) (__libc_init_array)
/home/leon/riotboard/arm-2012.09/bin/../arm-none-eabi/lib//libc.a(lib_a-malloc.o)
                              /home/leon/git/swp-report/iMX6_Platform_SDK/output/mx6sdl/obds/smart_device_rev_a/obj/apps/obds/src/obds.o (malloc)
/home/leon/riotboard/arm-2012.09/bin/../arm-none-eabi/lib//libc.a(lib_a-mallocr.o)
                              /home/leon/riotboard/arm-2012.09/bin/../arm-none-eabi/lib//libc.a(lib_a-malloc.o) (_malloc_r)
/home/leon/riotboard/arm-2012.09/bin/../arm-none-eabi/lib//libc.a(lib_a-memcpy.o)
                              /home/leon/git/swp-report/iMX6_Platform_SDK/output/mx6sdl/obds/smart_device_rev_a/obj/apps/obds/src/tests/audio_esai_test.o (memcpy)
/home/leon/riotboard/arm-2012.09/bin/../arm-none-eabi/lib//libc.a(lib_a-memset.o)
                              /home/leon/git/swp-report/iMX6_Platform_SDK/output/mx6sdl/obds/smart_device_rev_a/obj/apps/common/print_version.o (memset)
/home/leon/riotboard/arm-2012.09/bin/../arm-none-eabi/lib//libc.a(lib_a-mlock.o)
                              /home/leon/riotboard/arm-2012.09/bin/../arm-none-eabi/lib//libc.a(lib_a-mallocr.o) (__malloc_lock)
/home/leon/riotboard/arm-2012.09/bin/../arm-none-eabi/lib//libc.a(lib_a-printf.o)
                              /home/leon/git/swp-report/iMX6_Platform_SDK/output/mx6sdl/obds/smart_device_rev_a/obj/apps/common/print_clock_info.o (printf)
/home/leon/riotboard/arm-2012.09/bin/../arm-none-eabi/lib//libc.a(lib_a-putc.o)
                              /home/leon/riotboard/arm-2012.09/bin/../arm-none-eabi/lib//libc.a(lib_a-fputc.o) (_putc_r)
/home/leon/riotboard/arm-2012.09/bin/../arm-none-eabi/lib//libc.a(lib_a-realloc.o)
                              /home/leon/git/swp-report/iMX6_Platform_SDK/output/mx6sdl/lib/libsdk.a(system_util.o) (realloc)
/home/leon/riotboard/arm-2012.09/bin/../arm-none-eabi/lib//libc.a(lib_a-reallocr.o)
                              /home/leon/riotboard/arm-2012.09/bin/../arm-none-eabi/lib//libc.a(lib_a-realloc.o) (_realloc_r)
/home/leon/riotboard/arm-2012.09/bin/../arm-none-eabi/lib//libc.a(lib_a-rget.o)
                              /home/leon/git/swp-report/iMX6_Platform_SDK/output/mx6sdl/obds/smart_device_rev_a/obj/apps/obds/src/tests/android_buttons_test.o (__srget_r)
/home/leon/riotboard/arm-2012.09/bin/../arm-none-eabi/lib//libc.a(lib_a-sbrkr.o)
                              /home/leon/riotboard/arm-2012.09/bin/../arm-none-eabi/lib//libc.a(lib_a-mallocr.o) (_sbrk_r)
/home/leon/riotboard/arm-2012.09/bin/../arm-none-eabi/lib//libc.a(lib_a-sprintf.o)
                              /home/leon/git/swp-report/iMX6_Platform_SDK/output/mx6sdl/obds/smart_device_rev_a/obj/apps/obds/src/obds.o (sprintf)
/home/leon/riotboard/arm-2012.09/bin/../arm-none-eabi/lib//libc.a(lib_a-strcat.o)
                              /home/leon/git/swp-report/iMX6_Platform_SDK/output/mx6sdl/obds/smart_device_rev_a/obj/apps/obds/src/obds.o (strcat)
/home/leon/riotboard/arm-2012.09/bin/../arm-none-eabi/lib//libc.a(lib_a-strcmp.o)
                              /home/leon/git/swp-report/iMX6_Platform_SDK/output/mx6sdl/obds/smart_device_rev_a/obj/apps/obds/src/obds.o (strcmp)
/home/leon/riotboard/arm-2012.09/bin/../arm-none-eabi/lib//libc.a(lib_a-strcpy.o)
                              /home/leon/git/swp-report/iMX6_Platform_SDK/output/mx6sdl/obds/smart_device_rev_a/obj/apps/obds/src/obds.o (strcpy)
/home/leon/riotboard/arm-2012.09/bin/../arm-none-eabi/lib//libc.a(lib_a-strlen.o)
                              /home/leon/git/swp-report/iMX6_Platform_SDK/output/mx6sdl/lib/libsdk.a(menu.o) (strlen)
/home/leon/riotboard/arm-2012.09/bin/../arm-none-eabi/lib//libc.a(lib_a-strncasecmp.o)
                              /home/leon/git/swp-report/iMX6_Platform_SDK/output/mx6sdl/lib/libsdk.a(menu.o) (strncasecmp)
/home/leon/riotboard/arm-2012.09/bin/../arm-none-eabi/lib//libc.a(lib_a-strtok.o)
                              /home/leon/git/swp-report/iMX6_Platform_SDK/output/mx6sdl/obds/smart_device_rev_a/obj/apps/obds/src/obds.o (strtok)
/home/leon/riotboard/arm-2012.09/bin/../arm-none-eabi/lib//libc.a(lib_a-strtok_r.o)
                              /home/leon/riotboard/arm-2012.09/bin/../arm-none-eabi/lib//libc.a(lib_a-strtok.o) (__strtok_r)
/home/leon/riotboard/arm-2012.09/bin/../arm-none-eabi/lib//libc.a(lib_a-svfprintf.o)
                              /home/leon/riotboard/arm-2012.09/bin/../arm-none-eabi/lib//libc.a(lib_a-sprintf.o) (_svfprintf_r)
/home/leon/riotboard/arm-2012.09/bin/../arm-none-eabi/lib//libc.a(lib_a-vfiprintf.o)
                              /home/leon/riotboard/arm-2012.09/bin/../arm-none-eabi/lib//libc.a(lib_a-fiprintf.o) (_vfiprintf_r)
/home/leon/riotboard/arm-2012.09/bin/../arm-none-eabi/lib//libc.a(lib_a-vfprintf.o)
                              /home/leon/riotboard/arm-2012.09/bin/../arm-none-eabi/lib//libc.a(lib_a-printf.o) (_vfprintf_r)
/home/leon/riotboard/arm-2012.09/bin/../arm-none-eabi/lib//libc.a(lib_a-vprintf.o)
                              /home/leon/git/swp-report/iMX6_Platform_SDK/output/mx6sdl/obds/smart_device_rev_a/obj/apps/obds/src/obds.o (vprintf)
/home/leon/riotboard/arm-2012.09/bin/../arm-none-eabi/lib//libc.a(lib_a-wbuf.o)
                              /home/leon/riotboard/arm-2012.09/bin/../arm-none-eabi/lib//libc.a(lib_a-putc.o) (__swbuf_r)
/home/leon/riotboard/arm-2012.09/bin/../arm-none-eabi/lib//libc.a(lib_a-wsetup.o)
                              /home/leon/riotboard/arm-2012.09/bin/../arm-none-eabi/lib//libc.a(lib_a-vfiprintf.o) (__swsetup_r)
/home/leon/riotboard/arm-2012.09/bin/../arm-none-eabi/lib//libc.a(lib_a-abort.o)
                              /home/leon/riotboard/arm-2012.09/bin/../arm-none-eabi/lib//libc.a(lib_a-assert.o) (abort)
/home/leon/riotboard/arm-2012.09/bin/../arm-none-eabi/lib//libc.a(lib_a-ctype_.o)
                              /home/leon/riotboard/arm-2012.09/bin/../arm-none-eabi/lib//libc.a(lib_a-strncasecmp.o) (__ctype_ptr__)
/home/leon/riotboard/arm-2012.09/bin/../arm-none-eabi/lib//libc.a(lib_a-dtoa.o)
                              /home/leon/riotboard/arm-2012.09/bin/../arm-none-eabi/lib//libc.a(lib_a-svfprintf.o) (_dtoa_r)
/home/leon/riotboard/arm-2012.09/bin/../arm-none-eabi/lib//libc.a(lib_a-fflush.o)
                              /home/leon/riotboard/arm-2012.09/bin/../arm-none-eabi/lib//libc.a(lib_a-vfiprintf.o) (_fflush_r)
/home/leon/riotboard/arm-2012.09/bin/../arm-none-eabi/lib//libc.a(lib_a-findfp.o)
                              /home/leon/riotboard/arm-2012.09/bin/../arm-none-eabi/lib//libc.a(lib_a-fputc.o) (__sinit)
/home/leon/riotboard/arm-2012.09/bin/../arm-none-eabi/lib//libc.a(lib_a-fputwc.o)
                              /home/leon/riotboard/arm-2012.09/bin/../arm-none-eabi/lib//libc.a(lib_a-vfiprintf.o) (_fputwc_r)
/home/leon/riotboard/arm-2012.09/bin/../arm-none-eabi/lib//libc.a(lib_a-freer.o)
                              /home/leon/riotboard/arm-2012.09/bin/../arm-none-eabi/lib//libc.a(lib_a-malloc.o) (_free_r)
/home/leon/riotboard/arm-2012.09/bin/../arm-none-eabi/lib//libc.a(lib_a-fvwrite.o)
                              /home/leon/riotboard/arm-2012.09/bin/../arm-none-eabi/lib//libc.a(lib_a-vfiprintf.o) (__sfvwrite_r)
/home/leon/riotboard/arm-2012.09/bin/../arm-none-eabi/lib//libc.a(lib_a-fwalk.o)
                              /home/leon/riotboard/arm-2012.09/bin/../arm-none-eabi/lib//libc.a(lib_a-findfp.o) (_fwalk)
/home/leon/riotboard/arm-2012.09/bin/../arm-none-eabi/lib//libc.a(lib_a-locale.o)
                              /home/leon/riotboard/arm-2012.09/bin/../arm-none-eabi/lib//libc.a(lib_a-fputwc.o) (__locale_mb_cur_max)
/home/leon/riotboard/arm-2012.09/bin/../arm-none-eabi/lib//libc.a(lib_a-makebuf.o)
                              /home/leon/riotboard/arm-2012.09/bin/../arm-none-eabi/lib//libc.a(lib_a-wsetup.o) (__smakebuf_r)
/home/leon/riotboard/arm-2012.09/bin/../arm-none-eabi/lib//libc.a(lib_a-memchr.o)
                              /home/leon/riotboard/arm-2012.09/bin/../arm-none-eabi/lib//libc.a(lib_a-svfprintf.o) (memchr)
/home/leon/riotboard/arm-2012.09/bin/../arm-none-eabi/lib//libc.a(lib_a-memmove.o)
                              /home/leon/riotboard/arm-2012.09/bin/../arm-none-eabi/lib//libc.a(lib_a-reallocr.o) (memmove)
/home/leon/riotboard/arm-2012.09/bin/../arm-none-eabi/lib//libc.a(lib_a-mprec.o)
                              /home/leon/riotboard/arm-2012.09/bin/../arm-none-eabi/lib//libc.a(lib_a-dtoa.o) (_Balloc)
/home/leon/riotboard/arm-2012.09/bin/../arm-none-eabi/lib//libc.a(lib_a-reent.o)
                              /home/leon/riotboard/arm-2012.09/bin/../arm-none-eabi/lib//libc.a(lib_a-sbrkr.o) (errno)
/home/leon/riotboard/arm-2012.09/bin/../arm-none-eabi/lib//libc.a(lib_a-refill.o)
                              /home/leon/riotboard/arm-2012.09/bin/../arm-none-eabi/lib//libc.a(lib_a-rget.o) (__srefill_r)
/home/leon/riotboard/arm-2012.09/bin/../arm-none-eabi/lib//libc.a(lib_a-s_fpclassify.o)
                              /home/leon/riotboard/arm-2012.09/bin/../arm-none-eabi/lib//libc.a(lib_a-svfprintf.o) (__fpclassifyd)
/home/leon/riotboard/arm-2012.09/bin/../arm-none-eabi/lib//libc.a(lib_a-signal.o)
                              /home/leon/riotboard/arm-2012.09/bin/../arm-none-eabi/lib//libc.a(lib_a-abort.o) (raise)
/home/leon/riotboard/arm-2012.09/bin/../arm-none-eabi/lib//libc.a(lib_a-signalr.o)
                              /home/leon/riotboard/arm-2012.09/bin/../arm-none-eabi/lib//libc.a(lib_a-signal.o) (_kill_r)
/home/leon/riotboard/arm-2012.09/bin/../arm-none-eabi/lib//libc.a(lib_a-stdio.o)
                              /home/leon/riotboard/arm-2012.09/bin/../arm-none-eabi/lib//libc.a(lib_a-findfp.o) (__sread)
/home/leon/riotboard/arm-2012.09/bin/../arm-none-eabi/lib//libc.a(lib_a-svfiprintf.o)
                              /home/leon/riotboard/arm-2012.09/bin/../arm-none-eabi/lib//libc.a(lib_a-svfprintf.o) (__ssprint_r)
/home/leon/riotboard/arm-2012.09/bin/../arm-none-eabi/lib//libc.a(lib_a-wcrtomb.o)
                              /home/leon/riotboard/arm-2012.09/bin/../arm-none-eabi/lib//libc.a(lib_a-fputwc.o) (_wcrtomb_r)
/home/leon/riotboard/arm-2012.09/bin/../arm-none-eabi/lib//libc.a(lib_a-wctomb_r.o)
                              /home/leon/riotboard/arm-2012.09/bin/../arm-none-eabi/lib//libc.a(lib_a-wcrtomb.o) (__wctomb)
/home/leon/riotboard/arm-2012.09/bin/../arm-none-eabi/lib//libc.a(lib_a-writer.o)
                              /home/leon/riotboard/arm-2012.09/bin/../arm-none-eabi/lib//libc.a(lib_a-stdio.o) (_write_r)
/home/leon/riotboard/arm-2012.09/bin/../arm-none-eabi/lib//libc.a(lib_a-callocr.o)
                              /home/leon/riotboard/arm-2012.09/bin/../arm-none-eabi/lib//libc.a(lib_a-mprec.o) (_calloc_r)
/home/leon/riotboard/arm-2012.09/bin/../arm-none-eabi/lib//libc.a(lib_a-closer.o)
                              /home/leon/riotboard/arm-2012.09/bin/../arm-none-eabi/lib//libc.a(lib_a-stdio.o) (_close_r)
/home/leon/riotboard/arm-2012.09/bin/../arm-none-eabi/lib//libc.a(lib_a-fclose.o)
                              /home/leon/riotboard/arm-2012.09/bin/../arm-none-eabi/lib//libc.a(lib_a-findfp.o) (fclose)
/home/leon/riotboard/arm-2012.09/bin/../arm-none-eabi/lib//libc.a(lib_a-fstatr.o)
                              /home/leon/riotboard/arm-2012.09/bin/../arm-none-eabi/lib//libc.a(lib_a-makebuf.o) (_fstat_r)
/home/leon/riotboard/arm-2012.09/bin/../arm-none-eabi/lib//libc.a(lib_a-isattyr.o)
                              /home/leon/riotboard/arm-2012.09/bin/../arm-none-eabi/lib//libc.a(lib_a-makebuf.o) (_isatty_r)
/home/leon/riotboard/arm-2012.09/bin/../arm-none-eabi/lib//libc.a(lib_a-lseekr.o)
                              /home/leon/riotboard/arm-2012.09/bin/../arm-none-eabi/lib//libc.a(lib_a-stdio.o) (_lseek_r)
/home/leon/riotboard/arm-2012.09/bin/../arm-none-eabi/lib//libc.a(lib_a-readr.o)
                              /home/leon/riotboard/arm-2012.09/bin/../arm-none-eabi/lib//libc.a(lib_a-stdio.o) (_read_r)
/home/leon/riotboard/arm-2012.09/bin/../lib/gcc/arm-none-eabi/4.7.2//libgcc.a(_udivsi3.o)
                              /home/leon/git/swp-report/iMX6_Platform_SDK/output/mx6sdl/obds/smart_device_rev_a/obj/sdk/drivers/spi/test/imx_spi_nor_atmel.o (__aeabi_uidiv)
/home/leon/riotboard/arm-2012.09/bin/../lib/gcc/arm-none-eabi/4.7.2//libgcc.a(_divsi3.o)
                              /home/leon/git/swp-report/iMX6_Platform_SDK/output/mx6sdl/lib/libsdk.a(ipu_common.o) (__aeabi_idiv)
/home/leon/riotboard/arm-2012.09/bin/../lib/gcc/arm-none-eabi/4.7.2//libgcc.a(_dvmd_tls.o)
                              /home/leon/riotboard/arm-2012.09/bin/../lib/gcc/arm-none-eabi/4.7.2//libgcc.a(_udivsi3.o) (__aeabi_idiv0)
/home/leon/riotboard/arm-2012.09/bin/../lib/gcc/arm-none-eabi/4.7.2//libgcc.a(_arm_addsubdf3.o)
                              /home/leon/riotboard/arm-2012.09/bin/../arm-none-eabi/lib//libc.a(lib_a-dtoa.o) (__aeabi_dsub)
/home/leon/riotboard/arm-2012.09/bin/../lib/gcc/arm-none-eabi/4.7.2//libgcc.a(_arm_muldivdf3.o)
                              /home/leon/riotboard/arm-2012.09/bin/../arm-none-eabi/lib//libc.a(lib_a-dtoa.o) (__aeabi_dmul)
/home/leon/riotboard/arm-2012.09/bin/../lib/gcc/arm-none-eabi/4.7.2//libgcc.a(_arm_cmpdf2.o)
                              /home/leon/riotboard/arm-2012.09/bin/../arm-none-eabi/lib//libc.a(lib_a-svfprintf.o) (__aeabi_dcmpeq)
/home/leon/riotboard/arm-2012.09/bin/../lib/gcc/arm-none-eabi/4.7.2//libgcc.a(_arm_fixdfsi.o)
                              /home/leon/riotboard/arm-2012.09/bin/../arm-none-eabi/lib//libc.a(lib_a-dtoa.o) (__aeabi_d2iz)
/home/leon/riotboard/arm-2012.09/bin/../lib/gcc/arm-none-eabi/4.7.2//libgcc.a(_aeabi_uldivmod.o)
                              /home/leon/git/swp-report/iMX6_Platform_SDK/output/mx6sdl/lib/libsdk.a(timer.o) (__aeabi_uldivmod)
/home/leon/riotboard/arm-2012.09/bin/../lib/gcc/arm-none-eabi/4.7.2//libgcc.a(bpabi.o)
                              /home/leon/riotboard/arm-2012.09/bin/../lib/gcc/arm-none-eabi/4.7.2//libgcc.a(_aeabi_uldivmod.o) (__gnu_uldivmod_helper)
/home/leon/riotboard/arm-2012.09/bin/../lib/gcc/arm-none-eabi/4.7.2//libgcc.a(_divdi3.o)
                              /home/leon/riotboard/arm-2012.09/bin/../lib/gcc/arm-none-eabi/4.7.2//libgcc.a(bpabi.o) (__divdi3)
/home/leon/riotboard/arm-2012.09/bin/../lib/gcc/arm-none-eabi/4.7.2//libgcc.a(_udivdi3.o)
                              /home/leon/riotboard/arm-2012.09/bin/../lib/gcc/arm-none-eabi/4.7.2//libgcc.a(bpabi.o) (__udivdi3)
/home/leon/riotboard/arm-2012.09/bin/../lib/gcc/arm-none-eabi/4.7.2//libgcc.a(_clzsi2.o)
                              /home/leon/riotboard/arm-2012.09/bin/../lib/gcc/arm-none-eabi/4.7.2//libgcc.a(_divdi3.o) (__clzsi2)
/home/leon/git/swp-report/iMX6_Platform_SDK/output/mx6sdl/lib/libsdk.a(runtime_support.o)
                              /home/leon/riotboard/arm-2012.09/bin/../arm-none-eabi/lib//libc.a(lib_a-isattyr.o) (_isatty)

Allocating common symbols
Common symbol       size              file

errno               0x4               /home/leon/riotboard/arm-2012.09/bin/../arm-none-eabi/lib//libc.a(lib_a-reent.o)

Memory Configuration

Name             Origin             Length             Attributes
OCRAM            0x00900000         0x00020000         xrw
DDR              0x10000000         0x40000000         xrw
*default*        0x00000000         0xffffffff

Linker script and memory map

LOAD /home/leon/riotboard/arm-2012.09/bin/../lib/gcc/arm-none-eabi/4.7.2//crtbegin.o
LOAD /home/leon/riotboard/arm-2012.09/bin/../lib/gcc/arm-none-eabi/4.7.2//crti.o
LOAD /home/leon/riotboard/arm-2012.09/bin/../lib/gcc/arm-none-eabi/4.7.2//crtend.o
LOAD /home/leon/riotboard/arm-2012.09/bin/../lib/gcc/arm-none-eabi/4.7.2//crtn.o

.l1_page_table  0x00900000     0x4000
                0x00900000                __l1_page_table_start = .
                0x00904000                . = (. + 0x4000)
 *fill*         0x00900000     0x4000 

.heap.ocram     0x00904000    0x1bfb8
                0x00904000                __heap_ocram_start = .
                0x0091ffb8                . = (. + 0x1bfb8)
 *fill*         0x00904000    0x1bfb8 
                0x0091ffb8                __heap_ocram_end = .

.ram_vectors    0x0091ffb8       0x48
                0x0091ffb8                __ram_vectors_start = .
                0x00920000                . = (. + 0x48)
 *fill*         0x0091ffb8       0x48 
                0x00920000                __ram_vectors_end = .
                0x10000000                _start_image_add = ORIGIN (DDR)

.ivt            0x10000000      0x420
                0x10000400                . = (. + 0x400)
 *fill*         0x10000000      0x400 
 *(.ivt)
 .ivt           0x10000400       0x20 /home/leon/git/swp-report/iMX6_Platform_SDK/output/mx6sdl/obds/smart_device_rev_a/obj/apps/common/ivt.o
                0x10000400                input_ivt

.boot_data      0x10000420        0xc
                0x10000420                __start_boot_data = .
 *(.boot_data)
 .boot_data     0x10000420        0xc /home/leon/git/swp-report/iMX6_Platform_SDK/output/mx6sdl/obds/smart_device_rev_a/obj/apps/common/ivt.o
                0x10000420                bd

.dcd_hdr        0x10000430        0x4
                0x10000430                __start_dcd = .
 *(.dcd_hdr)
 .dcd_hdr       0x10000430        0x4 /home/leon/git/swp-report/iMX6_Platform_SDK/output/mx6sdl/lib/libboard_smart_device_rev_a.a(dcd.o)
                0x10000430                input_dcd_hdr

.dcd_wrt_cmd    0x10000434        0x4
 *(.dcd_wrt_cmd)
 .dcd_wrt_cmd   0x10000434        0x4 /home/leon/git/swp-report/iMX6_Platform_SDK/output/mx6sdl/lib/libboard_smart_device_rev_a.a(dcd.o)
                0x10000434                input_dcd_wrt_cmd

.dcd_data       0x10000438      0x298
 *(.dcd_data)
 .dcd_data      0x10000438      0x298 /home/leon/git/swp-report/iMX6_Platform_SDK/output/mx6sdl/lib/libboard_smart_device_rev_a.a(dcd.o)
                0x10000438                input_dcd

.text           0x100006d0    0x5ca24
 CREATE_OBJECT_SYMBOLS
 *(.startup)
 .startup       0x100006d0      0x138 /home/leon/git/swp-report/iMX6_Platform_SDK/output/mx6sdl/lib/libsdk.a(startup.o)
                0x100006d0                _start
 *(.text .text.* .gnu.linkonce.t.*)
 .text          0x10000808      0x128 /home/leon/riotboard/arm-2012.09/bin/../lib/gcc/arm-none-eabi/4.7.2//crtbegin.o
 .text          0x10000930        0x0 /home/leon/riotboard/arm-2012.09/bin/../lib/gcc/arm-none-eabi/4.7.2//crti.o
 .text          0x10000930        0x0 /home/leon/riotboard/arm-2012.09/bin/../lib/gcc/arm-none-eabi/4.7.2//crtend.o
 .text          0x10000930        0x0 /home/leon/riotboard/arm-2012.09/bin/../lib/gcc/arm-none-eabi/4.7.2//crtn.o
 .text          0x10000930        0x0 /home/leon/git/swp-report/iMX6_Platform_SDK/output/mx6sdl/obds/smart_device_rev_a/obj/apps/common/ivt.o
 .text          0x10000930       0xbc /home/leon/git/swp-report/iMX6_Platform_SDK/output/mx6sdl/obds/smart_device_rev_a/obj/apps/common/platform_init.o
                0x10000930                platform_init
 .text          0x100009ec       0xfc /home/leon/git/swp-report/iMX6_Platform_SDK/output/mx6sdl/obds/smart_device_rev_a/obj/apps/common/print_clock_info.o
                0x100009ec                show_freq
                0x10000ad8                show_ddr_config
 .text          0x10000ae8      0x15c /home/leon/git/swp-report/iMX6_Platform_SDK/output/mx6sdl/obds/smart_device_rev_a/obj/apps/common/print_version.o
                0x10000ae8                print_version
 .text          0x10000c44     0x10bc /home/leon/git/swp-report/iMX6_Platform_SDK/output/mx6sdl/obds/smart_device_rev_a/obj/apps/obds/src/obds.o
                0x10000c44                main
                0x10000fac                free_test_results
                0x10001044                printf_hook
                0x10001210                prompt_run_test
                0x100012b4                print_test_passed
                0x10001300                print_test_skipped
                0x1000134c                print_test_failed
                0x100013a4                print_test_not_implemented
                0x100013fc                run_test
                0x10001648                report_test_results
                0x10001a10                run_all_tests
                0x10001bfc                select_tests
 .text          0x10001d00      0x770 /home/leon/git/swp-report/iMX6_Platform_SDK/output/mx6sdl/obds/smart_device_rev_a/obj/apps/obds/src/obds_utils.o
                0x10001d00                show_boot_switch_info
 .text          0x10002470      0x330 /home/leon/git/swp-report/iMX6_Platform_SDK/output/mx6sdl/obds/smart_device_rev_a/obj/apps/obds/src/tests/android_buttons_test.o
                0x10002470                configure_android_button
                0x100024d8                init_android_buttons
                0x10002528                check_android_button_status
                0x10002674                android_buttons_test
 .text          0x100027a0      0xe14 /home/leon/git/swp-report/iMX6_Platform_SDK/output/mx6sdl/obds/smart_device_rev_a/obj/apps/obds/src/tests/audio_esai_test.o
                0x100027a0                esai_test
 .text          0x100035b4      0x3fc /home/leon/git/swp-report/iMX6_Platform_SDK/output/mx6sdl/obds/smart_device_rev_a/obj/apps/obds/src/tests/audio_ssi_test.o
                0x100035b4                audio_test_init
                0x100036f0                i2s_audio_test
 .text          0x100039b0      0x610 /home/leon/git/swp-report/iMX6_Platform_SDK/output/mx6sdl/obds/smart_device_rev_a/obj/apps/obds/src/tests/ddr_test.o
                0x100039b0                get_ddr_density
                0x10003a74                ddr_test
 .text          0x10003fc0      0x2e4 /home/leon/git/swp-report/iMX6_Platform_SDK/output/mx6sdl/obds/smart_device_rev_a/obj/apps/obds/src/tests/deserializer_ds90ur124.o
                0x10003fc0                deserializer_io_config
                0x10003fd4                ds90ur124_init
                0x10004008                ds90ur124_receive_cnx_test
                0x100041cc                ds90ur124_test_main
 .text          0x100042a4      0x744 /home/leon/git/swp-report/iMX6_Platform_SDK/output/mx6sdl/obds/smart_device_rev_a/obj/apps/obds/src/tests/display_test.o
                0x100042a4                hdmi_720p_init
                0x1000483c                ipu_display_test_main
 .text          0x100049e8      0x978 /home/leon/git/swp-report/iMX6_Platform_SDK/output/mx6sdl/obds/smart_device_rev_a/obj/apps/obds/src/tests/enet_mx6dldq_test.o
                0x10004b7c                enet_test_main
                0x10004e1c                ar8031_test_main
                0x100050cc                KSZ9021RN_test_main
 .text          0x10005360       0x64 /home/leon/git/swp-report/iMX6_Platform_SDK/output/mx6sdl/obds/smart_device_rev_a/obj/apps/obds/src/tests/flexcan_test.o
                0x10005360                flexcan_test
 .text          0x100053c4      0x278 /home/leon/git/swp-report/iMX6_Platform_SDK/output/mx6sdl/obds/smart_device_rev_a/obj/apps/obds/src/tests/fm_tuner_si476x_test.o
                0x100055a8                si476x_test_main
 .text          0x1000563c      0x1d8 /home/leon/git/swp-report/iMX6_Platform_SDK/output/mx6sdl/obds/smart_device_rev_a/obj/apps/obds/src/tests/gpio_led.o
                0x1000563c                gpio_led_test
 .text          0x10005814       0xd4 /home/leon/git/swp-report/iMX6_Platform_SDK/output/mx6sdl/obds/smart_device_rev_a/obj/apps/obds/src/tests/gps_test.o
                0x10005814                gps_test
 .text          0x100058e8      0x618 /home/leon/git/swp-report/iMX6_Platform_SDK/output/mx6sdl/obds/smart_device_rev_a/obj/apps/obds/src/tests/i2c_check_light_sensor_isl29023.o
                0x10005dd0                i2c_device_id_check_isl29023
 .text          0x10005f00      0x2dc /home/leon/git/swp-report/iMX6_Platform_SDK/output/mx6sdl/obds/smart_device_rev_a/obj/apps/obds/src/tests/i2c_device_barometer_ppl3115.o
                0x100060d8                i2c_device_id_check_ppl3115
                0x10006168                i2c_device_ppl3115_test
 .text          0x100061dc       0x70 /home/leon/git/swp-report/iMX6_Platform_SDK/output/mx6sdl/obds/smart_device_rev_a/obj/apps/obds/src/tests/i2c_device_check_cs42888.o
                0x100061dc                i2c_device_check_cs42888
 .text          0x1000624c      0x1f4 /home/leon/git/swp-report/iMX6_Platform_SDK/output/mx6sdl/obds/smart_device_rev_a/obj/apps/obds/src/tests/i2c_device_digital_compass_mag3110.o
                0x1000624c                mag3110_reg_read
                0x10006360                i2c_device_id_check_mag3110
 .text          0x10006440      0x1fc /home/leon/git/swp-report/iMX6_Platform_SDK/output/mx6sdl/obds/smart_device_rev_a/obj/apps/obds/src/tests/i2c_device_digital_compass_mag3112.o
                0x10006440                mag3112_reg_read
                0x10006554                i2c_device_id_check_mag3112
 .text          0x1000663c      0x9ac /home/leon/git/swp-report/iMX6_Platform_SDK/output/mx6sdl/obds/smart_device_rev_a/obj/apps/obds/src/tests/i2c_device_id_check_mma8450.o
                0x10006814                i2c_device_id_check_MMA8450
                0x10006908                mma8450_set_config
                0x10006a10                mma8450_get_accel
                0x10006e1c                mma8450_show_accel
 .text          0x10006fe8      0x9ec /home/leon/git/swp-report/iMX6_Platform_SDK/output/mx6sdl/obds/smart_device_rev_a/obj/apps/obds/src/tests/i2c_device_id_check_mma8451.o
                0x100071c0                i2c_device_id_check_MMA8451
                0x100072e8                mma8451_set_config
                0x100073fc                mma8451_get_accel
                0x10007808                mma8451_show_accel
 .text          0x100079d4      0x89c /home/leon/git/swp-report/iMX6_Platform_SDK/output/mx6sdl/obds/smart_device_rev_a/obj/apps/obds/src/tests/i2c_device_id_check_p1003_tsc.o
                0x100079d4                p1003_version_reg_read
                0x10007b44                p1003_version_reg_write
                0x10007cc0                i2c_device_id_check_p1003
                0x10007e0c                p1003_get_touch
                0x1000806c                p1003_show_touch
 .text          0x10008270      0x730 /home/leon/git/swp-report/iMX6_Platform_SDK/output/mx6sdl/obds/smart_device_rev_a/obj/apps/obds/src/tests/i2c_device_temp_sensor_emc1046.o
                0x100087a4                wait_convertion_done
                0x10008818                i2c_device_id_check_emc1046
                0x1000892c                i2c_device_emc1046_test
 .text          0x100089a0      0x36c /home/leon/git/swp-report/iMX6_Platform_SDK/output/mx6sdl/obds/smart_device_rev_a/obj/apps/obds/src/tests/i2c_device_zigbee_mc1323.o
                0x10008be0                i2c_device_id_check_mc1323
                0x10008ca4                i2c_device_mc1323_test
 .text          0x10008d0c      0x358 /home/leon/git/swp-report/iMX6_Platform_SDK/output/mx6sdl/obds/smart_device_rev_a/obj/apps/obds/src/tests/i2c_eeprom_at24cxx_test.o
 .text          0x10009064      0x654 /home/leon/git/swp-report/iMX6_Platform_SDK/output/mx6sdl/obds/smart_device_rev_a/obj/apps/obds/src/tests/imx_spi_nor_test.o
                0x10009064                spi_nor_query
                0x100090c4                spi_nor_write
                0x1000913c                spi_nor_read
                0x100091b4                spi_nor_erase
                0x10009220                spi_nor_test
 .text          0x100096b8      0x3b4 /home/leon/git/swp-report/iMX6_Platform_SDK/output/mx6sdl/obds/smart_device_rev_a/obj/apps/obds/src/tests/mlb_os81050.o
                0x100096b8                mlb_io_config
                0x100096c8                os81050_i2c_init
                0x10009750                os81050_read_status
                0x100098ac                os81050_get_message
                0x100099cc                os81050_test_main
 .text          0x10009a6c      0x26c /home/leon/git/swp-report/iMX6_Platform_SDK/output/mx6sdl/obds/smart_device_rev_a/obj/apps/obds/src/tests/mmcsd_test.o
                0x10009a6c                mmcsd_test
 .text          0x10009cd8      0x658 /home/leon/git/swp-report/iMX6_Platform_SDK/output/mx6sdl/obds/smart_device_rev_a/obj/apps/obds/src/tests/pmic_da9053.o
                0x10009cd8                da9053_i2c_reg
                0x1000a228                i2c_device_id_check_DA9053
                0x1000a2e0                pmic_da9053_test
 .text          0x1000a330     0x138c /home/leon/git/swp-report/iMX6_Platform_SDK/output/mx6sdl/obds/smart_device_rev_a/obj/apps/obds/src/tests/pmic_lt3589.o
                0x1000a330                ltc3589_reg_read
                0x1000a428                ltc3589_reg_write
                0x1000a510                ltc3589_eval
                0x1000b0c0                ltc3589_backlight_en
                0x1000b2d4                ltc3589_camera_power_on
                0x1000b49c                sil9024_hdmi_power_on1
                0x1000b5cc                ltc3589_i2c_device_id_check
                0x1000b66c                pmic_lt3589_test
 .text          0x1000b6bc      0x2f8 /home/leon/git/swp-report/iMX6_Platform_SDK/output/mx6sdl/obds/smart_device_rev_a/obj/apps/obds/src/tests/pmic_max17135.o
                0x1000b6bc                max17135_reg_read
                0x1000b7ac                max17135_reg_write
                0x1000b904                i2c_device_id_check_MAX17135
 .text          0x1000b9b4      0x3a0 /home/leon/git/swp-report/iMX6_Platform_SDK/output/mx6sdl/obds/smart_device_rev_a/obj/apps/obds/src/tests/pmic_mc13892.o
                0x1000b9b4                mc13892_i2c_reg
                0x1000b9f4                pmic_open_vgen1
                0x1000badc                pmic_open_vusb
                0x1000bba8                pmic_open_vsd
                0x1000bcc4                device_id_check_mc13892
                0x1000bcf4                pmic_mc13892_test
 .text          0x1000bd54      0x77c /home/leon/git/swp-report/iMX6_Platform_SDK/output/mx6sdl/obds/smart_device_rev_a/obj/apps/obds/src/tests/program_board_id.o
                0x1000bd84                program_board_id_fuses
                0x1000bf84                program_board_id
 .text          0x1000c4d0      0x8cc /home/leon/git/swp-report/iMX6_Platform_SDK/output/mx6sdl/obds/smart_device_rev_a/obj/apps/obds/src/tests/program_mac_address.o
                0x1000c500                read_mac_otp_registers
                0x1000c5bc                mac_address_str
                0x1000c65c                program_mac_address_fuses
                0x1000c8d4                program_mac_address
 .text          0x1000cd9c      0x1fc /home/leon/git/swp-report/iMX6_Platform_SDK/output/mx6sdl/obds/smart_device_rev_a/obj/apps/obds/src/tests/snvs_srtc_test.o
                0x1000cd9c                snvs_srtc_test
 .text          0x1000cf98      0x65c /home/leon/git/swp-report/iMX6_Platform_SDK/output/mx6sdl/obds/smart_device_rev_a/obj/apps/obds/src/tests/touch_button_test.o
                0x1000d170                i2c_device_id_check_touch_button
                0x1000d3e4                touch_button_test
 .text          0x1000d5f4      0x6e0 /home/leon/git/swp-report/iMX6_Platform_SDK/output/mx6sdl/obds/smart_device_rev_a/obj/apps/obds/src/tests/touch_screen.o
                0x1000d5f4                DA9053_Write
                0x1000d6e0                DA9053_Read
                0x1000d7c4                touch_init
                0x1000d844                touch_get_xy_value
                0x1000d980                touch_detect
                0x1000da74                touch_screen_prompt
                0x1000db98                touch_screen_test
 .text          0x1000dcd4      0xb68 /home/leon/git/swp-report/iMX6_Platform_SDK/output/mx6sdl/obds/smart_device_rev_a/obj/apps/obds/src/tests/touch_screen_max11801.o
                0x1000e09c                max11801_ts_test
                0x1000e1f8                max11801_reg_read_single
                0x1000e30c                max11801_reg_read_multi
                0x1000e418                max11801_reg_write
                0x1000e4f4                i2c_device_check_max11801_AUX
                0x1000e614                i2c_device_check_max11801
 .text          0x1000e83c      0x524 /home/leon/git/swp-report/iMX6_Platform_SDK/output/mx6sdl/obds/smart_device_rev_a/obj/apps/obds/src/tests/usb_tests_obds.o
                0x1000e83c                usbo_dev_enum_test
                0x1000e8ac                usbh_dev_enum_test
                0x1000e91c                usb_enum_device
 .text          0x1000ed60      0x148 /home/leon/git/swp-report/iMX6_Platform_SDK/output/mx6sdl/obds/smart_device_rev_a/obj/apps/obds/src/tests/video_dec_ARD_MB_reset_button.o
                0x1000ed60                ard_mb_reset_test
 .text          0x1000eea8       0xa0 /home/leon/git/swp-report/iMX6_Platform_SDK/output/mx6sdl/obds/smart_device_rev_a/obj/apps/obds/src/tests/video_dec_ARD_MBrst_from_cpu_expander.o
                0x1000eea8                ard_mb_expander_reset_test
 .text          0x1000ef48      0x468 /home/leon/git/swp-report/iMX6_Platform_SDK/output/mx6sdl/obds/smart_device_rev_a/obj/apps/obds/src/tests/video_dec_adv7180.o
                0x1000ef48                adv7180_i2c_init_obds
                0x1000efa8                adv7180_reg_read
                0x1000f058                adv7180_reg_write
                0x1000f110                adv7180_set_tristate_output
                0x1000f12c                adv7180_i2c_device_id_check
                0x1000f188                adv7180_set_gpio_output
                0x1000f214                adv7180_test_main
 .text          0x1000f3b0      0x324 /home/leon/git/swp-report/iMX6_Platform_SDK/output/mx6sdl/obds/smart_device_rev_a/obj/apps/obds/src/tests/weim_nor_flash_test.o
                0x1000f3b0                weim_nor_flash_cs_setup
                0x1000f3fc                eim_nor_flash_test
                0x1000f46c                m29w256gl_auto_manu_id
                0x1000f554                m29w256gl_auto_dev_id
 .text          0x1000f6d4       0x4c /home/leon/git/swp-report/iMX6_Platform_SDK/output/mx6sdl/obds/smart_device_rev_a/obj/sdk/common/ioexpander/test/max7310_test.o
                0x1000f6d4                max7310_i2c_device_id_check
 .text          0x1000f720      0x478 /home/leon/git/swp-report/iMX6_Platform_SDK/output/mx6sdl/obds/smart_device_rev_a/obj/sdk/common/pmic/pfuse/pf0100.o
                0x1000f720                pf0100_reg_read
                0x1000f810                pf0100_reg_write
                0x1000f900                pf0100_enable_vgen1_1v2
                0x1000f950                pf0100_enable_vgen2_1v5
                0x1000f9a0                pf0100_enable_vgen3_1v8
                0x1000f9f0                pf0100_enable_vgen4_1v8
                0x1000fa40                pf0100_enable_vgen4_2v5
                0x1000fa90                pf0100_enable_vgen6_2v8
                0x1000fae0                pf0100_i2c_device_id_check
 .text          0x1000fb98      0x438 /home/leon/git/swp-report/iMX6_Platform_SDK/output/mx6sdl/obds/smart_device_rev_a/obj/sdk/drivers/audio/src/snd_card.o
 .text          0x1000ffd0        0x0 /home/leon/git/swp-report/iMX6_Platform_SDK/output/mx6sdl/obds/smart_device_rev_a/obj/sdk/drivers/camera/test/adv7180_capture.o
 .text          0x1000ffd0      0x204 /home/leon/git/swp-report/iMX6_Platform_SDK/output/mx6sdl/obds/smart_device_rev_a/obj/sdk/drivers/camera/test/camera_test.o
                0x1000ffd0                camera_test
 .text          0x100101d4      0x2f0 /home/leon/git/swp-report/iMX6_Platform_SDK/output/mx6sdl/obds/smart_device_rev_a/obj/sdk/drivers/camera/test/csi_test_mode.o
                0x100101d4                csi_test_mode
 .text          0x100104c4      0x2b8 /home/leon/git/swp-report/iMX6_Platform_SDK/output/mx6sdl/obds/smart_device_rev_a/obj/sdk/drivers/camera/test/sensor_capture.o
                0x100104c4                sensor_capture
 .text          0x1001077c      0x460 /home/leon/git/swp-report/iMX6_Platform_SDK/output/mx6sdl/obds/smart_device_rev_a/obj/sdk/drivers/epdc/test/epdc_test.o
                0x1001077c                epdc_test
                0x100108cc                epdc_pvi_svga_sdr_init
                0x100108ec                epdc_update_image
                0x10010a18                epdc_send_mode0_to_black_update
                0x10010ab4                epdc_send_image_update
                0x10010b44                epdc_send_erase_to_color
 .text          0x10010bdc      0x82c /home/leon/git/swp-report/iMX6_Platform_SDK/output/mx6sdl/obds/smart_device_rev_a/obj/sdk/drivers/hdmi/test/hdmi_test.o
                0x10010bdc                hdmi_test
                0x10010f48                init_hdmi_interrupt
                0x10010ff8                hdmi_tx_ISR
                0x10011088                hdmi_1080P60_video_output
                0x10011248                hdmi_720P60_video_output
 .text          0x10011408      0x540 /home/leon/git/swp-report/iMX6_Platform_SDK/output/mx6sdl/obds/smart_device_rev_a/obj/sdk/drivers/hdmi/test/init_dma_data.o
                0x10011408                init_dma_data
 .text          0x10011948      0xb98 /home/leon/git/swp-report/iMX6_Platform_SDK/output/mx6sdl/obds/smart_device_rev_a/obj/sdk/drivers/ipu/test/ips_display.o
                0x10011948                ips_display_test
                0x10011a84                ips_hdmi_stream
                0x10011be4                ips_hdmi_720P60_stream
                0x10011e48                ips_hdmi_1080P60_stream
                0x10012040                ips_ext_hdmi_transmitter_1080P60_stream
                0x10012200                ips_hannstar_xga_yuv_stream
                0x10012440                ips_mipi_wvga_rgb_stream
 .text          0x100124e0      0x538 /home/leon/git/swp-report/iMX6_Platform_SDK/output/mx6sdl/obds/smart_device_rev_a/obj/sdk/drivers/ipu/test/ipu_image.o
                0x100124e0                load_centralized_image
                0x1001261c                load_foreground_image
                0x10012668                load_horiz_image
                0x100127d8                set_background_margin
                0x100128c8                load_vert_image
 .text          0x10012a18     0x10b4 /home/leon/git/swp-report/iMX6_Platform_SDK/output/mx6sdl/obds/smart_device_rev_a/obj/sdk/drivers/spi/test/imx_spi_nor_atmel.o
                0x10012a18                spi_nor_query_atmel
                0x10012b5c                spi_nor_write_atmel
                0x1001353c                spi_nor_erase_atmel
                0x100136e0                spi_nor_read_atmel
 .text          0x10013acc      0xb00 /home/leon/git/swp-report/iMX6_Platform_SDK/output/mx6sdl/obds/smart_device_rev_a/obj/sdk/drivers/spi/test/spi_nor_numonyx.o
                0x10013da4                spi_nor_query_numonyx
                0x10013e70                spi_nor_erase_numonyx
                0x10013efc                spi_nor_read_numonyx
                0x10014144                spi_nor_write_numonyx
 .text          0x100145cc      0x24c /home/leon/git/swp-report/iMX6_Platform_SDK/output/mx6sdl/obds/smart_device_rev_a/obj/sdk/drivers/uart/test/uart_test.o
                0x100145cc                uart_interrupt_handler
                0x10014624                uart_test
 .text          0x10014818     0x39f0 /home/leon/git/swp-report/iMX6_Platform_SDK/output/mx6sdl/obds/smart_device_rev_a/obj/sdk/drivers/usb/test/usb0_host_test.o
                0x10014818                usb0_host_test
                0x1001534c                emuerateDevice
                0x100154cc                usbh_set_device_address
                0x10015bf4                usbh_get_dev_desc
                0x10016344                usbh_get_config_desc
                0x10016ad4                usbh_get_interface_desc
                0x10017344                usbh_set_configuration
                0x10017a80                usbh_get_report_desc
 .text          0x10018208      0x978 /home/leon/git/swp-report/iMX6_Platform_SDK/output/mx6sdl/obds/smart_device_rev_a/obj/sdk/drivers/usb/test/usb0_host_testmodes_test.o
                0x10018208                usb0_host_testmodes_test
 .text          0x10018b80      0xcf4 /home/leon/git/swp-report/iMX6_Platform_SDK/output/mx6sdl/obds/smart_device_rev_a/obj/sdk/drivers/usdhc/test/usdhc_test.o
                0x10018b80                mmc_sd_test
                0x10018bb4                usdhc_test
 .text          0x10019874      0x264 /home/leon/git/swp-report/iMX6_Platform_SDK/output/mx6sdl/lib/libsdk.a(max7310.o)
                0x10019874                max7310_reg_read
                0x100198d8                max7310_reg_write
                0x10019944                max7310_init
                0x10019a24                max7310_set_gpio_output
 .text          0x10019ad8      0xc64 /home/leon/git/swp-report/iMX6_Platform_SDK/output/mx6sdl/lib/libsdk.a(ccm_pll.o)
                0x10019ad8                ccm_init
                0x10019bfc                get_main_clock
                0x10019e8c                get_peri_clock
                0x1001a03c                ccm_ccgr_config
                0x1001a0a4                clock_gating_config
                0x1001a4dc                ccm_set_lpm_wakeup_source
                0x1001a5d0                ccm_enter_low_power
                0x1001a640                ipu_hsp_clk_config
                0x1001a660                gpu_clock_config
 .text          0x1001a73c      0x164 /home/leon/git/swp-report/iMX6_Platform_SDK/output/mx6sdl/lib/libsdk.a(cortexA9.o)
                0x1001a73c                arm_set_interrupt_state
                0x1001a760                cpu_get_current
                0x1001a76c                enable_neon_fpu
                0x1001a788                disable_strict_align_check
                0x1001a79c                disable_L1_cache
                0x1001a7bc                get_arm_private_peripheral_base
                0x1001a7c4                arm_unified_tlb_invalidate
                0x1001a7d4                arm_unified_tlb_invalidate_is
                0x1001a7e4                arm_branch_prediction_enable
                0x1001a7f4                arm_branch_prediction_disable
                0x1001a804                arm_branch_target_cache_invalidate
                0x1001a810                arm_branch_target_cache_invalidate_is
                0x1001a81c                scu_enable
                0x1001a830                scu_join_smp
                0x1001a840                scu_leave_smp
                0x1001a850                scu_get_cpus_in_smp
                0x1001a864                scu_enable_maintenance_broadcast
                0x1001a874                scu_disable_maintenance_broadcast
                0x1001a884                scu_secure_invalidate
 .text          0x1001a8a0      0x5e0 /home/leon/git/swp-report/iMX6_Platform_SDK/output/mx6sdl/lib/libsdk.a(gic.o)
                0x1001a984                gic_enable
                0x1001a9e4                gic_set_irq_security
                0x1001aa8c                gic_enable_irq
                0x1001ab08                gic_set_irq_priority
                0x1001ab50                gic_set_cpu_target
                0x1001ac5c                gic_send_sgi
                0x1001acb0                gic_cpu_enable
                0x1001ad10                gic_set_cpu_priority_mask
                0x1001ad44                gic_read_irq_ack
                0x1001ad70                gic_write_end_of_irq
                0x1001ada0                gic_init
                0x1001ae44                gic_init_cpu
 .text          0x1001ae80      0x1bc /home/leon/git/swp-report/iMX6_Platform_SDK/output/mx6sdl/lib/libsdk.a(interrupt.o)
                0x1001ae80                IRQ_HDLR
                0x1001af48                disable_interrupt
                0x1001af84                enable_interrupt
                0x1001afdc                register_interrupt_routine
                0x1001b010                default_interrupt_routine
 .text          0x1001b03c      0x460 /home/leon/git/swp-report/iMX6_Platform_SDK/output/mx6sdl/lib/libsdk.a(mmu.o)
                0x1001b03c                mmu_enable
                0x1001b074                mmu_disable
                0x1001b0a8                mmu_init
                0x1001b1c4                mmu_map_l1_range
                0x1001b3dc                mmu_virtual_to_physical
 .text          0x1001b49c        0x0 /home/leon/git/swp-report/iMX6_Platform_SDK/output/mx6sdl/lib/libsdk.a(startup.o)
 .text          0x1001b49c        0x4 /home/leon/git/swp-report/iMX6_Platform_SDK/output/mx6sdl/lib/libsdk.a(vectors.o)
                0x1001b49c                exception_handler
 .text.vectors  0x1001b4a0       0x48 /home/leon/git/swp-report/iMX6_Platform_SDK/output/mx6sdl/lib/libsdk.a(vectors.o)
                0x1001b4a0                vectors
 .text          0x1001b4e8      0xc78 /home/leon/git/swp-report/iMX6_Platform_SDK/output/mx6sdl/lib/libsdk.a(menu.o)
                0x1001b990                menu_get_indent
                0x1001b9ac                menuitem_cmd_showmenu
                0x1001b9d0                menuitem_cmd_exitmenu
                0x1001b9f4                menu_append_menuitems
                0x1001bb14                menu_present
                0x1001c0b0                menu_print_menuitem
 .text          0x1001c160        0x0 /home/leon/git/swp-report/iMX6_Platform_SDK/output/mx6sdl/lib/libsdk.a(sdk_version.o)
 .text          0x1001c160      0x914 /home/leon/git/swp-report/iMX6_Platform_SDK/output/mx6sdl/lib/libsdk.a(system_util.o)
                0x1001c160                _sys_exit
                0x1001c17c                mybkpt
                0x1001c184                is_input_char
                0x1001c304                read_input_string
                0x1001c5ec                get_input_hex
                0x1001c86c                read_int
                0x1001c9d0                jump_to_sdp
 .text          0x1001ca74       0xe0 /home/leon/git/swp-report/iMX6_Platform_SDK/output/mx6sdl/lib/libsdk.a(text_color.o)
                0x1001ca74                printf_color
                0x1001cb10                get_color_supported
 .text          0x1001cb54      0x408 /home/leon/git/swp-report/iMX6_Platform_SDK/output/mx6sdl/lib/libsdk.a(cs42888.o)
                0x1001cc9c                cs42888_init
                0x1001ccd4                cs42888_dev_info
                0x1001cd28                cs42888_config
                0x1001cf0c                cs42888_deinit
 .text          0x1001cf5c     0x2990 /home/leon/git/swp-report/iMX6_Platform_SDK/output/mx6sdl/lib/libsdk.a(imx-ssi.o)
                0x1001ee90                ssi_init
                0x1001eed0                ssi_config
                0x1001f3e4                ssi_write_fifo
                0x1001f5dc                ssi_read_fifo
                0x1001f79c                ssi_deinit
 .text          0x1001f8ec      0xc40 /home/leon/git/swp-report/iMX6_Platform_SDK/output/mx6sdl/lib/libsdk.a(imx_audmux.o)
                0x1001facc                audmux_port_set
                0x1001fcb8                audmux_route
 .text          0x1002052c      0xe0c /home/leon/git/swp-report/iMX6_Platform_SDK/output/mx6sdl/lib/libsdk.a(imx_esai.o)
                0x10020d84                esai_config
                0x100210ec                esai_init
                0x10021128                esai_deinit
                0x1002114c                esai_write_fifo
 .text          0x10021338      0x708 /home/leon/git/swp-report/iMX6_Platform_SDK/output/mx6sdl/lib/libsdk.a(imx_spdif.o)
                0x100216b0                spdif_init
                0x100216ec                spdif_config
                0x10021920                spdif_write_fifo
                0x10021a1c                spdif_deinit
 .text          0x10021a40     0x1100 /home/leon/git/swp-report/iMX6_Platform_SDK/output/mx6sdl/lib/libsdk.a(sgtl5000.o)
                0x1002243c                sgtl5000_init
                0x100229b0                sgtl5000_i2s_config
                0x10022b0c                sgtl5000_deinit
 .text          0x10022b40      0xeb4 /home/leon/git/swp-report/iMX6_Platform_SDK/output/mx6sdl/lib/libsdk.a(wm8958_dac.o)
                0x10022cec                WM8958_dump
                0x10023230                WM8958_DAC_configure
                0x10023960                WM8958_DAC_init
                0x100239c8                WM8958_DAC_deinit
 .text          0x100239f4      0xb7c /home/leon/git/swp-report/iMX6_Platform_SDK/output/mx6sdl/lib/libsdk.a(wm8962.o)
                0x10023cf8                WM8962_dump
                0x10023d28                WM8962_DAC_configure
                0x10024450                WM8962_DAC_init
                0x10024544                WM8962_DAC_deinit
 .text          0x10024570      0x7c4 /home/leon/git/swp-report/iMX6_Platform_SDK/output/mx6sdl/lib/libsdk.a(board_id.o)
                0x10024570                chip_name
                0x10024688                chip_revision
                0x10024760                board_name
                0x10024864                board_revision
                0x1002492c                board_description
                0x10024a4c                get_board_id
                0x10024b28                show_board_id
 .text          0x10024d34      0xa88 /home/leon/git/swp-report/iMX6_Platform_SDK/output/mx6sdl/lib/libsdk.a(smd_sensor.o)
                0x100250cc                sensor_config
                0x10025108                sensor_search
                0x10025298                sensor_init
                0x1002540c                sensor_af_trigger
                0x100254ec                sensor_autofocus_init
                0x1002566c                camera_strobeflash_on
                0x10025748                camera_strobeflash_off
 .text          0x100257bc     0x17e0 /home/leon/git/swp-report/iMX6_Platform_SDK/output/mx6sdl/lib/libsdk.a(enet_drv.o)
                0x100257bc                imx_enet_mii_read
                0x100258cc                imx_enet_mii_write
                0x10025da0                enet_phy_rework_ar8031
                0x10025f14                enet_phy_rework_ksz9021
                0x10026008                imx_enet_phy_init
                0x10026288                imx_enet_get_phy_status
                0x100265b0                imx_enet_phy_enable_external_loopback
                0x100266cc                imx_enet_poll
                0x100267c4                imx_enet_send
                0x100268dc                imx_enet_recv
                0x10026ab8                imx_enet_init
                0x10026c0c                imx_enet_start
                0x10026ca0                imx_enet_stop
                0x10026ce4                imx_enet_isolate_phy
                0x10026d88                imx_enet_unisolate_phy
                0x10026e50                imx_enet_mii_type
 .text          0x10026f9c      0xbb4 /home/leon/git/swp-report/iMX6_Platform_SDK/output/mx6sdl/lib/libsdk.a(mxc_epdc.o)
                0x100270c0                epdc_reset
                0x10027268                epdc_set_update_addr
                0x10027294                epdc_set_update_coord
                0x100272d0                epdc_set_update_dimensions
                0x1002730c                epdc_submit_update
                0x100273d0                epdc_is_lut_complete
                0x10027430                epdc_clear_lut_complete_irq
                0x10027464                epdc_is_lut_active
                0x10027500                epdc_any_luts_active
                0x10027550                epdc_any_luts_available
                0x10027594                epdc_get_next_lut
                0x100275c8                epdc_is_working_buffer_busy
                0x10027624                epdc_is_working_buffer_complete
                0x10027670                epdc_is_collision
                0x100276bc                epdc_dump_registers
                0x100277c4                epdc_set_vertical_timing
                0x10027828                epdc_init_settings
                0x10027ad0                epdc_buffer_init
                0x10027b28                epdc_load_image
 .text          0x10027b50     0x1308 /home/leon/git/swp-report/iMX6_Platform_SDK/output/mx6sdl/lib/libsdk.a(gpio.o)
                0x10027b80                gpio_get_port_count
                0x10027b98                gpio_set_gpio
                0x10027c5c                gpio_set_direction
                0x10027eb8                gpio_get_direction
                0x10028000                gpio_set_level
                0x10028340                gpio_get_level
                0x100284a0                gpio_set_interrupt_config
                0x100288a4                gpio_set_interrupt_mask
                0x10028ae8                gpio_get_interrupt_status
                0x10028c44                gpio_clear_interrupt
 .text          0x10028e58        0x0 /home/leon/git/swp-report/iMX6_Platform_SDK/output/mx6sdl/lib/libsdk.a(imx6sdl_gpio_map.o)
 .text          0x10028e58     0x1334 /home/leon/git/swp-report/iMX6_Platform_SDK/output/mx6sdl/lib/libsdk.a(hdmi_tx.o)
                0x10028e58                hdmi_config_input_source
                0x10028e98                hdmi_video_sample
                0x100290e0                update_csc_coeffs
                0x100295f4                hdmi_video_csc
                0x10029794                hdmi_video_packetize
                0x10029b60                preamble_filter_set
                0x10029c20                hdmi_av_frame_composer
                0x1002a068                hdmi_tx_hdcp_config
                0x1002a0d4                hdmi_config_force_video
                0x1002a12c                hdmi_config_forced_pixels
 .text          0x1002a18c      0xd24 /home/leon/git/swp-report/iMX6_Platform_SDK/output/mx6sdl/lib/libsdk.a(hdmi_tx_audio.o)
                0x1002a18c                hdmi_audio_mute
                0x1002a1dc                audio_PacketLayout
                0x1002a21c                audio_DMA_InterruptMask
                0x1002a24c                audio_DMA_InterruptPolarity
                0x1002a27c                audio_DMA_ResetFIFO
                0x1002a2a0                audio_clk_N
                0x1002a300                audio_clk_CTS
                0x1002a3a0                audio_ComputeN
                0x1002a6c0                audio_ComputeCTS
                0x1002a8fc                audio_DMA_StartAddr
                0x1002a974                audio_DMA_StopAddr
                0x1002a9ec                audio_DMA_LockEnable
                0x1002aa2c                audio_DMA_BurstMode
                0x1002aa6c                audio_DMA_IncrType
                0x1002aaac                audio_DMA_Threshold
                0x1002aadc                audio_DMA_SetCONF1
                0x1002ab0c                audio_DMA_Start
                0x1002ab30                audio_Configure
                0x1002abe8                Audio_ChannelCount
                0x1002acd8                audio_Configure_DMA
                0x1002ae70                audio_info_config
 .text          0x1002aeb0     0x14fc /home/leon/git/swp-report/iMX6_Platform_SDK/output/mx6sdl/lib/libsdk.a(hdmi_tx_phy.o)
                0x1002aeb0                hdmi_phy_int_mask
                0x1002c318                hdmi_phy_init
 .text          0x1002c3ac     0x1798 /home/leon/git/swp-report/iMX6_Platform_SDK/output/mx6sdl/lib/libsdk.a(imx_i2c.o)
                0x1002c3dc                i2c_get_request_instance
                0x1002ce54                i2c_xfer
                0x1002d570                i2c_read
                0x1002d5a0                i2c_write
                0x1002d5d0                i2c_setup_interrupt
                0x1002d83c                i2c_init
 .text          0x1002db44      0x474 /home/leon/git/swp-report/iMX6_Platform_SDK/output/mx6sdl/lib/libsdk.a(ips_disp_panel.o)
                0x1002ddd8                search_panel
                0x1002de98                list_panel
                0x1002df30                get_panel_by_id
 .text          0x1002dfb8      0xf90 /home/leon/git/swp-report/iMX6_Platform_SDK/output/mx6sdl/lib/libsdk.a(ipu_common.o)
                0x1002dfb8                need_csc
                0x1002e020                ipu_write_field
                0x1002e0c4                ipu_read
                0x1002e11c                ipu_write
                0x1002e170                ipu_enable_display
                0x1002e1dc                ipu_disable_display
                0x1002e25c                ipu_sw_reset
                0x1002e33c                ipu_display_setup
                0x1002e4b0                ipu_dual_display_setup
                0x1002e5b4                ipu_capture_setup
                0x1002e9f8                ipu_capture_streamoff
                0x1002eacc                ipu_mipi_csi2_setup
                0x1002ecc4                ipu1_ch0_eobnd_isr
                0x1002eea0                ipu_ch0_eobnd_interrupt_register
 .text          0x1002ef48      0xcb8 /home/leon/git/swp-report/iMX6_Platform_SDK/output/mx6sdl/lib/libsdk.a(ipu_csi.o)
                0x1002ef48                ipu_csi_config
                0x1002f58c                ipu_smfc_fifo_allocate
                0x1002f6e8                ipu_capture_disp_link
                0x1002f814                ipu_disable_csi
                0x1002f880                ipu_disable_smfc
                0x1002f8b4                ipu_csi_test_mode_color
 .text          0x1002fc00     0x1bd8 /home/leon/git/swp-report/iMX6_Platform_SDK/output/mx6sdl/lib/libsdk.a(ipu_dc.o)
                0x1002fc00                ipu_dc_config
                0x1002fef0                ipu_dc_write_channel_config
                0x100301a8                ipu_dc_display_config
                0x1003033c                ipu_dc_map
                0x100306d0                ipu_dc_microcode_config
                0x1003147c                ipu_dc_microcode_event
 .text          0x100317d8      0xfd8 /home/leon/git/swp-report/iMX6_Platform_SDK/output/mx6sdl/lib/libsdk.a(ipu_di.o)
                0x100317d8                ipu_di_config
                0x10031e08                ipu_di_waveform_config
                0x10031ed0                ipu_di_screen_set
                0x10031f64                ipu_di_pointer_config
                0x100320b4                ipu_di_bsclk_gen
                0x100321ec                ipu_di_sync_config
                0x100324f4                ipu_di_interface_set
 .text          0x100327b0      0x3e0 /home/leon/git/swp-report/iMX6_Platform_SDK/output/mx6sdl/lib/libsdk.a(ipu_dmfc.o)
                0x100327b0                ipu_dmfc_config
                0x10032a44                ipu_dmfc_alloc
 .text          0x10032b90      0x59c /home/leon/git/swp-report/iMX6_Platform_SDK/output/mx6sdl/lib/libsdk.a(ipu_dp.o)
                0x10032b90                ipu_dp_config
                0x10032be4                ipu_dp_csc_config
                0x10032f88                ipu_dp_fg_config
 .text          0x1003312c     0x2828 /home/leon/git/swp-report/iMX6_Platform_SDK/output/mx6sdl/lib/libsdk.a(ipu_idmac.o)
                0x1003312c                ipu_cpmem_set_field
                0x10033258                ipu_cpmem_mod_field
                0x100333e4                ipu_cpmem_read_field
                0x10033540                ipu_channel_buf_ready
                0x100336b8                ipu_channel_buf_not_ready
                0x10033830                ipu_idmac_channel_mode_sel
                0x100338b8                ipu_idmac_channel_enable
                0x10033940                ipu_idmac_channel_busy
                0x100339ec                ipu_general_idmac_config
                0x10033ed0                ipu_disp_bg_idmac_config
                0x10033fb8                ipu_disp_fg_idmac_config
                0x100340a0                ipu_dma_update_buffer
                0x10034194                ipu_idmac_chan_cur_buff
                0x10034228                ipu_rotate_idmac_config
                0x1003435c                ipu_resize_idmac_config
                0x10034498                ipu_deinterlace_idmac_config
                0x100345ec                ipu_idma_pixel_format_config
 .text          0x10035954      0x598 /home/leon/git/swp-report/iMX6_Platform_SDK/output/mx6sdl/lib/libsdk.a(ipu_vdi.o)
                0x10035954                ipu_deinterlace_3_fields
                0x100359a4                ipu_vdi_set_top_field_man
                0x10035a18                ipu_vdi_set_motion
                0x10035b20                ipu_vdi_init
                0x10035c64                ipu_vdi_uninit
                0x10035cac                ips_deinterlace_proc
 .text          0x10035eec      0x4ac /home/leon/git/swp-report/iMX6_Platform_SDK/output/mx6sdl/lib/libsdk.a(ldb.o)
                0x100360bc                ldb_config
                0x100362f4                ldb_set_vs_polarity
 .text          0x10036398      0x3f4 /home/leon/git/swp-report/iMX6_Platform_SDK/output/mx6sdl/lib/libsdk.a(ocotp.o)
                0x10036404                Delay4Reload
                0x10036648                ocotp_sense_fuse
                0x100366b8                ocotp_fuse_blow_row
                0x10036714                ocotp_reload_otp_shadow_registers
 .text          0x1003678c     0x132c /home/leon/git/swp-report/iMX6_Platform_SDK/output/mx6sdl/lib/libsdk.a(ecspi.o)
                0x10036d7c                ecspi_configure
                0x10037704                ecspi_open
                0x100377bc                ecspi_close
                0x100378c8                ecspi_xfer
 .text          0x10037ab8      0x290 /home/leon/git/swp-report/iMX6_Platform_SDK/output/mx6sdl/lib/libsdk.a(timer.o)
                0x10037ab8                hal_delay_us
                0x10037b28                system_time_init
                0x10037c88                time_get_microseconds
 .text          0x10037d48     0x2820 /home/leon/git/swp-report/iMX6_Platform_SDK/output/mx6sdl/lib/libsdk.a(imx_uart.o)
                0x10037d48                uart_get_reffreq
                0x10037e44                uart_putchar
                0x10037f94                uart_getchar
                0x100380f4                uart_set_FIFO_mode
                0x10038c20                uart_set_loopback_mode
                0x10038e74                uart_setup_interrupt
                0x10038f40                uart_init
 .text          0x1003a568      0x3a8 /home/leon/git/swp-report/iMX6_Platform_SDK/output/mx6sdl/lib/libsdk.a(usb_common.o)
                0x1003a568                usb_get_port_speed
                0x1003a704                swap32
                0x1003a780                get_menu_item
 .text          0x1003a910     0x37f0 /home/leon/git/swp-report/iMX6_Platform_SDK/output/mx6sdl/lib/libsdk.a(usbh_drv.o)
                0x1003a910                usbh_init
                0x1003b8a0                usbh_periodic_schedule_init
                0x1003d0f8                usbh_bus_reset
                0x1003d3fc                usbh_enable_asynchronous_schedule
                0x1003d700                usbh_disable_asynchronous_schedule
                0x1003da04                usbh_disable_Periodic_list
                0x1003dd08                usbh_qtd_init
                0x1003df30                usbh_qh_init
 .text          0x1003e100     0x11b8 /home/leon/git/swp-report/iMX6_Platform_SDK/output/mx6sdl/lib/libsdk.a(usdhc.o)
                0x1003e318                set_card_access_mode
                0x1003e358                read_usdhc_adma_mode
                0x1003e378                read_usdhc_intr_mode
                0x1003e398                card_init
                0x1003e548                card_emmc_init
                0x1003e5dc                card_cmd_config
                0x1003e6f0                card_get_cid
                0x1003e790                card_enter_trans
                0x1003e86c                card_trans_status
                0x1003e968                card_get_port
                0x1003ea50                card_set_blklen
                0x1003eb34                card_data_read
                0x1003ee20                card_data_write
                0x1003f120                card_xfer_result
                0x1003f214                card_wait_xfer_done
 .text          0x1003f2b8     0x3484 /home/leon/git/swp-report/iMX6_Platform_SDK/output/mx6sdl/lib/libsdk.a(usdhc_host.o)
                0x10040698                usdhc1_isr
                0x100406b0                usdhc2_isr
                0x100406c8                usdhc3_isr
                0x100406e0                usdhc4_isr
                0x100406f8                host_init
                0x10040728                host_init_active
                0x100407d0                host_send_cmd
                0x10040bf8                host_cfg_clock
                0x10041394                host_set_bus_width
                0x100413cc                host_reset
                0x100414fc                host_read_response
                0x100416ec                host_cfg_block
                0x10041968                host_clear_fifo
                0x10041b14                host_setup_adma
                0x10041d34                host_data_read
                0x1004223c                host_data_write
 .text          0x1004273c      0xe04 /home/leon/git/swp-report/iMX6_Platform_SDK/output/mx6sdl/lib/libsdk.a(usdhc_mmc.o)
                0x10042cdc                mmc_init
                0x10042d80                emmc_init
                0x10042eac                emmc_print_cfg_info
                0x100430e4                mmc_set_boot_bus_width
                0x100431ac                mmc_set_boot_partition
                0x100432ac                mmc_set_boot_ack
                0x10043330                mmc_voltage_validation
 .text          0x10043540      0x800 /home/leon/git/swp-report/iMX6_Platform_SDK/output/mx6sdl/lib/libsdk.a(usdhc_sd.o)
                0x100438d4                sd_init
                0x1004398c                sd_voltage_validation
 .text          0x10043d40       0x98 /home/leon/git/swp-report/iMX6_Platform_SDK/output/mx6sdl/lib/libsdk.a(arm_abort.o)
                0x10043d40                common_abort_handler
                0x10043da0                data_abort_handler
                0x10043db8                prefetch_abort_handler
 .text          0x10043dd8      0x644 /home/leon/git/swp-report/iMX6_Platform_SDK/output/mx6sdl/lib/libsdk.a(armv7_cache.o)
                0x10043dd8                arm_dcache_state_query
                0x10043e18                arm_dcache_enable
                0x10043e60                arm_dcache_disable
                0x10043e98                arm_dcache_invalidate
                0x10043f3c                arm_dcache_invalidate_line
                0x10043fa8                arm_dcache_invalidate_mlines
                0x10044048                arm_dcache_flush
                0x100440ec                arm_dcache_flush_line
                0x10044158                arm_dcache_flush_mlines
                0x100441f8                arm_icache_state_query
                0x10044238                arm_icache_enable
                0x10044280                arm_icache_disable
                0x100442b8                arm_icache_invalidate
                0x100442e4                arm_icache_invalidate_is
                0x10044310                arm_icache_invalidate_line
                0x1004437c                arm_icache_invalidate_mlines
 .text          0x1004441c        0x0 /home/leon/git/swp-report/iMX6_Platform_SDK/output/mx6sdl/lib/libsdk.a(camera_profile.o)
 .text          0x1004441c     0x1e94 /home/leon/git/swp-report/iMX6_Platform_SDK/output/mx6sdl/lib/libsdk.a(hdmi_common.o)
                0x1004441c                isColorSpaceConversion
                0x10044458                isColorSpaceDecimation
                0x10044494                isColorSpaceInterpolation
                0x100444e8                isPixelRepetition
                0x10044520                hdmi_set_video_mode
 .text          0x100462b0     0x167c /home/leon/git/swp-report/iMX6_Platform_SDK/output/mx6sdl/lib/libsdk.a(ipu_ic.o)
                0x100462b0                ipu_ic_enable
                0x100462fc                ipu_ic_rotation_config
                0x10046508                ipu_ic_resize_config
                0x10046a5c                ipu_ic_deinterlace_config
                0x10046c38                ipu_ic_calc_resize_coeffs
                0x10046d50                ipu_ic_config_resize_rate
                0x10046e78                ipu_ic_combine_config
                0x10047034                ipu_ic_csc_config
                0x1004772c                ipu_ic_task_enable
 .text          0x1004792c      0x8e0 /home/leon/git/swp-report/iMX6_Platform_SDK/output/mx6sdl/lib/libsdk.a(epit.o)
                0x1004792c                epit_reload_counter
                0x1004798c                epit_get_counter_value
                0x100479e8                epit_set_compare_event
                0x10047a48                epit_get_compare_event
                0x10047b40                epit_counter_disable
                0x10047d04                epit_counter_enable
                0x10047f60                epit_setup_interrupt
                0x10047ff0                epit_init
 .text          0x1004820c      0x2fc /home/leon/git/swp-report/iMX6_Platform_SDK/output/mx6sdl/lib/libsdk.a(mx6x_usb.o)
                0x1004820c                usbEnableClocks
                0x10048334                usbEnableTransceiver
 .text          0x10048508      0x4bc /home/leon/git/swp-report/iMX6_Platform_SDK/output/mx6sdl/lib/libsdk.a(abort_handler.o)
                0x10048508                dump_regs
 .text          0x100489c4      0x144 /home/leon/git/swp-report/iMX6_Platform_SDK/output/mx6sdl/lib/libboard_smart_device_rev_a.a(board_audio.o)
                0x100489c4                SGTL5000PowerUp_and_clockinit
                0x100489d4                spdif_get_tx_clk_freq
                0x100489f0                audio_codec_power_on
                0x10048a2c                audio_clock_config
                0x10048a54                spdif_clk_cfg
                0x10048ab8                esai_codec_power_on
                0x10048ad0                esai_clk_sel_gate_on
 .text          0x10048b08       0x9c /home/leon/git/swp-report/iMX6_Platform_SDK/output/mx6sdl/lib/libboard_smart_device_rev_a.a(board_buttons.o)
                0x10048b08                android_buttons_iomux_config
 .text          0x10048ba4      0x38c /home/leon/git/swp-report/iMX6_Platform_SDK/output/mx6sdl/lib/libboard_smart_device_rev_a.a(board_camera.o)
                0x10048ba4                camera_power_on
                0x10048bb4                csi_port0_iomux_config
                0x10048be8                camera_ipu1_iomux_config
                0x10048d84                sensor_reset
                0x10048e1c                sensor_standby
                0x10048e98                sensor_clock_setting
 .text          0x10048f30      0x44c /home/leon/git/swp-report/iMX6_Platform_SDK/output/mx6sdl/lib/libboard_smart_device_rev_a.a(board_display.o)
                0x10048f30                lvds_power_on
                0x10048f98                disable_para_panel
                0x10048fe8                tftlcd_backlight_en
                0x100490c4                tftlcd_reset
                0x1004915c                ldb_clock_config
                0x10049258                epdc_clock_setting
                0x100492d4                epdc_power_supply
 .text          0x1004937c      0x200 /home/leon/git/swp-report/iMX6_Platform_SDK/output/mx6sdl/lib/libboard_smart_device_rev_a.a(board_hdmi.o)
                0x1004937c                hdmi_tx_cec_pgm_iomux
                0x100493c0                hdmi_tx_ddc_pgm_iomux
                0x10049438                hdmi_tx_phydtb_pgm_iomux
                0x10049488                hdmi_pgm_iomux
                0x100494a8                ext_hdmi_transmitter_power_on
                0x100494b8                hdmi_clock_set
 .text          0x1004957c        0x0 /home/leon/git/swp-report/iMX6_Platform_SDK/output/mx6sdl/lib/libboard_smart_device_rev_a.a(board_i2c.o)
 .text          0x1004957c       0x20 /home/leon/git/swp-report/iMX6_Platform_SDK/output/mx6sdl/lib/libboard_smart_device_rev_a.a(board_io_expanders.o)
                0x1004957c                board_ioexpander_init
                0x1004958c                board_ioexpander_iomux_config
 .text          0x1004959c      0x240 /home/leon/git/swp-report/iMX6_Platform_SDK/output/mx6sdl/lib/libboard_smart_device_rev_a.a(board_mipi.o)
                0x1004959c                mipi_cam_power_on
                0x10049644                mipi_backlight_en
                0x10049694                mipi_display_reset
                0x10049704                mipi_clock_set
                0x10049734                mipi_csi2_clock_set
 .text          0x100497dc       0x94 /home/leon/git/swp-report/iMX6_Platform_SDK/output/mx6sdl/lib/libboard_smart_device_rev_a.a(board_network.o)
                0x100497dc                imx_ar8031_iomux
                0x100497f0                imx_KSZ9021RN_reset
                0x10049800                imx_ar8031_reset
                0x10049848                imx_enet_iomux
                0x1004985c                imx_enet_phy_reset
 .text          0x10049870      0x128 /home/leon/git/swp-report/iMX6_Platform_SDK/output/mx6sdl/lib/libboard_smart_device_rev_a.a(board_usb.o)
                0x10049870                usbEnableVbus
                0x1004991c                usbDisableVbus
                0x10049988                reset_usb_hub
 .text          0x10049998      0x154 /home/leon/git/swp-report/iMX6_Platform_SDK/output/mx6sdl/lib/libboard_smart_device_rev_a.a(board_usdhc.o)
                0x10049998                usdhc_gpio_config
                0x100499dc                usdhc_card_detected
                0x10049a64                usdhc_write_protected
 .text          0x10049aec        0x0 /home/leon/git/swp-report/iMX6_Platform_SDK/output/mx6sdl/lib/libboard_smart_device_rev_a.a(hardware_modules.o)
 .text          0x10049aec        0x0 /home/leon/git/swp-report/iMX6_Platform_SDK/output/mx6sdl/lib/libboard_smart_device_rev_a.a(dcd.o)
 .text          0x10049aec       0xa0 /home/leon/git/swp-report/iMX6_Platform_SDK/output/mx6sdl/lib/libboard_smart_device_rev_a.a(audmux_iomux_config.o)
                0x10049aec                audmux_iomux_config
 .text          0x10049b8c       0x34 /home/leon/git/swp-report/iMX6_Platform_SDK/output/mx6sdl/lib/libboard_smart_device_rev_a.a(ccm_iomux_config.o)
                0x10049b8c                ccm_iomux_config
 .text          0x10049bc0       0x84 /home/leon/git/swp-report/iMX6_Platform_SDK/output/mx6sdl/lib/libboard_smart_device_rev_a.a(ecspi_iomux_config.o)
                0x10049bc0                ecspi_iomux_config
 .text          0x10049c44      0x3bc /home/leon/git/swp-report/iMX6_Platform_SDK/output/mx6sdl/lib/libboard_smart_device_rev_a.a(enet_iomux_config.o)
                0x10049c44                enet_iomux_config
 .text          0x1004a000      0x66c /home/leon/git/swp-report/iMX6_Platform_SDK/output/mx6sdl/lib/libboard_smart_device_rev_a.a(epdc_iomux_config.o)
                0x1004a000                epdc_iomux_config
 .text          0x1004a66c       0x84 /home/leon/git/swp-report/iMX6_Platform_SDK/output/mx6sdl/lib/libboard_smart_device_rev_a.a(i2c_iomux_config.o)
                0x1004a66c                i2c_iomux_config
 .text          0x1004a6f0      0x2f8 /home/leon/git/swp-report/iMX6_Platform_SDK/output/mx6sdl/lib/libboard_smart_device_rev_a.a(iomux_config.o)
                0x1004a6f0                iomux_config
                0x1004a768                arm_iomux_config
                0x1004a778                asrc_iomux_config
                0x1004a788                dcic1_iomux_config
                0x1004a798                dcic2_iomux_config
                0x1004a7a8                ecspi2_iomux_config
                0x1004a7b8                ecspi3_iomux_config
                0x1004a7c8                ecspi4_iomux_config
                0x1004a7d8                eim_iomux_config
                0x1004a7e8                epit1_iomux_config
                0x1004a7f8                epit2_iomux_config
                0x1004a808                esai_iomux_config
                0x1004a818                flexcan2_iomux_config
                0x1004a828                gpmi_iomux_config
                0x1004a838                gpt_iomux_config
                0x1004a848                hdmi_iomux_config
                0x1004a858                i2c4_iomux_config
                0x1004a868                lcd_iomux_config
                0x1004a878                ldb_iomux_config
                0x1004a888                mipi_csi_iomux_config
                0x1004a898                mipi_dsi_iomux_config
                0x1004a8a8                mipi_hsi_iomux_config
                0x1004a8b8                mlb_iomux_config
                0x1004a8c8                pcie_iomux_config
                0x1004a8d8                pmu_iomux_config
                0x1004a8e8                pwm2_iomux_config
                0x1004a8f8                pwm3_iomux_config
                0x1004a908                pwm4_iomux_config
                0x1004a918                sdma_iomux_config
                0x1004a928                snvs_iomux_config
                0x1004a938                spdif_iomux_config
                0x1004a948                src_iomux_config
                0x1004a958                uart2_iomux_config
                0x1004a968                uart3_iomux_config
                0x1004a978                uart4_iomux_config
                0x1004a988                uart5_iomux_config
                0x1004a998                usb_iomux_config
                0x1004a9a8                usdhc1_iomux_config
                0x1004a9b8                wdog1_iomux_config
                0x1004a9c8                wdog2_iomux_config
                0x1004a9d8                xtalosc_iomux_config
 .text          0x1004a9e8      0x5b0 /home/leon/git/swp-report/iMX6_Platform_SDK/output/mx6sdl/lib/libboard_smart_device_rev_a.a(ipu1_iomux_config.o)
                0x1004a9e8                ipu1_iomux_config
 .text          0x1004af98       0x54 /home/leon/git/swp-report/iMX6_Platform_SDK/output/mx6sdl/lib/libboard_smart_device_rev_a.a(ipu_iomux_config.o)
                0x1004af98                ipu_iomux_config
 .text          0x1004afec      0x190 /home/leon/git/swp-report/iMX6_Platform_SDK/output/mx6sdl/lib/libboard_smart_device_rev_a.a(kpp_iomux_config.o)
                0x1004afec                kpp_iomux_config
 .text          0x1004b17c     0x2484 /home/leon/git/swp-report/iMX6_Platform_SDK/output/mx6sdl/lib/libboard_smart_device_rev_a.a(mmdc_iomux_config.o)
                0x1004b17c                mmdc_iomux_config
 .text          0x1004d600       0x34 /home/leon/git/swp-report/iMX6_Platform_SDK/output/mx6sdl/lib/libboard_smart_device_rev_a.a(pwm1_iomux_config.o)
                0x1004d600                pwm1_iomux_config
 .text          0x1004d634       0x70 /home/leon/git/swp-report/iMX6_Platform_SDK/output/mx6sdl/lib/libboard_smart_device_rev_a.a(sjc_iomux_config.o)
                0x1004d634                sjc_iomux_config
 .text          0x1004d6a4       0x78 /home/leon/git/swp-report/iMX6_Platform_SDK/output/mx6sdl/lib/libboard_smart_device_rev_a.a(uart1_iomux_config.o)
                0x1004d6a4                uart1_iomux_config
 .text          0x1004d71c       0x90 /home/leon/git/swp-report/iMX6_Platform_SDK/output/mx6sdl/lib/libboard_smart_device_rev_a.a(uart_iomux_config.o)
                0x1004d71c                uart_iomux_config
 .text          0x1004d7ac      0x188 /home/leon/git/swp-report/iMX6_Platform_SDK/output/mx6sdl/lib/libboard_smart_device_rev_a.a(usdhc2_iomux_config.o)
                0x1004d7ac                usdhc2_iomux_config
 .text          0x1004d934      0x188 /home/leon/git/swp-report/iMX6_Platform_SDK/output/mx6sdl/lib/libboard_smart_device_rev_a.a(usdhc3_iomux_config.o)
                0x1004d934                usdhc3_iomux_config
 .text          0x1004dabc      0x188 /home/leon/git/swp-report/iMX6_Platform_SDK/output/mx6sdl/lib/libboard_smart_device_rev_a.a(usdhc4_iomux_config.o)
                0x1004dabc                usdhc4_iomux_config
 .text          0x1004dc44       0x84 /home/leon/git/swp-report/iMX6_Platform_SDK/output/mx6sdl/lib/libboard_smart_device_rev_a.a(usdhc_iomux_config.o)
                0x1004dc44                usdhc_iomux_config
 .text          0x1004dcc8       0xe0 /home/leon/git/swp-report/iMX6_Platform_SDK/output/mx6sdl/lib/libboard_smart_device_rev_a.a(ecspi1_iomux_config.o)
                0x1004dcc8                ecspi1_iomux_config
 .text          0x1004dda8       0x68 /home/leon/git/swp-report/iMX6_Platform_SDK/output/mx6sdl/lib/libboard_smart_device_rev_a.a(flexcan1_iomux_config.o)
                0x1004dda8                flexcan1_iomux_config
 .text          0x1004de10      0x274 /home/leon/git/swp-report/iMX6_Platform_SDK/output/mx6sdl/lib/libboard_smart_device_rev_a.a(gpio1_iomux_config.o)
                0x1004de10                gpio1_iomux_config
 .text          0x1004e084      0x164 /home/leon/git/swp-report/iMX6_Platform_SDK/output/mx6sdl/lib/libboard_smart_device_rev_a.a(gpio2_iomux_config.o)
                0x1004e084                gpio2_iomux_config
 .text          0x1004e1e8      0x258 /home/leon/git/swp-report/iMX6_Platform_SDK/output/mx6sdl/lib/libboard_smart_device_rev_a.a(gpio3_iomux_config.o)
                0x1004e1e8                gpio3_iomux_config
 .text          0x1004e440       0xa0 /home/leon/git/swp-report/iMX6_Platform_SDK/output/mx6sdl/lib/libboard_smart_device_rev_a.a(gpio4_iomux_config.o)
                0x1004e440                gpio4_iomux_config
 .text          0x1004e4e0       0x50 /home/leon/git/swp-report/iMX6_Platform_SDK/output/mx6sdl/lib/libboard_smart_device_rev_a.a(gpio5_iomux_config.o)
                0x1004e4e0                gpio5_iomux_config
 .text          0x1004e530      0x150 /home/leon/git/swp-report/iMX6_Platform_SDK/output/mx6sdl/lib/libboard_smart_device_rev_a.a(gpio6_iomux_config.o)
                0x1004e530                gpio6_iomux_config
 .text          0x1004e680       0x7c /home/leon/git/swp-report/iMX6_Platform_SDK/output/mx6sdl/lib/libboard_smart_device_rev_a.a(gpio7_iomux_config.o)
                0x1004e680                gpio7_iomux_config
 .text          0x1004e6fc       0xdc /home/leon/git/swp-report/iMX6_Platform_SDK/output/mx6sdl/lib/libboard_smart_device_rev_a.a(gps_iomux_config.o)
                0x1004e6fc                gps_iomux_config
 .text          0x1004e7d8       0x78 /home/leon/git/swp-report/iMX6_Platform_SDK/output/mx6sdl/lib/libboard_smart_device_rev_a.a(i2c1_iomux_config.o)
                0x1004e7d8                i2c1_iomux_config
 .text          0x1004e850       0x78 /home/leon/git/swp-report/iMX6_Platform_SDK/output/mx6sdl/lib/libboard_smart_device_rev_a.a(i2c2_iomux_config.o)
                0x1004e850                i2c2_iomux_config
 .text          0x1004e8c8       0x78 /home/leon/git/swp-report/iMX6_Platform_SDK/output/mx6sdl/lib/libboard_smart_device_rev_a.a(i2c3_iomux_config.o)
                0x1004e8c8                i2c3_iomux_config
 .text          0x1004e940       0x68 /home/leon/riotboard/arm-2012.09/bin/../arm-none-eabi/lib//libc.a(lib_a-assert.o)
                0x1004e940                __assert_func
                0x1004e998                __assert
 .text          0x1004e9a8       0x20 /home/leon/riotboard/arm-2012.09/bin/../arm-none-eabi/lib//libc.a(lib_a-bzero.o)
                0x1004e9a8                bzero
 .text          0x1004e9c8       0x70 /home/leon/riotboard/arm-2012.09/bin/../arm-none-eabi/lib//libc.a(lib_a-fiprintf.o)
                0x1004e9c8                _fiprintf_r
                0x1004e9f8                fiprintf
 .text          0x1004ea38       0x94 /home/leon/riotboard/arm-2012.09/bin/../arm-none-eabi/lib//libc.a(lib_a-fputc.o)
                0x1004ea38                _fputc_r
                0x1004ea7c                fputc
 .text          0x1004eacc        0x0 /home/leon/riotboard/arm-2012.09/bin/../arm-none-eabi/lib//libc.a(lib_a-impure.o)
 .text          0x1004eacc       0x88 /home/leon/riotboard/arm-2012.09/bin/../arm-none-eabi/lib//libc.a(lib_a-init.o)
                0x1004eacc                __libc_init_array
 .text          0x1004eb54       0x40 /home/leon/riotboard/arm-2012.09/bin/../arm-none-eabi/lib//libc.a(lib_a-malloc.o)
                0x1004eb54                malloc
                0x1004eb74                free
 .text          0x1004eb94      0x71c /home/leon/riotboard/arm-2012.09/bin/../arm-none-eabi/lib//libc.a(lib_a-mallocr.o)
                0x1004eb94                _malloc_r
 .text          0x1004f2b0      0x20c /home/leon/riotboard/arm-2012.09/bin/../arm-none-eabi/lib//libc.a(lib_a-memcpy.o)
                0x1004f2b0                memcpy
 .text          0x1004f4bc      0x134 /home/leon/riotboard/arm-2012.09/bin/../arm-none-eabi/lib//libc.a(lib_a-memset.o)
                0x1004f4bc                memset
 .text          0x1004f5f0        0x8 /home/leon/riotboard/arm-2012.09/bin/../arm-none-eabi/lib//libc.a(lib_a-mlock.o)
                0x1004f5f0                __malloc_lock
                0x1004f5f4                __malloc_unlock
 .text          0x1004f5f8       0x74 /home/leon/riotboard/arm-2012.09/bin/../arm-none-eabi/lib//libc.a(lib_a-printf.o)
                0x1004f5f8                _printf_r
                0x1004f62c                printf
 .text          0x1004f66c      0x170 /home/leon/riotboard/arm-2012.09/bin/../arm-none-eabi/lib//libc.a(lib_a-putc.o)
                0x1004f66c                _putc_r
                0x1004f71c                putc
 .text          0x1004f7dc       0x28 /home/leon/riotboard/arm-2012.09/bin/../arm-none-eabi/lib//libc.a(lib_a-realloc.o)
                0x1004f7dc                realloc
 .text          0x1004f804      0x574 /home/leon/riotboard/arm-2012.09/bin/../arm-none-eabi/lib//libc.a(lib_a-reallocr.o)
                0x1004f804                _realloc_r
 .text          0x1004fd78       0x6c /home/leon/riotboard/arm-2012.09/bin/../arm-none-eabi/lib//libc.a(lib_a-rget.o)
                0x1004fd78                __srget_r
                0x1004fdd0                __srget
 .text          0x1004fde4       0x40 /home/leon/riotboard/arm-2012.09/bin/../arm-none-eabi/lib//libc.a(lib_a-sbrkr.o)
                0x1004fde4                _sbrk_r
 .text          0x1004fe24       0xdc /home/leon/riotboard/arm-2012.09/bin/../arm-none-eabi/lib//libc.a(lib_a-sprintf.o)
                0x1004fe24                _sprintf_r
                0x1004fe8c                sprintf
 .text          0x1004ff00       0xa0 /home/leon/riotboard/arm-2012.09/bin/../arm-none-eabi/lib//libc.a(lib_a-strcat.o)
                0x1004ff00                strcat
 .text          0x1004ffa0      0x230 /home/leon/riotboard/arm-2012.09/bin/../arm-none-eabi/lib//libc.a(lib_a-strcmp.o)
                0x1004ffa0                strcmp
 .text          0x100501d0       0xf0 /home/leon/riotboard/arm-2012.09/bin/../arm-none-eabi/lib//libc.a(lib_a-strcpy.o)
                0x100501d0                strcpy
 .text          0x100502c0       0x60 /home/leon/riotboard/arm-2012.09/bin/../arm-none-eabi/lib//libc.a(lib_a-strlen.o)
                0x100502c0                strlen
 .text          0x10050320       0x78 /home/leon/riotboard/arm-2012.09/bin/../arm-none-eabi/lib//libc.a(lib_a-strncasecmp.o)
                0x10050320                strncasecmp
 .text          0x10050398       0x24 /home/leon/riotboard/arm-2012.09/bin/../arm-none-eabi/lib//libc.a(lib_a-strtok.o)
                0x10050398                strtok
 .text          0x100503bc       0xb8 /home/leon/riotboard/arm-2012.09/bin/../arm-none-eabi/lib//libc.a(lib_a-strtok_r.o)
                0x100503bc                __strtok_r
                0x1005046c                strtok_r
 .text          0x10050474     0x1f7c /home/leon/riotboard/arm-2012.09/bin/../arm-none-eabi/lib//libc.a(lib_a-svfprintf.o)
                0x10050474                _svfprintf_r
 .text          0x100523f0     0x12c4 /home/leon/riotboard/arm-2012.09/bin/../arm-none-eabi/lib//libc.a(lib_a-vfiprintf.o)
                0x100523f0                __sprint_r
                0x100524ac                _vfiprintf_r
                0x10053688                vfiprintf
 .text          0x100536b4     0x2180 /home/leon/riotboard/arm-2012.09/bin/../arm-none-eabi/lib//libc.a(lib_a-vfprintf.o)
                0x100536b4                _vfprintf_r
                0x10055808                vfprintf
 .text          0x10055834       0x4c /home/leon/riotboard/arm-2012.09/bin/../arm-none-eabi/lib//libc.a(lib_a-vprintf.o)
                0x10055834                vprintf
                0x10055860                _vprintf_r
 .text          0x10055880      0x14c /home/leon/riotboard/arm-2012.09/bin/../arm-none-eabi/lib//libc.a(lib_a-wbuf.o)
                0x10055880                __swbuf_r
                0x100559b0                __swbuf
 .text          0x100559cc      0x138 /home/leon/riotboard/arm-2012.09/bin/../arm-none-eabi/lib//libc.a(lib_a-wsetup.o)
                0x100559cc                __swsetup_r
 .text          0x10055b04       0x14 /home/leon/riotboard/arm-2012.09/bin/../arm-none-eabi/lib//libc.a(lib_a-abort.o)
                0x10055b04                abort
 .text          0x10055b18        0x0 /home/leon/riotboard/arm-2012.09/bin/../arm-none-eabi/lib//libc.a(lib_a-ctype_.o)
 .text          0x10055b18     0x18a8 /home/leon/riotboard/arm-2012.09/bin/../arm-none-eabi/lib//libc.a(lib_a-dtoa.o)
                0x10055cf8                _dtoa_r
 .text          0x100573c0      0x26c /home/leon/riotboard/arm-2012.09/bin/../arm-none-eabi/lib//libc.a(lib_a-fflush.o)
                0x100573c0                _fflush_r
                0x100575ec                fflush
 .text          0x1005762c      0x2c4 /home/leon/riotboard/arm-2012.09/bin/../arm-none-eabi/lib//libc.a(lib_a-findfp.o)
                0x1005763c                _cleanup_r
                0x100576d0                __sfmoreglue
                0x10057718                _cleanup
                0x10057728                __sinit
                0x100577a0                __sfp
                0x10057898                __sfp_lock_acquire
                0x1005789c                __sfp_lock_release
                0x100578a0                __sinit_lock_acquire
                0x100578a4                __sinit_lock_release
                0x100578a8                __fp_lock_all
                0x100578cc                __fp_unlock_all
 .text          0x100578f0      0x19c /home/leon/riotboard/arm-2012.09/bin/../arm-none-eabi/lib//libc.a(lib_a-fputwc.o)
                0x100578f0                _fputwc_r
                0x10057a40                fputwc
 .text          0x10057a8c      0x368 /home/leon/riotboard/arm-2012.09/bin/../arm-none-eabi/lib//libc.a(lib_a-freer.o)
                0x10057a8c                _malloc_trim_r
                0x10057b88                _free_r
 .text          0x10057df4      0x4c4 /home/leon/riotboard/arm-2012.09/bin/../arm-none-eabi/lib//libc.a(lib_a-fvwrite.o)
                0x10057df4                __sfvwrite_r
 .text          0x100582b8      0x114 /home/leon/riotboard/arm-2012.09/bin/../arm-none-eabi/lib//libc.a(lib_a-fwalk.o)
                0x100582b8                _fwalk
                0x10058340                _fwalk_reent
 .text          0x100583cc       0xd0 /home/leon/riotboard/arm-2012.09/bin/../arm-none-eabi/lib//libc.a(lib_a-locale.o)
                0x100583cc                _setlocale_r
                0x10058438                __locale_charset
                0x10058444                __locale_mb_cur_max
                0x10058454                __locale_msgcharset
                0x10058460                __locale_cjk_lang
                0x10058468                _localeconv_r
                0x10058474                setlocale
                0x10058490                localeconv
 .text          0x1005849c      0x15c /home/leon/riotboard/arm-2012.09/bin/../arm-none-eabi/lib//libc.a(lib_a-makebuf.o)
                0x1005849c                __smakebuf_r
 .text          0x100585f8      0x11c /home/leon/riotboard/arm-2012.09/bin/../arm-none-eabi/lib//libc.a(lib_a-memchr.o)
                0x100585f8                memchr
 .text          0x10058714      0x134 /home/leon/riotboard/arm-2012.09/bin/../arm-none-eabi/lib//libc.a(lib_a-memmove.o)
                0x10058714                memmove
 .text          0x10058848      0xd20 /home/leon/riotboard/arm-2012.09/bin/../arm-none-eabi/lib//libc.a(lib_a-mprec.o)
                0x10058848                _Balloc
                0x100588d4                _Bfree
                0x100588f0                __multadd
                0x100589cc                __s2b
                0x10058abc                __hi0bits
                0x10058b0c                __lo0bits
                0x10058ba0                __i2b
                0x10058bc4                __multiply
                0x10058da8                __pow5mult
                0x10058e9c                __lshift
                0x10058fa0                __mcmp
                0x10059004                __mdiff
                0x10059150                __ulp
                0x100591b4                __b2d
                0x10059280                __d2b
                0x10059388                __ratio
                0x10059418                _mprec_log10
                0x1005946c                __copybits
                0x100594e0                __any_on
 .text          0x10059568      0x19c /home/leon/riotboard/arm-2012.09/bin/../arm-none-eabi/lib//libc.a(lib_a-reent.o)
                0x10059568                cleanup_glue
                0x10059594                _reclaim_reent
                0x10059690                _wrapup_reent
 .text          0x10059704      0x1cc /home/leon/riotboard/arm-2012.09/bin/../arm-none-eabi/lib//libc.a(lib_a-refill.o)
                0x1005972c                __srefill_r
 .text          0x100598d0       0x6c /home/leon/riotboard/arm-2012.09/bin/../arm-none-eabi/lib//libc.a(lib_a-s_fpclassify.o)
                0x100598d0                __fpclassifyd
 .text          0x1005993c      0x24c /home/leon/riotboard/arm-2012.09/bin/../arm-none-eabi/lib//libc.a(lib_a-signal.o)
                0x1005993c                _init_signal_r
                0x1005999c                _signal_r
                0x10059a08                _raise_r
                0x10059aa0                __sigtramp_r
                0x10059b34                raise
                0x10059b48                signal
                0x10059b64                _init_signal
                0x10059b74                __sigtramp
 .text          0x10059b88       0x50 /home/leon/riotboard/arm-2012.09/bin/../arm-none-eabi/lib//libc.a(lib_a-signalr.o)
                0x10059b88                _kill_r
                0x10059bc8                _getpid_r
 .text          0x10059bd8       0xdc /home/leon/riotboard/arm-2012.09/bin/../arm-none-eabi/lib//libc.a(lib_a-stdio.o)
                0x10059bd8                __sread
                0x10059c0c                __seofread
                0x10059c14                __swrite
                0x10059c6c                __sseek
                0x10059ca0                __sclose
 .text          0x10059cb4     0x1224 /home/leon/riotboard/arm-2012.09/bin/../arm-none-eabi/lib//libc.a(lib_a-svfiprintf.o)
                0x10059cb4                __ssprint_r
                0x10059e58                _svfiprintf_r
 .text          0x1005aed8      0x134 /home/leon/riotboard/arm-2012.09/bin/../arm-none-eabi/lib//libc.a(lib_a-wcrtomb.o)
                0x1005aed8                _wcrtomb_r
                0x1005af68                wcrtomb
 .text          0x1005b00c       0x7c /home/leon/riotboard/arm-2012.09/bin/../arm-none-eabi/lib//libc.a(lib_a-wctomb_r.o)
                0x1005b00c                __ascii_wctomb
                0x1005b038                _wctomb_r
 .text          0x1005b088       0x44 /home/leon/riotboard/arm-2012.09/bin/../arm-none-eabi/lib//libc.a(lib_a-writer.o)
                0x1005b088                _write_r
 .text          0x1005b0cc       0x94 /home/leon/riotboard/arm-2012.09/bin/../arm-none-eabi/lib//libc.a(lib_a-callocr.o)
                0x1005b0cc                _calloc_r
 .text          0x1005b160       0x3c /home/leon/riotboard/arm-2012.09/bin/../arm-none-eabi/lib//libc.a(lib_a-closer.o)
                0x1005b160                _close_r
 .text          0x1005b19c      0x10c /home/leon/riotboard/arm-2012.09/bin/../arm-none-eabi/lib//libc.a(lib_a-fclose.o)
                0x1005b19c                _fclose_r
                0x1005b294                fclose
 .text          0x1005b2a8       0x40 /home/leon/riotboard/arm-2012.09/bin/../arm-none-eabi/lib//libc.a(lib_a-fstatr.o)
                0x1005b2a8                _fstat_r
 .text          0x1005b2e8       0x3c /home/leon/riotboard/arm-2012.09/bin/../arm-none-eabi/lib//libc.a(lib_a-isattyr.o)
                0x1005b2e8                _isatty_r
 .text          0x1005b324       0x44 /home/leon/riotboard/arm-2012.09/bin/../arm-none-eabi/lib//libc.a(lib_a-lseekr.o)
                0x1005b324                _lseek_r
 .text          0x1005b368       0x44 /home/leon/riotboard/arm-2012.09/bin/../arm-none-eabi/lib//libc.a(lib_a-readr.o)
                0x1005b368                _read_r
 .text          0x1005b3ac      0x114 /home/leon/riotboard/arm-2012.09/bin/../lib/gcc/arm-none-eabi/4.7.2//libgcc.a(_udivsi3.o)
                0x1005b3ac                __udivsi3
                0x1005b3ac                __aeabi_uidiv
                0x1005b4a0                __aeabi_uidivmod
 .text          0x1005b4c0      0x148 /home/leon/riotboard/arm-2012.09/bin/../lib/gcc/arm-none-eabi/4.7.2//libgcc.a(_divsi3.o)
                0x1005b4c0                __aeabi_idiv
                0x1005b4c0                __divsi3
                0x1005b5e8                __aeabi_idivmod
 .text          0x1005b608        0x4 /home/leon/riotboard/arm-2012.09/bin/../lib/gcc/arm-none-eabi/4.7.2//libgcc.a(_dvmd_tls.o)
                0x1005b608                __aeabi_ldiv0
                0x1005b608                __aeabi_idiv0
 .text          0x1005b60c      0x41c /home/leon/riotboard/arm-2012.09/bin/../lib/gcc/arm-none-eabi/4.7.2//libgcc.a(_arm_addsubdf3.o)
                0x1005b60c                __aeabi_drsub
                0x1005b614                __aeabi_dsub
                0x1005b614                __subdf3
                0x1005b618                __adddf3
                0x1005b618                __aeabi_dadd
                0x1005b928                __aeabi_ui2d
                0x1005b928                __floatunsidf
                0x1005b94c                __floatsidf
                0x1005b94c                __aeabi_i2d
                0x1005b974                __extendsfdf2
                0x1005b974                __aeabi_f2d
                0x1005b9b4                __aeabi_ul2d
                0x1005b9b4                __floatundidf
                0x1005b9c8                __floatdidf
                0x1005b9c8                __aeabi_l2d
 .text          0x1005ba28      0x49c /home/leon/riotboard/arm-2012.09/bin/../lib/gcc/arm-none-eabi/4.7.2//libgcc.a(_arm_muldivdf3.o)
                0x1005ba28                __aeabi_dmul
                0x1005ba28                __muldf3
                0x1005bcb8                __aeabi_ddiv
                0x1005bcb8                __divdf3
 .text          0x1005bec4      0x144 /home/leon/riotboard/arm-2012.09/bin/../lib/gcc/arm-none-eabi/4.7.2//libgcc.a(_arm_cmpdf2.o)
                0x1005bec4                __gtdf2
                0x1005bec4                __gedf2
                0x1005becc                __ltdf2
                0x1005becc                __ledf2
                0x1005bed4                __cmpdf2
                0x1005bed4                __eqdf2
                0x1005bed4                __nedf2
                0x1005bf5c                __aeabi_cdrcmple
                0x1005bf78                __aeabi_cdcmple
                0x1005bf78                __aeabi_cdcmpeq
                0x1005bf90                __aeabi_dcmpeq
                0x1005bfa8                __aeabi_dcmplt
                0x1005bfc0                __aeabi_dcmple
                0x1005bfd8                __aeabi_dcmpge
                0x1005bff0                __aeabi_dcmpgt
 .text          0x1005c008       0x5c /home/leon/riotboard/arm-2012.09/bin/../lib/gcc/arm-none-eabi/4.7.2//libgcc.a(_arm_fixdfsi.o)
                0x1005c008                __fixdfsi
                0x1005c008                __aeabi_d2iz
 .text          0x1005c064       0x3c /home/leon/riotboard/arm-2012.09/bin/../lib/gcc/arm-none-eabi/4.7.2//libgcc.a(_aeabi_uldivmod.o)
                0x1005c064                __aeabi_uldivmod
 .text          0x1005c0a0       0x84 /home/leon/riotboard/arm-2012.09/bin/../lib/gcc/arm-none-eabi/4.7.2//libgcc.a(bpabi.o)
                0x1005c0a0                __gnu_ldivmod_helper
                0x1005c0e4                __gnu_uldivmod_helper
 .text          0x1005c124      0x4f0 /home/leon/riotboard/arm-2012.09/bin/../lib/gcc/arm-none-eabi/4.7.2//libgcc.a(_divdi3.o)
                0x1005c124                __divdi3
 .text          0x1005c614      0x488 /home/leon/riotboard/arm-2012.09/bin/../lib/gcc/arm-none-eabi/4.7.2//libgcc.a(_udivdi3.o)
                0x1005c614                __udivdi3
 .text          0x1005ca9c       0x48 /home/leon/riotboard/arm-2012.09/bin/../lib/gcc/arm-none-eabi/4.7.2//libgcc.a(_clzsi2.o)
                0x1005ca9c                __clzsi2
 .text          0x1005cae4      0x610 /home/leon/git/swp-report/iMX6_Platform_SDK/output/mx6sdl/lib/libsdk.a(runtime_support.o)
                0x1005cae4                _execve
                0x1005cb20                _fork
                0x1005cb48                _isatty
                0x1005cb6c                _open
                0x1005cb98                _close
                0x1005cbbc                _lseek
                0x1005cbe8                _fstat
                0x1005cc1c                _read
                0x1005ccec                _write
                0x1005cdd8                _raw_puts
                0x1005ce58                _sbrk
                0x1005cf08                _exit
                0x1005cf28                _kill
                0x1005cf60                _getpid
                0x1005cf78                _link
                0x1005cfb0                _unlink
                0x1005cfe4                _stat
                0x1005d018                _times
                0x1005d03c                _gettimeofday
                0x1005d0c0                _wait
 *(.glue_7t)
 .glue_7t       0x00000000        0x0 linker stubs
 *(.glue_7)
 .glue_7        0x00000000        0x0 linker stubs
 *(.vfp11_veneer)
 .vfp11_veneer  0x00000000        0x0 linker stubs
 *(.ARM.extab* .gnu.linkonce.armextab.*)
 .ARM.extab.startup
                0x1005d0f4        0x0 /home/leon/git/swp-report/iMX6_Platform_SDK/output/mx6sdl/lib/libsdk.a(startup.o)
 .ARM.extab     0x1005d0f4        0x0 /home/leon/riotboard/arm-2012.09/bin/../lib/gcc/arm-none-eabi/4.7.2//libgcc.a(_divdi3.o)
 .ARM.extab     0x1005d0f4        0x0 /home/leon/riotboard/arm-2012.09/bin/../lib/gcc/arm-none-eabi/4.7.2//libgcc.a(_udivdi3.o)
 *(.gcc_except_table)

.v4_bx          0x1005d0f4        0x0
 .v4_bx         0x00000000        0x0 linker stubs

.iplt           0x1005d0f4        0x0
 .iplt          0x00000000        0x0 /home/leon/riotboard/arm-2012.09/bin/../lib/gcc/arm-none-eabi/4.7.2//crtbegin.o

.ctors
 *crtbegin.o(.ctors)
 *crtbegin?.o(.ctors)
 *(EXCLUDE_FILE(*crtend?.o *crtend.o) .ctors)
 *(SORT(.ctors.*))
 *(.ctors)

.dtors
 *crtbegin.o(.dtors)
 *crtbegin?.o(.dtors)
 *(EXCLUDE_FILE(*crtend?.o *crtend.o) .dtors)
 *(SORT(.dtors.*))
 *(.dtors)

.rodata         0x1005d0f8    0x3c058
 *(.rodata .rodata.* .gnu.linkonce.r.*)
 .rodata        0x1005d0f8       0x9c /home/leon/git/swp-report/iMX6_Platform_SDK/output/mx6sdl/obds/smart_device_rev_a/obj/apps/common/print_clock_info.o
 .rodata        0x1005d194      0x100 /home/leon/git/swp-report/iMX6_Platform_SDK/output/mx6sdl/obds/smart_device_rev_a/obj/apps/common/print_version.o
 .rodata        0x1005d294      0x604 /home/leon/git/swp-report/iMX6_Platform_SDK/output/mx6sdl/obds/smart_device_rev_a/obj/apps/obds/src/obds.o
                0x1005d588                MenuList_All_Tests
                0x1005d5e4                Menu_Commands
                0x1005d6a0                CPU_Tests
 .rodata        0x1005d898      0x318 /home/leon/git/swp-report/iMX6_Platform_SDK/output/mx6sdl/obds/smart_device_rev_a/obj/apps/obds/src/obds_utils.o
 .rodata        0x1005dbb0      0x1c0 /home/leon/git/swp-report/iMX6_Platform_SDK/output/mx6sdl/obds/smart_device_rev_a/obj/apps/obds/src/tests/android_buttons_test.o
                0x1005dbb0                g_android_buttons_test_name
 .rodata        0x1005dd70      0x3ac /home/leon/git/swp-report/iMX6_Platform_SDK/output/mx6sdl/obds/smart_device_rev_a/obj/apps/obds/src/tests/audio_esai_test.o
                0x1005dd70                g_audio_esai_test_name
 .rodata        0x1005e11c      0x22c /home/leon/git/swp-report/iMX6_Platform_SDK/output/mx6sdl/obds/smart_device_rev_a/obj/apps/obds/src/tests/audio_ssi_test.o
                0x1005e11c                g_audio_ssi_test_name
 .rodata        0x1005e348        0xc /home/leon/git/swp-report/iMX6_Platform_SDK/output/mx6sdl/obds/smart_device_rev_a/obj/apps/obds/src/tests/ddr_test.o
                0x1005e348                g_ddr_test_name
 .rodata        0x1005e354      0x1c0 /home/leon/git/swp-report/iMX6_Platform_SDK/output/mx6sdl/obds/smart_device_rev_a/obj/apps/obds/src/tests/deserializer_ds90ur124.o
 .rodata        0x1005e514      0x22c /home/leon/git/swp-report/iMX6_Platform_SDK/output/mx6sdl/obds/smart_device_rev_a/obj/apps/obds/src/tests/display_test.o
                0x1005e514                g_ipu_display_tests_name
 .rodata        0x1005e740      0x2d8 /home/leon/git/swp-report/iMX6_Platform_SDK/output/mx6sdl/obds/smart_device_rev_a/obj/apps/obds/src/tests/enet_mx6dldq_test.o
                0x1005e740                g_ar8031_test_name
                0x1005e760                g_KSZ9021RN_test_name
 .rodata        0x1005ea18       0x84 /home/leon/git/swp-report/iMX6_Platform_SDK/output/mx6sdl/obds/smart_device_rev_a/obj/apps/obds/src/tests/flexcan_test.o
                0x1005ea18                g_flexcan_test_name
 .rodata        0x1005ea9c       0x50 /home/leon/git/swp-report/iMX6_Platform_SDK/output/mx6sdl/obds/smart_device_rev_a/obj/apps/obds/src/tests/fm_tuner_si476x_test.o
 .rodata        0x1005eaec       0x34 /home/leon/git/swp-report/iMX6_Platform_SDK/output/mx6sdl/obds/smart_device_rev_a/obj/apps/obds/src/tests/gpio_led.o
                0x1005eaec                g_gpio_led_test_name
 .rodata        0x1005eb20       0x20 /home/leon/git/swp-report/iMX6_Platform_SDK/output/mx6sdl/obds/smart_device_rev_a/obj/apps/obds/src/tests/gps_test.o
 .rodata        0x1005eb40      0x10c /home/leon/git/swp-report/iMX6_Platform_SDK/output/mx6sdl/obds/smart_device_rev_a/obj/apps/obds/src/tests/i2c_check_light_sensor_isl29023.o
                0x1005eb40                g_isl29023_i2c_device_id_test_name
 .rodata        0x1005ec4c       0x6c /home/leon/git/swp-report/iMX6_Platform_SDK/output/mx6sdl/obds/smart_device_rev_a/obj/apps/obds/src/tests/i2c_device_barometer_ppl3115.o
                0x1005ec4c                g_ppl3115_i2c_device_id_test_name
 .rodata        0x1005ecb8       0x1c /home/leon/git/swp-report/iMX6_Platform_SDK/output/mx6sdl/obds/smart_device_rev_a/obj/apps/obds/src/tests/i2c_device_check_cs42888.o
                0x1005ecb8                g_cs42888_i2c_device_id_test_name
 .rodata        0x1005ecd4       0xb4 /home/leon/git/swp-report/iMX6_Platform_SDK/output/mx6sdl/obds/smart_device_rev_a/obj/apps/obds/src/tests/i2c_device_digital_compass_mag3110.o
                0x1005ecd4                g_mag3110_i2c_device_id_test_name
 .rodata        0x1005ed88       0xb4 /home/leon/git/swp-report/iMX6_Platform_SDK/output/mx6sdl/obds/smart_device_rev_a/obj/apps/obds/src/tests/i2c_device_digital_compass_mag3112.o
                0x1005ed88                g_mag3112_i2c_device_id_test_name
 .rodata        0x1005ee3c      0x138 /home/leon/git/swp-report/iMX6_Platform_SDK/output/mx6sdl/obds/smart_device_rev_a/obj/apps/obds/src/tests/i2c_device_id_check_mma8450.o
                0x1005ee3c                g_mma8450_i2c_device_id_test_name
 .rodata        0x1005ef74      0x138 /home/leon/git/swp-report/iMX6_Platform_SDK/output/mx6sdl/obds/smart_device_rev_a/obj/apps/obds/src/tests/i2c_device_id_check_mma8451.o
                0x1005ef74                g_mma8451_i2c_device_id_test_name
 .rodata        0x1005f0ac      0x234 /home/leon/git/swp-report/iMX6_Platform_SDK/output/mx6sdl/obds/smart_device_rev_a/obj/apps/obds/src/tests/i2c_device_id_check_p1003_tsc.o
                0x1005f0ac                g_hs_tsc_p1003_i2c_device_id_test_name
 .rodata        0x1005f2e0       0xf8 /home/leon/git/swp-report/iMX6_Platform_SDK/output/mx6sdl/obds/smart_device_rev_a/obj/apps/obds/src/tests/i2c_device_temp_sensor_emc1046.o
                0x1005f2e0                g_emc1046_i2c_device_id_test_name
 .rodata        0x1005f3d8       0x90 /home/leon/git/swp-report/iMX6_Platform_SDK/output/mx6sdl/obds/smart_device_rev_a/obj/apps/obds/src/tests/i2c_device_zigbee_mc1323.o
 .rodata        0x1005f468       0x88 /home/leon/git/swp-report/iMX6_Platform_SDK/output/mx6sdl/obds/smart_device_rev_a/obj/apps/obds/src/tests/i2c_eeprom_at24cxx_test.o
 .rodata        0x1005f4f0      0x1a0 /home/leon/git/swp-report/iMX6_Platform_SDK/output/mx6sdl/obds/smart_device_rev_a/obj/apps/obds/src/tests/imx_spi_nor_test.o
                0x1005f4f0                g_spi_nor_test_name
 .rodata        0x1005f690       0x54 /home/leon/git/swp-report/iMX6_Platform_SDK/output/mx6sdl/obds/smart_device_rev_a/obj/apps/obds/src/tests/mlb_os81050.o
 .rodata        0x1005f6e4      0x1d8 /home/leon/git/swp-report/iMX6_Platform_SDK/output/mx6sdl/obds/smart_device_rev_a/obj/apps/obds/src/tests/mmcsd_test.o
                0x1005f6e4                g_mmcsd_test_name
 .rodata        0x1005f8bc      0x718 /home/leon/git/swp-report/iMX6_Platform_SDK/output/mx6sdl/obds/smart_device_rev_a/obj/apps/obds/src/tests/pmic_da9053.o
 .rodata        0x1005ffd4      0x734 /home/leon/git/swp-report/iMX6_Platform_SDK/output/mx6sdl/obds/smart_device_rev_a/obj/apps/obds/src/tests/pmic_lt3589.o
 .rodata        0x10060708       0x54 /home/leon/git/swp-report/iMX6_Platform_SDK/output/mx6sdl/obds/smart_device_rev_a/obj/apps/obds/src/tests/pmic_max17135.o
                0x10060708                g_max17135_i2c_device_id_test_name
 .rodata        0x1006075c       0x48 /home/leon/git/swp-report/iMX6_Platform_SDK/output/mx6sdl/obds/smart_device_rev_a/obj/apps/obds/src/tests/pmic_mc13892.o
 .rodata        0x100607a4      0x2dc /home/leon/git/swp-report/iMX6_Platform_SDK/output/mx6sdl/obds/smart_device_rev_a/obj/apps/obds/src/tests/program_board_id.o
                0x100607a4                g_program_board_id_test_name
 .rodata        0x10060a80      0x3c8 /home/leon/git/swp-report/iMX6_Platform_SDK/output/mx6sdl/obds/smart_device_rev_a/obj/apps/obds/src/tests/program_mac_address.o
                0x10060a80                g_program_mac_address_test_name
 .rodata        0x10060e48      0x1bc /home/leon/git/swp-report/iMX6_Platform_SDK/output/mx6sdl/obds/smart_device_rev_a/obj/apps/obds/src/tests/snvs_srtc_test.o
                0x10060e48                g_snvs_srtc_test_name
 .rodata        0x10061004      0x148 /home/leon/git/swp-report/iMX6_Platform_SDK/output/mx6sdl/obds/smart_device_rev_a/obj/apps/obds/src/tests/touch_button_test.o
                0x10061004                g_touch_buttons_test_name
 .rodata        0x1006114c      0x10c /home/leon/git/swp-report/iMX6_Platform_SDK/output/mx6sdl/obds/smart_device_rev_a/obj/apps/obds/src/tests/touch_screen.o
 .rodata        0x10061258      0x1b0 /home/leon/git/swp-report/iMX6_Platform_SDK/output/mx6sdl/obds/smart_device_rev_a/obj/apps/obds/src/tests/touch_screen_max11801.o
 .rodata        0x10061408      0x2b0 /home/leon/git/swp-report/iMX6_Platform_SDK/output/mx6sdl/obds/smart_device_rev_a/obj/apps/obds/src/tests/usb_tests_obds.o
                0x10061408                g_usb_otg_dev_enum_test_name
                0x10061428                g_usb_host1_dev_enum_test_name
 .rodata        0x100616b8      0x150 /home/leon/git/swp-report/iMX6_Platform_SDK/output/mx6sdl/obds/smart_device_rev_a/obj/apps/obds/src/tests/video_dec_ARD_MB_reset_button.o
                0x100616b8                g_ard_main_board_reset_button_test
 .rodata        0x10061808       0x68 /home/leon/git/swp-report/iMX6_Platform_SDK/output/mx6sdl/obds/smart_device_rev_a/obj/apps/obds/src/tests/video_dec_ARD_MBrst_from_cpu_expander.o
                0x10061808                g_ard_mb_expander_reset_test_name
 .rodata        0x10061870       0x94 /home/leon/git/swp-report/iMX6_Platform_SDK/output/mx6sdl/obds/smart_device_rev_a/obj/apps/obds/src/tests/video_dec_adv7180.o
                0x10061870                g_video_dec_test_name
 .rodata        0x10061904      0x180 /home/leon/git/swp-report/iMX6_Platform_SDK/output/mx6sdl/obds/smart_device_rev_a/obj/apps/obds/src/tests/weim_nor_flash_test.o
                0x10061904                g_eim_NOR_flash_test_name
 .rodata        0x10061a84       0x28 /home/leon/git/swp-report/iMX6_Platform_SDK/output/mx6sdl/obds/smart_device_rev_a/obj/sdk/common/ioexpander/test/max7310_test.o
                0x10061a84                g_max7310_i2c_device_id_test_name
 .rodata        0x10061aac       0x98 /home/leon/git/swp-report/iMX6_Platform_SDK/output/mx6sdl/obds/smart_device_rev_a/obj/sdk/common/pmic/pfuse/pf0100.o
                0x10061aac                g_pmic_pf0100_i2c_device_id_test_name
 .rodata        0x10061b44       0xe4 /home/leon/git/swp-report/iMX6_Platform_SDK/output/mx6sdl/obds/smart_device_rev_a/obj/sdk/drivers/audio/src/snd_card.o
 .rodata        0x10061c28       0x94 /home/leon/git/swp-report/iMX6_Platform_SDK/output/mx6sdl/obds/smart_device_rev_a/obj/sdk/drivers/camera/test/camera_test.o
                0x10061c28                g_camera_test_name
 .rodata        0x10061cbc      0x118 /home/leon/git/swp-report/iMX6_Platform_SDK/output/mx6sdl/obds/smart_device_rev_a/obj/sdk/drivers/camera/test/csi_test_mode.o
 .rodata        0x10061dd4      0x118 /home/leon/git/swp-report/iMX6_Platform_SDK/output/mx6sdl/obds/smart_device_rev_a/obj/sdk/drivers/camera/test/sensor_capture.o
 .rodata        0x10061eec       0x68 /home/leon/git/swp-report/iMX6_Platform_SDK/output/mx6sdl/obds/smart_device_rev_a/obj/sdk/drivers/epdc/test/epdc_test.o
                0x10061eec                g_epdc_test_name
 .rodata        0x10061f54       0x98 /home/leon/git/swp-report/iMX6_Platform_SDK/output/mx6sdl/obds/smart_device_rev_a/obj/sdk/drivers/hdmi/test/hdmi_test.o
 .rodata        0x10061fec     0x403c /home/leon/git/swp-report/iMX6_Platform_SDK/output/mx6sdl/obds/smart_device_rev_a/obj/sdk/drivers/hdmi/test/init_dma_data.o
                0x10061fec                gAudio_sample
 .rodata        0x10066028       0xa0 /home/leon/git/swp-report/iMX6_Platform_SDK/output/mx6sdl/obds/smart_device_rev_a/obj/sdk/drivers/ipu/test/ips_display.o
 .rodata        0x100660c8    0x2f2dc /home/leon/git/swp-report/iMX6_Platform_SDK/output/mx6sdl/obds/smart_device_rev_a/obj/sdk/drivers/ipu/test/ipu_image.o
                0x10077ee4                gImage_foretext
 .rodata        0x100953a4      0x194 /home/leon/git/swp-report/iMX6_Platform_SDK/output/mx6sdl/obds/smart_device_rev_a/obj/sdk/drivers/spi/test/imx_spi_nor_atmel.o
 .rodata        0x10095538      0x118 /home/leon/git/swp-report/iMX6_Platform_SDK/output/mx6sdl/obds/smart_device_rev_a/obj/sdk/drivers/spi/test/spi_nor_numonyx.o
 .rodata        0x10095650       0xb0 /home/leon/git/swp-report/iMX6_Platform_SDK/output/mx6sdl/obds/smart_device_rev_a/obj/sdk/drivers/uart/test/uart_test.o
                0x10095650                g_uart_test_name
 .rodata        0x10095700      0x218 /home/leon/git/swp-report/iMX6_Platform_SDK/output/mx6sdl/obds/smart_device_rev_a/obj/sdk/drivers/usb/test/usb0_host_test.o
 .rodata        0x10095918       0xa8 /home/leon/git/swp-report/iMX6_Platform_SDK/output/mx6sdl/obds/smart_device_rev_a/obj/sdk/drivers/usb/test/usb0_host_testmodes_test.o
 .rodata        0x100959c0      0x38c /home/leon/git/swp-report/iMX6_Platform_SDK/output/mx6sdl/obds/smart_device_rev_a/obj/sdk/drivers/usdhc/test/usdhc_test.o
 .rodata        0x10095d4c       0x34 /home/leon/git/swp-report/iMX6_Platform_SDK/output/mx6sdl/lib/libsdk.a(ccm_pll.o)
                0x10095d4c                PLL1_OUTPUT
                0x10095d50                PLL2_OUTPUT
                0x10095d64                PLL3_OUTPUT
                0x10095d78                PLL4_OUTPUT
                0x10095d7c                PLL5_OUTPUT
 .rodata        0x10095d80       0x64 /home/leon/git/swp-report/iMX6_Platform_SDK/output/mx6sdl/lib/libsdk.a(gic.o)
 .rodata        0x10095de4       0x20 /home/leon/git/swp-report/iMX6_Platform_SDK/output/mx6sdl/lib/libsdk.a(interrupt.o)
 .rodata        0x10095e04      0x154 /home/leon/git/swp-report/iMX6_Platform_SDK/output/mx6sdl/lib/libsdk.a(menu.o)
 .rodata        0x10095f58       0x50 /home/leon/git/swp-report/iMX6_Platform_SDK/output/mx6sdl/lib/libsdk.a(sdk_version.o)
                0x10095f58                k_sdk_version
                0x10095f5c                k_sdk_copyright
 .rodata        0x10095fa8       0xcc /home/leon/git/swp-report/iMX6_Platform_SDK/output/mx6sdl/lib/libsdk.a(system_util.o)
 .rodata        0x10096074       0xf4 /home/leon/git/swp-report/iMX6_Platform_SDK/output/mx6sdl/lib/libsdk.a(text_color.o)
                0x1009607c                g_TextAttributeDefault
                0x10096088                g_TextAttributeBold
                0x10096094                g_TextAttributeDim
                0x100960a0                g_TextAttributeUnderline
                0x100960ac                g_TextAttributeBlink
                0x100960b8                g_TextAttributeReverse
                0x100960c4                g_TextAttributeHidden
                0x100960d0                g_TextColorBlack
                0x100960dc                g_TextColorRed
                0x100960e8                g_TextColorGreen
                0x100960f4                g_TextColorYellow
                0x10096100                g_TextColorBlue
                0x1009610c                g_TextColorMagenta
                0x10096118                g_TextColorCyan
                0x10096124                g_TextColorWhite
                0x10096134                g_TextColorOrange
                0x10096144                g_TextColorLightBlue
                0x10096154                g_TextColorGray
                0x10096164                g_TextColorPurple
 .rodata        0x10096168       0x28 /home/leon/git/swp-report/iMX6_Platform_SDK/output/mx6sdl/lib/libsdk.a(cs42888.o)
 .rodata        0x10096190      0x1ac /home/leon/git/swp-report/iMX6_Platform_SDK/output/mx6sdl/lib/libsdk.a(imx-ssi.o)
 .rodata        0x1009633c       0x58 /home/leon/git/swp-report/iMX6_Platform_SDK/output/mx6sdl/lib/libsdk.a(imx_audmux.o)
 .rodata        0x10096394       0xf0 /home/leon/git/swp-report/iMX6_Platform_SDK/output/mx6sdl/lib/libsdk.a(imx_esai.o)
 .rodata        0x10096484       0xdc /home/leon/git/swp-report/iMX6_Platform_SDK/output/mx6sdl/lib/libsdk.a(imx_spdif.o)
 .rodata        0x10096560      0x200 /home/leon/git/swp-report/iMX6_Platform_SDK/output/mx6sdl/lib/libsdk.a(sgtl5000.o)
 .rodata        0x10096760      0x66c /home/leon/git/swp-report/iMX6_Platform_SDK/output/mx6sdl/lib/libsdk.a(wm8958_dac.o)
 .rodata        0x10096dcc      0x1a4 /home/leon/git/swp-report/iMX6_Platform_SDK/output/mx6sdl/lib/libsdk.a(wm8962.o)
 .rodata        0x10096f70      0x1f8 /home/leon/git/swp-report/iMX6_Platform_SDK/output/mx6sdl/lib/libsdk.a(board_id.o)
 .rodata        0x10097168       0xc4 /home/leon/git/swp-report/iMX6_Platform_SDK/output/mx6sdl/lib/libsdk.a(smd_sensor.o)
 .rodata        0x1009722c      0x1c4 /home/leon/git/swp-report/iMX6_Platform_SDK/output/mx6sdl/lib/libsdk.a(enet_drv.o)
 .rodata        0x100973f0       0x58 /home/leon/git/swp-report/iMX6_Platform_SDK/output/mx6sdl/lib/libsdk.a(mxc_epdc.o)
 .rodata        0x10097448       0xe0 /home/leon/git/swp-report/iMX6_Platform_SDK/output/mx6sdl/lib/libsdk.a(gpio.o)
 .rodata        0x10097528      0x380 /home/leon/git/swp-report/iMX6_Platform_SDK/output/mx6sdl/lib/libsdk.a(imx6sdl_gpio_map.o)
                0x10097528                k_gpio_mux_registers
 .rodata        0x100978a8       0xb4 /home/leon/git/swp-report/iMX6_Platform_SDK/output/mx6sdl/lib/libsdk.a(hdmi_tx.o)
 .rodata        0x1009795c       0x3c /home/leon/git/swp-report/iMX6_Platform_SDK/output/mx6sdl/lib/libsdk.a(hdmi_tx_audio.o)
 .rodata        0x10097998       0xec /home/leon/git/swp-report/iMX6_Platform_SDK/output/mx6sdl/lib/libsdk.a(hdmi_tx_phy.o)
 .rodata        0x10097a84      0x2c4 /home/leon/git/swp-report/iMX6_Platform_SDK/output/mx6sdl/lib/libsdk.a(imx_i2c.o)
 .rodata        0x10097d48       0x54 /home/leon/git/swp-report/iMX6_Platform_SDK/output/mx6sdl/lib/libsdk.a(ips_disp_panel.o)
 .rodata        0x10097d9c       0x74 /home/leon/git/swp-report/iMX6_Platform_SDK/output/mx6sdl/lib/libsdk.a(ipu_common.o)
 .rodata        0x10097e10       0xc0 /home/leon/git/swp-report/iMX6_Platform_SDK/output/mx6sdl/lib/libsdk.a(ipu_csi.o)
 .rodata        0x10097ed0       0x9c /home/leon/git/swp-report/iMX6_Platform_SDK/output/mx6sdl/lib/libsdk.a(ipu_dc.o)
 .rodata        0x10097f6c       0x18 /home/leon/git/swp-report/iMX6_Platform_SDK/output/mx6sdl/lib/libsdk.a(ipu_di.o)
 .rodata        0x10097f84       0x78 /home/leon/git/swp-report/iMX6_Platform_SDK/output/mx6sdl/lib/libsdk.a(ipu_dp.o)
 .rodata        0x10097ffc       0x38 /home/leon/git/swp-report/iMX6_Platform_SDK/output/mx6sdl/lib/libsdk.a(ipu_idmac.o)
 .rodata        0x10098034       0x68 /home/leon/git/swp-report/iMX6_Platform_SDK/output/mx6sdl/lib/libsdk.a(ldb.o)
 .rodata        0x1009809c       0x74 /home/leon/git/swp-report/iMX6_Platform_SDK/output/mx6sdl/lib/libsdk.a(ecspi.o)
 .rodata        0x10098110       0x94 /home/leon/git/swp-report/iMX6_Platform_SDK/output/mx6sdl/lib/libsdk.a(usb_common.o)
 .rodata        0x100981a4       0x28 /home/leon/git/swp-report/iMX6_Platform_SDK/output/mx6sdl/lib/libsdk.a(usbh_drv.o)
 .rodata        0x100981cc      0x1cc /home/leon/git/swp-report/iMX6_Platform_SDK/output/mx6sdl/lib/libsdk.a(usdhc.o)
 .rodata        0x10098398       0x1c /home/leon/git/swp-report/iMX6_Platform_SDK/output/mx6sdl/lib/libsdk.a(usdhc_host.o)
 .rodata        0x100983b4      0x20c /home/leon/git/swp-report/iMX6_Platform_SDK/output/mx6sdl/lib/libsdk.a(usdhc_mmc.o)
 .rodata        0x100985c0       0x58 /home/leon/git/swp-report/iMX6_Platform_SDK/output/mx6sdl/lib/libsdk.a(usdhc_sd.o)
                0x100985c0                sd_ocr_value
                0x100985cc                sd_if_cmd_arg
 .rodata        0x10098618       0x10 /home/leon/git/swp-report/iMX6_Platform_SDK/output/mx6sdl/lib/libsdk.a(hdmi_common.o)
 .rodata        0x10098628      0x1bc /home/leon/git/swp-report/iMX6_Platform_SDK/output/mx6sdl/lib/libsdk.a(ipu_ic.o)
 .rodata        0x100987e4      0x230 /home/leon/git/swp-report/iMX6_Platform_SDK/output/mx6sdl/lib/libsdk.a(abort_handler.o)
 .rodata        0x10098a14       0x64 /home/leon/git/swp-report/iMX6_Platform_SDK/output/mx6sdl/lib/libboard_smart_device_rev_a.a(board_display.o)
 .rodata        0x10098a78       0x28 /home/leon/git/swp-report/iMX6_Platform_SDK/output/mx6sdl/lib/libboard_smart_device_rev_a.a(board_hdmi.o)
 .rodata        0x10098aa0       0x70 /home/leon/git/swp-report/iMX6_Platform_SDK/output/mx6sdl/lib/libboard_smart_device_rev_a.a(board_i2c.o)
                0x10098aa0                g_wm8958_i2c_device
                0x10098aa8                g_wm8962_i2c_device
                0x10098ab0                g_sgtl5000_i2c_device
                0x10098ab8                g_cs42888_i2c_device
                0x10098ac0                g_pmic_ltc3589_i2c_device
                0x10098ac8                g_pmic_da9053_i2c_device
                0x10098ad0                g_pmic_max17135_i2c_device
                0x10098ad8                g_pmic_pf0100_i2c_device
                0x10098ae0                g_adv7180_i2c_device
                0x10098ae8                g_os81050_i2c_device
                0x10098af0                g_p1003_tsc_i2c_device
                0x10098af8                g_at24cx_i2c_device
                0x10098b00                g_si476x_i2c_device
                0x10098b08                g_mma8451_i2c_device
 .rodata        0x10098b10       0x84 /home/leon/git/swp-report/iMX6_Platform_SDK/output/mx6sdl/lib/libboard_smart_device_rev_a.a(ecspi_iomux_config.o)
 .rodata        0x10098b94       0x84 /home/leon/git/swp-report/iMX6_Platform_SDK/output/mx6sdl/lib/libboard_smart_device_rev_a.a(i2c_iomux_config.o)
 .rodata        0x10098c18       0x84 /home/leon/git/swp-report/iMX6_Platform_SDK/output/mx6sdl/lib/libboard_smart_device_rev_a.a(ipu_iomux_config.o)
 .rodata        0x10098c9c       0x84 /home/leon/git/swp-report/iMX6_Platform_SDK/output/mx6sdl/lib/libboard_smart_device_rev_a.a(uart_iomux_config.o)
 .rodata        0x10098d20       0x84 /home/leon/git/swp-report/iMX6_Platform_SDK/output/mx6sdl/lib/libboard_smart_device_rev_a.a(usdhc_iomux_config.o)
 .rodata.str1.4
                0x10098da4       0x3f /home/leon/riotboard/arm-2012.09/bin/../arm-none-eabi/lib//libc.a(lib_a-assert.o)
                                 0x44 (size before relaxing)
 *fill*         0x10098de3        0x1 
 .rodata        0x10098de4        0x4 /home/leon/riotboard/arm-2012.09/bin/../arm-none-eabi/lib//libc.a(lib_a-impure.o)
                0x10098de4                _global_impure_ptr
 .rodata.str1.4
                0x10098de8        0x2 /home/leon/riotboard/arm-2012.09/bin/../arm-none-eabi/lib//libc.a(lib_a-impure.o)
                                  0x4 (size before relaxing)
 *fill*         0x10098dea        0x2 
 .rodata        0x10098dec       0x20 /home/leon/riotboard/arm-2012.09/bin/../arm-none-eabi/lib//libc.a(lib_a-svfprintf.o)
 .rodata.str1.4
                0x10098e0c       0x42 /home/leon/riotboard/arm-2012.09/bin/../arm-none-eabi/lib//libc.a(lib_a-svfprintf.o)
                                 0x44 (size before relaxing)
 *fill*         0x10098e4e        0x2 
 .rodata        0x10098e50       0x20 /home/leon/riotboard/arm-2012.09/bin/../arm-none-eabi/lib//libc.a(lib_a-vfiprintf.o)
 .rodata.str1.4
                0x00000000       0x30 /home/leon/riotboard/arm-2012.09/bin/../arm-none-eabi/lib//libc.a(lib_a-vfiprintf.o)
 .rodata        0x10098e70       0x20 /home/leon/riotboard/arm-2012.09/bin/../arm-none-eabi/lib//libc.a(lib_a-vfprintf.o)
 .rodata.str1.4
                0x00000000       0x44 /home/leon/riotboard/arm-2012.09/bin/../arm-none-eabi/lib//libc.a(lib_a-vfprintf.o)
 .rodata        0x10098e90      0x104 /home/leon/riotboard/arm-2012.09/bin/../arm-none-eabi/lib//libc.a(lib_a-ctype_.o)
                0x10098e90                _ctype_
 .rodata.str1.4
                0x10098f94       0x10 /home/leon/riotboard/arm-2012.09/bin/../arm-none-eabi/lib//libc.a(lib_a-dtoa.o)
                                 0x14 (size before relaxing)
 .rodata.str1.4
                0x10098fa4        0xc /home/leon/riotboard/arm-2012.09/bin/../arm-none-eabi/lib//libc.a(lib_a-locale.o)
                                 0x14 (size before relaxing)
 .rodata        0x10098fb0      0x128 /home/leon/riotboard/arm-2012.09/bin/../arm-none-eabi/lib//libc.a(lib_a-mprec.o)
                0x10098fc0                __mprec_tens
                0x10099088                __mprec_tinytens
                0x100990b0                __mprec_bigtens
 .rodata        0x100990d8       0x20 /home/leon/riotboard/arm-2012.09/bin/../arm-none-eabi/lib//libc.a(lib_a-svfiprintf.o)
 .rodata.str1.4
                0x00000000       0x30 /home/leon/riotboard/arm-2012.09/bin/../arm-none-eabi/lib//libc.a(lib_a-svfiprintf.o)
 .rodata        0x100990f8       0x20 /home/leon/git/swp-report/iMX6_Platform_SDK/output/mx6sdl/lib/libsdk.a(runtime_support.o)
                0x10099118                . = ALIGN (0x4)
 *(.init)
 .init          0x10099118        0xc /home/leon/riotboard/arm-2012.09/bin/../lib/gcc/arm-none-eabi/4.7.2//crti.o
                0x10099118                _init
 .init          0x10099124        0xc /home/leon/riotboard/arm-2012.09/bin/../lib/gcc/arm-none-eabi/4.7.2//crtn.o
                0x10099130                . = ALIGN (0x4)
                0x10099130                __init_array_start = .
 *(SORT(.init_array.*))
 *(.init_array)
 .init_array    0x10099130        0x4 /home/leon/riotboard/arm-2012.09/bin/../lib/gcc/arm-none-eabi/4.7.2//crtbegin.o
                0x10099134                __init_array_end = .
                0x10099134                . = ALIGN (0x4)
 *(.fini)
 .fini          0x10099134        0xc /home/leon/riotboard/arm-2012.09/bin/../lib/gcc/arm-none-eabi/4.7.2//crti.o
                0x10099134                _fini
 .fini          0x10099140        0xc /home/leon/riotboard/arm-2012.09/bin/../lib/gcc/arm-none-eabi/4.7.2//crtn.o
                0x1009914c                . = ALIGN (0x4)
                0x1009914c                __fini_array_start = .
 *(.fini_array)
 .fini_array    0x1009914c        0x4 /home/leon/riotboard/arm-2012.09/bin/../lib/gcc/arm-none-eabi/4.7.2//crtbegin.o
 *(SORT(.fini_array.*))
                0x10099150                __fini_array_end = .
                0x10099150                PROVIDE (__exidx_start, .)

.eh_frame       0x10099150        0x4
 .eh_frame      0x10099150        0x0 /home/leon/riotboard/arm-2012.09/bin/../lib/gcc/arm-none-eabi/4.7.2//crtbegin.o
 .eh_frame      0x10099150        0x4 /home/leon/riotboard/arm-2012.09/bin/../lib/gcc/arm-none-eabi/4.7.2//crtend.o

.ARM.exidx      0x10099154        0x8
 *(.ARM.exidx* .gnu.linkonce.armexidx.*)
 .ARM.exidx.startup
                0x10099154        0x8 /home/leon/git/swp-report/iMX6_Platform_SDK/output/mx6sdl/lib/libsdk.a(startup.o)
 .ARM.exidx     0x1009915c        0x0 /home/leon/riotboard/arm-2012.09/bin/../lib/gcc/arm-none-eabi/4.7.2//libgcc.a(_divdi3.o)
                                  0x8 (size before relaxing)
 .ARM.exidx     0x1009915c        0x0 /home/leon/riotboard/arm-2012.09/bin/../lib/gcc/arm-none-eabi/4.7.2//libgcc.a(_udivdi3.o)
                                  0x8 (size before relaxing)
                0x1009915c                PROVIDE (__exidx_end, .)

.rel.dyn        0x1009915c        0x0
 .rel.iplt      0x00000000        0x0 /home/leon/riotboard/arm-2012.09/bin/../lib/gcc/arm-none-eabi/4.7.2//crtbegin.o

.data           0x10099160   0x14b448
 *(.data .data.* .gnu.linkonce.d.*)
 .data          0x10099160        0x4 /home/leon/riotboard/arm-2012.09/bin/../lib/gcc/arm-none-eabi/4.7.2//crtbegin.o
                0x10099160                __dso_handle
 .data          0x10099164        0x0 /home/leon/riotboard/arm-2012.09/bin/../lib/gcc/arm-none-eabi/4.7.2//crti.o
 .data          0x10099164        0x0 /home/leon/riotboard/arm-2012.09/bin/../lib/gcc/arm-none-eabi/4.7.2//crtend.o
 .data          0x10099164        0x0 /home/leon/riotboard/arm-2012.09/bin/../lib/gcc/arm-none-eabi/4.7.2//crtn.o
 .data          0x10099164        0x0 /home/leon/git/swp-report/iMX6_Platform_SDK/output/mx6sdl/obds/smart_device_rev_a/obj/apps/common/ivt.o
 .data          0x10099164        0x0 /home/leon/git/swp-report/iMX6_Platform_SDK/output/mx6sdl/obds/smart_device_rev_a/obj/apps/common/platform_init.o
 .data          0x10099164        0x0 /home/leon/git/swp-report/iMX6_Platform_SDK/output/mx6sdl/obds/smart_device_rev_a/obj/apps/common/print_clock_info.o
 .data          0x10099164        0x0 /home/leon/git/swp-report/iMX6_Platform_SDK/output/mx6sdl/obds/smart_device_rev_a/obj/apps/common/print_version.o
 .data          0x10099164        0x4 /home/leon/git/swp-report/iMX6_Platform_SDK/output/mx6sdl/obds/smart_device_rev_a/obj/apps/obds/src/obds.o
                0x10099164                auto_run_enable
 .data          0x10099168        0x8 /home/leon/git/swp-report/iMX6_Platform_SDK/output/mx6sdl/obds/smart_device_rev_a/obj/apps/obds/src/obds_utils.o
                0x10099168                soc_sbmr1
                0x1009916c                soc_sbmr2
 .data          0x10099170        0x0 /home/leon/git/swp-report/iMX6_Platform_SDK/output/mx6sdl/obds/smart_device_rev_a/obj/apps/obds/src/tests/android_buttons_test.o
 .data          0x10099170        0x0 /home/leon/git/swp-report/iMX6_Platform_SDK/output/mx6sdl/obds/smart_device_rev_a/obj/apps/obds/src/tests/audio_esai_test.o
 .data          0x10099170    0x275f4 /home/leon/git/swp-report/iMX6_Platform_SDK/output/mx6sdl/obds/smart_device_rev_a/obj/apps/obds/src/tests/audio_ssi_test.o
                0x10099170                wav_data
                0x100c0738                pcm_para
                0x100c0744                pcm_music
                0x100c0754                pcm_record
 .data          0x100c0764        0x0 /home/leon/git/swp-report/iMX6_Platform_SDK/output/mx6sdl/obds/smart_device_rev_a/obj/apps/obds/src/tests/ddr_test.o
 .data          0x100c0764        0x0 /home/leon/git/swp-report/iMX6_Platform_SDK/output/mx6sdl/obds/smart_device_rev_a/obj/apps/obds/src/tests/deserializer_ds90ur124.o
 .data          0x100c0764    0x11e38 /home/leon/git/swp-report/iMX6_Platform_SDK/output/mx6sdl/obds/smart_device_rev_a/obj/apps/obds/src/tests/display_test.o
                0x100c0764                gImage_fsl
 .data          0x100d259c        0x8 /home/leon/git/swp-report/iMX6_Platform_SDK/output/mx6sdl/obds/smart_device_rev_a/obj/apps/obds/src/tests/enet_mx6dldq_test.o
 .data          0x100d25a4        0x0 /home/leon/git/swp-report/iMX6_Platform_SDK/output/mx6sdl/obds/smart_device_rev_a/obj/apps/obds/src/tests/flexcan_test.o
 .data          0x100d25a4        0x0 /home/leon/git/swp-report/iMX6_Platform_SDK/output/mx6sdl/obds/smart_device_rev_a/obj/apps/obds/src/tests/fm_tuner_si476x_test.o
 .data          0x100d25a4        0x0 /home/leon/git/swp-report/iMX6_Platform_SDK/output/mx6sdl/obds/smart_device_rev_a/obj/apps/obds/src/tests/gpio_led.o
 .data          0x100d25a4        0x4 /home/leon/git/swp-report/iMX6_Platform_SDK/output/mx6sdl/obds/smart_device_rev_a/obj/apps/obds/src/tests/gps_test.o
 .data          0x100d25a8        0x0 /home/leon/git/swp-report/iMX6_Platform_SDK/output/mx6sdl/obds/smart_device_rev_a/obj/apps/obds/src/tests/i2c_check_light_sensor_isl29023.o
 .data          0x100d25a8        0x0 /home/leon/git/swp-report/iMX6_Platform_SDK/output/mx6sdl/obds/smart_device_rev_a/obj/apps/obds/src/tests/i2c_device_barometer_ppl3115.o
 .data          0x100d25a8        0x0 /home/leon/git/swp-report/iMX6_Platform_SDK/output/mx6sdl/obds/smart_device_rev_a/obj/apps/obds/src/tests/i2c_device_check_cs42888.o
 .data          0x100d25a8        0x0 /home/leon/git/swp-report/iMX6_Platform_SDK/output/mx6sdl/obds/smart_device_rev_a/obj/apps/obds/src/tests/i2c_device_digital_compass_mag3110.o
 .data          0x100d25a8        0x0 /home/leon/git/swp-report/iMX6_Platform_SDK/output/mx6sdl/obds/smart_device_rev_a/obj/apps/obds/src/tests/i2c_device_digital_compass_mag3112.o
 .data          0x100d25a8        0x0 /home/leon/git/swp-report/iMX6_Platform_SDK/output/mx6sdl/obds/smart_device_rev_a/obj/apps/obds/src/tests/i2c_device_id_check_mma8450.o
 .data          0x100d25a8        0x0 /home/leon/git/swp-report/iMX6_Platform_SDK/output/mx6sdl/obds/smart_device_rev_a/obj/apps/obds/src/tests/i2c_device_id_check_mma8451.o
 .data          0x100d25a8        0x0 /home/leon/git/swp-report/iMX6_Platform_SDK/output/mx6sdl/obds/smart_device_rev_a/obj/apps/obds/src/tests/i2c_device_id_check_p1003_tsc.o
 .data          0x100d25a8        0x0 /home/leon/git/swp-report/iMX6_Platform_SDK/output/mx6sdl/obds/smart_device_rev_a/obj/apps/obds/src/tests/i2c_device_temp_sensor_emc1046.o
 .data          0x100d25a8        0x0 /home/leon/git/swp-report/iMX6_Platform_SDK/output/mx6sdl/obds/smart_device_rev_a/obj/apps/obds/src/tests/i2c_device_zigbee_mc1323.o
 .data          0x100d25a8        0x0 /home/leon/git/swp-report/iMX6_Platform_SDK/output/mx6sdl/obds/smart_device_rev_a/obj/apps/obds/src/tests/i2c_eeprom_at24cxx_test.o
 .data          0x100d25a8        0x8 /home/leon/git/swp-report/iMX6_Platform_SDK/output/mx6sdl/obds/smart_device_rev_a/obj/apps/obds/src/tests/imx_spi_nor_test.o
                0x100d25a8                AT45DB321D_id
                0x100d25ac                M25P32_id
 .data          0x100d25b0        0x8 /home/leon/git/swp-report/iMX6_Platform_SDK/output/mx6sdl/obds/smart_device_rev_a/obj/apps/obds/src/tests/mlb_os81050.o
 .data          0x100d25b8        0x0 /home/leon/git/swp-report/iMX6_Platform_SDK/output/mx6sdl/obds/smart_device_rev_a/obj/apps/obds/src/tests/mmcsd_test.o
 .data          0x100d25b8        0x0 /home/leon/git/swp-report/iMX6_Platform_SDK/output/mx6sdl/obds/smart_device_rev_a/obj/apps/obds/src/tests/pmic_da9053.o
 .data          0x100d25b8        0x0 /home/leon/git/swp-report/iMX6_Platform_SDK/output/mx6sdl/obds/smart_device_rev_a/obj/apps/obds/src/tests/pmic_lt3589.o
 .data          0x100d25b8        0x0 /home/leon/git/swp-report/iMX6_Platform_SDK/output/mx6sdl/obds/smart_device_rev_a/obj/apps/obds/src/tests/pmic_max17135.o
 .data          0x100d25b8        0x0 /home/leon/git/swp-report/iMX6_Platform_SDK/output/mx6sdl/obds/smart_device_rev_a/obj/apps/obds/src/tests/pmic_mc13892.o
 .data          0x100d25b8        0x0 /home/leon/git/swp-report/iMX6_Platform_SDK/output/mx6sdl/obds/smart_device_rev_a/obj/apps/obds/src/tests/program_board_id.o
 .data          0x100d25b8        0x0 /home/leon/git/swp-report/iMX6_Platform_SDK/output/mx6sdl/obds/smart_device_rev_a/obj/apps/obds/src/tests/program_mac_address.o
 .data          0x100d25b8        0x0 /home/leon/git/swp-report/iMX6_Platform_SDK/output/mx6sdl/obds/smart_device_rev_a/obj/apps/obds/src/tests/snvs_srtc_test.o
 .data          0x100d25b8        0x0 /home/leon/git/swp-report/iMX6_Platform_SDK/output/mx6sdl/obds/smart_device_rev_a/obj/apps/obds/src/tests/touch_button_test.o
 .data          0x100d25b8        0x0 /home/leon/git/swp-report/iMX6_Platform_SDK/output/mx6sdl/obds/smart_device_rev_a/obj/apps/obds/src/tests/touch_screen.o
 .data          0x100d25b8        0x0 /home/leon/git/swp-report/iMX6_Platform_SDK/output/mx6sdl/obds/smart_device_rev_a/obj/apps/obds/src/tests/touch_screen_max11801.o
 .data          0x100d25b8        0x0 /home/leon/git/swp-report/iMX6_Platform_SDK/output/mx6sdl/obds/smart_device_rev_a/obj/apps/obds/src/tests/usb_tests_obds.o
 .data          0x100d25b8        0x0 /home/leon/git/swp-report/iMX6_Platform_SDK/output/mx6sdl/obds/smart_device_rev_a/obj/apps/obds/src/tests/video_dec_ARD_MB_reset_button.o
 .data          0x100d25b8        0x0 /home/leon/git/swp-report/iMX6_Platform_SDK/output/mx6sdl/obds/smart_device_rev_a/obj/apps/obds/src/tests/video_dec_ARD_MBrst_from_cpu_expander.o
 .data          0x100d25b8        0x0 /home/leon/git/swp-report/iMX6_Platform_SDK/output/mx6sdl/obds/smart_device_rev_a/obj/apps/obds/src/tests/video_dec_adv7180.o
 .data          0x100d25b8        0x0 /home/leon/git/swp-report/iMX6_Platform_SDK/output/mx6sdl/obds/smart_device_rev_a/obj/apps/obds/src/tests/weim_nor_flash_test.o
 .data          0x100d25b8        0x0 /home/leon/git/swp-report/iMX6_Platform_SDK/output/mx6sdl/obds/smart_device_rev_a/obj/sdk/common/ioexpander/test/max7310_test.o
 .data          0x100d25b8        0x0 /home/leon/git/swp-report/iMX6_Platform_SDK/output/mx6sdl/obds/smart_device_rev_a/obj/sdk/common/pmic/pfuse/pf0100.o
 .data          0x100d25b8       0x68 /home/leon/git/swp-report/iMX6_Platform_SDK/output/mx6sdl/obds/smart_device_rev_a/obj/sdk/drivers/audio/src/snd_card.o
                0x100d25d0                snd_card_esai
                0x100d25e0                snd_card_spdif
                0x100d25f0                snd_card_ssi_sgtl5000
                0x100d2600                snd_card_ssi_wm8958
                0x100d2610                snd_card_ssi_wm8962
 .data          0x100d2620        0x0 /home/leon/git/swp-report/iMX6_Platform_SDK/output/mx6sdl/obds/smart_device_rev_a/obj/sdk/drivers/camera/test/adv7180_capture.o
 .data          0x100d2620       0x10 /home/leon/git/swp-report/iMX6_Platform_SDK/output/mx6sdl/obds/smart_device_rev_a/obj/sdk/drivers/camera/test/camera_test.o
 .data          0x100d2630        0x0 /home/leon/git/swp-report/iMX6_Platform_SDK/output/mx6sdl/obds/smart_device_rev_a/obj/sdk/drivers/camera/test/csi_test_mode.o
 .data          0x100d2630        0x0 /home/leon/git/swp-report/iMX6_Platform_SDK/output/mx6sdl/obds/smart_device_rev_a/obj/sdk/drivers/camera/test/sensor_capture.o
 .data          0x100d2630        0x0 /home/leon/git/swp-report/iMX6_Platform_SDK/output/mx6sdl/obds/smart_device_rev_a/obj/sdk/drivers/epdc/test/epdc_test.o
 .data          0x100d2630        0x0 /home/leon/git/swp-report/iMX6_Platform_SDK/output/mx6sdl/obds/smart_device_rev_a/obj/sdk/drivers/hdmi/test/hdmi_test.o
 .data          0x100d2630        0x0 /home/leon/git/swp-report/iMX6_Platform_SDK/output/mx6sdl/obds/smart_device_rev_a/obj/sdk/drivers/hdmi/test/init_dma_data.o
 .data          0x100d2630        0x0 /home/leon/git/swp-report/iMX6_Platform_SDK/output/mx6sdl/obds/smart_device_rev_a/obj/sdk/drivers/ipu/test/ips_display.o
 .data          0x100d2630        0x0 /home/leon/git/swp-report/iMX6_Platform_SDK/output/mx6sdl/obds/smart_device_rev_a/obj/sdk/drivers/ipu/test/ipu_image.o
 .data          0x100d2630        0x0 /home/leon/git/swp-report/iMX6_Platform_SDK/output/mx6sdl/obds/smart_device_rev_a/obj/sdk/drivers/spi/test/imx_spi_nor_atmel.o
 .data          0x100d2630        0x0 /home/leon/git/swp-report/iMX6_Platform_SDK/output/mx6sdl/obds/smart_device_rev_a/obj/sdk/drivers/spi/test/spi_nor_numonyx.o
 .data          0x100d2630        0x4 /home/leon/git/swp-report/iMX6_Platform_SDK/output/mx6sdl/obds/smart_device_rev_a/obj/sdk/drivers/uart/test/uart_test.o
 .data          0x100d2634        0x0 /home/leon/git/swp-report/iMX6_Platform_SDK/output/mx6sdl/obds/smart_device_rev_a/obj/sdk/drivers/usb/test/usb0_host_test.o
 .data          0x100d2634       0x28 /home/leon/git/swp-report/iMX6_Platform_SDK/output/mx6sdl/obds/smart_device_rev_a/obj/sdk/drivers/usb/test/usb0_host_testmodes_test.o
 .data          0x100d265c       0x68 /home/leon/git/swp-report/iMX6_Platform_SDK/output/mx6sdl/obds/smart_device_rev_a/obj/sdk/drivers/usdhc/test/usdhc_test.o
 .data          0x100d26c4        0x0 /home/leon/git/swp-report/iMX6_Platform_SDK/output/mx6sdl/lib/libsdk.a(max7310.o)
 .data          0x100d26c4        0x0 /home/leon/git/swp-report/iMX6_Platform_SDK/output/mx6sdl/lib/libsdk.a(ccm_pll.o)
 .data          0x100d26c4        0x0 /home/leon/git/swp-report/iMX6_Platform_SDK/output/mx6sdl/lib/libsdk.a(cortexA9.o)
 .data          0x100d26c4        0x0 /home/leon/git/swp-report/iMX6_Platform_SDK/output/mx6sdl/lib/libsdk.a(gic.o)
 .data          0x100d26c4        0x0 /home/leon/git/swp-report/iMX6_Platform_SDK/output/mx6sdl/lib/libsdk.a(interrupt.o)
 .data          0x100d26c4        0x0 /home/leon/git/swp-report/iMX6_Platform_SDK/output/mx6sdl/lib/libsdk.a(mmu.o)
 .data          0x100d26c4        0x0 /home/leon/git/swp-report/iMX6_Platform_SDK/output/mx6sdl/lib/libsdk.a(startup.o)
 .data          0x100d26c4        0x0 /home/leon/git/swp-report/iMX6_Platform_SDK/output/mx6sdl/lib/libsdk.a(vectors.o)
 .data          0x100d26c4        0x4 /home/leon/git/swp-report/iMX6_Platform_SDK/output/mx6sdl/lib/libsdk.a(menu.o)
 .data          0x100d26c8        0x0 /home/leon/git/swp-report/iMX6_Platform_SDK/output/mx6sdl/lib/libsdk.a(sdk_version.o)
 .data          0x100d26c8        0x0 /home/leon/git/swp-report/iMX6_Platform_SDK/output/mx6sdl/lib/libsdk.a(system_util.o)
 .data          0x100d26c8        0x4 /home/leon/git/swp-report/iMX6_Platform_SDK/output/mx6sdl/lib/libsdk.a(text_color.o)
                0x100d26c8                is_color_supported
 .data          0x100d26cc       0x28 /home/leon/git/swp-report/iMX6_Platform_SDK/output/mx6sdl/lib/libsdk.a(cs42888.o)
                0x100d26cc                cs42888_ops
                0x100d26e4                cs42888
 .data          0x100d26f4       0x60 /home/leon/git/swp-report/iMX6_Platform_SDK/output/mx6sdl/lib/libsdk.a(imx-ssi.o)
                0x100d270c                imx_ssi_1
                0x100d2724                imx_ssi_2
                0x100d273c                imx_ssi_3
 .data          0x100d2754        0x0 /home/leon/git/swp-report/iMX6_Platform_SDK/output/mx6sdl/lib/libsdk.a(imx_audmux.o)
 .data          0x100d2754       0x30 /home/leon/git/swp-report/iMX6_Platform_SDK/output/mx6sdl/lib/libsdk.a(imx_esai.o)
                0x100d276c                imx_esai_1
 .data          0x100d2784       0x30 /home/leon/git/swp-report/iMX6_Platform_SDK/output/mx6sdl/lib/libsdk.a(imx_spdif.o)
                0x100d279c                imx_spdif
 .data          0x100d27b4       0x28 /home/leon/git/swp-report/iMX6_Platform_SDK/output/mx6sdl/lib/libsdk.a(sgtl5000.o)
                0x100d27b4                sgtl5000_ops
                0x100d27cc                sgtl5000
 .data          0x100d27dc       0x28 /home/leon/git/swp-report/iMX6_Platform_SDK/output/mx6sdl/lib/libsdk.a(wm8958_dac.o)
                0x100d27dc                wm8958_ops
                0x100d27f4                wm8958
 .data          0x100d2804       0x28 /home/leon/git/swp-report/iMX6_Platform_SDK/output/mx6sdl/lib/libsdk.a(wm8962.o)
                0x100d2804                wm8962_ops
                0x100d281c                wm8962
 .data          0x100d282c        0x0 /home/leon/git/swp-report/iMX6_Platform_SDK/output/mx6sdl/lib/libsdk.a(board_id.o)
 .data          0x100d282c       0x30 /home/leon/git/swp-report/iMX6_Platform_SDK/output/mx6sdl/lib/libsdk.a(smd_sensor.o)
                0x100d282c                ov5642_strobe_on
 .data          0x100d285c        0x0 /home/leon/git/swp-report/iMX6_Platform_SDK/output/mx6sdl/lib/libsdk.a(enet_drv.o)
 .data          0x100d285c    0xf2cf0 /home/leon/git/swp-report/iMX6_Platform_SDK/output/mx6sdl/lib/libsdk.a(mxc_epdc.o)
                0x100d285c                wv_data
                0x101a3a3c                fsl_gray_600x230
 .data          0x101c554c        0x0 /home/leon/git/swp-report/iMX6_Platform_SDK/output/mx6sdl/lib/libsdk.a(gpio.o)
 .data          0x101c554c        0x0 /home/leon/git/swp-report/iMX6_Platform_SDK/output/mx6sdl/lib/libsdk.a(imx6sdl_gpio_map.o)
 .data          0x101c554c        0x0 /home/leon/git/swp-report/iMX6_Platform_SDK/output/mx6sdl/lib/libsdk.a(hdmi_tx.o)
 .data          0x101c554c        0x0 /home/leon/git/swp-report/iMX6_Platform_SDK/output/mx6sdl/lib/libsdk.a(hdmi_tx_audio.o)
 .data          0x101c554c        0x0 /home/leon/git/swp-report/iMX6_Platform_SDK/output/mx6sdl/lib/libsdk.a(hdmi_tx_phy.o)
 .data          0x101c554c        0x0 /home/leon/git/swp-report/iMX6_Platform_SDK/output/mx6sdl/lib/libsdk.a(imx_i2c.o)
 .data          0x101c554c      0x368 /home/leon/git/swp-report/iMX6_Platform_SDK/output/mx6sdl/lib/libsdk.a(ips_disp_panel.o)
                0x101c554c                disp_dev_list
                0x101c58b0                num_of_panels
 .data          0x101c58b4        0x0 /home/leon/git/swp-report/iMX6_Platform_SDK/output/mx6sdl/lib/libsdk.a(ipu_common.o)
 .data          0x101c58b4        0x0 /home/leon/git/swp-report/iMX6_Platform_SDK/output/mx6sdl/lib/libsdk.a(ipu_csi.o)
 .data          0x101c58b4        0x0 /home/leon/git/swp-report/iMX6_Platform_SDK/output/mx6sdl/lib/libsdk.a(ipu_dc.o)
 .data          0x101c58b4        0x0 /home/leon/git/swp-report/iMX6_Platform_SDK/output/mx6sdl/lib/libsdk.a(ipu_di.o)
 .data          0x101c58b4        0x0 /home/leon/git/swp-report/iMX6_Platform_SDK/output/mx6sdl/lib/libsdk.a(ipu_dmfc.o)
 .data          0x101c58b4        0x0 /home/leon/git/swp-report/iMX6_Platform_SDK/output/mx6sdl/lib/libsdk.a(ipu_dp.o)
 .data          0x101c58b4        0x0 /home/leon/git/swp-report/iMX6_Platform_SDK/output/mx6sdl/lib/libsdk.a(ipu_idmac.o)
 .data          0x101c58b4        0x0 /home/leon/git/swp-report/iMX6_Platform_SDK/output/mx6sdl/lib/libsdk.a(ipu_vdi.o)
 .data          0x101c58b4        0x0 /home/leon/git/swp-report/iMX6_Platform_SDK/output/mx6sdl/lib/libsdk.a(ldb.o)
 .data          0x101c58b4        0x0 /home/leon/git/swp-report/iMX6_Platform_SDK/output/mx6sdl/lib/libsdk.a(ocotp.o)
 .data          0x101c58b4        0x0 /home/leon/git/swp-report/iMX6_Platform_SDK/output/mx6sdl/lib/libsdk.a(ecspi.o)
 .data          0x101c58b4        0x0 /home/leon/git/swp-report/iMX6_Platform_SDK/output/mx6sdl/lib/libsdk.a(timer.o)
 .data          0x101c58b4        0x0 /home/leon/git/swp-report/iMX6_Platform_SDK/output/mx6sdl/lib/libsdk.a(imx_uart.o)
 .data          0x101c58b4        0x0 /home/leon/git/swp-report/iMX6_Platform_SDK/output/mx6sdl/lib/libsdk.a(usb_common.o)
 .data          0x101c58b4        0x0 /home/leon/git/swp-report/iMX6_Platform_SDK/output/mx6sdl/lib/libsdk.a(usbh_drv.o)
 .data          0x101c58b4       0x58 /home/leon/git/swp-report/iMX6_Platform_SDK/output/mx6sdl/lib/libsdk.a(usdhc.o)
                0x101c58b4                usdhc_device
                0x101c5904                card_detect_test_en
                0x101c5908                write_protect_test_en
 .data          0x101c590c        0x0 /home/leon/git/swp-report/iMX6_Platform_SDK/output/mx6sdl/lib/libsdk.a(usdhc_host.o)
 .data          0x101c590c        0x4 /home/leon/git/swp-report/iMX6_Platform_SDK/output/mx6sdl/lib/libsdk.a(usdhc_mmc.o)
 .data          0x101c5910        0x0 /home/leon/git/swp-report/iMX6_Platform_SDK/output/mx6sdl/lib/libsdk.a(usdhc_sd.o)
 .data          0x101c5910        0x4 /home/leon/git/swp-report/iMX6_Platform_SDK/output/mx6sdl/lib/libsdk.a(arm_abort.o)
 .data          0x101c5914        0x0 /home/leon/git/swp-report/iMX6_Platform_SDK/output/mx6sdl/lib/libsdk.a(armv7_cache.o)
 .data          0x101c5914    0x1e3c0 /home/leon/git/swp-report/iMX6_Platform_SDK/output/mx6sdl/lib/libsdk.a(camera_profile.o)
                0x101c5914                g_ov3640_sensor_detection
                0x101c5934                g_ov5640_sensor_detection
                0x101c5954                g_ov5642_sensor_detection
                0x101c5974                g_mt9p111_sensor_detection
                0x101c5984                g_ov3640_mode_vga_640_480_30fps
                0x101c60e4                g_ov5640_mode_vga_640_480_30fps
                0x101c7064                g_ov5642_mode_vga_640_480_30fps
                0x101c8f84                g_ov5642_af_firmware
                0x101dfc54                g_ov5642_af_trigger
                0x101dfc74                g_ov5642_af_ready
                0x101dfc84                g_mt9p111_mode_vga_640_480_30fps
                0x101e33c4                g_mt9p111_af_firmware
                0x101e3b04                g_mt9p111_af_trigger
                0x101e3b34                g_mt9p111_af_ready
                0x101e3b44                g_camera_modes
                0x101e3b64                g_camera_profiles
 .data          0x101e3cd4        0x0 /home/leon/git/swp-report/iMX6_Platform_SDK/output/mx6sdl/lib/libsdk.a(hdmi_common.o)
 .data          0x101e3cd4        0x0 /home/leon/git/swp-report/iMX6_Platform_SDK/output/mx6sdl/lib/libsdk.a(ipu_ic.o)
 .data          0x101e3cd4        0x0 /home/leon/git/swp-report/iMX6_Platform_SDK/output/mx6sdl/lib/libsdk.a(epit.o)
 .data          0x101e3cd4        0x0 /home/leon/git/swp-report/iMX6_Platform_SDK/output/mx6sdl/lib/libsdk.a(mx6x_usb.o)
 .data          0x101e3cd4        0x0 /home/leon/git/swp-report/iMX6_Platform_SDK/output/mx6sdl/lib/libsdk.a(abort_handler.o)
 .data          0x101e3cd4        0x0 /home/leon/git/swp-report/iMX6_Platform_SDK/output/mx6sdl/lib/libboard_smart_device_rev_a.a(board_audio.o)
 .data          0x101e3cd4        0x0 /home/leon/git/swp-report/iMX6_Platform_SDK/output/mx6sdl/lib/libboard_smart_device_rev_a.a(board_buttons.o)
 .data          0x101e3cd4        0x1 /home/leon/git/swp-report/iMX6_Platform_SDK/output/mx6sdl/lib/libboard_smart_device_rev_a.a(board_camera.o)
                0x101e3cd4                g_camera_i2c_port
 .data          0x101e3cd5        0x0 /home/leon/git/swp-report/iMX6_Platform_SDK/output/mx6sdl/lib/libboard_smart_device_rev_a.a(board_display.o)
 .data          0x101e3cd5        0x0 /home/leon/git/swp-report/iMX6_Platform_SDK/output/mx6sdl/lib/libboard_smart_device_rev_a.a(board_hdmi.o)
 .data          0x101e3cd5        0x0 /home/leon/git/swp-report/iMX6_Platform_SDK/output/mx6sdl/lib/libboard_smart_device_rev_a.a(board_i2c.o)
 .data          0x101e3cd5        0x0 /home/leon/git/swp-report/iMX6_Platform_SDK/output/mx6sdl/lib/libboard_smart_device_rev_a.a(board_io_expanders.o)
 .data          0x101e3cd5        0x0 /home/leon/git/swp-report/iMX6_Platform_SDK/output/mx6sdl/lib/libboard_smart_device_rev_a.a(board_mipi.o)
 .data          0x101e3cd5        0x0 /home/leon/git/swp-report/iMX6_Platform_SDK/output/mx6sdl/lib/libboard_smart_device_rev_a.a(board_network.o)
 .data          0x101e3cd5        0x0 /home/leon/git/swp-report/iMX6_Platform_SDK/output/mx6sdl/lib/libboard_smart_device_rev_a.a(board_usb.o)
 .data          0x101e3cd5        0x0 /home/leon/git/swp-report/iMX6_Platform_SDK/output/mx6sdl/lib/libboard_smart_device_rev_a.a(board_usdhc.o)
 *fill*         0x101e3cd5        0x3 
 .data          0x101e3cd8        0x8 /home/leon/git/swp-report/iMX6_Platform_SDK/output/mx6sdl/lib/libboard_smart_device_rev_a.a(hardware_modules.o)
                0x101e3cd8                g_debug_uart_port
                0x101e3cdc                g_system_timer_port
 .data          0x101e3ce0        0x0 /home/leon/git/swp-report/iMX6_Platform_SDK/output/mx6sdl/lib/libboard_smart_device_rev_a.a(dcd.o)
 .data          0x101e3ce0        0x0 /home/leon/git/swp-report/iMX6_Platform_SDK/output/mx6sdl/lib/libboard_smart_device_rev_a.a(audmux_iomux_config.o)
 .data          0x101e3ce0        0x0 /home/leon/git/swp-report/iMX6_Platform_SDK/output/mx6sdl/lib/libboard_smart_device_rev_a.a(ccm_iomux_config.o)
 .data          0x101e3ce0        0x0 /home/leon/git/swp-report/iMX6_Platform_SDK/output/mx6sdl/lib/libboard_smart_device_rev_a.a(ecspi_iomux_config.o)
 .data          0x101e3ce0        0x0 /home/leon/git/swp-report/iMX6_Platform_SDK/output/mx6sdl/lib/libboard_smart_device_rev_a.a(enet_iomux_config.o)
 .data          0x101e3ce0        0x0 /home/leon/git/swp-report/iMX6_Platform_SDK/output/mx6sdl/lib/libboard_smart_device_rev_a.a(epdc_iomux_config.o)
 .data          0x101e3ce0        0x0 /home/leon/git/swp-report/iMX6_Platform_SDK/output/mx6sdl/lib/libboard_smart_device_rev_a.a(i2c_iomux_config.o)
 .data          0x101e3ce0        0x0 /home/leon/git/swp-report/iMX6_Platform_SDK/output/mx6sdl/lib/libboard_smart_device_rev_a.a(iomux_config.o)
 .data          0x101e3ce0        0x0 /home/leon/git/swp-report/iMX6_Platform_SDK/output/mx6sdl/lib/libboard_smart_device_rev_a.a(ipu1_iomux_config.o)
 .data          0x101e3ce0        0x0 /home/leon/git/swp-report/iMX6_Platform_SDK/output/mx6sdl/lib/libboard_smart_device_rev_a.a(ipu_iomux_config.o)
 .data          0x101e3ce0        0x0 /home/leon/git/swp-report/iMX6_Platform_SDK/output/mx6sdl/lib/libboard_smart_device_rev_a.a(kpp_iomux_config.o)
 .data          0x101e3ce0        0x0 /home/leon/git/swp-report/iMX6_Platform_SDK/output/mx6sdl/lib/libboard_smart_device_rev_a.a(mmdc_iomux_config.o)
 .data          0x101e3ce0        0x0 /home/leon/git/swp-report/iMX6_Platform_SDK/output/mx6sdl/lib/libboard_smart_device_rev_a.a(pwm1_iomux_config.o)
 .data          0x101e3ce0        0x0 /home/leon/git/swp-report/iMX6_Platform_SDK/output/mx6sdl/lib/libboard_smart_device_rev_a.a(sjc_iomux_config.o)
 .data          0x101e3ce0        0x0 /home/leon/git/swp-report/iMX6_Platform_SDK/output/mx6sdl/lib/libboard_smart_device_rev_a.a(uart1_iomux_config.o)
 .data          0x101e3ce0        0x0 /home/leon/git/swp-report/iMX6_Platform_SDK/output/mx6sdl/lib/libboard_smart_device_rev_a.a(uart_iomux_config.o)
 .data          0x101e3ce0        0x0 /home/leon/git/swp-report/iMX6_Platform_SDK/output/mx6sdl/lib/libboard_smart_device_rev_a.a(usdhc2_iomux_config.o)
 .data          0x101e3ce0        0x0 /home/leon/git/swp-report/iMX6_Platform_SDK/output/mx6sdl/lib/libboard_smart_device_rev_a.a(usdhc3_iomux_config.o)
 .data          0x101e3ce0        0x0 /home/leon/git/swp-report/iMX6_Platform_SDK/output/mx6sdl/lib/libboard_smart_device_rev_a.a(usdhc4_iomux_config.o)
 .data          0x101e3ce0        0x0 /home/leon/git/swp-report/iMX6_Platform_SDK/output/mx6sdl/lib/libboard_smart_device_rev_a.a(usdhc_iomux_config.o)
 .data          0x101e3ce0        0x0 /home/leon/git/swp-report/iMX6_Platform_SDK/output/mx6sdl/lib/libboard_smart_device_rev_a.a(ecspi1_iomux_config.o)
 .data          0x101e3ce0        0x0 /home/leon/git/swp-report/iMX6_Platform_SDK/output/mx6sdl/lib/libboard_smart_device_rev_a.a(flexcan1_iomux_config.o)
 .data          0x101e3ce0        0x0 /home/leon/git/swp-report/iMX6_Platform_SDK/output/mx6sdl/lib/libboard_smart_device_rev_a.a(gpio1_iomux_config.o)
 .data          0x101e3ce0        0x0 /home/leon/git/swp-report/iMX6_Platform_SDK/output/mx6sdl/lib/libboard_smart_device_rev_a.a(gpio2_iomux_config.o)
 .data          0x101e3ce0        0x0 /home/leon/git/swp-report/iMX6_Platform_SDK/output/mx6sdl/lib/libboard_smart_device_rev_a.a(gpio3_iomux_config.o)
 .data          0x101e3ce0        0x0 /home/leon/git/swp-report/iMX6_Platform_SDK/output/mx6sdl/lib/libboard_smart_device_rev_a.a(gpio4_iomux_config.o)
 .data          0x101e3ce0        0x0 /home/leon/git/swp-report/iMX6_Platform_SDK/output/mx6sdl/lib/libboard_smart_device_rev_a.a(gpio5_iomux_config.o)
 .data          0x101e3ce0        0x0 /home/leon/git/swp-report/iMX6_Platform_SDK/output/mx6sdl/lib/libboard_smart_device_rev_a.a(gpio6_iomux_config.o)
 .data          0x101e3ce0        0x0 /home/leon/git/swp-report/iMX6_Platform_SDK/output/mx6sdl/lib/libboard_smart_device_rev_a.a(gpio7_iomux_config.o)
 .data          0x101e3ce0        0x0 /home/leon/git/swp-report/iMX6_Platform_SDK/output/mx6sdl/lib/libboard_smart_device_rev_a.a(gps_iomux_config.o)
 .data          0x101e3ce0        0x0 /home/leon/git/swp-report/iMX6_Platform_SDK/output/mx6sdl/lib/libboard_smart_device_rev_a.a(i2c1_iomux_config.o)
 .data          0x101e3ce0        0x0 /home/leon/git/swp-report/iMX6_Platform_SDK/output/mx6sdl/lib/libboard_smart_device_rev_a.a(i2c2_iomux_config.o)
 .data          0x101e3ce0        0x0 /home/leon/git/swp-report/iMX6_Platform_SDK/output/mx6sdl/lib/libboard_smart_device_rev_a.a(i2c3_iomux_config.o)
 .data          0x101e3ce0        0x0 /home/leon/riotboard/arm-2012.09/bin/../arm-none-eabi/lib//libc.a(lib_a-assert.o)
 .data          0x101e3ce0        0x0 /home/leon/riotboard/arm-2012.09/bin/../arm-none-eabi/lib//libc.a(lib_a-bzero.o)
 .data          0x101e3ce0        0x0 /home/leon/riotboard/arm-2012.09/bin/../arm-none-eabi/lib//libc.a(lib_a-fiprintf.o)
 .data          0x101e3ce0        0x0 /home/leon/riotboard/arm-2012.09/bin/../arm-none-eabi/lib//libc.a(lib_a-fputc.o)
 .data          0x101e3ce0      0x430 /home/leon/riotboard/arm-2012.09/bin/../arm-none-eabi/lib//libc.a(lib_a-impure.o)
                0x101e3ce0                _impure_ptr
 .data          0x101e4110        0x0 /home/leon/riotboard/arm-2012.09/bin/../arm-none-eabi/lib//libc.a(lib_a-init.o)
 .data          0x101e4110        0x0 /home/leon/riotboard/arm-2012.09/bin/../arm-none-eabi/lib//libc.a(lib_a-malloc.o)
 .data          0x101e4110      0x410 /home/leon/riotboard/arm-2012.09/bin/../arm-none-eabi/lib//libc.a(lib_a-mallocr.o)
                0x101e4110                __malloc_av_
                0x101e4518                __malloc_sbrk_base
                0x101e451c                __malloc_trim_threshold
 .data          0x101e4520        0x0 /home/leon/riotboard/arm-2012.09/bin/../arm-none-eabi/lib//libc.a(lib_a-memcpy.o)
 .data          0x101e4520        0x0 /home/leon/riotboard/arm-2012.09/bin/../arm-none-eabi/lib//libc.a(lib_a-memset.o)
 .data          0x101e4520        0x0 /home/leon/riotboard/arm-2012.09/bin/../arm-none-eabi/lib//libc.a(lib_a-mlock.o)
 .data          0x101e4520        0x0 /home/leon/riotboard/arm-2012.09/bin/../arm-none-eabi/lib//libc.a(lib_a-printf.o)
 .data          0x101e4520        0x0 /home/leon/riotboard/arm-2012.09/bin/../arm-none-eabi/lib//libc.a(lib_a-putc.o)
 .data          0x101e4520        0x0 /home/leon/riotboard/arm-2012.09/bin/../arm-none-eabi/lib//libc.a(lib_a-realloc.o)
 .data          0x101e4520        0x0 /home/leon/riotboard/arm-2012.09/bin/../arm-none-eabi/lib//libc.a(lib_a-reallocr.o)
 .data          0x101e4520        0x0 /home/leon/riotboard/arm-2012.09/bin/../arm-none-eabi/lib//libc.a(lib_a-rget.o)
 .data          0x101e4520        0x0 /home/leon/riotboard/arm-2012.09/bin/../arm-none-eabi/lib//libc.a(lib_a-sbrkr.o)
 .data          0x101e4520        0x0 /home/leon/riotboard/arm-2012.09/bin/../arm-none-eabi/lib//libc.a(lib_a-sprintf.o)
 .data          0x101e4520        0x0 /home/leon/riotboard/arm-2012.09/bin/../arm-none-eabi/lib//libc.a(lib_a-strcat.o)
 .data          0x101e4520        0x0 /home/leon/riotboard/arm-2012.09/bin/../arm-none-eabi/lib//libc.a(lib_a-strcmp.o)
 .data          0x101e4520        0x0 /home/leon/riotboard/arm-2012.09/bin/../arm-none-eabi/lib//libc.a(lib_a-strcpy.o)
 .data          0x101e4520        0x0 /home/leon/riotboard/arm-2012.09/bin/../arm-none-eabi/lib//libc.a(lib_a-strlen.o)
 .data          0x101e4520        0x0 /home/leon/riotboard/arm-2012.09/bin/../arm-none-eabi/lib//libc.a(lib_a-strncasecmp.o)
 .data          0x101e4520        0x0 /home/leon/riotboard/arm-2012.09/bin/../arm-none-eabi/lib//libc.a(lib_a-strtok.o)
 .data          0x101e4520        0x0 /home/leon/riotboard/arm-2012.09/bin/../arm-none-eabi/lib//libc.a(lib_a-strtok_r.o)
 .data          0x101e4520        0x0 /home/leon/riotboard/arm-2012.09/bin/../arm-none-eabi/lib//libc.a(lib_a-svfprintf.o)
 .data          0x101e4520        0x0 /home/leon/riotboard/arm-2012.09/bin/../arm-none-eabi/lib//libc.a(lib_a-vfiprintf.o)
 .data          0x101e4520        0x0 /home/leon/riotboard/arm-2012.09/bin/../arm-none-eabi/lib//libc.a(lib_a-vfprintf.o)
 .data          0x101e4520        0x0 /home/leon/riotboard/arm-2012.09/bin/../arm-none-eabi/lib//libc.a(lib_a-vprintf.o)
 .data          0x101e4520        0x0 /home/leon/riotboard/arm-2012.09/bin/../arm-none-eabi/lib//libc.a(lib_a-wbuf.o)
 .data          0x101e4520        0x0 /home/leon/riotboard/arm-2012.09/bin/../arm-none-eabi/lib//libc.a(lib_a-wsetup.o)
 .data          0x101e4520        0x0 /home/leon/riotboard/arm-2012.09/bin/../arm-none-eabi/lib//libc.a(lib_a-abort.o)
 .data          0x101e4520        0x4 /home/leon/riotboard/arm-2012.09/bin/../arm-none-eabi/lib//libc.a(lib_a-ctype_.o)
                0x101e4520                __ctype_ptr__
 .data          0x101e4524        0x0 /home/leon/riotboard/arm-2012.09/bin/../arm-none-eabi/lib//libc.a(lib_a-dtoa.o)
 .data          0x101e4524        0x0 /home/leon/riotboard/arm-2012.09/bin/../arm-none-eabi/lib//libc.a(lib_a-fflush.o)
 .data          0x101e4524        0x0 /home/leon/riotboard/arm-2012.09/bin/../arm-none-eabi/lib//libc.a(lib_a-findfp.o)
 .data          0x101e4524        0x0 /home/leon/riotboard/arm-2012.09/bin/../arm-none-eabi/lib//libc.a(lib_a-fputwc.o)
 .data          0x101e4524        0x0 /home/leon/riotboard/arm-2012.09/bin/../arm-none-eabi/lib//libc.a(lib_a-freer.o)
 .data          0x101e4524        0x0 /home/leon/riotboard/arm-2012.09/bin/../arm-none-eabi/lib//libc.a(lib_a-fvwrite.o)
 .data          0x101e4524        0x0 /home/leon/riotboard/arm-2012.09/bin/../arm-none-eabi/lib//libc.a(lib_a-fwalk.o)
 .data          0x101e4524       0x7c /home/leon/riotboard/arm-2012.09/bin/../arm-none-eabi/lib//libc.a(lib_a-locale.o)
                0x101e4544                __mb_cur_max
 .data          0x101e45a0        0x0 /home/leon/riotboard/arm-2012.09/bin/../arm-none-eabi/lib//libc.a(lib_a-makebuf.o)
 .data          0x101e45a0        0x0 /home/leon/riotboard/arm-2012.09/bin/../arm-none-eabi/lib//libc.a(lib_a-memchr.o)
 .data          0x101e45a0        0x0 /home/leon/riotboard/arm-2012.09/bin/../arm-none-eabi/lib//libc.a(lib_a-memmove.o)
 .data          0x101e45a0        0x0 /home/leon/riotboard/arm-2012.09/bin/../arm-none-eabi/lib//libc.a(lib_a-mprec.o)
 .data          0x101e45a0        0x0 /home/leon/riotboard/arm-2012.09/bin/../arm-none-eabi/lib//libc.a(lib_a-reent.o)
 .data          0x101e45a0        0x0 /home/leon/riotboard/arm-2012.09/bin/../arm-none-eabi/lib//libc.a(lib_a-refill.o)
 .data          0x101e45a0        0x0 /home/leon/riotboard/arm-2012.09/bin/../arm-none-eabi/lib//libc.a(lib_a-s_fpclassify.o)
 .data          0x101e45a0        0x0 /home/leon/riotboard/arm-2012.09/bin/../arm-none-eabi/lib//libc.a(lib_a-signal.o)
 .data          0x101e45a0        0x0 /home/leon/riotboard/arm-2012.09/bin/../arm-none-eabi/lib//libc.a(lib_a-signalr.o)
 .data          0x101e45a0        0x0 /home/leon/riotboard/arm-2012.09/bin/../arm-none-eabi/lib//libc.a(lib_a-stdio.o)
 .data          0x101e45a0        0x0 /home/leon/riotboard/arm-2012.09/bin/../arm-none-eabi/lib//libc.a(lib_a-svfiprintf.o)
 .data          0x101e45a0        0x0 /home/leon/riotboard/arm-2012.09/bin/../arm-none-eabi/lib//libc.a(lib_a-wcrtomb.o)
 .data          0x101e45a0        0x4 /home/leon/riotboard/arm-2012.09/bin/../arm-none-eabi/lib//libc.a(lib_a-wctomb_r.o)
                0x101e45a0                __wctomb
 .data          0x101e45a4        0x0 /home/leon/riotboard/arm-2012.09/bin/../arm-none-eabi/lib//libc.a(lib_a-writer.o)
 .data          0x101e45a4        0x0 /home/leon/riotboard/arm-2012.09/bin/../arm-none-eabi/lib//libc.a(lib_a-callocr.o)
 .data          0x101e45a4        0x0 /home/leon/riotboard/arm-2012.09/bin/../arm-none-eabi/lib//libc.a(lib_a-closer.o)
 .data          0x101e45a4        0x0 /home/leon/riotboard/arm-2012.09/bin/../arm-none-eabi/lib//libc.a(lib_a-fclose.o)
 .data          0x101e45a4        0x0 /home/leon/riotboard/arm-2012.09/bin/../arm-none-eabi/lib//libc.a(lib_a-fstatr.o)
 .data          0x101e45a4        0x0 /home/leon/riotboard/arm-2012.09/bin/../arm-none-eabi/lib//libc.a(lib_a-isattyr.o)
 .data          0x101e45a4        0x0 /home/leon/riotboard/arm-2012.09/bin/../arm-none-eabi/lib//libc.a(lib_a-lseekr.o)
 .data          0x101e45a4        0x0 /home/leon/riotboard/arm-2012.09/bin/../arm-none-eabi/lib//libc.a(lib_a-readr.o)
 .data          0x101e45a4        0x0 /home/leon/riotboard/arm-2012.09/bin/../lib/gcc/arm-none-eabi/4.7.2//libgcc.a(_udivsi3.o)
 .data          0x101e45a4        0x0 /home/leon/riotboard/arm-2012.09/bin/../lib/gcc/arm-none-eabi/4.7.2//libgcc.a(_divsi3.o)
 .data          0x101e45a4        0x0 /home/leon/riotboard/arm-2012.09/bin/../lib/gcc/arm-none-eabi/4.7.2//libgcc.a(_dvmd_tls.o)
 .data          0x101e45a4        0x0 /home/leon/riotboard/arm-2012.09/bin/../lib/gcc/arm-none-eabi/4.7.2//libgcc.a(_arm_addsubdf3.o)
 .data          0x101e45a4        0x0 /home/leon/riotboard/arm-2012.09/bin/../lib/gcc/arm-none-eabi/4.7.2//libgcc.a(_arm_muldivdf3.o)
 .data          0x101e45a4        0x0 /home/leon/riotboard/arm-2012.09/bin/../lib/gcc/arm-none-eabi/4.7.2//libgcc.a(_arm_cmpdf2.o)
 .data          0x101e45a4        0x0 /home/leon/riotboard/arm-2012.09/bin/../lib/gcc/arm-none-eabi/4.7.2//libgcc.a(_arm_fixdfsi.o)
 .data          0x101e45a4        0x0 /home/leon/riotboard/arm-2012.09/bin/../lib/gcc/arm-none-eabi/4.7.2//libgcc.a(_aeabi_uldivmod.o)
 .data          0x101e45a4        0x0 /home/leon/riotboard/arm-2012.09/bin/../lib/gcc/arm-none-eabi/4.7.2//libgcc.a(bpabi.o)
 .data          0x101e45a4        0x0 /home/leon/riotboard/arm-2012.09/bin/../lib/gcc/arm-none-eabi/4.7.2//libgcc.a(_divdi3.o)
 .data          0x101e45a4        0x0 /home/leon/riotboard/arm-2012.09/bin/../lib/gcc/arm-none-eabi/4.7.2//libgcc.a(_udivdi3.o)
 .data          0x101e45a4        0x0 /home/leon/riotboard/arm-2012.09/bin/../lib/gcc/arm-none-eabi/4.7.2//libgcc.a(_clzsi2.o)
 .data          0x101e45a4        0x4 /home/leon/git/swp-report/iMX6_Platform_SDK/output/mx6sdl/lib/libsdk.a(runtime_support.o)
                0x101e45a4                environ

.jcr            0x101e45a8        0x4
 .jcr           0x101e45a8        0x0 /home/leon/riotboard/arm-2012.09/bin/../lib/gcc/arm-none-eabi/4.7.2//crtbegin.o
 .jcr           0x101e45a8        0x4 /home/leon/riotboard/arm-2012.09/bin/../lib/gcc/arm-none-eabi/4.7.2//crtend.o

.tm_clone_table
                0x101e45ac        0x0
 .tm_clone_table
                0x101e45ac        0x0 /home/leon/riotboard/arm-2012.09/bin/../lib/gcc/arm-none-eabi/4.7.2//crtbegin.o
 .tm_clone_table
                0x101e45ac        0x0 /home/leon/riotboard/arm-2012.09/bin/../lib/gcc/arm-none-eabi/4.7.2//crtend.o

.igot.plt       0x101e45ac        0x0
 .igot.plt      0x00000000        0x0 /home/leon/riotboard/arm-2012.09/bin/../lib/gcc/arm-none-eabi/4.7.2//crtbegin.o

.hab.data       0x10400000     0x2000
                0x10400000                __hab_data = .
                0x10402000                . = (. + 0x2000)
 *fill*         0x10400000     0x2000 
                0x10402000                . = ALIGN (0x20)
                0x10402000                __hab_data_end = .
                0x00402000                _image_size = (. - _start_image_add)

.bss            0x10402000   0x1213a4
                0x10402000                __bss_start__ = .
 *(.shbss)
 *(.bss .bss.* .gnu.linkonce.b.*)
 .bss           0x10402000       0x1c /home/leon/riotboard/arm-2012.09/bin/../lib/gcc/arm-none-eabi/4.7.2//crtbegin.o
 .bss           0x1040201c        0x0 /home/leon/riotboard/arm-2012.09/bin/../lib/gcc/arm-none-eabi/4.7.2//crti.o
 .bss           0x1040201c        0x0 /home/leon/riotboard/arm-2012.09/bin/../lib/gcc/arm-none-eabi/4.7.2//crtend.o
 .bss           0x1040201c        0x0 /home/leon/riotboard/arm-2012.09/bin/../lib/gcc/arm-none-eabi/4.7.2//crtn.o
 .bss           0x1040201c        0x0 /home/leon/git/swp-report/iMX6_Platform_SDK/output/mx6sdl/obds/smart_device_rev_a/obj/apps/common/ivt.o
 .bss           0x1040201c        0x0 /home/leon/git/swp-report/iMX6_Platform_SDK/output/mx6sdl/obds/smart_device_rev_a/obj/apps/common/platform_init.o
 .bss           0x1040201c        0x0 /home/leon/git/swp-report/iMX6_Platform_SDK/output/mx6sdl/obds/smart_device_rev_a/obj/apps/common/print_clock_info.o
 .bss           0x1040201c        0x0 /home/leon/git/swp-report/iMX6_Platform_SDK/output/mx6sdl/obds/smart_device_rev_a/obj/apps/common/print_version.o
 .bss           0x1040201c      0x7d4 /home/leon/git/swp-report/iMX6_Platform_SDK/output/mx6sdl/obds/smart_device_rev_a/obj/apps/obds/src/obds.o
                0x1040201c                total_tests
                0x10402020                main_menuitems
                0x104024d0                obds_tests
 .bss           0x104027f0        0x0 /home/leon/git/swp-report/iMX6_Platform_SDK/output/mx6sdl/obds/smart_device_rev_a/obj/apps/obds/src/obds_utils.o
 .bss           0x104027f0        0x0 /home/leon/git/swp-report/iMX6_Platform_SDK/output/mx6sdl/obds/smart_device_rev_a/obj/apps/obds/src/tests/android_buttons_test.o
 .bss           0x104027f0        0x0 /home/leon/git/swp-report/iMX6_Platform_SDK/output/mx6sdl/obds/smart_device_rev_a/obj/apps/obds/src/tests/audio_esai_test.o
 .bss           0x104027f0   0x100004 /home/leon/git/swp-report/iMX6_Platform_SDK/output/mx6sdl/obds/smart_device_rev_a/obj/apps/obds/src/tests/audio_ssi_test.o
                0x104027f0                audio_record_buf
                0x105027f0                snd_card
 .bss           0x105027f4        0x0 /home/leon/git/swp-report/iMX6_Platform_SDK/output/mx6sdl/obds/smart_device_rev_a/obj/apps/obds/src/tests/ddr_test.o
 .bss           0x105027f4        0x4 /home/leon/git/swp-report/iMX6_Platform_SDK/output/mx6sdl/obds/smart_device_rev_a/obj/apps/obds/src/tests/deserializer_ds90ur124.o
                0x105027f4                ds90ur124_test_enable
 .bss           0x105027f8       0x70 /home/leon/git/swp-report/iMX6_Platform_SDK/output/mx6sdl/obds/smart_device_rev_a/obj/apps/obds/src/tests/display_test.o
                0x105027f8                panel_name
                0x10502818                ipu_display_panel
 .bss           0x10502868     0x1028 /home/leon/git/swp-report/iMX6_Platform_SDK/output/mx6sdl/obds/smart_device_rev_a/obj/apps/obds/src/tests/enet_mx6dldq_test.o
 .bss           0x10503890        0x0 /home/leon/git/swp-report/iMX6_Platform_SDK/output/mx6sdl/obds/smart_device_rev_a/obj/apps/obds/src/tests/flexcan_test.o
 .bss           0x10503890       0x28 /home/leon/git/swp-report/iMX6_Platform_SDK/output/mx6sdl/obds/smart_device_rev_a/obj/apps/obds/src/tests/fm_tuner_si476x_test.o
                0x10503890                si476x_i2c_req
                0x105038b4                si476x_test_enable
 .bss           0x105038b8        0x0 /home/leon/git/swp-report/iMX6_Platform_SDK/output/mx6sdl/obds/smart_device_rev_a/obj/apps/obds/src/tests/gpio_led.o
 .bss           0x105038b8        0x4 /home/leon/git/swp-report/iMX6_Platform_SDK/output/mx6sdl/obds/smart_device_rev_a/obj/apps/obds/src/tests/gps_test.o
                0x105038b8                gps_test_enable
 .bss           0x105038bc        0x0 /home/leon/git/swp-report/iMX6_Platform_SDK/output/mx6sdl/obds/smart_device_rev_a/obj/apps/obds/src/tests/i2c_check_light_sensor_isl29023.o
 .bss           0x105038bc        0x0 /home/leon/git/swp-report/iMX6_Platform_SDK/output/mx6sdl/obds/smart_device_rev_a/obj/apps/obds/src/tests/i2c_device_barometer_ppl3115.o
 .bss           0x105038bc        0x0 /home/leon/git/swp-report/iMX6_Platform_SDK/output/mx6sdl/obds/smart_device_rev_a/obj/apps/obds/src/tests/i2c_device_check_cs42888.o
 .bss           0x105038bc        0x0 /home/leon/git/swp-report/iMX6_Platform_SDK/output/mx6sdl/obds/smart_device_rev_a/obj/apps/obds/src/tests/i2c_device_digital_compass_mag3110.o
 .bss           0x105038bc        0x0 /home/leon/git/swp-report/iMX6_Platform_SDK/output/mx6sdl/obds/smart_device_rev_a/obj/apps/obds/src/tests/i2c_device_digital_compass_mag3112.o
 .bss           0x105038bc        0x0 /home/leon/git/swp-report/iMX6_Platform_SDK/output/mx6sdl/obds/smart_device_rev_a/obj/apps/obds/src/tests/i2c_device_id_check_mma8450.o
 .bss           0x105038bc        0x0 /home/leon/git/swp-report/iMX6_Platform_SDK/output/mx6sdl/obds/smart_device_rev_a/obj/apps/obds/src/tests/i2c_device_id_check_mma8451.o
 .bss           0x105038bc        0x8 /home/leon/git/swp-report/iMX6_Platform_SDK/output/mx6sdl/obds/smart_device_rev_a/obj/apps/obds/src/tests/i2c_device_id_check_p1003_tsc.o
 .bss           0x105038c4        0x0 /home/leon/git/swp-report/iMX6_Platform_SDK/output/mx6sdl/obds/smart_device_rev_a/obj/apps/obds/src/tests/i2c_device_temp_sensor_emc1046.o
 .bss           0x105038c4        0x4 /home/leon/git/swp-report/iMX6_Platform_SDK/output/mx6sdl/obds/smart_device_rev_a/obj/apps/obds/src/tests/i2c_device_zigbee_mc1323.o
                0x105038c4                buf
 .bss           0x105038c8        0x4 /home/leon/git/swp-report/iMX6_Platform_SDK/output/mx6sdl/obds/smart_device_rev_a/obj/apps/obds/src/tests/i2c_eeprom_at24cxx_test.o
                0x105038c8                eeprom_test_enable
 .bss           0x105038cc      0x408 /home/leon/git/swp-report/iMX6_Platform_SDK/output/mx6sdl/obds/smart_device_rev_a/obj/apps/obds/src/tests/imx_spi_nor_test.o
                0x105038cc                spi_nor_flash_type
                0x105038d0                dev_spi_nor
                0x105038d4                spi_nor_tx_buf
                0x10503ad4                spi_nor_rx_buf
 .bss           0x10503cd4       0x28 /home/leon/git/swp-report/iMX6_Platform_SDK/output/mx6sdl/obds/smart_device_rev_a/obj/apps/obds/src/tests/mlb_os81050.o
                0x10503cf8                mlb_os81050_test_enable
 .bss           0x10503cfc        0xc /home/leon/git/swp-report/iMX6_Platform_SDK/output/mx6sdl/obds/smart_device_rev_a/obj/apps/obds/src/tests/mmcsd_test.o
                0x10503cfc                SDHC_UHSI_mode
                0x10503d00                mmcsd_bus_width
                0x10503d04                instance
 .bss           0x10503d08        0x0 /home/leon/git/swp-report/iMX6_Platform_SDK/output/mx6sdl/obds/smart_device_rev_a/obj/apps/obds/src/tests/pmic_da9053.o
 .bss           0x10503d08        0x0 /home/leon/git/swp-report/iMX6_Platform_SDK/output/mx6sdl/obds/smart_device_rev_a/obj/apps/obds/src/tests/pmic_lt3589.o
 .bss           0x10503d08        0x0 /home/leon/git/swp-report/iMX6_Platform_SDK/output/mx6sdl/obds/smart_device_rev_a/obj/apps/obds/src/tests/pmic_max17135.o
 .bss           0x10503d08        0x4 /home/leon/git/swp-report/iMX6_Platform_SDK/output/mx6sdl/obds/smart_device_rev_a/obj/apps/obds/src/tests/pmic_mc13892.o
                0x10503d08                pmic_mc13892_reg
 .bss           0x10503d0c        0x0 /home/leon/git/swp-report/iMX6_Platform_SDK/output/mx6sdl/obds/smart_device_rev_a/obj/apps/obds/src/tests/program_board_id.o
 .bss           0x10503d0c       0x14 /home/leon/git/swp-report/iMX6_Platform_SDK/output/mx6sdl/obds/smart_device_rev_a/obj/apps/obds/src/tests/program_mac_address.o
 .bss           0x10503d20        0x0 /home/leon/git/swp-report/iMX6_Platform_SDK/output/mx6sdl/obds/smart_device_rev_a/obj/apps/obds/src/tests/snvs_srtc_test.o
 .bss           0x10503d20        0x0 /home/leon/git/swp-report/iMX6_Platform_SDK/output/mx6sdl/obds/smart_device_rev_a/obj/apps/obds/src/tests/touch_button_test.o
 .bss           0x10503d20        0x4 /home/leon/git/swp-report/iMX6_Platform_SDK/output/mx6sdl/obds/smart_device_rev_a/obj/apps/obds/src/tests/touch_screen.o
                0x10503d20                pen_status
 .bss           0x10503d24        0x0 /home/leon/git/swp-report/iMX6_Platform_SDK/output/mx6sdl/obds/smart_device_rev_a/obj/apps/obds/src/tests/touch_screen_max11801.o
 .bss           0x10503d24        0x0 /home/leon/git/swp-report/iMX6_Platform_SDK/output/mx6sdl/obds/smart_device_rev_a/obj/apps/obds/src/tests/usb_tests_obds.o
 .bss           0x10503d24        0x0 /home/leon/git/swp-report/iMX6_Platform_SDK/output/mx6sdl/obds/smart_device_rev_a/obj/apps/obds/src/tests/video_dec_ARD_MB_reset_button.o
 .bss           0x10503d24        0x0 /home/leon/git/swp-report/iMX6_Platform_SDK/output/mx6sdl/obds/smart_device_rev_a/obj/apps/obds/src/tests/video_dec_ARD_MBrst_from_cpu_expander.o
 .bss           0x10503d24       0x24 /home/leon/git/swp-report/iMX6_Platform_SDK/output/mx6sdl/obds/smart_device_rev_a/obj/apps/obds/src/tests/video_dec_adv7180.o
 .bss           0x10503d48        0x0 /home/leon/git/swp-report/iMX6_Platform_SDK/output/mx6sdl/obds/smart_device_rev_a/obj/apps/obds/src/tests/weim_nor_flash_test.o
 .bss           0x10503d48        0x0 /home/leon/git/swp-report/iMX6_Platform_SDK/output/mx6sdl/obds/smart_device_rev_a/obj/sdk/common/ioexpander/test/max7310_test.o
 .bss           0x10503d48        0x0 /home/leon/git/swp-report/iMX6_Platform_SDK/output/mx6sdl/obds/smart_device_rev_a/obj/sdk/common/pmic/pfuse/pf0100.o
 .bss           0x10503d48        0x0 /home/leon/git/swp-report/iMX6_Platform_SDK/output/mx6sdl/obds/smart_device_rev_a/obj/sdk/drivers/audio/src/snd_card.o
 .bss           0x10503d48        0x0 /home/leon/git/swp-report/iMX6_Platform_SDK/output/mx6sdl/obds/smart_device_rev_a/obj/sdk/drivers/camera/test/adv7180_capture.o
 .bss           0x10503d48        0x0 /home/leon/git/swp-report/iMX6_Platform_SDK/output/mx6sdl/obds/smart_device_rev_a/obj/sdk/drivers/camera/test/camera_test.o
 .bss           0x10503d48        0x0 /home/leon/git/swp-report/iMX6_Platform_SDK/output/mx6sdl/obds/smart_device_rev_a/obj/sdk/drivers/camera/test/csi_test_mode.o
 .bss           0x10503d48        0x0 /home/leon/git/swp-report/iMX6_Platform_SDK/output/mx6sdl/obds/smart_device_rev_a/obj/sdk/drivers/camera/test/sensor_capture.o
 .bss           0x10503d48        0x4 /home/leon/git/swp-report/iMX6_Platform_SDK/output/mx6sdl/obds/smart_device_rev_a/obj/sdk/drivers/epdc/test/epdc_test.o
 .bss           0x10503d4c        0x0 /home/leon/git/swp-report/iMX6_Platform_SDK/output/mx6sdl/obds/smart_device_rev_a/obj/sdk/drivers/hdmi/test/hdmi_test.o
 .bss           0x10503d4c        0x0 /home/leon/git/swp-report/iMX6_Platform_SDK/output/mx6sdl/obds/smart_device_rev_a/obj/sdk/drivers/hdmi/test/init_dma_data.o
 .bss           0x10503d4c        0x0 /home/leon/git/swp-report/iMX6_Platform_SDK/output/mx6sdl/obds/smart_device_rev_a/obj/sdk/drivers/ipu/test/ips_display.o
 .bss           0x10503d4c        0x0 /home/leon/git/swp-report/iMX6_Platform_SDK/output/mx6sdl/obds/smart_device_rev_a/obj/sdk/drivers/ipu/test/ipu_image.o
 .bss           0x10503d4c      0x400 /home/leon/git/swp-report/iMX6_Platform_SDK/output/mx6sdl/obds/smart_device_rev_a/obj/sdk/drivers/spi/test/imx_spi_nor_atmel.o
 .bss           0x1050414c      0x400 /home/leon/git/swp-report/iMX6_Platform_SDK/output/mx6sdl/obds/smart_device_rev_a/obj/sdk/drivers/spi/test/spi_nor_numonyx.o
 .bss           0x1050454c        0x1 /home/leon/git/swp-report/iMX6_Platform_SDK/output/mx6sdl/obds/smart_device_rev_a/obj/sdk/drivers/uart/test/uart_test.o
 *fill*         0x1050454d      0xab3 
 .bss           0x10505000     0x1000 /home/leon/git/swp-report/iMX6_Platform_SDK/output/mx6sdl/obds/smart_device_rev_a/obj/sdk/drivers/usb/test/usb0_host_test.o
                0x10505000                frame_list
 .bss           0x10506000        0x0 /home/leon/git/swp-report/iMX6_Platform_SDK/output/mx6sdl/obds/smart_device_rev_a/obj/sdk/drivers/usb/test/usb0_host_testmodes_test.o
 .bss           0x10506000    0x17d00 /home/leon/git/swp-report/iMX6_Platform_SDK/output/mx6sdl/obds/smart_device_rev_a/obj/sdk/drivers/usdhc/test/usdhc_test.o
 .bss           0x1051dd00        0x4 /home/leon/git/swp-report/iMX6_Platform_SDK/output/mx6sdl/lib/libsdk.a(max7310.o)
 .bss           0x1051dd04        0x0 /home/leon/git/swp-report/iMX6_Platform_SDK/output/mx6sdl/lib/libsdk.a(ccm_pll.o)
 .bss           0x1051dd04        0x0 /home/leon/git/swp-report/iMX6_Platform_SDK/output/mx6sdl/lib/libsdk.a(cortexA9.o)
 .bss           0x1051dd04        0x0 /home/leon/git/swp-report/iMX6_Platform_SDK/output/mx6sdl/lib/libsdk.a(gic.o)
 .bss           0x1051dd04      0x290 /home/leon/git/swp-report/iMX6_Platform_SDK/output/mx6sdl/lib/libsdk.a(interrupt.o)
                0x1051dd04                g_interrupt_handlers
                0x1051df84                g_vectNum
 .bss           0x1051df94        0x0 /home/leon/git/swp-report/iMX6_Platform_SDK/output/mx6sdl/lib/libsdk.a(mmu.o)
 .bss           0x1051df94        0x0 /home/leon/git/swp-report/iMX6_Platform_SDK/output/mx6sdl/lib/libsdk.a(startup.o)
 .bss           0x1051df94        0x0 /home/leon/git/swp-report/iMX6_Platform_SDK/output/mx6sdl/lib/libsdk.a(vectors.o)
 .bss           0x1051df94       0x7c /home/leon/git/swp-report/iMX6_Platform_SDK/output/mx6sdl/lib/libsdk.a(menu.o)
 .bss           0x1051e010        0x0 /home/leon/git/swp-report/iMX6_Platform_SDK/output/mx6sdl/lib/libsdk.a(sdk_version.o)
 .bss           0x1051e010        0x0 /home/leon/git/swp-report/iMX6_Platform_SDK/output/mx6sdl/lib/libsdk.a(system_util.o)
 .bss           0x1051e010        0x0 /home/leon/git/swp-report/iMX6_Platform_SDK/output/mx6sdl/lib/libsdk.a(text_color.o)
 .bss           0x1051e010       0x24 /home/leon/git/swp-report/iMX6_Platform_SDK/output/mx6sdl/lib/libsdk.a(cs42888.o)
                0x1051e010                cs42888_i2c_req
 .bss           0x1051e034        0x0 /home/leon/git/swp-report/iMX6_Platform_SDK/output/mx6sdl/lib/libsdk.a(imx-ssi.o)
 .bss           0x1051e034        0x0 /home/leon/git/swp-report/iMX6_Platform_SDK/output/mx6sdl/lib/libsdk.a(imx_audmux.o)
 .bss           0x1051e034        0x0 /home/leon/git/swp-report/iMX6_Platform_SDK/output/mx6sdl/lib/libsdk.a(imx_esai.o)
 .bss           0x1051e034        0x0 /home/leon/git/swp-report/iMX6_Platform_SDK/output/mx6sdl/lib/libsdk.a(imx_spdif.o)
 .bss           0x1051e034       0x28 /home/leon/git/swp-report/iMX6_Platform_SDK/output/mx6sdl/lib/libsdk.a(sgtl5000.o)
                0x1051e034                sgtl5000_i2c_req
 .bss           0x1051e05c       0x24 /home/leon/git/swp-report/iMX6_Platform_SDK/output/mx6sdl/lib/libsdk.a(wm8958_dac.o)
                0x1051e05c                wm8958_i2c_req
 .bss           0x1051e080       0x24 /home/leon/git/swp-report/iMX6_Platform_SDK/output/mx6sdl/lib/libsdk.a(wm8962.o)
                0x1051e080                wm8962_i2c_req
 .bss           0x1051e0a4        0x0 /home/leon/git/swp-report/iMX6_Platform_SDK/output/mx6sdl/lib/libsdk.a(board_id.o)
 .bss           0x1051e0a4        0x0 /home/leon/git/swp-report/iMX6_Platform_SDK/output/mx6sdl/lib/libsdk.a(smd_sensor.o)
 *fill*         0x1051e0a4       0x1c 
 .bss           0x1051e0c0     0x5060 /home/leon/git/swp-report/iMX6_Platform_SDK/output/mx6sdl/lib/libsdk.a(enet_drv.o)
 .bss           0x10523120        0x0 /home/leon/git/swp-report/iMX6_Platform_SDK/output/mx6sdl/lib/libsdk.a(mxc_epdc.o)
 .bss           0x10523120        0x0 /home/leon/git/swp-report/iMX6_Platform_SDK/output/mx6sdl/lib/libsdk.a(gpio.o)
 .bss           0x10523120        0x0 /home/leon/git/swp-report/iMX6_Platform_SDK/output/mx6sdl/lib/libsdk.a(imx6sdl_gpio_map.o)
 .bss           0x10523120        0x0 /home/leon/git/swp-report/iMX6_Platform_SDK/output/mx6sdl/lib/libsdk.a(hdmi_tx.o)
 .bss           0x10523120        0x0 /home/leon/git/swp-report/iMX6_Platform_SDK/output/mx6sdl/lib/libsdk.a(hdmi_tx_audio.o)
 .bss           0x10523120        0x0 /home/leon/git/swp-report/iMX6_Platform_SDK/output/mx6sdl/lib/libsdk.a(hdmi_tx_phy.o)
 .bss           0x10523120        0x0 /home/leon/git/swp-report/iMX6_Platform_SDK/output/mx6sdl/lib/libsdk.a(imx_i2c.o)
 .bss           0x10523120        0x0 /home/leon/git/swp-report/iMX6_Platform_SDK/output/mx6sdl/lib/libsdk.a(ips_disp_panel.o)
 .bss           0x10523120       0x10 /home/leon/git/swp-report/iMX6_Platform_SDK/output/mx6sdl/lib/libsdk.a(ipu_common.o)
                0x10523120                csi_vdi_direct_path
                0x10523124                csi_dma_band_mode
 .bss           0x10523130        0x0 /home/leon/git/swp-report/iMX6_Platform_SDK/output/mx6sdl/lib/libsdk.a(ipu_csi.o)
 .bss           0x10523130        0x0 /home/leon/git/swp-report/iMX6_Platform_SDK/output/mx6sdl/lib/libsdk.a(ipu_dc.o)
 .bss           0x10523130        0x0 /home/leon/git/swp-report/iMX6_Platform_SDK/output/mx6sdl/lib/libsdk.a(ipu_di.o)
 .bss           0x10523130        0x0 /home/leon/git/swp-report/iMX6_Platform_SDK/output/mx6sdl/lib/libsdk.a(ipu_dmfc.o)
 .bss           0x10523130        0x0 /home/leon/git/swp-report/iMX6_Platform_SDK/output/mx6sdl/lib/libsdk.a(ipu_dp.o)
 .bss           0x10523130        0x0 /home/leon/git/swp-report/iMX6_Platform_SDK/output/mx6sdl/lib/libsdk.a(ipu_idmac.o)
 .bss           0x10523130        0x0 /home/leon/git/swp-report/iMX6_Platform_SDK/output/mx6sdl/lib/libsdk.a(ipu_vdi.o)
 .bss           0x10523130        0x0 /home/leon/git/swp-report/iMX6_Platform_SDK/output/mx6sdl/lib/libsdk.a(ldb.o)
 .bss           0x10523130        0x0 /home/leon/git/swp-report/iMX6_Platform_SDK/output/mx6sdl/lib/libsdk.a(ocotp.o)
 .bss           0x10523130        0x0 /home/leon/git/swp-report/iMX6_Platform_SDK/output/mx6sdl/lib/libsdk.a(ecspi.o)
 .bss           0x10523130        0x4 /home/leon/git/swp-report/iMX6_Platform_SDK/output/mx6sdl/lib/libsdk.a(timer.o)
                0x10523130                g_microsecondTimerMultiple
 .bss           0x10523134        0x0 /home/leon/git/swp-report/iMX6_Platform_SDK/output/mx6sdl/lib/libsdk.a(imx_uart.o)
 .bss           0x10523134        0x0 /home/leon/git/swp-report/iMX6_Platform_SDK/output/mx6sdl/lib/libsdk.a(usb_common.o)
 .bss           0x10523134        0x0 /home/leon/git/swp-report/iMX6_Platform_SDK/output/mx6sdl/lib/libsdk.a(usbh_drv.o)
 .bss           0x10523134        0x8 /home/leon/git/swp-report/iMX6_Platform_SDK/output/mx6sdl/lib/libsdk.a(usdhc.o)
 .bss           0x1052313c        0x0 /home/leon/git/swp-report/iMX6_Platform_SDK/output/mx6sdl/lib/libsdk.a(usdhc_host.o)
 .bss           0x1052313c      0x214 /home/leon/git/swp-report/iMX6_Platform_SDK/output/mx6sdl/lib/libsdk.a(usdhc_mmc.o)
 .bss           0x10523350        0x0 /home/leon/git/swp-report/iMX6_Platform_SDK/output/mx6sdl/lib/libsdk.a(usdhc_sd.o)
 .bss           0x10523350        0x0 /home/leon/git/swp-report/iMX6_Platform_SDK/output/mx6sdl/lib/libsdk.a(arm_abort.o)
 .bss           0x10523350        0x0 /home/leon/git/swp-report/iMX6_Platform_SDK/output/mx6sdl/lib/libsdk.a(armv7_cache.o)
 .bss           0x10523350        0x0 /home/leon/git/swp-report/iMX6_Platform_SDK/output/mx6sdl/lib/libsdk.a(camera_profile.o)
 .bss           0x10523350        0x0 /home/leon/git/swp-report/iMX6_Platform_SDK/output/mx6sdl/lib/libsdk.a(hdmi_common.o)
 .bss           0x10523350        0x0 /home/leon/git/swp-report/iMX6_Platform_SDK/output/mx6sdl/lib/libsdk.a(ipu_ic.o)
 .bss           0x10523350        0x0 /home/leon/git/swp-report/iMX6_Platform_SDK/output/mx6sdl/lib/libsdk.a(epit.o)
 .bss           0x10523350        0x0 /home/leon/git/swp-report/iMX6_Platform_SDK/output/mx6sdl/lib/libsdk.a(mx6x_usb.o)
 .bss           0x10523350        0x0 /home/leon/git/swp-report/iMX6_Platform_SDK/output/mx6sdl/lib/libsdk.a(abort_handler.o)
 .bss           0x10523350        0x0 /home/leon/git/swp-report/iMX6_Platform_SDK/output/mx6sdl/lib/libboard_smart_device_rev_a.a(board_audio.o)
 .bss           0x10523350        0x0 /home/leon/git/swp-report/iMX6_Platform_SDK/output/mx6sdl/lib/libboard_smart_device_rev_a.a(board_buttons.o)
 .bss           0x10523350        0x0 /home/leon/git/swp-report/iMX6_Platform_SDK/output/mx6sdl/lib/libboard_smart_device_rev_a.a(board_camera.o)
 .bss           0x10523350        0x0 /home/leon/git/swp-report/iMX6_Platform_SDK/output/mx6sdl/lib/libboard_smart_device_rev_a.a(board_display.o)
 .bss           0x10523350        0x0 /home/leon/git/swp-report/iMX6_Platform_SDK/output/mx6sdl/lib/libboard_smart_device_rev_a.a(board_hdmi.o)
 .bss           0x10523350        0x0 /home/leon/git/swp-report/iMX6_Platform_SDK/output/mx6sdl/lib/libboard_smart_device_rev_a.a(board_i2c.o)
 .bss           0x10523350        0x4 /home/leon/git/swp-report/iMX6_Platform_SDK/output/mx6sdl/lib/libboard_smart_device_rev_a.a(board_io_expanders.o)
                0x10523350                max7310_i2c_req_array
 .bss           0x10523354        0x0 /home/leon/git/swp-report/iMX6_Platform_SDK/output/mx6sdl/lib/libboard_smart_device_rev_a.a(board_mipi.o)
 .bss           0x10523354        0x0 /home/leon/git/swp-report/iMX6_Platform_SDK/output/mx6sdl/lib/libboard_smart_device_rev_a.a(board_network.o)
 .bss           0x10523354        0x0 /home/leon/git/swp-report/iMX6_Platform_SDK/output/mx6sdl/lib/libboard_smart_device_rev_a.a(board_usb.o)
 .bss           0x10523354        0x0 /home/leon/git/swp-report/iMX6_Platform_SDK/output/mx6sdl/lib/libboard_smart_device_rev_a.a(board_usdhc.o)
 .bss           0x10523354        0x0 /home/leon/git/swp-report/iMX6_Platform_SDK/output/mx6sdl/lib/libboard_smart_device_rev_a.a(hardware_modules.o)
 .bss           0x10523354        0x0 /home/leon/git/swp-report/iMX6_Platform_SDK/output/mx6sdl/lib/libboard_smart_device_rev_a.a(dcd.o)
 .bss           0x10523354        0x0 /home/leon/git/swp-report/iMX6_Platform_SDK/output/mx6sdl/lib/libboard_smart_device_rev_a.a(audmux_iomux_config.o)
 .bss           0x10523354        0x0 /home/leon/git/swp-report/iMX6_Platform_SDK/output/mx6sdl/lib/libboard_smart_device_rev_a.a(ccm_iomux_config.o)
 .bss           0x10523354        0x0 /home/leon/git/swp-report/iMX6_Platform_SDK/output/mx6sdl/lib/libboard_smart_device_rev_a.a(ecspi_iomux_config.o)
 .bss           0x10523354        0x0 /home/leon/git/swp-report/iMX6_Platform_SDK/output/mx6sdl/lib/libboard_smart_device_rev_a.a(enet_iomux_config.o)
 .bss           0x10523354        0x0 /home/leon/git/swp-report/iMX6_Platform_SDK/output/mx6sdl/lib/libboard_smart_device_rev_a.a(epdc_iomux_config.o)
 .bss           0x10523354        0x0 /home/leon/git/swp-report/iMX6_Platform_SDK/output/mx6sdl/lib/libboard_smart_device_rev_a.a(i2c_iomux_config.o)
 .bss           0x10523354        0x0 /home/leon/git/swp-report/iMX6_Platform_SDK/output/mx6sdl/lib/libboard_smart_device_rev_a.a(iomux_config.o)
 .bss           0x10523354        0x0 /home/leon/git/swp-report/iMX6_Platform_SDK/output/mx6sdl/lib/libboard_smart_device_rev_a.a(ipu1_iomux_config.o)
 .bss           0x10523354        0x0 /home/leon/git/swp-report/iMX6_Platform_SDK/output/mx6sdl/lib/libboard_smart_device_rev_a.a(ipu_iomux_config.o)
 .bss           0x10523354        0x0 /home/leon/git/swp-report/iMX6_Platform_SDK/output/mx6sdl/lib/libboard_smart_device_rev_a.a(kpp_iomux_config.o)
 .bss           0x10523354        0x0 /home/leon/git/swp-report/iMX6_Platform_SDK/output/mx6sdl/lib/libboard_smart_device_rev_a.a(mmdc_iomux_config.o)
 .bss           0x10523354        0x0 /home/leon/git/swp-report/iMX6_Platform_SDK/output/mx6sdl/lib/libboard_smart_device_rev_a.a(pwm1_iomux_config.o)
 .bss           0x10523354        0x0 /home/leon/git/swp-report/iMX6_Platform_SDK/output/mx6sdl/lib/libboard_smart_device_rev_a.a(sjc_iomux_config.o)
 .bss           0x10523354        0x0 /home/leon/git/swp-report/iMX6_Platform_SDK/output/mx6sdl/lib/libboard_smart_device_rev_a.a(uart1_iomux_config.o)
 .bss           0x10523354        0x0 /home/leon/git/swp-report/iMX6_Platform_SDK/output/mx6sdl/lib/libboard_smart_device_rev_a.a(uart_iomux_config.o)
 .bss           0x10523354        0x0 /home/leon/git/swp-report/iMX6_Platform_SDK/output/mx6sdl/lib/libboard_smart_device_rev_a.a(usdhc2_iomux_config.o)
 .bss           0x10523354        0x0 /home/leon/git/swp-report/iMX6_Platform_SDK/output/mx6sdl/lib/libboard_smart_device_rev_a.a(usdhc3_iomux_config.o)
 .bss           0x10523354        0x0 /home/leon/git/swp-report/iMX6_Platform_SDK/output/mx6sdl/lib/libboard_smart_device_rev_a.a(usdhc4_iomux_config.o)
 .bss           0x10523354        0x0 /home/leon/git/swp-report/iMX6_Platform_SDK/output/mx6sdl/lib/libboard_smart_device_rev_a.a(usdhc_iomux_config.o)
 .bss           0x10523354        0x0 /home/leon/git/swp-report/iMX6_Platform_SDK/output/mx6sdl/lib/libboard_smart_device_rev_a.a(ecspi1_iomux_config.o)
 .bss           0x10523354        0x0 /home/leon/git/swp-report/iMX6_Platform_SDK/output/mx6sdl/lib/libboard_smart_device_rev_a.a(flexcan1_iomux_config.o)
 .bss           0x10523354        0x0 /home/leon/git/swp-report/iMX6_Platform_SDK/output/mx6sdl/lib/libboard_smart_device_rev_a.a(gpio1_iomux_config.o)
 .bss           0x10523354        0x0 /home/leon/git/swp-report/iMX6_Platform_SDK/output/mx6sdl/lib/libboard_smart_device_rev_a.a(gpio2_iomux_config.o)
 .bss           0x10523354        0x0 /home/leon/git/swp-report/iMX6_Platform_SDK/output/mx6sdl/lib/libboard_smart_device_rev_a.a(gpio3_iomux_config.o)
 .bss           0x10523354        0x0 /home/leon/git/swp-report/iMX6_Platform_SDK/output/mx6sdl/lib/libboard_smart_device_rev_a.a(gpio4_iomux_config.o)
 .bss           0x10523354        0x0 /home/leon/git/swp-report/iMX6_Platform_SDK/output/mx6sdl/lib/libboard_smart_device_rev_a.a(gpio5_iomux_config.o)
 .bss           0x10523354        0x0 /home/leon/git/swp-report/iMX6_Platform_SDK/output/mx6sdl/lib/libboard_smart_device_rev_a.a(gpio6_iomux_config.o)
 .bss           0x10523354        0x0 /home/leon/git/swp-report/iMX6_Platform_SDK/output/mx6sdl/lib/libboard_smart_device_rev_a.a(gpio7_iomux_config.o)
 .bss           0x10523354        0x0 /home/leon/git/swp-report/iMX6_Platform_SDK/output/mx6sdl/lib/libboard_smart_device_rev_a.a(gps_iomux_config.o)
 .bss           0x10523354        0x0 /home/leon/git/swp-report/iMX6_Platform_SDK/output/mx6sdl/lib/libboard_smart_device_rev_a.a(i2c1_iomux_config.o)
 .bss           0x10523354        0x0 /home/leon/git/swp-report/iMX6_Platform_SDK/output/mx6sdl/lib/libboard_smart_device_rev_a.a(i2c2_iomux_config.o)
 .bss           0x10523354        0x0 /home/leon/git/swp-report/iMX6_Platform_SDK/output/mx6sdl/lib/libboard_smart_device_rev_a.a(i2c3_iomux_config.o)
 .bss           0x10523354        0x0 /home/leon/riotboard/arm-2012.09/bin/../arm-none-eabi/lib//libc.a(lib_a-assert.o)
 .bss           0x10523354        0x0 /home/leon/riotboard/arm-2012.09/bin/../arm-none-eabi/lib//libc.a(lib_a-bzero.o)
 .bss           0x10523354        0x0 /home/leon/riotboard/arm-2012.09/bin/../arm-none-eabi/lib//libc.a(lib_a-fiprintf.o)
 .bss           0x10523354        0x0 /home/leon/riotboard/arm-2012.09/bin/../arm-none-eabi/lib//libc.a(lib_a-fputc.o)
 .bss           0x10523354        0x0 /home/leon/riotboard/arm-2012.09/bin/../arm-none-eabi/lib//libc.a(lib_a-impure.o)
 .bss           0x10523354        0x0 /home/leon/riotboard/arm-2012.09/bin/../arm-none-eabi/lib//libc.a(lib_a-init.o)
 .bss           0x10523354        0x0 /home/leon/riotboard/arm-2012.09/bin/../arm-none-eabi/lib//libc.a(lib_a-malloc.o)
 .bss           0x10523354       0x34 /home/leon/riotboard/arm-2012.09/bin/../arm-none-eabi/lib//libc.a(lib_a-mallocr.o)
                0x10523354                __malloc_top_pad
                0x10523358                __malloc_current_mallinfo
                0x10523380                __malloc_max_sbrked_mem
                0x10523384                __malloc_max_total_mem
 .bss           0x10523388        0x0 /home/leon/riotboard/arm-2012.09/bin/../arm-none-eabi/lib//libc.a(lib_a-memcpy.o)
 .bss           0x10523388        0x0 /home/leon/riotboard/arm-2012.09/bin/../arm-none-eabi/lib//libc.a(lib_a-memset.o)
 .bss           0x10523388        0x0 /home/leon/riotboard/arm-2012.09/bin/../arm-none-eabi/lib//libc.a(lib_a-mlock.o)
 .bss           0x10523388        0x0 /home/leon/riotboard/arm-2012.09/bin/../arm-none-eabi/lib//libc.a(lib_a-printf.o)
 .bss           0x10523388        0x0 /home/leon/riotboard/arm-2012.09/bin/../arm-none-eabi/lib//libc.a(lib_a-putc.o)
 .bss           0x10523388        0x0 /home/leon/riotboard/arm-2012.09/bin/../arm-none-eabi/lib//libc.a(lib_a-realloc.o)
 .bss           0x10523388        0x0 /home/leon/riotboard/arm-2012.09/bin/../arm-none-eabi/lib//libc.a(lib_a-reallocr.o)
 .bss           0x10523388        0x0 /home/leon/riotboard/arm-2012.09/bin/../arm-none-eabi/lib//libc.a(lib_a-rget.o)
 .bss           0x10523388        0x0 /home/leon/riotboard/arm-2012.09/bin/../arm-none-eabi/lib//libc.a(lib_a-sbrkr.o)
 .bss           0x10523388        0x0 /home/leon/riotboard/arm-2012.09/bin/../arm-none-eabi/lib//libc.a(lib_a-sprintf.o)
 .bss           0x10523388        0x0 /home/leon/riotboard/arm-2012.09/bin/../arm-none-eabi/lib//libc.a(lib_a-strcat.o)
 .bss           0x10523388        0x0 /home/leon/riotboard/arm-2012.09/bin/../arm-none-eabi/lib//libc.a(lib_a-strcmp.o)
 .bss           0x10523388        0x0 /home/leon/riotboard/arm-2012.09/bin/../arm-none-eabi/lib//libc.a(lib_a-strcpy.o)
 .bss           0x10523388        0x0 /home/leon/riotboard/arm-2012.09/bin/../arm-none-eabi/lib//libc.a(lib_a-strlen.o)
 .bss           0x10523388        0x0 /home/leon/riotboard/arm-2012.09/bin/../arm-none-eabi/lib//libc.a(lib_a-strncasecmp.o)
 .bss           0x10523388        0x0 /home/leon/riotboard/arm-2012.09/bin/../arm-none-eabi/lib//libc.a(lib_a-strtok.o)
 .bss           0x10523388        0x0 /home/leon/riotboard/arm-2012.09/bin/../arm-none-eabi/lib//libc.a(lib_a-strtok_r.o)
 .bss           0x10523388        0x0 /home/leon/riotboard/arm-2012.09/bin/../arm-none-eabi/lib//libc.a(lib_a-svfprintf.o)
 .bss           0x10523388        0x0 /home/leon/riotboard/arm-2012.09/bin/../arm-none-eabi/lib//libc.a(lib_a-vfiprintf.o)
 .bss           0x10523388        0x0 /home/leon/riotboard/arm-2012.09/bin/../arm-none-eabi/lib//libc.a(lib_a-vfprintf.o)
 .bss           0x10523388        0x0 /home/leon/riotboard/arm-2012.09/bin/../arm-none-eabi/lib//libc.a(lib_a-vprintf.o)
 .bss           0x10523388        0x0 /home/leon/riotboard/arm-2012.09/bin/../arm-none-eabi/lib//libc.a(lib_a-wbuf.o)
 .bss           0x10523388        0x0 /home/leon/riotboard/arm-2012.09/bin/../arm-none-eabi/lib//libc.a(lib_a-wsetup.o)
 .bss           0x10523388        0x0 /home/leon/riotboard/arm-2012.09/bin/../arm-none-eabi/lib//libc.a(lib_a-abort.o)
 .bss           0x10523388        0x0 /home/leon/riotboard/arm-2012.09/bin/../arm-none-eabi/lib//libc.a(lib_a-ctype_.o)
 .bss           0x10523388        0x0 /home/leon/riotboard/arm-2012.09/bin/../arm-none-eabi/lib//libc.a(lib_a-dtoa.o)
 .bss           0x10523388        0x0 /home/leon/riotboard/arm-2012.09/bin/../arm-none-eabi/lib//libc.a(lib_a-fflush.o)
 .bss           0x10523388        0x0 /home/leon/riotboard/arm-2012.09/bin/../arm-none-eabi/lib//libc.a(lib_a-findfp.o)
 .bss           0x10523388        0x0 /home/leon/riotboard/arm-2012.09/bin/../arm-none-eabi/lib//libc.a(lib_a-fputwc.o)
 .bss           0x10523388        0x0 /home/leon/riotboard/arm-2012.09/bin/../arm-none-eabi/lib//libc.a(lib_a-freer.o)
 .bss           0x10523388        0x0 /home/leon/riotboard/arm-2012.09/bin/../arm-none-eabi/lib//libc.a(lib_a-fvwrite.o)
 .bss           0x10523388        0x0 /home/leon/riotboard/arm-2012.09/bin/../arm-none-eabi/lib//libc.a(lib_a-fwalk.o)
 .bss           0x10523388        0xc /home/leon/riotboard/arm-2012.09/bin/../arm-none-eabi/lib//libc.a(lib_a-locale.o)
                0x10523388                _PathLocale
                0x1052338c                __mlocale_changed
                0x10523390                __nlocale_changed
 .bss           0x10523394        0x0 /home/leon/riotboard/arm-2012.09/bin/../arm-none-eabi/lib//libc.a(lib_a-makebuf.o)
 .bss           0x10523394        0x0 /home/leon/riotboard/arm-2012.09/bin/../arm-none-eabi/lib//libc.a(lib_a-memchr.o)
 .bss           0x10523394        0x0 /home/leon/riotboard/arm-2012.09/bin/../arm-none-eabi/lib//libc.a(lib_a-memmove.o)
 .bss           0x10523394        0x0 /home/leon/riotboard/arm-2012.09/bin/../arm-none-eabi/lib//libc.a(lib_a-mprec.o)
 .bss           0x10523394        0x0 /home/leon/riotboard/arm-2012.09/bin/../arm-none-eabi/lib//libc.a(lib_a-reent.o)
 .bss           0x10523394        0x0 /home/leon/riotboard/arm-2012.09/bin/../arm-none-eabi/lib//libc.a(lib_a-refill.o)
 .bss           0x10523394        0x0 /home/leon/riotboard/arm-2012.09/bin/../arm-none-eabi/lib//libc.a(lib_a-s_fpclassify.o)
 .bss           0x10523394        0x0 /home/leon/riotboard/arm-2012.09/bin/../arm-none-eabi/lib//libc.a(lib_a-signal.o)
 .bss           0x10523394        0x0 /home/leon/riotboard/arm-2012.09/bin/../arm-none-eabi/lib//libc.a(lib_a-signalr.o)
 .bss           0x10523394        0x0 /home/leon/riotboard/arm-2012.09/bin/../arm-none-eabi/lib//libc.a(lib_a-stdio.o)
 .bss           0x10523394        0x0 /home/leon/riotboard/arm-2012.09/bin/../arm-none-eabi/lib//libc.a(lib_a-svfiprintf.o)
 .bss           0x10523394        0x0 /home/leon/riotboard/arm-2012.09/bin/../arm-none-eabi/lib//libc.a(lib_a-wcrtomb.o)
 .bss           0x10523394        0x0 /home/leon/riotboard/arm-2012.09/bin/../arm-none-eabi/lib//libc.a(lib_a-wctomb_r.o)
 .bss           0x10523394        0x0 /home/leon/riotboard/arm-2012.09/bin/../arm-none-eabi/lib//libc.a(lib_a-writer.o)
 .bss           0x10523394        0x0 /home/leon/riotboard/arm-2012.09/bin/../arm-none-eabi/lib//libc.a(lib_a-callocr.o)
 .bss           0x10523394        0x0 /home/leon/riotboard/arm-2012.09/bin/../arm-none-eabi/lib//libc.a(lib_a-closer.o)
 .bss           0x10523394        0x0 /home/leon/riotboard/arm-2012.09/bin/../arm-none-eabi/lib//libc.a(lib_a-fclose.o)
 .bss           0x10523394        0x0 /home/leon/riotboard/arm-2012.09/bin/../arm-none-eabi/lib//libc.a(lib_a-fstatr.o)
 .bss           0x10523394        0x0 /home/leon/riotboard/arm-2012.09/bin/../arm-none-eabi/lib//libc.a(lib_a-isattyr.o)
 .bss           0x10523394        0x0 /home/leon/riotboard/arm-2012.09/bin/../arm-none-eabi/lib//libc.a(lib_a-lseekr.o)
 .bss           0x10523394        0x0 /home/leon/riotboard/arm-2012.09/bin/../arm-none-eabi/lib//libc.a(lib_a-readr.o)
 .bss           0x10523394        0x0 /home/leon/riotboard/arm-2012.09/bin/../lib/gcc/arm-none-eabi/4.7.2//libgcc.a(_udivsi3.o)
 .bss           0x10523394        0x0 /home/leon/riotboard/arm-2012.09/bin/../lib/gcc/arm-none-eabi/4.7.2//libgcc.a(_divsi3.o)
 .bss           0x10523394        0x0 /home/leon/riotboard/arm-2012.09/bin/../lib/gcc/arm-none-eabi/4.7.2//libgcc.a(_dvmd_tls.o)
 .bss           0x10523394        0x0 /home/leon/riotboard/arm-2012.09/bin/../lib/gcc/arm-none-eabi/4.7.2//libgcc.a(_arm_addsubdf3.o)
 .bss           0x10523394        0x0 /home/leon/riotboard/arm-2012.09/bin/../lib/gcc/arm-none-eabi/4.7.2//libgcc.a(_arm_muldivdf3.o)
 .bss           0x10523394        0x0 /home/leon/riotboard/arm-2012.09/bin/../lib/gcc/arm-none-eabi/4.7.2//libgcc.a(_arm_cmpdf2.o)
 .bss           0x10523394        0x0 /home/leon/riotboard/arm-2012.09/bin/../lib/gcc/arm-none-eabi/4.7.2//libgcc.a(_arm_fixdfsi.o)
 .bss           0x10523394        0x0 /home/leon/riotboard/arm-2012.09/bin/../lib/gcc/arm-none-eabi/4.7.2//libgcc.a(_aeabi_uldivmod.o)
 .bss           0x10523394        0x0 /home/leon/riotboard/arm-2012.09/bin/../lib/gcc/arm-none-eabi/4.7.2//libgcc.a(bpabi.o)
 .bss           0x10523394        0x0 /home/leon/riotboard/arm-2012.09/bin/../lib/gcc/arm-none-eabi/4.7.2//libgcc.a(_divdi3.o)
 .bss           0x10523394        0x0 /home/leon/riotboard/arm-2012.09/bin/../lib/gcc/arm-none-eabi/4.7.2//libgcc.a(_udivdi3.o)
 .bss           0x10523394        0x0 /home/leon/riotboard/arm-2012.09/bin/../lib/gcc/arm-none-eabi/4.7.2//libgcc.a(_clzsi2.o)
 .bss           0x10523394        0xc /home/leon/git/swp-report/iMX6_Platform_SDK/output/mx6sdl/lib/libsdk.a(runtime_support.o)
                0x10523394                __env
 *(COMMON)
 COMMON         0x105233a0        0x4 /home/leon/riotboard/arm-2012.09/bin/../arm-none-eabi/lib//libc.a(lib_a-reent.o)
                0x105233a0                errno
 *(.bss)
                0x105233a4                __bss_end__ = .

.stacks         0x105233a4     0xc000
                0x105233a4                __stacks_start = .
                0x1052f3a4                . = (. + 0xc000)
 *fill*         0x105233a4     0xc000 
                0x1052f3a4                __stacks_end = .
                0x1052f3a4                top_of_stacks = .
                0x1052f3c0                free_memory_start = ALIGN (0x20)
                0x1852f3a4                . = (. + 0x8000000)
                0x1852f3a4                free_memory_end = .
                0x1852f3a4                _end = .
START GROUP
LOAD /home/leon/git/swp-report/iMX6_Platform_SDK/output/mx6sdl/obds/smart_device_rev_a/obj/apps/common/ivt.o
LOAD /home/leon/git/swp-report/iMX6_Platform_SDK/output/mx6sdl/obds/smart_device_rev_a/obj/apps/common/platform_init.o
LOAD /home/leon/git/swp-report/iMX6_Platform_SDK/output/mx6sdl/obds/smart_device_rev_a/obj/apps/common/print_clock_info.o
LOAD /home/leon/git/swp-report/iMX6_Platform_SDK/output/mx6sdl/obds/smart_device_rev_a/obj/apps/common/print_version.o
LOAD /home/leon/git/swp-report/iMX6_Platform_SDK/output/mx6sdl/obds/smart_device_rev_a/obj/apps/obds/src/obds.o
LOAD /home/leon/git/swp-report/iMX6_Platform_SDK/output/mx6sdl/obds/smart_device_rev_a/obj/apps/obds/src/obds_utils.o
LOAD /home/leon/git/swp-report/iMX6_Platform_SDK/output/mx6sdl/obds/smart_device_rev_a/obj/apps/obds/src/tests/android_buttons_test.o
LOAD /home/leon/git/swp-report/iMX6_Platform_SDK/output/mx6sdl/obds/smart_device_rev_a/obj/apps/obds/src/tests/audio_esai_test.o
LOAD /home/leon/git/swp-report/iMX6_Platform_SDK/output/mx6sdl/obds/smart_device_rev_a/obj/apps/obds/src/tests/audio_ssi_test.o
LOAD /home/leon/git/swp-report/iMX6_Platform_SDK/output/mx6sdl/obds/smart_device_rev_a/obj/apps/obds/src/tests/ddr_test.o
LOAD /home/leon/git/swp-report/iMX6_Platform_SDK/output/mx6sdl/obds/smart_device_rev_a/obj/apps/obds/src/tests/deserializer_ds90ur124.o
LOAD /home/leon/git/swp-report/iMX6_Platform_SDK/output/mx6sdl/obds/smart_device_rev_a/obj/apps/obds/src/tests/display_test.o
LOAD /home/leon/git/swp-report/iMX6_Platform_SDK/output/mx6sdl/obds/smart_device_rev_a/obj/apps/obds/src/tests/enet_mx6dldq_test.o
LOAD /home/leon/git/swp-report/iMX6_Platform_SDK/output/mx6sdl/obds/smart_device_rev_a/obj/apps/obds/src/tests/flexcan_test.o
LOAD /home/leon/git/swp-report/iMX6_Platform_SDK/output/mx6sdl/obds/smart_device_rev_a/obj/apps/obds/src/tests/fm_tuner_si476x_test.o
LOAD /home/leon/git/swp-report/iMX6_Platform_SDK/output/mx6sdl/obds/smart_device_rev_a/obj/apps/obds/src/tests/gpio_led.o
LOAD /home/leon/git/swp-report/iMX6_Platform_SDK/output/mx6sdl/obds/smart_device_rev_a/obj/apps/obds/src/tests/gps_test.o
LOAD /home/leon/git/swp-report/iMX6_Platform_SDK/output/mx6sdl/obds/smart_device_rev_a/obj/apps/obds/src/tests/i2c_check_light_sensor_isl29023.o
LOAD /home/leon/git/swp-report/iMX6_Platform_SDK/output/mx6sdl/obds/smart_device_rev_a/obj/apps/obds/src/tests/i2c_device_barometer_ppl3115.o
LOAD /home/leon/git/swp-report/iMX6_Platform_SDK/output/mx6sdl/obds/smart_device_rev_a/obj/apps/obds/src/tests/i2c_device_check_cs42888.o
LOAD /home/leon/git/swp-report/iMX6_Platform_SDK/output/mx6sdl/obds/smart_device_rev_a/obj/apps/obds/src/tests/i2c_device_digital_compass_mag3110.o
LOAD /home/leon/git/swp-report/iMX6_Platform_SDK/output/mx6sdl/obds/smart_device_rev_a/obj/apps/obds/src/tests/i2c_device_digital_compass_mag3112.o
LOAD /home/leon/git/swp-report/iMX6_Platform_SDK/output/mx6sdl/obds/smart_device_rev_a/obj/apps/obds/src/tests/i2c_device_id_check_mma8450.o
LOAD /home/leon/git/swp-report/iMX6_Platform_SDK/output/mx6sdl/obds/smart_device_rev_a/obj/apps/obds/src/tests/i2c_device_id_check_mma8451.o
LOAD /home/leon/git/swp-report/iMX6_Platform_SDK/output/mx6sdl/obds/smart_device_rev_a/obj/apps/obds/src/tests/i2c_device_id_check_p1003_tsc.o
LOAD /home/leon/git/swp-report/iMX6_Platform_SDK/output/mx6sdl/obds/smart_device_rev_a/obj/apps/obds/src/tests/i2c_device_temp_sensor_emc1046.o
LOAD /home/leon/git/swp-report/iMX6_Platform_SDK/output/mx6sdl/obds/smart_device_rev_a/obj/apps/obds/src/tests/i2c_device_zigbee_mc1323.o
LOAD /home/leon/git/swp-report/iMX6_Platform_SDK/output/mx6sdl/obds/smart_device_rev_a/obj/apps/obds/src/tests/i2c_eeprom_at24cxx_test.o
LOAD /home/leon/git/swp-report/iMX6_Platform_SDK/output/mx6sdl/obds/smart_device_rev_a/obj/apps/obds/src/tests/imx_spi_nor_test.o
LOAD /home/leon/git/swp-report/iMX6_Platform_SDK/output/mx6sdl/obds/smart_device_rev_a/obj/apps/obds/src/tests/mlb_os81050.o
LOAD /home/leon/git/swp-report/iMX6_Platform_SDK/output/mx6sdl/obds/smart_device_rev_a/obj/apps/obds/src/tests/mmcsd_test.o
LOAD /home/leon/git/swp-report/iMX6_Platform_SDK/output/mx6sdl/obds/smart_device_rev_a/obj/apps/obds/src/tests/pmic_da9053.o
LOAD /home/leon/git/swp-report/iMX6_Platform_SDK/output/mx6sdl/obds/smart_device_rev_a/obj/apps/obds/src/tests/pmic_lt3589.o
LOAD /home/leon/git/swp-report/iMX6_Platform_SDK/output/mx6sdl/obds/smart_device_rev_a/obj/apps/obds/src/tests/pmic_max17135.o
LOAD /home/leon/git/swp-report/iMX6_Platform_SDK/output/mx6sdl/obds/smart_device_rev_a/obj/apps/obds/src/tests/pmic_mc13892.o
LOAD /home/leon/git/swp-report/iMX6_Platform_SDK/output/mx6sdl/obds/smart_device_rev_a/obj/apps/obds/src/tests/program_board_id.o
LOAD /home/leon/git/swp-report/iMX6_Platform_SDK/output/mx6sdl/obds/smart_device_rev_a/obj/apps/obds/src/tests/program_mac_address.o
LOAD /home/leon/git/swp-report/iMX6_Platform_SDK/output/mx6sdl/obds/smart_device_rev_a/obj/apps/obds/src/tests/snvs_srtc_test.o
LOAD /home/leon/git/swp-report/iMX6_Platform_SDK/output/mx6sdl/obds/smart_device_rev_a/obj/apps/obds/src/tests/touch_button_test.o
LOAD /home/leon/git/swp-report/iMX6_Platform_SDK/output/mx6sdl/obds/smart_device_rev_a/obj/apps/obds/src/tests/touch_screen.o
LOAD /home/leon/git/swp-report/iMX6_Platform_SDK/output/mx6sdl/obds/smart_device_rev_a/obj/apps/obds/src/tests/touch_screen_max11801.o
LOAD /home/leon/git/swp-report/iMX6_Platform_SDK/output/mx6sdl/obds/smart_device_rev_a/obj/apps/obds/src/tests/usb_tests_obds.o
LOAD /home/leon/git/swp-report/iMX6_Platform_SDK/output/mx6sdl/obds/smart_device_rev_a/obj/apps/obds/src/tests/video_dec_ARD_MB_reset_button.o
LOAD /home/leon/git/swp-report/iMX6_Platform_SDK/output/mx6sdl/obds/smart_device_rev_a/obj/apps/obds/src/tests/video_dec_ARD_MBrst_from_cpu_expander.o
LOAD /home/leon/git/swp-report/iMX6_Platform_SDK/output/mx6sdl/obds/smart_device_rev_a/obj/apps/obds/src/tests/video_dec_adv7180.o
LOAD /home/leon/git/swp-report/iMX6_Platform_SDK/output/mx6sdl/obds/smart_device_rev_a/obj/apps/obds/src/tests/weim_nor_flash_test.o
LOAD /home/leon/git/swp-report/iMX6_Platform_SDK/output/mx6sdl/obds/smart_device_rev_a/obj/sdk/common/ioexpander/test/max7310_test.o
LOAD /home/leon/git/swp-report/iMX6_Platform_SDK/output/mx6sdl/obds/smart_device_rev_a/obj/sdk/common/pmic/pfuse/pf0100.o
LOAD /home/leon/git/swp-report/iMX6_Platform_SDK/output/mx6sdl/obds/smart_device_rev_a/obj/sdk/drivers/audio/src/snd_card.o
LOAD /home/leon/git/swp-report/iMX6_Platform_SDK/output/mx6sdl/obds/smart_device_rev_a/obj/sdk/drivers/camera/test/adv7180_capture.o
LOAD /home/leon/git/swp-report/iMX6_Platform_SDK/output/mx6sdl/obds/smart_device_rev_a/obj/sdk/drivers/camera/test/camera_test.o
LOAD /home/leon/git/swp-report/iMX6_Platform_SDK/output/mx6sdl/obds/smart_device_rev_a/obj/sdk/drivers/camera/test/csi_test_mode.o
LOAD /home/leon/git/swp-report/iMX6_Platform_SDK/output/mx6sdl/obds/smart_device_rev_a/obj/sdk/drivers/camera/test/sensor_capture.o
LOAD /home/leon/git/swp-report/iMX6_Platform_SDK/output/mx6sdl/obds/smart_device_rev_a/obj/sdk/drivers/epdc/test/epdc_test.o
LOAD /home/leon/git/swp-report/iMX6_Platform_SDK/output/mx6sdl/obds/smart_device_rev_a/obj/sdk/drivers/hdmi/test/hdmi_test.o
LOAD /home/leon/git/swp-report/iMX6_Platform_SDK/output/mx6sdl/obds/smart_device_rev_a/obj/sdk/drivers/hdmi/test/init_dma_data.o
LOAD /home/leon/git/swp-report/iMX6_Platform_SDK/output/mx6sdl/obds/smart_device_rev_a/obj/sdk/drivers/ipu/test/ips_display.o
LOAD /home/leon/git/swp-report/iMX6_Platform_SDK/output/mx6sdl/obds/smart_device_rev_a/obj/sdk/drivers/ipu/test/ipu_image.o
LOAD /home/leon/git/swp-report/iMX6_Platform_SDK/output/mx6sdl/obds/smart_device_rev_a/obj/sdk/drivers/spi/test/imx_spi_nor_atmel.o
LOAD /home/leon/git/swp-report/iMX6_Platform_SDK/output/mx6sdl/obds/smart_device_rev_a/obj/sdk/drivers/spi/test/spi_nor_numonyx.o
LOAD /home/leon/git/swp-report/iMX6_Platform_SDK/output/mx6sdl/obds/smart_device_rev_a/obj/sdk/drivers/uart/test/uart_test.o
LOAD /home/leon/git/swp-report/iMX6_Platform_SDK/output/mx6sdl/obds/smart_device_rev_a/obj/sdk/drivers/usb/test/usb0_host_test.o
LOAD /home/leon/git/swp-report/iMX6_Platform_SDK/output/mx6sdl/obds/smart_device_rev_a/obj/sdk/drivers/usb/test/usb0_host_testmodes_test.o
LOAD /home/leon/git/swp-report/iMX6_Platform_SDK/output/mx6sdl/obds/smart_device_rev_a/obj/sdk/drivers/usdhc/test/usdhc_test.o
LOAD /home/leon/git/swp-report/iMX6_Platform_SDK/output/mx6sdl/lib/libsdk.a
LOAD /home/leon/git/swp-report/iMX6_Platform_SDK/output/mx6sdl/lib/libboard_smart_device_rev_a.a
LOAD /home/leon/riotboard/arm-2012.09/bin/../arm-none-eabi/lib//libm.a
LOAD /home/leon/riotboard/arm-2012.09/bin/../arm-none-eabi/lib//libstdc++.a
LOAD /home/leon/riotboard/arm-2012.09/bin/../arm-none-eabi/lib//libc.a
LOAD /home/leon/riotboard/arm-2012.09/bin/../lib/gcc/arm-none-eabi/4.7.2//libgcc.a
END GROUP
OUTPUT(/home/leon/git/swp-report/iMX6_Platform_SDK/output/mx6sdl/obds/smart_device_rev_a/obds.elf elf32-littlearm)

.ARM.attributes
                0x00000000       0x3b
 .ARM.attributes
                0x00000000       0x30 /home/leon/riotboard/arm-2012.09/bin/../lib/gcc/arm-none-eabi/4.7.2//crtbegin.o
 .ARM.attributes
                0x00000030       0x16 /home/leon/riotboard/arm-2012.09/bin/../lib/gcc/arm-none-eabi/4.7.2//crti.o
 .ARM.attributes
                0x00000046       0x30 /home/leon/riotboard/arm-2012.09/bin/../lib/gcc/arm-none-eabi/4.7.2//crtend.o
 .ARM.attributes
                0x00000076       0x18 /home/leon/riotboard/arm-2012.09/bin/../lib/gcc/arm-none-eabi/4.7.2//crtn.o
 .ARM.attributes
                0x0000008e       0x39 /home/leon/git/swp-report/iMX6_Platform_SDK/output/mx6sdl/obds/smart_device_rev_a/obj/apps/common/ivt.o
 .ARM.attributes
                0x000000c7       0x39 /home/leon/git/swp-report/iMX6_Platform_SDK/output/mx6sdl/obds/smart_device_rev_a/obj/apps/common/platform_init.o
 .ARM.attributes
                0x00000100       0x39 /home/leon/git/swp-report/iMX6_Platform_SDK/output/mx6sdl/obds/smart_device_rev_a/obj/apps/common/print_clock_info.o
 .ARM.attributes
                0x00000139       0x39 /home/leon/git/swp-report/iMX6_Platform_SDK/output/mx6sdl/obds/smart_device_rev_a/obj/apps/common/print_version.o
 .ARM.attributes
                0x00000172       0x39 /home/leon/git/swp-report/iMX6_Platform_SDK/output/mx6sdl/obds/smart_device_rev_a/obj/apps/obds/src/obds.o
 .ARM.attributes
                0x000001ab       0x39 /home/leon/git/swp-report/iMX6_Platform_SDK/output/mx6sdl/obds/smart_device_rev_a/obj/apps/obds/src/obds_utils.o
 .ARM.attributes
                0x000001e4       0x39 /home/leon/git/swp-report/iMX6_Platform_SDK/output/mx6sdl/obds/smart_device_rev_a/obj/apps/obds/src/tests/android_buttons_test.o
 .ARM.attributes
                0x0000021d       0x39 /home/leon/git/swp-report/iMX6_Platform_SDK/output/mx6sdl/obds/smart_device_rev_a/obj/apps/obds/src/tests/audio_esai_test.o
 .ARM.attributes
                0x00000256       0x39 /home/leon/git/swp-report/iMX6_Platform_SDK/output/mx6sdl/obds/smart_device_rev_a/obj/apps/obds/src/tests/audio_ssi_test.o
 .ARM.attributes
                0x0000028f       0x39 /home/leon/git/swp-report/iMX6_Platform_SDK/output/mx6sdl/obds/smart_device_rev_a/obj/apps/obds/src/tests/ddr_test.o
 .ARM.attributes
                0x000002c8       0x39 /home/leon/git/swp-report/iMX6_Platform_SDK/output/mx6sdl/obds/smart_device_rev_a/obj/apps/obds/src/tests/deserializer_ds90ur124.o
 .ARM.attributes
                0x00000301       0x39 /home/leon/git/swp-report/iMX6_Platform_SDK/output/mx6sdl/obds/smart_device_rev_a/obj/apps/obds/src/tests/display_test.o
 .ARM.attributes
                0x0000033a       0x39 /home/leon/git/swp-report/iMX6_Platform_SDK/output/mx6sdl/obds/smart_device_rev_a/obj/apps/obds/src/tests/enet_mx6dldq_test.o
 .ARM.attributes
                0x00000373       0x39 /home/leon/git/swp-report/iMX6_Platform_SDK/output/mx6sdl/obds/smart_device_rev_a/obj/apps/obds/src/tests/flexcan_test.o
 .ARM.attributes
                0x000003ac       0x39 /home/leon/git/swp-report/iMX6_Platform_SDK/output/mx6sdl/obds/smart_device_rev_a/obj/apps/obds/src/tests/fm_tuner_si476x_test.o
 .ARM.attributes
                0x000003e5       0x39 /home/leon/git/swp-report/iMX6_Platform_SDK/output/mx6sdl/obds/smart_device_rev_a/obj/apps/obds/src/tests/gpio_led.o
 .ARM.attributes
                0x0000041e       0x39 /home/leon/git/swp-report/iMX6_Platform_SDK/output/mx6sdl/obds/smart_device_rev_a/obj/apps/obds/src/tests/gps_test.o
 .ARM.attributes
                0x00000457       0x39 /home/leon/git/swp-report/iMX6_Platform_SDK/output/mx6sdl/obds/smart_device_rev_a/obj/apps/obds/src/tests/i2c_check_light_sensor_isl29023.o
 .ARM.attributes
                0x00000490       0x39 /home/leon/git/swp-report/iMX6_Platform_SDK/output/mx6sdl/obds/smart_device_rev_a/obj/apps/obds/src/tests/i2c_device_barometer_ppl3115.o
 .ARM.attributes
                0x000004c9       0x39 /home/leon/git/swp-report/iMX6_Platform_SDK/output/mx6sdl/obds/smart_device_rev_a/obj/apps/obds/src/tests/i2c_device_check_cs42888.o
 .ARM.attributes
                0x00000502       0x39 /home/leon/git/swp-report/iMX6_Platform_SDK/output/mx6sdl/obds/smart_device_rev_a/obj/apps/obds/src/tests/i2c_device_digital_compass_mag3110.o
 .ARM.attributes
                0x0000053b       0x39 /home/leon/git/swp-report/iMX6_Platform_SDK/output/mx6sdl/obds/smart_device_rev_a/obj/apps/obds/src/tests/i2c_device_digital_compass_mag3112.o
 .ARM.attributes
                0x00000574       0x39 /home/leon/git/swp-report/iMX6_Platform_SDK/output/mx6sdl/obds/smart_device_rev_a/obj/apps/obds/src/tests/i2c_device_id_check_mma8450.o
 .ARM.attributes
                0x000005ad       0x39 /home/leon/git/swp-report/iMX6_Platform_SDK/output/mx6sdl/obds/smart_device_rev_a/obj/apps/obds/src/tests/i2c_device_id_check_mma8451.o
 .ARM.attributes
                0x000005e6       0x39 /home/leon/git/swp-report/iMX6_Platform_SDK/output/mx6sdl/obds/smart_device_rev_a/obj/apps/obds/src/tests/i2c_device_id_check_p1003_tsc.o
 .ARM.attributes
                0x0000061f       0x39 /home/leon/git/swp-report/iMX6_Platform_SDK/output/mx6sdl/obds/smart_device_rev_a/obj/apps/obds/src/tests/i2c_device_temp_sensor_emc1046.o
 .ARM.attributes
                0x00000658       0x39 /home/leon/git/swp-report/iMX6_Platform_SDK/output/mx6sdl/obds/smart_device_rev_a/obj/apps/obds/src/tests/i2c_device_zigbee_mc1323.o
 .ARM.attributes
                0x00000691       0x39 /home/leon/git/swp-report/iMX6_Platform_SDK/output/mx6sdl/obds/smart_device_rev_a/obj/apps/obds/src/tests/i2c_eeprom_at24cxx_test.o
 .ARM.attributes
                0x000006ca       0x39 /home/leon/git/swp-report/iMX6_Platform_SDK/output/mx6sdl/obds/smart_device_rev_a/obj/apps/obds/src/tests/imx_spi_nor_test.o
 .ARM.attributes
                0x00000703       0x39 /home/leon/git/swp-report/iMX6_Platform_SDK/output/mx6sdl/obds/smart_device_rev_a/obj/apps/obds/src/tests/mlb_os81050.o
 .ARM.attributes
                0x0000073c       0x39 /home/leon/git/swp-report/iMX6_Platform_SDK/output/mx6sdl/obds/smart_device_rev_a/obj/apps/obds/src/tests/mmcsd_test.o
 .ARM.attributes
                0x00000775       0x39 /home/leon/git/swp-report/iMX6_Platform_SDK/output/mx6sdl/obds/smart_device_rev_a/obj/apps/obds/src/tests/pmic_da9053.o
 .ARM.attributes
                0x000007ae       0x39 /home/leon/git/swp-report/iMX6_Platform_SDK/output/mx6sdl/obds/smart_device_rev_a/obj/apps/obds/src/tests/pmic_lt3589.o
 .ARM.attributes
                0x000007e7       0x39 /home/leon/git/swp-report/iMX6_Platform_SDK/output/mx6sdl/obds/smart_device_rev_a/obj/apps/obds/src/tests/pmic_max17135.o
 .ARM.attributes
                0x00000820       0x39 /home/leon/git/swp-report/iMX6_Platform_SDK/output/mx6sdl/obds/smart_device_rev_a/obj/apps/obds/src/tests/pmic_mc13892.o
 .ARM.attributes
                0x00000859       0x39 /home/leon/git/swp-report/iMX6_Platform_SDK/output/mx6sdl/obds/smart_device_rev_a/obj/apps/obds/src/tests/program_board_id.o
 .ARM.attributes
                0x00000892       0x39 /home/leon/git/swp-report/iMX6_Platform_SDK/output/mx6sdl/obds/smart_device_rev_a/obj/apps/obds/src/tests/program_mac_address.o
 .ARM.attributes
                0x000008cb       0x39 /home/leon/git/swp-report/iMX6_Platform_SDK/output/mx6sdl/obds/smart_device_rev_a/obj/apps/obds/src/tests/snvs_srtc_test.o
 .ARM.attributes
                0x00000904       0x39 /home/leon/git/swp-report/iMX6_Platform_SDK/output/mx6sdl/obds/smart_device_rev_a/obj/apps/obds/src/tests/touch_button_test.o
 .ARM.attributes
                0x0000093d       0x39 /home/leon/git/swp-report/iMX6_Platform_SDK/output/mx6sdl/obds/smart_device_rev_a/obj/apps/obds/src/tests/touch_screen.o
 .ARM.attributes
                0x00000976       0x39 /home/leon/git/swp-report/iMX6_Platform_SDK/output/mx6sdl/obds/smart_device_rev_a/obj/apps/obds/src/tests/touch_screen_max11801.o
 .ARM.attributes
                0x000009af       0x39 /home/leon/git/swp-report/iMX6_Platform_SDK/output/mx6sdl/obds/smart_device_rev_a/obj/apps/obds/src/tests/usb_tests_obds.o
 .ARM.attributes
                0x000009e8       0x39 /home/leon/git/swp-report/iMX6_Platform_SDK/output/mx6sdl/obds/smart_device_rev_a/obj/apps/obds/src/tests/video_dec_ARD_MB_reset_button.o
 .ARM.attributes
                0x00000a21       0x39 /home/leon/git/swp-report/iMX6_Platform_SDK/output/mx6sdl/obds/smart_device_rev_a/obj/apps/obds/src/tests/video_dec_ARD_MBrst_from_cpu_expander.o
 .ARM.attributes
                0x00000a5a       0x39 /home/leon/git/swp-report/iMX6_Platform_SDK/output/mx6sdl/obds/smart_device_rev_a/obj/apps/obds/src/tests/video_dec_adv7180.o
 .ARM.attributes
                0x00000a93       0x39 /home/leon/git/swp-report/iMX6_Platform_SDK/output/mx6sdl/obds/smart_device_rev_a/obj/apps/obds/src/tests/weim_nor_flash_test.o
 .ARM.attributes
                0x00000acc       0x39 /home/leon/git/swp-report/iMX6_Platform_SDK/output/mx6sdl/obds/smart_device_rev_a/obj/sdk/common/ioexpander/test/max7310_test.o
 .ARM.attributes
                0x00000b05       0x39 /home/leon/git/swp-report/iMX6_Platform_SDK/output/mx6sdl/obds/smart_device_rev_a/obj/sdk/common/pmic/pfuse/pf0100.o
 .ARM.attributes
                0x00000b3e       0x39 /home/leon/git/swp-report/iMX6_Platform_SDK/output/mx6sdl/obds/smart_device_rev_a/obj/sdk/drivers/audio/src/snd_card.o
 .ARM.attributes
                0x00000b77       0x39 /home/leon/git/swp-report/iMX6_Platform_SDK/output/mx6sdl/obds/smart_device_rev_a/obj/sdk/drivers/camera/test/adv7180_capture.o
 .ARM.attributes
                0x00000bb0       0x39 /home/leon/git/swp-report/iMX6_Platform_SDK/output/mx6sdl/obds/smart_device_rev_a/obj/sdk/drivers/camera/test/camera_test.o
 .ARM.attributes
                0x00000be9       0x39 /home/leon/git/swp-report/iMX6_Platform_SDK/output/mx6sdl/obds/smart_device_rev_a/obj/sdk/drivers/camera/test/csi_test_mode.o
 .ARM.attributes
                0x00000c22       0x39 /home/leon/git/swp-report/iMX6_Platform_SDK/output/mx6sdl/obds/smart_device_rev_a/obj/sdk/drivers/camera/test/sensor_capture.o
 .ARM.attributes
                0x00000c5b       0x39 /home/leon/git/swp-report/iMX6_Platform_SDK/output/mx6sdl/obds/smart_device_rev_a/obj/sdk/drivers/epdc/test/epdc_test.o
 .ARM.attributes
                0x00000c94       0x39 /home/leon/git/swp-report/iMX6_Platform_SDK/output/mx6sdl/obds/smart_device_rev_a/obj/sdk/drivers/hdmi/test/hdmi_test.o
 .ARM.attributes
                0x00000ccd       0x39 /home/leon/git/swp-report/iMX6_Platform_SDK/output/mx6sdl/obds/smart_device_rev_a/obj/sdk/drivers/hdmi/test/init_dma_data.o
 .ARM.attributes
                0x00000d06       0x39 /home/leon/git/swp-report/iMX6_Platform_SDK/output/mx6sdl/obds/smart_device_rev_a/obj/sdk/drivers/ipu/test/ips_display.o
 .ARM.attributes
                0x00000d3f       0x39 /home/leon/git/swp-report/iMX6_Platform_SDK/output/mx6sdl/obds/smart_device_rev_a/obj/sdk/drivers/ipu/test/ipu_image.o
 .ARM.attributes
                0x00000d78       0x39 /home/leon/git/swp-report/iMX6_Platform_SDK/output/mx6sdl/obds/smart_device_rev_a/obj/sdk/drivers/spi/test/imx_spi_nor_atmel.o
 .ARM.attributes
                0x00000db1       0x39 /home/leon/git/swp-report/iMX6_Platform_SDK/output/mx6sdl/obds/smart_device_rev_a/obj/sdk/drivers/spi/test/spi_nor_numonyx.o
 .ARM.attributes
                0x00000dea       0x39 /home/leon/git/swp-report/iMX6_Platform_SDK/output/mx6sdl/obds/smart_device_rev_a/obj/sdk/drivers/uart/test/uart_test.o
 .ARM.attributes
                0x00000e23       0x39 /home/leon/git/swp-report/iMX6_Platform_SDK/output/mx6sdl/obds/smart_device_rev_a/obj/sdk/drivers/usb/test/usb0_host_test.o
 .ARM.attributes
                0x00000e5c       0x39 /home/leon/git/swp-report/iMX6_Platform_SDK/output/mx6sdl/obds/smart_device_rev_a/obj/sdk/drivers/usb/test/usb0_host_testmodes_test.o
 .ARM.attributes
                0x00000e95       0x39 /home/leon/git/swp-report/iMX6_Platform_SDK/output/mx6sdl/obds/smart_device_rev_a/obj/sdk/drivers/usdhc/test/usdhc_test.o
 .ARM.attributes
                0x00000ece       0x39 /home/leon/git/swp-report/iMX6_Platform_SDK/output/mx6sdl/lib/libsdk.a(max7310.o)
 .ARM.attributes
                0x00000f07       0x39 /home/leon/git/swp-report/iMX6_Platform_SDK/output/mx6sdl/lib/libsdk.a(ccm_pll.o)
 .ARM.attributes
                0x00000f40       0x16 /home/leon/git/swp-report/iMX6_Platform_SDK/output/mx6sdl/lib/libsdk.a(cortexA9.o)
 .ARM.attributes
                0x00000f56       0x39 /home/leon/git/swp-report/iMX6_Platform_SDK/output/mx6sdl/lib/libsdk.a(gic.o)
 .ARM.attributes
                0x00000f8f       0x39 /home/leon/git/swp-report/iMX6_Platform_SDK/output/mx6sdl/lib/libsdk.a(interrupt.o)
 .ARM.attributes
                0x00000fc8       0x39 /home/leon/git/swp-report/iMX6_Platform_SDK/output/mx6sdl/lib/libsdk.a(mmu.o)
 .ARM.attributes
                0x00001001       0x16 /home/leon/git/swp-report/iMX6_Platform_SDK/output/mx6sdl/lib/libsdk.a(startup.o)
 .ARM.attributes
                0x00001017       0x14 /home/leon/git/swp-report/iMX6_Platform_SDK/output/mx6sdl/lib/libsdk.a(vectors.o)
 .ARM.attributes
                0x0000102b       0x39 /home/leon/git/swp-report/iMX6_Platform_SDK/output/mx6sdl/lib/libsdk.a(menu.o)
 .ARM.attributes
                0x00001064       0x39 /home/leon/git/swp-report/iMX6_Platform_SDK/output/mx6sdl/lib/libsdk.a(sdk_version.o)
 .ARM.attributes
                0x0000109d       0x39 /home/leon/git/swp-report/iMX6_Platform_SDK/output/mx6sdl/lib/libsdk.a(system_util.o)
 .ARM.attributes
                0x000010d6       0x39 /home/leon/git/swp-report/iMX6_Platform_SDK/output/mx6sdl/lib/libsdk.a(text_color.o)
 .ARM.attributes
                0x0000110f       0x39 /home/leon/git/swp-report/iMX6_Platform_SDK/output/mx6sdl/lib/libsdk.a(cs42888.o)
 .ARM.attributes
                0x00001148       0x39 /home/leon/git/swp-report/iMX6_Platform_SDK/output/mx6sdl/lib/libsdk.a(imx-ssi.o)
 .ARM.attributes
                0x00001181       0x39 /home/leon/git/swp-report/iMX6_Platform_SDK/output/mx6sdl/lib/libsdk.a(imx_audmux.o)
 .ARM.attributes
                0x000011ba       0x39 /home/leon/git/swp-report/iMX6_Platform_SDK/output/mx6sdl/lib/libsdk.a(imx_esai.o)
 .ARM.attributes
                0x000011f3       0x39 /home/leon/git/swp-report/iMX6_Platform_SDK/output/mx6sdl/lib/libsdk.a(imx_spdif.o)
 .ARM.attributes
                0x0000122c       0x39 /home/leon/git/swp-report/iMX6_Platform_SDK/output/mx6sdl/lib/libsdk.a(sgtl5000.o)
 .ARM.attributes
                0x00001265       0x39 /home/leon/git/swp-report/iMX6_Platform_SDK/output/mx6sdl/lib/libsdk.a(wm8958_dac.o)
 .ARM.attributes
                0x0000129e       0x39 /home/leon/git/swp-report/iMX6_Platform_SDK/output/mx6sdl/lib/libsdk.a(wm8962.o)
 .ARM.attributes
                0x000012d7       0x39 /home/leon/git/swp-report/iMX6_Platform_SDK/output/mx6sdl/lib/libsdk.a(board_id.o)
 .ARM.attributes
                0x00001310       0x39 /home/leon/git/swp-report/iMX6_Platform_SDK/output/mx6sdl/lib/libsdk.a(smd_sensor.o)
 .ARM.attributes
                0x00001349       0x39 /home/leon/git/swp-report/iMX6_Platform_SDK/output/mx6sdl/lib/libsdk.a(enet_drv.o)
 .ARM.attributes
                0x00001382       0x39 /home/leon/git/swp-report/iMX6_Platform_SDK/output/mx6sdl/lib/libsdk.a(mxc_epdc.o)
 .ARM.attributes
                0x000013bb       0x39 /home/leon/git/swp-report/iMX6_Platform_SDK/output/mx6sdl/lib/libsdk.a(gpio.o)
 .ARM.attributes
                0x000013f4       0x39 /home/leon/git/swp-report/iMX6_Platform_SDK/output/mx6sdl/lib/libsdk.a(imx6sdl_gpio_map.o)
 .ARM.attributes
                0x0000142d       0x39 /home/leon/git/swp-report/iMX6_Platform_SDK/output/mx6sdl/lib/libsdk.a(hdmi_tx.o)
 .ARM.attributes
                0x00001466       0x39 /home/leon/git/swp-report/iMX6_Platform_SDK/output/mx6sdl/lib/libsdk.a(hdmi_tx_audio.o)
 .ARM.attributes
                0x0000149f       0x39 /home/leon/git/swp-report/iMX6_Platform_SDK/output/mx6sdl/lib/libsdk.a(hdmi_tx_phy.o)
 .ARM.attributes
                0x000014d8       0x39 /home/leon/git/swp-report/iMX6_Platform_SDK/output/mx6sdl/lib/libsdk.a(imx_i2c.o)
 .ARM.attributes
                0x00001511       0x39 /home/leon/git/swp-report/iMX6_Platform_SDK/output/mx6sdl/lib/libsdk.a(ips_disp_panel.o)
 .ARM.attributes
                0x0000154a       0x39 /home/leon/git/swp-report/iMX6_Platform_SDK/output/mx6sdl/lib/libsdk.a(ipu_common.o)
 .ARM.attributes
                0x00001583       0x39 /home/leon/git/swp-report/iMX6_Platform_SDK/output/mx6sdl/lib/libsdk.a(ipu_csi.o)
 .ARM.attributes
                0x000015bc       0x39 /home/leon/git/swp-report/iMX6_Platform_SDK/output/mx6sdl/lib/libsdk.a(ipu_dc.o)
 .ARM.attributes
                0x000015f5       0x39 /home/leon/git/swp-report/iMX6_Platform_SDK/output/mx6sdl/lib/libsdk.a(ipu_di.o)
 .ARM.attributes
                0x0000162e       0x39 /home/leon/git/swp-report/iMX6_Platform_SDK/output/mx6sdl/lib/libsdk.a(ipu_dmfc.o)
 .ARM.attributes
                0x00001667       0x39 /home/leon/git/swp-report/iMX6_Platform_SDK/output/mx6sdl/lib/libsdk.a(ipu_dp.o)
 .ARM.attributes
                0x000016a0       0x39 /home/leon/git/swp-report/iMX6_Platform_SDK/output/mx6sdl/lib/libsdk.a(ipu_idmac.o)
 .ARM.attributes
                0x000016d9       0x39 /home/leon/git/swp-report/iMX6_Platform_SDK/output/mx6sdl/lib/libsdk.a(ipu_vdi.o)
 .ARM.attributes
                0x00001712       0x39 /home/leon/git/swp-report/iMX6_Platform_SDK/output/mx6sdl/lib/libsdk.a(ldb.o)
 .ARM.attributes
                0x0000174b       0x39 /home/leon/git/swp-report/iMX6_Platform_SDK/output/mx6sdl/lib/libsdk.a(ocotp.o)
 .ARM.attributes
                0x00001784       0x39 /home/leon/git/swp-report/iMX6_Platform_SDK/output/mx6sdl/lib/libsdk.a(ecspi.o)
 .ARM.attributes
                0x000017bd       0x39 /home/leon/git/swp-report/iMX6_Platform_SDK/output/mx6sdl/lib/libsdk.a(timer.o)
 .ARM.attributes
                0x000017f6       0x39 /home/leon/git/swp-report/iMX6_Platform_SDK/output/mx6sdl/lib/libsdk.a(imx_uart.o)
 .ARM.attributes
                0x0000182f       0x39 /home/leon/git/swp-report/iMX6_Platform_SDK/output/mx6sdl/lib/libsdk.a(usb_common.o)
 .ARM.attributes
                0x00001868       0x39 /home/leon/git/swp-report/iMX6_Platform_SDK/output/mx6sdl/lib/libsdk.a(usbh_drv.o)
 .ARM.attributes
                0x000018a1       0x39 /home/leon/git/swp-report/iMX6_Platform_SDK/output/mx6sdl/lib/libsdk.a(usdhc.o)
 .ARM.attributes
                0x000018da       0x39 /home/leon/git/swp-report/iMX6_Platform_SDK/output/mx6sdl/lib/libsdk.a(usdhc_host.o)
 .ARM.attributes
                0x00001913       0x39 /home/leon/git/swp-report/iMX6_Platform_SDK/output/mx6sdl/lib/libsdk.a(usdhc_mmc.o)
 .ARM.attributes
                0x0000194c       0x39 /home/leon/git/swp-report/iMX6_Platform_SDK/output/mx6sdl/lib/libsdk.a(usdhc_sd.o)
 .ARM.attributes
                0x00001985       0x14 /home/leon/git/swp-report/iMX6_Platform_SDK/output/mx6sdl/lib/libsdk.a(arm_abort.o)
 .ARM.attributes
                0x00001999       0x39 /home/leon/git/swp-report/iMX6_Platform_SDK/output/mx6sdl/lib/libsdk.a(armv7_cache.o)
 .ARM.attributes
                0x000019d2       0x39 /home/leon/git/swp-report/iMX6_Platform_SDK/output/mx6sdl/lib/libsdk.a(camera_profile.o)
 .ARM.attributes
                0x00001a0b       0x39 /home/leon/git/swp-report/iMX6_Platform_SDK/output/mx6sdl/lib/libsdk.a(hdmi_common.o)
 .ARM.attributes
                0x00001a44       0x39 /home/leon/git/swp-report/iMX6_Platform_SDK/output/mx6sdl/lib/libsdk.a(ipu_ic.o)
 .ARM.attributes
                0x00001a7d       0x39 /home/leon/git/swp-report/iMX6_Platform_SDK/output/mx6sdl/lib/libsdk.a(epit.o)
 .ARM.attributes
                0x00001ab6       0x39 /home/leon/git/swp-report/iMX6_Platform_SDK/output/mx6sdl/lib/libsdk.a(mx6x_usb.o)
 .ARM.attributes
                0x00001aef       0x39 /home/leon/git/swp-report/iMX6_Platform_SDK/output/mx6sdl/lib/libsdk.a(abort_handler.o)
 .ARM.attributes
                0x00001b28       0x39 /home/leon/git/swp-report/iMX6_Platform_SDK/output/mx6sdl/lib/libboard_smart_device_rev_a.a(board_audio.o)
 .ARM.attributes
                0x00001b61       0x39 /home/leon/git/swp-report/iMX6_Platform_SDK/output/mx6sdl/lib/libboard_smart_device_rev_a.a(board_buttons.o)
 .ARM.attributes
                0x00001b9a       0x39 /home/leon/git/swp-report/iMX6_Platform_SDK/output/mx6sdl/lib/libboard_smart_device_rev_a.a(board_camera.o)
 .ARM.attributes
                0x00001bd3       0x39 /home/leon/git/swp-report/iMX6_Platform_SDK/output/mx6sdl/lib/libboard_smart_device_rev_a.a(board_display.o)
 .ARM.attributes
                0x00001c0c       0x39 /home/leon/git/swp-report/iMX6_Platform_SDK/output/mx6sdl/lib/libboard_smart_device_rev_a.a(board_hdmi.o)
 .ARM.attributes
                0x00001c45       0x39 /home/leon/git/swp-report/iMX6_Platform_SDK/output/mx6sdl/lib/libboard_smart_device_rev_a.a(board_i2c.o)
 .ARM.attributes
                0x00001c7e       0x39 /home/leon/git/swp-report/iMX6_Platform_SDK/output/mx6sdl/lib/libboard_smart_device_rev_a.a(board_io_expanders.o)
 .ARM.attributes
                0x00001cb7       0x39 /home/leon/git/swp-report/iMX6_Platform_SDK/output/mx6sdl/lib/libboard_smart_device_rev_a.a(board_mipi.o)
 .ARM.attributes
                0x00001cf0       0x39 /home/leon/git/swp-report/iMX6_Platform_SDK/output/mx6sdl/lib/libboard_smart_device_rev_a.a(board_network.o)
 .ARM.attributes
                0x00001d29       0x39 /home/leon/git/swp-report/iMX6_Platform_SDK/output/mx6sdl/lib/libboard_smart_device_rev_a.a(board_usb.o)
 .ARM.attributes
                0x00001d62       0x39 /home/leon/git/swp-report/iMX6_Platform_SDK/output/mx6sdl/lib/libboard_smart_device_rev_a.a(board_usdhc.o)
 .ARM.attributes
                0x00001d9b       0x39 /home/leon/git/swp-report/iMX6_Platform_SDK/output/mx6sdl/lib/libboard_smart_device_rev_a.a(hardware_modules.o)
 .ARM.attributes
                0x00001dd4       0x39 /home/leon/git/swp-report/iMX6_Platform_SDK/output/mx6sdl/lib/libboard_smart_device_rev_a.a(dcd.o)
 .ARM.attributes
                0x00001e0d       0x39 /home/leon/git/swp-report/iMX6_Platform_SDK/output/mx6sdl/lib/libboard_smart_device_rev_a.a(audmux_iomux_config.o)
 .ARM.attributes
                0x00001e46       0x39 /home/leon/git/swp-report/iMX6_Platform_SDK/output/mx6sdl/lib/libboard_smart_device_rev_a.a(ccm_iomux_config.o)
 .ARM.attributes
                0x00001e7f       0x39 /home/leon/git/swp-report/iMX6_Platform_SDK/output/mx6sdl/lib/libboard_smart_device_rev_a.a(ecspi_iomux_config.o)
 .ARM.attributes
                0x00001eb8       0x39 /home/leon/git/swp-report/iMX6_Platform_SDK/output/mx6sdl/lib/libboard_smart_device_rev_a.a(enet_iomux_config.o)
 .ARM.attributes
                0x00001ef1       0x39 /home/leon/git/swp-report/iMX6_Platform_SDK/output/mx6sdl/lib/libboard_smart_device_rev_a.a(epdc_iomux_config.o)
 .ARM.attributes
                0x00001f2a       0x39 /home/leon/git/swp-report/iMX6_Platform_SDK/output/mx6sdl/lib/libboard_smart_device_rev_a.a(i2c_iomux_config.o)
 .ARM.attributes
                0x00001f63       0x39 /home/leon/git/swp-report/iMX6_Platform_SDK/output/mx6sdl/lib/libboard_smart_device_rev_a.a(iomux_config.o)
 .ARM.attributes
                0x00001f9c       0x39 /home/leon/git/swp-report/iMX6_Platform_SDK/output/mx6sdl/lib/libboard_smart_device_rev_a.a(ipu1_iomux_config.o)
 .ARM.attributes
                0x00001fd5       0x39 /home/leon/git/swp-report/iMX6_Platform_SDK/output/mx6sdl/lib/libboard_smart_device_rev_a.a(ipu_iomux_config.o)
 .ARM.attributes
                0x0000200e       0x39 /home/leon/git/swp-report/iMX6_Platform_SDK/output/mx6sdl/lib/libboard_smart_device_rev_a.a(kpp_iomux_config.o)
 .ARM.attributes
                0x00002047       0x39 /home/leon/git/swp-report/iMX6_Platform_SDK/output/mx6sdl/lib/libboard_smart_device_rev_a.a(mmdc_iomux_config.o)
 .ARM.attributes
                0x00002080       0x39 /home/leon/git/swp-report/iMX6_Platform_SDK/output/mx6sdl/lib/libboard_smart_device_rev_a.a(pwm1_iomux_config.o)
 .ARM.attributes
                0x000020b9       0x39 /home/leon/git/swp-report/iMX6_Platform_SDK/output/mx6sdl/lib/libboard_smart_device_rev_a.a(sjc_iomux_config.o)
 .ARM.attributes
                0x000020f2       0x39 /home/leon/git/swp-report/iMX6_Platform_SDK/output/mx6sdl/lib/libboard_smart_device_rev_a.a(uart1_iomux_config.o)
 .ARM.attributes
                0x0000212b       0x39 /home/leon/git/swp-report/iMX6_Platform_SDK/output/mx6sdl/lib/libboard_smart_device_rev_a.a(uart_iomux_config.o)
 .ARM.attributes
                0x00002164       0x39 /home/leon/git/swp-report/iMX6_Platform_SDK/output/mx6sdl/lib/libboard_smart_device_rev_a.a(usdhc2_iomux_config.o)
 .ARM.attributes
                0x0000219d       0x39 /home/leon/git/swp-report/iMX6_Platform_SDK/output/mx6sdl/lib/libboard_smart_device_rev_a.a(usdhc3_iomux_config.o)
 .ARM.attributes
                0x000021d6       0x39 /home/leon/git/swp-report/iMX6_Platform_SDK/output/mx6sdl/lib/libboard_smart_device_rev_a.a(usdhc4_iomux_config.o)
 .ARM.attributes
                0x0000220f       0x39 /home/leon/git/swp-report/iMX6_Platform_SDK/output/mx6sdl/lib/libboard_smart_device_rev_a.a(usdhc_iomux_config.o)
 .ARM.attributes
                0x00002248       0x39 /home/leon/git/swp-report/iMX6_Platform_SDK/output/mx6sdl/lib/libboard_smart_device_rev_a.a(ecspi1_iomux_config.o)
 .ARM.attributes
                0x00002281       0x39 /home/leon/git/swp-report/iMX6_Platform_SDK/output/mx6sdl/lib/libboard_smart_device_rev_a.a(flexcan1_iomux_config.o)
 .ARM.attributes
                0x000022ba       0x39 /home/leon/git/swp-report/iMX6_Platform_SDK/output/mx6sdl/lib/libboard_smart_device_rev_a.a(gpio1_iomux_config.o)
 .ARM.attributes
                0x000022f3       0x39 /home/leon/git/swp-report/iMX6_Platform_SDK/output/mx6sdl/lib/libboard_smart_device_rev_a.a(gpio2_iomux_config.o)
 .ARM.attributes
                0x0000232c       0x39 /home/leon/git/swp-report/iMX6_Platform_SDK/output/mx6sdl/lib/libboard_smart_device_rev_a.a(gpio3_iomux_config.o)
 .ARM.attributes
                0x00002365       0x39 /home/leon/git/swp-report/iMX6_Platform_SDK/output/mx6sdl/lib/libboard_smart_device_rev_a.a(gpio4_iomux_config.o)
 .ARM.attributes
                0x0000239e       0x39 /home/leon/git/swp-report/iMX6_Platform_SDK/output/mx6sdl/lib/libboard_smart_device_rev_a.a(gpio5_iomux_config.o)
 .ARM.attributes
                0x000023d7       0x39 /home/leon/git/swp-report/iMX6_Platform_SDK/output/mx6sdl/lib/libboard_smart_device_rev_a.a(gpio6_iomux_config.o)
 .ARM.attributes
                0x00002410       0x39 /home/leon/git/swp-report/iMX6_Platform_SDK/output/mx6sdl/lib/libboard_smart_device_rev_a.a(gpio7_iomux_config.o)
 .ARM.attributes
                0x00002449       0x39 /home/leon/git/swp-report/iMX6_Platform_SDK/output/mx6sdl/lib/libboard_smart_device_rev_a.a(gps_iomux_config.o)
 .ARM.attributes
                0x00002482       0x39 /home/leon/git/swp-report/iMX6_Platform_SDK/output/mx6sdl/lib/libboard_smart_device_rev_a.a(i2c1_iomux_config.o)
 .ARM.attributes
                0x000024bb       0x39 /home/leon/git/swp-report/iMX6_Platform_SDK/output/mx6sdl/lib/libboard_smart_device_rev_a.a(i2c2_iomux_config.o)
 .ARM.attributes
                0x000024f4       0x39 /home/leon/git/swp-report/iMX6_Platform_SDK/output/mx6sdl/lib/libboard_smart_device_rev_a.a(i2c3_iomux_config.o)
 .ARM.attributes
                0x0000252d       0x30 /home/leon/riotboard/arm-2012.09/bin/../arm-none-eabi/lib//libc.a(lib_a-assert.o)
 .ARM.attributes
                0x0000255d       0x30 /home/leon/riotboard/arm-2012.09/bin/../arm-none-eabi/lib//libc.a(lib_a-bzero.o)
 .ARM.attributes
                0x0000258d       0x30 /home/leon/riotboard/arm-2012.09/bin/../arm-none-eabi/lib//libc.a(lib_a-fiprintf.o)
 .ARM.attributes
                0x000025bd       0x30 /home/leon/riotboard/arm-2012.09/bin/../arm-none-eabi/lib//libc.a(lib_a-fputc.o)
 .ARM.attributes
                0x000025ed       0x30 /home/leon/riotboard/arm-2012.09/bin/../arm-none-eabi/lib//libc.a(lib_a-impure.o)
 .ARM.attributes
                0x0000261d       0x30 /home/leon/riotboard/arm-2012.09/bin/../arm-none-eabi/lib//libc.a(lib_a-init.o)
 .ARM.attributes
                0x0000264d       0x30 /home/leon/riotboard/arm-2012.09/bin/../arm-none-eabi/lib//libc.a(lib_a-malloc.o)
 .ARM.attributes
                0x0000267d       0x30 /home/leon/riotboard/arm-2012.09/bin/../arm-none-eabi/lib//libc.a(lib_a-mallocr.o)
 .ARM.attributes
                0x000026ad       0x30 /home/leon/riotboard/arm-2012.09/bin/../arm-none-eabi/lib//libc.a(lib_a-memcpy.o)
 .ARM.attributes
                0x000026dd       0x30 /home/leon/riotboard/arm-2012.09/bin/../arm-none-eabi/lib//libc.a(lib_a-memset.o)
 .ARM.attributes
                0x0000270d       0x30 /home/leon/riotboard/arm-2012.09/bin/../arm-none-eabi/lib//libc.a(lib_a-mlock.o)
 .ARM.attributes
                0x0000273d       0x30 /home/leon/riotboard/arm-2012.09/bin/../arm-none-eabi/lib//libc.a(lib_a-printf.o)
 .ARM.attributes
                0x0000276d       0x30 /home/leon/riotboard/arm-2012.09/bin/../arm-none-eabi/lib//libc.a(lib_a-putc.o)
 .ARM.attributes
                0x0000279d       0x30 /home/leon/riotboard/arm-2012.09/bin/../arm-none-eabi/lib//libc.a(lib_a-realloc.o)
 .ARM.attributes
                0x000027cd       0x30 /home/leon/riotboard/arm-2012.09/bin/../arm-none-eabi/lib//libc.a(lib_a-reallocr.o)
 .ARM.attributes
                0x000027fd       0x30 /home/leon/riotboard/arm-2012.09/bin/../arm-none-eabi/lib//libc.a(lib_a-rget.o)
 .ARM.attributes
                0x0000282d       0x30 /home/leon/riotboard/arm-2012.09/bin/../arm-none-eabi/lib//libc.a(lib_a-sbrkr.o)
 .ARM.attributes
                0x0000285d       0x30 /home/leon/riotboard/arm-2012.09/bin/../arm-none-eabi/lib//libc.a(lib_a-sprintf.o)
 .ARM.attributes
                0x0000288d       0x30 /home/leon/riotboard/arm-2012.09/bin/../arm-none-eabi/lib//libc.a(lib_a-strcat.o)
 .ARM.attributes
                0x000028bd       0x30 /home/leon/riotboard/arm-2012.09/bin/../arm-none-eabi/lib//libc.a(lib_a-strcmp.o)
 .ARM.attributes
                0x000028ed       0x30 /home/leon/riotboard/arm-2012.09/bin/../arm-none-eabi/lib//libc.a(lib_a-strcpy.o)
 .ARM.attributes
                0x0000291d       0x30 /home/leon/riotboard/arm-2012.09/bin/../arm-none-eabi/lib//libc.a(lib_a-strlen.o)
 .ARM.attributes
                0x0000294d       0x30 /home/leon/riotboard/arm-2012.09/bin/../arm-none-eabi/lib//libc.a(lib_a-strncasecmp.o)
 .ARM.attributes
                0x0000297d       0x30 /home/leon/riotboard/arm-2012.09/bin/../arm-none-eabi/lib//libc.a(lib_a-strtok.o)
 .ARM.attributes
                0x000029ad       0x30 /home/leon/riotboard/arm-2012.09/bin/../arm-none-eabi/lib//libc.a(lib_a-strtok_r.o)
 .ARM.attributes
                0x000029dd       0x30 /home/leon/riotboard/arm-2012.09/bin/../arm-none-eabi/lib//libc.a(lib_a-svfprintf.o)
 .ARM.attributes
                0x00002a0d       0x30 /home/leon/riotboard/arm-2012.09/bin/../arm-none-eabi/lib//libc.a(lib_a-vfiprintf.o)
 .ARM.attributes
                0x00002a3d       0x30 /home/leon/riotboard/arm-2012.09/bin/../arm-none-eabi/lib//libc.a(lib_a-vfprintf.o)
 .ARM.attributes
                0x00002a6d       0x30 /home/leon/riotboard/arm-2012.09/bin/../arm-none-eabi/lib//libc.a(lib_a-vprintf.o)
 .ARM.attributes
                0x00002a9d       0x30 /home/leon/riotboard/arm-2012.09/bin/../arm-none-eabi/lib//libc.a(lib_a-wbuf.o)
 .ARM.attributes
                0x00002acd       0x30 /home/leon/riotboard/arm-2012.09/bin/../arm-none-eabi/lib//libc.a(lib_a-wsetup.o)
 .ARM.attributes
                0x00002afd       0x30 /home/leon/riotboard/arm-2012.09/bin/../arm-none-eabi/lib//libc.a(lib_a-abort.o)
 .ARM.attributes
                0x00002b2d       0x30 /home/leon/riotboard/arm-2012.09/bin/../arm-none-eabi/lib//libc.a(lib_a-ctype_.o)
 .ARM.attributes
                0x00002b5d       0x30 /home/leon/riotboard/arm-2012.09/bin/../arm-none-eabi/lib//libc.a(lib_a-dtoa.o)
 .ARM.attributes
                0x00002b8d       0x30 /home/leon/riotboard/arm-2012.09/bin/../arm-none-eabi/lib//libc.a(lib_a-fflush.o)
 .ARM.attributes
                0x00002bbd       0x30 /home/leon/riotboard/arm-2012.09/bin/../arm-none-eabi/lib//libc.a(lib_a-findfp.o)
 .ARM.attributes
                0x00002bed       0x30 /home/leon/riotboard/arm-2012.09/bin/../arm-none-eabi/lib//libc.a(lib_a-fputwc.o)
 .ARM.attributes
                0x00002c1d       0x30 /home/leon/riotboard/arm-2012.09/bin/../arm-none-eabi/lib//libc.a(lib_a-freer.o)
 .ARM.attributes
                0x00002c4d       0x30 /home/leon/riotboard/arm-2012.09/bin/../arm-none-eabi/lib//libc.a(lib_a-fvwrite.o)
 .ARM.attributes
                0x00002c7d       0x30 /home/leon/riotboard/arm-2012.09/bin/../arm-none-eabi/lib//libc.a(lib_a-fwalk.o)
 .ARM.attributes
                0x00002cad       0x30 /home/leon/riotboard/arm-2012.09/bin/../arm-none-eabi/lib//libc.a(lib_a-locale.o)
 .ARM.attributes
                0x00002cdd       0x30 /home/leon/riotboard/arm-2012.09/bin/../arm-none-eabi/lib//libc.a(lib_a-makebuf.o)
 .ARM.attributes
                0x00002d0d       0x30 /home/leon/riotboard/arm-2012.09/bin/../arm-none-eabi/lib//libc.a(lib_a-memchr.o)
 .ARM.attributes
                0x00002d3d       0x30 /home/leon/riotboard/arm-2012.09/bin/../arm-none-eabi/lib//libc.a(lib_a-memmove.o)
 .ARM.attributes
                0x00002d6d       0x30 /home/leon/riotboard/arm-2012.09/bin/../arm-none-eabi/lib//libc.a(lib_a-mprec.o)
 .ARM.attributes
                0x00002d9d       0x30 /home/leon/riotboard/arm-2012.09/bin/../arm-none-eabi/lib//libc.a(lib_a-reent.o)
 .ARM.attributes
                0x00002dcd       0x30 /home/leon/riotboard/arm-2012.09/bin/../arm-none-eabi/lib//libc.a(lib_a-refill.o)
 .ARM.attributes
                0x00002dfd       0x30 /home/leon/riotboard/arm-2012.09/bin/../arm-none-eabi/lib//libc.a(lib_a-s_fpclassify.o)
 .ARM.attributes
                0x00002e2d       0x30 /home/leon/riotboard/arm-2012.09/bin/../arm-none-eabi/lib//libc.a(lib_a-signal.o)
 .ARM.attributes
                0x00002e5d       0x30 /home/leon/riotboard/arm-2012.09/bin/../arm-none-eabi/lib//libc.a(lib_a-signalr.o)
 .ARM.attributes
                0x00002e8d       0x30 /home/leon/riotboard/arm-2012.09/bin/../arm-none-eabi/lib//libc.a(lib_a-stdio.o)
 .ARM.attributes
                0x00002ebd       0x30 /home/leon/riotboard/arm-2012.09/bin/../arm-none-eabi/lib//libc.a(lib_a-svfiprintf.o)
 .ARM.attributes
                0x00002eed       0x30 /home/leon/riotboard/arm-2012.09/bin/../arm-none-eabi/lib//libc.a(lib_a-wcrtomb.o)
 .ARM.attributes
                0x00002f1d       0x30 /home/leon/riotboard/arm-2012.09/bin/../arm-none-eabi/lib//libc.a(lib_a-wctomb_r.o)
 .ARM.attributes
                0x00002f4d       0x30 /home/leon/riotboard/arm-2012.09/bin/../arm-none-eabi/lib//libc.a(lib_a-writer.o)
 .ARM.attributes
                0x00002f7d       0x30 /home/leon/riotboard/arm-2012.09/bin/../arm-none-eabi/lib//libc.a(lib_a-callocr.o)
 .ARM.attributes
                0x00002fad       0x30 /home/leon/riotboard/arm-2012.09/bin/../arm-none-eabi/lib//libc.a(lib_a-closer.o)
 .ARM.attributes
                0x00002fdd       0x30 /home/leon/riotboard/arm-2012.09/bin/../arm-none-eabi/lib//libc.a(lib_a-fclose.o)
 .ARM.attributes
                0x0000300d       0x30 /home/leon/riotboard/arm-2012.09/bin/../arm-none-eabi/lib//libc.a(lib_a-fstatr.o)
 .ARM.attributes
                0x0000303d       0x30 /home/leon/riotboard/arm-2012.09/bin/../arm-none-eabi/lib//libc.a(lib_a-isattyr.o)
 .ARM.attributes
                0x0000306d       0x30 /home/leon/riotboard/arm-2012.09/bin/../arm-none-eabi/lib//libc.a(lib_a-lseekr.o)
 .ARM.attributes
                0x0000309d       0x30 /home/leon/riotboard/arm-2012.09/bin/../arm-none-eabi/lib//libc.a(lib_a-readr.o)
 .ARM.attributes
                0x000030cd       0x18 /home/leon/riotboard/arm-2012.09/bin/../lib/gcc/arm-none-eabi/4.7.2//libgcc.a(_udivsi3.o)
 .ARM.attributes
                0x000030e5       0x18 /home/leon/riotboard/arm-2012.09/bin/../lib/gcc/arm-none-eabi/4.7.2//libgcc.a(_divsi3.o)
 .ARM.attributes
                0x000030fd       0x18 /home/leon/riotboard/arm-2012.09/bin/../lib/gcc/arm-none-eabi/4.7.2//libgcc.a(_dvmd_tls.o)
 .ARM.attributes
                0x00003115       0x18 /home/leon/riotboard/arm-2012.09/bin/../lib/gcc/arm-none-eabi/4.7.2//libgcc.a(_arm_addsubdf3.o)
 .ARM.attributes
                0x0000312d       0x18 /home/leon/riotboard/arm-2012.09/bin/../lib/gcc/arm-none-eabi/4.7.2//libgcc.a(_arm_muldivdf3.o)
 .ARM.attributes
                0x00003145       0x18 /home/leon/riotboard/arm-2012.09/bin/../lib/gcc/arm-none-eabi/4.7.2//libgcc.a(_arm_cmpdf2.o)
 .ARM.attributes
                0x0000315d       0x18 /home/leon/riotboard/arm-2012.09/bin/../lib/gcc/arm-none-eabi/4.7.2//libgcc.a(_arm_fixdfsi.o)
 .ARM.attributes
                0x00003175       0x18 /home/leon/riotboard/arm-2012.09/bin/../lib/gcc/arm-none-eabi/4.7.2//libgcc.a(_aeabi_uldivmod.o)
 .ARM.attributes
                0x0000318d       0x30 /home/leon/riotboard/arm-2012.09/bin/../lib/gcc/arm-none-eabi/4.7.2//libgcc.a(bpabi.o)
 .ARM.attributes
                0x000031bd       0x30 /home/leon/riotboard/arm-2012.09/bin/../lib/gcc/arm-none-eabi/4.7.2//libgcc.a(_divdi3.o)
 .ARM.attributes
                0x000031ed       0x30 /home/leon/riotboard/arm-2012.09/bin/../lib/gcc/arm-none-eabi/4.7.2//libgcc.a(_udivdi3.o)
 .ARM.attributes
                0x0000321d       0x18 /home/leon/riotboard/arm-2012.09/bin/../lib/gcc/arm-none-eabi/4.7.2//libgcc.a(_clzsi2.o)
 .ARM.attributes
                0x00003235       0x39 /home/leon/git/swp-report/iMX6_Platform_SDK/output/mx6sdl/lib/libsdk.a(runtime_support.o)

.comment        0x00000000       0x30
 .comment       0x00000000       0x30 /home/leon/git/swp-report/iMX6_Platform_SDK/output/mx6sdl/obds/smart_device_rev_a/obj/apps/common/ivt.o
                                 0x31 (size before relaxing)
 .comment       0x00000000       0x31 /home/leon/git/swp-report/iMX6_Platform_SDK/output/mx6sdl/obds/smart_device_rev_a/obj/apps/common/platform_init.o
 .comment       0x00000000       0x31 /home/leon/git/swp-report/iMX6_Platform_SDK/output/mx6sdl/obds/smart_device_rev_a/obj/apps/common/print_clock_info.o
 .comment       0x00000000       0x31 /home/leon/git/swp-report/iMX6_Platform_SDK/output/mx6sdl/obds/smart_device_rev_a/obj/apps/common/print_version.o
 .comment       0x00000000       0x31 /home/leon/git/swp-report/iMX6_Platform_SDK/output/mx6sdl/obds/smart_device_rev_a/obj/apps/obds/src/obds.o
 .comment       0x00000000       0x31 /home/leon/git/swp-report/iMX6_Platform_SDK/output/mx6sdl/obds/smart_device_rev_a/obj/apps/obds/src/obds_utils.o
 .comment       0x00000000       0x31 /home/leon/git/swp-report/iMX6_Platform_SDK/output/mx6sdl/obds/smart_device_rev_a/obj/apps/obds/src/tests/android_buttons_test.o
 .comment       0x00000000       0x31 /home/leon/git/swp-report/iMX6_Platform_SDK/output/mx6sdl/obds/smart_device_rev_a/obj/apps/obds/src/tests/audio_esai_test.o
 .comment       0x00000000       0x31 /home/leon/git/swp-report/iMX6_Platform_SDK/output/mx6sdl/obds/smart_device_rev_a/obj/apps/obds/src/tests/audio_ssi_test.o
 .comment       0x00000000       0x31 /home/leon/git/swp-report/iMX6_Platform_SDK/output/mx6sdl/obds/smart_device_rev_a/obj/apps/obds/src/tests/ddr_test.o
 .comment       0x00000000       0x31 /home/leon/git/swp-report/iMX6_Platform_SDK/output/mx6sdl/obds/smart_device_rev_a/obj/apps/obds/src/tests/deserializer_ds90ur124.o
 .comment       0x00000000       0x31 /home/leon/git/swp-report/iMX6_Platform_SDK/output/mx6sdl/obds/smart_device_rev_a/obj/apps/obds/src/tests/display_test.o
 .comment       0x00000000       0x31 /home/leon/git/swp-report/iMX6_Platform_SDK/output/mx6sdl/obds/smart_device_rev_a/obj/apps/obds/src/tests/enet_mx6dldq_test.o
 .comment       0x00000000       0x31 /home/leon/git/swp-report/iMX6_Platform_SDK/output/mx6sdl/obds/smart_device_rev_a/obj/apps/obds/src/tests/flexcan_test.o
 .comment       0x00000000       0x31 /home/leon/git/swp-report/iMX6_Platform_SDK/output/mx6sdl/obds/smart_device_rev_a/obj/apps/obds/src/tests/fm_tuner_si476x_test.o
 .comment       0x00000000       0x31 /home/leon/git/swp-report/iMX6_Platform_SDK/output/mx6sdl/obds/smart_device_rev_a/obj/apps/obds/src/tests/gpio_led.o
 .comment       0x00000000       0x31 /home/leon/git/swp-report/iMX6_Platform_SDK/output/mx6sdl/obds/smart_device_rev_a/obj/apps/obds/src/tests/gps_test.o
 .comment       0x00000000       0x31 /home/leon/git/swp-report/iMX6_Platform_SDK/output/mx6sdl/obds/smart_device_rev_a/obj/apps/obds/src/tests/i2c_check_light_sensor_isl29023.o
 .comment       0x00000000       0x31 /home/leon/git/swp-report/iMX6_Platform_SDK/output/mx6sdl/obds/smart_device_rev_a/obj/apps/obds/src/tests/i2c_device_barometer_ppl3115.o
 .comment       0x00000000       0x31 /home/leon/git/swp-report/iMX6_Platform_SDK/output/mx6sdl/obds/smart_device_rev_a/obj/apps/obds/src/tests/i2c_device_check_cs42888.o
 .comment       0x00000000       0x31 /home/leon/git/swp-report/iMX6_Platform_SDK/output/mx6sdl/obds/smart_device_rev_a/obj/apps/obds/src/tests/i2c_device_digital_compass_mag3110.o
 .comment       0x00000000       0x31 /home/leon/git/swp-report/iMX6_Platform_SDK/output/mx6sdl/obds/smart_device_rev_a/obj/apps/obds/src/tests/i2c_device_digital_compass_mag3112.o
 .comment       0x00000000       0x31 /home/leon/git/swp-report/iMX6_Platform_SDK/output/mx6sdl/obds/smart_device_rev_a/obj/apps/obds/src/tests/i2c_device_id_check_mma8450.o
 .comment       0x00000000       0x31 /home/leon/git/swp-report/iMX6_Platform_SDK/output/mx6sdl/obds/smart_device_rev_a/obj/apps/obds/src/tests/i2c_device_id_check_mma8451.o
 .comment       0x00000000       0x31 /home/leon/git/swp-report/iMX6_Platform_SDK/output/mx6sdl/obds/smart_device_rev_a/obj/apps/obds/src/tests/i2c_device_id_check_p1003_tsc.o
 .comment       0x00000000       0x31 /home/leon/git/swp-report/iMX6_Platform_SDK/output/mx6sdl/obds/smart_device_rev_a/obj/apps/obds/src/tests/i2c_device_temp_sensor_emc1046.o
 .comment       0x00000000       0x31 /home/leon/git/swp-report/iMX6_Platform_SDK/output/mx6sdl/obds/smart_device_rev_a/obj/apps/obds/src/tests/i2c_device_zigbee_mc1323.o
 .comment       0x00000000       0x31 /home/leon/git/swp-report/iMX6_Platform_SDK/output/mx6sdl/obds/smart_device_rev_a/obj/apps/obds/src/tests/i2c_eeprom_at24cxx_test.o
 .comment       0x00000000       0x31 /home/leon/git/swp-report/iMX6_Platform_SDK/output/mx6sdl/obds/smart_device_rev_a/obj/apps/obds/src/tests/imx_spi_nor_test.o
 .comment       0x00000000       0x31 /home/leon/git/swp-report/iMX6_Platform_SDK/output/mx6sdl/obds/smart_device_rev_a/obj/apps/obds/src/tests/mlb_os81050.o
 .comment       0x00000000       0x31 /home/leon/git/swp-report/iMX6_Platform_SDK/output/mx6sdl/obds/smart_device_rev_a/obj/apps/obds/src/tests/mmcsd_test.o
 .comment       0x00000000       0x31 /home/leon/git/swp-report/iMX6_Platform_SDK/output/mx6sdl/obds/smart_device_rev_a/obj/apps/obds/src/tests/pmic_da9053.o
 .comment       0x00000000       0x31 /home/leon/git/swp-report/iMX6_Platform_SDK/output/mx6sdl/obds/smart_device_rev_a/obj/apps/obds/src/tests/pmic_lt3589.o
 .comment       0x00000000       0x31 /home/leon/git/swp-report/iMX6_Platform_SDK/output/mx6sdl/obds/smart_device_rev_a/obj/apps/obds/src/tests/pmic_max17135.o
 .comment       0x00000000       0x31 /home/leon/git/swp-report/iMX6_Platform_SDK/output/mx6sdl/obds/smart_device_rev_a/obj/apps/obds/src/tests/pmic_mc13892.o
 .comment       0x00000000       0x31 /home/leon/git/swp-report/iMX6_Platform_SDK/output/mx6sdl/obds/smart_device_rev_a/obj/apps/obds/src/tests/program_board_id.o
 .comment       0x00000000       0x31 /home/leon/git/swp-report/iMX6_Platform_SDK/output/mx6sdl/obds/smart_device_rev_a/obj/apps/obds/src/tests/program_mac_address.o
 .comment       0x00000000       0x31 /home/leon/git/swp-report/iMX6_Platform_SDK/output/mx6sdl/obds/smart_device_rev_a/obj/apps/obds/src/tests/snvs_srtc_test.o
 .comment       0x00000000       0x31 /home/leon/git/swp-report/iMX6_Platform_SDK/output/mx6sdl/obds/smart_device_rev_a/obj/apps/obds/src/tests/touch_button_test.o
 .comment       0x00000000       0x31 /home/leon/git/swp-report/iMX6_Platform_SDK/output/mx6sdl/obds/smart_device_rev_a/obj/apps/obds/src/tests/touch_screen.o
 .comment       0x00000000       0x31 /home/leon/git/swp-report/iMX6_Platform_SDK/output/mx6sdl/obds/smart_device_rev_a/obj/apps/obds/src/tests/touch_screen_max11801.o
 .comment       0x00000000       0x31 /home/leon/git/swp-report/iMX6_Platform_SDK/output/mx6sdl/obds/smart_device_rev_a/obj/apps/obds/src/tests/usb_tests_obds.o
 .comment       0x00000000       0x31 /home/leon/git/swp-report/iMX6_Platform_SDK/output/mx6sdl/obds/smart_device_rev_a/obj/apps/obds/src/tests/video_dec_ARD_MB_reset_button.o
 .comment       0x00000000       0x31 /home/leon/git/swp-report/iMX6_Platform_SDK/output/mx6sdl/obds/smart_device_rev_a/obj/apps/obds/src/tests/video_dec_ARD_MBrst_from_cpu_expander.o
 .comment       0x00000000       0x31 /home/leon/git/swp-report/iMX6_Platform_SDK/output/mx6sdl/obds/smart_device_rev_a/obj/apps/obds/src/tests/video_dec_adv7180.o
 .comment       0x00000000       0x31 /home/leon/git/swp-report/iMX6_Platform_SDK/output/mx6sdl/obds/smart_device_rev_a/obj/apps/obds/src/tests/weim_nor_flash_test.o
 .comment       0x00000000       0x31 /home/leon/git/swp-report/iMX6_Platform_SDK/output/mx6sdl/obds/smart_device_rev_a/obj/sdk/common/ioexpander/test/max7310_test.o
 .comment       0x00000000       0x31 /home/leon/git/swp-report/iMX6_Platform_SDK/output/mx6sdl/obds/smart_device_rev_a/obj/sdk/common/pmic/pfuse/pf0100.o
 .comment       0x00000000       0x31 /home/leon/git/swp-report/iMX6_Platform_SDK/output/mx6sdl/obds/smart_device_rev_a/obj/sdk/drivers/audio/src/snd_card.o
 .comment       0x00000000       0x31 /home/leon/git/swp-report/iMX6_Platform_SDK/output/mx6sdl/obds/smart_device_rev_a/obj/sdk/drivers/camera/test/adv7180_capture.o
 .comment       0x00000000       0x31 /home/leon/git/swp-report/iMX6_Platform_SDK/output/mx6sdl/obds/smart_device_rev_a/obj/sdk/drivers/camera/test/camera_test.o
 .comment       0x00000000       0x31 /home/leon/git/swp-report/iMX6_Platform_SDK/output/mx6sdl/obds/smart_device_rev_a/obj/sdk/drivers/camera/test/csi_test_mode.o
 .comment       0x00000000       0x31 /home/leon/git/swp-report/iMX6_Platform_SDK/output/mx6sdl/obds/smart_device_rev_a/obj/sdk/drivers/camera/test/sensor_capture.o
 .comment       0x00000000       0x31 /home/leon/git/swp-report/iMX6_Platform_SDK/output/mx6sdl/obds/smart_device_rev_a/obj/sdk/drivers/epdc/test/epdc_test.o
 .comment       0x00000000       0x31 /home/leon/git/swp-report/iMX6_Platform_SDK/output/mx6sdl/obds/smart_device_rev_a/obj/sdk/drivers/hdmi/test/hdmi_test.o
 .comment       0x00000000       0x31 /home/leon/git/swp-report/iMX6_Platform_SDK/output/mx6sdl/obds/smart_device_rev_a/obj/sdk/drivers/hdmi/test/init_dma_data.o
 .comment       0x00000000       0x31 /home/leon/git/swp-report/iMX6_Platform_SDK/output/mx6sdl/obds/smart_device_rev_a/obj/sdk/drivers/ipu/test/ips_display.o
 .comment       0x00000000       0x31 /home/leon/git/swp-report/iMX6_Platform_SDK/output/mx6sdl/obds/smart_device_rev_a/obj/sdk/drivers/ipu/test/ipu_image.o
 .comment       0x00000000       0x31 /home/leon/git/swp-report/iMX6_Platform_SDK/output/mx6sdl/obds/smart_device_rev_a/obj/sdk/drivers/spi/test/imx_spi_nor_atmel.o
 .comment       0x00000000       0x31 /home/leon/git/swp-report/iMX6_Platform_SDK/output/mx6sdl/obds/smart_device_rev_a/obj/sdk/drivers/spi/test/spi_nor_numonyx.o
 .comment       0x00000000       0x31 /home/leon/git/swp-report/iMX6_Platform_SDK/output/mx6sdl/obds/smart_device_rev_a/obj/sdk/drivers/uart/test/uart_test.o
 .comment       0x00000000       0x31 /home/leon/git/swp-report/iMX6_Platform_SDK/output/mx6sdl/obds/smart_device_rev_a/obj/sdk/drivers/usb/test/usb0_host_test.o
 .comment       0x00000000       0x31 /home/leon/git/swp-report/iMX6_Platform_SDK/output/mx6sdl/obds/smart_device_rev_a/obj/sdk/drivers/usb/test/usb0_host_testmodes_test.o
 .comment       0x00000000       0x31 /home/leon/git/swp-report/iMX6_Platform_SDK/output/mx6sdl/obds/smart_device_rev_a/obj/sdk/drivers/usdhc/test/usdhc_test.o
 .comment       0x00000000       0x31 /home/leon/git/swp-report/iMX6_Platform_SDK/output/mx6sdl/lib/libsdk.a(max7310.o)
 .comment       0x00000000       0x31 /home/leon/git/swp-report/iMX6_Platform_SDK/output/mx6sdl/lib/libsdk.a(ccm_pll.o)
 .comment       0x00000000       0x31 /home/leon/git/swp-report/iMX6_Platform_SDK/output/mx6sdl/lib/libsdk.a(gic.o)
 .comment       0x00000000       0x31 /home/leon/git/swp-report/iMX6_Platform_SDK/output/mx6sdl/lib/libsdk.a(interrupt.o)
 .comment       0x00000000       0x31 /home/leon/git/swp-report/iMX6_Platform_SDK/output/mx6sdl/lib/libsdk.a(mmu.o)
 .comment       0x00000000       0x31 /home/leon/git/swp-report/iMX6_Platform_SDK/output/mx6sdl/lib/libsdk.a(menu.o)
 .comment       0x00000000       0x31 /home/leon/git/swp-report/iMX6_Platform_SDK/output/mx6sdl/lib/libsdk.a(sdk_version.o)
 .comment       0x00000000       0x31 /home/leon/git/swp-report/iMX6_Platform_SDK/output/mx6sdl/lib/libsdk.a(system_util.o)
 .comment       0x00000000       0x31 /home/leon/git/swp-report/iMX6_Platform_SDK/output/mx6sdl/lib/libsdk.a(text_color.o)
 .comment       0x00000000       0x31 /home/leon/git/swp-report/iMX6_Platform_SDK/output/mx6sdl/lib/libsdk.a(cs42888.o)
 .comment       0x00000000       0x31 /home/leon/git/swp-report/iMX6_Platform_SDK/output/mx6sdl/lib/libsdk.a(imx-ssi.o)
 .comment       0x00000000       0x31 /home/leon/git/swp-report/iMX6_Platform_SDK/output/mx6sdl/lib/libsdk.a(imx_audmux.o)
 .comment       0x00000000       0x31 /home/leon/git/swp-report/iMX6_Platform_SDK/output/mx6sdl/lib/libsdk.a(imx_esai.o)
 .comment       0x00000000       0x31 /home/leon/git/swp-report/iMX6_Platform_SDK/output/mx6sdl/lib/libsdk.a(imx_spdif.o)
 .comment       0x00000000       0x31 /home/leon/git/swp-report/iMX6_Platform_SDK/output/mx6sdl/lib/libsdk.a(sgtl5000.o)
 .comment       0x00000000       0x31 /home/leon/git/swp-report/iMX6_Platform_SDK/output/mx6sdl/lib/libsdk.a(wm8958_dac.o)
 .comment       0x00000000       0x31 /home/leon/git/swp-report/iMX6_Platform_SDK/output/mx6sdl/lib/libsdk.a(wm8962.o)
 .comment       0x00000000       0x31 /home/leon/git/swp-report/iMX6_Platform_SDK/output/mx6sdl/lib/libsdk.a(board_id.o)
 .comment       0x00000000       0x31 /home/leon/git/swp-report/iMX6_Platform_SDK/output/mx6sdl/lib/libsdk.a(smd_sensor.o)
 .comment       0x00000000       0x31 /home/leon/git/swp-report/iMX6_Platform_SDK/output/mx6sdl/lib/libsdk.a(enet_drv.o)
 .comment       0x00000000       0x31 /home/leon/git/swp-report/iMX6_Platform_SDK/output/mx6sdl/lib/libsdk.a(mxc_epdc.o)
 .comment       0x00000000       0x31 /home/leon/git/swp-report/iMX6_Platform_SDK/output/mx6sdl/lib/libsdk.a(gpio.o)
 .comment       0x00000000       0x31 /home/leon/git/swp-report/iMX6_Platform_SDK/output/mx6sdl/lib/libsdk.a(imx6sdl_gpio_map.o)
 .comment       0x00000000       0x31 /home/leon/git/swp-report/iMX6_Platform_SDK/output/mx6sdl/lib/libsdk.a(hdmi_tx.o)
 .comment       0x00000000       0x31 /home/leon/git/swp-report/iMX6_Platform_SDK/output/mx6sdl/lib/libsdk.a(hdmi_tx_audio.o)
 .comment       0x00000000       0x31 /home/leon/git/swp-report/iMX6_Platform_SDK/output/mx6sdl/lib/libsdk.a(hdmi_tx_phy.o)
 .comment       0x00000000       0x31 /home/leon/git/swp-report/iMX6_Platform_SDK/output/mx6sdl/lib/libsdk.a(imx_i2c.o)
 .comment       0x00000000       0x31 /home/leon/git/swp-report/iMX6_Platform_SDK/output/mx6sdl/lib/libsdk.a(ips_disp_panel.o)
 .comment       0x00000000       0x31 /home/leon/git/swp-report/iMX6_Platform_SDK/output/mx6sdl/lib/libsdk.a(ipu_common.o)
 .comment       0x00000000       0x31 /home/leon/git/swp-report/iMX6_Platform_SDK/output/mx6sdl/lib/libsdk.a(ipu_csi.o)
 .comment       0x00000000       0x31 /home/leon/git/swp-report/iMX6_Platform_SDK/output/mx6sdl/lib/libsdk.a(ipu_dc.o)
 .comment       0x00000000       0x31 /home/leon/git/swp-report/iMX6_Platform_SDK/output/mx6sdl/lib/libsdk.a(ipu_di.o)
 .comment       0x00000000       0x31 /home/leon/git/swp-report/iMX6_Platform_SDK/output/mx6sdl/lib/libsdk.a(ipu_dmfc.o)
 .comment       0x00000000       0x31 /home/leon/git/swp-report/iMX6_Platform_SDK/output/mx6sdl/lib/libsdk.a(ipu_dp.o)
 .comment       0x00000000       0x31 /home/leon/git/swp-report/iMX6_Platform_SDK/output/mx6sdl/lib/libsdk.a(ipu_idmac.o)
 .comment       0x00000000       0x31 /home/leon/git/swp-report/iMX6_Platform_SDK/output/mx6sdl/lib/libsdk.a(ipu_vdi.o)
 .comment       0x00000000       0x31 /home/leon/git/swp-report/iMX6_Platform_SDK/output/mx6sdl/lib/libsdk.a(ldb.o)
 .comment       0x00000000       0x31 /home/leon/git/swp-report/iMX6_Platform_SDK/output/mx6sdl/lib/libsdk.a(ocotp.o)
 .comment       0x00000000       0x31 /home/leon/git/swp-report/iMX6_Platform_SDK/output/mx6sdl/lib/libsdk.a(ecspi.o)
 .comment       0x00000000       0x31 /home/leon/git/swp-report/iMX6_Platform_SDK/output/mx6sdl/lib/libsdk.a(timer.o)
 .comment       0x00000000       0x31 /home/leon/git/swp-report/iMX6_Platform_SDK/output/mx6sdl/lib/libsdk.a(imx_uart.o)
 .comment       0x00000000       0x31 /home/leon/git/swp-report/iMX6_Platform_SDK/output/mx6sdl/lib/libsdk.a(usb_common.o)
 .comment       0x00000000       0x31 /home/leon/git/swp-report/iMX6_Platform_SDK/output/mx6sdl/lib/libsdk.a(usbh_drv.o)
 .comment       0x00000000       0x31 /home/leon/git/swp-report/iMX6_Platform_SDK/output/mx6sdl/lib/libsdk.a(usdhc.o)
 .comment       0x00000000       0x31 /home/leon/git/swp-report/iMX6_Platform_SDK/output/mx6sdl/lib/libsdk.a(usdhc_host.o)
 .comment       0x00000000       0x31 /home/leon/git/swp-report/iMX6_Platform_SDK/output/mx6sdl/lib/libsdk.a(usdhc_mmc.o)
 .comment       0x00000000       0x31 /home/leon/git/swp-report/iMX6_Platform_SDK/output/mx6sdl/lib/libsdk.a(usdhc_sd.o)
 .comment       0x00000000       0x31 /home/leon/git/swp-report/iMX6_Platform_SDK/output/mx6sdl/lib/libsdk.a(armv7_cache.o)
 .comment       0x00000000       0x31 /home/leon/git/swp-report/iMX6_Platform_SDK/output/mx6sdl/lib/libsdk.a(camera_profile.o)
 .comment       0x00000000       0x31 /home/leon/git/swp-report/iMX6_Platform_SDK/output/mx6sdl/lib/libsdk.a(hdmi_common.o)
 .comment       0x00000000       0x31 /home/leon/git/swp-report/iMX6_Platform_SDK/output/mx6sdl/lib/libsdk.a(ipu_ic.o)
 .comment       0x00000000       0x31 /home/leon/git/swp-report/iMX6_Platform_SDK/output/mx6sdl/lib/libsdk.a(epit.o)
 .comment       0x00000000       0x31 /home/leon/git/swp-report/iMX6_Platform_SDK/output/mx6sdl/lib/libsdk.a(mx6x_usb.o)
 .comment       0x00000000       0x31 /home/leon/git/swp-report/iMX6_Platform_SDK/output/mx6sdl/lib/libsdk.a(abort_handler.o)
 .comment       0x00000000       0x31 /home/leon/git/swp-report/iMX6_Platform_SDK/output/mx6sdl/lib/libboard_smart_device_rev_a.a(board_audio.o)
 .comment       0x00000000       0x31 /home/leon/git/swp-report/iMX6_Platform_SDK/output/mx6sdl/lib/libboard_smart_device_rev_a.a(board_buttons.o)
 .comment       0x00000000       0x31 /home/leon/git/swp-report/iMX6_Platform_SDK/output/mx6sdl/lib/libboard_smart_device_rev_a.a(board_camera.o)
 .comment       0x00000000       0x31 /home/leon/git/swp-report/iMX6_Platform_SDK/output/mx6sdl/lib/libboard_smart_device_rev_a.a(board_display.o)
 .comment       0x00000000       0x31 /home/leon/git/swp-report/iMX6_Platform_SDK/output/mx6sdl/lib/libboard_smart_device_rev_a.a(board_hdmi.o)
 .comment       0x00000000       0x31 /home/leon/git/swp-report/iMX6_Platform_SDK/output/mx6sdl/lib/libboard_smart_device_rev_a.a(board_i2c.o)
 .comment       0x00000000       0x31 /home/leon/git/swp-report/iMX6_Platform_SDK/output/mx6sdl/lib/libboard_smart_device_rev_a.a(board_io_expanders.o)
 .comment       0x00000000       0x31 /home/leon/git/swp-report/iMX6_Platform_SDK/output/mx6sdl/lib/libboard_smart_device_rev_a.a(board_mipi.o)
 .comment       0x00000000       0x31 /home/leon/git/swp-report/iMX6_Platform_SDK/output/mx6sdl/lib/libboard_smart_device_rev_a.a(board_network.o)
 .comment       0x00000000       0x31 /home/leon/git/swp-report/iMX6_Platform_SDK/output/mx6sdl/lib/libboard_smart_device_rev_a.a(board_usb.o)
 .comment       0x00000000       0x31 /home/leon/git/swp-report/iMX6_Platform_SDK/output/mx6sdl/lib/libboard_smart_device_rev_a.a(board_usdhc.o)
 .comment       0x00000000       0x31 /home/leon/git/swp-report/iMX6_Platform_SDK/output/mx6sdl/lib/libboard_smart_device_rev_a.a(hardware_modules.o)
 .comment       0x00000000       0x31 /home/leon/git/swp-report/iMX6_Platform_SDK/output/mx6sdl/lib/libboard_smart_device_rev_a.a(dcd.o)
 .comment       0x00000000       0x31 /home/leon/git/swp-report/iMX6_Platform_SDK/output/mx6sdl/lib/libboard_smart_device_rev_a.a(audmux_iomux_config.o)
 .comment       0x00000000       0x31 /home/leon/git/swp-report/iMX6_Platform_SDK/output/mx6sdl/lib/libboard_smart_device_rev_a.a(ccm_iomux_config.o)
 .comment       0x00000000       0x31 /home/leon/git/swp-report/iMX6_Platform_SDK/output/mx6sdl/lib/libboard_smart_device_rev_a.a(ecspi_iomux_config.o)
 .comment       0x00000000       0x31 /home/leon/git/swp-report/iMX6_Platform_SDK/output/mx6sdl/lib/libboard_smart_device_rev_a.a(enet_iomux_config.o)
 .comment       0x00000000       0x31 /home/leon/git/swp-report/iMX6_Platform_SDK/output/mx6sdl/lib/libboard_smart_device_rev_a.a(epdc_iomux_config.o)
 .comment       0x00000000       0x31 /home/leon/git/swp-report/iMX6_Platform_SDK/output/mx6sdl/lib/libboard_smart_device_rev_a.a(i2c_iomux_config.o)
 .comment       0x00000000       0x31 /home/leon/git/swp-report/iMX6_Platform_SDK/output/mx6sdl/lib/libboard_smart_device_rev_a.a(iomux_config.o)
 .comment       0x00000000       0x31 /home/leon/git/swp-report/iMX6_Platform_SDK/output/mx6sdl/lib/libboard_smart_device_rev_a.a(ipu1_iomux_config.o)
 .comment       0x00000000       0x31 /home/leon/git/swp-report/iMX6_Platform_SDK/output/mx6sdl/lib/libboard_smart_device_rev_a.a(ipu_iomux_config.o)
 .comment       0x00000000       0x31 /home/leon/git/swp-report/iMX6_Platform_SDK/output/mx6sdl/lib/libboard_smart_device_rev_a.a(kpp_iomux_config.o)
 .comment       0x00000000       0x31 /home/leon/git/swp-report/iMX6_Platform_SDK/output/mx6sdl/lib/libboard_smart_device_rev_a.a(mmdc_iomux_config.o)
 .comment       0x00000000       0x31 /home/leon/git/swp-report/iMX6_Platform_SDK/output/mx6sdl/lib/libboard_smart_device_rev_a.a(pwm1_iomux_config.o)
 .comment       0x00000000       0x31 /home/leon/git/swp-report/iMX6_Platform_SDK/output/mx6sdl/lib/libboard_smart_device_rev_a.a(sjc_iomux_config.o)
 .comment       0x00000000       0x31 /home/leon/git/swp-report/iMX6_Platform_SDK/output/mx6sdl/lib/libboard_smart_device_rev_a.a(uart1_iomux_config.o)
 .comment       0x00000000       0x31 /home/leon/git/swp-report/iMX6_Platform_SDK/output/mx6sdl/lib/libboard_smart_device_rev_a.a(uart_iomux_config.o)
 .comment       0x00000000       0x31 /home/leon/git/swp-report/iMX6_Platform_SDK/output/mx6sdl/lib/libboard_smart_device_rev_a.a(usdhc2_iomux_config.o)
 .comment       0x00000000       0x31 /home/leon/git/swp-report/iMX6_Platform_SDK/output/mx6sdl/lib/libboard_smart_device_rev_a.a(usdhc3_iomux_config.o)
 .comment       0x00000000       0x31 /home/leon/git/swp-report/iMX6_Platform_SDK/output/mx6sdl/lib/libboard_smart_device_rev_a.a(usdhc4_iomux_config.o)
 .comment       0x00000000       0x31 /home/leon/git/swp-report/iMX6_Platform_SDK/output/mx6sdl/lib/libboard_smart_device_rev_a.a(usdhc_iomux_config.o)
 .comment       0x00000000       0x31 /home/leon/git/swp-report/iMX6_Platform_SDK/output/mx6sdl/lib/libboard_smart_device_rev_a.a(ecspi1_iomux_config.o)
 .comment       0x00000000       0x31 /home/leon/git/swp-report/iMX6_Platform_SDK/output/mx6sdl/lib/libboard_smart_device_rev_a.a(flexcan1_iomux_config.o)
 .comment       0x00000000       0x31 /home/leon/git/swp-report/iMX6_Platform_SDK/output/mx6sdl/lib/libboard_smart_device_rev_a.a(gpio1_iomux_config.o)
 .comment       0x00000000       0x31 /home/leon/git/swp-report/iMX6_Platform_SDK/output/mx6sdl/lib/libboard_smart_device_rev_a.a(gpio2_iomux_config.o)
 .comment       0x00000000       0x31 /home/leon/git/swp-report/iMX6_Platform_SDK/output/mx6sdl/lib/libboard_smart_device_rev_a.a(gpio3_iomux_config.o)
 .comment       0x00000000       0x31 /home/leon/git/swp-report/iMX6_Platform_SDK/output/mx6sdl/lib/libboard_smart_device_rev_a.a(gpio4_iomux_config.o)
 .comment       0x00000000       0x31 /home/leon/git/swp-report/iMX6_Platform_SDK/output/mx6sdl/lib/libboard_smart_device_rev_a.a(gpio5_iomux_config.o)
 .comment       0x00000000       0x31 /home/leon/git/swp-report/iMX6_Platform_SDK/output/mx6sdl/lib/libboard_smart_device_rev_a.a(gpio6_iomux_config.o)
 .comment       0x00000000       0x31 /home/leon/git/swp-report/iMX6_Platform_SDK/output/mx6sdl/lib/libboard_smart_device_rev_a.a(gpio7_iomux_config.o)
 .comment       0x00000000       0x31 /home/leon/git/swp-report/iMX6_Platform_SDK/output/mx6sdl/lib/libboard_smart_device_rev_a.a(gps_iomux_config.o)
 .comment       0x00000000       0x31 /home/leon/git/swp-report/iMX6_Platform_SDK/output/mx6sdl/lib/libboard_smart_device_rev_a.a(i2c1_iomux_config.o)
 .comment       0x00000000       0x31 /home/leon/git/swp-report/iMX6_Platform_SDK/output/mx6sdl/lib/libboard_smart_device_rev_a.a(i2c2_iomux_config.o)
 .comment       0x00000000       0x31 /home/leon/git/swp-report/iMX6_Platform_SDK/output/mx6sdl/lib/libboard_smart_device_rev_a.a(i2c3_iomux_config.o)
 .comment       0x00000000       0x31 /home/leon/git/swp-report/iMX6_Platform_SDK/output/mx6sdl/lib/libsdk.a(runtime_support.o)

.debug_info     0x00000000    0x66ce8
 .debug_info    0x00000000      0x228 /home/leon/git/swp-report/iMX6_Platform_SDK/output/mx6sdl/obds/smart_device_rev_a/obj/apps/common/ivt.o
 .debug_info    0x00000228      0x198 /home/leon/git/swp-report/iMX6_Platform_SDK/output/mx6sdl/obds/smart_device_rev_a/obj/apps/common/platform_init.o
 .debug_info    0x000003c0      0x17b /home/leon/git/swp-report/iMX6_Platform_SDK/output/mx6sdl/obds/smart_device_rev_a/obj/apps/common/print_clock_info.o
 .debug_info    0x0000053b      0x1bd /home/leon/git/swp-report/iMX6_Platform_SDK/output/mx6sdl/obds/smart_device_rev_a/obj/apps/common/print_version.o
 .debug_info    0x000006f8      0xb99 /home/leon/git/swp-report/iMX6_Platform_SDK/output/mx6sdl/obds/smart_device_rev_a/obj/apps/obds/src/obds.o
 .debug_info    0x00001291      0x1be /home/leon/git/swp-report/iMX6_Platform_SDK/output/mx6sdl/obds/smart_device_rev_a/obj/apps/obds/src/obds_utils.o
 .debug_info    0x0000144f      0xabf /home/leon/git/swp-report/iMX6_Platform_SDK/output/mx6sdl/obds/smart_device_rev_a/obj/apps/obds/src/tests/android_buttons_test.o
 .debug_info    0x00001f0e      0xf2d /home/leon/git/swp-report/iMX6_Platform_SDK/output/mx6sdl/obds/smart_device_rev_a/obj/apps/obds/src/tests/audio_esai_test.o
 .debug_info    0x00002e3b      0xfd6 /home/leon/git/swp-report/iMX6_Platform_SDK/output/mx6sdl/obds/smart_device_rev_a/obj/apps/obds/src/tests/audio_ssi_test.o
 .debug_info    0x00003e11      0x44a /home/leon/git/swp-report/iMX6_Platform_SDK/output/mx6sdl/obds/smart_device_rev_a/obj/apps/obds/src/tests/ddr_test.o
 .debug_info    0x0000425b      0x188 /home/leon/git/swp-report/iMX6_Platform_SDK/output/mx6sdl/obds/smart_device_rev_a/obj/apps/obds/src/tests/deserializer_ds90ur124.o
 .debug_info    0x000043e3     0x1028 /home/leon/git/swp-report/iMX6_Platform_SDK/output/mx6sdl/obds/smart_device_rev_a/obj/apps/obds/src/tests/display_test.o
 .debug_info    0x0000540b     0x1f23 /home/leon/git/swp-report/iMX6_Platform_SDK/output/mx6sdl/obds/smart_device_rev_a/obj/apps/obds/src/tests/enet_mx6dldq_test.o
 .debug_info    0x0000732e      0x13e /home/leon/git/swp-report/iMX6_Platform_SDK/output/mx6sdl/obds/smart_device_rev_a/obj/apps/obds/src/tests/flexcan_test.o
 .debug_info    0x0000746c      0x29a /home/leon/git/swp-report/iMX6_Platform_SDK/output/mx6sdl/obds/smart_device_rev_a/obj/apps/obds/src/tests/fm_tuner_si476x_test.o
 .debug_info    0x00007706      0xaa3 /home/leon/git/swp-report/iMX6_Platform_SDK/output/mx6sdl/obds/smart_device_rev_a/obj/apps/obds/src/tests/gpio_led.o
 .debug_info    0x000081a9      0x18a /home/leon/git/swp-report/iMX6_Platform_SDK/output/mx6sdl/obds/smart_device_rev_a/obj/apps/obds/src/tests/gps_test.o
 .debug_info    0x00008333      0xd7d /home/leon/git/swp-report/iMX6_Platform_SDK/output/mx6sdl/obds/smart_device_rev_a/obj/apps/obds/src/tests/i2c_check_light_sensor_isl29023.o
 .debug_info    0x000090b0      0x3d3 /home/leon/git/swp-report/iMX6_Platform_SDK/output/mx6sdl/obds/smart_device_rev_a/obj/apps/obds/src/tests/i2c_device_barometer_ppl3115.o
 .debug_info    0x00009483      0x554 /home/leon/git/swp-report/iMX6_Platform_SDK/output/mx6sdl/obds/smart_device_rev_a/obj/apps/obds/src/tests/i2c_device_check_cs42888.o
 .debug_info    0x000099d7      0x395 /home/leon/git/swp-report/iMX6_Platform_SDK/output/mx6sdl/obds/smart_device_rev_a/obj/apps/obds/src/tests/i2c_device_digital_compass_mag3110.o
 .debug_info    0x00009d6c      0x395 /home/leon/git/swp-report/iMX6_Platform_SDK/output/mx6sdl/obds/smart_device_rev_a/obj/apps/obds/src/tests/i2c_device_digital_compass_mag3112.o
 .debug_info    0x0000a101      0xde0 /home/leon/git/swp-report/iMX6_Platform_SDK/output/mx6sdl/obds/smart_device_rev_a/obj/apps/obds/src/tests/i2c_device_id_check_mma8450.o
 .debug_info    0x0000aee1      0xde0 /home/leon/git/swp-report/iMX6_Platform_SDK/output/mx6sdl/obds/smart_device_rev_a/obj/apps/obds/src/tests/i2c_device_id_check_mma8451.o
 .debug_info    0x0000bcc1      0xdad /home/leon/git/swp-report/iMX6_Platform_SDK/output/mx6sdl/obds/smart_device_rev_a/obj/apps/obds/src/tests/i2c_device_id_check_p1003_tsc.o
 .debug_info    0x0000ca6e      0x501 /home/leon/git/swp-report/iMX6_Platform_SDK/output/mx6sdl/obds/smart_device_rev_a/obj/apps/obds/src/tests/i2c_device_temp_sensor_emc1046.o
 .debug_info    0x0000cf6f      0x3aa /home/leon/git/swp-report/iMX6_Platform_SDK/output/mx6sdl/obds/smart_device_rev_a/obj/apps/obds/src/tests/i2c_device_zigbee_mc1323.o
 .debug_info    0x0000d319      0x319 /home/leon/git/swp-report/iMX6_Platform_SDK/output/mx6sdl/obds/smart_device_rev_a/obj/apps/obds/src/tests/i2c_eeprom_at24cxx_test.o
 .debug_info    0x0000d632      0x476 /home/leon/git/swp-report/iMX6_Platform_SDK/output/mx6sdl/obds/smart_device_rev_a/obj/apps/obds/src/tests/imx_spi_nor_test.o
 .debug_info    0x0000daa8      0x31e /home/leon/git/swp-report/iMX6_Platform_SDK/output/mx6sdl/obds/smart_device_rev_a/obj/apps/obds/src/tests/mlb_os81050.o
 .debug_info    0x0000ddc6      0x18b /home/leon/git/swp-report/iMX6_Platform_SDK/output/mx6sdl/obds/smart_device_rev_a/obj/apps/obds/src/tests/mmcsd_test.o
 .debug_info    0x0000df51      0x2ff /home/leon/git/swp-report/iMX6_Platform_SDK/output/mx6sdl/obds/smart_device_rev_a/obj/apps/obds/src/tests/pmic_da9053.o
 .debug_info    0x0000e250      0xcfe /home/leon/git/swp-report/iMX6_Platform_SDK/output/mx6sdl/obds/smart_device_rev_a/obj/apps/obds/src/tests/pmic_lt3589.o
 .debug_info    0x0000ef4e      0x317 /home/leon/git/swp-report/iMX6_Platform_SDK/output/mx6sdl/obds/smart_device_rev_a/obj/apps/obds/src/tests/pmic_max17135.o
 .debug_info    0x0000f265      0x239 /home/leon/git/swp-report/iMX6_Platform_SDK/output/mx6sdl/obds/smart_device_rev_a/obj/apps/obds/src/tests/pmic_mc13892.o
 .debug_info    0x0000f49e      0x365 /home/leon/git/swp-report/iMX6_Platform_SDK/output/mx6sdl/obds/smart_device_rev_a/obj/apps/obds/src/tests/program_board_id.o
 .debug_info    0x0000f803      0xc96 /home/leon/git/swp-report/iMX6_Platform_SDK/output/mx6sdl/obds/smart_device_rev_a/obj/apps/obds/src/tests/program_mac_address.o
 .debug_info    0x00010499      0x534 /home/leon/git/swp-report/iMX6_Platform_SDK/output/mx6sdl/obds/smart_device_rev_a/obj/apps/obds/src/tests/snvs_srtc_test.o
 .debug_info    0x000109cd      0xc9b /home/leon/git/swp-report/iMX6_Platform_SDK/output/mx6sdl/obds/smart_device_rev_a/obj/apps/obds/src/tests/touch_button_test.o
 .debug_info    0x00011668      0xd02 /home/leon/git/swp-report/iMX6_Platform_SDK/output/mx6sdl/obds/smart_device_rev_a/obj/apps/obds/src/tests/touch_screen.o
 .debug_info    0x0001236a      0xefb /home/leon/git/swp-report/iMX6_Platform_SDK/output/mx6sdl/obds/smart_device_rev_a/obj/apps/obds/src/tests/touch_screen_max11801.o
 .debug_info    0x00013265      0xdef /home/leon/git/swp-report/iMX6_Platform_SDK/output/mx6sdl/obds/smart_device_rev_a/obj/apps/obds/src/tests/usb_tests_obds.o
 .debug_info    0x00014054      0x13e /home/leon/git/swp-report/iMX6_Platform_SDK/output/mx6sdl/obds/smart_device_rev_a/obj/apps/obds/src/tests/video_dec_ARD_MB_reset_button.o
 .debug_info    0x00014192      0x130 /home/leon/git/swp-report/iMX6_Platform_SDK/output/mx6sdl/obds/smart_device_rev_a/obj/apps/obds/src/tests/video_dec_ARD_MBrst_from_cpu_expander.o
 .debug_info    0x000142c2      0xc6e /home/leon/git/swp-report/iMX6_Platform_SDK/output/mx6sdl/obds/smart_device_rev_a/obj/apps/obds/src/tests/video_dec_adv7180.o
 .debug_info    0x00014f30      0x1d3 /home/leon/git/swp-report/iMX6_Platform_SDK/output/mx6sdl/obds/smart_device_rev_a/obj/apps/obds/src/tests/weim_nor_flash_test.o
 .debug_info    0x00015103      0x293 /home/leon/git/swp-report/iMX6_Platform_SDK/output/mx6sdl/obds/smart_device_rev_a/obj/sdk/common/ioexpander/test/max7310_test.o
 .debug_info    0x00015396      0x3f8 /home/leon/git/swp-report/iMX6_Platform_SDK/output/mx6sdl/obds/smart_device_rev_a/obj/sdk/common/pmic/pfuse/pf0100.o
 .debug_info    0x0001578e      0x7c7 /home/leon/git/swp-report/iMX6_Platform_SDK/output/mx6sdl/obds/smart_device_rev_a/obj/sdk/drivers/audio/src/snd_card.o
 .debug_info    0x00015f55      0xa84 /home/leon/git/swp-report/iMX6_Platform_SDK/output/mx6sdl/obds/smart_device_rev_a/obj/sdk/drivers/camera/test/camera_test.o
 .debug_info    0x000169d9      0xc1b /home/leon/git/swp-report/iMX6_Platform_SDK/output/mx6sdl/obds/smart_device_rev_a/obj/sdk/drivers/camera/test/csi_test_mode.o
 .debug_info    0x000175f4      0xdc2 /home/leon/git/swp-report/iMX6_Platform_SDK/output/mx6sdl/obds/smart_device_rev_a/obj/sdk/drivers/camera/test/sensor_capture.o
 .debug_info    0x000183b6      0xba2 /home/leon/git/swp-report/iMX6_Platform_SDK/output/mx6sdl/obds/smart_device_rev_a/obj/sdk/drivers/epdc/test/epdc_test.o
 .debug_info    0x00018f58     0x10f1 /home/leon/git/swp-report/iMX6_Platform_SDK/output/mx6sdl/obds/smart_device_rev_a/obj/sdk/drivers/hdmi/test/hdmi_test.o
 .debug_info    0x0001a049      0x37c /home/leon/git/swp-report/iMX6_Platform_SDK/output/mx6sdl/obds/smart_device_rev_a/obj/sdk/drivers/hdmi/test/init_dma_data.o
 .debug_info    0x0001a3c5     0x1059 /home/leon/git/swp-report/iMX6_Platform_SDK/output/mx6sdl/obds/smart_device_rev_a/obj/sdk/drivers/ipu/test/ips_display.o
 .debug_info    0x0001b41e      0x50d /home/leon/git/swp-report/iMX6_Platform_SDK/output/mx6sdl/obds/smart_device_rev_a/obj/sdk/drivers/ipu/test/ipu_image.o
 .debug_info    0x0001b92b      0x48a /home/leon/git/swp-report/iMX6_Platform_SDK/output/mx6sdl/obds/smart_device_rev_a/obj/sdk/drivers/spi/test/imx_spi_nor_atmel.o
 .debug_info    0x0001bdb5      0x359 /home/leon/git/swp-report/iMX6_Platform_SDK/output/mx6sdl/obds/smart_device_rev_a/obj/sdk/drivers/spi/test/spi_nor_numonyx.o
 .debug_info    0x0001c10e      0xad8 /home/leon/git/swp-report/iMX6_Platform_SDK/output/mx6sdl/obds/smart_device_rev_a/obj/sdk/drivers/uart/test/uart_test.o
 .debug_info    0x0001cbe6     0x19b5 /home/leon/git/swp-report/iMX6_Platform_SDK/output/mx6sdl/obds/smart_device_rev_a/obj/sdk/drivers/usb/test/usb0_host_test.o
 .debug_info    0x0001e59b      0x987 /home/leon/git/swp-report/iMX6_Platform_SDK/output/mx6sdl/obds/smart_device_rev_a/obj/sdk/drivers/usb/test/usb0_host_testmodes_test.o
 .debug_info    0x0001ef22      0xd3f /home/leon/git/swp-report/iMX6_Platform_SDK/output/mx6sdl/obds/smart_device_rev_a/obj/sdk/drivers/usdhc/test/usdhc_test.o
 .debug_info    0x0001fc61      0x2ed /home/leon/git/swp-report/iMX6_Platform_SDK/output/mx6sdl/lib/libsdk.a(max7310.o)
 .debug_info    0x0001ff4e     0x1d26 /home/leon/git/swp-report/iMX6_Platform_SDK/output/mx6sdl/lib/libsdk.a(ccm_pll.o)
 .debug_info    0x00021c74      0x7f4 /home/leon/git/swp-report/iMX6_Platform_SDK/output/mx6sdl/lib/libsdk.a(gic.o)
 .debug_info    0x00022468      0x63b /home/leon/git/swp-report/iMX6_Platform_SDK/output/mx6sdl/lib/libsdk.a(interrupt.o)
 .debug_info    0x00022aa3      0x3e7 /home/leon/git/swp-report/iMX6_Platform_SDK/output/mx6sdl/lib/libsdk.a(mmu.o)
 .debug_info    0x00022e8a      0xe7d /home/leon/git/swp-report/iMX6_Platform_SDK/output/mx6sdl/lib/libsdk.a(menu.o)
 .debug_info    0x00023d07       0x76 /home/leon/git/swp-report/iMX6_Platform_SDK/output/mx6sdl/lib/libsdk.a(sdk_version.o)
 .debug_info    0x00023d7d     0x1536 /home/leon/git/swp-report/iMX6_Platform_SDK/output/mx6sdl/lib/libsdk.a(system_util.o)
 .debug_info    0x000252b3      0x298 /home/leon/git/swp-report/iMX6_Platform_SDK/output/mx6sdl/lib/libsdk.a(text_color.o)
 .debug_info    0x0002554b      0x690 /home/leon/git/swp-report/iMX6_Platform_SDK/output/mx6sdl/lib/libsdk.a(cs42888.o)
 .debug_info    0x00025bdb     0x166b /home/leon/git/swp-report/iMX6_Platform_SDK/output/mx6sdl/lib/libsdk.a(imx-ssi.o)
 .debug_info    0x00027246      0xcb2 /home/leon/git/swp-report/iMX6_Platform_SDK/output/mx6sdl/lib/libsdk.a(imx_audmux.o)
 .debug_info    0x00027ef8     0x17cc /home/leon/git/swp-report/iMX6_Platform_SDK/output/mx6sdl/lib/libsdk.a(imx_esai.o)
 .debug_info    0x000296c4     0x12c5 /home/leon/git/swp-report/iMX6_Platform_SDK/output/mx6sdl/lib/libsdk.a(imx_spdif.o)
 .debug_info    0x0002a989      0x9ab /home/leon/git/swp-report/iMX6_Platform_SDK/output/mx6sdl/lib/libsdk.a(sgtl5000.o)
 .debug_info    0x0002b334      0x776 /home/leon/git/swp-report/iMX6_Platform_SDK/output/mx6sdl/lib/libsdk.a(wm8958_dac.o)
 .debug_info    0x0002baaa      0x778 /home/leon/git/swp-report/iMX6_Platform_SDK/output/mx6sdl/lib/libsdk.a(wm8962.o)
 .debug_info    0x0002c222      0x4fe /home/leon/git/swp-report/iMX6_Platform_SDK/output/mx6sdl/lib/libsdk.a(board_id.o)
 .debug_info    0x0002c720      0x857 /home/leon/git/swp-report/iMX6_Platform_SDK/output/mx6sdl/lib/libsdk.a(smd_sensor.o)
 .debug_info    0x0002cf77     0x21ec /home/leon/git/swp-report/iMX6_Platform_SDK/output/mx6sdl/lib/libsdk.a(enet_drv.o)
 .debug_info    0x0002f163     0x185a /home/leon/git/swp-report/iMX6_Platform_SDK/output/mx6sdl/lib/libsdk.a(mxc_epdc.o)
 .debug_info    0x000309bd      0x871 /home/leon/git/swp-report/iMX6_Platform_SDK/output/mx6sdl/lib/libsdk.a(gpio.o)
 .debug_info    0x0003122e       0x9f /home/leon/git/swp-report/iMX6_Platform_SDK/output/mx6sdl/lib/libsdk.a(imx6sdl_gpio_map.o)
 .debug_info    0x000312cd     0x1f20 /home/leon/git/swp-report/iMX6_Platform_SDK/output/mx6sdl/lib/libsdk.a(hdmi_tx.o)
 .debug_info    0x000331ed      0xf27 /home/leon/git/swp-report/iMX6_Platform_SDK/output/mx6sdl/lib/libsdk.a(hdmi_tx_audio.o)
 .debug_info    0x00034114      0xcb3 /home/leon/git/swp-report/iMX6_Platform_SDK/output/mx6sdl/lib/libsdk.a(hdmi_tx_phy.o)
 .debug_info    0x00034dc7      0xe21 /home/leon/git/swp-report/iMX6_Platform_SDK/output/mx6sdl/lib/libsdk.a(imx_i2c.o)
 .debug_info    0x00035be8      0x698 /home/leon/git/swp-report/iMX6_Platform_SDK/output/mx6sdl/lib/libsdk.a(ips_disp_panel.o)
 .debug_info    0x00036280      0xba2 /home/leon/git/swp-report/iMX6_Platform_SDK/output/mx6sdl/lib/libsdk.a(ipu_common.o)
 .debug_info    0x00036e22      0x33a /home/leon/git/swp-report/iMX6_Platform_SDK/output/mx6sdl/lib/libsdk.a(ipu_csi.o)
 .debug_info    0x0003715c      0x51a /home/leon/git/swp-report/iMX6_Platform_SDK/output/mx6sdl/lib/libsdk.a(ipu_dc.o)
 .debug_info    0x00037676      0x74d /home/leon/git/swp-report/iMX6_Platform_SDK/output/mx6sdl/lib/libsdk.a(ipu_di.o)
 .debug_info    0x00037dc3      0x1c6 /home/leon/git/swp-report/iMX6_Platform_SDK/output/mx6sdl/lib/libsdk.a(ipu_dmfc.o)
 .debug_info    0x00037f89      0x22b /home/leon/git/swp-report/iMX6_Platform_SDK/output/mx6sdl/lib/libsdk.a(ipu_dp.o)
 .debug_info    0x000381b4     0x15fd /home/leon/git/swp-report/iMX6_Platform_SDK/output/mx6sdl/lib/libsdk.a(ipu_idmac.o)
 .debug_info    0x000397b1      0x7bd /home/leon/git/swp-report/iMX6_Platform_SDK/output/mx6sdl/lib/libsdk.a(ipu_vdi.o)
 .debug_info    0x00039f6e      0x44a /home/leon/git/swp-report/iMX6_Platform_SDK/output/mx6sdl/lib/libsdk.a(ldb.o)
 .debug_info    0x0003a3b8      0x4c9 /home/leon/git/swp-report/iMX6_Platform_SDK/output/mx6sdl/lib/libsdk.a(ocotp.o)
 .debug_info    0x0003a881      0x70d /home/leon/git/swp-report/iMX6_Platform_SDK/output/mx6sdl/lib/libsdk.a(ecspi.o)
 .debug_info    0x0003af8e      0x319 /home/leon/git/swp-report/iMX6_Platform_SDK/output/mx6sdl/lib/libsdk.a(timer.o)
 .debug_info    0x0003b2a7     0x11b6 /home/leon/git/swp-report/iMX6_Platform_SDK/output/mx6sdl/lib/libsdk.a(imx_uart.o)
 .debug_info    0x0003c45d     0x130c /home/leon/git/swp-report/iMX6_Platform_SDK/output/mx6sdl/lib/libsdk.a(usb_common.o)
 .debug_info    0x0003d769     0x1d3c /home/leon/git/swp-report/iMX6_Platform_SDK/output/mx6sdl/lib/libsdk.a(usbh_drv.o)
 .debug_info    0x0003f4a5      0xf19 /home/leon/git/swp-report/iMX6_Platform_SDK/output/mx6sdl/lib/libsdk.a(usdhc.o)
 .debug_info    0x000403be     0x1b51 /home/leon/git/swp-report/iMX6_Platform_SDK/output/mx6sdl/lib/libsdk.a(usdhc_host.o)
 .debug_info    0x00041f0f      0x9c7 /home/leon/git/swp-report/iMX6_Platform_SDK/output/mx6sdl/lib/libsdk.a(usdhc_mmc.o)
 .debug_info    0x000428d6      0x680 /home/leon/git/swp-report/iMX6_Platform_SDK/output/mx6sdl/lib/libsdk.a(usdhc_sd.o)
 .debug_info    0x00042f56      0x4cd /home/leon/git/swp-report/iMX6_Platform_SDK/output/mx6sdl/lib/libsdk.a(armv7_cache.o)
 .debug_info    0x00043423      0x476 /home/leon/git/swp-report/iMX6_Platform_SDK/output/mx6sdl/lib/libsdk.a(camera_profile.o)
 .debug_info    0x00043899      0x34b /home/leon/git/swp-report/iMX6_Platform_SDK/output/mx6sdl/lib/libsdk.a(hdmi_common.o)
 .debug_info    0x00043be4      0x7df /home/leon/git/swp-report/iMX6_Platform_SDK/output/mx6sdl/lib/libsdk.a(ipu_ic.o)
 .debug_info    0x000443c3      0x9b7 /home/leon/git/swp-report/iMX6_Platform_SDK/output/mx6sdl/lib/libsdk.a(epit.o)
 .debug_info    0x00044d7a      0x5e4 /home/leon/git/swp-report/iMX6_Platform_SDK/output/mx6sdl/lib/libsdk.a(mx6x_usb.o)
 .debug_info    0x0004535e      0x234 /home/leon/git/swp-report/iMX6_Platform_SDK/output/mx6sdl/lib/libsdk.a(abort_handler.o)
 .debug_info    0x00045592      0x41f /home/leon/git/swp-report/iMX6_Platform_SDK/output/mx6sdl/lib/libboard_smart_device_rev_a.a(board_audio.o)
 .debug_info    0x000459b1      0x664 /home/leon/git/swp-report/iMX6_Platform_SDK/output/mx6sdl/lib/libboard_smart_device_rev_a.a(board_buttons.o)
 .debug_info    0x00046015     0x17ff /home/leon/git/swp-report/iMX6_Platform_SDK/output/mx6sdl/lib/libboard_smart_device_rev_a.a(board_camera.o)
 .debug_info    0x00047814      0x754 /home/leon/git/swp-report/iMX6_Platform_SDK/output/mx6sdl/lib/libboard_smart_device_rev_a.a(board_display.o)
 .debug_info    0x00047f68      0xb48 /home/leon/git/swp-report/iMX6_Platform_SDK/output/mx6sdl/lib/libboard_smart_device_rev_a.a(board_hdmi.o)
 .debug_info    0x00048ab0      0x1d2 /home/leon/git/swp-report/iMX6_Platform_SDK/output/mx6sdl/lib/libboard_smart_device_rev_a.a(board_i2c.o)
 .debug_info    0x00048c82      0x1f9 /home/leon/git/swp-report/iMX6_Platform_SDK/output/mx6sdl/lib/libboard_smart_device_rev_a.a(board_io_expanders.o)
 .debug_info    0x00048e7b      0x9ef /home/leon/git/swp-report/iMX6_Platform_SDK/output/mx6sdl/lib/libboard_smart_device_rev_a.a(board_mipi.o)
 .debug_info    0x0004986a      0x127 /home/leon/git/swp-report/iMX6_Platform_SDK/output/mx6sdl/lib/libboard_smart_device_rev_a.a(board_network.o)
 .debug_info    0x00049991      0x1cc /home/leon/git/swp-report/iMX6_Platform_SDK/output/mx6sdl/lib/libboard_smart_device_rev_a.a(board_usb.o)
 .debug_info    0x00049b5d      0x160 /home/leon/git/swp-report/iMX6_Platform_SDK/output/mx6sdl/lib/libboard_smart_device_rev_a.a(board_usdhc.o)
 .debug_info    0x00049cbd       0xa1 /home/leon/git/swp-report/iMX6_Platform_SDK/output/mx6sdl/lib/libboard_smart_device_rev_a.a(hardware_modules.o)
 .debug_info    0x00049d5e       0xe9 /home/leon/git/swp-report/iMX6_Platform_SDK/output/mx6sdl/lib/libboard_smart_device_rev_a.a(dcd.o)
 .debug_info    0x00049e47      0x677 /home/leon/git/swp-report/iMX6_Platform_SDK/output/mx6sdl/lib/libboard_smart_device_rev_a.a(audmux_iomux_config.o)
 .debug_info    0x0004a4be      0x205 /home/leon/git/swp-report/iMX6_Platform_SDK/output/mx6sdl/lib/libboard_smart_device_rev_a.a(ccm_iomux_config.o)
 .debug_info    0x0004a6c3       0xcf /home/leon/git/swp-report/iMX6_Platform_SDK/output/mx6sdl/lib/libboard_smart_device_rev_a.a(ecspi_iomux_config.o)
 .debug_info    0x0004a792     0x1e0f /home/leon/git/swp-report/iMX6_Platform_SDK/output/mx6sdl/lib/libboard_smart_device_rev_a.a(enet_iomux_config.o)
 .debug_info    0x0004c5a1     0x48f3 /home/leon/git/swp-report/iMX6_Platform_SDK/output/mx6sdl/lib/libboard_smart_device_rev_a.a(epdc_iomux_config.o)
 .debug_info    0x00050e94       0xcf /home/leon/git/swp-report/iMX6_Platform_SDK/output/mx6sdl/lib/libboard_smart_device_rev_a.a(i2c_iomux_config.o)
 .debug_info    0x00050f63      0x3a8 /home/leon/git/swp-report/iMX6_Platform_SDK/output/mx6sdl/lib/libboard_smart_device_rev_a.a(iomux_config.o)
 .debug_info    0x0005130b     0x3cf5 /home/leon/git/swp-report/iMX6_Platform_SDK/output/mx6sdl/lib/libboard_smart_device_rev_a.a(ipu1_iomux_config.o)
 .debug_info    0x00055000       0xcf /home/leon/git/swp-report/iMX6_Platform_SDK/output/mx6sdl/lib/libboard_smart_device_rev_a.a(ipu_iomux_config.o)
 .debug_info    0x000550cf     0x1023 /home/leon/git/swp-report/iMX6_Platform_SDK/output/mx6sdl/lib/libboard_smart_device_rev_a.a(kpp_iomux_config.o)
 .debug_info    0x000560f2     0x3b2b /home/leon/git/swp-report/iMX6_Platform_SDK/output/mx6sdl/lib/libboard_smart_device_rev_a.a(mmdc_iomux_config.o)
 .debug_info    0x00059c1d      0x205 /home/leon/git/swp-report/iMX6_Platform_SDK/output/mx6sdl/lib/libboard_smart_device_rev_a.a(pwm1_iomux_config.o)
 .debug_info    0x00059e22      0x72b /home/leon/git/swp-report/iMX6_Platform_SDK/output/mx6sdl/lib/libboard_smart_device_rev_a.a(sjc_iomux_config.o)
 .debug_info    0x0005a54d      0x3d9 /home/leon/git/swp-report/iMX6_Platform_SDK/output/mx6sdl/lib/libboard_smart_device_rev_a.a(uart1_iomux_config.o)
 .debug_info    0x0005a926       0xcf /home/leon/git/swp-report/iMX6_Platform_SDK/output/mx6sdl/lib/libboard_smart_device_rev_a.a(uart_iomux_config.o)
 .debug_info    0x0005a9f5     0x1149 /home/leon/git/swp-report/iMX6_Platform_SDK/output/mx6sdl/lib/libboard_smart_device_rev_a.a(usdhc2_iomux_config.o)
 .debug_info    0x0005bb3e     0x1149 /home/leon/git/swp-report/iMX6_Platform_SDK/output/mx6sdl/lib/libboard_smart_device_rev_a.a(usdhc3_iomux_config.o)
 .debug_info    0x0005cc87     0x1149 /home/leon/git/swp-report/iMX6_Platform_SDK/output/mx6sdl/lib/libboard_smart_device_rev_a.a(usdhc4_iomux_config.o)
 .debug_info    0x0005ddd0       0xcf /home/leon/git/swp-report/iMX6_Platform_SDK/output/mx6sdl/lib/libboard_smart_device_rev_a.a(usdhc_iomux_config.o)
 .debug_info    0x0005de9f      0x8af /home/leon/git/swp-report/iMX6_Platform_SDK/output/mx6sdl/lib/libboard_smart_device_rev_a.a(ecspi1_iomux_config.o)
 .debug_info    0x0005e74e      0x3f5 /home/leon/git/swp-report/iMX6_Platform_SDK/output/mx6sdl/lib/libboard_smart_device_rev_a.a(flexcan1_iomux_config.o)
 .debug_info    0x0005eb43     0x1c41 /home/leon/git/swp-report/iMX6_Platform_SDK/output/mx6sdl/lib/libboard_smart_device_rev_a.a(gpio1_iomux_config.o)
 .debug_info    0x00060784      0xfef /home/leon/git/swp-report/iMX6_Platform_SDK/output/mx6sdl/lib/libboard_smart_device_rev_a.a(gpio2_iomux_config.o)
 .debug_info    0x00061773     0x19b7 /home/leon/git/swp-report/iMX6_Platform_SDK/output/mx6sdl/lib/libboard_smart_device_rev_a.a(gpio3_iomux_config.o)
 .debug_info    0x0006312a      0x6f7 /home/leon/git/swp-report/iMX6_Platform_SDK/output/mx6sdl/lib/libboard_smart_device_rev_a.a(gpio4_iomux_config.o)
 .debug_info    0x00063821      0x379 /home/leon/git/swp-report/iMX6_Platform_SDK/output/mx6sdl/lib/libboard_smart_device_rev_a.a(gpio5_iomux_config.o)
 .debug_info    0x00063b9a      0xe73 /home/leon/git/swp-report/iMX6_Platform_SDK/output/mx6sdl/lib/libboard_smart_device_rev_a.a(gpio6_iomux_config.o)
 .debug_info    0x00064a0d      0x551 /home/leon/git/swp-report/iMX6_Platform_SDK/output/mx6sdl/lib/libboard_smart_device_rev_a.a(gpio7_iomux_config.o)
 .debug_info    0x00064f5e      0x831 /home/leon/git/swp-report/iMX6_Platform_SDK/output/mx6sdl/lib/libboard_smart_device_rev_a.a(gps_iomux_config.o)
 .debug_info    0x0006578f      0x447 /home/leon/git/swp-report/iMX6_Platform_SDK/output/mx6sdl/lib/libboard_smart_device_rev_a.a(i2c1_iomux_config.o)
 .debug_info    0x00065bd6      0x487 /home/leon/git/swp-report/iMX6_Platform_SDK/output/mx6sdl/lib/libboard_smart_device_rev_a.a(i2c2_iomux_config.o)
 .debug_info    0x0006605d      0x487 /home/leon/git/swp-report/iMX6_Platform_SDK/output/mx6sdl/lib/libboard_smart_device_rev_a.a(i2c3_iomux_config.o)
 .debug_info    0x000664e4      0x804 /home/leon/git/swp-report/iMX6_Platform_SDK/output/mx6sdl/lib/libsdk.a(runtime_support.o)

.debug_abbrev   0x00000000     0xd8de
 .debug_abbrev  0x00000000       0xe6 /home/leon/git/swp-report/iMX6_Platform_SDK/output/mx6sdl/obds/smart_device_rev_a/obj/apps/common/ivt.o
 .debug_abbrev  0x000000e6       0x89 /home/leon/git/swp-report/iMX6_Platform_SDK/output/mx6sdl/obds/smart_device_rev_a/obj/apps/common/platform_init.o
 .debug_abbrev  0x0000016f       0xa1 /home/leon/git/swp-report/iMX6_Platform_SDK/output/mx6sdl/obds/smart_device_rev_a/obj/apps/common/print_clock_info.o
 .debug_abbrev  0x00000210       0xcf /home/leon/git/swp-report/iMX6_Platform_SDK/output/mx6sdl/obds/smart_device_rev_a/obj/apps/common/print_version.o
 .debug_abbrev  0x000002df      0x213 /home/leon/git/swp-report/iMX6_Platform_SDK/output/mx6sdl/obds/smart_device_rev_a/obj/apps/obds/src/obds.o
 .debug_abbrev  0x000004f2       0x80 /home/leon/git/swp-report/iMX6_Platform_SDK/output/mx6sdl/obds/smart_device_rev_a/obj/apps/obds/src/obds_utils.o
 .debug_abbrev  0x00000572      0x211 /home/leon/git/swp-report/iMX6_Platform_SDK/output/mx6sdl/obds/smart_device_rev_a/obj/apps/obds/src/tests/android_buttons_test.o
 .debug_abbrev  0x00000783      0x1d6 /home/leon/git/swp-report/iMX6_Platform_SDK/output/mx6sdl/obds/smart_device_rev_a/obj/apps/obds/src/tests/audio_esai_test.o
 .debug_abbrev  0x00000959      0x1d2 /home/leon/git/swp-report/iMX6_Platform_SDK/output/mx6sdl/obds/smart_device_rev_a/obj/apps/obds/src/tests/audio_ssi_test.o
 .debug_abbrev  0x00000b2b      0x18f /home/leon/git/swp-report/iMX6_Platform_SDK/output/mx6sdl/obds/smart_device_rev_a/obj/apps/obds/src/tests/ddr_test.o
 .debug_abbrev  0x00000cba       0xd9 /home/leon/git/swp-report/iMX6_Platform_SDK/output/mx6sdl/obds/smart_device_rev_a/obj/apps/obds/src/tests/deserializer_ds90ur124.o
 .debug_abbrev  0x00000d93      0x21c /home/leon/git/swp-report/iMX6_Platform_SDK/output/mx6sdl/obds/smart_device_rev_a/obj/apps/obds/src/tests/display_test.o
 .debug_abbrev  0x00000faf      0x299 /home/leon/git/swp-report/iMX6_Platform_SDK/output/mx6sdl/obds/smart_device_rev_a/obj/apps/obds/src/tests/enet_mx6dldq_test.o
 .debug_abbrev  0x00001248       0xad /home/leon/git/swp-report/iMX6_Platform_SDK/output/mx6sdl/obds/smart_device_rev_a/obj/apps/obds/src/tests/flexcan_test.o
 .debug_abbrev  0x000012f5      0x11c /home/leon/git/swp-report/iMX6_Platform_SDK/output/mx6sdl/obds/smart_device_rev_a/obj/apps/obds/src/tests/fm_tuner_si476x_test.o
 .debug_abbrev  0x00001411      0x1eb /home/leon/git/swp-report/iMX6_Platform_SDK/output/mx6sdl/obds/smart_device_rev_a/obj/apps/obds/src/tests/gpio_led.o
 .debug_abbrev  0x000015fc       0x9c /home/leon/git/swp-report/iMX6_Platform_SDK/output/mx6sdl/obds/smart_device_rev_a/obj/apps/obds/src/tests/gps_test.o
 .debug_abbrev  0x00001698      0x1f0 /home/leon/git/swp-report/iMX6_Platform_SDK/output/mx6sdl/obds/smart_device_rev_a/obj/apps/obds/src/tests/i2c_check_light_sensor_isl29023.o
 .debug_abbrev  0x00001888      0x13c /home/leon/git/swp-report/iMX6_Platform_SDK/output/mx6sdl/obds/smart_device_rev_a/obj/apps/obds/src/tests/i2c_device_barometer_ppl3115.o
 .debug_abbrev  0x000019c4      0x11e /home/leon/git/swp-report/iMX6_Platform_SDK/output/mx6sdl/obds/smart_device_rev_a/obj/apps/obds/src/tests/i2c_device_check_cs42888.o
 .debug_abbrev  0x00001ae2      0x115 /home/leon/git/swp-report/iMX6_Platform_SDK/output/mx6sdl/obds/smart_device_rev_a/obj/apps/obds/src/tests/i2c_device_digital_compass_mag3110.o
 .debug_abbrev  0x00001bf7      0x115 /home/leon/git/swp-report/iMX6_Platform_SDK/output/mx6sdl/obds/smart_device_rev_a/obj/apps/obds/src/tests/i2c_device_digital_compass_mag3112.o
 .debug_abbrev  0x00001d0c      0x1ff /home/leon/git/swp-report/iMX6_Platform_SDK/output/mx6sdl/obds/smart_device_rev_a/obj/apps/obds/src/tests/i2c_device_id_check_mma8450.o
 .debug_abbrev  0x00001f0b      0x1ff /home/leon/git/swp-report/iMX6_Platform_SDK/output/mx6sdl/obds/smart_device_rev_a/obj/apps/obds/src/tests/i2c_device_id_check_mma8451.o
 .debug_abbrev  0x0000210a      0x1f6 /home/leon/git/swp-report/iMX6_Platform_SDK/output/mx6sdl/obds/smart_device_rev_a/obj/apps/obds/src/tests/i2c_device_id_check_p1003_tsc.o
 .debug_abbrev  0x00002300      0x154 /home/leon/git/swp-report/iMX6_Platform_SDK/output/mx6sdl/obds/smart_device_rev_a/obj/apps/obds/src/tests/i2c_device_temp_sensor_emc1046.o
 .debug_abbrev  0x00002454      0x122 /home/leon/git/swp-report/iMX6_Platform_SDK/output/mx6sdl/obds/smart_device_rev_a/obj/apps/obds/src/tests/i2c_device_zigbee_mc1323.o
 .debug_abbrev  0x00002576      0x119 /home/leon/git/swp-report/iMX6_Platform_SDK/output/mx6sdl/obds/smart_device_rev_a/obj/apps/obds/src/tests/i2c_eeprom_at24cxx_test.o
 .debug_abbrev  0x0000268f      0x137 /home/leon/git/swp-report/iMX6_Platform_SDK/output/mx6sdl/obds/smart_device_rev_a/obj/apps/obds/src/tests/imx_spi_nor_test.o
 .debug_abbrev  0x000027c6      0x12d /home/leon/git/swp-report/iMX6_Platform_SDK/output/mx6sdl/obds/smart_device_rev_a/obj/apps/obds/src/tests/mlb_os81050.o
 .debug_abbrev  0x000028f3       0xbe /home/leon/git/swp-report/iMX6_Platform_SDK/output/mx6sdl/obds/smart_device_rev_a/obj/apps/obds/src/tests/mmcsd_test.o
 .debug_abbrev  0x000029b1      0x11b /home/leon/git/swp-report/iMX6_Platform_SDK/output/mx6sdl/obds/smart_device_rev_a/obj/apps/obds/src/tests/pmic_da9053.o
 .debug_abbrev  0x00002acc      0x251 /home/leon/git/swp-report/iMX6_Platform_SDK/output/mx6sdl/obds/smart_device_rev_a/obj/apps/obds/src/tests/pmic_lt3589.o
 .debug_abbrev  0x00002d1d      0x14b /home/leon/git/swp-report/iMX6_Platform_SDK/output/mx6sdl/obds/smart_device_rev_a/obj/apps/obds/src/tests/pmic_max17135.o
 .debug_abbrev  0x00002e68      0x117 /home/leon/git/swp-report/iMX6_Platform_SDK/output/mx6sdl/obds/smart_device_rev_a/obj/apps/obds/src/tests/pmic_mc13892.o
 .debug_abbrev  0x00002f7f      0x161 /home/leon/git/swp-report/iMX6_Platform_SDK/output/mx6sdl/obds/smart_device_rev_a/obj/apps/obds/src/tests/program_board_id.o
 .debug_abbrev  0x000030e0      0x265 /home/leon/git/swp-report/iMX6_Platform_SDK/output/mx6sdl/obds/smart_device_rev_a/obj/apps/obds/src/tests/program_mac_address.o
 .debug_abbrev  0x00003345      0x12f /home/leon/git/swp-report/iMX6_Platform_SDK/output/mx6sdl/obds/smart_device_rev_a/obj/apps/obds/src/tests/snvs_srtc_test.o
 .debug_abbrev  0x00003474      0x1e3 /home/leon/git/swp-report/iMX6_Platform_SDK/output/mx6sdl/obds/smart_device_rev_a/obj/apps/obds/src/tests/touch_button_test.o
 .debug_abbrev  0x00003657      0x21b /home/leon/git/swp-report/iMX6_Platform_SDK/output/mx6sdl/obds/smart_device_rev_a/obj/apps/obds/src/tests/touch_screen.o
 .debug_abbrev  0x00003872      0x26c /home/leon/git/swp-report/iMX6_Platform_SDK/output/mx6sdl/obds/smart_device_rev_a/obj/apps/obds/src/tests/touch_screen_max11801.o
 .debug_abbrev  0x00003ade      0x145 /home/leon/git/swp-report/iMX6_Platform_SDK/output/mx6sdl/obds/smart_device_rev_a/obj/apps/obds/src/tests/usb_tests_obds.o
 .debug_abbrev  0x00003c23       0xad /home/leon/git/swp-report/iMX6_Platform_SDK/output/mx6sdl/obds/smart_device_rev_a/obj/apps/obds/src/tests/video_dec_ARD_MB_reset_button.o
 .debug_abbrev  0x00003cd0       0xad /home/leon/git/swp-report/iMX6_Platform_SDK/output/mx6sdl/obds/smart_device_rev_a/obj/apps/obds/src/tests/video_dec_ARD_MBrst_from_cpu_expander.o
 .debug_abbrev  0x00003d7d      0x20c /home/leon/git/swp-report/iMX6_Platform_SDK/output/mx6sdl/obds/smart_device_rev_a/obj/apps/obds/src/tests/video_dec_adv7180.o
 .debug_abbrev  0x00003f89       0xd4 /home/leon/git/swp-report/iMX6_Platform_SDK/output/mx6sdl/obds/smart_device_rev_a/obj/apps/obds/src/tests/weim_nor_flash_test.o
 .debug_abbrev  0x0000405d      0x10f /home/leon/git/swp-report/iMX6_Platform_SDK/output/mx6sdl/obds/smart_device_rev_a/obj/sdk/common/ioexpander/test/max7310_test.o
 .debug_abbrev  0x0000416c      0x126 /home/leon/git/swp-report/iMX6_Platform_SDK/output/mx6sdl/obds/smart_device_rev_a/obj/sdk/common/pmic/pfuse/pf0100.o
 .debug_abbrev  0x00004292      0x133 /home/leon/git/swp-report/iMX6_Platform_SDK/output/mx6sdl/obds/smart_device_rev_a/obj/sdk/drivers/audio/src/snd_card.o
 .debug_abbrev  0x000043c5      0x1d4 /home/leon/git/swp-report/iMX6_Platform_SDK/output/mx6sdl/obds/smart_device_rev_a/obj/sdk/drivers/camera/test/camera_test.o
 .debug_abbrev  0x00004599      0x1c1 /home/leon/git/swp-report/iMX6_Platform_SDK/output/mx6sdl/obds/smart_device_rev_a/obj/sdk/drivers/camera/test/csi_test_mode.o
 .debug_abbrev  0x0000475a      0x1cc /home/leon/git/swp-report/iMX6_Platform_SDK/output/mx6sdl/obds/smart_device_rev_a/obj/sdk/drivers/camera/test/sensor_capture.o
 .debug_abbrev  0x00004926      0x20a /home/leon/git/swp-report/iMX6_Platform_SDK/output/mx6sdl/obds/smart_device_rev_a/obj/sdk/drivers/epdc/test/epdc_test.o
 .debug_abbrev  0x00004b30      0x15c /home/leon/git/swp-report/iMX6_Platform_SDK/output/mx6sdl/obds/smart_device_rev_a/obj/sdk/drivers/hdmi/test/hdmi_test.o
 .debug_abbrev  0x00004c8c      0x117 /home/leon/git/swp-report/iMX6_Platform_SDK/output/mx6sdl/obds/smart_device_rev_a/obj/sdk/drivers/hdmi/test/init_dma_data.o
 .debug_abbrev  0x00004da3      0x1fe /home/leon/git/swp-report/iMX6_Platform_SDK/output/mx6sdl/obds/smart_device_rev_a/obj/sdk/drivers/ipu/test/ips_display.o
 .debug_abbrev  0x00004fa1      0x10d /home/leon/git/swp-report/iMX6_Platform_SDK/output/mx6sdl/obds/smart_device_rev_a/obj/sdk/drivers/ipu/test/ipu_image.o
 .debug_abbrev  0x000050ae      0x188 /home/leon/git/swp-report/iMX6_Platform_SDK/output/mx6sdl/obds/smart_device_rev_a/obj/sdk/drivers/spi/test/imx_spi_nor_atmel.o
 .debug_abbrev  0x00005236      0x15b /home/leon/git/swp-report/iMX6_Platform_SDK/output/mx6sdl/obds/smart_device_rev_a/obj/sdk/drivers/spi/test/spi_nor_numonyx.o
 .debug_abbrev  0x00005391      0x1db /home/leon/git/swp-report/iMX6_Platform_SDK/output/mx6sdl/obds/smart_device_rev_a/obj/sdk/drivers/uart/test/uart_test.o
 .debug_abbrev  0x0000556c      0x1b7 /home/leon/git/swp-report/iMX6_Platform_SDK/output/mx6sdl/obds/smart_device_rev_a/obj/sdk/drivers/usb/test/usb0_host_test.o
 .debug_abbrev  0x00005723      0x129 /home/leon/git/swp-report/iMX6_Platform_SDK/output/mx6sdl/obds/smart_device_rev_a/obj/sdk/drivers/usb/test/usb0_host_testmodes_test.o
 .debug_abbrev  0x0000584c      0x243 /home/leon/git/swp-report/iMX6_Platform_SDK/output/mx6sdl/obds/smart_device_rev_a/obj/sdk/drivers/usdhc/test/usdhc_test.o
 .debug_abbrev  0x00005a8f       0xf9 /home/leon/git/swp-report/iMX6_Platform_SDK/output/mx6sdl/lib/libsdk.a(max7310.o)
 .debug_abbrev  0x00005b88      0x1b1 /home/leon/git/swp-report/iMX6_Platform_SDK/output/mx6sdl/lib/libsdk.a(ccm_pll.o)
 .debug_abbrev  0x00005d39      0x179 /home/leon/git/swp-report/iMX6_Platform_SDK/output/mx6sdl/lib/libsdk.a(gic.o)
 .debug_abbrev  0x00005eb2      0x11a /home/leon/git/swp-report/iMX6_Platform_SDK/output/mx6sdl/lib/libsdk.a(interrupt.o)
 .debug_abbrev  0x00005fcc      0x172 /home/leon/git/swp-report/iMX6_Platform_SDK/output/mx6sdl/lib/libsdk.a(mmu.o)
 .debug_abbrev  0x0000613e      0x2b3 /home/leon/git/swp-report/iMX6_Platform_SDK/output/mx6sdl/lib/libsdk.a(menu.o)
 .debug_abbrev  0x000063f1       0x43 /home/leon/git/swp-report/iMX6_Platform_SDK/output/mx6sdl/lib/libsdk.a(sdk_version.o)
 .debug_abbrev  0x00006434      0x276 /home/leon/git/swp-report/iMX6_Platform_SDK/output/mx6sdl/lib/libsdk.a(system_util.o)
 .debug_abbrev  0x000066aa       0xd0 /home/leon/git/swp-report/iMX6_Platform_SDK/output/mx6sdl/lib/libsdk.a(text_color.o)
 .debug_abbrev  0x0000677a      0x13e /home/leon/git/swp-report/iMX6_Platform_SDK/output/mx6sdl/lib/libsdk.a(cs42888.o)
 .debug_abbrev  0x000068b8      0x267 /home/leon/git/swp-report/iMX6_Platform_SDK/output/mx6sdl/lib/libsdk.a(imx-ssi.o)
 .debug_abbrev  0x00006b1f      0x172 /home/leon/git/swp-report/iMX6_Platform_SDK/output/mx6sdl/lib/libsdk.a(imx_audmux.o)
 .debug_abbrev  0x00006c91      0x267 /home/leon/git/swp-report/iMX6_Platform_SDK/output/mx6sdl/lib/libsdk.a(imx_esai.o)
 .debug_abbrev  0x00006ef8      0x22e /home/leon/git/swp-report/iMX6_Platform_SDK/output/mx6sdl/lib/libsdk.a(imx_spdif.o)
 .debug_abbrev  0x00007126      0x1df /home/leon/git/swp-report/iMX6_Platform_SDK/output/mx6sdl/lib/libsdk.a(sgtl5000.o)
 .debug_abbrev  0x00007305      0x1aa /home/leon/git/swp-report/iMX6_Platform_SDK/output/mx6sdl/lib/libsdk.a(wm8958_dac.o)
 .debug_abbrev  0x000074af      0x1c4 /home/leon/git/swp-report/iMX6_Platform_SDK/output/mx6sdl/lib/libsdk.a(wm8962.o)
 .debug_abbrev  0x00007673      0x13a /home/leon/git/swp-report/iMX6_Platform_SDK/output/mx6sdl/lib/libsdk.a(board_id.o)
 .debug_abbrev  0x000077ad      0x19d /home/leon/git/swp-report/iMX6_Platform_SDK/output/mx6sdl/lib/libsdk.a(smd_sensor.o)
 .debug_abbrev  0x0000794a      0x2d8 /home/leon/git/swp-report/iMX6_Platform_SDK/output/mx6sdl/lib/libsdk.a(enet_drv.o)
 .debug_abbrev  0x00007c22      0x277 /home/leon/git/swp-report/iMX6_Platform_SDK/output/mx6sdl/lib/libsdk.a(mxc_epdc.o)
 .debug_abbrev  0x00007e99      0x228 /home/leon/git/swp-report/iMX6_Platform_SDK/output/mx6sdl/lib/libsdk.a(gpio.o)
 .debug_abbrev  0x000080c1       0x5b /home/leon/git/swp-report/iMX6_Platform_SDK/output/mx6sdl/lib/libsdk.a(imx6sdl_gpio_map.o)
 .debug_abbrev  0x0000811c      0x1af /home/leon/git/swp-report/iMX6_Platform_SDK/output/mx6sdl/lib/libsdk.a(hdmi_tx.o)
 .debug_abbrev  0x000082cb      0x1c1 /home/leon/git/swp-report/iMX6_Platform_SDK/output/mx6sdl/lib/libsdk.a(hdmi_tx_audio.o)
 .debug_abbrev  0x0000848c      0x180 /home/leon/git/swp-report/iMX6_Platform_SDK/output/mx6sdl/lib/libsdk.a(hdmi_tx_phy.o)
 .debug_abbrev  0x0000860c      0x2c9 /home/leon/git/swp-report/iMX6_Platform_SDK/output/mx6sdl/lib/libsdk.a(imx_i2c.o)
 .debug_abbrev  0x000088d5      0x1ac /home/leon/git/swp-report/iMX6_Platform_SDK/output/mx6sdl/lib/libsdk.a(ips_disp_panel.o)
 .debug_abbrev  0x00008a81      0x212 /home/leon/git/swp-report/iMX6_Platform_SDK/output/mx6sdl/lib/libsdk.a(ipu_common.o)
 .debug_abbrev  0x00008c93       0xf9 /home/leon/git/swp-report/iMX6_Platform_SDK/output/mx6sdl/lib/libsdk.a(ipu_csi.o)
 .debug_abbrev  0x00008d8c      0x164 /home/leon/git/swp-report/iMX6_Platform_SDK/output/mx6sdl/lib/libsdk.a(ipu_dc.o)
 .debug_abbrev  0x00008ef0      0x1ac /home/leon/git/swp-report/iMX6_Platform_SDK/output/mx6sdl/lib/libsdk.a(ipu_di.o)
 .debug_abbrev  0x0000909c       0x8e /home/leon/git/swp-report/iMX6_Platform_SDK/output/mx6sdl/lib/libsdk.a(ipu_dmfc.o)
 .debug_abbrev  0x0000912a       0xc7 /home/leon/git/swp-report/iMX6_Platform_SDK/output/mx6sdl/lib/libsdk.a(ipu_dp.o)
 .debug_abbrev  0x000091f1      0x20c /home/leon/git/swp-report/iMX6_Platform_SDK/output/mx6sdl/lib/libsdk.a(ipu_idmac.o)
 .debug_abbrev  0x000093fd      0x161 /home/leon/git/swp-report/iMX6_Platform_SDK/output/mx6sdl/lib/libsdk.a(ipu_vdi.o)
 .debug_abbrev  0x0000955e      0x144 /home/leon/git/swp-report/iMX6_Platform_SDK/output/mx6sdl/lib/libsdk.a(ldb.o)
 .debug_abbrev  0x000096a2      0x1ae /home/leon/git/swp-report/iMX6_Platform_SDK/output/mx6sdl/lib/libsdk.a(ocotp.o)
 .debug_abbrev  0x00009850      0x1f9 /home/leon/git/swp-report/iMX6_Platform_SDK/output/mx6sdl/lib/libsdk.a(ecspi.o)
 .debug_abbrev  0x00009a49      0x122 /home/leon/git/swp-report/iMX6_Platform_SDK/output/mx6sdl/lib/libsdk.a(timer.o)
 .debug_abbrev  0x00009b6b      0x1e3 /home/leon/git/swp-report/iMX6_Platform_SDK/output/mx6sdl/lib/libsdk.a(imx_uart.o)
 .debug_abbrev  0x00009d4e      0x223 /home/leon/git/swp-report/iMX6_Platform_SDK/output/mx6sdl/lib/libsdk.a(usb_common.o)
 .debug_abbrev  0x00009f71      0x1c8 /home/leon/git/swp-report/iMX6_Platform_SDK/output/mx6sdl/lib/libsdk.a(usbh_drv.o)
 .debug_abbrev  0x0000a139      0x20c /home/leon/git/swp-report/iMX6_Platform_SDK/output/mx6sdl/lib/libsdk.a(usdhc.o)
 .debug_abbrev  0x0000a345      0x296 /home/leon/git/swp-report/iMX6_Platform_SDK/output/mx6sdl/lib/libsdk.a(usdhc_host.o)
 .debug_abbrev  0x0000a5db      0x1ac /home/leon/git/swp-report/iMX6_Platform_SDK/output/mx6sdl/lib/libsdk.a(usdhc_mmc.o)
 .debug_abbrev  0x0000a787      0x143 /home/leon/git/swp-report/iMX6_Platform_SDK/output/mx6sdl/lib/libsdk.a(usdhc_sd.o)
 .debug_abbrev  0x0000a8ca      0x133 /home/leon/git/swp-report/iMX6_Platform_SDK/output/mx6sdl/lib/libsdk.a(armv7_cache.o)
 .debug_abbrev  0x0000a9fd       0xab /home/leon/git/swp-report/iMX6_Platform_SDK/output/mx6sdl/lib/libsdk.a(camera_profile.o)
 .debug_abbrev  0x0000aaa8       0xb9 /home/leon/git/swp-report/iMX6_Platform_SDK/output/mx6sdl/lib/libsdk.a(hdmi_common.o)
 .debug_abbrev  0x0000ab61      0x171 /home/leon/git/swp-report/iMX6_Platform_SDK/output/mx6sdl/lib/libsdk.a(ipu_ic.o)
 .debug_abbrev  0x0000acd2      0x194 /home/leon/git/swp-report/iMX6_Platform_SDK/output/mx6sdl/lib/libsdk.a(epit.o)
 .debug_abbrev  0x0000ae66      0x155 /home/leon/git/swp-report/iMX6_Platform_SDK/output/mx6sdl/lib/libsdk.a(mx6x_usb.o)
 .debug_abbrev  0x0000afbb       0xc8 /home/leon/git/swp-report/iMX6_Platform_SDK/output/mx6sdl/lib/libsdk.a(abort_handler.o)
 .debug_abbrev  0x0000b083      0x109 /home/leon/git/swp-report/iMX6_Platform_SDK/output/mx6sdl/lib/libboard_smart_device_rev_a.a(board_audio.o)
 .debug_abbrev  0x0000b18c      0x127 /home/leon/git/swp-report/iMX6_Platform_SDK/output/mx6sdl/lib/libboard_smart_device_rev_a.a(board_buttons.o)
 .debug_abbrev  0x0000b2b3      0x18a /home/leon/git/swp-report/iMX6_Platform_SDK/output/mx6sdl/lib/libboard_smart_device_rev_a.a(board_camera.o)
 .debug_abbrev  0x0000b43d      0x187 /home/leon/git/swp-report/iMX6_Platform_SDK/output/mx6sdl/lib/libboard_smart_device_rev_a.a(board_display.o)
 .debug_abbrev  0x0000b5c4      0x152 /home/leon/git/swp-report/iMX6_Platform_SDK/output/mx6sdl/lib/libboard_smart_device_rev_a.a(board_hdmi.o)
 .debug_abbrev  0x0000b716       0x69 /home/leon/git/swp-report/iMX6_Platform_SDK/output/mx6sdl/lib/libboard_smart_device_rev_a.a(board_i2c.o)
 .debug_abbrev  0x0000b77f       0xb0 /home/leon/git/swp-report/iMX6_Platform_SDK/output/mx6sdl/lib/libboard_smart_device_rev_a.a(board_io_expanders.o)
 .debug_abbrev  0x0000b82f      0x141 /home/leon/git/swp-report/iMX6_Platform_SDK/output/mx6sdl/lib/libboard_smart_device_rev_a.a(board_mipi.o)
 .debug_abbrev  0x0000b970       0x86 /home/leon/git/swp-report/iMX6_Platform_SDK/output/mx6sdl/lib/libboard_smart_device_rev_a.a(board_network.o)
 .debug_abbrev  0x0000b9f6       0xcd /home/leon/git/swp-report/iMX6_Platform_SDK/output/mx6sdl/lib/libboard_smart_device_rev_a.a(board_usb.o)
 .debug_abbrev  0x0000bac3       0xbb /home/leon/git/swp-report/iMX6_Platform_SDK/output/mx6sdl/lib/libboard_smart_device_rev_a.a(board_usdhc.o)
 .debug_abbrev  0x0000bb7e       0x44 /home/leon/git/swp-report/iMX6_Platform_SDK/output/mx6sdl/lib/libboard_smart_device_rev_a.a(hardware_modules.o)
 .debug_abbrev  0x0000bbc2       0x75 /home/leon/git/swp-report/iMX6_Platform_SDK/output/mx6sdl/lib/libboard_smart_device_rev_a.a(dcd.o)
 .debug_abbrev  0x0000bc37       0xa4 /home/leon/git/swp-report/iMX6_Platform_SDK/output/mx6sdl/lib/libboard_smart_device_rev_a.a(audmux_iomux_config.o)
 .debug_abbrev  0x0000bcdb       0xf1 /home/leon/git/swp-report/iMX6_Platform_SDK/output/mx6sdl/lib/libboard_smart_device_rev_a.a(ccm_iomux_config.o)
 .debug_abbrev  0x0000bdcc       0x79 /home/leon/git/swp-report/iMX6_Platform_SDK/output/mx6sdl/lib/libboard_smart_device_rev_a.a(ecspi_iomux_config.o)
 .debug_abbrev  0x0000be45       0xf1 /home/leon/git/swp-report/iMX6_Platform_SDK/output/mx6sdl/lib/libboard_smart_device_rev_a.a(enet_iomux_config.o)
 .debug_abbrev  0x0000bf36      0x106 /home/leon/git/swp-report/iMX6_Platform_SDK/output/mx6sdl/lib/libboard_smart_device_rev_a.a(epdc_iomux_config.o)
 .debug_abbrev  0x0000c03c       0x79 /home/leon/git/swp-report/iMX6_Platform_SDK/output/mx6sdl/lib/libboard_smart_device_rev_a.a(i2c_iomux_config.o)
 .debug_abbrev  0x0000c0b5       0x42 /home/leon/git/swp-report/iMX6_Platform_SDK/output/mx6sdl/lib/libboard_smart_device_rev_a.a(iomux_config.o)
 .debug_abbrev  0x0000c0f7       0xa4 /home/leon/git/swp-report/iMX6_Platform_SDK/output/mx6sdl/lib/libboard_smart_device_rev_a.a(ipu1_iomux_config.o)
 .debug_abbrev  0x0000c19b       0x79 /home/leon/git/swp-report/iMX6_Platform_SDK/output/mx6sdl/lib/libboard_smart_device_rev_a.a(ipu_iomux_config.o)
 .debug_abbrev  0x0000c214       0xf1 /home/leon/git/swp-report/iMX6_Platform_SDK/output/mx6sdl/lib/libboard_smart_device_rev_a.a(kpp_iomux_config.o)
 .debug_abbrev  0x0000c305      0x106 /home/leon/git/swp-report/iMX6_Platform_SDK/output/mx6sdl/lib/libboard_smart_device_rev_a.a(mmdc_iomux_config.o)
 .debug_abbrev  0x0000c40b       0xf1 /home/leon/git/swp-report/iMX6_Platform_SDK/output/mx6sdl/lib/libboard_smart_device_rev_a.a(pwm1_iomux_config.o)
 .debug_abbrev  0x0000c4fc       0xa4 /home/leon/git/swp-report/iMX6_Platform_SDK/output/mx6sdl/lib/libboard_smart_device_rev_a.a(sjc_iomux_config.o)
 .debug_abbrev  0x0000c5a0       0xf1 /home/leon/git/swp-report/iMX6_Platform_SDK/output/mx6sdl/lib/libboard_smart_device_rev_a.a(uart1_iomux_config.o)
 .debug_abbrev  0x0000c691       0x79 /home/leon/git/swp-report/iMX6_Platform_SDK/output/mx6sdl/lib/libboard_smart_device_rev_a.a(uart_iomux_config.o)
 .debug_abbrev  0x0000c70a       0xf1 /home/leon/git/swp-report/iMX6_Platform_SDK/output/mx6sdl/lib/libboard_smart_device_rev_a.a(usdhc2_iomux_config.o)
 .debug_abbrev  0x0000c7fb       0xf1 /home/leon/git/swp-report/iMX6_Platform_SDK/output/mx6sdl/lib/libboard_smart_device_rev_a.a(usdhc3_iomux_config.o)
 .debug_abbrev  0x0000c8ec       0xf1 /home/leon/git/swp-report/iMX6_Platform_SDK/output/mx6sdl/lib/libboard_smart_device_rev_a.a(usdhc4_iomux_config.o)
 .debug_abbrev  0x0000c9dd       0x79 /home/leon/git/swp-report/iMX6_Platform_SDK/output/mx6sdl/lib/libboard_smart_device_rev_a.a(usdhc_iomux_config.o)
 .debug_abbrev  0x0000ca56       0xf1 /home/leon/git/swp-report/iMX6_Platform_SDK/output/mx6sdl/lib/libboard_smart_device_rev_a.a(ecspi1_iomux_config.o)
 .debug_abbrev  0x0000cb47       0xf1 /home/leon/git/swp-report/iMX6_Platform_SDK/output/mx6sdl/lib/libboard_smart_device_rev_a.a(flexcan1_iomux_config.o)
 .debug_abbrev  0x0000cc38       0xf1 /home/leon/git/swp-report/iMX6_Platform_SDK/output/mx6sdl/lib/libboard_smart_device_rev_a.a(gpio1_iomux_config.o)
 .debug_abbrev  0x0000cd29      0x106 /home/leon/git/swp-report/iMX6_Platform_SDK/output/mx6sdl/lib/libboard_smart_device_rev_a.a(gpio2_iomux_config.o)
 .debug_abbrev  0x0000ce2f      0x106 /home/leon/git/swp-report/iMX6_Platform_SDK/output/mx6sdl/lib/libboard_smart_device_rev_a.a(gpio3_iomux_config.o)
 .debug_abbrev  0x0000cf35       0xf1 /home/leon/git/swp-report/iMX6_Platform_SDK/output/mx6sdl/lib/libboard_smart_device_rev_a.a(gpio4_iomux_config.o)
 .debug_abbrev  0x0000d026      0x106 /home/leon/git/swp-report/iMX6_Platform_SDK/output/mx6sdl/lib/libboard_smart_device_rev_a.a(gpio5_iomux_config.o)
 .debug_abbrev  0x0000d12c      0x106 /home/leon/git/swp-report/iMX6_Platform_SDK/output/mx6sdl/lib/libboard_smart_device_rev_a.a(gpio6_iomux_config.o)
 .debug_abbrev  0x0000d232       0xf1 /home/leon/git/swp-report/iMX6_Platform_SDK/output/mx6sdl/lib/libboard_smart_device_rev_a.a(gpio7_iomux_config.o)
 .debug_abbrev  0x0000d323      0x106 /home/leon/git/swp-report/iMX6_Platform_SDK/output/mx6sdl/lib/libboard_smart_device_rev_a.a(gps_iomux_config.o)
 .debug_abbrev  0x0000d429       0xf1 /home/leon/git/swp-report/iMX6_Platform_SDK/output/mx6sdl/lib/libboard_smart_device_rev_a.a(i2c1_iomux_config.o)
 .debug_abbrev  0x0000d51a       0xf1 /home/leon/git/swp-report/iMX6_Platform_SDK/output/mx6sdl/lib/libboard_smart_device_rev_a.a(i2c2_iomux_config.o)
 .debug_abbrev  0x0000d60b       0xf1 /home/leon/git/swp-report/iMX6_Platform_SDK/output/mx6sdl/lib/libboard_smart_device_rev_a.a(i2c3_iomux_config.o)
 .debug_abbrev  0x0000d6fc      0x1e2 /home/leon/git/swp-report/iMX6_Platform_SDK/output/mx6sdl/lib/libsdk.a(runtime_support.o)

.debug_aranges  0x00000000     0x1428
 .debug_aranges
                0x00000000       0x18 /home/leon/git/swp-report/iMX6_Platform_SDK/output/mx6sdl/obds/smart_device_rev_a/obj/apps/common/ivt.o
 .debug_aranges
                0x00000018       0x20 /home/leon/git/swp-report/iMX6_Platform_SDK/output/mx6sdl/obds/smart_device_rev_a/obj/apps/common/platform_init.o
 .debug_aranges
                0x00000038       0x20 /home/leon/git/swp-report/iMX6_Platform_SDK/output/mx6sdl/obds/smart_device_rev_a/obj/apps/common/print_clock_info.o
 .debug_aranges
                0x00000058       0x20 /home/leon/git/swp-report/iMX6_Platform_SDK/output/mx6sdl/obds/smart_device_rev_a/obj/apps/common/print_version.o
 .debug_aranges
                0x00000078       0x20 /home/leon/git/swp-report/iMX6_Platform_SDK/output/mx6sdl/obds/smart_device_rev_a/obj/apps/obds/src/obds.o
 .debug_aranges
                0x00000098       0x20 /home/leon/git/swp-report/iMX6_Platform_SDK/output/mx6sdl/obds/smart_device_rev_a/obj/apps/obds/src/obds_utils.o
 .debug_aranges
                0x000000b8       0x20 /home/leon/git/swp-report/iMX6_Platform_SDK/output/mx6sdl/obds/smart_device_rev_a/obj/apps/obds/src/tests/android_buttons_test.o
 .debug_aranges
                0x000000d8       0x20 /home/leon/git/swp-report/iMX6_Platform_SDK/output/mx6sdl/obds/smart_device_rev_a/obj/apps/obds/src/tests/audio_esai_test.o
 .debug_aranges
                0x000000f8       0x20 /home/leon/git/swp-report/iMX6_Platform_SDK/output/mx6sdl/obds/smart_device_rev_a/obj/apps/obds/src/tests/audio_ssi_test.o
 .debug_aranges
                0x00000118       0x20 /home/leon/git/swp-report/iMX6_Platform_SDK/output/mx6sdl/obds/smart_device_rev_a/obj/apps/obds/src/tests/ddr_test.o
 .debug_aranges
                0x00000138       0x20 /home/leon/git/swp-report/iMX6_Platform_SDK/output/mx6sdl/obds/smart_device_rev_a/obj/apps/obds/src/tests/deserializer_ds90ur124.o
 .debug_aranges
                0x00000158       0x20 /home/leon/git/swp-report/iMX6_Platform_SDK/output/mx6sdl/obds/smart_device_rev_a/obj/apps/obds/src/tests/display_test.o
 .debug_aranges
                0x00000178       0x20 /home/leon/git/swp-report/iMX6_Platform_SDK/output/mx6sdl/obds/smart_device_rev_a/obj/apps/obds/src/tests/enet_mx6dldq_test.o
 .debug_aranges
                0x00000198       0x20 /home/leon/git/swp-report/iMX6_Platform_SDK/output/mx6sdl/obds/smart_device_rev_a/obj/apps/obds/src/tests/flexcan_test.o
 .debug_aranges
                0x000001b8       0x20 /home/leon/git/swp-report/iMX6_Platform_SDK/output/mx6sdl/obds/smart_device_rev_a/obj/apps/obds/src/tests/fm_tuner_si476x_test.o
 .debug_aranges
                0x000001d8       0x20 /home/leon/git/swp-report/iMX6_Platform_SDK/output/mx6sdl/obds/smart_device_rev_a/obj/apps/obds/src/tests/gpio_led.o
 .debug_aranges
                0x000001f8       0x20 /home/leon/git/swp-report/iMX6_Platform_SDK/output/mx6sdl/obds/smart_device_rev_a/obj/apps/obds/src/tests/gps_test.o
 .debug_aranges
                0x00000218       0x20 /home/leon/git/swp-report/iMX6_Platform_SDK/output/mx6sdl/obds/smart_device_rev_a/obj/apps/obds/src/tests/i2c_check_light_sensor_isl29023.o
 .debug_aranges
                0x00000238       0x20 /home/leon/git/swp-report/iMX6_Platform_SDK/output/mx6sdl/obds/smart_device_rev_a/obj/apps/obds/src/tests/i2c_device_barometer_ppl3115.o
 .debug_aranges
                0x00000258       0x20 /home/leon/git/swp-report/iMX6_Platform_SDK/output/mx6sdl/obds/smart_device_rev_a/obj/apps/obds/src/tests/i2c_device_check_cs42888.o
 .debug_aranges
                0x00000278       0x20 /home/leon/git/swp-report/iMX6_Platform_SDK/output/mx6sdl/obds/smart_device_rev_a/obj/apps/obds/src/tests/i2c_device_digital_compass_mag3110.o
 .debug_aranges
                0x00000298       0x20 /home/leon/git/swp-report/iMX6_Platform_SDK/output/mx6sdl/obds/smart_device_rev_a/obj/apps/obds/src/tests/i2c_device_digital_compass_mag3112.o
 .debug_aranges
                0x000002b8       0x20 /home/leon/git/swp-report/iMX6_Platform_SDK/output/mx6sdl/obds/smart_device_rev_a/obj/apps/obds/src/tests/i2c_device_id_check_mma8450.o
 .debug_aranges
                0x000002d8       0x20 /home/leon/git/swp-report/iMX6_Platform_SDK/output/mx6sdl/obds/smart_device_rev_a/obj/apps/obds/src/tests/i2c_device_id_check_mma8451.o
 .debug_aranges
                0x000002f8       0x20 /home/leon/git/swp-report/iMX6_Platform_SDK/output/mx6sdl/obds/smart_device_rev_a/obj/apps/obds/src/tests/i2c_device_id_check_p1003_tsc.o
 .debug_aranges
                0x00000318       0x20 /home/leon/git/swp-report/iMX6_Platform_SDK/output/mx6sdl/obds/smart_device_rev_a/obj/apps/obds/src/tests/i2c_device_temp_sensor_emc1046.o
 .debug_aranges
                0x00000338       0x20 /home/leon/git/swp-report/iMX6_Platform_SDK/output/mx6sdl/obds/smart_device_rev_a/obj/apps/obds/src/tests/i2c_device_zigbee_mc1323.o
 .debug_aranges
                0x00000358       0x20 /home/leon/git/swp-report/iMX6_Platform_SDK/output/mx6sdl/obds/smart_device_rev_a/obj/apps/obds/src/tests/i2c_eeprom_at24cxx_test.o
 .debug_aranges
                0x00000378       0x20 /home/leon/git/swp-report/iMX6_Platform_SDK/output/mx6sdl/obds/smart_device_rev_a/obj/apps/obds/src/tests/imx_spi_nor_test.o
 .debug_aranges
                0x00000398       0x20 /home/leon/git/swp-report/iMX6_Platform_SDK/output/mx6sdl/obds/smart_device_rev_a/obj/apps/obds/src/tests/mlb_os81050.o
 .debug_aranges
                0x000003b8       0x20 /home/leon/git/swp-report/iMX6_Platform_SDK/output/mx6sdl/obds/smart_device_rev_a/obj/apps/obds/src/tests/mmcsd_test.o
 .debug_aranges
                0x000003d8       0x20 /home/leon/git/swp-report/iMX6_Platform_SDK/output/mx6sdl/obds/smart_device_rev_a/obj/apps/obds/src/tests/pmic_da9053.o
 .debug_aranges
                0x000003f8       0x20 /home/leon/git/swp-report/iMX6_Platform_SDK/output/mx6sdl/obds/smart_device_rev_a/obj/apps/obds/src/tests/pmic_lt3589.o
 .debug_aranges
                0x00000418       0x20 /home/leon/git/swp-report/iMX6_Platform_SDK/output/mx6sdl/obds/smart_device_rev_a/obj/apps/obds/src/tests/pmic_max17135.o
 .debug_aranges
                0x00000438       0x20 /home/leon/git/swp-report/iMX6_Platform_SDK/output/mx6sdl/obds/smart_device_rev_a/obj/apps/obds/src/tests/pmic_mc13892.o
 .debug_aranges
                0x00000458       0x20 /home/leon/git/swp-report/iMX6_Platform_SDK/output/mx6sdl/obds/smart_device_rev_a/obj/apps/obds/src/tests/program_board_id.o
 .debug_aranges
                0x00000478       0x20 /home/leon/git/swp-report/iMX6_Platform_SDK/output/mx6sdl/obds/smart_device_rev_a/obj/apps/obds/src/tests/program_mac_address.o
 .debug_aranges
                0x00000498       0x20 /home/leon/git/swp-report/iMX6_Platform_SDK/output/mx6sdl/obds/smart_device_rev_a/obj/apps/obds/src/tests/snvs_srtc_test.o
 .debug_aranges
                0x000004b8       0x20 /home/leon/git/swp-report/iMX6_Platform_SDK/output/mx6sdl/obds/smart_device_rev_a/obj/apps/obds/src/tests/touch_button_test.o
 .debug_aranges
                0x000004d8       0x20 /home/leon/git/swp-report/iMX6_Platform_SDK/output/mx6sdl/obds/smart_device_rev_a/obj/apps/obds/src/tests/touch_screen.o
 .debug_aranges
                0x000004f8       0x20 /home/leon/git/swp-report/iMX6_Platform_SDK/output/mx6sdl/obds/smart_device_rev_a/obj/apps/obds/src/tests/touch_screen_max11801.o
 .debug_aranges
                0x00000518       0x20 /home/leon/git/swp-report/iMX6_Platform_SDK/output/mx6sdl/obds/smart_device_rev_a/obj/apps/obds/src/tests/usb_tests_obds.o
 .debug_aranges
                0x00000538       0x20 /home/leon/git/swp-report/iMX6_Platform_SDK/output/mx6sdl/obds/smart_device_rev_a/obj/apps/obds/src/tests/video_dec_ARD_MB_reset_button.o
 .debug_aranges
                0x00000558       0x20 /home/leon/git/swp-report/iMX6_Platform_SDK/output/mx6sdl/obds/smart_device_rev_a/obj/apps/obds/src/tests/video_dec_ARD_MBrst_from_cpu_expander.o
 .debug_aranges
                0x00000578       0x20 /home/leon/git/swp-report/iMX6_Platform_SDK/output/mx6sdl/obds/smart_device_rev_a/obj/apps/obds/src/tests/video_dec_adv7180.o
 .debug_aranges
                0x00000598       0x20 /home/leon/git/swp-report/iMX6_Platform_SDK/output/mx6sdl/obds/smart_device_rev_a/obj/apps/obds/src/tests/weim_nor_flash_test.o
 .debug_aranges
                0x000005b8       0x20 /home/leon/git/swp-report/iMX6_Platform_SDK/output/mx6sdl/obds/smart_device_rev_a/obj/sdk/common/ioexpander/test/max7310_test.o
 .debug_aranges
                0x000005d8       0x20 /home/leon/git/swp-report/iMX6_Platform_SDK/output/mx6sdl/obds/smart_device_rev_a/obj/sdk/common/pmic/pfuse/pf0100.o
 .debug_aranges
                0x000005f8       0x20 /home/leon/git/swp-report/iMX6_Platform_SDK/output/mx6sdl/obds/smart_device_rev_a/obj/sdk/drivers/audio/src/snd_card.o
 .debug_aranges
                0x00000618       0x20 /home/leon/git/swp-report/iMX6_Platform_SDK/output/mx6sdl/obds/smart_device_rev_a/obj/sdk/drivers/camera/test/camera_test.o
 .debug_aranges
                0x00000638       0x20 /home/leon/git/swp-report/iMX6_Platform_SDK/output/mx6sdl/obds/smart_device_rev_a/obj/sdk/drivers/camera/test/csi_test_mode.o
 .debug_aranges
                0x00000658       0x20 /home/leon/git/swp-report/iMX6_Platform_SDK/output/mx6sdl/obds/smart_device_rev_a/obj/sdk/drivers/camera/test/sensor_capture.o
 .debug_aranges
                0x00000678       0x20 /home/leon/git/swp-report/iMX6_Platform_SDK/output/mx6sdl/obds/smart_device_rev_a/obj/sdk/drivers/epdc/test/epdc_test.o
 .debug_aranges
                0x00000698       0x20 /home/leon/git/swp-report/iMX6_Platform_SDK/output/mx6sdl/obds/smart_device_rev_a/obj/sdk/drivers/hdmi/test/hdmi_test.o
 .debug_aranges
                0x000006b8       0x20 /home/leon/git/swp-report/iMX6_Platform_SDK/output/mx6sdl/obds/smart_device_rev_a/obj/sdk/drivers/hdmi/test/init_dma_data.o
 .debug_aranges
                0x000006d8       0x20 /home/leon/git/swp-report/iMX6_Platform_SDK/output/mx6sdl/obds/smart_device_rev_a/obj/sdk/drivers/ipu/test/ips_display.o
 .debug_aranges
                0x000006f8       0x20 /home/leon/git/swp-report/iMX6_Platform_SDK/output/mx6sdl/obds/smart_device_rev_a/obj/sdk/drivers/ipu/test/ipu_image.o
 .debug_aranges
                0x00000718       0x20 /home/leon/git/swp-report/iMX6_Platform_SDK/output/mx6sdl/obds/smart_device_rev_a/obj/sdk/drivers/spi/test/imx_spi_nor_atmel.o
 .debug_aranges
                0x00000738       0x20 /home/leon/git/swp-report/iMX6_Platform_SDK/output/mx6sdl/obds/smart_device_rev_a/obj/sdk/drivers/spi/test/spi_nor_numonyx.o
 .debug_aranges
                0x00000758       0x20 /home/leon/git/swp-report/iMX6_Platform_SDK/output/mx6sdl/obds/smart_device_rev_a/obj/sdk/drivers/uart/test/uart_test.o
 .debug_aranges
                0x00000778       0x20 /home/leon/git/swp-report/iMX6_Platform_SDK/output/mx6sdl/obds/smart_device_rev_a/obj/sdk/drivers/usb/test/usb0_host_test.o
 .debug_aranges
                0x00000798       0x20 /home/leon/git/swp-report/iMX6_Platform_SDK/output/mx6sdl/obds/smart_device_rev_a/obj/sdk/drivers/usb/test/usb0_host_testmodes_test.o
 .debug_aranges
                0x000007b8       0x20 /home/leon/git/swp-report/iMX6_Platform_SDK/output/mx6sdl/obds/smart_device_rev_a/obj/sdk/drivers/usdhc/test/usdhc_test.o
 .debug_aranges
                0x000007d8       0x20 /home/leon/git/swp-report/iMX6_Platform_SDK/output/mx6sdl/lib/libsdk.a(max7310.o)
 .debug_aranges
                0x000007f8       0x20 /home/leon/git/swp-report/iMX6_Platform_SDK/output/mx6sdl/lib/libsdk.a(ccm_pll.o)
 .debug_aranges
                0x00000818       0x20 /home/leon/git/swp-report/iMX6_Platform_SDK/output/mx6sdl/lib/libsdk.a(gic.o)
 .debug_aranges
                0x00000838       0x20 /home/leon/git/swp-report/iMX6_Platform_SDK/output/mx6sdl/lib/libsdk.a(interrupt.o)
 .debug_aranges
                0x00000858       0x20 /home/leon/git/swp-report/iMX6_Platform_SDK/output/mx6sdl/lib/libsdk.a(mmu.o)
 .debug_aranges
                0x00000878       0x20 /home/leon/git/swp-report/iMX6_Platform_SDK/output/mx6sdl/lib/libsdk.a(menu.o)
 .debug_aranges
                0x00000898       0x18 /home/leon/git/swp-report/iMX6_Platform_SDK/output/mx6sdl/lib/libsdk.a(sdk_version.o)
 .debug_aranges
                0x000008b0       0x20 /home/leon/git/swp-report/iMX6_Platform_SDK/output/mx6sdl/lib/libsdk.a(system_util.o)
 .debug_aranges
                0x000008d0       0x20 /home/leon/git/swp-report/iMX6_Platform_SDK/output/mx6sdl/lib/libsdk.a(text_color.o)
 .debug_aranges
                0x000008f0       0x20 /home/leon/git/swp-report/iMX6_Platform_SDK/output/mx6sdl/lib/libsdk.a(cs42888.o)
 .debug_aranges
                0x00000910       0x20 /home/leon/git/swp-report/iMX6_Platform_SDK/output/mx6sdl/lib/libsdk.a(imx-ssi.o)
 .debug_aranges
                0x00000930       0x20 /home/leon/git/swp-report/iMX6_Platform_SDK/output/mx6sdl/lib/libsdk.a(imx_audmux.o)
 .debug_aranges
                0x00000950       0x20 /home/leon/git/swp-report/iMX6_Platform_SDK/output/mx6sdl/lib/libsdk.a(imx_esai.o)
 .debug_aranges
                0x00000970       0x20 /home/leon/git/swp-report/iMX6_Platform_SDK/output/mx6sdl/lib/libsdk.a(imx_spdif.o)
 .debug_aranges
                0x00000990       0x20 /home/leon/git/swp-report/iMX6_Platform_SDK/output/mx6sdl/lib/libsdk.a(sgtl5000.o)
 .debug_aranges
                0x000009b0       0x20 /home/leon/git/swp-report/iMX6_Platform_SDK/output/mx6sdl/lib/libsdk.a(wm8958_dac.o)
 .debug_aranges
                0x000009d0       0x20 /home/leon/git/swp-report/iMX6_Platform_SDK/output/mx6sdl/lib/libsdk.a(wm8962.o)
 .debug_aranges
                0x000009f0       0x20 /home/leon/git/swp-report/iMX6_Platform_SDK/output/mx6sdl/lib/libsdk.a(board_id.o)
 .debug_aranges
                0x00000a10       0x20 /home/leon/git/swp-report/iMX6_Platform_SDK/output/mx6sdl/lib/libsdk.a(smd_sensor.o)
 .debug_aranges
                0x00000a30       0x20 /home/leon/git/swp-report/iMX6_Platform_SDK/output/mx6sdl/lib/libsdk.a(enet_drv.o)
 .debug_aranges
                0x00000a50       0x20 /home/leon/git/swp-report/iMX6_Platform_SDK/output/mx6sdl/lib/libsdk.a(mxc_epdc.o)
 .debug_aranges
                0x00000a70       0x20 /home/leon/git/swp-report/iMX6_Platform_SDK/output/mx6sdl/lib/libsdk.a(gpio.o)
 .debug_aranges
                0x00000a90       0x18 /home/leon/git/swp-report/iMX6_Platform_SDK/output/mx6sdl/lib/libsdk.a(imx6sdl_gpio_map.o)
 .debug_aranges
                0x00000aa8       0x20 /home/leon/git/swp-report/iMX6_Platform_SDK/output/mx6sdl/lib/libsdk.a(hdmi_tx.o)
 .debug_aranges
                0x00000ac8       0x20 /home/leon/git/swp-report/iMX6_Platform_SDK/output/mx6sdl/lib/libsdk.a(hdmi_tx_audio.o)
 .debug_aranges
                0x00000ae8       0x20 /home/leon/git/swp-report/iMX6_Platform_SDK/output/mx6sdl/lib/libsdk.a(hdmi_tx_phy.o)
 .debug_aranges
                0x00000b08       0x20 /home/leon/git/swp-report/iMX6_Platform_SDK/output/mx6sdl/lib/libsdk.a(imx_i2c.o)
 .debug_aranges
                0x00000b28       0x20 /home/leon/git/swp-report/iMX6_Platform_SDK/output/mx6sdl/lib/libsdk.a(ips_disp_panel.o)
 .debug_aranges
                0x00000b48       0x20 /home/leon/git/swp-report/iMX6_Platform_SDK/output/mx6sdl/lib/libsdk.a(ipu_common.o)
 .debug_aranges
                0x00000b68       0x20 /home/leon/git/swp-report/iMX6_Platform_SDK/output/mx6sdl/lib/libsdk.a(ipu_csi.o)
 .debug_aranges
                0x00000b88       0x20 /home/leon/git/swp-report/iMX6_Platform_SDK/output/mx6sdl/lib/libsdk.a(ipu_dc.o)
 .debug_aranges
                0x00000ba8       0x20 /home/leon/git/swp-report/iMX6_Platform_SDK/output/mx6sdl/lib/libsdk.a(ipu_di.o)
 .debug_aranges
                0x00000bc8       0x20 /home/leon/git/swp-report/iMX6_Platform_SDK/output/mx6sdl/lib/libsdk.a(ipu_dmfc.o)
 .debug_aranges
                0x00000be8       0x20 /home/leon/git/swp-report/iMX6_Platform_SDK/output/mx6sdl/lib/libsdk.a(ipu_dp.o)
 .debug_aranges
                0x00000c08       0x20 /home/leon/git/swp-report/iMX6_Platform_SDK/output/mx6sdl/lib/libsdk.a(ipu_idmac.o)
 .debug_aranges
                0x00000c28       0x20 /home/leon/git/swp-report/iMX6_Platform_SDK/output/mx6sdl/lib/libsdk.a(ipu_vdi.o)
 .debug_aranges
                0x00000c48       0x20 /home/leon/git/swp-report/iMX6_Platform_SDK/output/mx6sdl/lib/libsdk.a(ldb.o)
 .debug_aranges
                0x00000c68       0x20 /home/leon/git/swp-report/iMX6_Platform_SDK/output/mx6sdl/lib/libsdk.a(ocotp.o)
 .debug_aranges
                0x00000c88       0x20 /home/leon/git/swp-report/iMX6_Platform_SDK/output/mx6sdl/lib/libsdk.a(ecspi.o)
 .debug_aranges
                0x00000ca8       0x20 /home/leon/git/swp-report/iMX6_Platform_SDK/output/mx6sdl/lib/libsdk.a(timer.o)
 .debug_aranges
                0x00000cc8       0x20 /home/leon/git/swp-report/iMX6_Platform_SDK/output/mx6sdl/lib/libsdk.a(imx_uart.o)
 .debug_aranges
                0x00000ce8       0x20 /home/leon/git/swp-report/iMX6_Platform_SDK/output/mx6sdl/lib/libsdk.a(usb_common.o)
 .debug_aranges
                0x00000d08       0x20 /home/leon/git/swp-report/iMX6_Platform_SDK/output/mx6sdl/lib/libsdk.a(usbh_drv.o)
 .debug_aranges
                0x00000d28       0x20 /home/leon/git/swp-report/iMX6_Platform_SDK/output/mx6sdl/lib/libsdk.a(usdhc.o)
 .debug_aranges
                0x00000d48       0x20 /home/leon/git/swp-report/iMX6_Platform_SDK/output/mx6sdl/lib/libsdk.a(usdhc_host.o)
 .debug_aranges
                0x00000d68       0x20 /home/leon/git/swp-report/iMX6_Platform_SDK/output/mx6sdl/lib/libsdk.a(usdhc_mmc.o)
 .debug_aranges
                0x00000d88       0x20 /home/leon/git/swp-report/iMX6_Platform_SDK/output/mx6sdl/lib/libsdk.a(usdhc_sd.o)
 .debug_aranges
                0x00000da8       0x20 /home/leon/git/swp-report/iMX6_Platform_SDK/output/mx6sdl/lib/libsdk.a(armv7_cache.o)
 .debug_aranges
                0x00000dc8       0x18 /home/leon/git/swp-report/iMX6_Platform_SDK/output/mx6sdl/lib/libsdk.a(camera_profile.o)
 .debug_aranges
                0x00000de0       0x20 /home/leon/git/swp-report/iMX6_Platform_SDK/output/mx6sdl/lib/libsdk.a(hdmi_common.o)
 .debug_aranges
                0x00000e00       0x20 /home/leon/git/swp-report/iMX6_Platform_SDK/output/mx6sdl/lib/libsdk.a(ipu_ic.o)
 .debug_aranges
                0x00000e20       0x20 /home/leon/git/swp-report/iMX6_Platform_SDK/output/mx6sdl/lib/libsdk.a(epit.o)
 .debug_aranges
                0x00000e40       0x20 /home/leon/git/swp-report/iMX6_Platform_SDK/output/mx6sdl/lib/libsdk.a(mx6x_usb.o)
 .debug_aranges
                0x00000e60       0x20 /home/leon/git/swp-report/iMX6_Platform_SDK/output/mx6sdl/lib/libsdk.a(abort_handler.o)
 .debug_aranges
                0x00000e80       0x20 /home/leon/git/swp-report/iMX6_Platform_SDK/output/mx6sdl/lib/libboard_smart_device_rev_a.a(board_audio.o)
 .debug_aranges
                0x00000ea0       0x20 /home/leon/git/swp-report/iMX6_Platform_SDK/output/mx6sdl/lib/libboard_smart_device_rev_a.a(board_buttons.o)
 .debug_aranges
                0x00000ec0       0x20 /home/leon/git/swp-report/iMX6_Platform_SDK/output/mx6sdl/lib/libboard_smart_device_rev_a.a(board_camera.o)
 .debug_aranges
                0x00000ee0       0x20 /home/leon/git/swp-report/iMX6_Platform_SDK/output/mx6sdl/lib/libboard_smart_device_rev_a.a(board_display.o)
 .debug_aranges
                0x00000f00       0x20 /home/leon/git/swp-report/iMX6_Platform_SDK/output/mx6sdl/lib/libboard_smart_device_rev_a.a(board_hdmi.o)
 .debug_aranges
                0x00000f20       0x18 /home/leon/git/swp-report/iMX6_Platform_SDK/output/mx6sdl/lib/libboard_smart_device_rev_a.a(board_i2c.o)
 .debug_aranges
                0x00000f38       0x20 /home/leon/git/swp-report/iMX6_Platform_SDK/output/mx6sdl/lib/libboard_smart_device_rev_a.a(board_io_expanders.o)
 .debug_aranges
                0x00000f58       0x20 /home/leon/git/swp-report/iMX6_Platform_SDK/output/mx6sdl/lib/libboard_smart_device_rev_a.a(board_mipi.o)
 .debug_aranges
                0x00000f78       0x20 /home/leon/git/swp-report/iMX6_Platform_SDK/output/mx6sdl/lib/libboard_smart_device_rev_a.a(board_network.o)
 .debug_aranges
                0x00000f98       0x20 /home/leon/git/swp-report/iMX6_Platform_SDK/output/mx6sdl/lib/libboard_smart_device_rev_a.a(board_usb.o)
 .debug_aranges
                0x00000fb8       0x20 /home/leon/git/swp-report/iMX6_Platform_SDK/output/mx6sdl/lib/libboard_smart_device_rev_a.a(board_usdhc.o)
 .debug_aranges
                0x00000fd8       0x18 /home/leon/git/swp-report/iMX6_Platform_SDK/output/mx6sdl/lib/libboard_smart_device_rev_a.a(hardware_modules.o)
 .debug_aranges
                0x00000ff0       0x18 /home/leon/git/swp-report/iMX6_Platform_SDK/output/mx6sdl/lib/libboard_smart_device_rev_a.a(dcd.o)
 .debug_aranges
                0x00001008       0x20 /home/leon/git/swp-report/iMX6_Platform_SDK/output/mx6sdl/lib/libboard_smart_device_rev_a.a(audmux_iomux_config.o)
 .debug_aranges
                0x00001028       0x20 /home/leon/git/swp-report/iMX6_Platform_SDK/output/mx6sdl/lib/libboard_smart_device_rev_a.a(ccm_iomux_config.o)
 .debug_aranges
                0x00001048       0x20 /home/leon/git/swp-report/iMX6_Platform_SDK/output/mx6sdl/lib/libboard_smart_device_rev_a.a(ecspi_iomux_config.o)
 .debug_aranges
                0x00001068       0x20 /home/leon/git/swp-report/iMX6_Platform_SDK/output/mx6sdl/lib/libboard_smart_device_rev_a.a(enet_iomux_config.o)
 .debug_aranges
                0x00001088       0x20 /home/leon/git/swp-report/iMX6_Platform_SDK/output/mx6sdl/lib/libboard_smart_device_rev_a.a(epdc_iomux_config.o)
 .debug_aranges
                0x000010a8       0x20 /home/leon/git/swp-report/iMX6_Platform_SDK/output/mx6sdl/lib/libboard_smart_device_rev_a.a(i2c_iomux_config.o)
 .debug_aranges
                0x000010c8       0x20 /home/leon/git/swp-report/iMX6_Platform_SDK/output/mx6sdl/lib/libboard_smart_device_rev_a.a(iomux_config.o)
 .debug_aranges
                0x000010e8       0x20 /home/leon/git/swp-report/iMX6_Platform_SDK/output/mx6sdl/lib/libboard_smart_device_rev_a.a(ipu1_iomux_config.o)
 .debug_aranges
                0x00001108       0x20 /home/leon/git/swp-report/iMX6_Platform_SDK/output/mx6sdl/lib/libboard_smart_device_rev_a.a(ipu_iomux_config.o)
 .debug_aranges
                0x00001128       0x20 /home/leon/git/swp-report/iMX6_Platform_SDK/output/mx6sdl/lib/libboard_smart_device_rev_a.a(kpp_iomux_config.o)
 .debug_aranges
                0x00001148       0x20 /home/leon/git/swp-report/iMX6_Platform_SDK/output/mx6sdl/lib/libboard_smart_device_rev_a.a(mmdc_iomux_config.o)
 .debug_aranges
                0x00001168       0x20 /home/leon/git/swp-report/iMX6_Platform_SDK/output/mx6sdl/lib/libboard_smart_device_rev_a.a(pwm1_iomux_config.o)
 .debug_aranges
                0x00001188       0x20 /home/leon/git/swp-report/iMX6_Platform_SDK/output/mx6sdl/lib/libboard_smart_device_rev_a.a(sjc_iomux_config.o)
 .debug_aranges
                0x000011a8       0x20 /home/leon/git/swp-report/iMX6_Platform_SDK/output/mx6sdl/lib/libboard_smart_device_rev_a.a(uart1_iomux_config.o)
 .debug_aranges
                0x000011c8       0x20 /home/leon/git/swp-report/iMX6_Platform_SDK/output/mx6sdl/lib/libboard_smart_device_rev_a.a(uart_iomux_config.o)
 .debug_aranges
                0x000011e8       0x20 /home/leon/git/swp-report/iMX6_Platform_SDK/output/mx6sdl/lib/libboard_smart_device_rev_a.a(usdhc2_iomux_config.o)
 .debug_aranges
                0x00001208       0x20 /home/leon/git/swp-report/iMX6_Platform_SDK/output/mx6sdl/lib/libboard_smart_device_rev_a.a(usdhc3_iomux_config.o)
 .debug_aranges
                0x00001228       0x20 /home/leon/git/swp-report/iMX6_Platform_SDK/output/mx6sdl/lib/libboard_smart_device_rev_a.a(usdhc4_iomux_config.o)
 .debug_aranges
                0x00001248       0x20 /home/leon/git/swp-report/iMX6_Platform_SDK/output/mx6sdl/lib/libboard_smart_device_rev_a.a(usdhc_iomux_config.o)
 .debug_aranges
                0x00001268       0x20 /home/leon/git/swp-report/iMX6_Platform_SDK/output/mx6sdl/lib/libboard_smart_device_rev_a.a(ecspi1_iomux_config.o)
 .debug_aranges
                0x00001288       0x20 /home/leon/git/swp-report/iMX6_Platform_SDK/output/mx6sdl/lib/libboard_smart_device_rev_a.a(flexcan1_iomux_config.o)
 .debug_aranges
                0x000012a8       0x20 /home/leon/git/swp-report/iMX6_Platform_SDK/output/mx6sdl/lib/libboard_smart_device_rev_a.a(gpio1_iomux_config.o)
 .debug_aranges
                0x000012c8       0x20 /home/leon/git/swp-report/iMX6_Platform_SDK/output/mx6sdl/lib/libboard_smart_device_rev_a.a(gpio2_iomux_config.o)
 .debug_aranges
                0x000012e8       0x20 /home/leon/git/swp-report/iMX6_Platform_SDK/output/mx6sdl/lib/libboard_smart_device_rev_a.a(gpio3_iomux_config.o)
 .debug_aranges
                0x00001308       0x20 /home/leon/git/swp-report/iMX6_Platform_SDK/output/mx6sdl/lib/libboard_smart_device_rev_a.a(gpio4_iomux_config.o)
 .debug_aranges
                0x00001328       0x20 /home/leon/git/swp-report/iMX6_Platform_SDK/output/mx6sdl/lib/libboard_smart_device_rev_a.a(gpio5_iomux_config.o)
 .debug_aranges
                0x00001348       0x20 /home/leon/git/swp-report/iMX6_Platform_SDK/output/mx6sdl/lib/libboard_smart_device_rev_a.a(gpio6_iomux_config.o)
 .debug_aranges
                0x00001368       0x20 /home/leon/git/swp-report/iMX6_Platform_SDK/output/mx6sdl/lib/libboard_smart_device_rev_a.a(gpio7_iomux_config.o)
 .debug_aranges
                0x00001388       0x20 /home/leon/git/swp-report/iMX6_Platform_SDK/output/mx6sdl/lib/libboard_smart_device_rev_a.a(gps_iomux_config.o)
 .debug_aranges
                0x000013a8       0x20 /home/leon/git/swp-report/iMX6_Platform_SDK/output/mx6sdl/lib/libboard_smart_device_rev_a.a(i2c1_iomux_config.o)
 .debug_aranges
                0x000013c8       0x20 /home/leon/git/swp-report/iMX6_Platform_SDK/output/mx6sdl/lib/libboard_smart_device_rev_a.a(i2c2_iomux_config.o)
 .debug_aranges
                0x000013e8       0x20 /home/leon/git/swp-report/iMX6_Platform_SDK/output/mx6sdl/lib/libboard_smart_device_rev_a.a(i2c3_iomux_config.o)
 .debug_aranges
                0x00001408       0x20 /home/leon/git/swp-report/iMX6_Platform_SDK/output/mx6sdl/lib/libsdk.a(runtime_support.o)

.debug_line     0x00000000    0x1be3b
 .debug_line    0x00000000      0x103 /home/leon/git/swp-report/iMX6_Platform_SDK/output/mx6sdl/obds/smart_device_rev_a/obj/apps/common/ivt.o
 .debug_line    0x00000103      0x1bc /home/leon/git/swp-report/iMX6_Platform_SDK/output/mx6sdl/obds/smart_device_rev_a/obj/apps/common/platform_init.o
 .debug_line    0x000002bf      0x171 /home/leon/git/swp-report/iMX6_Platform_SDK/output/mx6sdl/obds/smart_device_rev_a/obj/apps/common/print_clock_info.o
 .debug_line    0x00000430      0x17f /home/leon/git/swp-report/iMX6_Platform_SDK/output/mx6sdl/obds/smart_device_rev_a/obj/apps/common/print_version.o
 .debug_line    0x000005af      0x33c /home/leon/git/swp-report/iMX6_Platform_SDK/output/mx6sdl/obds/smart_device_rev_a/obj/apps/obds/src/obds.o
 .debug_line    0x000008eb       0xfa /home/leon/git/swp-report/iMX6_Platform_SDK/output/mx6sdl/obds/smart_device_rev_a/obj/apps/obds/src/obds_utils.o
 .debug_line    0x000009e5      0x231 /home/leon/git/swp-report/iMX6_Platform_SDK/output/mx6sdl/obds/smart_device_rev_a/obj/apps/obds/src/tests/android_buttons_test.o
 .debug_line    0x00000c16      0x441 /home/leon/git/swp-report/iMX6_Platform_SDK/output/mx6sdl/obds/smart_device_rev_a/obj/apps/obds/src/tests/audio_esai_test.o
 .debug_line    0x00001057      0x307 /home/leon/git/swp-report/iMX6_Platform_SDK/output/mx6sdl/obds/smart_device_rev_a/obj/apps/obds/src/tests/audio_ssi_test.o
 .debug_line    0x0000135e      0x273 /home/leon/git/swp-report/iMX6_Platform_SDK/output/mx6sdl/obds/smart_device_rev_a/obj/apps/obds/src/tests/ddr_test.o
 .debug_line    0x000015d1      0x225 /home/leon/git/swp-report/iMX6_Platform_SDK/output/mx6sdl/obds/smart_device_rev_a/obj/apps/obds/src/tests/deserializer_ds90ur124.o
 .debug_line    0x000017f6      0x2ea /home/leon/git/swp-report/iMX6_Platform_SDK/output/mx6sdl/obds/smart_device_rev_a/obj/apps/obds/src/tests/display_test.o
 .debug_line    0x00001ae0      0x2d9 /home/leon/git/swp-report/iMX6_Platform_SDK/output/mx6sdl/obds/smart_device_rev_a/obj/apps/obds/src/tests/enet_mx6dldq_test.o
 .debug_line    0x00001db9       0xd1 /home/leon/git/swp-report/iMX6_Platform_SDK/output/mx6sdl/obds/smart_device_rev_a/obj/apps/obds/src/tests/flexcan_test.o
 .debug_line    0x00001e8a      0x23e /home/leon/git/swp-report/iMX6_Platform_SDK/output/mx6sdl/obds/smart_device_rev_a/obj/apps/obds/src/tests/fm_tuner_si476x_test.o
 .debug_line    0x000020c8      0x21f /home/leon/git/swp-report/iMX6_Platform_SDK/output/mx6sdl/obds/smart_device_rev_a/obj/apps/obds/src/tests/gpio_led.o
 .debug_line    0x000022e7      0x1c9 /home/leon/git/swp-report/iMX6_Platform_SDK/output/mx6sdl/obds/smart_device_rev_a/obj/apps/obds/src/tests/gps_test.o
 .debug_line    0x000024b0      0x321 /home/leon/git/swp-report/iMX6_Platform_SDK/output/mx6sdl/obds/smart_device_rev_a/obj/apps/obds/src/tests/i2c_check_light_sensor_isl29023.o
 .debug_line    0x000027d1      0x23d /home/leon/git/swp-report/iMX6_Platform_SDK/output/mx6sdl/obds/smart_device_rev_a/obj/apps/obds/src/tests/i2c_device_barometer_ppl3115.o
 .debug_line    0x00002a0e      0x1c9 /home/leon/git/swp-report/iMX6_Platform_SDK/output/mx6sdl/obds/smart_device_rev_a/obj/apps/obds/src/tests/i2c_device_check_cs42888.o
 .debug_line    0x00002bd7      0x234 /home/leon/git/swp-report/iMX6_Platform_SDK/output/mx6sdl/obds/smart_device_rev_a/obj/apps/obds/src/tests/i2c_device_digital_compass_mag3110.o
 .debug_line    0x00002e0b      0x234 /home/leon/git/swp-report/iMX6_Platform_SDK/output/mx6sdl/obds/smart_device_rev_a/obj/apps/obds/src/tests/i2c_device_digital_compass_mag3112.o
 .debug_line    0x0000303f      0x40b /home/leon/git/swp-report/iMX6_Platform_SDK/output/mx6sdl/obds/smart_device_rev_a/obj/apps/obds/src/tests/i2c_device_id_check_mma8450.o
 .debug_line    0x0000344a      0x410 /home/leon/git/swp-report/iMX6_Platform_SDK/output/mx6sdl/obds/smart_device_rev_a/obj/apps/obds/src/tests/i2c_device_id_check_mma8451.o
 .debug_line    0x0000385a      0x328 /home/leon/git/swp-report/iMX6_Platform_SDK/output/mx6sdl/obds/smart_device_rev_a/obj/apps/obds/src/tests/i2c_device_id_check_p1003_tsc.o
 .debug_line    0x00003b82      0x29e /home/leon/git/swp-report/iMX6_Platform_SDK/output/mx6sdl/obds/smart_device_rev_a/obj/apps/obds/src/tests/i2c_device_temp_sensor_emc1046.o
 .debug_line    0x00003e20      0x201 /home/leon/git/swp-report/iMX6_Platform_SDK/output/mx6sdl/obds/smart_device_rev_a/obj/apps/obds/src/tests/i2c_device_zigbee_mc1323.o
 .debug_line    0x00004021      0x24a /home/leon/git/swp-report/iMX6_Platform_SDK/output/mx6sdl/obds/smart_device_rev_a/obj/apps/obds/src/tests/i2c_eeprom_at24cxx_test.o
 .debug_line    0x0000426b      0x239 /home/leon/git/swp-report/iMX6_Platform_SDK/output/mx6sdl/obds/smart_device_rev_a/obj/apps/obds/src/tests/imx_spi_nor_test.o
 .debug_line    0x000044a4      0x250 /home/leon/git/swp-report/iMX6_Platform_SDK/output/mx6sdl/obds/smart_device_rev_a/obj/apps/obds/src/tests/mlb_os81050.o
 .debug_line    0x000046f4      0x165 /home/leon/git/swp-report/iMX6_Platform_SDK/output/mx6sdl/obds/smart_device_rev_a/obj/apps/obds/src/tests/mmcsd_test.o
 .debug_line    0x00004859      0x217 /home/leon/git/swp-report/iMX6_Platform_SDK/output/mx6sdl/obds/smart_device_rev_a/obj/apps/obds/src/tests/pmic_da9053.o
 .debug_line    0x00004a70      0x3fe /home/leon/git/swp-report/iMX6_Platform_SDK/output/mx6sdl/obds/smart_device_rev_a/obj/apps/obds/src/tests/pmic_lt3589.o
 .debug_line    0x00004e6e      0x1e2 /home/leon/git/swp-report/iMX6_Platform_SDK/output/mx6sdl/obds/smart_device_rev_a/obj/apps/obds/src/tests/pmic_max17135.o
 .debug_line    0x00005050       0xff /home/leon/git/swp-report/iMX6_Platform_SDK/output/mx6sdl/obds/smart_device_rev_a/obj/apps/obds/src/tests/pmic_mc13892.o
 .debug_line    0x0000514f      0x269 /home/leon/git/swp-report/iMX6_Platform_SDK/output/mx6sdl/obds/smart_device_rev_a/obj/apps/obds/src/tests/program_board_id.o
 .debug_line    0x000053b8      0x34e /home/leon/git/swp-report/iMX6_Platform_SDK/output/mx6sdl/obds/smart_device_rev_a/obj/apps/obds/src/tests/program_mac_address.o
 .debug_line    0x00005706      0x1aa /home/leon/git/swp-report/iMX6_Platform_SDK/output/mx6sdl/obds/smart_device_rev_a/obj/apps/obds/src/tests/snvs_srtc_test.o
 .debug_line    0x000058b0      0x267 /home/leon/git/swp-report/iMX6_Platform_SDK/output/mx6sdl/obds/smart_device_rev_a/obj/apps/obds/src/tests/touch_button_test.o
 .debug_line    0x00005b17      0x2d3 /home/leon/git/swp-report/iMX6_Platform_SDK/output/mx6sdl/obds/smart_device_rev_a/obj/apps/obds/src/tests/touch_screen.o
 .debug_line    0x00005dea      0x37b /home/leon/git/swp-report/iMX6_Platform_SDK/output/mx6sdl/obds/smart_device_rev_a/obj/apps/obds/src/tests/touch_screen_max11801.o
 .debug_line    0x00006165      0x25e /home/leon/git/swp-report/iMX6_Platform_SDK/output/mx6sdl/obds/smart_device_rev_a/obj/apps/obds/src/tests/usb_tests_obds.o
 .debug_line    0x000063c3       0xef /home/leon/git/swp-report/iMX6_Platform_SDK/output/mx6sdl/obds/smart_device_rev_a/obj/apps/obds/src/tests/video_dec_ARD_MB_reset_button.o
 .debug_line    0x000064b2       0xeb /home/leon/git/swp-report/iMX6_Platform_SDK/output/mx6sdl/obds/smart_device_rev_a/obj/apps/obds/src/tests/video_dec_ARD_MBrst_from_cpu_expander.o
 .debug_line    0x0000659d      0x28f /home/leon/git/swp-report/iMX6_Platform_SDK/output/mx6sdl/obds/smart_device_rev_a/obj/apps/obds/src/tests/video_dec_adv7180.o
 .debug_line    0x0000682c      0x167 /home/leon/git/swp-report/iMX6_Platform_SDK/output/mx6sdl/obds/smart_device_rev_a/obj/apps/obds/src/tests/weim_nor_flash_test.o
 .debug_line    0x00006993      0x1c8 /home/leon/git/swp-report/iMX6_Platform_SDK/output/mx6sdl/obds/smart_device_rev_a/obj/sdk/common/ioexpander/test/max7310_test.o
 .debug_line    0x00006b5b      0x1f4 /home/leon/git/swp-report/iMX6_Platform_SDK/output/mx6sdl/obds/smart_device_rev_a/obj/sdk/common/pmic/pfuse/pf0100.o
 .debug_line    0x00006d4f      0x1b1 /home/leon/git/swp-report/iMX6_Platform_SDK/output/mx6sdl/obds/smart_device_rev_a/obj/sdk/drivers/audio/src/snd_card.o
 .debug_line    0x00006f00        0x0 /home/leon/git/swp-report/iMX6_Platform_SDK/output/mx6sdl/obds/smart_device_rev_a/obj/sdk/drivers/camera/test/adv7180_capture.o
 .debug_line    0x00006f00      0x1e3 /home/leon/git/swp-report/iMX6_Platform_SDK/output/mx6sdl/obds/smart_device_rev_a/obj/sdk/drivers/camera/test/camera_test.o
 .debug_line    0x000070e3      0x28d /home/leon/git/swp-report/iMX6_Platform_SDK/output/mx6sdl/obds/smart_device_rev_a/obj/sdk/drivers/camera/test/csi_test_mode.o
 .debug_line    0x00007370      0x28c /home/leon/git/swp-report/iMX6_Platform_SDK/output/mx6sdl/obds/smart_device_rev_a/obj/sdk/drivers/camera/test/sensor_capture.o
 .debug_line    0x000075fc      0x257 /home/leon/git/swp-report/iMX6_Platform_SDK/output/mx6sdl/obds/smart_device_rev_a/obj/sdk/drivers/epdc/test/epdc_test.o
 .debug_line    0x00007853      0x293 /home/leon/git/swp-report/iMX6_Platform_SDK/output/mx6sdl/obds/smart_device_rev_a/obj/sdk/drivers/hdmi/test/hdmi_test.o
 .debug_line    0x00007ae6      0x157 /home/leon/git/swp-report/iMX6_Platform_SDK/output/mx6sdl/obds/smart_device_rev_a/obj/sdk/drivers/hdmi/test/init_dma_data.o
 .debug_line    0x00007c3d      0x401 /home/leon/git/swp-report/iMX6_Platform_SDK/output/mx6sdl/obds/smart_device_rev_a/obj/sdk/drivers/ipu/test/ips_display.o
 .debug_line    0x0000803e      0x1e5 /home/leon/git/swp-report/iMX6_Platform_SDK/output/mx6sdl/obds/smart_device_rev_a/obj/sdk/drivers/ipu/test/ipu_image.o
 .debug_line    0x00008223      0x2d9 /home/leon/git/swp-report/iMX6_Platform_SDK/output/mx6sdl/obds/smart_device_rev_a/obj/sdk/drivers/spi/test/imx_spi_nor_atmel.o
 .debug_line    0x000084fc      0x22d /home/leon/git/swp-report/iMX6_Platform_SDK/output/mx6sdl/obds/smart_device_rev_a/obj/sdk/drivers/spi/test/spi_nor_numonyx.o
 .debug_line    0x00008729      0x217 /home/leon/git/swp-report/iMX6_Platform_SDK/output/mx6sdl/obds/smart_device_rev_a/obj/sdk/drivers/uart/test/uart_test.o
 .debug_line    0x00008940     0x10e0 /home/leon/git/swp-report/iMX6_Platform_SDK/output/mx6sdl/obds/smart_device_rev_a/obj/sdk/drivers/usb/test/usb0_host_test.o
 .debug_line    0x00009a20      0x4c9 /home/leon/git/swp-report/iMX6_Platform_SDK/output/mx6sdl/obds/smart_device_rev_a/obj/sdk/drivers/usb/test/usb0_host_testmodes_test.o
 .debug_line    0x00009ee9      0x395 /home/leon/git/swp-report/iMX6_Platform_SDK/output/mx6sdl/obds/smart_device_rev_a/obj/sdk/drivers/usdhc/test/usdhc_test.o
 .debug_line    0x0000a27e      0x194 /home/leon/git/swp-report/iMX6_Platform_SDK/output/mx6sdl/lib/libsdk.a(max7310.o)
 .debug_line    0x0000a412      0x26d /home/leon/git/swp-report/iMX6_Platform_SDK/output/mx6sdl/lib/libsdk.a(ccm_pll.o)
 .debug_line    0x0000a67f      0x165 /home/leon/git/swp-report/iMX6_Platform_SDK/output/mx6sdl/lib/libsdk.a(gic.o)
 .debug_line    0x0000a7e4      0x181 /home/leon/git/swp-report/iMX6_Platform_SDK/output/mx6sdl/lib/libsdk.a(interrupt.o)
 .debug_line    0x0000a965      0x188 /home/leon/git/swp-report/iMX6_Platform_SDK/output/mx6sdl/lib/libsdk.a(mmu.o)
 .debug_line    0x0000aaed      0x2e0 /home/leon/git/swp-report/iMX6_Platform_SDK/output/mx6sdl/lib/libsdk.a(menu.o)
 .debug_line    0x0000adcd       0x6a /home/leon/git/swp-report/iMX6_Platform_SDK/output/mx6sdl/lib/libsdk.a(sdk_version.o)
 .debug_line    0x0000ae37      0x366 /home/leon/git/swp-report/iMX6_Platform_SDK/output/mx6sdl/lib/libsdk.a(system_util.o)
 .debug_line    0x0000b19d       0xf0 /home/leon/git/swp-report/iMX6_Platform_SDK/output/mx6sdl/lib/libsdk.a(text_color.o)
 .debug_line    0x0000b28d      0x23c /home/leon/git/swp-report/iMX6_Platform_SDK/output/mx6sdl/lib/libsdk.a(cs42888.o)
 .debug_line    0x0000b4c9     0x11d3 /home/leon/git/swp-report/iMX6_Platform_SDK/output/mx6sdl/lib/libsdk.a(imx-ssi.o)
 .debug_line    0x0000c69c      0x458 /home/leon/git/swp-report/iMX6_Platform_SDK/output/mx6sdl/lib/libsdk.a(imx_audmux.o)
 .debug_line    0x0000caf4      0x2d3 /home/leon/git/swp-report/iMX6_Platform_SDK/output/mx6sdl/lib/libsdk.a(imx_esai.o)
 .debug_line    0x0000cdc7      0x228 /home/leon/git/swp-report/iMX6_Platform_SDK/output/mx6sdl/lib/libsdk.a(imx_spdif.o)
 .debug_line    0x0000cfef      0x42f /home/leon/git/swp-report/iMX6_Platform_SDK/output/mx6sdl/lib/libsdk.a(sgtl5000.o)
 .debug_line    0x0000d41e      0x335 /home/leon/git/swp-report/iMX6_Platform_SDK/output/mx6sdl/lib/libsdk.a(wm8958_dac.o)
 .debug_line    0x0000d753      0x2ee /home/leon/git/swp-report/iMX6_Platform_SDK/output/mx6sdl/lib/libsdk.a(wm8962.o)
 .debug_line    0x0000da41      0x279 /home/leon/git/swp-report/iMX6_Platform_SDK/output/mx6sdl/lib/libsdk.a(board_id.o)
 .debug_line    0x0000dcba      0x262 /home/leon/git/swp-report/iMX6_Platform_SDK/output/mx6sdl/lib/libsdk.a(smd_sensor.o)
 .debug_line    0x0000df1c      0x37a /home/leon/git/swp-report/iMX6_Platform_SDK/output/mx6sdl/lib/libsdk.a(enet_drv.o)
 .debug_line    0x0000e296      0x29b /home/leon/git/swp-report/iMX6_Platform_SDK/output/mx6sdl/lib/libsdk.a(mxc_epdc.o)
 .debug_line    0x0000e531      0x7bb /home/leon/git/swp-report/iMX6_Platform_SDK/output/mx6sdl/lib/libsdk.a(gpio.o)
 .debug_line    0x0000ecec       0xd0 /home/leon/git/swp-report/iMX6_Platform_SDK/output/mx6sdl/lib/libsdk.a(imx6sdl_gpio_map.o)
 .debug_line    0x0000edbc      0x2cb /home/leon/git/swp-report/iMX6_Platform_SDK/output/mx6sdl/lib/libsdk.a(hdmi_tx.o)
 .debug_line    0x0000f087      0x2cc /home/leon/git/swp-report/iMX6_Platform_SDK/output/mx6sdl/lib/libsdk.a(hdmi_tx_audio.o)
 .debug_line    0x0000f353      0x2eb /home/leon/git/swp-report/iMX6_Platform_SDK/output/mx6sdl/lib/libsdk.a(hdmi_tx_phy.o)
 .debug_line    0x0000f63e      0x9c0 /home/leon/git/swp-report/iMX6_Platform_SDK/output/mx6sdl/lib/libsdk.a(imx_i2c.o)
 .debug_line    0x0000fffe      0x22d /home/leon/git/swp-report/iMX6_Platform_SDK/output/mx6sdl/lib/libsdk.a(ips_disp_panel.o)
 .debug_line    0x0001022b      0x30b /home/leon/git/swp-report/iMX6_Platform_SDK/output/mx6sdl/lib/libsdk.a(ipu_common.o)
 .debug_line    0x00010536      0x1d0 /home/leon/git/swp-report/iMX6_Platform_SDK/output/mx6sdl/lib/libsdk.a(ipu_csi.o)
 .debug_line    0x00010706      0x30d /home/leon/git/swp-report/iMX6_Platform_SDK/output/mx6sdl/lib/libsdk.a(ipu_dc.o)
 .debug_line    0x00010a13      0x243 /home/leon/git/swp-report/iMX6_Platform_SDK/output/mx6sdl/lib/libsdk.a(ipu_di.o)
 .debug_line    0x00010c56      0x14b /home/leon/git/swp-report/iMX6_Platform_SDK/output/mx6sdl/lib/libsdk.a(ipu_dmfc.o)
 .debug_line    0x00010da1      0x17e /home/leon/git/swp-report/iMX6_Platform_SDK/output/mx6sdl/lib/libsdk.a(ipu_dp.o)
 .debug_line    0x00010f1f      0x98a /home/leon/git/swp-report/iMX6_Platform_SDK/output/mx6sdl/lib/libsdk.a(ipu_idmac.o)
 .debug_line    0x000118a9      0x18e /home/leon/git/swp-report/iMX6_Platform_SDK/output/mx6sdl/lib/libsdk.a(ipu_vdi.o)
 .debug_line    0x00011a37      0x1df /home/leon/git/swp-report/iMX6_Platform_SDK/output/mx6sdl/lib/libsdk.a(ldb.o)
 .debug_line    0x00011c16      0x1ae /home/leon/git/swp-report/iMX6_Platform_SDK/output/mx6sdl/lib/libsdk.a(ocotp.o)
 .debug_line    0x00011dc4      0x85b /home/leon/git/swp-report/iMX6_Platform_SDK/output/mx6sdl/lib/libsdk.a(ecspi.o)
 .debug_line    0x0001261f      0x201 /home/leon/git/swp-report/iMX6_Platform_SDK/output/mx6sdl/lib/libsdk.a(timer.o)
 .debug_line    0x00012820     0x12cc /home/leon/git/swp-report/iMX6_Platform_SDK/output/mx6sdl/lib/libsdk.a(imx_uart.o)
 .debug_line    0x00013aec      0x2a9 /home/leon/git/swp-report/iMX6_Platform_SDK/output/mx6sdl/lib/libsdk.a(usb_common.o)
 .debug_line    0x00013d95     0x1253 /home/leon/git/swp-report/iMX6_Platform_SDK/output/mx6sdl/lib/libsdk.a(usbh_drv.o)
 .debug_line    0x00014fe8      0x380 /home/leon/git/swp-report/iMX6_Platform_SDK/output/mx6sdl/lib/libsdk.a(usdhc.o)
 .debug_line    0x00015368     0x14a5 /home/leon/git/swp-report/iMX6_Platform_SDK/output/mx6sdl/lib/libsdk.a(usdhc_host.o)
 .debug_line    0x0001680d      0x348 /home/leon/git/swp-report/iMX6_Platform_SDK/output/mx6sdl/lib/libsdk.a(usdhc_mmc.o)
 .debug_line    0x00016b55      0x202 /home/leon/git/swp-report/iMX6_Platform_SDK/output/mx6sdl/lib/libsdk.a(usdhc_sd.o)
 .debug_line    0x00016d57      0x1aa /home/leon/git/swp-report/iMX6_Platform_SDK/output/mx6sdl/lib/libsdk.a(armv7_cache.o)
 .debug_line    0x00016f01      0x11f /home/leon/git/swp-report/iMX6_Platform_SDK/output/mx6sdl/lib/libsdk.a(camera_profile.o)
 .debug_line    0x00017020      0x59e /home/leon/git/swp-report/iMX6_Platform_SDK/output/mx6sdl/lib/libsdk.a(hdmi_common.o)
 .debug_line    0x000175be      0x2f5 /home/leon/git/swp-report/iMX6_Platform_SDK/output/mx6sdl/lib/libsdk.a(ipu_ic.o)
 .debug_line    0x000178b3      0x581 /home/leon/git/swp-report/iMX6_Platform_SDK/output/mx6sdl/lib/libsdk.a(epit.o)
 .debug_line    0x00017e34      0x271 /home/leon/git/swp-report/iMX6_Platform_SDK/output/mx6sdl/lib/libsdk.a(mx6x_usb.o)
 .debug_line    0x000180a5      0x24a /home/leon/git/swp-report/iMX6_Platform_SDK/output/mx6sdl/lib/libsdk.a(abort_handler.o)
 .debug_line    0x000182ef      0x17c /home/leon/git/swp-report/iMX6_Platform_SDK/output/mx6sdl/lib/libboard_smart_device_rev_a.a(board_audio.o)
 .debug_line    0x0001846b      0x137 /home/leon/git/swp-report/iMX6_Platform_SDK/output/mx6sdl/lib/libboard_smart_device_rev_a.a(board_buttons.o)
 .debug_line    0x000185a2      0x241 /home/leon/git/swp-report/iMX6_Platform_SDK/output/mx6sdl/lib/libboard_smart_device_rev_a.a(board_camera.o)
 .debug_line    0x000187e3      0x194 /home/leon/git/swp-report/iMX6_Platform_SDK/output/mx6sdl/lib/libboard_smart_device_rev_a.a(board_display.o)
 .debug_line    0x00018977      0x172 /home/leon/git/swp-report/iMX6_Platform_SDK/output/mx6sdl/lib/libboard_smart_device_rev_a.a(board_hdmi.o)
 .debug_line    0x00018ae9      0x10a /home/leon/git/swp-report/iMX6_Platform_SDK/output/mx6sdl/lib/libboard_smart_device_rev_a.a(board_i2c.o)
 .debug_line    0x00018bf3      0x129 /home/leon/git/swp-report/iMX6_Platform_SDK/output/mx6sdl/lib/libboard_smart_device_rev_a.a(board_io_expanders.o)
 .debug_line    0x00018d1c      0x17d /home/leon/git/swp-report/iMX6_Platform_SDK/output/mx6sdl/lib/libboard_smart_device_rev_a.a(board_mipi.o)
 .debug_line    0x00018e99       0xd3 /home/leon/git/swp-report/iMX6_Platform_SDK/output/mx6sdl/lib/libboard_smart_device_rev_a.a(board_network.o)
 .debug_line    0x00018f6c      0x121 /home/leon/git/swp-report/iMX6_Platform_SDK/output/mx6sdl/lib/libboard_smart_device_rev_a.a(board_usb.o)
 .debug_line    0x0001908d      0x139 /home/leon/git/swp-report/iMX6_Platform_SDK/output/mx6sdl/lib/libboard_smart_device_rev_a.a(board_usdhc.o)
 .debug_line    0x000191c6       0xc8 /home/leon/git/swp-report/iMX6_Platform_SDK/output/mx6sdl/lib/libboard_smart_device_rev_a.a(hardware_modules.o)
 .debug_line    0x0001928e      0x111 /home/leon/git/swp-report/iMX6_Platform_SDK/output/mx6sdl/lib/libboard_smart_device_rev_a.a(dcd.o)
 .debug_line    0x0001939f      0x115 /home/leon/git/swp-report/iMX6_Platform_SDK/output/mx6sdl/lib/libboard_smart_device_rev_a.a(audmux_iomux_config.o)
 .debug_line    0x000194b4       0xfe /home/leon/git/swp-report/iMX6_Platform_SDK/output/mx6sdl/lib/libboard_smart_device_rev_a.a(ccm_iomux_config.o)
 .debug_line    0x000195b2       0x9e /home/leon/git/swp-report/iMX6_Platform_SDK/output/mx6sdl/lib/libboard_smart_device_rev_a.a(ecspi_iomux_config.o)
 .debug_line    0x00019650      0x19e /home/leon/git/swp-report/iMX6_Platform_SDK/output/mx6sdl/lib/libboard_smart_device_rev_a.a(enet_iomux_config.o)
 .debug_line    0x000197ee      0x221 /home/leon/git/swp-report/iMX6_Platform_SDK/output/mx6sdl/lib/libboard_smart_device_rev_a.a(epdc_iomux_config.o)
 .debug_line    0x00019a0f       0x9c /home/leon/git/swp-report/iMX6_Platform_SDK/output/mx6sdl/lib/libboard_smart_device_rev_a.a(i2c_iomux_config.o)
 .debug_line    0x00019aab       0xfb /home/leon/git/swp-report/iMX6_Platform_SDK/output/mx6sdl/lib/libboard_smart_device_rev_a.a(iomux_config.o)
 .debug_line    0x00019ba6      0x1eb /home/leon/git/swp-report/iMX6_Platform_SDK/output/mx6sdl/lib/libboard_smart_device_rev_a.a(ipu1_iomux_config.o)
 .debug_line    0x00019d91       0x98 /home/leon/git/swp-report/iMX6_Platform_SDK/output/mx6sdl/lib/libboard_smart_device_rev_a.a(ipu_iomux_config.o)
 .debug_line    0x00019e29      0x13a /home/leon/git/swp-report/iMX6_Platform_SDK/output/mx6sdl/lib/libboard_smart_device_rev_a.a(kpp_iomux_config.o)
 .debug_line    0x00019f63      0x5db /home/leon/git/swp-report/iMX6_Platform_SDK/output/mx6sdl/lib/libboard_smart_device_rev_a.a(mmdc_iomux_config.o)
 .debug_line    0x0001a53e      0x101 /home/leon/git/swp-report/iMX6_Platform_SDK/output/mx6sdl/lib/libboard_smart_device_rev_a.a(pwm1_iomux_config.o)
 .debug_line    0x0001a63f      0x10a /home/leon/git/swp-report/iMX6_Platform_SDK/output/mx6sdl/lib/libboard_smart_device_rev_a.a(sjc_iomux_config.o)
 .debug_line    0x0001a749      0x10c /home/leon/git/swp-report/iMX6_Platform_SDK/output/mx6sdl/lib/libboard_smart_device_rev_a.a(uart1_iomux_config.o)
 .debug_line    0x0001a855       0x9e /home/leon/git/swp-report/iMX6_Platform_SDK/output/mx6sdl/lib/libboard_smart_device_rev_a.a(uart_iomux_config.o)
 .debug_line    0x0001a8f3      0x13c /home/leon/git/swp-report/iMX6_Platform_SDK/output/mx6sdl/lib/libboard_smart_device_rev_a.a(usdhc2_iomux_config.o)
 .debug_line    0x0001aa2f      0x13c /home/leon/git/swp-report/iMX6_Platform_SDK/output/mx6sdl/lib/libboard_smart_device_rev_a.a(usdhc3_iomux_config.o)
 .debug_line    0x0001ab6b      0x13c /home/leon/git/swp-report/iMX6_Platform_SDK/output/mx6sdl/lib/libboard_smart_device_rev_a.a(usdhc4_iomux_config.o)
 .debug_line    0x0001aca7       0x9e /home/leon/git/swp-report/iMX6_Platform_SDK/output/mx6sdl/lib/libboard_smart_device_rev_a.a(usdhc_iomux_config.o)
 .debug_line    0x0001ad45      0x11f /home/leon/git/swp-report/iMX6_Platform_SDK/output/mx6sdl/lib/libboard_smart_device_rev_a.a(ecspi1_iomux_config.o)
 .debug_line    0x0001ae64      0x10e /home/leon/git/swp-report/iMX6_Platform_SDK/output/mx6sdl/lib/libboard_smart_device_rev_a.a(flexcan1_iomux_config.o)
 .debug_line    0x0001af72      0x162 /home/leon/git/swp-report/iMX6_Platform_SDK/output/mx6sdl/lib/libboard_smart_device_rev_a.a(gpio1_iomux_config.o)
 .debug_line    0x0001b0d4      0x138 /home/leon/git/swp-report/iMX6_Platform_SDK/output/mx6sdl/lib/libboard_smart_device_rev_a.a(gpio2_iomux_config.o)
 .debug_line    0x0001b20c      0x162 /home/leon/git/swp-report/iMX6_Platform_SDK/output/mx6sdl/lib/libboard_smart_device_rev_a.a(gpio3_iomux_config.o)
 .debug_line    0x0001b36e      0x114 /home/leon/git/swp-report/iMX6_Platform_SDK/output/mx6sdl/lib/libboard_smart_device_rev_a.a(gpio4_iomux_config.o)
 .debug_line    0x0001b482      0x108 /home/leon/git/swp-report/iMX6_Platform_SDK/output/mx6sdl/lib/libboard_smart_device_rev_a.a(gpio5_iomux_config.o)
 .debug_line    0x0001b58a      0x132 /home/leon/git/swp-report/iMX6_Platform_SDK/output/mx6sdl/lib/libboard_smart_device_rev_a.a(gpio6_iomux_config.o)
 .debug_line    0x0001b6bc      0x10e /home/leon/git/swp-report/iMX6_Platform_SDK/output/mx6sdl/lib/libboard_smart_device_rev_a.a(gpio7_iomux_config.o)
 .debug_line    0x0001b7ca      0x11c /home/leon/git/swp-report/iMX6_Platform_SDK/output/mx6sdl/lib/libboard_smart_device_rev_a.a(gps_iomux_config.o)
 .debug_line    0x0001b8e6      0x10b /home/leon/git/swp-report/iMX6_Platform_SDK/output/mx6sdl/lib/libboard_smart_device_rev_a.a(i2c1_iomux_config.o)
 .debug_line    0x0001b9f1      0x10b /home/leon/git/swp-report/iMX6_Platform_SDK/output/mx6sdl/lib/libboard_smart_device_rev_a.a(i2c2_iomux_config.o)
 .debug_line    0x0001bafc      0x10b /home/leon/git/swp-report/iMX6_Platform_SDK/output/mx6sdl/lib/libboard_smart_device_rev_a.a(i2c3_iomux_config.o)
 .debug_line    0x0001bc07      0x234 /home/leon/git/swp-report/iMX6_Platform_SDK/output/mx6sdl/lib/libsdk.a(runtime_support.o)

.debug_str      0x00000000    0x25d5a
 .debug_str     0x00000000      0x150 /home/leon/git/swp-report/iMX6_Platform_SDK/output/mx6sdl/obds/smart_device_rev_a/obj/apps/common/ivt.o
                                0x1ad (size before relaxing)
 .debug_str     0x00000150      0x1f4 /home/leon/git/swp-report/iMX6_Platform_SDK/output/mx6sdl/obds/smart_device_rev_a/obj/apps/common/platform_init.o
                                0x2a3 (size before relaxing)
 .debug_str     0x00000344      0x170 /home/leon/git/swp-report/iMX6_Platform_SDK/output/mx6sdl/obds/smart_device_rev_a/obj/apps/common/print_clock_info.o
                                0x277 (size before relaxing)
 .debug_str     0x000004b4      0x11a /home/leon/git/swp-report/iMX6_Platform_SDK/output/mx6sdl/obds/smart_device_rev_a/obj/apps/common/print_version.o
                                0x20c (size before relaxing)
 .debug_str     0x000005ce      0x79e /home/leon/git/swp-report/iMX6_Platform_SDK/output/mx6sdl/obds/smart_device_rev_a/obj/apps/obds/src/obds.o
                                0x9d6 (size before relaxing)
 .debug_str     0x00000d6c       0xd4 /home/leon/git/swp-report/iMX6_Platform_SDK/output/mx6sdl/obds/smart_device_rev_a/obj/apps/obds/src/obds_utils.o
                                0x1bc (size before relaxing)
 .debug_str     0x00000e40      0x4ed /home/leon/git/swp-report/iMX6_Platform_SDK/output/mx6sdl/obds/smart_device_rev_a/obj/apps/obds/src/tests/android_buttons_test.o
                                0x67c (size before relaxing)
 .debug_str     0x0000132d      0x404 /home/leon/git/swp-report/iMX6_Platform_SDK/output/mx6sdl/obds/smart_device_rev_a/obj/apps/obds/src/tests/audio_esai_test.o
                                0x9a3 (size before relaxing)
 .debug_str     0x00001731      0x13d /home/leon/git/swp-report/iMX6_Platform_SDK/output/mx6sdl/obds/smart_device_rev_a/obj/apps/obds/src/tests/audio_ssi_test.o
                                0xa58 (size before relaxing)
 .debug_str     0x0000186e      0x1bb /home/leon/git/swp-report/iMX6_Platform_SDK/output/mx6sdl/obds/smart_device_rev_a/obj/apps/obds/src/tests/ddr_test.o
                                0x357 (size before relaxing)
 .debug_str     0x00001a29       0xc4 /home/leon/git/swp-report/iMX6_Platform_SDK/output/mx6sdl/obds/smart_device_rev_a/obj/apps/obds/src/tests/deserializer_ds90ur124.o
                                0x290 (size before relaxing)
 .debug_str     0x00001aed      0x50a /home/leon/git/swp-report/iMX6_Platform_SDK/output/mx6sdl/obds/smart_device_rev_a/obj/apps/obds/src/tests/display_test.o
                                0xb45 (size before relaxing)
 .debug_str     0x00001ff7      0xe78 /home/leon/git/swp-report/iMX6_Platform_SDK/output/mx6sdl/obds/smart_device_rev_a/obj/apps/obds/src/tests/enet_mx6dldq_test.o
                               0x10d8 (size before relaxing)
 .debug_str     0x00002e6f       0x80 /home/leon/git/swp-report/iMX6_Platform_SDK/output/mx6sdl/obds/smart_device_rev_a/obj/apps/obds/src/tests/flexcan_test.o
                                0x1f1 (size before relaxing)
 .debug_str     0x00002eef      0x12d /home/leon/git/swp-report/iMX6_Platform_SDK/output/mx6sdl/obds/smart_device_rev_a/obj/apps/obds/src/tests/fm_tuner_si476x_test.o
                                0x2fd (size before relaxing)
 .debug_str     0x0000301c       0xe7 /home/leon/git/swp-report/iMX6_Platform_SDK/output/mx6sdl/obds/smart_device_rev_a/obj/apps/obds/src/tests/gpio_led.o
                                0x64b (size before relaxing)
 .debug_str     0x00003103       0x72 /home/leon/git/swp-report/iMX6_Platform_SDK/output/mx6sdl/obds/smart_device_rev_a/obj/apps/obds/src/tests/gps_test.o
                                0x28e (size before relaxing)
 .debug_str     0x00003175      0x1bb /home/leon/git/swp-report/iMX6_Platform_SDK/output/mx6sdl/obds/smart_device_rev_a/obj/apps/obds/src/tests/i2c_check_light_sensor_isl29023.o
                                0x83b (size before relaxing)
 .debug_str     0x00003330       0xd8 /home/leon/git/swp-report/iMX6_Platform_SDK/output/mx6sdl/obds/smart_device_rev_a/obj/apps/obds/src/tests/i2c_device_barometer_ppl3115.o
                                0x42a (size before relaxing)
 .debug_str     0x00003408       0x96 /home/leon/git/swp-report/iMX6_Platform_SDK/output/mx6sdl/obds/smart_device_rev_a/obj/apps/obds/src/tests/i2c_device_check_cs42888.o
                                0x57b (size before relaxing)
 .debug_str     0x0000349e       0xa8 /home/leon/git/swp-report/iMX6_Platform_SDK/output/mx6sdl/obds/smart_device_rev_a/obj/apps/obds/src/tests/i2c_device_digital_compass_mag3110.o
                                0x41b (size before relaxing)
 .debug_str     0x00003546       0xb4 /home/leon/git/swp-report/iMX6_Platform_SDK/output/mx6sdl/obds/smart_device_rev_a/obj/apps/obds/src/tests/i2c_device_digital_compass_mag3112.o
                                0x41b (size before relaxing)
 .debug_str     0x000035fa      0x139 /home/leon/git/swp-report/iMX6_Platform_SDK/output/mx6sdl/obds/smart_device_rev_a/obj/apps/obds/src/tests/i2c_device_id_check_mma8450.o
                                0x852 (size before relaxing)
 .debug_str     0x00003733       0xd5 /home/leon/git/swp-report/iMX6_Platform_SDK/output/mx6sdl/obds/smart_device_rev_a/obj/apps/obds/src/tests/i2c_device_id_check_mma8451.o
                                0x852 (size before relaxing)
 .debug_str     0x00003808      0x11f /home/leon/git/swp-report/iMX6_Platform_SDK/output/mx6sdl/obds/smart_device_rev_a/obj/apps/obds/src/tests/i2c_device_id_check_p1003_tsc.o
                                0x781 (size before relaxing)
 .debug_str     0x00003927      0x1c5 /home/leon/git/swp-report/iMX6_Platform_SDK/output/mx6sdl/obds/smart_device_rev_a/obj/apps/obds/src/tests/i2c_device_temp_sensor_emc1046.o
                                0x521 (size before relaxing)
 .debug_str     0x00003aec       0xba /home/leon/git/swp-report/iMX6_Platform_SDK/output/mx6sdl/obds/smart_device_rev_a/obj/apps/obds/src/tests/i2c_device_zigbee_mc1323.o
                                0x3c6 (size before relaxing)
 .debug_str     0x00003ba6       0xb7 /home/leon/git/swp-report/iMX6_Platform_SDK/output/mx6sdl/obds/smart_device_rev_a/obj/apps/obds/src/tests/i2c_eeprom_at24cxx_test.o
                                0x30f (size before relaxing)
 .debug_str     0x00003c5d      0x19a /home/leon/git/swp-report/iMX6_Platform_SDK/output/mx6sdl/obds/smart_device_rev_a/obj/apps/obds/src/tests/imx_spi_nor_test.o
                                0x34e (size before relaxing)
 .debug_str     0x00003df7       0xef /home/leon/git/swp-report/iMX6_Platform_SDK/output/mx6sdl/obds/smart_device_rev_a/obj/apps/obds/src/tests/mlb_os81050.o
                                0x32f (size before relaxing)
 .debug_str     0x00003ee6       0xa1 /home/leon/git/swp-report/iMX6_Platform_SDK/output/mx6sdl/obds/smart_device_rev_a/obj/apps/obds/src/tests/mmcsd_test.o
                                0x23e (size before relaxing)
 .debug_str     0x00003f87       0xae /home/leon/git/swp-report/iMX6_Platform_SDK/output/mx6sdl/obds/smart_device_rev_a/obj/apps/obds/src/tests/pmic_da9053.o
                                0x2ff (size before relaxing)
 .debug_str     0x00004035      0x115 /home/leon/git/swp-report/iMX6_Platform_SDK/output/mx6sdl/obds/smart_device_rev_a/obj/apps/obds/src/tests/pmic_lt3589.o
                                0x72d (size before relaxing)
 .debug_str     0x0000414a       0xe8 /home/leon/git/swp-report/iMX6_Platform_SDK/output/mx6sdl/obds/smart_device_rev_a/obj/apps/obds/src/tests/pmic_max17135.o
                                0x336 (size before relaxing)
 .debug_str     0x00004232       0xda /home/leon/git/swp-report/iMX6_Platform_SDK/output/mx6sdl/obds/smart_device_rev_a/obj/apps/obds/src/tests/pmic_mc13892.o
                                0x255 (size before relaxing)
 .debug_str     0x0000430c       0xad /home/leon/git/swp-report/iMX6_Platform_SDK/output/mx6sdl/obds/smart_device_rev_a/obj/apps/obds/src/tests/program_board_id.o
                                0x36f (size before relaxing)
 .debug_str     0x000043b9      0x180 /home/leon/git/swp-report/iMX6_Platform_SDK/output/mx6sdl/obds/smart_device_rev_a/obj/apps/obds/src/tests/program_mac_address.o
                                0x764 (size before relaxing)
 .debug_str     0x00004539      0x285 /home/leon/git/swp-report/iMX6_Platform_SDK/output/mx6sdl/obds/smart_device_rev_a/obj/apps/obds/src/tests/snvs_srtc_test.o
                                0x46a (size before relaxing)
 .debug_str     0x000047be       0xf2 /home/leon/git/swp-report/iMX6_Platform_SDK/output/mx6sdl/obds/smart_device_rev_a/obj/apps/obds/src/tests/touch_button_test.o
                                0x717 (size before relaxing)
 .debug_str     0x000048b0       0xdc /home/leon/git/swp-report/iMX6_Platform_SDK/output/mx6sdl/obds/smart_device_rev_a/obj/apps/obds/src/tests/touch_screen.o
                                0x70c (size before relaxing)
 .debug_str     0x0000498c      0x137 /home/leon/git/swp-report/iMX6_Platform_SDK/output/mx6sdl/obds/smart_device_rev_a/obj/apps/obds/src/tests/touch_screen_max11801.o
                                0x855 (size before relaxing)
 .debug_str     0x00004ac3      0x61b /home/leon/git/swp-report/iMX6_Platform_SDK/output/mx6sdl/obds/smart_device_rev_a/obj/apps/obds/src/tests/usb_tests_obds.o
                                0x7cd (size before relaxing)
 .debug_str     0x000050de       0x95 /home/leon/git/swp-report/iMX6_Platform_SDK/output/mx6sdl/obds/smart_device_rev_a/obj/apps/obds/src/tests/video_dec_ARD_MB_reset_button.o
                                0x212 (size before relaxing)
 .debug_str     0x00005173       0xa5 /home/leon/git/swp-report/iMX6_Platform_SDK/output/mx6sdl/obds/smart_device_rev_a/obj/apps/obds/src/tests/video_dec_ARD_MBrst_from_cpu_expander.o
                                0x21d (size before relaxing)
 .debug_str     0x00005218      0x141 /home/leon/git/swp-report/iMX6_Platform_SDK/output/mx6sdl/obds/smart_device_rev_a/obj/apps/obds/src/tests/video_dec_adv7180.o
                                0x753 (size before relaxing)
 .debug_str     0x00005359       0xc8 /home/leon/git/swp-report/iMX6_Platform_SDK/output/mx6sdl/obds/smart_device_rev_a/obj/apps/obds/src/tests/weim_nor_flash_test.o
                                0x250 (size before relaxing)
 .debug_str     0x00005421      0x109 /home/leon/git/swp-report/iMX6_Platform_SDK/output/mx6sdl/obds/smart_device_rev_a/obj/sdk/common/ioexpander/test/max7310_test.o
                                0x303 (size before relaxing)
 .debug_str     0x0000552a      0x172 /home/leon/git/swp-report/iMX6_Platform_SDK/output/mx6sdl/obds/smart_device_rev_a/obj/sdk/common/pmic/pfuse/pf0100.o
                                0x3ab (size before relaxing)
 .debug_str     0x0000569c      0x1a0 /home/leon/git/swp-report/iMX6_Platform_SDK/output/mx6sdl/obds/smart_device_rev_a/obj/sdk/drivers/audio/src/snd_card.o
                                0x5fb (size before relaxing)
 .debug_str     0x0000583c       0xe5 /home/leon/git/swp-report/iMX6_Platform_SDK/output/mx6sdl/obds/smart_device_rev_a/obj/sdk/drivers/camera/test/camera_test.o
                                0x5f7 (size before relaxing)
 .debug_str     0x00005921       0xee /home/leon/git/swp-report/iMX6_Platform_SDK/output/mx6sdl/obds/smart_device_rev_a/obj/sdk/drivers/camera/test/csi_test_mode.o
                                0x784 (size before relaxing)
 .debug_str     0x00005a0f      0x145 /home/leon/git/swp-report/iMX6_Platform_SDK/output/mx6sdl/obds/smart_device_rev_a/obj/sdk/drivers/camera/test/sensor_capture.o
                                0x8a3 (size before relaxing)
 .debug_str     0x00005b54      0x15a /home/leon/git/swp-report/iMX6_Platform_SDK/output/mx6sdl/obds/smart_device_rev_a/obj/sdk/drivers/epdc/test/epdc_test.o
                                0x675 (size before relaxing)
 .debug_str     0x00005cae     0x12e5 /home/leon/git/swp-report/iMX6_Platform_SDK/output/mx6sdl/obds/smart_device_rev_a/obj/sdk/drivers/hdmi/test/hdmi_test.o
                               0x1613 (size before relaxing)
 .debug_str     0x00006f93      0x13f /home/leon/git/swp-report/iMX6_Platform_SDK/output/mx6sdl/obds/smart_device_rev_a/obj/sdk/drivers/hdmi/test/init_dma_data.o
                                0x2b0 (size before relaxing)
 .debug_str     0x000070d2      0x239 /home/leon/git/swp-report/iMX6_Platform_SDK/output/mx6sdl/obds/smart_device_rev_a/obj/sdk/drivers/ipu/test/ips_display.o
                                0x92c (size before relaxing)
 .debug_str     0x0000730b      0x108 /home/leon/git/swp-report/iMX6_Platform_SDK/output/mx6sdl/obds/smart_device_rev_a/obj/sdk/drivers/ipu/test/ipu_image.o
                                0x33d (size before relaxing)
 .debug_str     0x00007413      0x1c4 /home/leon/git/swp-report/iMX6_Platform_SDK/output/mx6sdl/obds/smart_device_rev_a/obj/sdk/drivers/spi/test/imx_spi_nor_atmel.o
                                0x31f (size before relaxing)
 .debug_str     0x000075d7      0x115 /home/leon/git/swp-report/iMX6_Platform_SDK/output/mx6sdl/obds/smart_device_rev_a/obj/sdk/drivers/spi/test/spi_nor_numonyx.o
                                0x2af (size before relaxing)
 .debug_str     0x000076ec       0xfc /home/leon/git/swp-report/iMX6_Platform_SDK/output/mx6sdl/obds/smart_device_rev_a/obj/sdk/drivers/uart/test/uart_test.o
                                0x6aa (size before relaxing)
 .debug_str     0x000077e8      0x3bd /home/leon/git/swp-report/iMX6_Platform_SDK/output/mx6sdl/obds/smart_device_rev_a/obj/sdk/drivers/usb/test/usb0_host_test.o
                                0xa0b (size before relaxing)
 .debug_str     0x00007ba5       0x84 /home/leon/git/swp-report/iMX6_Platform_SDK/output/mx6sdl/obds/smart_device_rev_a/obj/sdk/drivers/usb/test/usb0_host_testmodes_test.o
                                0x370 (size before relaxing)
 .debug_str     0x00007c29      0x1aa /home/leon/git/swp-report/iMX6_Platform_SDK/output/mx6sdl/obds/smart_device_rev_a/obj/sdk/drivers/usdhc/test/usdhc_test.o
                                0x6cf (size before relaxing)
 .debug_str     0x00007dd3       0xfd /home/leon/git/swp-report/iMX6_Platform_SDK/output/mx6sdl/lib/libsdk.a(max7310.o)
                                0x2ab (size before relaxing)
 .debug_str     0x00007ed0      0xe22 /home/leon/git/swp-report/iMX6_Platform_SDK/output/mx6sdl/lib/libsdk.a(ccm_pll.o)
                               0x109a (size before relaxing)
 .debug_str     0x00008cf2      0x495 /home/leon/git/swp-report/iMX6_Platform_SDK/output/mx6sdl/lib/libsdk.a(gic.o)
                                0x5f2 (size before relaxing)
 .debug_str     0x00009187       0xd7 /home/leon/git/swp-report/iMX6_Platform_SDK/output/mx6sdl/lib/libsdk.a(interrupt.o)
                                0xc85 (size before relaxing)
 .debug_str     0x0000925e      0x1a8 /home/leon/git/swp-report/iMX6_Platform_SDK/output/mx6sdl/lib/libsdk.a(mmu.o)
                                0x35e (size before relaxing)
 .debug_str     0x00009406      0x227 /home/leon/git/swp-report/iMX6_Platform_SDK/output/mx6sdl/lib/libsdk.a(menu.o)
                                0x85d (size before relaxing)
 .debug_str     0x0000962d       0x4a /home/leon/git/swp-report/iMX6_Platform_SDK/output/mx6sdl/lib/libsdk.a(sdk_version.o)
                                 0x82 (size before relaxing)
 .debug_str     0x00009677      0x10f /home/leon/git/swp-report/iMX6_Platform_SDK/output/mx6sdl/lib/libsdk.a(system_util.o)
                                0x7ac (size before relaxing)
 .debug_str     0x00009786      0x14a /home/leon/git/swp-report/iMX6_Platform_SDK/output/mx6sdl/lib/libsdk.a(text_color.o)
                                0x305 (size before relaxing)
 .debug_str     0x000098d0       0xed /home/leon/git/swp-report/iMX6_Platform_SDK/output/mx6sdl/lib/libsdk.a(cs42888.o)
                                0x59a (size before relaxing)
 .debug_str     0x000099bd      0x9af /home/leon/git/swp-report/iMX6_Platform_SDK/output/mx6sdl/lib/libsdk.a(imx-ssi.o)
                                0xe07 (size before relaxing)
 .debug_str     0x0000a36c      0x44e /home/leon/git/swp-report/iMX6_Platform_SDK/output/mx6sdl/lib/libsdk.a(imx_audmux.o)
                                0x5e8 (size before relaxing)
 .debug_str     0x0000a7ba      0x7af /home/leon/git/swp-report/iMX6_Platform_SDK/output/mx6sdl/lib/libsdk.a(imx_esai.o)
                                0xc28 (size before relaxing)
 .debug_str     0x0000af69      0x81f /home/leon/git/swp-report/iMX6_Platform_SDK/output/mx6sdl/lib/libsdk.a(imx_spdif.o)
                                0xcb0 (size before relaxing)
 .debug_str     0x0000b788      0x17a /home/leon/git/swp-report/iMX6_Platform_SDK/output/mx6sdl/lib/libsdk.a(sgtl5000.o)
                                0x675 (size before relaxing)
 .debug_str     0x0000b902      0x171 /home/leon/git/swp-report/iMX6_Platform_SDK/output/mx6sdl/lib/libsdk.a(wm8958_dac.o)
                                0x623 (size before relaxing)
 .debug_str     0x0000ba73      0x124 /home/leon/git/swp-report/iMX6_Platform_SDK/output/mx6sdl/lib/libsdk.a(wm8962.o)
                                0x5d6 (size before relaxing)
 .debug_str     0x0000bb97      0x204 /home/leon/git/swp-report/iMX6_Platform_SDK/output/mx6sdl/lib/libsdk.a(board_id.o)
                                0x3d2 (size before relaxing)
 .debug_str     0x0000bd9b      0x260 /home/leon/git/swp-report/iMX6_Platform_SDK/output/mx6sdl/lib/libsdk.a(smd_sensor.o)
                                0x524 (size before relaxing)
 .debug_str     0x0000bffb      0x2ba /home/leon/git/swp-report/iMX6_Platform_SDK/output/mx6sdl/lib/libsdk.a(enet_drv.o)
                               0x1153 (size before relaxing)
 .debug_str     0x0000c2b5     0x1059 /home/leon/git/swp-report/iMX6_Platform_SDK/output/mx6sdl/lib/libsdk.a(mxc_epdc.o)
                               0x1195 (size before relaxing)
 .debug_str     0x0000d30e      0x36d /home/leon/git/swp-report/iMX6_Platform_SDK/output/mx6sdl/lib/libsdk.a(gpio.o)
                                0x48b (size before relaxing)
 .debug_str     0x0000d67b       0x54 /home/leon/git/swp-report/iMX6_Platform_SDK/output/mx6sdl/lib/libsdk.a(imx6sdl_gpio_map.o)
                                0x10b (size before relaxing)
 .debug_str     0x0000d6cf     0x1b0d /home/leon/git/swp-report/iMX6_Platform_SDK/output/mx6sdl/lib/libsdk.a(hdmi_tx.o)
                               0x1f81 (size before relaxing)
 .debug_str     0x0000f1dc      0xb79 /home/leon/git/swp-report/iMX6_Platform_SDK/output/mx6sdl/lib/libsdk.a(hdmi_tx_audio.o)
                                0xd5b (size before relaxing)
 .debug_str     0x0000fd55      0x8d9 /home/leon/git/swp-report/iMX6_Platform_SDK/output/mx6sdl/lib/libsdk.a(hdmi_tx_phy.o)
                                0xa56 (size before relaxing)
 .debug_str     0x0001062e      0x2f6 /home/leon/git/swp-report/iMX6_Platform_SDK/output/mx6sdl/lib/libsdk.a(imx_i2c.o)
                               0x1099 (size before relaxing)
 .debug_str     0x00010924      0x3e3 /home/leon/git/swp-report/iMX6_Platform_SDK/output/mx6sdl/lib/libsdk.a(ips_disp_panel.o)
                                0x66a (size before relaxing)
 .debug_str     0x00010d07      0x522 /home/leon/git/swp-report/iMX6_Platform_SDK/output/mx6sdl/lib/libsdk.a(ipu_common.o)
                                0xa48 (size before relaxing)
 .debug_str     0x00011229      0x238 /home/leon/git/swp-report/iMX6_Platform_SDK/output/mx6sdl/lib/libsdk.a(ipu_csi.o)
                                0x430 (size before relaxing)
 .debug_str     0x00011461      0x225 /home/leon/git/swp-report/iMX6_Platform_SDK/output/mx6sdl/lib/libsdk.a(ipu_dc.o)
                                0x442 (size before relaxing)
 .debug_str     0x00011686      0x29f /home/leon/git/swp-report/iMX6_Platform_SDK/output/mx6sdl/lib/libsdk.a(ipu_di.o)
                                0x4f1 (size before relaxing)
 .debug_str     0x00011925       0x7b /home/leon/git/swp-report/iMX6_Platform_SDK/output/mx6sdl/lib/libsdk.a(ipu_dmfc.o)
                                0x399 (size before relaxing)
 .debug_str     0x000119a0       0x9e /home/leon/git/swp-report/iMX6_Platform_SDK/output/mx6sdl/lib/libsdk.a(ipu_dp.o)
                                0x1e2 (size before relaxing)
 .debug_str     0x00011a3e      0x37f /home/leon/git/swp-report/iMX6_Platform_SDK/output/mx6sdl/lib/libsdk.a(ipu_idmac.o)
                                0x88f (size before relaxing)
 .debug_str     0x00011dbd      0x2f8 /home/leon/git/swp-report/iMX6_Platform_SDK/output/mx6sdl/lib/libsdk.a(ipu_vdi.o)
                                0x942 (size before relaxing)
 .debug_str     0x000120b5      0x1a4 /home/leon/git/swp-report/iMX6_Platform_SDK/output/mx6sdl/lib/libsdk.a(ldb.o)
                                0x415 (size before relaxing)
 .debug_str     0x00012259      0x2df /home/leon/git/swp-report/iMX6_Platform_SDK/output/mx6sdl/lib/libsdk.a(ocotp.o)
                                0x3d6 (size before relaxing)
 .debug_str     0x00012538      0x2e1 /home/leon/git/swp-report/iMX6_Platform_SDK/output/mx6sdl/lib/libsdk.a(ecspi.o)
                                0x4a7 (size before relaxing)
 .debug_str     0x00012819      0x2bd /home/leon/git/swp-report/iMX6_Platform_SDK/output/mx6sdl/lib/libsdk.a(timer.o)
                                0x3f8 (size before relaxing)
 .debug_str     0x00012ad6      0x53f /home/leon/git/swp-report/iMX6_Platform_SDK/output/mx6sdl/lib/libsdk.a(imx_uart.o)
                               0x12ee (size before relaxing)
 .debug_str     0x00013015       0xca /home/leon/git/swp-report/iMX6_Platform_SDK/output/mx6sdl/lib/libsdk.a(usb_common.o)
                                0x79d (size before relaxing)
 .debug_str     0x000130df      0x581 /home/leon/git/swp-report/iMX6_Platform_SDK/output/mx6sdl/lib/libsdk.a(usbh_drv.o)
                                0xaab (size before relaxing)
 .debug_str     0x00013660      0x55e /home/leon/git/swp-report/iMX6_Platform_SDK/output/mx6sdl/lib/libsdk.a(usdhc.o)
                               0x1201 (size before relaxing)
 .debug_str     0x00013bbe      0xb3c /home/leon/git/swp-report/iMX6_Platform_SDK/output/mx6sdl/lib/libsdk.a(usdhc_host.o)
                                0xfad (size before relaxing)
 .debug_str     0x000146fa      0x224 /home/leon/git/swp-report/iMX6_Platform_SDK/output/mx6sdl/lib/libsdk.a(usdhc_mmc.o)
                                0x72e (size before relaxing)
 .debug_str     0x0001491e       0xae /home/leon/git/swp-report/iMX6_Platform_SDK/output/mx6sdl/lib/libsdk.a(usdhc_sd.o)
                                0x58d (size before relaxing)
 .debug_str     0x000149cc      0x1ea /home/leon/git/swp-report/iMX6_Platform_SDK/output/mx6sdl/lib/libsdk.a(armv7_cache.o)
                                0x2aa (size before relaxing)
 .debug_str     0x00014bb6      0x1c6 /home/leon/git/swp-report/iMX6_Platform_SDK/output/mx6sdl/lib/libsdk.a(camera_profile.o)
                                0x4be (size before relaxing)
 .debug_str     0x00014d7c       0xbd /home/leon/git/swp-report/iMX6_Platform_SDK/output/mx6sdl/lib/libsdk.a(hdmi_common.o)
                                0x39d (size before relaxing)
 .debug_str     0x00014e39      0x2ba /home/leon/git/swp-report/iMX6_Platform_SDK/output/mx6sdl/lib/libsdk.a(ipu_ic.o)
                                0x581 (size before relaxing)
 .debug_str     0x000150f3      0x27c /home/leon/git/swp-report/iMX6_Platform_SDK/output/mx6sdl/lib/libsdk.a(epit.o)
                                0xf06 (size before relaxing)
 .debug_str     0x0001536f      0x1b0 /home/leon/git/swp-report/iMX6_Platform_SDK/output/mx6sdl/lib/libsdk.a(mx6x_usb.o)
                                0x3df (size before relaxing)
 .debug_str     0x0001551f       0xbc /home/leon/git/swp-report/iMX6_Platform_SDK/output/mx6sdl/lib/libsdk.a(abort_handler.o)
                                0x1a1 (size before relaxing)
 .debug_str     0x000155db      0x239 /home/leon/git/swp-report/iMX6_Platform_SDK/output/mx6sdl/lib/libboard_smart_device_rev_a.a(board_audio.o)
                                0x40c (size before relaxing)
 .debug_str     0x00015814      0x2bc /home/leon/git/swp-report/iMX6_Platform_SDK/output/mx6sdl/lib/libboard_smart_device_rev_a.a(board_buttons.o)
                                0x41c (size before relaxing)
 .debug_str     0x00015ad0      0xe8c /home/leon/git/swp-report/iMX6_Platform_SDK/output/mx6sdl/lib/libboard_smart_device_rev_a.a(board_camera.o)
                               0x1166 (size before relaxing)
 .debug_str     0x0001695c      0x1a6 /home/leon/git/swp-report/iMX6_Platform_SDK/output/mx6sdl/lib/libboard_smart_device_rev_a.a(board_display.o)
                                0x58e (size before relaxing)
 .debug_str     0x00016b02      0x5ff /home/leon/git/swp-report/iMX6_Platform_SDK/output/mx6sdl/lib/libboard_smart_device_rev_a.a(board_hdmi.o)
                                0x8bf (size before relaxing)
 .debug_str     0x00017101       0x5a /home/leon/git/swp-report/iMX6_Platform_SDK/output/mx6sdl/lib/libboard_smart_device_rev_a.a(board_i2c.o)
                                0x29f (size before relaxing)
 .debug_str     0x0001715b       0x82 /home/leon/git/swp-report/iMX6_Platform_SDK/output/mx6sdl/lib/libboard_smart_device_rev_a.a(board_io_expanders.o)
                                0x240 (size before relaxing)
 .debug_str     0x000171dd      0x2f0 /home/leon/git/swp-report/iMX6_Platform_SDK/output/mx6sdl/lib/libboard_smart_device_rev_a.a(board_mipi.o)
                                0x6de (size before relaxing)
 .debug_str     0x000174cd       0xa1 /home/leon/git/swp-report/iMX6_Platform_SDK/output/mx6sdl/lib/libboard_smart_device_rev_a.a(board_network.o)
                                0x1d5 (size before relaxing)
 .debug_str     0x0001756e       0x70 /home/leon/git/swp-report/iMX6_Platform_SDK/output/mx6sdl/lib/libboard_smart_device_rev_a.a(board_usb.o)
                                0x231 (size before relaxing)
 .debug_str     0x000175de       0x83 /home/leon/git/swp-report/iMX6_Platform_SDK/output/mx6sdl/lib/libboard_smart_device_rev_a.a(board_usdhc.o)
                                0x1d1 (size before relaxing)
 .debug_str     0x00017661       0x4c /home/leon/git/swp-report/iMX6_Platform_SDK/output/mx6sdl/lib/libboard_smart_device_rev_a.a(hardware_modules.o)
                                0x152 (size before relaxing)
 .debug_str     0x000176ad       0xb3 /home/leon/git/swp-report/iMX6_Platform_SDK/output/mx6sdl/lib/libboard_smart_device_rev_a.a(dcd.o)
                                0x162 (size before relaxing)
 .debug_str     0x00017760      0x464 /home/leon/git/swp-report/iMX6_Platform_SDK/output/mx6sdl/lib/libboard_smart_device_rev_a.a(audmux_iomux_config.o)
                                0x4e1 (size before relaxing)
 .debug_str     0x00017bc4       0x76 /home/leon/git/swp-report/iMX6_Platform_SDK/output/mx6sdl/lib/libboard_smart_device_rev_a.a(ccm_iomux_config.o)
                                0x1cf (size before relaxing)
 .debug_str     0x00017c3a       0xcc /home/leon/git/swp-report/iMX6_Platform_SDK/output/mx6sdl/lib/libboard_smart_device_rev_a.a(ecspi_iomux_config.o)
                                0x182 (size before relaxing)
 .debug_str     0x00017d06     0x136b /home/leon/git/swp-report/iMX6_Platform_SDK/output/mx6sdl/lib/libboard_smart_device_rev_a.a(enet_iomux_config.o)
                               0x13f8 (size before relaxing)
 .debug_str     0x00019071     0x2c5c /home/leon/git/swp-report/iMX6_Platform_SDK/output/mx6sdl/lib/libboard_smart_device_rev_a.a(epdc_iomux_config.o)
                               0x2e41 (size before relaxing)
 .debug_str     0x0001bccd       0x76 /home/leon/git/swp-report/iMX6_Platform_SDK/output/mx6sdl/lib/libboard_smart_device_rev_a.a(i2c_iomux_config.o)
                                0x17e (size before relaxing)
 .debug_str     0x0001bd43      0x33d /home/leon/git/swp-report/iMX6_Platform_SDK/output/mx6sdl/lib/libboard_smart_device_rev_a.a(iomux_config.o)
                                0x367 (size before relaxing)
 .debug_str     0x0001c080     0x1c9e /home/leon/git/swp-report/iMX6_Platform_SDK/output/mx6sdl/lib/libboard_smart_device_rev_a.a(ipu1_iomux_config.o)
                               0x285f (size before relaxing)
 .debug_str     0x0001dd1e       0x76 /home/leon/git/swp-report/iMX6_Platform_SDK/output/mx6sdl/lib/libboard_smart_device_rev_a.a(ipu_iomux_config.o)
                                0x17e (size before relaxing)
 .debug_str     0x0001dd94      0x994 /home/leon/git/swp-report/iMX6_Platform_SDK/output/mx6sdl/lib/libboard_smart_device_rev_a.a(kpp_iomux_config.o)
                                0xa85 (size before relaxing)
 .debug_str     0x0001e728     0x1de4 /home/leon/git/swp-report/iMX6_Platform_SDK/output/mx6sdl/lib/libboard_smart_device_rev_a.a(mmdc_iomux_config.o)
                               0x1e61 (size before relaxing)
 .debug_str     0x0002050c      0x166 /home/leon/git/swp-report/iMX6_Platform_SDK/output/mx6sdl/lib/libboard_smart_device_rev_a.a(pwm1_iomux_config.o)
                                0x1e3 (size before relaxing)
 .debug_str     0x00020672      0x334 /home/leon/git/swp-report/iMX6_Platform_SDK/output/mx6sdl/lib/libboard_smart_device_rev_a.a(sjc_iomux_config.o)
                                0x3a3 (size before relaxing)
 .debug_str     0x000209a6      0x2fa /home/leon/git/swp-report/iMX6_Platform_SDK/output/mx6sdl/lib/libboard_smart_device_rev_a.a(uart1_iomux_config.o)
                                0x37d (size before relaxing)
 .debug_str     0x00020ca0       0x78 /home/leon/git/swp-report/iMX6_Platform_SDK/output/mx6sdl/lib/libboard_smart_device_rev_a.a(uart_iomux_config.o)
                                0x180 (size before relaxing)
 .debug_str     0x00020d18      0x984 /home/leon/git/swp-report/iMX6_Platform_SDK/output/mx6sdl/lib/libboard_smart_device_rev_a.a(usdhc2_iomux_config.o)
                                0xaef (size before relaxing)
 .debug_str     0x0002169c      0xa3c /home/leon/git/swp-report/iMX6_Platform_SDK/output/mx6sdl/lib/libboard_smart_device_rev_a.a(usdhc3_iomux_config.o)
                                0xabf (size before relaxing)
 .debug_str     0x000220d8      0x94e /home/leon/git/swp-report/iMX6_Platform_SDK/output/mx6sdl/lib/libboard_smart_device_rev_a.a(usdhc4_iomux_config.o)
                                0xabf (size before relaxing)
 .debug_str     0x00022a26       0x7a /home/leon/git/swp-report/iMX6_Platform_SDK/output/mx6sdl/lib/libboard_smart_device_rev_a.a(usdhc_iomux_config.o)
                                0x182 (size before relaxing)
 .debug_str     0x00022aa0      0x60a /home/leon/git/swp-report/iMX6_Platform_SDK/output/mx6sdl/lib/libboard_smart_device_rev_a.a(ecspi1_iomux_config.o)
                                0x68d (size before relaxing)
 .debug_str     0x000230aa      0x2af /home/leon/git/swp-report/iMX6_Platform_SDK/output/mx6sdl/lib/libboard_smart_device_rev_a.a(flexcan1_iomux_config.o)
                                0x332 (size before relaxing)
 .debug_str     0x00023359      0xb02 /home/leon/git/swp-report/iMX6_Platform_SDK/output/mx6sdl/lib/libboard_smart_device_rev_a.a(gpio1_iomux_config.o)
                               0x10cb (size before relaxing)
 .debug_str     0x00023e5b      0x456 /home/leon/git/swp-report/iMX6_Platform_SDK/output/mx6sdl/lib/libboard_smart_device_rev_a.a(gpio2_iomux_config.o)
                                0xa5b (size before relaxing)
 .debug_str     0x000242b1      0x262 /home/leon/git/swp-report/iMX6_Platform_SDK/output/mx6sdl/lib/libboard_smart_device_rev_a.a(gpio3_iomux_config.o)
                               0x10d7 (size before relaxing)
 .debug_str     0x00024513      0x24a /home/leon/git/swp-report/iMX6_Platform_SDK/output/mx6sdl/lib/libboard_smart_device_rev_a.a(gpio4_iomux_config.o)
                                0x48b (size before relaxing)
 .debug_str     0x0002475d      0x162 /home/leon/git/swp-report/iMX6_Platform_SDK/output/mx6sdl/lib/libboard_smart_device_rev_a.a(gpio5_iomux_config.o)
                                0x2d3 (size before relaxing)
 .debug_str     0x000248bf      0x691 /home/leon/git/swp-report/iMX6_Platform_SDK/output/mx6sdl/lib/libboard_smart_device_rev_a.a(gpio6_iomux_config.o)
                                0x961 (size before relaxing)
 .debug_str     0x00024f50      0x320 /home/leon/git/swp-report/iMX6_Platform_SDK/output/mx6sdl/lib/libboard_smart_device_rev_a.a(gpio7_iomux_config.o)
                                0x39d (size before relaxing)
 .debug_str     0x00025270      0x102 /home/leon/git/swp-report/iMX6_Platform_SDK/output/mx6sdl/lib/libboard_smart_device_rev_a.a(gps_iomux_config.o)
                                0x62b (size before relaxing)
 .debug_str     0x00025372      0x35a /home/leon/git/swp-report/iMX6_Platform_SDK/output/mx6sdl/lib/libboard_smart_device_rev_a.a(i2c1_iomux_config.o)
                                0x3dd (size before relaxing)
 .debug_str     0x000256cc      0x166 /home/leon/git/swp-report/iMX6_Platform_SDK/output/mx6sdl/lib/libboard_smart_device_rev_a.a(i2c2_iomux_config.o)
                                0x3b9 (size before relaxing)
 .debug_str     0x00025832      0x31e /home/leon/git/swp-report/iMX6_Platform_SDK/output/mx6sdl/lib/libboard_smart_device_rev_a.a(i2c3_iomux_config.o)
                                0x3a1 (size before relaxing)
 .debug_str     0x00025b50      0x20a /home/leon/git/swp-report/iMX6_Platform_SDK/output/mx6sdl/lib/libsdk.a(runtime_support.o)
                                0x3ac (size before relaxing)

.debug_loc      0x00000000     0x976c
 .debug_loc     0x00000000       0x2c /home/leon/git/swp-report/iMX6_Platform_SDK/output/mx6sdl/obds/smart_device_rev_a/obj/apps/common/platform_init.o
 .debug_loc     0x0000002c       0x58 /home/leon/git/swp-report/iMX6_Platform_SDK/output/mx6sdl/obds/smart_device_rev_a/obj/apps/common/print_clock_info.o
 .debug_loc     0x00000084       0x2c /home/leon/git/swp-report/iMX6_Platform_SDK/output/mx6sdl/obds/smart_device_rev_a/obj/apps/common/print_version.o
 .debug_loc     0x000000b0      0x210 /home/leon/git/swp-report/iMX6_Platform_SDK/output/mx6sdl/obds/smart_device_rev_a/obj/apps/obds/src/obds.o
 .debug_loc     0x000002c0       0x2c /home/leon/git/swp-report/iMX6_Platform_SDK/output/mx6sdl/obds/smart_device_rev_a/obj/apps/obds/src/obds_utils.o
 .debug_loc     0x000002ec       0xb0 /home/leon/git/swp-report/iMX6_Platform_SDK/output/mx6sdl/obds/smart_device_rev_a/obj/apps/obds/src/tests/android_buttons_test.o
 .debug_loc     0x0000039c       0x2c /home/leon/git/swp-report/iMX6_Platform_SDK/output/mx6sdl/obds/smart_device_rev_a/obj/apps/obds/src/tests/audio_esai_test.o
 .debug_loc     0x000003c8       0x58 /home/leon/git/swp-report/iMX6_Platform_SDK/output/mx6sdl/obds/smart_device_rev_a/obj/apps/obds/src/tests/audio_ssi_test.o
 .debug_loc     0x00000420       0x58 /home/leon/git/swp-report/iMX6_Platform_SDK/output/mx6sdl/obds/smart_device_rev_a/obj/apps/obds/src/tests/ddr_test.o
 .debug_loc     0x00000478       0xb0 /home/leon/git/swp-report/iMX6_Platform_SDK/output/mx6sdl/obds/smart_device_rev_a/obj/apps/obds/src/tests/deserializer_ds90ur124.o
 .debug_loc     0x00000528       0xb0 /home/leon/git/swp-report/iMX6_Platform_SDK/output/mx6sdl/obds/smart_device_rev_a/obj/apps/obds/src/tests/display_test.o
 .debug_loc     0x000005d8      0x108 /home/leon/git/swp-report/iMX6_Platform_SDK/output/mx6sdl/obds/smart_device_rev_a/obj/apps/obds/src/tests/enet_mx6dldq_test.o
 .debug_loc     0x000006e0       0x2c /home/leon/git/swp-report/iMX6_Platform_SDK/output/mx6sdl/obds/smart_device_rev_a/obj/apps/obds/src/tests/flexcan_test.o
 .debug_loc     0x0000070c       0x84 /home/leon/git/swp-report/iMX6_Platform_SDK/output/mx6sdl/obds/smart_device_rev_a/obj/apps/obds/src/tests/fm_tuner_si476x_test.o
 .debug_loc     0x00000790       0x2c /home/leon/git/swp-report/iMX6_Platform_SDK/output/mx6sdl/obds/smart_device_rev_a/obj/apps/obds/src/tests/gpio_led.o
 .debug_loc     0x000007bc       0x2c /home/leon/git/swp-report/iMX6_Platform_SDK/output/mx6sdl/obds/smart_device_rev_a/obj/apps/obds/src/tests/gps_test.o
 .debug_loc     0x000007e8      0x108 /home/leon/git/swp-report/iMX6_Platform_SDK/output/mx6sdl/obds/smart_device_rev_a/obj/apps/obds/src/tests/i2c_check_light_sensor_isl29023.o
 .debug_loc     0x000008f0       0xb0 /home/leon/git/swp-report/iMX6_Platform_SDK/output/mx6sdl/obds/smart_device_rev_a/obj/apps/obds/src/tests/i2c_device_barometer_ppl3115.o
 .debug_loc     0x000009a0       0x2c /home/leon/git/swp-report/iMX6_Platform_SDK/output/mx6sdl/obds/smart_device_rev_a/obj/apps/obds/src/tests/i2c_device_check_cs42888.o
 .debug_loc     0x000009cc       0x58 /home/leon/git/swp-report/iMX6_Platform_SDK/output/mx6sdl/obds/smart_device_rev_a/obj/apps/obds/src/tests/i2c_device_digital_compass_mag3110.o
 .debug_loc     0x00000a24       0x58 /home/leon/git/swp-report/iMX6_Platform_SDK/output/mx6sdl/obds/smart_device_rev_a/obj/apps/obds/src/tests/i2c_device_digital_compass_mag3112.o
 .debug_loc     0x00000a7c      0x108 /home/leon/git/swp-report/iMX6_Platform_SDK/output/mx6sdl/obds/smart_device_rev_a/obj/apps/obds/src/tests/i2c_device_id_check_mma8450.o
 .debug_loc     0x00000b84      0x108 /home/leon/git/swp-report/iMX6_Platform_SDK/output/mx6sdl/obds/smart_device_rev_a/obj/apps/obds/src/tests/i2c_device_id_check_mma8451.o
 .debug_loc     0x00000c8c       0xdc /home/leon/git/swp-report/iMX6_Platform_SDK/output/mx6sdl/obds/smart_device_rev_a/obj/apps/obds/src/tests/i2c_device_id_check_p1003_tsc.o
 .debug_loc     0x00000d68      0x134 /home/leon/git/swp-report/iMX6_Platform_SDK/output/mx6sdl/obds/smart_device_rev_a/obj/apps/obds/src/tests/i2c_device_temp_sensor_emc1046.o
 .debug_loc     0x00000e9c       0xb0 /home/leon/git/swp-report/iMX6_Platform_SDK/output/mx6sdl/obds/smart_device_rev_a/obj/apps/obds/src/tests/i2c_device_zigbee_mc1323.o
 .debug_loc     0x00000f4c       0x84 /home/leon/git/swp-report/iMX6_Platform_SDK/output/mx6sdl/obds/smart_device_rev_a/obj/apps/obds/src/tests/i2c_eeprom_at24cxx_test.o
 .debug_loc     0x00000fd0       0xdc /home/leon/git/swp-report/iMX6_Platform_SDK/output/mx6sdl/obds/smart_device_rev_a/obj/apps/obds/src/tests/imx_spi_nor_test.o
 .debug_loc     0x000010ac       0xdc /home/leon/git/swp-report/iMX6_Platform_SDK/output/mx6sdl/obds/smart_device_rev_a/obj/apps/obds/src/tests/mlb_os81050.o
 .debug_loc     0x00001188       0x2c /home/leon/git/swp-report/iMX6_Platform_SDK/output/mx6sdl/obds/smart_device_rev_a/obj/apps/obds/src/tests/mmcsd_test.o
 .debug_loc     0x000011b4       0xb0 /home/leon/git/swp-report/iMX6_Platform_SDK/output/mx6sdl/obds/smart_device_rev_a/obj/apps/obds/src/tests/pmic_da9053.o
 .debug_loc     0x00001264      0x160 /home/leon/git/swp-report/iMX6_Platform_SDK/output/mx6sdl/obds/smart_device_rev_a/obj/apps/obds/src/tests/pmic_lt3589.o
 .debug_loc     0x000013c4       0xb0 /home/leon/git/swp-report/iMX6_Platform_SDK/output/mx6sdl/obds/smart_device_rev_a/obj/apps/obds/src/tests/pmic_max17135.o
 .debug_loc     0x00001474      0x108 /home/leon/git/swp-report/iMX6_Platform_SDK/output/mx6sdl/obds/smart_device_rev_a/obj/apps/obds/src/tests/pmic_mc13892.o
 .debug_loc     0x0000157c       0x84 /home/leon/git/swp-report/iMX6_Platform_SDK/output/mx6sdl/obds/smart_device_rev_a/obj/apps/obds/src/tests/program_board_id.o
 .debug_loc     0x00001600       0xdc /home/leon/git/swp-report/iMX6_Platform_SDK/output/mx6sdl/obds/smart_device_rev_a/obj/apps/obds/src/tests/program_mac_address.o
 .debug_loc     0x000016dc       0x2c /home/leon/git/swp-report/iMX6_Platform_SDK/output/mx6sdl/obds/smart_device_rev_a/obj/apps/obds/src/tests/snvs_srtc_test.o
 .debug_loc     0x00001708       0xdc /home/leon/git/swp-report/iMX6_Platform_SDK/output/mx6sdl/obds/smart_device_rev_a/obj/apps/obds/src/tests/touch_button_test.o
 .debug_loc     0x000017e4      0x134 /home/leon/git/swp-report/iMX6_Platform_SDK/output/mx6sdl/obds/smart_device_rev_a/obj/apps/obds/src/tests/touch_screen.o
 .debug_loc     0x00001918      0x18c /home/leon/git/swp-report/iMX6_Platform_SDK/output/mx6sdl/obds/smart_device_rev_a/obj/apps/obds/src/tests/touch_screen_max11801.o
 .debug_loc     0x00001aa4       0x84 /home/leon/git/swp-report/iMX6_Platform_SDK/output/mx6sdl/obds/smart_device_rev_a/obj/apps/obds/src/tests/usb_tests_obds.o
 .debug_loc     0x00001b28       0x2c /home/leon/git/swp-report/iMX6_Platform_SDK/output/mx6sdl/obds/smart_device_rev_a/obj/apps/obds/src/tests/video_dec_ARD_MB_reset_button.o
 .debug_loc     0x00001b54       0x2c /home/leon/git/swp-report/iMX6_Platform_SDK/output/mx6sdl/obds/smart_device_rev_a/obj/apps/obds/src/tests/video_dec_ARD_MBrst_from_cpu_expander.o
 .debug_loc     0x00001b80      0x134 /home/leon/git/swp-report/iMX6_Platform_SDK/output/mx6sdl/obds/smart_device_rev_a/obj/apps/obds/src/tests/video_dec_adv7180.o
 .debug_loc     0x00001cb4       0xb0 /home/leon/git/swp-report/iMX6_Platform_SDK/output/mx6sdl/obds/smart_device_rev_a/obj/apps/obds/src/tests/weim_nor_flash_test.o
 .debug_loc     0x00001d64       0x2c /home/leon/git/swp-report/iMX6_Platform_SDK/output/mx6sdl/obds/smart_device_rev_a/obj/sdk/common/ioexpander/test/max7310_test.o
 .debug_loc     0x00001d90      0x18c /home/leon/git/swp-report/iMX6_Platform_SDK/output/mx6sdl/obds/smart_device_rev_a/obj/sdk/common/pmic/pfuse/pf0100.o
 .debug_loc     0x00001f1c      0x108 /home/leon/git/swp-report/iMX6_Platform_SDK/output/mx6sdl/obds/smart_device_rev_a/obj/sdk/drivers/audio/src/snd_card.o
 .debug_loc     0x00002024       0x2c /home/leon/git/swp-report/iMX6_Platform_SDK/output/mx6sdl/obds/smart_device_rev_a/obj/sdk/drivers/camera/test/camera_test.o
 .debug_loc     0x00002050       0x2c /home/leon/git/swp-report/iMX6_Platform_SDK/output/mx6sdl/obds/smart_device_rev_a/obj/sdk/drivers/camera/test/csi_test_mode.o
 .debug_loc     0x0000207c       0x2c /home/leon/git/swp-report/iMX6_Platform_SDK/output/mx6sdl/obds/smart_device_rev_a/obj/sdk/drivers/camera/test/sensor_capture.o
 .debug_loc     0x000020a8      0x108 /home/leon/git/swp-report/iMX6_Platform_SDK/output/mx6sdl/obds/smart_device_rev_a/obj/sdk/drivers/epdc/test/epdc_test.o
 .debug_loc     0x000021b0       0xdc /home/leon/git/swp-report/iMX6_Platform_SDK/output/mx6sdl/obds/smart_device_rev_a/obj/sdk/drivers/hdmi/test/hdmi_test.o
 .debug_loc     0x0000228c       0x2c /home/leon/git/swp-report/iMX6_Platform_SDK/output/mx6sdl/obds/smart_device_rev_a/obj/sdk/drivers/hdmi/test/init_dma_data.o
 .debug_loc     0x000022b8      0x134 /home/leon/git/swp-report/iMX6_Platform_SDK/output/mx6sdl/obds/smart_device_rev_a/obj/sdk/drivers/ipu/test/ips_display.o
 .debug_loc     0x000023ec       0xdc /home/leon/git/swp-report/iMX6_Platform_SDK/output/mx6sdl/obds/smart_device_rev_a/obj/sdk/drivers/ipu/test/ipu_image.o
 .debug_loc     0x000024c8      0x134 /home/leon/git/swp-report/iMX6_Platform_SDK/output/mx6sdl/obds/smart_device_rev_a/obj/sdk/drivers/spi/test/imx_spi_nor_atmel.o
 .debug_loc     0x000025fc      0x160 /home/leon/git/swp-report/iMX6_Platform_SDK/output/mx6sdl/obds/smart_device_rev_a/obj/sdk/drivers/spi/test/spi_nor_numonyx.o
 .debug_loc     0x0000275c       0x58 /home/leon/git/swp-report/iMX6_Platform_SDK/output/mx6sdl/obds/smart_device_rev_a/obj/sdk/drivers/uart/test/uart_test.o
 .debug_loc     0x000027b4      0x160 /home/leon/git/swp-report/iMX6_Platform_SDK/output/mx6sdl/obds/smart_device_rev_a/obj/sdk/drivers/usb/test/usb0_host_test.o
 .debug_loc     0x00002914       0x2c /home/leon/git/swp-report/iMX6_Platform_SDK/output/mx6sdl/obds/smart_device_rev_a/obj/sdk/drivers/usb/test/usb0_host_testmodes_test.o
 .debug_loc     0x00002940      0x1e4 /home/leon/git/swp-report/iMX6_Platform_SDK/output/mx6sdl/obds/smart_device_rev_a/obj/sdk/drivers/usdhc/test/usdhc_test.o
 .debug_loc     0x00002b24       0xb0 /home/leon/git/swp-report/iMX6_Platform_SDK/output/mx6sdl/lib/libsdk.a(max7310.o)
 .debug_loc     0x00002bd4      0x18c /home/leon/git/swp-report/iMX6_Platform_SDK/output/mx6sdl/lib/libsdk.a(ccm_pll.o)
 .debug_loc     0x00002d60      0x2ec /home/leon/git/swp-report/iMX6_Platform_SDK/output/mx6sdl/lib/libsdk.a(gic.o)
 .debug_loc     0x0000304c       0xdc /home/leon/git/swp-report/iMX6_Platform_SDK/output/mx6sdl/lib/libsdk.a(interrupt.o)
 .debug_loc     0x00003128       0xdc /home/leon/git/swp-report/iMX6_Platform_SDK/output/mx6sdl/lib/libsdk.a(mmu.o)
 .debug_loc     0x00003204      0x1e4 /home/leon/git/swp-report/iMX6_Platform_SDK/output/mx6sdl/lib/libsdk.a(menu.o)
 .debug_loc     0x000033e8      0x108 /home/leon/git/swp-report/iMX6_Platform_SDK/output/mx6sdl/lib/libsdk.a(system_util.o)
 .debug_loc     0x000034f0       0x58 /home/leon/git/swp-report/iMX6_Platform_SDK/output/mx6sdl/lib/libsdk.a(text_color.o)
 .debug_loc     0x00003548      0x134 /home/leon/git/swp-report/iMX6_Platform_SDK/output/mx6sdl/lib/libsdk.a(cs42888.o)
 .debug_loc     0x0000367c      0x1e4 /home/leon/git/swp-report/iMX6_Platform_SDK/output/mx6sdl/lib/libsdk.a(imx-ssi.o)
 .debug_loc     0x00003860       0x84 /home/leon/git/swp-report/iMX6_Platform_SDK/output/mx6sdl/lib/libsdk.a(imx_audmux.o)
 .debug_loc     0x000038e4      0x210 /home/leon/git/swp-report/iMX6_Platform_SDK/output/mx6sdl/lib/libsdk.a(imx_esai.o)
 .debug_loc     0x00003af4      0x160 /home/leon/git/swp-report/iMX6_Platform_SDK/output/mx6sdl/lib/libsdk.a(imx_spdif.o)
 .debug_loc     0x00003c54      0x23c /home/leon/git/swp-report/iMX6_Platform_SDK/output/mx6sdl/lib/libsdk.a(sgtl5000.o)
 .debug_loc     0x00003e90      0x18c /home/leon/git/swp-report/iMX6_Platform_SDK/output/mx6sdl/lib/libsdk.a(wm8958_dac.o)
 .debug_loc     0x0000401c      0x1b8 /home/leon/git/swp-report/iMX6_Platform_SDK/output/mx6sdl/lib/libsdk.a(wm8962.o)
 .debug_loc     0x000041d4      0x134 /home/leon/git/swp-report/iMX6_Platform_SDK/output/mx6sdl/lib/libsdk.a(board_id.o)
 .debug_loc     0x00004308      0x1b8 /home/leon/git/swp-report/iMX6_Platform_SDK/output/mx6sdl/lib/libsdk.a(smd_sensor.o)
 .debug_loc     0x000044c0      0x344 /home/leon/git/swp-report/iMX6_Platform_SDK/output/mx6sdl/lib/libsdk.a(enet_drv.o)
 .debug_loc     0x00004804      0x4d0 /home/leon/git/swp-report/iMX6_Platform_SDK/output/mx6sdl/lib/libsdk.a(mxc_epdc.o)
 .debug_loc     0x00004cd4      0x1e4 /home/leon/git/swp-report/iMX6_Platform_SDK/output/mx6sdl/lib/libsdk.a(gpio.o)
 .debug_loc     0x00004eb8      0x1b8 /home/leon/git/swp-report/iMX6_Platform_SDK/output/mx6sdl/lib/libsdk.a(hdmi_tx.o)
 .debug_loc     0x00005070      0x39c /home/leon/git/swp-report/iMX6_Platform_SDK/output/mx6sdl/lib/libsdk.a(hdmi_tx_audio.o)
 .debug_loc     0x0000540c      0x39c /home/leon/git/swp-report/iMX6_Platform_SDK/output/mx6sdl/lib/libsdk.a(hdmi_tx_phy.o)
 .debug_loc     0x000057a8      0x268 /home/leon/git/swp-report/iMX6_Platform_SDK/output/mx6sdl/lib/libsdk.a(imx_i2c.o)
 .debug_loc     0x00005a10      0x2ec /home/leon/git/swp-report/iMX6_Platform_SDK/output/mx6sdl/lib/libsdk.a(ips_disp_panel.o)
 .debug_loc     0x00005cfc      0x268 /home/leon/git/swp-report/iMX6_Platform_SDK/output/mx6sdl/lib/libsdk.a(ipu_common.o)
 .debug_loc     0x00005f64      0x108 /home/leon/git/swp-report/iMX6_Platform_SDK/output/mx6sdl/lib/libsdk.a(ipu_csi.o)
 .debug_loc     0x0000606c      0x108 /home/leon/git/swp-report/iMX6_Platform_SDK/output/mx6sdl/lib/libsdk.a(ipu_dc.o)
 .debug_loc     0x00006174      0x134 /home/leon/git/swp-report/iMX6_Platform_SDK/output/mx6sdl/lib/libsdk.a(ipu_di.o)
 .debug_loc     0x000062a8       0x58 /home/leon/git/swp-report/iMX6_Platform_SDK/output/mx6sdl/lib/libsdk.a(ipu_dmfc.o)
 .debug_loc     0x00006300       0x84 /home/leon/git/swp-report/iMX6_Platform_SDK/output/mx6sdl/lib/libsdk.a(ipu_dp.o)
 .debug_loc     0x00006384      0x2ec /home/leon/git/swp-report/iMX6_Platform_SDK/output/mx6sdl/lib/libsdk.a(ipu_idmac.o)
 .debug_loc     0x00006670      0x160 /home/leon/git/swp-report/iMX6_Platform_SDK/output/mx6sdl/lib/libsdk.a(ipu_vdi.o)
 .debug_loc     0x000067d0       0x84 /home/leon/git/swp-report/iMX6_Platform_SDK/output/mx6sdl/lib/libsdk.a(ldb.o)
 .debug_loc     0x00006854      0x134 /home/leon/git/swp-report/iMX6_Platform_SDK/output/mx6sdl/lib/libsdk.a(ocotp.o)
 .debug_loc     0x00006988      0x134 /home/leon/git/swp-report/iMX6_Platform_SDK/output/mx6sdl/lib/libsdk.a(ecspi.o)
 .debug_loc     0x00006abc       0xb0 /home/leon/git/swp-report/iMX6_Platform_SDK/output/mx6sdl/lib/libsdk.a(timer.o)
 .debug_loc     0x00006b6c      0x134 /home/leon/git/swp-report/iMX6_Platform_SDK/output/mx6sdl/lib/libsdk.a(imx_uart.o)
 .debug_loc     0x00006ca0       0x84 /home/leon/git/swp-report/iMX6_Platform_SDK/output/mx6sdl/lib/libsdk.a(usb_common.o)
 .debug_loc     0x00006d24      0x160 /home/leon/git/swp-report/iMX6_Platform_SDK/output/mx6sdl/lib/libsdk.a(usbh_drv.o)
 .debug_loc     0x00006e84      0x318 /home/leon/git/swp-report/iMX6_Platform_SDK/output/mx6sdl/lib/libsdk.a(usdhc.o)
 .debug_loc     0x0000719c      0x44c /home/leon/git/swp-report/iMX6_Platform_SDK/output/mx6sdl/lib/libsdk.a(usdhc_host.o)
 .debug_loc     0x000075e8      0x23c /home/leon/git/swp-report/iMX6_Platform_SDK/output/mx6sdl/lib/libsdk.a(usdhc_mmc.o)
 .debug_loc     0x00007824       0xb0 /home/leon/git/swp-report/iMX6_Platform_SDK/output/mx6sdl/lib/libsdk.a(usdhc_sd.o)
 .debug_loc     0x000078d4      0x2c0 /home/leon/git/swp-report/iMX6_Platform_SDK/output/mx6sdl/lib/libsdk.a(armv7_cache.o)
 .debug_loc     0x00007b94       0xdc /home/leon/git/swp-report/iMX6_Platform_SDK/output/mx6sdl/lib/libsdk.a(hdmi_common.o)
 .debug_loc     0x00007c70      0x18c /home/leon/git/swp-report/iMX6_Platform_SDK/output/mx6sdl/lib/libsdk.a(ipu_ic.o)
 .debug_loc     0x00007dfc      0x160 /home/leon/git/swp-report/iMX6_Platform_SDK/output/mx6sdl/lib/libsdk.a(epit.o)
 .debug_loc     0x00007f5c       0x58 /home/leon/git/swp-report/iMX6_Platform_SDK/output/mx6sdl/lib/libsdk.a(mx6x_usb.o)
 .debug_loc     0x00007fb4       0x2c /home/leon/git/swp-report/iMX6_Platform_SDK/output/mx6sdl/lib/libsdk.a(abort_handler.o)
 .debug_loc     0x00007fe0      0x134 /home/leon/git/swp-report/iMX6_Platform_SDK/output/mx6sdl/lib/libboard_smart_device_rev_a.a(board_audio.o)
 .debug_loc     0x00008114       0x2c /home/leon/git/swp-report/iMX6_Platform_SDK/output/mx6sdl/lib/libboard_smart_device_rev_a.a(board_buttons.o)
 .debug_loc     0x00008140      0x108 /home/leon/git/swp-report/iMX6_Platform_SDK/output/mx6sdl/lib/libboard_smart_device_rev_a.a(board_camera.o)
 .debug_loc     0x00008248      0x134 /home/leon/git/swp-report/iMX6_Platform_SDK/output/mx6sdl/lib/libboard_smart_device_rev_a.a(board_display.o)
 .debug_loc     0x0000837c      0x108 /home/leon/git/swp-report/iMX6_Platform_SDK/output/mx6sdl/lib/libboard_smart_device_rev_a.a(board_hdmi.o)
 .debug_loc     0x00008484       0x58 /home/leon/git/swp-report/iMX6_Platform_SDK/output/mx6sdl/lib/libboard_smart_device_rev_a.a(board_io_expanders.o)
 .debug_loc     0x000084dc       0xdc /home/leon/git/swp-report/iMX6_Platform_SDK/output/mx6sdl/lib/libboard_smart_device_rev_a.a(board_mipi.o)
 .debug_loc     0x000085b8       0xdc /home/leon/git/swp-report/iMX6_Platform_SDK/output/mx6sdl/lib/libboard_smart_device_rev_a.a(board_network.o)
 .debug_loc     0x00008694       0x84 /home/leon/git/swp-report/iMX6_Platform_SDK/output/mx6sdl/lib/libboard_smart_device_rev_a.a(board_usb.o)
 .debug_loc     0x00008718       0x84 /home/leon/git/swp-report/iMX6_Platform_SDK/output/mx6sdl/lib/libboard_smart_device_rev_a.a(board_usdhc.o)
 .debug_loc     0x0000879c       0x2c /home/leon/git/swp-report/iMX6_Platform_SDK/output/mx6sdl/lib/libboard_smart_device_rev_a.a(audmux_iomux_config.o)
 .debug_loc     0x000087c8       0x2c /home/leon/git/swp-report/iMX6_Platform_SDK/output/mx6sdl/lib/libboard_smart_device_rev_a.a(ccm_iomux_config.o)
 .debug_loc     0x000087f4       0x2c /home/leon/git/swp-report/iMX6_Platform_SDK/output/mx6sdl/lib/libboard_smart_device_rev_a.a(ecspi_iomux_config.o)
 .debug_loc     0x00008820       0x2c /home/leon/git/swp-report/iMX6_Platform_SDK/output/mx6sdl/lib/libboard_smart_device_rev_a.a(enet_iomux_config.o)
 .debug_loc     0x0000884c       0x2c /home/leon/git/swp-report/iMX6_Platform_SDK/output/mx6sdl/lib/libboard_smart_device_rev_a.a(epdc_iomux_config.o)
 .debug_loc     0x00008878       0x2c /home/leon/git/swp-report/iMX6_Platform_SDK/output/mx6sdl/lib/libboard_smart_device_rev_a.a(i2c_iomux_config.o)
 .debug_loc     0x000088a4      0x70c /home/leon/git/swp-report/iMX6_Platform_SDK/output/mx6sdl/lib/libboard_smart_device_rev_a.a(iomux_config.o)
 .debug_loc     0x00008fb0       0x2c /home/leon/git/swp-report/iMX6_Platform_SDK/output/mx6sdl/lib/libboard_smart_device_rev_a.a(ipu1_iomux_config.o)
 .debug_loc     0x00008fdc       0x2c /home/leon/git/swp-report/iMX6_Platform_SDK/output/mx6sdl/lib/libboard_smart_device_rev_a.a(ipu_iomux_config.o)
 .debug_loc     0x00009008       0x2c /home/leon/git/swp-report/iMX6_Platform_SDK/output/mx6sdl/lib/libboard_smart_device_rev_a.a(kpp_iomux_config.o)
 .debug_loc     0x00009034       0x2c /home/leon/git/swp-report/iMX6_Platform_SDK/output/mx6sdl/lib/libboard_smart_device_rev_a.a(mmdc_iomux_config.o)
 .debug_loc     0x00009060       0x2c /home/leon/git/swp-report/iMX6_Platform_SDK/output/mx6sdl/lib/libboard_smart_device_rev_a.a(pwm1_iomux_config.o)
 .debug_loc     0x0000908c       0x2c /home/leon/git/swp-report/iMX6_Platform_SDK/output/mx6sdl/lib/libboard_smart_device_rev_a.a(sjc_iomux_config.o)
 .debug_loc     0x000090b8       0x2c /home/leon/git/swp-report/iMX6_Platform_SDK/output/mx6sdl/lib/libboard_smart_device_rev_a.a(uart1_iomux_config.o)
 .debug_loc     0x000090e4       0x2c /home/leon/git/swp-report/iMX6_Platform_SDK/output/mx6sdl/lib/libboard_smart_device_rev_a.a(uart_iomux_config.o)
 .debug_loc     0x00009110       0x2c /home/leon/git/swp-report/iMX6_Platform_SDK/output/mx6sdl/lib/libboard_smart_device_rev_a.a(usdhc2_iomux_config.o)
 .debug_loc     0x0000913c       0x2c /home/leon/git/swp-report/iMX6_Platform_SDK/output/mx6sdl/lib/libboard_smart_device_rev_a.a(usdhc3_iomux_config.o)
 .debug_loc     0x00009168       0x2c /home/leon/git/swp-report/iMX6_Platform_SDK/output/mx6sdl/lib/libboard_smart_device_rev_a.a(usdhc4_iomux_config.o)
 .debug_loc     0x00009194       0x2c /home/leon/git/swp-report/iMX6_Platform_SDK/output/mx6sdl/lib/libboard_smart_device_rev_a.a(usdhc_iomux_config.o)
 .debug_loc     0x000091c0       0x2c /home/leon/git/swp-report/iMX6_Platform_SDK/output/mx6sdl/lib/libboard_smart_device_rev_a.a(ecspi1_iomux_config.o)
 .debug_loc     0x000091ec       0x2c /home/leon/git/swp-report/iMX6_Platform_SDK/output/mx6sdl/lib/libboard_smart_device_rev_a.a(flexcan1_iomux_config.o)
 .debug_loc     0x00009218       0x2c /home/leon/git/swp-report/iMX6_Platform_SDK/output/mx6sdl/lib/libboard_smart_device_rev_a.a(gpio1_iomux_config.o)
 .debug_loc     0x00009244       0x2c /home/leon/git/swp-report/iMX6_Platform_SDK/output/mx6sdl/lib/libboard_smart_device_rev_a.a(gpio2_iomux_config.o)
 .debug_loc     0x00009270       0x2c /home/leon/git/swp-report/iMX6_Platform_SDK/output/mx6sdl/lib/libboard_smart_device_rev_a.a(gpio3_iomux_config.o)
 .debug_loc     0x0000929c       0x2c /home/leon/git/swp-report/iMX6_Platform_SDK/output/mx6sdl/lib/libboard_smart_device_rev_a.a(gpio4_iomux_config.o)
 .debug_loc     0x000092c8       0x2c /home/leon/git/swp-report/iMX6_Platform_SDK/output/mx6sdl/lib/libboard_smart_device_rev_a.a(gpio5_iomux_config.o)
 .debug_loc     0x000092f4       0x2c /home/leon/git/swp-report/iMX6_Platform_SDK/output/mx6sdl/lib/libboard_smart_device_rev_a.a(gpio6_iomux_config.o)
 .debug_loc     0x00009320       0x2c /home/leon/git/swp-report/iMX6_Platform_SDK/output/mx6sdl/lib/libboard_smart_device_rev_a.a(gpio7_iomux_config.o)
 .debug_loc     0x0000934c       0x2c /home/leon/git/swp-report/iMX6_Platform_SDK/output/mx6sdl/lib/libboard_smart_device_rev_a.a(gps_iomux_config.o)
 .debug_loc     0x00009378       0x2c /home/leon/git/swp-report/iMX6_Platform_SDK/output/mx6sdl/lib/libboard_smart_device_rev_a.a(i2c1_iomux_config.o)
 .debug_loc     0x000093a4       0x2c /home/leon/git/swp-report/iMX6_Platform_SDK/output/mx6sdl/lib/libboard_smart_device_rev_a.a(i2c2_iomux_config.o)
 .debug_loc     0x000093d0       0x2c /home/leon/git/swp-report/iMX6_Platform_SDK/output/mx6sdl/lib/libboard_smart_device_rev_a.a(i2c3_iomux_config.o)
 .debug_loc     0x000093fc      0x370 /home/leon/git/swp-report/iMX6_Platform_SDK/output/mx6sdl/lib/libsdk.a(runtime_support.o)

.debug_frame    0x00000000     0x8b50
 .debug_frame   0x00000000       0x30 /home/leon/git/swp-report/iMX6_Platform_SDK/output/mx6sdl/obds/smart_device_rev_a/obj/apps/common/platform_init.o
 .debug_frame   0x00000030       0x50 /home/leon/git/swp-report/iMX6_Platform_SDK/output/mx6sdl/obds/smart_device_rev_a/obj/apps/common/print_clock_info.o
 .debug_frame   0x00000080       0x30 /home/leon/git/swp-report/iMX6_Platform_SDK/output/mx6sdl/obds/smart_device_rev_a/obj/apps/common/print_version.o
 .debug_frame   0x000000b0      0x198 /home/leon/git/swp-report/iMX6_Platform_SDK/output/mx6sdl/obds/smart_device_rev_a/obj/apps/obds/src/obds.o
 .debug_frame   0x00000248       0x30 /home/leon/git/swp-report/iMX6_Platform_SDK/output/mx6sdl/obds/smart_device_rev_a/obj/apps/obds/src/obds_utils.o
 .debug_frame   0x00000278       0x90 /home/leon/git/swp-report/iMX6_Platform_SDK/output/mx6sdl/obds/smart_device_rev_a/obj/apps/obds/src/tests/android_buttons_test.o
 .debug_frame   0x00000308       0x30 /home/leon/git/swp-report/iMX6_Platform_SDK/output/mx6sdl/obds/smart_device_rev_a/obj/apps/obds/src/tests/audio_esai_test.o
 .debug_frame   0x00000338       0x50 /home/leon/git/swp-report/iMX6_Platform_SDK/output/mx6sdl/obds/smart_device_rev_a/obj/apps/obds/src/tests/audio_ssi_test.o
 .debug_frame   0x00000388       0x50 /home/leon/git/swp-report/iMX6_Platform_SDK/output/mx6sdl/obds/smart_device_rev_a/obj/apps/obds/src/tests/ddr_test.o
 .debug_frame   0x000003d8       0x90 /home/leon/git/swp-report/iMX6_Platform_SDK/output/mx6sdl/obds/smart_device_rev_a/obj/apps/obds/src/tests/deserializer_ds90ur124.o
 .debug_frame   0x00000468       0x90 /home/leon/git/swp-report/iMX6_Platform_SDK/output/mx6sdl/obds/smart_device_rev_a/obj/apps/obds/src/tests/display_test.o
 .debug_frame   0x000004f8       0xd8 /home/leon/git/swp-report/iMX6_Platform_SDK/output/mx6sdl/obds/smart_device_rev_a/obj/apps/obds/src/tests/enet_mx6dldq_test.o
 .debug_frame   0x000005d0       0x30 /home/leon/git/swp-report/iMX6_Platform_SDK/output/mx6sdl/obds/smart_device_rev_a/obj/apps/obds/src/tests/flexcan_test.o
 .debug_frame   0x00000600       0x70 /home/leon/git/swp-report/iMX6_Platform_SDK/output/mx6sdl/obds/smart_device_rev_a/obj/apps/obds/src/tests/fm_tuner_si476x_test.o
 .debug_frame   0x00000670       0x30 /home/leon/git/swp-report/iMX6_Platform_SDK/output/mx6sdl/obds/smart_device_rev_a/obj/apps/obds/src/tests/gpio_led.o
 .debug_frame   0x000006a0       0x30 /home/leon/git/swp-report/iMX6_Platform_SDK/output/mx6sdl/obds/smart_device_rev_a/obj/apps/obds/src/tests/gps_test.o
 .debug_frame   0x000006d0       0xd0 /home/leon/git/swp-report/iMX6_Platform_SDK/output/mx6sdl/obds/smart_device_rev_a/obj/apps/obds/src/tests/i2c_check_light_sensor_isl29023.o
 .debug_frame   0x000007a0       0x90 /home/leon/git/swp-report/iMX6_Platform_SDK/output/mx6sdl/obds/smart_device_rev_a/obj/apps/obds/src/tests/i2c_device_barometer_ppl3115.o
 .debug_frame   0x00000830       0x30 /home/leon/git/swp-report/iMX6_Platform_SDK/output/mx6sdl/obds/smart_device_rev_a/obj/apps/obds/src/tests/i2c_device_check_cs42888.o
 .debug_frame   0x00000860       0x50 /home/leon/git/swp-report/iMX6_Platform_SDK/output/mx6sdl/obds/smart_device_rev_a/obj/apps/obds/src/tests/i2c_device_digital_compass_mag3110.o
 .debug_frame   0x000008b0       0x50 /home/leon/git/swp-report/iMX6_Platform_SDK/output/mx6sdl/obds/smart_device_rev_a/obj/apps/obds/src/tests/i2c_device_digital_compass_mag3112.o
 .debug_frame   0x00000900       0xd0 /home/leon/git/swp-report/iMX6_Platform_SDK/output/mx6sdl/obds/smart_device_rev_a/obj/apps/obds/src/tests/i2c_device_id_check_mma8450.o
 .debug_frame   0x000009d0       0xd0 /home/leon/git/swp-report/iMX6_Platform_SDK/output/mx6sdl/obds/smart_device_rev_a/obj/apps/obds/src/tests/i2c_device_id_check_mma8451.o
 .debug_frame   0x00000aa0       0xb0 /home/leon/git/swp-report/iMX6_Platform_SDK/output/mx6sdl/obds/smart_device_rev_a/obj/apps/obds/src/tests/i2c_device_id_check_p1003_tsc.o
 .debug_frame   0x00000b50       0xf0 /home/leon/git/swp-report/iMX6_Platform_SDK/output/mx6sdl/obds/smart_device_rev_a/obj/apps/obds/src/tests/i2c_device_temp_sensor_emc1046.o
 .debug_frame   0x00000c40       0x90 /home/leon/git/swp-report/iMX6_Platform_SDK/output/mx6sdl/obds/smart_device_rev_a/obj/apps/obds/src/tests/i2c_device_zigbee_mc1323.o
 .debug_frame   0x00000cd0       0x70 /home/leon/git/swp-report/iMX6_Platform_SDK/output/mx6sdl/obds/smart_device_rev_a/obj/apps/obds/src/tests/i2c_eeprom_at24cxx_test.o
 .debug_frame   0x00000d40       0xb0 /home/leon/git/swp-report/iMX6_Platform_SDK/output/mx6sdl/obds/smart_device_rev_a/obj/apps/obds/src/tests/imx_spi_nor_test.o
 .debug_frame   0x00000df0       0xb0 /home/leon/git/swp-report/iMX6_Platform_SDK/output/mx6sdl/obds/smart_device_rev_a/obj/apps/obds/src/tests/mlb_os81050.o
 .debug_frame   0x00000ea0       0x30 /home/leon/git/swp-report/iMX6_Platform_SDK/output/mx6sdl/obds/smart_device_rev_a/obj/apps/obds/src/tests/mmcsd_test.o
 .debug_frame   0x00000ed0       0x90 /home/leon/git/swp-report/iMX6_Platform_SDK/output/mx6sdl/obds/smart_device_rev_a/obj/apps/obds/src/tests/pmic_da9053.o
 .debug_frame   0x00000f60      0x110 /home/leon/git/swp-report/iMX6_Platform_SDK/output/mx6sdl/obds/smart_device_rev_a/obj/apps/obds/src/tests/pmic_lt3589.o
 .debug_frame   0x00001070       0x90 /home/leon/git/swp-report/iMX6_Platform_SDK/output/mx6sdl/obds/smart_device_rev_a/obj/apps/obds/src/tests/pmic_max17135.o
 .debug_frame   0x00001100       0xd0 /home/leon/git/swp-report/iMX6_Platform_SDK/output/mx6sdl/obds/smart_device_rev_a/obj/apps/obds/src/tests/pmic_mc13892.o
 .debug_frame   0x000011d0       0x78 /home/leon/git/swp-report/iMX6_Platform_SDK/output/mx6sdl/obds/smart_device_rev_a/obj/apps/obds/src/tests/program_board_id.o
 .debug_frame   0x00001248       0xb8 /home/leon/git/swp-report/iMX6_Platform_SDK/output/mx6sdl/obds/smart_device_rev_a/obj/apps/obds/src/tests/program_mac_address.o
 .debug_frame   0x00001300       0x30 /home/leon/git/swp-report/iMX6_Platform_SDK/output/mx6sdl/obds/smart_device_rev_a/obj/apps/obds/src/tests/snvs_srtc_test.o
 .debug_frame   0x00001330       0xb0 /home/leon/git/swp-report/iMX6_Platform_SDK/output/mx6sdl/obds/smart_device_rev_a/obj/apps/obds/src/tests/touch_button_test.o
 .debug_frame   0x000013e0       0xf0 /home/leon/git/swp-report/iMX6_Platform_SDK/output/mx6sdl/obds/smart_device_rev_a/obj/apps/obds/src/tests/touch_screen.o
 .debug_frame   0x000014d0      0x130 /home/leon/git/swp-report/iMX6_Platform_SDK/output/mx6sdl/obds/smart_device_rev_a/obj/apps/obds/src/tests/touch_screen_max11801.o
 .debug_frame   0x00001600       0x70 /home/leon/git/swp-report/iMX6_Platform_SDK/output/mx6sdl/obds/smart_device_rev_a/obj/apps/obds/src/tests/usb_tests_obds.o
 .debug_frame   0x00001670       0x30 /home/leon/git/swp-report/iMX6_Platform_SDK/output/mx6sdl/obds/smart_device_rev_a/obj/apps/obds/src/tests/video_dec_ARD_MB_reset_button.o
 .debug_frame   0x000016a0       0x30 /home/leon/git/swp-report/iMX6_Platform_SDK/output/mx6sdl/obds/smart_device_rev_a/obj/apps/obds/src/tests/video_dec_ARD_MBrst_from_cpu_expander.o
 .debug_frame   0x000016d0       0xf0 /home/leon/git/swp-report/iMX6_Platform_SDK/output/mx6sdl/obds/smart_device_rev_a/obj/apps/obds/src/tests/video_dec_adv7180.o
 .debug_frame   0x000017c0       0x90 /home/leon/git/swp-report/iMX6_Platform_SDK/output/mx6sdl/obds/smart_device_rev_a/obj/apps/obds/src/tests/weim_nor_flash_test.o
 .debug_frame   0x00001850       0x30 /home/leon/git/swp-report/iMX6_Platform_SDK/output/mx6sdl/obds/smart_device_rev_a/obj/sdk/common/ioexpander/test/max7310_test.o
 .debug_frame   0x00001880      0x130 /home/leon/git/swp-report/iMX6_Platform_SDK/output/mx6sdl/obds/smart_device_rev_a/obj/sdk/common/pmic/pfuse/pf0100.o
 .debug_frame   0x000019b0       0xd0 /home/leon/git/swp-report/iMX6_Platform_SDK/output/mx6sdl/obds/smart_device_rev_a/obj/sdk/drivers/audio/src/snd_card.o
 .debug_frame   0x00001a80       0x30 /home/leon/git/swp-report/iMX6_Platform_SDK/output/mx6sdl/obds/smart_device_rev_a/obj/sdk/drivers/camera/test/camera_test.o
 .debug_frame   0x00001ab0       0x30 /home/leon/git/swp-report/iMX6_Platform_SDK/output/mx6sdl/obds/smart_device_rev_a/obj/sdk/drivers/camera/test/csi_test_mode.o
 .debug_frame   0x00001ae0       0x30 /home/leon/git/swp-report/iMX6_Platform_SDK/output/mx6sdl/obds/smart_device_rev_a/obj/sdk/drivers/camera/test/sensor_capture.o
 .debug_frame   0x00001b10       0xd0 /home/leon/git/swp-report/iMX6_Platform_SDK/output/mx6sdl/obds/smart_device_rev_a/obj/sdk/drivers/epdc/test/epdc_test.o
 .debug_frame   0x00001be0       0xb0 /home/leon/git/swp-report/iMX6_Platform_SDK/output/mx6sdl/obds/smart_device_rev_a/obj/sdk/drivers/hdmi/test/hdmi_test.o
 .debug_frame   0x00001c90       0x34 /home/leon/git/swp-report/iMX6_Platform_SDK/output/mx6sdl/obds/smart_device_rev_a/obj/sdk/drivers/hdmi/test/init_dma_data.o
 .debug_frame   0x00001cc4       0xf0 /home/leon/git/swp-report/iMX6_Platform_SDK/output/mx6sdl/obds/smart_device_rev_a/obj/sdk/drivers/ipu/test/ips_display.o
 .debug_frame   0x00001db4       0xb0 /home/leon/git/swp-report/iMX6_Platform_SDK/output/mx6sdl/obds/smart_device_rev_a/obj/sdk/drivers/ipu/test/ipu_image.o
 .debug_frame   0x00001e64       0xf0 /home/leon/git/swp-report/iMX6_Platform_SDK/output/mx6sdl/obds/smart_device_rev_a/obj/sdk/drivers/spi/test/imx_spi_nor_atmel.o
 .debug_frame   0x00001f54      0x110 /home/leon/git/swp-report/iMX6_Platform_SDK/output/mx6sdl/obds/smart_device_rev_a/obj/sdk/drivers/spi/test/spi_nor_numonyx.o
 .debug_frame   0x00002064       0x50 /home/leon/git/swp-report/iMX6_Platform_SDK/output/mx6sdl/obds/smart_device_rev_a/obj/sdk/drivers/uart/test/uart_test.o
 .debug_frame   0x000020b4      0x110 /home/leon/git/swp-report/iMX6_Platform_SDK/output/mx6sdl/obds/smart_device_rev_a/obj/sdk/drivers/usb/test/usb0_host_test.o
 .debug_frame   0x000021c4       0x30 /home/leon/git/swp-report/iMX6_Platform_SDK/output/mx6sdl/obds/smart_device_rev_a/obj/sdk/drivers/usb/test/usb0_host_testmodes_test.o
 .debug_frame   0x000021f4      0x170 /home/leon/git/swp-report/iMX6_Platform_SDK/output/mx6sdl/obds/smart_device_rev_a/obj/sdk/drivers/usdhc/test/usdhc_test.o
 .debug_frame   0x00002364       0x90 /home/leon/git/swp-report/iMX6_Platform_SDK/output/mx6sdl/lib/libsdk.a(max7310.o)
 .debug_frame   0x000023f4      0x130 /home/leon/git/swp-report/iMX6_Platform_SDK/output/mx6sdl/lib/libsdk.a(ccm_pll.o)
 .debug_frame   0x00002524      0x230 /home/leon/git/swp-report/iMX6_Platform_SDK/output/mx6sdl/lib/libsdk.a(gic.o)
 .debug_frame   0x00002754       0xb8 /home/leon/git/swp-report/iMX6_Platform_SDK/output/mx6sdl/lib/libsdk.a(interrupt.o)
 .debug_frame   0x0000280c       0xb0 /home/leon/git/swp-report/iMX6_Platform_SDK/output/mx6sdl/lib/libsdk.a(mmu.o)
 .debug_frame   0x000028bc      0x170 /home/leon/git/swp-report/iMX6_Platform_SDK/output/mx6sdl/lib/libsdk.a(menu.o)
 .debug_frame   0x00002a2c       0xe0 /home/leon/git/swp-report/iMX6_Platform_SDK/output/mx6sdl/lib/libsdk.a(system_util.o)
 .debug_frame   0x00002b0c       0x54 /home/leon/git/swp-report/iMX6_Platform_SDK/output/mx6sdl/lib/libsdk.a(text_color.o)
 .debug_frame   0x00002b60       0xf0 /home/leon/git/swp-report/iMX6_Platform_SDK/output/mx6sdl/lib/libsdk.a(cs42888.o)
 .debug_frame   0x00002c50      0x170 /home/leon/git/swp-report/iMX6_Platform_SDK/output/mx6sdl/lib/libsdk.a(imx-ssi.o)
 .debug_frame   0x00002dc0       0x70 /home/leon/git/swp-report/iMX6_Platform_SDK/output/mx6sdl/lib/libsdk.a(imx_audmux.o)
 .debug_frame   0x00002e30      0x190 /home/leon/git/swp-report/iMX6_Platform_SDK/output/mx6sdl/lib/libsdk.a(imx_esai.o)
 .debug_frame   0x00002fc0      0x110 /home/leon/git/swp-report/iMX6_Platform_SDK/output/mx6sdl/lib/libsdk.a(imx_spdif.o)
 .debug_frame   0x000030d0      0x1b8 /home/leon/git/swp-report/iMX6_Platform_SDK/output/mx6sdl/lib/libsdk.a(sgtl5000.o)
 .debug_frame   0x00003288      0x130 /home/leon/git/swp-report/iMX6_Platform_SDK/output/mx6sdl/lib/libsdk.a(wm8958_dac.o)
 .debug_frame   0x000033b8      0x150 /home/leon/git/swp-report/iMX6_Platform_SDK/output/mx6sdl/lib/libsdk.a(wm8962.o)
 .debug_frame   0x00003508       0xf0 /home/leon/git/swp-report/iMX6_Platform_SDK/output/mx6sdl/lib/libsdk.a(board_id.o)
 .debug_frame   0x000035f8      0x150 /home/leon/git/swp-report/iMX6_Platform_SDK/output/mx6sdl/lib/libsdk.a(smd_sensor.o)
 .debug_frame   0x00003748      0x270 /home/leon/git/swp-report/iMX6_Platform_SDK/output/mx6sdl/lib/libsdk.a(enet_drv.o)
 .debug_frame   0x000039b8      0x390 /home/leon/git/swp-report/iMX6_Platform_SDK/output/mx6sdl/lib/libsdk.a(mxc_epdc.o)
 .debug_frame   0x00003d48      0x178 /home/leon/git/swp-report/iMX6_Platform_SDK/output/mx6sdl/lib/libsdk.a(gpio.o)
 .debug_frame   0x00003ec0      0x150 /home/leon/git/swp-report/iMX6_Platform_SDK/output/mx6sdl/lib/libsdk.a(hdmi_tx.o)
 .debug_frame   0x00004010      0x2b0 /home/leon/git/swp-report/iMX6_Platform_SDK/output/mx6sdl/lib/libsdk.a(hdmi_tx_audio.o)
 .debug_frame   0x000042c0      0x2b0 /home/leon/git/swp-report/iMX6_Platform_SDK/output/mx6sdl/lib/libsdk.a(hdmi_tx_phy.o)
 .debug_frame   0x00004570      0x1d8 /home/leon/git/swp-report/iMX6_Platform_SDK/output/mx6sdl/lib/libsdk.a(imx_i2c.o)
 .debug_frame   0x00004748      0x230 /home/leon/git/swp-report/iMX6_Platform_SDK/output/mx6sdl/lib/libsdk.a(ips_disp_panel.o)
 .debug_frame   0x00004978      0x1d0 /home/leon/git/swp-report/iMX6_Platform_SDK/output/mx6sdl/lib/libsdk.a(ipu_common.o)
 .debug_frame   0x00004b48       0xd0 /home/leon/git/swp-report/iMX6_Platform_SDK/output/mx6sdl/lib/libsdk.a(ipu_csi.o)
 .debug_frame   0x00004c18       0xd0 /home/leon/git/swp-report/iMX6_Platform_SDK/output/mx6sdl/lib/libsdk.a(ipu_dc.o)
 .debug_frame   0x00004ce8       0xf4 /home/leon/git/swp-report/iMX6_Platform_SDK/output/mx6sdl/lib/libsdk.a(ipu_di.o)
 .debug_frame   0x00004ddc       0x50 /home/leon/git/swp-report/iMX6_Platform_SDK/output/mx6sdl/lib/libsdk.a(ipu_dmfc.o)
 .debug_frame   0x00004e2c       0x70 /home/leon/git/swp-report/iMX6_Platform_SDK/output/mx6sdl/lib/libsdk.a(ipu_dp.o)
 .debug_frame   0x00004e9c      0x230 /home/leon/git/swp-report/iMX6_Platform_SDK/output/mx6sdl/lib/libsdk.a(ipu_idmac.o)
 .debug_frame   0x000050cc      0x110 /home/leon/git/swp-report/iMX6_Platform_SDK/output/mx6sdl/lib/libsdk.a(ipu_vdi.o)
 .debug_frame   0x000051dc       0x70 /home/leon/git/swp-report/iMX6_Platform_SDK/output/mx6sdl/lib/libsdk.a(ldb.o)
 .debug_frame   0x0000524c       0xf0 /home/leon/git/swp-report/iMX6_Platform_SDK/output/mx6sdl/lib/libsdk.a(ocotp.o)
 .debug_frame   0x0000533c       0xf0 /home/leon/git/swp-report/iMX6_Platform_SDK/output/mx6sdl/lib/libsdk.a(ecspi.o)
 .debug_frame   0x0000542c       0x94 /home/leon/git/swp-report/iMX6_Platform_SDK/output/mx6sdl/lib/libsdk.a(timer.o)
 .debug_frame   0x000054c0       0xf0 /home/leon/git/swp-report/iMX6_Platform_SDK/output/mx6sdl/lib/libsdk.a(imx_uart.o)
 .debug_frame   0x000055b0       0x70 /home/leon/git/swp-report/iMX6_Platform_SDK/output/mx6sdl/lib/libsdk.a(usb_common.o)
 .debug_frame   0x00005620      0x110 /home/leon/git/swp-report/iMX6_Platform_SDK/output/mx6sdl/lib/libsdk.a(usbh_drv.o)
 .debug_frame   0x00005730      0x250 /home/leon/git/swp-report/iMX6_Platform_SDK/output/mx6sdl/lib/libsdk.a(usdhc.o)
 .debug_frame   0x00005980      0x330 /home/leon/git/swp-report/iMX6_Platform_SDK/output/mx6sdl/lib/libsdk.a(usdhc_host.o)
 .debug_frame   0x00005cb0      0x1b0 /home/leon/git/swp-report/iMX6_Platform_SDK/output/mx6sdl/lib/libsdk.a(usdhc_mmc.o)
 .debug_frame   0x00005e60       0x90 /home/leon/git/swp-report/iMX6_Platform_SDK/output/mx6sdl/lib/libsdk.a(usdhc_sd.o)
 .debug_frame   0x00005ef0      0x210 /home/leon/git/swp-report/iMX6_Platform_SDK/output/mx6sdl/lib/libsdk.a(armv7_cache.o)
 .debug_frame   0x00006100       0xb0 /home/leon/git/swp-report/iMX6_Platform_SDK/output/mx6sdl/lib/libsdk.a(hdmi_common.o)
 .debug_frame   0x000061b0      0x130 /home/leon/git/swp-report/iMX6_Platform_SDK/output/mx6sdl/lib/libsdk.a(ipu_ic.o)
 .debug_frame   0x000062e0      0x110 /home/leon/git/swp-report/iMX6_Platform_SDK/output/mx6sdl/lib/libsdk.a(epit.o)
 .debug_frame   0x000063f0       0x50 /home/leon/git/swp-report/iMX6_Platform_SDK/output/mx6sdl/lib/libsdk.a(mx6x_usb.o)
 .debug_frame   0x00006440       0x38 /home/leon/git/swp-report/iMX6_Platform_SDK/output/mx6sdl/lib/libsdk.a(abort_handler.o)
 .debug_frame   0x00006478       0xf0 /home/leon/git/swp-report/iMX6_Platform_SDK/output/mx6sdl/lib/libboard_smart_device_rev_a.a(board_audio.o)
 .debug_frame   0x00006568       0x30 /home/leon/git/swp-report/iMX6_Platform_SDK/output/mx6sdl/lib/libboard_smart_device_rev_a.a(board_buttons.o)
 .debug_frame   0x00006598       0xd0 /home/leon/git/swp-report/iMX6_Platform_SDK/output/mx6sdl/lib/libboard_smart_device_rev_a.a(board_camera.o)
 .debug_frame   0x00006668       0xf0 /home/leon/git/swp-report/iMX6_Platform_SDK/output/mx6sdl/lib/libboard_smart_device_rev_a.a(board_display.o)
 .debug_frame   0x00006758       0xd0 /home/leon/git/swp-report/iMX6_Platform_SDK/output/mx6sdl/lib/libboard_smart_device_rev_a.a(board_hdmi.o)
 .debug_frame   0x00006828       0x50 /home/leon/git/swp-report/iMX6_Platform_SDK/output/mx6sdl/lib/libboard_smart_device_rev_a.a(board_io_expanders.o)
 .debug_frame   0x00006878       0xb0 /home/leon/git/swp-report/iMX6_Platform_SDK/output/mx6sdl/lib/libboard_smart_device_rev_a.a(board_mipi.o)
 .debug_frame   0x00006928       0xb0 /home/leon/git/swp-report/iMX6_Platform_SDK/output/mx6sdl/lib/libboard_smart_device_rev_a.a(board_network.o)
 .debug_frame   0x000069d8       0x70 /home/leon/git/swp-report/iMX6_Platform_SDK/output/mx6sdl/lib/libboard_smart_device_rev_a.a(board_usb.o)
 .debug_frame   0x00006a48       0x70 /home/leon/git/swp-report/iMX6_Platform_SDK/output/mx6sdl/lib/libboard_smart_device_rev_a.a(board_usdhc.o)
 .debug_frame   0x00006ab8       0x30 /home/leon/git/swp-report/iMX6_Platform_SDK/output/mx6sdl/lib/libboard_smart_device_rev_a.a(audmux_iomux_config.o)
 .debug_frame   0x00006ae8       0x30 /home/leon/git/swp-report/iMX6_Platform_SDK/output/mx6sdl/lib/libboard_smart_device_rev_a.a(ccm_iomux_config.o)
 .debug_frame   0x00006b18       0x30 /home/leon/git/swp-report/iMX6_Platform_SDK/output/mx6sdl/lib/libboard_smart_device_rev_a.a(ecspi_iomux_config.o)
 .debug_frame   0x00006b48       0x30 /home/leon/git/swp-report/iMX6_Platform_SDK/output/mx6sdl/lib/libboard_smart_device_rev_a.a(enet_iomux_config.o)
 .debug_frame   0x00006b78       0x30 /home/leon/git/swp-report/iMX6_Platform_SDK/output/mx6sdl/lib/libboard_smart_device_rev_a.a(epdc_iomux_config.o)
 .debug_frame   0x00006ba8       0x30 /home/leon/git/swp-report/iMX6_Platform_SDK/output/mx6sdl/lib/libboard_smart_device_rev_a.a(i2c_iomux_config.o)
 .debug_frame   0x00006bd8      0x530 /home/leon/git/swp-report/iMX6_Platform_SDK/output/mx6sdl/lib/libboard_smart_device_rev_a.a(iomux_config.o)
 .debug_frame   0x00007108       0x30 /home/leon/git/swp-report/iMX6_Platform_SDK/output/mx6sdl/lib/libboard_smart_device_rev_a.a(ipu1_iomux_config.o)
 .debug_frame   0x00007138       0x30 /home/leon/git/swp-report/iMX6_Platform_SDK/output/mx6sdl/lib/libboard_smart_device_rev_a.a(ipu_iomux_config.o)
 .debug_frame   0x00007168       0x30 /home/leon/git/swp-report/iMX6_Platform_SDK/output/mx6sdl/lib/libboard_smart_device_rev_a.a(kpp_iomux_config.o)
 .debug_frame   0x00007198       0x30 /home/leon/git/swp-report/iMX6_Platform_SDK/output/mx6sdl/lib/libboard_smart_device_rev_a.a(mmdc_iomux_config.o)
 .debug_frame   0x000071c8       0x30 /home/leon/git/swp-report/iMX6_Platform_SDK/output/mx6sdl/lib/libboard_smart_device_rev_a.a(pwm1_iomux_config.o)
 .debug_frame   0x000071f8       0x30 /home/leon/git/swp-report/iMX6_Platform_SDK/output/mx6sdl/lib/libboard_smart_device_rev_a.a(sjc_iomux_config.o)
 .debug_frame   0x00007228       0x30 /home/leon/git/swp-report/iMX6_Platform_SDK/output/mx6sdl/lib/libboard_smart_device_rev_a.a(uart1_iomux_config.o)
 .debug_frame   0x00007258       0x30 /home/leon/git/swp-report/iMX6_Platform_SDK/output/mx6sdl/lib/libboard_smart_device_rev_a.a(uart_iomux_config.o)
 .debug_frame   0x00007288       0x30 /home/leon/git/swp-report/iMX6_Platform_SDK/output/mx6sdl/lib/libboard_smart_device_rev_a.a(usdhc2_iomux_config.o)
 .debug_frame   0x000072b8       0x30 /home/leon/git/swp-report/iMX6_Platform_SDK/output/mx6sdl/lib/libboard_smart_device_rev_a.a(usdhc3_iomux_config.o)
 .debug_frame   0x000072e8       0x30 /home/leon/git/swp-report/iMX6_Platform_SDK/output/mx6sdl/lib/libboard_smart_device_rev_a.a(usdhc4_iomux_config.o)
 .debug_frame   0x00007318       0x30 /home/leon/git/swp-report/iMX6_Platform_SDK/output/mx6sdl/lib/libboard_smart_device_rev_a.a(usdhc_iomux_config.o)
 .debug_frame   0x00007348       0x30 /home/leon/git/swp-report/iMX6_Platform_SDK/output/mx6sdl/lib/libboard_smart_device_rev_a.a(ecspi1_iomux_config.o)
 .debug_frame   0x00007378       0x30 /home/leon/git/swp-report/iMX6_Platform_SDK/output/mx6sdl/lib/libboard_smart_device_rev_a.a(flexcan1_iomux_config.o)
 .debug_frame   0x000073a8       0x30 /home/leon/git/swp-report/iMX6_Platform_SDK/output/mx6sdl/lib/libboard_smart_device_rev_a.a(gpio1_iomux_config.o)
 .debug_frame   0x000073d8       0x30 /home/leon/git/swp-report/iMX6_Platform_SDK/output/mx6sdl/lib/libboard_smart_device_rev_a.a(gpio2_iomux_config.o)
 .debug_frame   0x00007408       0x30 /home/leon/git/swp-report/iMX6_Platform_SDK/output/mx6sdl/lib/libboard_smart_device_rev_a.a(gpio3_iomux_config.o)
 .debug_frame   0x00007438       0x30 /home/leon/git/swp-report/iMX6_Platform_SDK/output/mx6sdl/lib/libboard_smart_device_rev_a.a(gpio4_iomux_config.o)
 .debug_frame   0x00007468       0x30 /home/leon/git/swp-report/iMX6_Platform_SDK/output/mx6sdl/lib/libboard_smart_device_rev_a.a(gpio5_iomux_config.o)
 .debug_frame   0x00007498       0x30 /home/leon/git/swp-report/iMX6_Platform_SDK/output/mx6sdl/lib/libboard_smart_device_rev_a.a(gpio6_iomux_config.o)
 .debug_frame   0x000074c8       0x30 /home/leon/git/swp-report/iMX6_Platform_SDK/output/mx6sdl/lib/libboard_smart_device_rev_a.a(gpio7_iomux_config.o)
 .debug_frame   0x000074f8       0x30 /home/leon/git/swp-report/iMX6_Platform_SDK/output/mx6sdl/lib/libboard_smart_device_rev_a.a(gps_iomux_config.o)
 .debug_frame   0x00007528       0x30 /home/leon/git/swp-report/iMX6_Platform_SDK/output/mx6sdl/lib/libboard_smart_device_rev_a.a(i2c1_iomux_config.o)
 .debug_frame   0x00007558       0x30 /home/leon/git/swp-report/iMX6_Platform_SDK/output/mx6sdl/lib/libboard_smart_device_rev_a.a(i2c2_iomux_config.o)
 .debug_frame   0x00007588       0x30 /home/leon/git/swp-report/iMX6_Platform_SDK/output/mx6sdl/lib/libboard_smart_device_rev_a.a(i2c3_iomux_config.o)
 .debug_frame   0x000075b8       0x40 /home/leon/riotboard/arm-2012.09/bin/../arm-none-eabi/lib//libc.a(lib_a-assert.o)
 .debug_frame   0x000075f8       0x20 /home/leon/riotboard/arm-2012.09/bin/../arm-none-eabi/lib//libc.a(lib_a-bzero.o)
 .debug_frame   0x00007618       0x54 /home/leon/riotboard/arm-2012.09/bin/../arm-none-eabi/lib//libc.a(lib_a-fiprintf.o)
 .debug_frame   0x0000766c       0x48 /home/leon/riotboard/arm-2012.09/bin/../arm-none-eabi/lib//libc.a(lib_a-fputc.o)
 .debug_frame   0x000076b4       0x2c /home/leon/riotboard/arm-2012.09/bin/../arm-none-eabi/lib//libc.a(lib_a-init.o)
 .debug_frame   0x000076e0       0x40 /home/leon/riotboard/arm-2012.09/bin/../arm-none-eabi/lib//libc.a(lib_a-malloc.o)
 .debug_frame   0x00007720       0x38 /home/leon/riotboard/arm-2012.09/bin/../arm-none-eabi/lib//libc.a(lib_a-mallocr.o)
 .debug_frame   0x00007758       0x30 /home/leon/riotboard/arm-2012.09/bin/../arm-none-eabi/lib//libc.a(lib_a-memcpy.o)
 .debug_frame   0x00007788       0x28 /home/leon/riotboard/arm-2012.09/bin/../arm-none-eabi/lib//libc.a(lib_a-memset.o)
 .debug_frame   0x000077b0       0x30 /home/leon/riotboard/arm-2012.09/bin/../arm-none-eabi/lib//libc.a(lib_a-mlock.o)
 .debug_frame   0x000077e0       0x58 /home/leon/riotboard/arm-2012.09/bin/../arm-none-eabi/lib//libc.a(lib_a-printf.o)
 .debug_frame   0x00007838       0x48 /home/leon/riotboard/arm-2012.09/bin/../arm-none-eabi/lib//libc.a(lib_a-putc.o)
 .debug_frame   0x00007880       0x28 /home/leon/riotboard/arm-2012.09/bin/../arm-none-eabi/lib//libc.a(lib_a-realloc.o)
 .debug_frame   0x000078a8       0x38 /home/leon/riotboard/arm-2012.09/bin/../arm-none-eabi/lib//libc.a(lib_a-reallocr.o)
 .debug_frame   0x000078e0       0x3c /home/leon/riotboard/arm-2012.09/bin/../arm-none-eabi/lib//libc.a(lib_a-rget.o)
 .debug_frame   0x0000791c       0x2c /home/leon/riotboard/arm-2012.09/bin/../arm-none-eabi/lib//libc.a(lib_a-sbrkr.o)
 .debug_frame   0x00007948       0x5c /home/leon/riotboard/arm-2012.09/bin/../arm-none-eabi/lib//libc.a(lib_a-sprintf.o)
 .debug_frame   0x000079a4       0x2c /home/leon/riotboard/arm-2012.09/bin/../arm-none-eabi/lib//libc.a(lib_a-strcat.o)
 .debug_frame   0x000079d0       0x30 /home/leon/riotboard/arm-2012.09/bin/../arm-none-eabi/lib//libc.a(lib_a-strcmp.o)
 .debug_frame   0x00007a00       0x20 /home/leon/riotboard/arm-2012.09/bin/../arm-none-eabi/lib//libc.a(lib_a-strcpy.o)
 .debug_frame   0x00007a20       0x20 /home/leon/riotboard/arm-2012.09/bin/../arm-none-eabi/lib//libc.a(lib_a-strlen.o)
 .debug_frame   0x00007a40       0x28 /home/leon/riotboard/arm-2012.09/bin/../arm-none-eabi/lib//libc.a(lib_a-strncasecmp.o)
 .debug_frame   0x00007a68       0x28 /home/leon/riotboard/arm-2012.09/bin/../arm-none-eabi/lib//libc.a(lib_a-strtok.o)
 .debug_frame   0x00007a90       0x3c /home/leon/riotboard/arm-2012.09/bin/../arm-none-eabi/lib//libc.a(lib_a-strtok_r.o)
 .debug_frame   0x00007acc       0x3c /home/leon/riotboard/arm-2012.09/bin/../arm-none-eabi/lib//libc.a(lib_a-svfprintf.o)
 .debug_frame   0x00007b08       0x7c /home/leon/riotboard/arm-2012.09/bin/../arm-none-eabi/lib//libc.a(lib_a-vfiprintf.o)
 .debug_frame   0x00007b84       0x58 /home/leon/riotboard/arm-2012.09/bin/../arm-none-eabi/lib//libc.a(lib_a-vfprintf.o)
 .debug_frame   0x00007bdc       0x40 /home/leon/riotboard/arm-2012.09/bin/../arm-none-eabi/lib//libc.a(lib_a-vprintf.o)
 .debug_frame   0x00007c1c       0x3c /home/leon/riotboard/arm-2012.09/bin/../arm-none-eabi/lib//libc.a(lib_a-wbuf.o)
 .debug_frame   0x00007c58       0x2c /home/leon/riotboard/arm-2012.09/bin/../arm-none-eabi/lib//libc.a(lib_a-wsetup.o)
 .debug_frame   0x00007c84       0x28 /home/leon/riotboard/arm-2012.09/bin/../arm-none-eabi/lib//libc.a(lib_a-abort.o)
 .debug_frame   0x00007cac       0x64 /home/leon/riotboard/arm-2012.09/bin/../arm-none-eabi/lib//libc.a(lib_a-dtoa.o)
 .debug_frame   0x00007d10       0x48 /home/leon/riotboard/arm-2012.09/bin/../arm-none-eabi/lib//libc.a(lib_a-fflush.o)
 .debug_frame   0x00007d58      0x134 /home/leon/riotboard/arm-2012.09/bin/../arm-none-eabi/lib//libc.a(lib_a-findfp.o)
 .debug_frame   0x00007e8c       0x50 /home/leon/riotboard/arm-2012.09/bin/../arm-none-eabi/lib//libc.a(lib_a-fputwc.o)
 .debug_frame   0x00007edc       0x50 /home/leon/riotboard/arm-2012.09/bin/../arm-none-eabi/lib//libc.a(lib_a-freer.o)
 .debug_frame   0x00007f2c       0x38 /home/leon/riotboard/arm-2012.09/bin/../arm-none-eabi/lib//libc.a(lib_a-fvwrite.o)
 .debug_frame   0x00007f64       0x54 /home/leon/riotboard/arm-2012.09/bin/../arm-none-eabi/lib//libc.a(lib_a-fwalk.o)
 .debug_frame   0x00007fb8       0x98 /home/leon/riotboard/arm-2012.09/bin/../arm-none-eabi/lib//libc.a(lib_a-locale.o)
 .debug_frame   0x00008050       0x30 /home/leon/riotboard/arm-2012.09/bin/../arm-none-eabi/lib//libc.a(lib_a-makebuf.o)
 .debug_frame   0x00008080       0x2c /home/leon/riotboard/arm-2012.09/bin/../arm-none-eabi/lib//libc.a(lib_a-memchr.o)
 .debug_frame   0x000080ac       0x2c /home/leon/riotboard/arm-2012.09/bin/../arm-none-eabi/lib//libc.a(lib_a-memmove.o)
 .debug_frame   0x000080d8      0x220 /home/leon/riotboard/arm-2012.09/bin/../arm-none-eabi/lib//libc.a(lib_a-mprec.o)
 .debug_frame   0x000082f8       0x68 /home/leon/riotboard/arm-2012.09/bin/../arm-none-eabi/lib//libc.a(lib_a-reent.o)
 .debug_frame   0x00008360       0x44 /home/leon/riotboard/arm-2012.09/bin/../arm-none-eabi/lib//libc.a(lib_a-refill.o)
 .debug_frame   0x000083a4       0x20 /home/leon/riotboard/arm-2012.09/bin/../arm-none-eabi/lib//libc.a(lib_a-s_fpclassify.o)
 .debug_frame   0x000083c4       0xc0 /home/leon/riotboard/arm-2012.09/bin/../arm-none-eabi/lib//libc.a(lib_a-signal.o)
 .debug_frame   0x00008484       0x44 /home/leon/riotboard/arm-2012.09/bin/../arm-none-eabi/lib//libc.a(lib_a-signalr.o)
 .debug_frame   0x000084c8       0x88 /home/leon/riotboard/arm-2012.09/bin/../arm-none-eabi/lib//libc.a(lib_a-stdio.o)
 .debug_frame   0x00008550       0x64 /home/leon/riotboard/arm-2012.09/bin/../arm-none-eabi/lib//libc.a(lib_a-svfiprintf.o)
 .debug_frame   0x000085b4       0x58 /home/leon/riotboard/arm-2012.09/bin/../arm-none-eabi/lib//libc.a(lib_a-wcrtomb.o)
 .debug_frame   0x0000860c       0x44 /home/leon/riotboard/arm-2012.09/bin/../arm-none-eabi/lib//libc.a(lib_a-wctomb_r.o)
 .debug_frame   0x00008650       0x2c /home/leon/riotboard/arm-2012.09/bin/../arm-none-eabi/lib//libc.a(lib_a-writer.o)
 .debug_frame   0x0000867c       0x28 /home/leon/riotboard/arm-2012.09/bin/../arm-none-eabi/lib//libc.a(lib_a-callocr.o)
 .debug_frame   0x000086a4       0x2c /home/leon/riotboard/arm-2012.09/bin/../arm-none-eabi/lib//libc.a(lib_a-closer.o)
 .debug_frame   0x000086d0       0x3c /home/leon/riotboard/arm-2012.09/bin/../arm-none-eabi/lib//libc.a(lib_a-fclose.o)
 .debug_frame   0x0000870c       0x2c /home/leon/riotboard/arm-2012.09/bin/../arm-none-eabi/lib//libc.a(lib_a-fstatr.o)
 .debug_frame   0x00008738       0x2c /home/leon/riotboard/arm-2012.09/bin/../arm-none-eabi/lib//libc.a(lib_a-isattyr.o)
 .debug_frame   0x00008764       0x2c /home/leon/riotboard/arm-2012.09/bin/../arm-none-eabi/lib//libc.a(lib_a-lseekr.o)
 .debug_frame   0x00008790       0x2c /home/leon/riotboard/arm-2012.09/bin/../arm-none-eabi/lib//libc.a(lib_a-readr.o)
 .debug_frame   0x000087bc       0x20 /home/leon/riotboard/arm-2012.09/bin/../lib/gcc/arm-none-eabi/4.7.2//libgcc.a(_udivsi3.o)
 .debug_frame   0x000087dc       0x20 /home/leon/riotboard/arm-2012.09/bin/../lib/gcc/arm-none-eabi/4.7.2//libgcc.a(_divsi3.o)
 .debug_frame   0x000087fc       0x54 /home/leon/riotboard/arm-2012.09/bin/../lib/gcc/arm-none-eabi/4.7.2//libgcc.a(bpabi.o)
 .debug_frame   0x00008850       0x38 /home/leon/riotboard/arm-2012.09/bin/../lib/gcc/arm-none-eabi/4.7.2//libgcc.a(_divdi3.o)
 .debug_frame   0x00008888       0x38 /home/leon/riotboard/arm-2012.09/bin/../lib/gcc/arm-none-eabi/4.7.2//libgcc.a(_udivdi3.o)
 .debug_frame   0x000088c0      0x290 /home/leon/git/swp-report/iMX6_Platform_SDK/output/mx6sdl/lib/libsdk.a(runtime_support.o)

.debug_ranges   0x00000000       0x48
 .debug_ranges  0x00000000       0x30 /home/leon/git/swp-report/iMX6_Platform_SDK/output/mx6sdl/lib/libsdk.a(menu.o)
 .debug_ranges  0x00000030       0x18 /home/leon/git/swp-report/iMX6_Platform_SDK/output/mx6sdl/lib/libsdk.a(system_util.o)

Cross Reference Table

Symbol                                            File
AT45DB321D_id                                     /home/leon/git/swp-report/iMX6_Platform_SDK/output/mx6sdl/obds/smart_device_rev_a/obj/apps/obds/src/tests/imx_spi_nor_test.o
Audio_ChannelCount                                /home/leon/git/swp-report/iMX6_Platform_SDK/output/mx6sdl/lib/libsdk.a(hdmi_tx_audio.o)
CPU_Tests                                         /home/leon/git/swp-report/iMX6_Platform_SDK/output/mx6sdl/obds/smart_device_rev_a/obj/apps/obds/src/obds.o
DA9053_Read                                       /home/leon/git/swp-report/iMX6_Platform_SDK/output/mx6sdl/obds/smart_device_rev_a/obj/apps/obds/src/tests/touch_screen.o
DA9053_Write                                      /home/leon/git/swp-report/iMX6_Platform_SDK/output/mx6sdl/obds/smart_device_rev_a/obj/apps/obds/src/tests/touch_screen.o
Delay4Reload                                      /home/leon/git/swp-report/iMX6_Platform_SDK/output/mx6sdl/lib/libsdk.a(ocotp.o)
IRQ_HDLR                                          /home/leon/git/swp-report/iMX6_Platform_SDK/output/mx6sdl/lib/libsdk.a(interrupt.o)
                                                  /home/leon/git/swp-report/iMX6_Platform_SDK/output/mx6sdl/lib/libsdk.a(vectors.o)
KSZ9021RN_test_main                               /home/leon/git/swp-report/iMX6_Platform_SDK/output/mx6sdl/obds/smart_device_rev_a/obj/apps/obds/src/tests/enet_mx6dldq_test.o
M25P32_id                                         /home/leon/git/swp-report/iMX6_Platform_SDK/output/mx6sdl/obds/smart_device_rev_a/obj/apps/obds/src/tests/imx_spi_nor_test.o
MenuList_All_Tests                                /home/leon/git/swp-report/iMX6_Platform_SDK/output/mx6sdl/obds/smart_device_rev_a/obj/apps/obds/src/obds.o
Menu_Commands                                     /home/leon/git/swp-report/iMX6_Platform_SDK/output/mx6sdl/obds/smart_device_rev_a/obj/apps/obds/src/obds.o
PLL1_OUTPUT                                       /home/leon/git/swp-report/iMX6_Platform_SDK/output/mx6sdl/lib/libsdk.a(ccm_pll.o)
PLL2_OUTPUT                                       /home/leon/git/swp-report/iMX6_Platform_SDK/output/mx6sdl/lib/libsdk.a(ccm_pll.o)
PLL3_OUTPUT                                       /home/leon/git/swp-report/iMX6_Platform_SDK/output/mx6sdl/lib/libsdk.a(ccm_pll.o)
PLL4_OUTPUT                                       /home/leon/git/swp-report/iMX6_Platform_SDK/output/mx6sdl/lib/libsdk.a(ccm_pll.o)
PLL5_OUTPUT                                       /home/leon/git/swp-report/iMX6_Platform_SDK/output/mx6sdl/lib/libsdk.a(ccm_pll.o)
SDHC_UHSI_mode                                    /home/leon/git/swp-report/iMX6_Platform_SDK/output/mx6sdl/obds/smart_device_rev_a/obj/apps/obds/src/tests/mmcsd_test.o
SGTL5000PowerUp_and_clockinit                     /home/leon/git/swp-report/iMX6_Platform_SDK/output/mx6sdl/lib/libboard_smart_device_rev_a.a(board_audio.o)
                                                  /home/leon/git/swp-report/iMX6_Platform_SDK/output/mx6sdl/lib/libsdk.a(sgtl5000.o)
WM8958_DAC_configure                              /home/leon/git/swp-report/iMX6_Platform_SDK/output/mx6sdl/lib/libsdk.a(wm8958_dac.o)
WM8958_DAC_deinit                                 /home/leon/git/swp-report/iMX6_Platform_SDK/output/mx6sdl/lib/libsdk.a(wm8958_dac.o)
WM8958_DAC_init                                   /home/leon/git/swp-report/iMX6_Platform_SDK/output/mx6sdl/lib/libsdk.a(wm8958_dac.o)
WM8958_dump                                       /home/leon/git/swp-report/iMX6_Platform_SDK/output/mx6sdl/lib/libsdk.a(wm8958_dac.o)
WM8962_DAC_configure                              /home/leon/git/swp-report/iMX6_Platform_SDK/output/mx6sdl/lib/libsdk.a(wm8962.o)
WM8962_DAC_deinit                                 /home/leon/git/swp-report/iMX6_Platform_SDK/output/mx6sdl/lib/libsdk.a(wm8962.o)
WM8962_DAC_init                                   /home/leon/git/swp-report/iMX6_Platform_SDK/output/mx6sdl/lib/libsdk.a(wm8962.o)
WM8962_dump                                       /home/leon/git/swp-report/iMX6_Platform_SDK/output/mx6sdl/lib/libsdk.a(wm8962.o)
_Balloc                                           /home/leon/riotboard/arm-2012.09/bin/../arm-none-eabi/lib//libc.a(lib_a-mprec.o)
                                                  /home/leon/riotboard/arm-2012.09/bin/../arm-none-eabi/lib//libc.a(lib_a-dtoa.o)
_Bfree                                            /home/leon/riotboard/arm-2012.09/bin/../arm-none-eabi/lib//libc.a(lib_a-mprec.o)
                                                  /home/leon/riotboard/arm-2012.09/bin/../arm-none-eabi/lib//libc.a(lib_a-dtoa.o)
_ITM_deregisterTMCloneTable                       /home/leon/riotboard/arm-2012.09/bin/../lib/gcc/arm-none-eabi/4.7.2//crtbegin.o
_ITM_registerTMCloneTable                         /home/leon/riotboard/arm-2012.09/bin/../lib/gcc/arm-none-eabi/4.7.2//crtbegin.o
_Jv_RegisterClasses                               /home/leon/riotboard/arm-2012.09/bin/../lib/gcc/arm-none-eabi/4.7.2//crtbegin.o
_PathLocale                                       /home/leon/riotboard/arm-2012.09/bin/../arm-none-eabi/lib//libc.a(lib_a-locale.o)
__TMC_END__                                       /home/leon/riotboard/arm-2012.09/bin/../lib/gcc/arm-none-eabi/4.7.2//crtend.o
                                                  /home/leon/riotboard/arm-2012.09/bin/../lib/gcc/arm-none-eabi/4.7.2//crtbegin.o
__adddf3                                          /home/leon/riotboard/arm-2012.09/bin/../lib/gcc/arm-none-eabi/4.7.2//libgcc.a(_arm_addsubdf3.o)
__aeabi_cdcmpeq                                   /home/leon/riotboard/arm-2012.09/bin/../lib/gcc/arm-none-eabi/4.7.2//libgcc.a(_arm_cmpdf2.o)
__aeabi_cdcmple                                   /home/leon/riotboard/arm-2012.09/bin/../lib/gcc/arm-none-eabi/4.7.2//libgcc.a(_arm_cmpdf2.o)
__aeabi_cdrcmple                                  /home/leon/riotboard/arm-2012.09/bin/../lib/gcc/arm-none-eabi/4.7.2//libgcc.a(_arm_cmpdf2.o)
__aeabi_d2iz                                      /home/leon/riotboard/arm-2012.09/bin/../lib/gcc/arm-none-eabi/4.7.2//libgcc.a(_arm_fixdfsi.o)
                                                  /home/leon/riotboard/arm-2012.09/bin/../arm-none-eabi/lib//libc.a(lib_a-dtoa.o)
__aeabi_dadd                                      /home/leon/riotboard/arm-2012.09/bin/../lib/gcc/arm-none-eabi/4.7.2//libgcc.a(_arm_addsubdf3.o)
                                                  /home/leon/riotboard/arm-2012.09/bin/../arm-none-eabi/lib//libc.a(lib_a-dtoa.o)
__aeabi_dcmpeq                                    /home/leon/riotboard/arm-2012.09/bin/../lib/gcc/arm-none-eabi/4.7.2//libgcc.a(_arm_cmpdf2.o)
                                                  /home/leon/riotboard/arm-2012.09/bin/../arm-none-eabi/lib//libc.a(lib_a-dtoa.o)
                                                  /home/leon/riotboard/arm-2012.09/bin/../arm-none-eabi/lib//libc.a(lib_a-vfprintf.o)
                                                  /home/leon/riotboard/arm-2012.09/bin/../arm-none-eabi/lib//libc.a(lib_a-svfprintf.o)
__aeabi_dcmpge                                    /home/leon/riotboard/arm-2012.09/bin/../lib/gcc/arm-none-eabi/4.7.2//libgcc.a(_arm_cmpdf2.o)
                                                  /home/leon/riotboard/arm-2012.09/bin/../arm-none-eabi/lib//libc.a(lib_a-dtoa.o)
__aeabi_dcmpgt                                    /home/leon/riotboard/arm-2012.09/bin/../lib/gcc/arm-none-eabi/4.7.2//libgcc.a(_arm_cmpdf2.o)
                                                  /home/leon/riotboard/arm-2012.09/bin/../arm-none-eabi/lib//libc.a(lib_a-dtoa.o)
__aeabi_dcmple                                    /home/leon/riotboard/arm-2012.09/bin/../lib/gcc/arm-none-eabi/4.7.2//libgcc.a(_arm_cmpdf2.o)
__aeabi_dcmplt                                    /home/leon/riotboard/arm-2012.09/bin/../lib/gcc/arm-none-eabi/4.7.2//libgcc.a(_arm_cmpdf2.o)
                                                  /home/leon/riotboard/arm-2012.09/bin/../arm-none-eabi/lib//libc.a(lib_a-dtoa.o)
                                                  /home/leon/riotboard/arm-2012.09/bin/../arm-none-eabi/lib//libc.a(lib_a-vfprintf.o)
                                                  /home/leon/riotboard/arm-2012.09/bin/../arm-none-eabi/lib//libc.a(lib_a-svfprintf.o)
__aeabi_ddiv                                      /home/leon/riotboard/arm-2012.09/bin/../lib/gcc/arm-none-eabi/4.7.2//libgcc.a(_arm_muldivdf3.o)
                                                  /home/leon/riotboard/arm-2012.09/bin/../arm-none-eabi/lib//libc.a(lib_a-mprec.o)
                                                  /home/leon/riotboard/arm-2012.09/bin/../arm-none-eabi/lib//libc.a(lib_a-dtoa.o)
__aeabi_dmul                                      /home/leon/riotboard/arm-2012.09/bin/../lib/gcc/arm-none-eabi/4.7.2//libgcc.a(_arm_muldivdf3.o)
                                                  /home/leon/riotboard/arm-2012.09/bin/../arm-none-eabi/lib//libc.a(lib_a-mprec.o)
                                                  /home/leon/riotboard/arm-2012.09/bin/../arm-none-eabi/lib//libc.a(lib_a-dtoa.o)
__aeabi_drsub                                     /home/leon/riotboard/arm-2012.09/bin/../lib/gcc/arm-none-eabi/4.7.2//libgcc.a(_arm_addsubdf3.o)
__aeabi_dsub                                      /home/leon/riotboard/arm-2012.09/bin/../lib/gcc/arm-none-eabi/4.7.2//libgcc.a(_arm_addsubdf3.o)
                                                  /home/leon/riotboard/arm-2012.09/bin/../arm-none-eabi/lib//libc.a(lib_a-dtoa.o)
__aeabi_f2d                                       /home/leon/riotboard/arm-2012.09/bin/../lib/gcc/arm-none-eabi/4.7.2//libgcc.a(_arm_addsubdf3.o)
__aeabi_i2d                                       /home/leon/riotboard/arm-2012.09/bin/../lib/gcc/arm-none-eabi/4.7.2//libgcc.a(_arm_addsubdf3.o)
                                                  /home/leon/riotboard/arm-2012.09/bin/../arm-none-eabi/lib//libc.a(lib_a-dtoa.o)
__aeabi_idiv                                      /home/leon/riotboard/arm-2012.09/bin/../lib/gcc/arm-none-eabi/4.7.2//libgcc.a(_divsi3.o)
                                                  /home/leon/git/swp-report/iMX6_Platform_SDK/output/mx6sdl/lib/libsdk.a(ipu_ic.o)
                                                  /home/leon/git/swp-report/iMX6_Platform_SDK/output/mx6sdl/lib/libsdk.a(usdhc_host.o)
                                                  /home/leon/git/swp-report/iMX6_Platform_SDK/output/mx6sdl/lib/libsdk.a(ipu_common.o)
__aeabi_idiv0                                     /home/leon/riotboard/arm-2012.09/bin/../lib/gcc/arm-none-eabi/4.7.2//libgcc.a(_dvmd_tls.o)
                                                  /home/leon/riotboard/arm-2012.09/bin/../lib/gcc/arm-none-eabi/4.7.2//libgcc.a(_divsi3.o)
                                                  /home/leon/riotboard/arm-2012.09/bin/../lib/gcc/arm-none-eabi/4.7.2//libgcc.a(_udivsi3.o)
__aeabi_idivmod                                   /home/leon/riotboard/arm-2012.09/bin/../lib/gcc/arm-none-eabi/4.7.2//libgcc.a(_divsi3.o)
                                                  /home/leon/git/swp-report/iMX6_Platform_SDK/output/mx6sdl/lib/libsdk.a(usdhc_host.o)
                                                  /home/leon/git/swp-report/iMX6_Platform_SDK/output/mx6sdl/lib/libsdk.a(ipu_common.o)
__aeabi_l2d                                       /home/leon/riotboard/arm-2012.09/bin/../lib/gcc/arm-none-eabi/4.7.2//libgcc.a(_arm_addsubdf3.o)
__aeabi_ldiv0                                     /home/leon/riotboard/arm-2012.09/bin/../lib/gcc/arm-none-eabi/4.7.2//libgcc.a(_dvmd_tls.o)
                                                  /home/leon/riotboard/arm-2012.09/bin/../lib/gcc/arm-none-eabi/4.7.2//libgcc.a(_aeabi_uldivmod.o)
__aeabi_ui2d                                      /home/leon/riotboard/arm-2012.09/bin/../lib/gcc/arm-none-eabi/4.7.2//libgcc.a(_arm_addsubdf3.o)
                                                  /home/leon/riotboard/arm-2012.09/bin/../arm-none-eabi/lib//libc.a(lib_a-dtoa.o)
__aeabi_uidiv                                     /home/leon/riotboard/arm-2012.09/bin/../lib/gcc/arm-none-eabi/4.7.2//libgcc.a(_udivsi3.o)
                                                  /home/leon/riotboard/arm-2012.09/bin/../lib/gcc/arm-none-eabi/4.7.2//libgcc.a(_udivdi3.o)
                                                  /home/leon/riotboard/arm-2012.09/bin/../lib/gcc/arm-none-eabi/4.7.2//libgcc.a(_divdi3.o)
                                                  /home/leon/riotboard/arm-2012.09/bin/../arm-none-eabi/lib//libc.a(lib_a-dtoa.o)
                                                  /home/leon/git/swp-report/iMX6_Platform_SDK/output/mx6sdl/lib/libsdk.a(imx_i2c.o)
                                                  /home/leon/git/swp-report/iMX6_Platform_SDK/output/mx6sdl/lib/libsdk.a(imx-ssi.o)
                                                  /home/leon/git/swp-report/iMX6_Platform_SDK/output/mx6sdl/lib/libsdk.a(ccm_pll.o)
                                                  /home/leon/git/swp-report/iMX6_Platform_SDK/output/mx6sdl/obds/smart_device_rev_a/obj/sdk/drivers/spi/test/imx_spi_nor_atmel.o
__aeabi_uidivmod                                  /home/leon/riotboard/arm-2012.09/bin/../lib/gcc/arm-none-eabi/4.7.2//libgcc.a(_udivsi3.o)
                                                  /home/leon/riotboard/arm-2012.09/bin/../lib/gcc/arm-none-eabi/4.7.2//libgcc.a(_udivdi3.o)
                                                  /home/leon/riotboard/arm-2012.09/bin/../lib/gcc/arm-none-eabi/4.7.2//libgcc.a(_divdi3.o)
                                                  /home/leon/git/swp-report/iMX6_Platform_SDK/output/mx6sdl/obds/smart_device_rev_a/obj/sdk/drivers/spi/test/imx_spi_nor_atmel.o
__aeabi_ul2d                                      /home/leon/riotboard/arm-2012.09/bin/../lib/gcc/arm-none-eabi/4.7.2//libgcc.a(_arm_addsubdf3.o)
__aeabi_uldivmod                                  /home/leon/riotboard/arm-2012.09/bin/../lib/gcc/arm-none-eabi/4.7.2//libgcc.a(_aeabi_uldivmod.o)
                                                  /home/leon/git/swp-report/iMX6_Platform_SDK/output/mx6sdl/lib/libsdk.a(runtime_support.o)
                                                  /home/leon/riotboard/arm-2012.09/bin/../arm-none-eabi/lib//libc.a(lib_a-svfiprintf.o)
                                                  /home/leon/riotboard/arm-2012.09/bin/../arm-none-eabi/lib//libc.a(lib_a-vfprintf.o)
                                                  /home/leon/riotboard/arm-2012.09/bin/../arm-none-eabi/lib//libc.a(lib_a-vfiprintf.o)
                                                  /home/leon/riotboard/arm-2012.09/bin/../arm-none-eabi/lib//libc.a(lib_a-svfprintf.o)
                                                  /home/leon/git/swp-report/iMX6_Platform_SDK/output/mx6sdl/lib/libsdk.a(timer.o)
__any_on                                          /home/leon/riotboard/arm-2012.09/bin/../arm-none-eabi/lib//libc.a(lib_a-mprec.o)
__ascii_wctomb                                    /home/leon/riotboard/arm-2012.09/bin/../arm-none-eabi/lib//libc.a(lib_a-wctomb_r.o)
__assert                                          /home/leon/riotboard/arm-2012.09/bin/../arm-none-eabi/lib//libc.a(lib_a-assert.o)
__assert_func                                     /home/leon/riotboard/arm-2012.09/bin/../arm-none-eabi/lib//libc.a(lib_a-assert.o)
                                                  /home/leon/git/swp-report/iMX6_Platform_SDK/output/mx6sdl/lib/libboard_smart_device_rev_a.a(usdhc_iomux_config.o)
                                                  /home/leon/git/swp-report/iMX6_Platform_SDK/output/mx6sdl/lib/libboard_smart_device_rev_a.a(uart_iomux_config.o)
                                                  /home/leon/git/swp-report/iMX6_Platform_SDK/output/mx6sdl/lib/libboard_smart_device_rev_a.a(ipu_iomux_config.o)
                                                  /home/leon/git/swp-report/iMX6_Platform_SDK/output/mx6sdl/lib/libboard_smart_device_rev_a.a(i2c_iomux_config.o)
                                                  /home/leon/git/swp-report/iMX6_Platform_SDK/output/mx6sdl/lib/libboard_smart_device_rev_a.a(ecspi_iomux_config.o)
                                                  /home/leon/git/swp-report/iMX6_Platform_SDK/output/mx6sdl/lib/libsdk.a(gic.o)
__b2d                                             /home/leon/riotboard/arm-2012.09/bin/../arm-none-eabi/lib//libc.a(lib_a-mprec.o)
__bss_end__                                       /home/leon/git/swp-report/iMX6_Platform_SDK/output/mx6sdl/lib/libsdk.a(startup.o)
__bss_start__                                     /home/leon/git/swp-report/iMX6_Platform_SDK/output/mx6sdl/lib/libsdk.a(startup.o)
__clzsi2                                          /home/leon/riotboard/arm-2012.09/bin/../lib/gcc/arm-none-eabi/4.7.2//libgcc.a(_clzsi2.o)
                                                  /home/leon/riotboard/arm-2012.09/bin/../lib/gcc/arm-none-eabi/4.7.2//libgcc.a(_udivdi3.o)
                                                  /home/leon/riotboard/arm-2012.09/bin/../lib/gcc/arm-none-eabi/4.7.2//libgcc.a(_divdi3.o)
__cmpdf2                                          /home/leon/riotboard/arm-2012.09/bin/../lib/gcc/arm-none-eabi/4.7.2//libgcc.a(_arm_cmpdf2.o)
__copybits                                        /home/leon/riotboard/arm-2012.09/bin/../arm-none-eabi/lib//libc.a(lib_a-mprec.o)
__ctype_ptr__                                     /home/leon/riotboard/arm-2012.09/bin/../arm-none-eabi/lib//libc.a(lib_a-ctype_.o)
                                                  /home/leon/riotboard/arm-2012.09/bin/../arm-none-eabi/lib//libc.a(lib_a-strncasecmp.o)
__d2b                                             /home/leon/riotboard/arm-2012.09/bin/../arm-none-eabi/lib//libc.a(lib_a-mprec.o)
                                                  /home/leon/riotboard/arm-2012.09/bin/../arm-none-eabi/lib//libc.a(lib_a-dtoa.o)
__deregister_frame_info                           /home/leon/riotboard/arm-2012.09/bin/../lib/gcc/arm-none-eabi/4.7.2//crtbegin.o
__divdf3                                          /home/leon/riotboard/arm-2012.09/bin/../lib/gcc/arm-none-eabi/4.7.2//libgcc.a(_arm_muldivdf3.o)
__divdi3                                          /home/leon/riotboard/arm-2012.09/bin/../lib/gcc/arm-none-eabi/4.7.2//libgcc.a(_divdi3.o)
                                                  /home/leon/riotboard/arm-2012.09/bin/../lib/gcc/arm-none-eabi/4.7.2//libgcc.a(bpabi.o)
__divsi3                                          /home/leon/riotboard/arm-2012.09/bin/../lib/gcc/arm-none-eabi/4.7.2//libgcc.a(_divsi3.o)
__dso_handle                                      /home/leon/riotboard/arm-2012.09/bin/../lib/gcc/arm-none-eabi/4.7.2//crtbegin.o
__env                                             /home/leon/git/swp-report/iMX6_Platform_SDK/output/mx6sdl/lib/libsdk.a(runtime_support.o)
__eqdf2                                           /home/leon/riotboard/arm-2012.09/bin/../lib/gcc/arm-none-eabi/4.7.2//libgcc.a(_arm_cmpdf2.o)
__extendsfdf2                                     /home/leon/riotboard/arm-2012.09/bin/../lib/gcc/arm-none-eabi/4.7.2//libgcc.a(_arm_addsubdf3.o)
__fixdfsi                                         /home/leon/riotboard/arm-2012.09/bin/../lib/gcc/arm-none-eabi/4.7.2//libgcc.a(_arm_fixdfsi.o)
__floatdidf                                       /home/leon/riotboard/arm-2012.09/bin/../lib/gcc/arm-none-eabi/4.7.2//libgcc.a(_arm_addsubdf3.o)
__floatsidf                                       /home/leon/riotboard/arm-2012.09/bin/../lib/gcc/arm-none-eabi/4.7.2//libgcc.a(_arm_addsubdf3.o)
__floatundidf                                     /home/leon/riotboard/arm-2012.09/bin/../lib/gcc/arm-none-eabi/4.7.2//libgcc.a(_arm_addsubdf3.o)
__floatunsidf                                     /home/leon/riotboard/arm-2012.09/bin/../lib/gcc/arm-none-eabi/4.7.2//libgcc.a(_arm_addsubdf3.o)
__fp_lock_all                                     /home/leon/riotboard/arm-2012.09/bin/../arm-none-eabi/lib//libc.a(lib_a-findfp.o)
__fp_unlock_all                                   /home/leon/riotboard/arm-2012.09/bin/../arm-none-eabi/lib//libc.a(lib_a-findfp.o)
__fpclassifyd                                     /home/leon/riotboard/arm-2012.09/bin/../arm-none-eabi/lib//libc.a(lib_a-s_fpclassify.o)
                                                  /home/leon/riotboard/arm-2012.09/bin/../arm-none-eabi/lib//libc.a(lib_a-vfprintf.o)
                                                  /home/leon/riotboard/arm-2012.09/bin/../arm-none-eabi/lib//libc.a(lib_a-svfprintf.o)
__gedf2                                           /home/leon/riotboard/arm-2012.09/bin/../lib/gcc/arm-none-eabi/4.7.2//libgcc.a(_arm_cmpdf2.o)
__gnu_ldivmod_helper                              /home/leon/riotboard/arm-2012.09/bin/../lib/gcc/arm-none-eabi/4.7.2//libgcc.a(bpabi.o)
__gnu_uldivmod_helper                             /home/leon/riotboard/arm-2012.09/bin/../lib/gcc/arm-none-eabi/4.7.2//libgcc.a(bpabi.o)
                                                  /home/leon/riotboard/arm-2012.09/bin/../lib/gcc/arm-none-eabi/4.7.2//libgcc.a(_aeabi_uldivmod.o)
__gtdf2                                           /home/leon/riotboard/arm-2012.09/bin/../lib/gcc/arm-none-eabi/4.7.2//libgcc.a(_arm_cmpdf2.o)
__hab_data                                        /home/leon/git/swp-report/iMX6_Platform_SDK/output/mx6sdl/obds/smart_device_rev_a/obj/apps/common/ivt.o
__hi0bits                                         /home/leon/riotboard/arm-2012.09/bin/../arm-none-eabi/lib//libc.a(lib_a-mprec.o)
                                                  /home/leon/riotboard/arm-2012.09/bin/../arm-none-eabi/lib//libc.a(lib_a-dtoa.o)
__i2b                                             /home/leon/riotboard/arm-2012.09/bin/../arm-none-eabi/lib//libc.a(lib_a-mprec.o)
                                                  /home/leon/riotboard/arm-2012.09/bin/../arm-none-eabi/lib//libc.a(lib_a-dtoa.o)
__init_array_end                                  /home/leon/riotboard/arm-2012.09/bin/../arm-none-eabi/lib//libc.a(lib_a-init.o)
__init_array_start                                /home/leon/riotboard/arm-2012.09/bin/../arm-none-eabi/lib//libc.a(lib_a-init.o)
__l1_page_table_start                             /home/leon/git/swp-report/iMX6_Platform_SDK/output/mx6sdl/lib/libsdk.a(mmu.o)
__ledf2                                           /home/leon/riotboard/arm-2012.09/bin/../lib/gcc/arm-none-eabi/4.7.2//libgcc.a(_arm_cmpdf2.o)
__libc_init_array                                 /home/leon/riotboard/arm-2012.09/bin/../arm-none-eabi/lib//libc.a(lib_a-init.o)
                                                  /home/leon/git/swp-report/iMX6_Platform_SDK/output/mx6sdl/lib/libsdk.a(startup.o)
__lo0bits                                         /home/leon/riotboard/arm-2012.09/bin/../arm-none-eabi/lib//libc.a(lib_a-mprec.o)
__locale_charset                                  /home/leon/riotboard/arm-2012.09/bin/../arm-none-eabi/lib//libc.a(lib_a-locale.o)
                                                  /home/leon/riotboard/arm-2012.09/bin/../arm-none-eabi/lib//libc.a(lib_a-wctomb_r.o)
                                                  /home/leon/riotboard/arm-2012.09/bin/../arm-none-eabi/lib//libc.a(lib_a-wcrtomb.o)
__locale_cjk_lang                                 /home/leon/riotboard/arm-2012.09/bin/../arm-none-eabi/lib//libc.a(lib_a-locale.o)
__locale_mb_cur_max                               /home/leon/riotboard/arm-2012.09/bin/../arm-none-eabi/lib//libc.a(lib_a-locale.o)
                                                  /home/leon/riotboard/arm-2012.09/bin/../arm-none-eabi/lib//libc.a(lib_a-fputwc.o)
__locale_msgcharset                               /home/leon/riotboard/arm-2012.09/bin/../arm-none-eabi/lib//libc.a(lib_a-locale.o)
__lshift                                          /home/leon/riotboard/arm-2012.09/bin/../arm-none-eabi/lib//libc.a(lib_a-mprec.o)
                                                  /home/leon/riotboard/arm-2012.09/bin/../arm-none-eabi/lib//libc.a(lib_a-dtoa.o)
__ltdf2                                           /home/leon/riotboard/arm-2012.09/bin/../lib/gcc/arm-none-eabi/4.7.2//libgcc.a(_arm_cmpdf2.o)
__malloc_av_                                      /home/leon/riotboard/arm-2012.09/bin/../arm-none-eabi/lib//libc.a(lib_a-mallocr.o)
                                                  /home/leon/riotboard/arm-2012.09/bin/../arm-none-eabi/lib//libc.a(lib_a-freer.o)
                                                  /home/leon/riotboard/arm-2012.09/bin/../arm-none-eabi/lib//libc.a(lib_a-reallocr.o)
__malloc_current_mallinfo                         /home/leon/riotboard/arm-2012.09/bin/../arm-none-eabi/lib//libc.a(lib_a-mallocr.o)
                                                  /home/leon/riotboard/arm-2012.09/bin/../arm-none-eabi/lib//libc.a(lib_a-freer.o)
__malloc_lock                                     /home/leon/riotboard/arm-2012.09/bin/../arm-none-eabi/lib//libc.a(lib_a-mlock.o)
                                                  /home/leon/riotboard/arm-2012.09/bin/../arm-none-eabi/lib//libc.a(lib_a-freer.o)
                                                  /home/leon/riotboard/arm-2012.09/bin/../arm-none-eabi/lib//libc.a(lib_a-reallocr.o)
                                                  /home/leon/riotboard/arm-2012.09/bin/../arm-none-eabi/lib//libc.a(lib_a-mallocr.o)
__malloc_max_sbrked_mem                           /home/leon/riotboard/arm-2012.09/bin/../arm-none-eabi/lib//libc.a(lib_a-mallocr.o)
__malloc_max_total_mem                            /home/leon/riotboard/arm-2012.09/bin/../arm-none-eabi/lib//libc.a(lib_a-mallocr.o)
__malloc_sbrk_base                                /home/leon/riotboard/arm-2012.09/bin/../arm-none-eabi/lib//libc.a(lib_a-mallocr.o)
                                                  /home/leon/riotboard/arm-2012.09/bin/../arm-none-eabi/lib//libc.a(lib_a-freer.o)
__malloc_top_pad                                  /home/leon/riotboard/arm-2012.09/bin/../arm-none-eabi/lib//libc.a(lib_a-mallocr.o)
                                                  /home/leon/riotboard/arm-2012.09/bin/../arm-none-eabi/lib//libc.a(lib_a-freer.o)
__malloc_trim_threshold                           /home/leon/riotboard/arm-2012.09/bin/../arm-none-eabi/lib//libc.a(lib_a-mallocr.o)
                                                  /home/leon/riotboard/arm-2012.09/bin/../arm-none-eabi/lib//libc.a(lib_a-freer.o)
__malloc_unlock                                   /home/leon/riotboard/arm-2012.09/bin/../arm-none-eabi/lib//libc.a(lib_a-mlock.o)
                                                  /home/leon/riotboard/arm-2012.09/bin/../arm-none-eabi/lib//libc.a(lib_a-freer.o)
                                                  /home/leon/riotboard/arm-2012.09/bin/../arm-none-eabi/lib//libc.a(lib_a-reallocr.o)
                                                  /home/leon/riotboard/arm-2012.09/bin/../arm-none-eabi/lib//libc.a(lib_a-mallocr.o)
__mb_cur_max                                      /home/leon/riotboard/arm-2012.09/bin/../arm-none-eabi/lib//libc.a(lib_a-locale.o)
__mcmp                                            /home/leon/riotboard/arm-2012.09/bin/../arm-none-eabi/lib//libc.a(lib_a-mprec.o)
                                                  /home/leon/riotboard/arm-2012.09/bin/../arm-none-eabi/lib//libc.a(lib_a-dtoa.o)
__mdiff                                           /home/leon/riotboard/arm-2012.09/bin/../arm-none-eabi/lib//libc.a(lib_a-mprec.o)
                                                  /home/leon/riotboard/arm-2012.09/bin/../arm-none-eabi/lib//libc.a(lib_a-dtoa.o)
__mlocale_changed                                 /home/leon/riotboard/arm-2012.09/bin/../arm-none-eabi/lib//libc.a(lib_a-locale.o)
__mprec_bigtens                                   /home/leon/riotboard/arm-2012.09/bin/../arm-none-eabi/lib//libc.a(lib_a-mprec.o)
                                                  /home/leon/riotboard/arm-2012.09/bin/../arm-none-eabi/lib//libc.a(lib_a-dtoa.o)
__mprec_tens                                      /home/leon/riotboard/arm-2012.09/bin/../arm-none-eabi/lib//libc.a(lib_a-mprec.o)
                                                  /home/leon/riotboard/arm-2012.09/bin/../arm-none-eabi/lib//libc.a(lib_a-dtoa.o)
__mprec_tinytens                                  /home/leon/riotboard/arm-2012.09/bin/../arm-none-eabi/lib//libc.a(lib_a-mprec.o)
__muldf3                                          /home/leon/riotboard/arm-2012.09/bin/../lib/gcc/arm-none-eabi/4.7.2//libgcc.a(_arm_muldivdf3.o)
__multadd                                         /home/leon/riotboard/arm-2012.09/bin/../arm-none-eabi/lib//libc.a(lib_a-mprec.o)
                                                  /home/leon/riotboard/arm-2012.09/bin/../arm-none-eabi/lib//libc.a(lib_a-dtoa.o)
__multiply                                        /home/leon/riotboard/arm-2012.09/bin/../arm-none-eabi/lib//libc.a(lib_a-mprec.o)
                                                  /home/leon/riotboard/arm-2012.09/bin/../arm-none-eabi/lib//libc.a(lib_a-dtoa.o)
__nedf2                                           /home/leon/riotboard/arm-2012.09/bin/../lib/gcc/arm-none-eabi/4.7.2//libgcc.a(_arm_cmpdf2.o)
__nlocale_changed                                 /home/leon/riotboard/arm-2012.09/bin/../arm-none-eabi/lib//libc.a(lib_a-locale.o)
__pow5mult                                        /home/leon/riotboard/arm-2012.09/bin/../arm-none-eabi/lib//libc.a(lib_a-mprec.o)
                                                  /home/leon/riotboard/arm-2012.09/bin/../arm-none-eabi/lib//libc.a(lib_a-dtoa.o)
__preinit_array_end                               /home/leon/riotboard/arm-2012.09/bin/../arm-none-eabi/lib//libc.a(lib_a-init.o)
__preinit_array_start                             /home/leon/riotboard/arm-2012.09/bin/../arm-none-eabi/lib//libc.a(lib_a-init.o)
__ram_vectors_end                                 /home/leon/git/swp-report/iMX6_Platform_SDK/output/mx6sdl/lib/libsdk.a(startup.o)
__ram_vectors_start                               /home/leon/git/swp-report/iMX6_Platform_SDK/output/mx6sdl/lib/libsdk.a(startup.o)
__ratio                                           /home/leon/riotboard/arm-2012.09/bin/../arm-none-eabi/lib//libc.a(lib_a-mprec.o)
__register_frame_info                             /home/leon/riotboard/arm-2012.09/bin/../lib/gcc/arm-none-eabi/4.7.2//crtbegin.o
__s2b                                             /home/leon/riotboard/arm-2012.09/bin/../arm-none-eabi/lib//libc.a(lib_a-mprec.o)
__sclose                                          /home/leon/riotboard/arm-2012.09/bin/../arm-none-eabi/lib//libc.a(lib_a-stdio.o)
                                                  /home/leon/riotboard/arm-2012.09/bin/../arm-none-eabi/lib//libc.a(lib_a-findfp.o)
__seofread                                        /home/leon/riotboard/arm-2012.09/bin/../arm-none-eabi/lib//libc.a(lib_a-stdio.o)
__sfmoreglue                                      /home/leon/riotboard/arm-2012.09/bin/../arm-none-eabi/lib//libc.a(lib_a-findfp.o)
__sfp                                             /home/leon/riotboard/arm-2012.09/bin/../arm-none-eabi/lib//libc.a(lib_a-findfp.o)
__sfp_lock_acquire                                /home/leon/riotboard/arm-2012.09/bin/../arm-none-eabi/lib//libc.a(lib_a-findfp.o)
                                                  /home/leon/riotboard/arm-2012.09/bin/../arm-none-eabi/lib//libc.a(lib_a-fclose.o)
                                                  /home/leon/riotboard/arm-2012.09/bin/../arm-none-eabi/lib//libc.a(lib_a-fwalk.o)
__sfp_lock_release                                /home/leon/riotboard/arm-2012.09/bin/../arm-none-eabi/lib//libc.a(lib_a-findfp.o)
                                                  /home/leon/riotboard/arm-2012.09/bin/../arm-none-eabi/lib//libc.a(lib_a-fclose.o)
                                                  /home/leon/riotboard/arm-2012.09/bin/../arm-none-eabi/lib//libc.a(lib_a-fwalk.o)
__sfvwrite_r                                      /home/leon/riotboard/arm-2012.09/bin/../arm-none-eabi/lib//libc.a(lib_a-fvwrite.o)
                                                  /home/leon/riotboard/arm-2012.09/bin/../arm-none-eabi/lib//libc.a(lib_a-vfiprintf.o)
__sigtramp                                        /home/leon/riotboard/arm-2012.09/bin/../arm-none-eabi/lib//libc.a(lib_a-signal.o)
__sigtramp_r                                      /home/leon/riotboard/arm-2012.09/bin/../arm-none-eabi/lib//libc.a(lib_a-signal.o)
__sinit                                           /home/leon/riotboard/arm-2012.09/bin/../arm-none-eabi/lib//libc.a(lib_a-findfp.o)
                                                  /home/leon/riotboard/arm-2012.09/bin/../arm-none-eabi/lib//libc.a(lib_a-fclose.o)
                                                  /home/leon/riotboard/arm-2012.09/bin/../arm-none-eabi/lib//libc.a(lib_a-refill.o)
                                                  /home/leon/riotboard/arm-2012.09/bin/../arm-none-eabi/lib//libc.a(lib_a-fputwc.o)
                                                  /home/leon/riotboard/arm-2012.09/bin/../arm-none-eabi/lib//libc.a(lib_a-fflush.o)
                                                  /home/leon/riotboard/arm-2012.09/bin/../arm-none-eabi/lib//libc.a(lib_a-wsetup.o)
                                                  /home/leon/riotboard/arm-2012.09/bin/../arm-none-eabi/lib//libc.a(lib_a-wbuf.o)
                                                  /home/leon/riotboard/arm-2012.09/bin/../arm-none-eabi/lib//libc.a(lib_a-vfprintf.o)
                                                  /home/leon/riotboard/arm-2012.09/bin/../arm-none-eabi/lib//libc.a(lib_a-vfiprintf.o)
                                                  /home/leon/riotboard/arm-2012.09/bin/../arm-none-eabi/lib//libc.a(lib_a-rget.o)
                                                  /home/leon/riotboard/arm-2012.09/bin/../arm-none-eabi/lib//libc.a(lib_a-putc.o)
                                                  /home/leon/riotboard/arm-2012.09/bin/../arm-none-eabi/lib//libc.a(lib_a-fputc.o)
__sinit_lock_acquire                              /home/leon/riotboard/arm-2012.09/bin/../arm-none-eabi/lib//libc.a(lib_a-findfp.o)
__sinit_lock_release                              /home/leon/riotboard/arm-2012.09/bin/../arm-none-eabi/lib//libc.a(lib_a-findfp.o)
__smakebuf_r                                      /home/leon/riotboard/arm-2012.09/bin/../arm-none-eabi/lib//libc.a(lib_a-makebuf.o)
                                                  /home/leon/riotboard/arm-2012.09/bin/../arm-none-eabi/lib//libc.a(lib_a-refill.o)
                                                  /home/leon/riotboard/arm-2012.09/bin/../arm-none-eabi/lib//libc.a(lib_a-wsetup.o)
__sprint_r                                        /home/leon/riotboard/arm-2012.09/bin/../arm-none-eabi/lib//libc.a(lib_a-vfiprintf.o)
                                                  /home/leon/riotboard/arm-2012.09/bin/../arm-none-eabi/lib//libc.a(lib_a-vfprintf.o)
__sread                                           /home/leon/riotboard/arm-2012.09/bin/../arm-none-eabi/lib//libc.a(lib_a-stdio.o)
                                                  /home/leon/riotboard/arm-2012.09/bin/../arm-none-eabi/lib//libc.a(lib_a-findfp.o)
__srefill_r                                       /home/leon/riotboard/arm-2012.09/bin/../arm-none-eabi/lib//libc.a(lib_a-refill.o)
                                                  /home/leon/riotboard/arm-2012.09/bin/../arm-none-eabi/lib//libc.a(lib_a-rget.o)
__srget                                           /home/leon/riotboard/arm-2012.09/bin/../arm-none-eabi/lib//libc.a(lib_a-rget.o)
__srget_r                                         /home/leon/riotboard/arm-2012.09/bin/../arm-none-eabi/lib//libc.a(lib_a-rget.o)
                                                  /home/leon/git/swp-report/iMX6_Platform_SDK/output/mx6sdl/lib/libsdk.a(usb_common.o)
                                                  /home/leon/git/swp-report/iMX6_Platform_SDK/output/mx6sdl/lib/libsdk.a(system_util.o)
                                                  /home/leon/git/swp-report/iMX6_Platform_SDK/output/mx6sdl/lib/libsdk.a(menu.o)
                                                  /home/leon/git/swp-report/iMX6_Platform_SDK/output/mx6sdl/obds/smart_device_rev_a/obj/sdk/drivers/usdhc/test/usdhc_test.o
                                                  /home/leon/git/swp-report/iMX6_Platform_SDK/output/mx6sdl/obds/smart_device_rev_a/obj/sdk/drivers/uart/test/uart_test.o
                                                  /home/leon/git/swp-report/iMX6_Platform_SDK/output/mx6sdl/obds/smart_device_rev_a/obj/sdk/drivers/ipu/test/ips_display.o
                                                  /home/leon/git/swp-report/iMX6_Platform_SDK/output/mx6sdl/obds/smart_device_rev_a/obj/sdk/drivers/epdc/test/epdc_test.o
                                                  /home/leon/git/swp-report/iMX6_Platform_SDK/output/mx6sdl/obds/smart_device_rev_a/obj/sdk/drivers/camera/test/sensor_capture.o
                                                  /home/leon/git/swp-report/iMX6_Platform_SDK/output/mx6sdl/obds/smart_device_rev_a/obj/sdk/drivers/camera/test/csi_test_mode.o
                                                  /home/leon/git/swp-report/iMX6_Platform_SDK/output/mx6sdl/obds/smart_device_rev_a/obj/sdk/drivers/camera/test/camera_test.o
                                                  /home/leon/git/swp-report/iMX6_Platform_SDK/output/mx6sdl/obds/smart_device_rev_a/obj/apps/obds/src/tests/video_dec_adv7180.o
                                                  /home/leon/git/swp-report/iMX6_Platform_SDK/output/mx6sdl/obds/smart_device_rev_a/obj/apps/obds/src/tests/touch_screen_max11801.o
                                                  /home/leon/git/swp-report/iMX6_Platform_SDK/output/mx6sdl/obds/smart_device_rev_a/obj/apps/obds/src/tests/touch_screen.o
                                                  /home/leon/git/swp-report/iMX6_Platform_SDK/output/mx6sdl/obds/smart_device_rev_a/obj/apps/obds/src/tests/touch_button_test.o
                                                  /home/leon/git/swp-report/iMX6_Platform_SDK/output/mx6sdl/obds/smart_device_rev_a/obj/apps/obds/src/tests/program_mac_address.o
                                                  /home/leon/git/swp-report/iMX6_Platform_SDK/output/mx6sdl/obds/smart_device_rev_a/obj/apps/obds/src/tests/pmic_lt3589.o
                                                  /home/leon/git/swp-report/iMX6_Platform_SDK/output/mx6sdl/obds/smart_device_rev_a/obj/apps/obds/src/tests/i2c_device_id_check_p1003_tsc.o
                                                  /home/leon/git/swp-report/iMX6_Platform_SDK/output/mx6sdl/obds/smart_device_rev_a/obj/apps/obds/src/tests/i2c_device_id_check_mma8451.o
                                                  /home/leon/git/swp-report/iMX6_Platform_SDK/output/mx6sdl/obds/smart_device_rev_a/obj/apps/obds/src/tests/i2c_device_id_check_mma8450.o
                                                  /home/leon/git/swp-report/iMX6_Platform_SDK/output/mx6sdl/obds/smart_device_rev_a/obj/apps/obds/src/tests/i2c_check_light_sensor_isl29023.o
                                                  /home/leon/git/swp-report/iMX6_Platform_SDK/output/mx6sdl/obds/smart_device_rev_a/obj/apps/obds/src/tests/gpio_led.o
                                                  /home/leon/git/swp-report/iMX6_Platform_SDK/output/mx6sdl/obds/smart_device_rev_a/obj/apps/obds/src/tests/display_test.o
                                                  /home/leon/git/swp-report/iMX6_Platform_SDK/output/mx6sdl/obds/smart_device_rev_a/obj/apps/obds/src/tests/audio_ssi_test.o
                                                  /home/leon/git/swp-report/iMX6_Platform_SDK/output/mx6sdl/obds/smart_device_rev_a/obj/apps/obds/src/tests/audio_esai_test.o
                                                  /home/leon/git/swp-report/iMX6_Platform_SDK/output/mx6sdl/obds/smart_device_rev_a/obj/apps/obds/src/tests/android_buttons_test.o
__sseek                                           /home/leon/riotboard/arm-2012.09/bin/../arm-none-eabi/lib//libc.a(lib_a-stdio.o)
                                                  /home/leon/riotboard/arm-2012.09/bin/../arm-none-eabi/lib//libc.a(lib_a-makebuf.o)
                                                  /home/leon/riotboard/arm-2012.09/bin/../arm-none-eabi/lib//libc.a(lib_a-findfp.o)
__ssprint_r                                       /home/leon/riotboard/arm-2012.09/bin/../arm-none-eabi/lib//libc.a(lib_a-svfiprintf.o)
                                                  /home/leon/riotboard/arm-2012.09/bin/../arm-none-eabi/lib//libc.a(lib_a-svfprintf.o)
__stacks_start                                    /home/leon/git/swp-report/iMX6_Platform_SDK/output/mx6sdl/lib/libsdk.a(startup.o)
__start_boot_data                                 /home/leon/git/swp-report/iMX6_Platform_SDK/output/mx6sdl/obds/smart_device_rev_a/obj/apps/common/ivt.o
__strtok_r                                        /home/leon/riotboard/arm-2012.09/bin/../arm-none-eabi/lib//libc.a(lib_a-strtok_r.o)
                                                  /home/leon/riotboard/arm-2012.09/bin/../arm-none-eabi/lib//libc.a(lib_a-strtok.o)
__subdf3                                          /home/leon/riotboard/arm-2012.09/bin/../lib/gcc/arm-none-eabi/4.7.2//libgcc.a(_arm_addsubdf3.o)
__swbuf                                           /home/leon/riotboard/arm-2012.09/bin/../arm-none-eabi/lib//libc.a(lib_a-wbuf.o)
__swbuf_r                                         /home/leon/riotboard/arm-2012.09/bin/../arm-none-eabi/lib//libc.a(lib_a-wbuf.o)
                                                  /home/leon/riotboard/arm-2012.09/bin/../arm-none-eabi/lib//libc.a(lib_a-fputwc.o)
                                                  /home/leon/riotboard/arm-2012.09/bin/../arm-none-eabi/lib//libc.a(lib_a-putc.o)
__swrite                                          /home/leon/riotboard/arm-2012.09/bin/../arm-none-eabi/lib//libc.a(lib_a-stdio.o)
                                                  /home/leon/riotboard/arm-2012.09/bin/../arm-none-eabi/lib//libc.a(lib_a-findfp.o)
__swsetup_r                                       /home/leon/riotboard/arm-2012.09/bin/../arm-none-eabi/lib//libc.a(lib_a-wsetup.o)
                                                  /home/leon/riotboard/arm-2012.09/bin/../arm-none-eabi/lib//libc.a(lib_a-fvwrite.o)
                                                  /home/leon/riotboard/arm-2012.09/bin/../arm-none-eabi/lib//libc.a(lib_a-wbuf.o)
                                                  /home/leon/riotboard/arm-2012.09/bin/../arm-none-eabi/lib//libc.a(lib_a-vfprintf.o)
                                                  /home/leon/riotboard/arm-2012.09/bin/../arm-none-eabi/lib//libc.a(lib_a-vfiprintf.o)
__udivdi3                                         /home/leon/riotboard/arm-2012.09/bin/../lib/gcc/arm-none-eabi/4.7.2//libgcc.a(_udivdi3.o)
                                                  /home/leon/riotboard/arm-2012.09/bin/../lib/gcc/arm-none-eabi/4.7.2//libgcc.a(bpabi.o)
__udivsi3                                         /home/leon/riotboard/arm-2012.09/bin/../lib/gcc/arm-none-eabi/4.7.2//libgcc.a(_udivsi3.o)
__ulp                                             /home/leon/riotboard/arm-2012.09/bin/../arm-none-eabi/lib//libc.a(lib_a-mprec.o)
__wctomb                                          /home/leon/riotboard/arm-2012.09/bin/../arm-none-eabi/lib//libc.a(lib_a-wctomb_r.o)
                                                  /home/leon/riotboard/arm-2012.09/bin/../arm-none-eabi/lib//libc.a(lib_a-wcrtomb.o)
_calloc_r                                         /home/leon/riotboard/arm-2012.09/bin/../arm-none-eabi/lib//libc.a(lib_a-callocr.o)
                                                  /home/leon/riotboard/arm-2012.09/bin/../arm-none-eabi/lib//libc.a(lib_a-mprec.o)
_cleanup                                          /home/leon/riotboard/arm-2012.09/bin/../arm-none-eabi/lib//libc.a(lib_a-findfp.o)
_cleanup_r                                        /home/leon/riotboard/arm-2012.09/bin/../arm-none-eabi/lib//libc.a(lib_a-findfp.o)
                                                  /home/leon/riotboard/arm-2012.09/bin/../arm-none-eabi/lib//libc.a(lib_a-makebuf.o)
_close                                            /home/leon/git/swp-report/iMX6_Platform_SDK/output/mx6sdl/lib/libsdk.a(runtime_support.o)
                                                  /home/leon/riotboard/arm-2012.09/bin/../arm-none-eabi/lib//libc.a(lib_a-closer.o)
_close_r                                          /home/leon/riotboard/arm-2012.09/bin/../arm-none-eabi/lib//libc.a(lib_a-closer.o)
                                                  /home/leon/riotboard/arm-2012.09/bin/../arm-none-eabi/lib//libc.a(lib_a-stdio.o)
_ctype_                                           /home/leon/riotboard/arm-2012.09/bin/../arm-none-eabi/lib//libc.a(lib_a-ctype_.o)
_dtoa_r                                           /home/leon/riotboard/arm-2012.09/bin/../arm-none-eabi/lib//libc.a(lib_a-dtoa.o)
                                                  /home/leon/riotboard/arm-2012.09/bin/../arm-none-eabi/lib//libc.a(lib_a-vfprintf.o)
                                                  /home/leon/riotboard/arm-2012.09/bin/../arm-none-eabi/lib//libc.a(lib_a-svfprintf.o)
_execve                                           /home/leon/git/swp-report/iMX6_Platform_SDK/output/mx6sdl/lib/libsdk.a(runtime_support.o)
_exit                                             /home/leon/git/swp-report/iMX6_Platform_SDK/output/mx6sdl/lib/libsdk.a(runtime_support.o)
                                                  /home/leon/riotboard/arm-2012.09/bin/../arm-none-eabi/lib//libc.a(lib_a-abort.o)
_fclose_r                                         /home/leon/riotboard/arm-2012.09/bin/../arm-none-eabi/lib//libc.a(lib_a-fclose.o)
_fflush_r                                         /home/leon/riotboard/arm-2012.09/bin/../arm-none-eabi/lib//libc.a(lib_a-fflush.o)
                                                  /home/leon/riotboard/arm-2012.09/bin/../arm-none-eabi/lib//libc.a(lib_a-fclose.o)
                                                  /home/leon/riotboard/arm-2012.09/bin/../arm-none-eabi/lib//libc.a(lib_a-refill.o)
                                                  /home/leon/riotboard/arm-2012.09/bin/../arm-none-eabi/lib//libc.a(lib_a-fvwrite.o)
                                                  /home/leon/riotboard/arm-2012.09/bin/../arm-none-eabi/lib//libc.a(lib_a-wbuf.o)
                                                  /home/leon/riotboard/arm-2012.09/bin/../arm-none-eabi/lib//libc.a(lib_a-vfprintf.o)
                                                  /home/leon/riotboard/arm-2012.09/bin/../arm-none-eabi/lib//libc.a(lib_a-vfiprintf.o)
_fini                                             /home/leon/riotboard/arm-2012.09/bin/../lib/gcc/arm-none-eabi/4.7.2//crti.o
_fiprintf_r                                       /home/leon/riotboard/arm-2012.09/bin/../arm-none-eabi/lib//libc.a(lib_a-fiprintf.o)
_fork                                             /home/leon/git/swp-report/iMX6_Platform_SDK/output/mx6sdl/lib/libsdk.a(runtime_support.o)
_fputc_r                                          /home/leon/riotboard/arm-2012.09/bin/../arm-none-eabi/lib//libc.a(lib_a-fputc.o)
_fputwc_r                                         /home/leon/riotboard/arm-2012.09/bin/../arm-none-eabi/lib//libc.a(lib_a-fputwc.o)
                                                  /home/leon/riotboard/arm-2012.09/bin/../arm-none-eabi/lib//libc.a(lib_a-vfiprintf.o)
_free_r                                           /home/leon/riotboard/arm-2012.09/bin/../arm-none-eabi/lib//libc.a(lib_a-freer.o)
                                                  /home/leon/riotboard/arm-2012.09/bin/../arm-none-eabi/lib//libc.a(lib_a-fclose.o)
                                                  /home/leon/riotboard/arm-2012.09/bin/../arm-none-eabi/lib//libc.a(lib_a-svfiprintf.o)
                                                  /home/leon/riotboard/arm-2012.09/bin/../arm-none-eabi/lib//libc.a(lib_a-refill.o)
                                                  /home/leon/riotboard/arm-2012.09/bin/../arm-none-eabi/lib//libc.a(lib_a-reent.o)
                                                  /home/leon/riotboard/arm-2012.09/bin/../arm-none-eabi/lib//libc.a(lib_a-fvwrite.o)
                                                  /home/leon/riotboard/arm-2012.09/bin/../arm-none-eabi/lib//libc.a(lib_a-fflush.o)
                                                  /home/leon/riotboard/arm-2012.09/bin/../arm-none-eabi/lib//libc.a(lib_a-wsetup.o)
                                                  /home/leon/riotboard/arm-2012.09/bin/../arm-none-eabi/lib//libc.a(lib_a-reallocr.o)
                                                  /home/leon/riotboard/arm-2012.09/bin/../arm-none-eabi/lib//libc.a(lib_a-mallocr.o)
                                                  /home/leon/riotboard/arm-2012.09/bin/../arm-none-eabi/lib//libc.a(lib_a-malloc.o)
_fstat                                            /home/leon/git/swp-report/iMX6_Platform_SDK/output/mx6sdl/lib/libsdk.a(runtime_support.o)
                                                  /home/leon/riotboard/arm-2012.09/bin/../arm-none-eabi/lib//libc.a(lib_a-fstatr.o)
_fstat_r                                          /home/leon/riotboard/arm-2012.09/bin/../arm-none-eabi/lib//libc.a(lib_a-fstatr.o)
                                                  /home/leon/riotboard/arm-2012.09/bin/../arm-none-eabi/lib//libc.a(lib_a-makebuf.o)
_fwalk                                            /home/leon/riotboard/arm-2012.09/bin/../arm-none-eabi/lib//libc.a(lib_a-fwalk.o)
                                                  /home/leon/riotboard/arm-2012.09/bin/../arm-none-eabi/lib//libc.a(lib_a-refill.o)
                                                  /home/leon/riotboard/arm-2012.09/bin/../arm-none-eabi/lib//libc.a(lib_a-findfp.o)
_fwalk_reent                                      /home/leon/riotboard/arm-2012.09/bin/../arm-none-eabi/lib//libc.a(lib_a-fwalk.o)
                                                  /home/leon/riotboard/arm-2012.09/bin/../arm-none-eabi/lib//libc.a(lib_a-fflush.o)
_getpid                                           /home/leon/git/swp-report/iMX6_Platform_SDK/output/mx6sdl/lib/libsdk.a(runtime_support.o)
                                                  /home/leon/riotboard/arm-2012.09/bin/../arm-none-eabi/lib//libc.a(lib_a-signalr.o)
_getpid_r                                         /home/leon/riotboard/arm-2012.09/bin/../arm-none-eabi/lib//libc.a(lib_a-signalr.o)
                                                  /home/leon/riotboard/arm-2012.09/bin/../arm-none-eabi/lib//libc.a(lib_a-signal.o)
_gettimeofday                                     /home/leon/git/swp-report/iMX6_Platform_SDK/output/mx6sdl/lib/libsdk.a(runtime_support.o)
_global_impure_ptr                                /home/leon/riotboard/arm-2012.09/bin/../arm-none-eabi/lib//libc.a(lib_a-impure.o)
                                                  /home/leon/riotboard/arm-2012.09/bin/../arm-none-eabi/lib//libc.a(lib_a-refill.o)
                                                  /home/leon/riotboard/arm-2012.09/bin/../arm-none-eabi/lib//libc.a(lib_a-findfp.o)
                                                  /home/leon/riotboard/arm-2012.09/bin/../arm-none-eabi/lib//libc.a(lib_a-fflush.o)
_image_size                                       /home/leon/git/swp-report/iMX6_Platform_SDK/output/mx6sdl/obds/smart_device_rev_a/obj/apps/common/ivt.o
_impure_ptr                                       /home/leon/riotboard/arm-2012.09/bin/../arm-none-eabi/lib//libc.a(lib_a-impure.o)
                                                  /home/leon/riotboard/arm-2012.09/bin/../arm-none-eabi/lib//libc.a(lib_a-fclose.o)
                                                  /home/leon/riotboard/arm-2012.09/bin/../arm-none-eabi/lib//libc.a(lib_a-wcrtomb.o)
                                                  /home/leon/riotboard/arm-2012.09/bin/../arm-none-eabi/lib//libc.a(lib_a-signal.o)
                                                  /home/leon/riotboard/arm-2012.09/bin/../arm-none-eabi/lib//libc.a(lib_a-reent.o)
                                                  /home/leon/riotboard/arm-2012.09/bin/../arm-none-eabi/lib//libc.a(lib_a-locale.o)
                                                  /home/leon/riotboard/arm-2012.09/bin/../arm-none-eabi/lib//libc.a(lib_a-fputwc.o)
                                                  /home/leon/riotboard/arm-2012.09/bin/../arm-none-eabi/lib//libc.a(lib_a-findfp.o)
                                                  /home/leon/riotboard/arm-2012.09/bin/../arm-none-eabi/lib//libc.a(lib_a-fflush.o)
                                                  /home/leon/riotboard/arm-2012.09/bin/../arm-none-eabi/lib//libc.a(lib_a-wsetup.o)
                                                  /home/leon/riotboard/arm-2012.09/bin/../arm-none-eabi/lib//libc.a(lib_a-wbuf.o)
                                                  /home/leon/riotboard/arm-2012.09/bin/../arm-none-eabi/lib//libc.a(lib_a-vprintf.o)
                                                  /home/leon/riotboard/arm-2012.09/bin/../arm-none-eabi/lib//libc.a(lib_a-vfprintf.o)
                                                  /home/leon/riotboard/arm-2012.09/bin/../arm-none-eabi/lib//libc.a(lib_a-vfiprintf.o)
                                                  /home/leon/riotboard/arm-2012.09/bin/../arm-none-eabi/lib//libc.a(lib_a-strtok.o)
                                                  /home/leon/riotboard/arm-2012.09/bin/../arm-none-eabi/lib//libc.a(lib_a-sprintf.o)
                                                  /home/leon/riotboard/arm-2012.09/bin/../arm-none-eabi/lib//libc.a(lib_a-rget.o)
                                                  /home/leon/riotboard/arm-2012.09/bin/../arm-none-eabi/lib//libc.a(lib_a-realloc.o)
                                                  /home/leon/riotboard/arm-2012.09/bin/../arm-none-eabi/lib//libc.a(lib_a-putc.o)
                                                  /home/leon/riotboard/arm-2012.09/bin/../arm-none-eabi/lib//libc.a(lib_a-printf.o)
                                                  /home/leon/riotboard/arm-2012.09/bin/../arm-none-eabi/lib//libc.a(lib_a-malloc.o)
                                                  /home/leon/riotboard/arm-2012.09/bin/../arm-none-eabi/lib//libc.a(lib_a-fputc.o)
                                                  /home/leon/riotboard/arm-2012.09/bin/../arm-none-eabi/lib//libc.a(lib_a-fiprintf.o)
                                                  /home/leon/riotboard/arm-2012.09/bin/../arm-none-eabi/lib//libc.a(lib_a-assert.o)
                                                  /home/leon/git/swp-report/iMX6_Platform_SDK/output/mx6sdl/lib/libsdk.a(usb_common.o)
                                                  /home/leon/git/swp-report/iMX6_Platform_SDK/output/mx6sdl/lib/libsdk.a(system_util.o)
                                                  /home/leon/git/swp-report/iMX6_Platform_SDK/output/mx6sdl/lib/libsdk.a(menu.o)
                                                  /home/leon/git/swp-report/iMX6_Platform_SDK/output/mx6sdl/obds/smart_device_rev_a/obj/sdk/drivers/usdhc/test/usdhc_test.o
                                                  /home/leon/git/swp-report/iMX6_Platform_SDK/output/mx6sdl/obds/smart_device_rev_a/obj/sdk/drivers/uart/test/uart_test.o
                                                  /home/leon/git/swp-report/iMX6_Platform_SDK/output/mx6sdl/obds/smart_device_rev_a/obj/sdk/drivers/ipu/test/ips_display.o
                                                  /home/leon/git/swp-report/iMX6_Platform_SDK/output/mx6sdl/obds/smart_device_rev_a/obj/sdk/drivers/epdc/test/epdc_test.o
                                                  /home/leon/git/swp-report/iMX6_Platform_SDK/output/mx6sdl/obds/smart_device_rev_a/obj/sdk/drivers/camera/test/sensor_capture.o
                                                  /home/leon/git/swp-report/iMX6_Platform_SDK/output/mx6sdl/obds/smart_device_rev_a/obj/sdk/drivers/camera/test/csi_test_mode.o
                                                  /home/leon/git/swp-report/iMX6_Platform_SDK/output/mx6sdl/obds/smart_device_rev_a/obj/sdk/drivers/camera/test/camera_test.o
                                                  /home/leon/git/swp-report/iMX6_Platform_SDK/output/mx6sdl/obds/smart_device_rev_a/obj/apps/obds/src/tests/video_dec_adv7180.o
                                                  /home/leon/git/swp-report/iMX6_Platform_SDK/output/mx6sdl/obds/smart_device_rev_a/obj/apps/obds/src/tests/touch_screen_max11801.o
                                                  /home/leon/git/swp-report/iMX6_Platform_SDK/output/mx6sdl/obds/smart_device_rev_a/obj/apps/obds/src/tests/touch_screen.o
                                                  /home/leon/git/swp-report/iMX6_Platform_SDK/output/mx6sdl/obds/smart_device_rev_a/obj/apps/obds/src/tests/touch_button_test.o
                                                  /home/leon/git/swp-report/iMX6_Platform_SDK/output/mx6sdl/obds/smart_device_rev_a/obj/apps/obds/src/tests/program_mac_address.o
                                                  /home/leon/git/swp-report/iMX6_Platform_SDK/output/mx6sdl/obds/smart_device_rev_a/obj/apps/obds/src/tests/pmic_lt3589.o
                                                  /home/leon/git/swp-report/iMX6_Platform_SDK/output/mx6sdl/obds/smart_device_rev_a/obj/apps/obds/src/tests/i2c_device_id_check_p1003_tsc.o
                                                  /home/leon/git/swp-report/iMX6_Platform_SDK/output/mx6sdl/obds/smart_device_rev_a/obj/apps/obds/src/tests/i2c_device_id_check_mma8451.o
                                                  /home/leon/git/swp-report/iMX6_Platform_SDK/output/mx6sdl/obds/smart_device_rev_a/obj/apps/obds/src/tests/i2c_device_id_check_mma8450.o
                                                  /home/leon/git/swp-report/iMX6_Platform_SDK/output/mx6sdl/obds/smart_device_rev_a/obj/apps/obds/src/tests/i2c_check_light_sensor_isl29023.o
                                                  /home/leon/git/swp-report/iMX6_Platform_SDK/output/mx6sdl/obds/smart_device_rev_a/obj/apps/obds/src/tests/gpio_led.o
                                                  /home/leon/git/swp-report/iMX6_Platform_SDK/output/mx6sdl/obds/smart_device_rev_a/obj/apps/obds/src/tests/display_test.o
                                                  /home/leon/git/swp-report/iMX6_Platform_SDK/output/mx6sdl/obds/smart_device_rev_a/obj/apps/obds/src/tests/audio_ssi_test.o
                                                  /home/leon/git/swp-report/iMX6_Platform_SDK/output/mx6sdl/obds/smart_device_rev_a/obj/apps/obds/src/tests/audio_esai_test.o
                                                  /home/leon/git/swp-report/iMX6_Platform_SDK/output/mx6sdl/obds/smart_device_rev_a/obj/apps/obds/src/tests/android_buttons_test.o
_init                                             /home/leon/riotboard/arm-2012.09/bin/../lib/gcc/arm-none-eabi/4.7.2//crti.o
                                                  /home/leon/riotboard/arm-2012.09/bin/../arm-none-eabi/lib//libc.a(lib_a-init.o)
_init_signal                                      /home/leon/riotboard/arm-2012.09/bin/../arm-none-eabi/lib//libc.a(lib_a-signal.o)
_init_signal_r                                    /home/leon/riotboard/arm-2012.09/bin/../arm-none-eabi/lib//libc.a(lib_a-signal.o)
_isatty                                           /home/leon/git/swp-report/iMX6_Platform_SDK/output/mx6sdl/lib/libsdk.a(runtime_support.o)
                                                  /home/leon/riotboard/arm-2012.09/bin/../arm-none-eabi/lib//libc.a(lib_a-isattyr.o)
_isatty_r                                         /home/leon/riotboard/arm-2012.09/bin/../arm-none-eabi/lib//libc.a(lib_a-isattyr.o)
                                                  /home/leon/riotboard/arm-2012.09/bin/../arm-none-eabi/lib//libc.a(lib_a-makebuf.o)
_kill                                             /home/leon/git/swp-report/iMX6_Platform_SDK/output/mx6sdl/lib/libsdk.a(runtime_support.o)
                                                  /home/leon/riotboard/arm-2012.09/bin/../arm-none-eabi/lib//libc.a(lib_a-signalr.o)
_kill_r                                           /home/leon/riotboard/arm-2012.09/bin/../arm-none-eabi/lib//libc.a(lib_a-signalr.o)
                                                  /home/leon/riotboard/arm-2012.09/bin/../arm-none-eabi/lib//libc.a(lib_a-signal.o)
_link                                             /home/leon/git/swp-report/iMX6_Platform_SDK/output/mx6sdl/lib/libsdk.a(runtime_support.o)
_localeconv_r                                     /home/leon/riotboard/arm-2012.09/bin/../arm-none-eabi/lib//libc.a(lib_a-locale.o)
                                                  /home/leon/riotboard/arm-2012.09/bin/../arm-none-eabi/lib//libc.a(lib_a-vfprintf.o)
                                                  /home/leon/riotboard/arm-2012.09/bin/../arm-none-eabi/lib//libc.a(lib_a-svfprintf.o)
_lseek                                            /home/leon/git/swp-report/iMX6_Platform_SDK/output/mx6sdl/lib/libsdk.a(runtime_support.o)
                                                  /home/leon/riotboard/arm-2012.09/bin/../arm-none-eabi/lib//libc.a(lib_a-lseekr.o)
_lseek_r                                          /home/leon/riotboard/arm-2012.09/bin/../arm-none-eabi/lib//libc.a(lib_a-lseekr.o)
                                                  /home/leon/riotboard/arm-2012.09/bin/../arm-none-eabi/lib//libc.a(lib_a-stdio.o)
_malloc_r                                         /home/leon/riotboard/arm-2012.09/bin/../arm-none-eabi/lib//libc.a(lib_a-mallocr.o)
                                                  /home/leon/riotboard/arm-2012.09/bin/../arm-none-eabi/lib//libc.a(lib_a-callocr.o)
                                                  /home/leon/riotboard/arm-2012.09/bin/../arm-none-eabi/lib//libc.a(lib_a-svfiprintf.o)
                                                  /home/leon/riotboard/arm-2012.09/bin/../arm-none-eabi/lib//libc.a(lib_a-signal.o)
                                                  /home/leon/riotboard/arm-2012.09/bin/../arm-none-eabi/lib//libc.a(lib_a-makebuf.o)
                                                  /home/leon/riotboard/arm-2012.09/bin/../arm-none-eabi/lib//libc.a(lib_a-fvwrite.o)
                                                  /home/leon/riotboard/arm-2012.09/bin/../arm-none-eabi/lib//libc.a(lib_a-findfp.o)
                                                  /home/leon/riotboard/arm-2012.09/bin/../arm-none-eabi/lib//libc.a(lib_a-svfprintf.o)
                                                  /home/leon/riotboard/arm-2012.09/bin/../arm-none-eabi/lib//libc.a(lib_a-reallocr.o)
                                                  /home/leon/riotboard/arm-2012.09/bin/../arm-none-eabi/lib//libc.a(lib_a-malloc.o)
_malloc_trim_r                                    /home/leon/riotboard/arm-2012.09/bin/../arm-none-eabi/lib//libc.a(lib_a-freer.o)
_mprec_log10                                      /home/leon/riotboard/arm-2012.09/bin/../arm-none-eabi/lib//libc.a(lib_a-mprec.o)
_open                                             /home/leon/git/swp-report/iMX6_Platform_SDK/output/mx6sdl/lib/libsdk.a(runtime_support.o)
_printf_r                                         /home/leon/riotboard/arm-2012.09/bin/../arm-none-eabi/lib//libc.a(lib_a-printf.o)
_putc_r                                           /home/leon/riotboard/arm-2012.09/bin/../arm-none-eabi/lib//libc.a(lib_a-putc.o)
                                                  /home/leon/riotboard/arm-2012.09/bin/../arm-none-eabi/lib//libc.a(lib_a-fputc.o)
_raise_r                                          /home/leon/riotboard/arm-2012.09/bin/../arm-none-eabi/lib//libc.a(lib_a-signal.o)
_raw_puts                                         /home/leon/git/swp-report/iMX6_Platform_SDK/output/mx6sdl/lib/libsdk.a(runtime_support.o)
_read                                             /home/leon/git/swp-report/iMX6_Platform_SDK/output/mx6sdl/lib/libsdk.a(runtime_support.o)
                                                  /home/leon/riotboard/arm-2012.09/bin/../arm-none-eabi/lib//libc.a(lib_a-readr.o)
_read_r                                           /home/leon/riotboard/arm-2012.09/bin/../arm-none-eabi/lib//libc.a(lib_a-readr.o)
                                                  /home/leon/riotboard/arm-2012.09/bin/../arm-none-eabi/lib//libc.a(lib_a-stdio.o)
_realloc_r                                        /home/leon/riotboard/arm-2012.09/bin/../arm-none-eabi/lib//libc.a(lib_a-reallocr.o)
                                                  /home/leon/riotboard/arm-2012.09/bin/../arm-none-eabi/lib//libc.a(lib_a-svfiprintf.o)
                                                  /home/leon/riotboard/arm-2012.09/bin/../arm-none-eabi/lib//libc.a(lib_a-fvwrite.o)
                                                  /home/leon/riotboard/arm-2012.09/bin/../arm-none-eabi/lib//libc.a(lib_a-realloc.o)
_reclaim_reent                                    /home/leon/riotboard/arm-2012.09/bin/../arm-none-eabi/lib//libc.a(lib_a-reent.o)
_sbrk                                             /home/leon/git/swp-report/iMX6_Platform_SDK/output/mx6sdl/lib/libsdk.a(runtime_support.o)
                                                  /home/leon/riotboard/arm-2012.09/bin/../arm-none-eabi/lib//libc.a(lib_a-sbrkr.o)
_sbrk_r                                           /home/leon/riotboard/arm-2012.09/bin/../arm-none-eabi/lib//libc.a(lib_a-sbrkr.o)
                                                  /home/leon/riotboard/arm-2012.09/bin/../arm-none-eabi/lib//libc.a(lib_a-freer.o)
                                                  /home/leon/riotboard/arm-2012.09/bin/../arm-none-eabi/lib//libc.a(lib_a-mallocr.o)
_setlocale_r                                      /home/leon/riotboard/arm-2012.09/bin/../arm-none-eabi/lib//libc.a(lib_a-locale.o)
_signal_r                                         /home/leon/riotboard/arm-2012.09/bin/../arm-none-eabi/lib//libc.a(lib_a-signal.o)
_sprintf_r                                        /home/leon/riotboard/arm-2012.09/bin/../arm-none-eabi/lib//libc.a(lib_a-sprintf.o)
_start                                            /home/leon/git/swp-report/iMX6_Platform_SDK/output/mx6sdl/lib/libsdk.a(startup.o)
                                                  /home/leon/git/swp-report/iMX6_Platform_SDK/output/mx6sdl/lib/libsdk.a(vectors.o)
                                                  /home/leon/git/swp-report/iMX6_Platform_SDK/output/mx6sdl/obds/smart_device_rev_a/obj/apps/common/ivt.o
_start_image_add                                  /home/leon/git/swp-report/iMX6_Platform_SDK/output/mx6sdl/obds/smart_device_rev_a/obj/apps/common/ivt.o
_stat                                             /home/leon/git/swp-report/iMX6_Platform_SDK/output/mx6sdl/lib/libsdk.a(runtime_support.o)
_svfiprintf_r                                     /home/leon/riotboard/arm-2012.09/bin/../arm-none-eabi/lib//libc.a(lib_a-svfiprintf.o)
_svfprintf_r                                      /home/leon/riotboard/arm-2012.09/bin/../arm-none-eabi/lib//libc.a(lib_a-svfprintf.o)
                                                  /home/leon/riotboard/arm-2012.09/bin/../arm-none-eabi/lib//libc.a(lib_a-sprintf.o)
_sys_exit                                         /home/leon/git/swp-report/iMX6_Platform_SDK/output/mx6sdl/lib/libsdk.a(system_util.o)
                                                  /home/leon/git/swp-report/iMX6_Platform_SDK/output/mx6sdl/lib/libsdk.a(runtime_support.o)
                                                  /home/leon/git/swp-report/iMX6_Platform_SDK/output/mx6sdl/lib/libsdk.a(startup.o)
_times                                            /home/leon/git/swp-report/iMX6_Platform_SDK/output/mx6sdl/lib/libsdk.a(runtime_support.o)
_unlink                                           /home/leon/git/swp-report/iMX6_Platform_SDK/output/mx6sdl/lib/libsdk.a(runtime_support.o)
_vfiprintf_r                                      /home/leon/riotboard/arm-2012.09/bin/../arm-none-eabi/lib//libc.a(lib_a-vfiprintf.o)
                                                  /home/leon/riotboard/arm-2012.09/bin/../arm-none-eabi/lib//libc.a(lib_a-fiprintf.o)
_vfprintf_r                                       /home/leon/riotboard/arm-2012.09/bin/../arm-none-eabi/lib//libc.a(lib_a-vfprintf.o)
                                                  /home/leon/riotboard/arm-2012.09/bin/../arm-none-eabi/lib//libc.a(lib_a-vprintf.o)
                                                  /home/leon/riotboard/arm-2012.09/bin/../arm-none-eabi/lib//libc.a(lib_a-printf.o)
_vprintf_r                                        /home/leon/riotboard/arm-2012.09/bin/../arm-none-eabi/lib//libc.a(lib_a-vprintf.o)
_wait                                             /home/leon/git/swp-report/iMX6_Platform_SDK/output/mx6sdl/lib/libsdk.a(runtime_support.o)
_wcrtomb_r                                        /home/leon/riotboard/arm-2012.09/bin/../arm-none-eabi/lib//libc.a(lib_a-wcrtomb.o)
                                                  /home/leon/riotboard/arm-2012.09/bin/../arm-none-eabi/lib//libc.a(lib_a-fputwc.o)
_wctomb_r                                         /home/leon/riotboard/arm-2012.09/bin/../arm-none-eabi/lib//libc.a(lib_a-wctomb_r.o)
_wrapup_reent                                     /home/leon/riotboard/arm-2012.09/bin/../arm-none-eabi/lib//libc.a(lib_a-reent.o)
_write                                            /home/leon/git/swp-report/iMX6_Platform_SDK/output/mx6sdl/lib/libsdk.a(runtime_support.o)
                                                  /home/leon/riotboard/arm-2012.09/bin/../arm-none-eabi/lib//libc.a(lib_a-writer.o)
_write_r                                          /home/leon/riotboard/arm-2012.09/bin/../arm-none-eabi/lib//libc.a(lib_a-writer.o)
                                                  /home/leon/riotboard/arm-2012.09/bin/../arm-none-eabi/lib//libc.a(lib_a-stdio.o)
abort                                             /home/leon/riotboard/arm-2012.09/bin/../arm-none-eabi/lib//libc.a(lib_a-abort.o)
                                                  /home/leon/git/swp-report/iMX6_Platform_SDK/output/mx6sdl/lib/libsdk.a(runtime_support.o)
                                                  /home/leon/riotboard/arm-2012.09/bin/../arm-none-eabi/lib//libc.a(lib_a-assert.o)
adv7180_i2c_device_id_check                       /home/leon/git/swp-report/iMX6_Platform_SDK/output/mx6sdl/obds/smart_device_rev_a/obj/apps/obds/src/tests/video_dec_adv7180.o
adv7180_i2c_init_obds                             /home/leon/git/swp-report/iMX6_Platform_SDK/output/mx6sdl/obds/smart_device_rev_a/obj/apps/obds/src/tests/video_dec_adv7180.o
                                                  /home/leon/git/swp-report/iMX6_Platform_SDK/output/mx6sdl/obds/smart_device_rev_a/obj/apps/obds/src/tests/video_dec_ARD_MBrst_from_cpu_expander.o
                                                  /home/leon/git/swp-report/iMX6_Platform_SDK/output/mx6sdl/obds/smart_device_rev_a/obj/apps/obds/src/tests/video_dec_ARD_MB_reset_button.o
                                                  /home/leon/git/swp-report/iMX6_Platform_SDK/output/mx6sdl/obds/smart_device_rev_a/obj/apps/obds/src/tests/deserializer_ds90ur124.o
adv7180_reg_read                                  /home/leon/git/swp-report/iMX6_Platform_SDK/output/mx6sdl/obds/smart_device_rev_a/obj/apps/obds/src/tests/video_dec_adv7180.o
                                                  /home/leon/git/swp-report/iMX6_Platform_SDK/output/mx6sdl/obds/smart_device_rev_a/obj/apps/obds/src/tests/video_dec_ARD_MBrst_from_cpu_expander.o
                                                  /home/leon/git/swp-report/iMX6_Platform_SDK/output/mx6sdl/obds/smart_device_rev_a/obj/apps/obds/src/tests/video_dec_ARD_MB_reset_button.o
adv7180_reg_write                                 /home/leon/git/swp-report/iMX6_Platform_SDK/output/mx6sdl/obds/smart_device_rev_a/obj/apps/obds/src/tests/video_dec_adv7180.o
                                                  /home/leon/git/swp-report/iMX6_Platform_SDK/output/mx6sdl/obds/smart_device_rev_a/obj/apps/obds/src/tests/video_dec_ARD_MBrst_from_cpu_expander.o
                                                  /home/leon/git/swp-report/iMX6_Platform_SDK/output/mx6sdl/obds/smart_device_rev_a/obj/apps/obds/src/tests/video_dec_ARD_MB_reset_button.o
adv7180_set_gpio_output                           /home/leon/git/swp-report/iMX6_Platform_SDK/output/mx6sdl/obds/smart_device_rev_a/obj/apps/obds/src/tests/video_dec_adv7180.o
                                                  /home/leon/git/swp-report/iMX6_Platform_SDK/output/mx6sdl/obds/smart_device_rev_a/obj/apps/obds/src/tests/video_dec_ARD_MB_reset_button.o
                                                  /home/leon/git/swp-report/iMX6_Platform_SDK/output/mx6sdl/obds/smart_device_rev_a/obj/apps/obds/src/tests/deserializer_ds90ur124.o
adv7180_set_tristate_output                       /home/leon/git/swp-report/iMX6_Platform_SDK/output/mx6sdl/obds/smart_device_rev_a/obj/apps/obds/src/tests/video_dec_adv7180.o
                                                  /home/leon/git/swp-report/iMX6_Platform_SDK/output/mx6sdl/obds/smart_device_rev_a/obj/apps/obds/src/tests/deserializer_ds90ur124.o
adv7180_test_main                                 /home/leon/git/swp-report/iMX6_Platform_SDK/output/mx6sdl/obds/smart_device_rev_a/obj/apps/obds/src/tests/video_dec_adv7180.o
android_buttons_iomux_config                      /home/leon/git/swp-report/iMX6_Platform_SDK/output/mx6sdl/lib/libboard_smart_device_rev_a.a(board_buttons.o)
                                                  /home/leon/git/swp-report/iMX6_Platform_SDK/output/mx6sdl/obds/smart_device_rev_a/obj/apps/obds/src/tests/android_buttons_test.o
android_buttons_test                              /home/leon/git/swp-report/iMX6_Platform_SDK/output/mx6sdl/obds/smart_device_rev_a/obj/apps/obds/src/tests/android_buttons_test.o
ar8031_test_main                                  /home/leon/git/swp-report/iMX6_Platform_SDK/output/mx6sdl/obds/smart_device_rev_a/obj/apps/obds/src/tests/enet_mx6dldq_test.o
                                                  /home/leon/git/swp-report/iMX6_Platform_SDK/output/mx6sdl/obds/smart_device_rev_a/obj/apps/obds/src/obds.o
ard_mb_expander_reset_test                        /home/leon/git/swp-report/iMX6_Platform_SDK/output/mx6sdl/obds/smart_device_rev_a/obj/apps/obds/src/tests/video_dec_ARD_MBrst_from_cpu_expander.o
ard_mb_reset_test                                 /home/leon/git/swp-report/iMX6_Platform_SDK/output/mx6sdl/obds/smart_device_rev_a/obj/apps/obds/src/tests/video_dec_ARD_MB_reset_button.o
arm_branch_prediction_disable                     /home/leon/git/swp-report/iMX6_Platform_SDK/output/mx6sdl/lib/libsdk.a(cortexA9.o)
arm_branch_prediction_enable                      /home/leon/git/swp-report/iMX6_Platform_SDK/output/mx6sdl/lib/libsdk.a(cortexA9.o)
arm_branch_target_cache_invalidate                /home/leon/git/swp-report/iMX6_Platform_SDK/output/mx6sdl/lib/libsdk.a(cortexA9.o)
arm_branch_target_cache_invalidate_is             /home/leon/git/swp-report/iMX6_Platform_SDK/output/mx6sdl/lib/libsdk.a(cortexA9.o)
arm_dcache_disable                                /home/leon/git/swp-report/iMX6_Platform_SDK/output/mx6sdl/lib/libsdk.a(armv7_cache.o)
arm_dcache_enable                                 /home/leon/git/swp-report/iMX6_Platform_SDK/output/mx6sdl/lib/libsdk.a(armv7_cache.o)
arm_dcache_flush                                  /home/leon/git/swp-report/iMX6_Platform_SDK/output/mx6sdl/lib/libsdk.a(armv7_cache.o)
arm_dcache_flush_line                             /home/leon/git/swp-report/iMX6_Platform_SDK/output/mx6sdl/lib/libsdk.a(armv7_cache.o)
arm_dcache_flush_mlines                           /home/leon/git/swp-report/iMX6_Platform_SDK/output/mx6sdl/lib/libsdk.a(armv7_cache.o)
                                                  /home/leon/git/swp-report/iMX6_Platform_SDK/output/mx6sdl/lib/libsdk.a(usdhc.o)
arm_dcache_invalidate                             /home/leon/git/swp-report/iMX6_Platform_SDK/output/mx6sdl/lib/libsdk.a(armv7_cache.o)
arm_dcache_invalidate_line                        /home/leon/git/swp-report/iMX6_Platform_SDK/output/mx6sdl/lib/libsdk.a(armv7_cache.o)
arm_dcache_invalidate_mlines                      /home/leon/git/swp-report/iMX6_Platform_SDK/output/mx6sdl/lib/libsdk.a(armv7_cache.o)
                                                  /home/leon/git/swp-report/iMX6_Platform_SDK/output/mx6sdl/lib/libsdk.a(usdhc.o)
arm_dcache_state_query                            /home/leon/git/swp-report/iMX6_Platform_SDK/output/mx6sdl/lib/libsdk.a(armv7_cache.o)
                                                  /home/leon/git/swp-report/iMX6_Platform_SDK/output/mx6sdl/lib/libsdk.a(usdhc.o)
arm_icache_disable                                /home/leon/git/swp-report/iMX6_Platform_SDK/output/mx6sdl/lib/libsdk.a(armv7_cache.o)
arm_icache_enable                                 /home/leon/git/swp-report/iMX6_Platform_SDK/output/mx6sdl/lib/libsdk.a(armv7_cache.o)
arm_icache_invalidate                             /home/leon/git/swp-report/iMX6_Platform_SDK/output/mx6sdl/lib/libsdk.a(armv7_cache.o)
arm_icache_invalidate_is                          /home/leon/git/swp-report/iMX6_Platform_SDK/output/mx6sdl/lib/libsdk.a(armv7_cache.o)
arm_icache_invalidate_line                        /home/leon/git/swp-report/iMX6_Platform_SDK/output/mx6sdl/lib/libsdk.a(armv7_cache.o)
arm_icache_invalidate_mlines                      /home/leon/git/swp-report/iMX6_Platform_SDK/output/mx6sdl/lib/libsdk.a(armv7_cache.o)
arm_icache_state_query                            /home/leon/git/swp-report/iMX6_Platform_SDK/output/mx6sdl/lib/libsdk.a(armv7_cache.o)
arm_iomux_config                                  /home/leon/git/swp-report/iMX6_Platform_SDK/output/mx6sdl/lib/libboard_smart_device_rev_a.a(iomux_config.o)
arm_set_interrupt_state                           /home/leon/git/swp-report/iMX6_Platform_SDK/output/mx6sdl/lib/libsdk.a(cortexA9.o)
                                                  /home/leon/git/swp-report/iMX6_Platform_SDK/output/mx6sdl/obds/smart_device_rev_a/obj/apps/common/platform_init.o
arm_unified_tlb_invalidate                        /home/leon/git/swp-report/iMX6_Platform_SDK/output/mx6sdl/lib/libsdk.a(cortexA9.o)
                                                  /home/leon/git/swp-report/iMX6_Platform_SDK/output/mx6sdl/lib/libsdk.a(mmu.o)
arm_unified_tlb_invalidate_is                     /home/leon/git/swp-report/iMX6_Platform_SDK/output/mx6sdl/lib/libsdk.a(cortexA9.o)
asrc_iomux_config                                 /home/leon/git/swp-report/iMX6_Platform_SDK/output/mx6sdl/lib/libboard_smart_device_rev_a.a(iomux_config.o)
audio_ComputeCTS                                  /home/leon/git/swp-report/iMX6_Platform_SDK/output/mx6sdl/lib/libsdk.a(hdmi_tx_audio.o)
audio_ComputeN                                    /home/leon/git/swp-report/iMX6_Platform_SDK/output/mx6sdl/lib/libsdk.a(hdmi_tx_audio.o)
audio_Configure                                   /home/leon/git/swp-report/iMX6_Platform_SDK/output/mx6sdl/lib/libsdk.a(hdmi_tx_audio.o)
                                                  /home/leon/git/swp-report/iMX6_Platform_SDK/output/mx6sdl/obds/smart_device_rev_a/obj/sdk/drivers/hdmi/test/hdmi_test.o
audio_Configure_DMA                               /home/leon/git/swp-report/iMX6_Platform_SDK/output/mx6sdl/lib/libsdk.a(hdmi_tx_audio.o)
                                                  /home/leon/git/swp-report/iMX6_Platform_SDK/output/mx6sdl/obds/smart_device_rev_a/obj/sdk/drivers/hdmi/test/hdmi_test.o
audio_DMA_BurstMode                               /home/leon/git/swp-report/iMX6_Platform_SDK/output/mx6sdl/lib/libsdk.a(hdmi_tx_audio.o)
audio_DMA_IncrType                                /home/leon/git/swp-report/iMX6_Platform_SDK/output/mx6sdl/lib/libsdk.a(hdmi_tx_audio.o)
audio_DMA_InterruptMask                           /home/leon/git/swp-report/iMX6_Platform_SDK/output/mx6sdl/lib/libsdk.a(hdmi_tx_audio.o)
audio_DMA_InterruptPolarity                       /home/leon/git/swp-report/iMX6_Platform_SDK/output/mx6sdl/lib/libsdk.a(hdmi_tx_audio.o)
audio_DMA_LockEnable                              /home/leon/git/swp-report/iMX6_Platform_SDK/output/mx6sdl/lib/libsdk.a(hdmi_tx_audio.o)
audio_DMA_ResetFIFO                               /home/leon/git/swp-report/iMX6_Platform_SDK/output/mx6sdl/lib/libsdk.a(hdmi_tx_audio.o)
audio_DMA_SetCONF1                                /home/leon/git/swp-report/iMX6_Platform_SDK/output/mx6sdl/lib/libsdk.a(hdmi_tx_audio.o)
audio_DMA_Start                                   /home/leon/git/swp-report/iMX6_Platform_SDK/output/mx6sdl/lib/libsdk.a(hdmi_tx_audio.o)
audio_DMA_StartAddr                               /home/leon/git/swp-report/iMX6_Platform_SDK/output/mx6sdl/lib/libsdk.a(hdmi_tx_audio.o)
audio_DMA_StopAddr                                /home/leon/git/swp-report/iMX6_Platform_SDK/output/mx6sdl/lib/libsdk.a(hdmi_tx_audio.o)
audio_DMA_Threshold                               /home/leon/git/swp-report/iMX6_Platform_SDK/output/mx6sdl/lib/libsdk.a(hdmi_tx_audio.o)
audio_PacketLayout                                /home/leon/git/swp-report/iMX6_Platform_SDK/output/mx6sdl/lib/libsdk.a(hdmi_tx_audio.o)
audio_clk_CTS                                     /home/leon/git/swp-report/iMX6_Platform_SDK/output/mx6sdl/lib/libsdk.a(hdmi_tx_audio.o)
audio_clk_N                                       /home/leon/git/swp-report/iMX6_Platform_SDK/output/mx6sdl/lib/libsdk.a(hdmi_tx_audio.o)
audio_clock_config                                /home/leon/git/swp-report/iMX6_Platform_SDK/output/mx6sdl/lib/libboard_smart_device_rev_a.a(board_audio.o)
                                                  /home/leon/git/swp-report/iMX6_Platform_SDK/output/mx6sdl/obds/smart_device_rev_a/obj/apps/obds/src/tests/audio_ssi_test.o
audio_codec_power_on                              /home/leon/git/swp-report/iMX6_Platform_SDK/output/mx6sdl/lib/libboard_smart_device_rev_a.a(board_audio.o)
                                                  /home/leon/git/swp-report/iMX6_Platform_SDK/output/mx6sdl/lib/libsdk.a(smd_sensor.o)
                                                  /home/leon/git/swp-report/iMX6_Platform_SDK/output/mx6sdl/obds/smart_device_rev_a/obj/apps/obds/src/tests/audio_ssi_test.o
audio_info_config                                 /home/leon/git/swp-report/iMX6_Platform_SDK/output/mx6sdl/lib/libsdk.a(hdmi_tx_audio.o)
audio_record_buf                                  /home/leon/git/swp-report/iMX6_Platform_SDK/output/mx6sdl/obds/smart_device_rev_a/obj/apps/obds/src/tests/audio_ssi_test.o
audio_test_init                                   /home/leon/git/swp-report/iMX6_Platform_SDK/output/mx6sdl/obds/smart_device_rev_a/obj/apps/obds/src/tests/audio_ssi_test.o
audmux_iomux_config                               /home/leon/git/swp-report/iMX6_Platform_SDK/output/mx6sdl/lib/libboard_smart_device_rev_a.a(audmux_iomux_config.o)
                                                  /home/leon/git/swp-report/iMX6_Platform_SDK/output/mx6sdl/lib/libboard_smart_device_rev_a.a(iomux_config.o)
                                                  /home/leon/git/swp-report/iMX6_Platform_SDK/output/mx6sdl/lib/libsdk.a(imx-ssi.o)
audmux_port_set                                   /home/leon/git/swp-report/iMX6_Platform_SDK/output/mx6sdl/lib/libsdk.a(imx_audmux.o)
audmux_route                                      /home/leon/git/swp-report/iMX6_Platform_SDK/output/mx6sdl/lib/libsdk.a(imx_audmux.o)
                                                  /home/leon/git/swp-report/iMX6_Platform_SDK/output/mx6sdl/obds/smart_device_rev_a/obj/apps/obds/src/tests/audio_ssi_test.o
auto_run_enable                                   /home/leon/git/swp-report/iMX6_Platform_SDK/output/mx6sdl/obds/smart_device_rev_a/obj/apps/obds/src/obds.o
                                                  /home/leon/git/swp-report/iMX6_Platform_SDK/output/mx6sdl/obds/smart_device_rev_a/obj/apps/obds/src/tests/mlb_os81050.o
                                                  /home/leon/git/swp-report/iMX6_Platform_SDK/output/mx6sdl/obds/smart_device_rev_a/obj/apps/obds/src/tests/i2c_eeprom_at24cxx_test.o
                                                  /home/leon/git/swp-report/iMX6_Platform_SDK/output/mx6sdl/obds/smart_device_rev_a/obj/apps/obds/src/tests/gps_test.o
                                                  /home/leon/git/swp-report/iMX6_Platform_SDK/output/mx6sdl/obds/smart_device_rev_a/obj/apps/obds/src/tests/fm_tuner_si476x_test.o
                                                  /home/leon/git/swp-report/iMX6_Platform_SDK/output/mx6sdl/obds/smart_device_rev_a/obj/apps/obds/src/tests/deserializer_ds90ur124.o
bd                                                /home/leon/git/swp-report/iMX6_Platform_SDK/output/mx6sdl/obds/smart_device_rev_a/obj/apps/common/ivt.o
board_description                                 /home/leon/git/swp-report/iMX6_Platform_SDK/output/mx6sdl/lib/libsdk.a(board_id.o)
board_ioexpander_init                             /home/leon/git/swp-report/iMX6_Platform_SDK/output/mx6sdl/lib/libboard_smart_device_rev_a.a(board_io_expanders.o)
                                                  /home/leon/git/swp-report/iMX6_Platform_SDK/output/mx6sdl/obds/smart_device_rev_a/obj/apps/common/platform_init.o
board_ioexpander_iomux_config                     /home/leon/git/swp-report/iMX6_Platform_SDK/output/mx6sdl/lib/libboard_smart_device_rev_a.a(board_io_expanders.o)
                                                  /home/leon/git/swp-report/iMX6_Platform_SDK/output/mx6sdl/obds/smart_device_rev_a/obj/sdk/common/ioexpander/test/max7310_test.o
                                                  /home/leon/git/swp-report/iMX6_Platform_SDK/output/mx6sdl/obds/smart_device_rev_a/obj/apps/obds/src/tests/video_dec_ARD_MBrst_from_cpu_expander.o
                                                  /home/leon/git/swp-report/iMX6_Platform_SDK/output/mx6sdl/obds/smart_device_rev_a/obj/apps/obds/src/tests/mlb_os81050.o
                                                  /home/leon/git/swp-report/iMX6_Platform_SDK/output/mx6sdl/obds/smart_device_rev_a/obj/apps/obds/src/tests/fm_tuner_si476x_test.o
board_name                                        /home/leon/git/swp-report/iMX6_Platform_SDK/output/mx6sdl/lib/libsdk.a(board_id.o)
                                                  /home/leon/git/swp-report/iMX6_Platform_SDK/output/mx6sdl/obds/smart_device_rev_a/obj/apps/obds/src/tests/program_board_id.o
                                                  /home/leon/git/swp-report/iMX6_Platform_SDK/output/mx6sdl/obds/smart_device_rev_a/obj/apps/obds/src/obds.o
                                                  /home/leon/git/swp-report/iMX6_Platform_SDK/output/mx6sdl/obds/smart_device_rev_a/obj/apps/common/print_version.o
board_revision                                    /home/leon/git/swp-report/iMX6_Platform_SDK/output/mx6sdl/lib/libsdk.a(board_id.o)
                                                  /home/leon/git/swp-report/iMX6_Platform_SDK/output/mx6sdl/obds/smart_device_rev_a/obj/apps/obds/src/tests/program_board_id.o
                                                  /home/leon/git/swp-report/iMX6_Platform_SDK/output/mx6sdl/obds/smart_device_rev_a/obj/apps/obds/src/obds.o
                                                  /home/leon/git/swp-report/iMX6_Platform_SDK/output/mx6sdl/obds/smart_device_rev_a/obj/apps/common/print_version.o
buf                                               /home/leon/git/swp-report/iMX6_Platform_SDK/output/mx6sdl/obds/smart_device_rev_a/obj/apps/obds/src/tests/i2c_device_zigbee_mc1323.o
bzero                                             /home/leon/riotboard/arm-2012.09/bin/../arm-none-eabi/lib//libc.a(lib_a-bzero.o)
                                                  /home/leon/git/swp-report/iMX6_Platform_SDK/output/mx6sdl/lib/libsdk.a(mmu.o)
camera_ipu1_iomux_config                          /home/leon/git/swp-report/iMX6_Platform_SDK/output/mx6sdl/lib/libboard_smart_device_rev_a.a(board_camera.o)
camera_power_on                                   /home/leon/git/swp-report/iMX6_Platform_SDK/output/mx6sdl/lib/libboard_smart_device_rev_a.a(board_camera.o)
                                                  /home/leon/git/swp-report/iMX6_Platform_SDK/output/mx6sdl/lib/libsdk.a(smd_sensor.o)
camera_strobeflash_off                            /home/leon/git/swp-report/iMX6_Platform_SDK/output/mx6sdl/lib/libsdk.a(smd_sensor.o)
camera_strobeflash_on                             /home/leon/git/swp-report/iMX6_Platform_SDK/output/mx6sdl/lib/libsdk.a(smd_sensor.o)
camera_test                                       /home/leon/git/swp-report/iMX6_Platform_SDK/output/mx6sdl/obds/smart_device_rev_a/obj/sdk/drivers/camera/test/camera_test.o
                                                  /home/leon/git/swp-report/iMX6_Platform_SDK/output/mx6sdl/obds/smart_device_rev_a/obj/apps/obds/src/obds.o
card_cmd_config                                   /home/leon/git/swp-report/iMX6_Platform_SDK/output/mx6sdl/lib/libsdk.a(usdhc.o)
                                                  /home/leon/git/swp-report/iMX6_Platform_SDK/output/mx6sdl/lib/libsdk.a(usdhc_sd.o)
                                                  /home/leon/git/swp-report/iMX6_Platform_SDK/output/mx6sdl/lib/libsdk.a(usdhc_mmc.o)
card_data_read                                    /home/leon/git/swp-report/iMX6_Platform_SDK/output/mx6sdl/lib/libsdk.a(usdhc.o)
                                                  /home/leon/git/swp-report/iMX6_Platform_SDK/output/mx6sdl/obds/smart_device_rev_a/obj/sdk/drivers/usdhc/test/usdhc_test.o
card_data_write                                   /home/leon/git/swp-report/iMX6_Platform_SDK/output/mx6sdl/lib/libsdk.a(usdhc.o)
                                                  /home/leon/git/swp-report/iMX6_Platform_SDK/output/mx6sdl/obds/smart_device_rev_a/obj/sdk/drivers/usdhc/test/usdhc_test.o
card_detect_test_en                               /home/leon/git/swp-report/iMX6_Platform_SDK/output/mx6sdl/lib/libsdk.a(usdhc.o)
                                                  /home/leon/git/swp-report/iMX6_Platform_SDK/output/mx6sdl/obds/smart_device_rev_a/obj/apps/obds/src/tests/mmcsd_test.o
card_emmc_init                                    /home/leon/git/swp-report/iMX6_Platform_SDK/output/mx6sdl/lib/libsdk.a(usdhc.o)
                                                  /home/leon/git/swp-report/iMX6_Platform_SDK/output/mx6sdl/obds/smart_device_rev_a/obj/sdk/drivers/usdhc/test/usdhc_test.o
card_enter_trans                                  /home/leon/git/swp-report/iMX6_Platform_SDK/output/mx6sdl/lib/libsdk.a(usdhc.o)
                                                  /home/leon/git/swp-report/iMX6_Platform_SDK/output/mx6sdl/lib/libsdk.a(usdhc_sd.o)
                                                  /home/leon/git/swp-report/iMX6_Platform_SDK/output/mx6sdl/lib/libsdk.a(usdhc_mmc.o)
card_get_cid                                      /home/leon/git/swp-report/iMX6_Platform_SDK/output/mx6sdl/lib/libsdk.a(usdhc.o)
                                                  /home/leon/git/swp-report/iMX6_Platform_SDK/output/mx6sdl/lib/libsdk.a(usdhc_sd.o)
                                                  /home/leon/git/swp-report/iMX6_Platform_SDK/output/mx6sdl/lib/libsdk.a(usdhc_mmc.o)
card_get_port                                     /home/leon/git/swp-report/iMX6_Platform_SDK/output/mx6sdl/lib/libsdk.a(usdhc.o)
                                                  /home/leon/git/swp-report/iMX6_Platform_SDK/output/mx6sdl/lib/libsdk.a(usdhc_sd.o)
                                                  /home/leon/git/swp-report/iMX6_Platform_SDK/output/mx6sdl/lib/libsdk.a(usdhc_mmc.o)
                                                  /home/leon/git/swp-report/iMX6_Platform_SDK/output/mx6sdl/lib/libsdk.a(usdhc_host.o)
card_init                                         /home/leon/git/swp-report/iMX6_Platform_SDK/output/mx6sdl/lib/libsdk.a(usdhc.o)
                                                  /home/leon/git/swp-report/iMX6_Platform_SDK/output/mx6sdl/obds/smart_device_rev_a/obj/sdk/drivers/usdhc/test/usdhc_test.o
card_set_blklen                                   /home/leon/git/swp-report/iMX6_Platform_SDK/output/mx6sdl/lib/libsdk.a(usdhc.o)
card_trans_status                                 /home/leon/git/swp-report/iMX6_Platform_SDK/output/mx6sdl/lib/libsdk.a(usdhc.o)
                                                  /home/leon/git/swp-report/iMX6_Platform_SDK/output/mx6sdl/lib/libsdk.a(usdhc_mmc.o)
card_wait_xfer_done                               /home/leon/git/swp-report/iMX6_Platform_SDK/output/mx6sdl/lib/libsdk.a(usdhc.o)
card_xfer_result                                  /home/leon/git/swp-report/iMX6_Platform_SDK/output/mx6sdl/lib/libsdk.a(usdhc.o)
                                                  /home/leon/git/swp-report/iMX6_Platform_SDK/output/mx6sdl/obds/smart_device_rev_a/obj/sdk/drivers/usdhc/test/usdhc_test.o
ccm_ccgr_config                                   /home/leon/git/swp-report/iMX6_Platform_SDK/output/mx6sdl/lib/libsdk.a(ccm_pll.o)
ccm_enter_low_power                               /home/leon/git/swp-report/iMX6_Platform_SDK/output/mx6sdl/lib/libsdk.a(ccm_pll.o)
ccm_init                                          /home/leon/git/swp-report/iMX6_Platform_SDK/output/mx6sdl/lib/libsdk.a(ccm_pll.o)
                                                  /home/leon/git/swp-report/iMX6_Platform_SDK/output/mx6sdl/obds/smart_device_rev_a/obj/apps/common/platform_init.o
ccm_iomux_config                                  /home/leon/git/swp-report/iMX6_Platform_SDK/output/mx6sdl/lib/libboard_smart_device_rev_a.a(ccm_iomux_config.o)
                                                  /home/leon/git/swp-report/iMX6_Platform_SDK/output/mx6sdl/lib/libboard_smart_device_rev_a.a(iomux_config.o)
                                                  /home/leon/git/swp-report/iMX6_Platform_SDK/output/mx6sdl/lib/libboard_smart_device_rev_a.a(board_audio.o)
ccm_set_lpm_wakeup_source                         /home/leon/git/swp-report/iMX6_Platform_SDK/output/mx6sdl/lib/libsdk.a(ccm_pll.o)
check_android_button_status                       /home/leon/git/swp-report/iMX6_Platform_SDK/output/mx6sdl/obds/smart_device_rev_a/obj/apps/obds/src/tests/android_buttons_test.o
chip_name                                         /home/leon/git/swp-report/iMX6_Platform_SDK/output/mx6sdl/lib/libsdk.a(board_id.o)
                                                  /home/leon/git/swp-report/iMX6_Platform_SDK/output/mx6sdl/obds/smart_device_rev_a/obj/apps/obds/src/tests/program_board_id.o
                                                  /home/leon/git/swp-report/iMX6_Platform_SDK/output/mx6sdl/obds/smart_device_rev_a/obj/apps/obds/src/obds.o
                                                  /home/leon/git/swp-report/iMX6_Platform_SDK/output/mx6sdl/obds/smart_device_rev_a/obj/apps/common/print_version.o
chip_revision                                     /home/leon/git/swp-report/iMX6_Platform_SDK/output/mx6sdl/lib/libsdk.a(board_id.o)
                                                  /home/leon/git/swp-report/iMX6_Platform_SDK/output/mx6sdl/obds/smart_device_rev_a/obj/apps/obds/src/tests/program_board_id.o
                                                  /home/leon/git/swp-report/iMX6_Platform_SDK/output/mx6sdl/obds/smart_device_rev_a/obj/apps/obds/src/obds.o
                                                  /home/leon/git/swp-report/iMX6_Platform_SDK/output/mx6sdl/obds/smart_device_rev_a/obj/apps/common/print_version.o
cleanup_glue                                      /home/leon/riotboard/arm-2012.09/bin/../arm-none-eabi/lib//libc.a(lib_a-reent.o)
clock_gating_config                               /home/leon/git/swp-report/iMX6_Platform_SDK/output/mx6sdl/lib/libsdk.a(ccm_pll.o)
                                                  /home/leon/git/swp-report/iMX6_Platform_SDK/output/mx6sdl/lib/libboard_smart_device_rev_a.a(board_audio.o)
                                                  /home/leon/git/swp-report/iMX6_Platform_SDK/output/mx6sdl/lib/libsdk.a(epit.o)
                                                  /home/leon/git/swp-report/iMX6_Platform_SDK/output/mx6sdl/lib/libsdk.a(imx_uart.o)
                                                  /home/leon/git/swp-report/iMX6_Platform_SDK/output/mx6sdl/lib/libsdk.a(ecspi.o)
                                                  /home/leon/git/swp-report/iMX6_Platform_SDK/output/mx6sdl/lib/libsdk.a(imx_i2c.o)
common_abort_handler                              /home/leon/git/swp-report/iMX6_Platform_SDK/output/mx6sdl/lib/libsdk.a(arm_abort.o)
configure_android_button                          /home/leon/git/swp-report/iMX6_Platform_SDK/output/mx6sdl/obds/smart_device_rev_a/obj/apps/obds/src/tests/android_buttons_test.o
cpu_get_current                                   /home/leon/git/swp-report/iMX6_Platform_SDK/output/mx6sdl/lib/libsdk.a(cortexA9.o)
cs42888                                           /home/leon/git/swp-report/iMX6_Platform_SDK/output/mx6sdl/lib/libsdk.a(cs42888.o)
                                                  /home/leon/git/swp-report/iMX6_Platform_SDK/output/mx6sdl/obds/smart_device_rev_a/obj/sdk/drivers/audio/src/snd_card.o
cs42888_config                                    /home/leon/git/swp-report/iMX6_Platform_SDK/output/mx6sdl/lib/libsdk.a(cs42888.o)
cs42888_deinit                                    /home/leon/git/swp-report/iMX6_Platform_SDK/output/mx6sdl/lib/libsdk.a(cs42888.o)
                                                  /home/leon/git/swp-report/iMX6_Platform_SDK/output/mx6sdl/obds/smart_device_rev_a/obj/apps/obds/src/tests/i2c_device_check_cs42888.o
cs42888_dev_info                                  /home/leon/git/swp-report/iMX6_Platform_SDK/output/mx6sdl/lib/libsdk.a(cs42888.o)
cs42888_i2c_req                                   /home/leon/git/swp-report/iMX6_Platform_SDK/output/mx6sdl/lib/libsdk.a(cs42888.o)
cs42888_init                                      /home/leon/git/swp-report/iMX6_Platform_SDK/output/mx6sdl/lib/libsdk.a(cs42888.o)
                                                  /home/leon/git/swp-report/iMX6_Platform_SDK/output/mx6sdl/obds/smart_device_rev_a/obj/apps/obds/src/tests/i2c_device_check_cs42888.o
cs42888_ops                                       /home/leon/git/swp-report/iMX6_Platform_SDK/output/mx6sdl/lib/libsdk.a(cs42888.o)
csi_dma_band_mode                                 /home/leon/git/swp-report/iMX6_Platform_SDK/output/mx6sdl/lib/libsdk.a(ipu_common.o)
                                                  /home/leon/git/swp-report/iMX6_Platform_SDK/output/mx6sdl/obds/smart_device_rev_a/obj/sdk/drivers/camera/test/csi_test_mode.o
                                                  /home/leon/git/swp-report/iMX6_Platform_SDK/output/mx6sdl/obds/smart_device_rev_a/obj/sdk/drivers/camera/test/camera_test.o
csi_port0_iomux_config                            /home/leon/git/swp-report/iMX6_Platform_SDK/output/mx6sdl/lib/libboard_smart_device_rev_a.a(board_camera.o)
                                                  /home/leon/git/swp-report/iMX6_Platform_SDK/output/mx6sdl/lib/libsdk.a(smd_sensor.o)
                                                  /home/leon/git/swp-report/iMX6_Platform_SDK/output/mx6sdl/obds/smart_device_rev_a/obj/apps/obds/src/tests/deserializer_ds90ur124.o
csi_test_mode                                     /home/leon/git/swp-report/iMX6_Platform_SDK/output/mx6sdl/obds/smart_device_rev_a/obj/sdk/drivers/camera/test/csi_test_mode.o
                                                  /home/leon/git/swp-report/iMX6_Platform_SDK/output/mx6sdl/obds/smart_device_rev_a/obj/sdk/drivers/camera/test/camera_test.o
csi_vdi_direct_path                               /home/leon/git/swp-report/iMX6_Platform_SDK/output/mx6sdl/lib/libsdk.a(ipu_common.o)
                                                  /home/leon/git/swp-report/iMX6_Platform_SDK/output/mx6sdl/lib/libsdk.a(ipu_idmac.o)
                                                  /home/leon/git/swp-report/iMX6_Platform_SDK/output/mx6sdl/lib/libsdk.a(ipu_csi.o)
da9053_i2c_reg                                    /home/leon/git/swp-report/iMX6_Platform_SDK/output/mx6sdl/obds/smart_device_rev_a/obj/apps/obds/src/tests/pmic_da9053.o
data_abort_handler                                /home/leon/git/swp-report/iMX6_Platform_SDK/output/mx6sdl/lib/libsdk.a(arm_abort.o)
                                                  /home/leon/git/swp-report/iMX6_Platform_SDK/output/mx6sdl/lib/libsdk.a(vectors.o)
dcic1_iomux_config                                /home/leon/git/swp-report/iMX6_Platform_SDK/output/mx6sdl/lib/libboard_smart_device_rev_a.a(iomux_config.o)
dcic2_iomux_config                                /home/leon/git/swp-report/iMX6_Platform_SDK/output/mx6sdl/lib/libboard_smart_device_rev_a.a(iomux_config.o)
ddr_test                                          /home/leon/git/swp-report/iMX6_Platform_SDK/output/mx6sdl/obds/smart_device_rev_a/obj/apps/obds/src/tests/ddr_test.o
                                                  /home/leon/git/swp-report/iMX6_Platform_SDK/output/mx6sdl/obds/smart_device_rev_a/obj/apps/obds/src/obds.o
default_interrupt_routine                         /home/leon/git/swp-report/iMX6_Platform_SDK/output/mx6sdl/lib/libsdk.a(interrupt.o)
deserializer_io_config                            /home/leon/git/swp-report/iMX6_Platform_SDK/output/mx6sdl/obds/smart_device_rev_a/obj/apps/obds/src/tests/deserializer_ds90ur124.o
dev_spi_nor                                       /home/leon/git/swp-report/iMX6_Platform_SDK/output/mx6sdl/obds/smart_device_rev_a/obj/apps/obds/src/tests/imx_spi_nor_test.o
                                                  /home/leon/git/swp-report/iMX6_Platform_SDK/output/mx6sdl/obds/smart_device_rev_a/obj/sdk/drivers/spi/test/spi_nor_numonyx.o
                                                  /home/leon/git/swp-report/iMX6_Platform_SDK/output/mx6sdl/obds/smart_device_rev_a/obj/sdk/drivers/spi/test/imx_spi_nor_atmel.o
device_id_check_mc13892                           /home/leon/git/swp-report/iMX6_Platform_SDK/output/mx6sdl/obds/smart_device_rev_a/obj/apps/obds/src/tests/pmic_mc13892.o
disable_L1_cache                                  /home/leon/git/swp-report/iMX6_Platform_SDK/output/mx6sdl/lib/libsdk.a(cortexA9.o)
disable_interrupt                                 /home/leon/git/swp-report/iMX6_Platform_SDK/output/mx6sdl/lib/libsdk.a(interrupt.o)
                                                  /home/leon/git/swp-report/iMX6_Platform_SDK/output/mx6sdl/lib/libsdk.a(epit.o)
                                                  /home/leon/git/swp-report/iMX6_Platform_SDK/output/mx6sdl/lib/libsdk.a(usdhc.o)
                                                  /home/leon/git/swp-report/iMX6_Platform_SDK/output/mx6sdl/lib/libsdk.a(imx_uart.o)
                                                  /home/leon/git/swp-report/iMX6_Platform_SDK/output/mx6sdl/lib/libsdk.a(imx_i2c.o)
                                                  /home/leon/git/swp-report/iMX6_Platform_SDK/output/mx6sdl/obds/smart_device_rev_a/obj/sdk/drivers/hdmi/test/hdmi_test.o
disable_para_panel                                /home/leon/git/swp-report/iMX6_Platform_SDK/output/mx6sdl/lib/libboard_smart_device_rev_a.a(board_display.o)
disable_strict_align_check                        /home/leon/git/swp-report/iMX6_Platform_SDK/output/mx6sdl/lib/libsdk.a(cortexA9.o)
                                                  /home/leon/git/swp-report/iMX6_Platform_SDK/output/mx6sdl/obds/smart_device_rev_a/obj/apps/common/platform_init.o
disp_dev_list                                     /home/leon/git/swp-report/iMX6_Platform_SDK/output/mx6sdl/lib/libsdk.a(ips_disp_panel.o)
ds90ur124_init                                    /home/leon/git/swp-report/iMX6_Platform_SDK/output/mx6sdl/obds/smart_device_rev_a/obj/apps/obds/src/tests/deserializer_ds90ur124.o
ds90ur124_receive_cnx_test                        /home/leon/git/swp-report/iMX6_Platform_SDK/output/mx6sdl/obds/smart_device_rev_a/obj/apps/obds/src/tests/deserializer_ds90ur124.o
ds90ur124_test_enable                             /home/leon/git/swp-report/iMX6_Platform_SDK/output/mx6sdl/obds/smart_device_rev_a/obj/apps/obds/src/tests/deserializer_ds90ur124.o
ds90ur124_test_main                               /home/leon/git/swp-report/iMX6_Platform_SDK/output/mx6sdl/obds/smart_device_rev_a/obj/apps/obds/src/tests/deserializer_ds90ur124.o
dump_regs                                         /home/leon/git/swp-report/iMX6_Platform_SDK/output/mx6sdl/lib/libsdk.a(abort_handler.o)
                                                  /home/leon/git/swp-report/iMX6_Platform_SDK/output/mx6sdl/lib/libsdk.a(arm_abort.o)
ecspi1_iomux_config                               /home/leon/git/swp-report/iMX6_Platform_SDK/output/mx6sdl/lib/libboard_smart_device_rev_a.a(ecspi1_iomux_config.o)
                                                  /home/leon/git/swp-report/iMX6_Platform_SDK/output/mx6sdl/lib/libboard_smart_device_rev_a.a(iomux_config.o)
                                                  /home/leon/git/swp-report/iMX6_Platform_SDK/output/mx6sdl/lib/libboard_smart_device_rev_a.a(ecspi_iomux_config.o)
ecspi2_iomux_config                               /home/leon/git/swp-report/iMX6_Platform_SDK/output/mx6sdl/lib/libboard_smart_device_rev_a.a(iomux_config.o)
                                                  /home/leon/git/swp-report/iMX6_Platform_SDK/output/mx6sdl/lib/libboard_smart_device_rev_a.a(ecspi_iomux_config.o)
ecspi3_iomux_config                               /home/leon/git/swp-report/iMX6_Platform_SDK/output/mx6sdl/lib/libboard_smart_device_rev_a.a(iomux_config.o)
                                                  /home/leon/git/swp-report/iMX6_Platform_SDK/output/mx6sdl/lib/libboard_smart_device_rev_a.a(ecspi_iomux_config.o)
ecspi4_iomux_config                               /home/leon/git/swp-report/iMX6_Platform_SDK/output/mx6sdl/lib/libboard_smart_device_rev_a.a(iomux_config.o)
                                                  /home/leon/git/swp-report/iMX6_Platform_SDK/output/mx6sdl/lib/libboard_smart_device_rev_a.a(ecspi_iomux_config.o)
ecspi_close                                       /home/leon/git/swp-report/iMX6_Platform_SDK/output/mx6sdl/lib/libsdk.a(ecspi.o)
ecspi_configure                                   /home/leon/git/swp-report/iMX6_Platform_SDK/output/mx6sdl/lib/libsdk.a(ecspi.o)
ecspi_iomux_config                                /home/leon/git/swp-report/iMX6_Platform_SDK/output/mx6sdl/lib/libboard_smart_device_rev_a.a(ecspi_iomux_config.o)
                                                  /home/leon/git/swp-report/iMX6_Platform_SDK/output/mx6sdl/lib/libsdk.a(ecspi.o)
ecspi_open                                        /home/leon/git/swp-report/iMX6_Platform_SDK/output/mx6sdl/lib/libsdk.a(ecspi.o)
                                                  /home/leon/git/swp-report/iMX6_Platform_SDK/output/mx6sdl/obds/smart_device_rev_a/obj/apps/obds/src/tests/imx_spi_nor_test.o
ecspi_xfer                                        /home/leon/git/swp-report/iMX6_Platform_SDK/output/mx6sdl/lib/libsdk.a(ecspi.o)
                                                  /home/leon/git/swp-report/iMX6_Platform_SDK/output/mx6sdl/obds/smart_device_rev_a/obj/sdk/drivers/spi/test/spi_nor_numonyx.o
                                                  /home/leon/git/swp-report/iMX6_Platform_SDK/output/mx6sdl/obds/smart_device_rev_a/obj/sdk/drivers/spi/test/imx_spi_nor_atmel.o
eeprom_test_enable                                /home/leon/git/swp-report/iMX6_Platform_SDK/output/mx6sdl/obds/smart_device_rev_a/obj/apps/obds/src/tests/i2c_eeprom_at24cxx_test.o
eim_iomux_config                                  /home/leon/git/swp-report/iMX6_Platform_SDK/output/mx6sdl/lib/libboard_smart_device_rev_a.a(iomux_config.o)
                                                  /home/leon/git/swp-report/iMX6_Platform_SDK/output/mx6sdl/obds/smart_device_rev_a/obj/apps/obds/src/tests/weim_nor_flash_test.o
eim_nor_flash_test                                /home/leon/git/swp-report/iMX6_Platform_SDK/output/mx6sdl/obds/smart_device_rev_a/obj/apps/obds/src/tests/weim_nor_flash_test.o
emmc_init                                         /home/leon/git/swp-report/iMX6_Platform_SDK/output/mx6sdl/lib/libsdk.a(usdhc_mmc.o)
                                                  /home/leon/git/swp-report/iMX6_Platform_SDK/output/mx6sdl/lib/libsdk.a(usdhc.o)
emmc_print_cfg_info                               /home/leon/git/swp-report/iMX6_Platform_SDK/output/mx6sdl/lib/libsdk.a(usdhc_mmc.o)
                                                  /home/leon/git/swp-report/iMX6_Platform_SDK/output/mx6sdl/obds/smart_device_rev_a/obj/sdk/drivers/usdhc/test/usdhc_test.o
emuerateDevice                                    /home/leon/git/swp-report/iMX6_Platform_SDK/output/mx6sdl/obds/smart_device_rev_a/obj/sdk/drivers/usb/test/usb0_host_test.o
enable_interrupt                                  /home/leon/git/swp-report/iMX6_Platform_SDK/output/mx6sdl/lib/libsdk.a(interrupt.o)
                                                  /home/leon/git/swp-report/iMX6_Platform_SDK/output/mx6sdl/lib/libsdk.a(epit.o)
                                                  /home/leon/git/swp-report/iMX6_Platform_SDK/output/mx6sdl/lib/libsdk.a(usdhc.o)
                                                  /home/leon/git/swp-report/iMX6_Platform_SDK/output/mx6sdl/lib/libsdk.a(imx_uart.o)
                                                  /home/leon/git/swp-report/iMX6_Platform_SDK/output/mx6sdl/lib/libsdk.a(ipu_common.o)
                                                  /home/leon/git/swp-report/iMX6_Platform_SDK/output/mx6sdl/lib/libsdk.a(imx_i2c.o)
                                                  /home/leon/git/swp-report/iMX6_Platform_SDK/output/mx6sdl/obds/smart_device_rev_a/obj/sdk/drivers/hdmi/test/hdmi_test.o
enable_neon_fpu                                   /home/leon/git/swp-report/iMX6_Platform_SDK/output/mx6sdl/lib/libsdk.a(cortexA9.o)
                                                  /home/leon/git/swp-report/iMX6_Platform_SDK/output/mx6sdl/obds/smart_device_rev_a/obj/apps/common/platform_init.o
enet_iomux_config                                 /home/leon/git/swp-report/iMX6_Platform_SDK/output/mx6sdl/lib/libboard_smart_device_rev_a.a(enet_iomux_config.o)
                                                  /home/leon/git/swp-report/iMX6_Platform_SDK/output/mx6sdl/lib/libboard_smart_device_rev_a.a(iomux_config.o)
                                                  /home/leon/git/swp-report/iMX6_Platform_SDK/output/mx6sdl/lib/libboard_smart_device_rev_a.a(board_network.o)
enet_phy_rework_ar8031                            /home/leon/git/swp-report/iMX6_Platform_SDK/output/mx6sdl/lib/libsdk.a(enet_drv.o)
enet_phy_rework_ksz9021                           /home/leon/git/swp-report/iMX6_Platform_SDK/output/mx6sdl/lib/libsdk.a(enet_drv.o)
enet_test_main                                    /home/leon/git/swp-report/iMX6_Platform_SDK/output/mx6sdl/obds/smart_device_rev_a/obj/apps/obds/src/tests/enet_mx6dldq_test.o
environ                                           /home/leon/git/swp-report/iMX6_Platform_SDK/output/mx6sdl/lib/libsdk.a(runtime_support.o)
epdc_any_luts_active                              /home/leon/git/swp-report/iMX6_Platform_SDK/output/mx6sdl/lib/libsdk.a(mxc_epdc.o)
epdc_any_luts_available                           /home/leon/git/swp-report/iMX6_Platform_SDK/output/mx6sdl/lib/libsdk.a(mxc_epdc.o)
epdc_buffer_init                                  /home/leon/git/swp-report/iMX6_Platform_SDK/output/mx6sdl/lib/libsdk.a(mxc_epdc.o)
                                                  /home/leon/git/swp-report/iMX6_Platform_SDK/output/mx6sdl/obds/smart_device_rev_a/obj/sdk/drivers/epdc/test/epdc_test.o
epdc_clear_lut_complete_irq                       /home/leon/git/swp-report/iMX6_Platform_SDK/output/mx6sdl/lib/libsdk.a(mxc_epdc.o)
epdc_clock_setting                                /home/leon/git/swp-report/iMX6_Platform_SDK/output/mx6sdl/lib/libboard_smart_device_rev_a.a(board_display.o)
                                                  /home/leon/git/swp-report/iMX6_Platform_SDK/output/mx6sdl/obds/smart_device_rev_a/obj/sdk/drivers/epdc/test/epdc_test.o
epdc_dump_registers                               /home/leon/git/swp-report/iMX6_Platform_SDK/output/mx6sdl/lib/libsdk.a(mxc_epdc.o)
epdc_get_next_lut                                 /home/leon/git/swp-report/iMX6_Platform_SDK/output/mx6sdl/lib/libsdk.a(mxc_epdc.o)
                                                  /home/leon/git/swp-report/iMX6_Platform_SDK/output/mx6sdl/obds/smart_device_rev_a/obj/sdk/drivers/epdc/test/epdc_test.o
epdc_init_settings                                /home/leon/git/swp-report/iMX6_Platform_SDK/output/mx6sdl/lib/libsdk.a(mxc_epdc.o)
                                                  /home/leon/git/swp-report/iMX6_Platform_SDK/output/mx6sdl/obds/smart_device_rev_a/obj/sdk/drivers/epdc/test/epdc_test.o
epdc_iomux_config                                 /home/leon/git/swp-report/iMX6_Platform_SDK/output/mx6sdl/lib/libboard_smart_device_rev_a.a(epdc_iomux_config.o)
                                                  /home/leon/git/swp-report/iMX6_Platform_SDK/output/mx6sdl/lib/libboard_smart_device_rev_a.a(iomux_config.o)
                                                  /home/leon/git/swp-report/iMX6_Platform_SDK/output/mx6sdl/obds/smart_device_rev_a/obj/sdk/drivers/epdc/test/epdc_test.o
epdc_is_collision                                 /home/leon/git/swp-report/iMX6_Platform_SDK/output/mx6sdl/lib/libsdk.a(mxc_epdc.o)
epdc_is_lut_active                                /home/leon/git/swp-report/iMX6_Platform_SDK/output/mx6sdl/lib/libsdk.a(mxc_epdc.o)
                                                  /home/leon/git/swp-report/iMX6_Platform_SDK/output/mx6sdl/obds/smart_device_rev_a/obj/sdk/drivers/epdc/test/epdc_test.o
epdc_is_lut_complete                              /home/leon/git/swp-report/iMX6_Platform_SDK/output/mx6sdl/lib/libsdk.a(mxc_epdc.o)
epdc_is_working_buffer_busy                       /home/leon/git/swp-report/iMX6_Platform_SDK/output/mx6sdl/lib/libsdk.a(mxc_epdc.o)
                                                  /home/leon/git/swp-report/iMX6_Platform_SDK/output/mx6sdl/obds/smart_device_rev_a/obj/sdk/drivers/epdc/test/epdc_test.o
epdc_is_working_buffer_complete                   /home/leon/git/swp-report/iMX6_Platform_SDK/output/mx6sdl/lib/libsdk.a(mxc_epdc.o)
epdc_load_image                                   /home/leon/git/swp-report/iMX6_Platform_SDK/output/mx6sdl/lib/libsdk.a(mxc_epdc.o)
                                                  /home/leon/git/swp-report/iMX6_Platform_SDK/output/mx6sdl/obds/smart_device_rev_a/obj/sdk/drivers/epdc/test/epdc_test.o
epdc_power_supply                                 /home/leon/git/swp-report/iMX6_Platform_SDK/output/mx6sdl/lib/libboard_smart_device_rev_a.a(board_display.o)
                                                  /home/leon/git/swp-report/iMX6_Platform_SDK/output/mx6sdl/obds/smart_device_rev_a/obj/sdk/drivers/epdc/test/epdc_test.o
epdc_pvi_svga_sdr_init                            /home/leon/git/swp-report/iMX6_Platform_SDK/output/mx6sdl/obds/smart_device_rev_a/obj/sdk/drivers/epdc/test/epdc_test.o
epdc_reset                                        /home/leon/git/swp-report/iMX6_Platform_SDK/output/mx6sdl/lib/libsdk.a(mxc_epdc.o)
                                                  /home/leon/git/swp-report/iMX6_Platform_SDK/output/mx6sdl/obds/smart_device_rev_a/obj/sdk/drivers/epdc/test/epdc_test.o
epdc_send_erase_to_color                          /home/leon/git/swp-report/iMX6_Platform_SDK/output/mx6sdl/obds/smart_device_rev_a/obj/sdk/drivers/epdc/test/epdc_test.o
epdc_send_image_update                            /home/leon/git/swp-report/iMX6_Platform_SDK/output/mx6sdl/obds/smart_device_rev_a/obj/sdk/drivers/epdc/test/epdc_test.o
epdc_send_mode0_to_black_update                   /home/leon/git/swp-report/iMX6_Platform_SDK/output/mx6sdl/obds/smart_device_rev_a/obj/sdk/drivers/epdc/test/epdc_test.o
epdc_set_update_addr                              /home/leon/git/swp-report/iMX6_Platform_SDK/output/mx6sdl/lib/libsdk.a(mxc_epdc.o)
                                                  /home/leon/git/swp-report/iMX6_Platform_SDK/output/mx6sdl/obds/smart_device_rev_a/obj/sdk/drivers/epdc/test/epdc_test.o
epdc_set_update_coord                             /home/leon/git/swp-report/iMX6_Platform_SDK/output/mx6sdl/lib/libsdk.a(mxc_epdc.o)
                                                  /home/leon/git/swp-report/iMX6_Platform_SDK/output/mx6sdl/obds/smart_device_rev_a/obj/sdk/drivers/epdc/test/epdc_test.o
epdc_set_update_dimensions                        /home/leon/git/swp-report/iMX6_Platform_SDK/output/mx6sdl/lib/libsdk.a(mxc_epdc.o)
                                                  /home/leon/git/swp-report/iMX6_Platform_SDK/output/mx6sdl/obds/smart_device_rev_a/obj/sdk/drivers/epdc/test/epdc_test.o
epdc_set_vertical_timing                          /home/leon/git/swp-report/iMX6_Platform_SDK/output/mx6sdl/lib/libsdk.a(mxc_epdc.o)
epdc_submit_update                                /home/leon/git/swp-report/iMX6_Platform_SDK/output/mx6sdl/lib/libsdk.a(mxc_epdc.o)
                                                  /home/leon/git/swp-report/iMX6_Platform_SDK/output/mx6sdl/obds/smart_device_rev_a/obj/sdk/drivers/epdc/test/epdc_test.o
epdc_test                                         /home/leon/git/swp-report/iMX6_Platform_SDK/output/mx6sdl/obds/smart_device_rev_a/obj/sdk/drivers/epdc/test/epdc_test.o
                                                  /home/leon/git/swp-report/iMX6_Platform_SDK/output/mx6sdl/obds/smart_device_rev_a/obj/apps/obds/src/obds.o
epdc_update_image                                 /home/leon/git/swp-report/iMX6_Platform_SDK/output/mx6sdl/obds/smart_device_rev_a/obj/sdk/drivers/epdc/test/epdc_test.o
epit1_iomux_config                                /home/leon/git/swp-report/iMX6_Platform_SDK/output/mx6sdl/lib/libboard_smart_device_rev_a.a(iomux_config.o)
epit2_iomux_config                                /home/leon/git/swp-report/iMX6_Platform_SDK/output/mx6sdl/lib/libboard_smart_device_rev_a.a(iomux_config.o)
epit_counter_disable                              /home/leon/git/swp-report/iMX6_Platform_SDK/output/mx6sdl/lib/libsdk.a(epit.o)
                                                  /home/leon/git/swp-report/iMX6_Platform_SDK/output/mx6sdl/lib/libsdk.a(timer.o)
epit_counter_enable                               /home/leon/git/swp-report/iMX6_Platform_SDK/output/mx6sdl/lib/libsdk.a(epit.o)
                                                  /home/leon/git/swp-report/iMX6_Platform_SDK/output/mx6sdl/lib/libsdk.a(timer.o)
epit_get_compare_event                            /home/leon/git/swp-report/iMX6_Platform_SDK/output/mx6sdl/lib/libsdk.a(epit.o)
                                                  /home/leon/git/swp-report/iMX6_Platform_SDK/output/mx6sdl/lib/libsdk.a(timer.o)
epit_get_counter_value                            /home/leon/git/swp-report/iMX6_Platform_SDK/output/mx6sdl/lib/libsdk.a(epit.o)
epit_init                                         /home/leon/git/swp-report/iMX6_Platform_SDK/output/mx6sdl/lib/libsdk.a(epit.o)
                                                  /home/leon/git/swp-report/iMX6_Platform_SDK/output/mx6sdl/lib/libsdk.a(timer.o)
epit_reload_counter                               /home/leon/git/swp-report/iMX6_Platform_SDK/output/mx6sdl/lib/libsdk.a(epit.o)
epit_set_compare_event                            /home/leon/git/swp-report/iMX6_Platform_SDK/output/mx6sdl/lib/libsdk.a(epit.o)
epit_setup_interrupt                              /home/leon/git/swp-report/iMX6_Platform_SDK/output/mx6sdl/lib/libsdk.a(epit.o)
errno                                             /home/leon/git/swp-report/iMX6_Platform_SDK/output/mx6sdl/lib/libsdk.a(runtime_support.o)
                                                  /home/leon/riotboard/arm-2012.09/bin/../arm-none-eabi/lib//libc.a(lib_a-readr.o)
                                                  /home/leon/riotboard/arm-2012.09/bin/../arm-none-eabi/lib//libc.a(lib_a-lseekr.o)
                                                  /home/leon/riotboard/arm-2012.09/bin/../arm-none-eabi/lib//libc.a(lib_a-isattyr.o)
                                                  /home/leon/riotboard/arm-2012.09/bin/../arm-none-eabi/lib//libc.a(lib_a-fstatr.o)
                                                  /home/leon/riotboard/arm-2012.09/bin/../arm-none-eabi/lib//libc.a(lib_a-closer.o)
                                                  /home/leon/riotboard/arm-2012.09/bin/../arm-none-eabi/lib//libc.a(lib_a-writer.o)
                                                  /home/leon/riotboard/arm-2012.09/bin/../arm-none-eabi/lib//libc.a(lib_a-signalr.o)
                                                  /home/leon/riotboard/arm-2012.09/bin/../arm-none-eabi/lib//libc.a(lib_a-reent.o)
                                                  /home/leon/riotboard/arm-2012.09/bin/../arm-none-eabi/lib//libc.a(lib_a-sbrkr.o)
esai_clk_sel_gate_on                              /home/leon/git/swp-report/iMX6_Platform_SDK/output/mx6sdl/lib/libboard_smart_device_rev_a.a(board_audio.o)
                                                  /home/leon/git/swp-report/iMX6_Platform_SDK/output/mx6sdl/lib/libsdk.a(imx_esai.o)
esai_codec_power_on                               /home/leon/git/swp-report/iMX6_Platform_SDK/output/mx6sdl/lib/libboard_smart_device_rev_a.a(board_audio.o)
                                                  /home/leon/git/swp-report/iMX6_Platform_SDK/output/mx6sdl/lib/libsdk.a(cs42888.o)
esai_config                                       /home/leon/git/swp-report/iMX6_Platform_SDK/output/mx6sdl/lib/libsdk.a(imx_esai.o)
esai_deinit                                       /home/leon/git/swp-report/iMX6_Platform_SDK/output/mx6sdl/lib/libsdk.a(imx_esai.o)
esai_init                                         /home/leon/git/swp-report/iMX6_Platform_SDK/output/mx6sdl/lib/libsdk.a(imx_esai.o)
esai_iomux_config                                 /home/leon/git/swp-report/iMX6_Platform_SDK/output/mx6sdl/lib/libboard_smart_device_rev_a.a(iomux_config.o)
                                                  /home/leon/git/swp-report/iMX6_Platform_SDK/output/mx6sdl/lib/libsdk.a(imx_esai.o)
esai_test                                         /home/leon/git/swp-report/iMX6_Platform_SDK/output/mx6sdl/obds/smart_device_rev_a/obj/apps/obds/src/tests/audio_esai_test.o
esai_write_fifo                                   /home/leon/git/swp-report/iMX6_Platform_SDK/output/mx6sdl/lib/libsdk.a(imx_esai.o)
exception_handler                                 /home/leon/git/swp-report/iMX6_Platform_SDK/output/mx6sdl/lib/libsdk.a(vectors.o)
ext_hdmi_transmitter_power_on                     /home/leon/git/swp-report/iMX6_Platform_SDK/output/mx6sdl/lib/libboard_smart_device_rev_a.a(board_hdmi.o)
                                                  /home/leon/git/swp-report/iMX6_Platform_SDK/output/mx6sdl/lib/libsdk.a(ips_disp_panel.o)
fclose                                            /home/leon/riotboard/arm-2012.09/bin/../arm-none-eabi/lib//libc.a(lib_a-fclose.o)
                                                  /home/leon/riotboard/arm-2012.09/bin/../arm-none-eabi/lib//libc.a(lib_a-findfp.o)
fflush                                            /home/leon/riotboard/arm-2012.09/bin/../arm-none-eabi/lib//libc.a(lib_a-fflush.o)
                                                  /home/leon/riotboard/arm-2012.09/bin/../arm-none-eabi/lib//libc.a(lib_a-refill.o)
fiprintf                                          /home/leon/riotboard/arm-2012.09/bin/../arm-none-eabi/lib//libc.a(lib_a-fiprintf.o)
                                                  /home/leon/riotboard/arm-2012.09/bin/../arm-none-eabi/lib//libc.a(lib_a-assert.o)
flexcan1_iomux_config                             /home/leon/git/swp-report/iMX6_Platform_SDK/output/mx6sdl/lib/libboard_smart_device_rev_a.a(flexcan1_iomux_config.o)
                                                  /home/leon/git/swp-report/iMX6_Platform_SDK/output/mx6sdl/lib/libboard_smart_device_rev_a.a(iomux_config.o)
flexcan2_iomux_config                             /home/leon/git/swp-report/iMX6_Platform_SDK/output/mx6sdl/lib/libboard_smart_device_rev_a.a(iomux_config.o)
flexcan_test                                      /home/leon/git/swp-report/iMX6_Platform_SDK/output/mx6sdl/obds/smart_device_rev_a/obj/apps/obds/src/tests/flexcan_test.o
fputc                                             /home/leon/riotboard/arm-2012.09/bin/../arm-none-eabi/lib//libc.a(lib_a-fputc.o)
                                                  /home/leon/git/swp-report/iMX6_Platform_SDK/output/mx6sdl/lib/libsdk.a(system_util.o)
                                                  /home/leon/git/swp-report/iMX6_Platform_SDK/output/mx6sdl/lib/libsdk.a(menu.o)
                                                  /home/leon/git/swp-report/iMX6_Platform_SDK/output/mx6sdl/obds/smart_device_rev_a/obj/apps/obds/src/tests/program_mac_address.o
fputwc                                            /home/leon/riotboard/arm-2012.09/bin/../arm-none-eabi/lib//libc.a(lib_a-fputwc.o)
frame_list                                        /home/leon/git/swp-report/iMX6_Platform_SDK/output/mx6sdl/obds/smart_device_rev_a/obj/sdk/drivers/usb/test/usb0_host_test.o
free                                              /home/leon/riotboard/arm-2012.09/bin/../arm-none-eabi/lib//libc.a(lib_a-malloc.o)
                                                  /home/leon/git/swp-report/iMX6_Platform_SDK/output/mx6sdl/lib/libsdk.a(usbh_drv.o)
                                                  /home/leon/git/swp-report/iMX6_Platform_SDK/output/mx6sdl/obds/smart_device_rev_a/obj/sdk/drivers/usb/test/usb0_host_test.o
                                                  /home/leon/git/swp-report/iMX6_Platform_SDK/output/mx6sdl/obds/smart_device_rev_a/obj/apps/obds/src/tests/usb_tests_obds.o
                                                  /home/leon/git/swp-report/iMX6_Platform_SDK/output/mx6sdl/obds/smart_device_rev_a/obj/apps/obds/src/obds.o
free_memory_end                                   /home/leon/git/swp-report/iMX6_Platform_SDK/output/mx6sdl/lib/libsdk.a(runtime_support.o)
free_memory_start                                 /home/leon/git/swp-report/iMX6_Platform_SDK/output/mx6sdl/lib/libsdk.a(runtime_support.o)
free_test_results                                 /home/leon/git/swp-report/iMX6_Platform_SDK/output/mx6sdl/obds/smart_device_rev_a/obj/apps/obds/src/obds.o
fsl_gray_600x230                                  /home/leon/git/swp-report/iMX6_Platform_SDK/output/mx6sdl/lib/libsdk.a(mxc_epdc.o)
gAudio_sample                                     /home/leon/git/swp-report/iMX6_Platform_SDK/output/mx6sdl/obds/smart_device_rev_a/obj/sdk/drivers/hdmi/test/init_dma_data.o
gImage_foretext                                   /home/leon/git/swp-report/iMX6_Platform_SDK/output/mx6sdl/obds/smart_device_rev_a/obj/sdk/drivers/ipu/test/ipu_image.o
gImage_fsl                                        /home/leon/git/swp-report/iMX6_Platform_SDK/output/mx6sdl/obds/smart_device_rev_a/obj/apps/obds/src/tests/display_test.o
g_KSZ9021RN_test_name                             /home/leon/git/swp-report/iMX6_Platform_SDK/output/mx6sdl/obds/smart_device_rev_a/obj/apps/obds/src/tests/enet_mx6dldq_test.o
g_TextAttributeBlink                              /home/leon/git/swp-report/iMX6_Platform_SDK/output/mx6sdl/lib/libsdk.a(text_color.o)
g_TextAttributeBold                               /home/leon/git/swp-report/iMX6_Platform_SDK/output/mx6sdl/lib/libsdk.a(text_color.o)
                                                  /home/leon/git/swp-report/iMX6_Platform_SDK/output/mx6sdl/lib/libsdk.a(system_util.o)
                                                  /home/leon/git/swp-report/iMX6_Platform_SDK/output/mx6sdl/lib/libsdk.a(menu.o)
                                                  /home/leon/git/swp-report/iMX6_Platform_SDK/output/mx6sdl/obds/smart_device_rev_a/obj/apps/obds/src/tests/program_mac_address.o
                                                  /home/leon/git/swp-report/iMX6_Platform_SDK/output/mx6sdl/obds/smart_device_rev_a/obj/apps/obds/src/tests/program_board_id.o
                                                  /home/leon/git/swp-report/iMX6_Platform_SDK/output/mx6sdl/obds/smart_device_rev_a/obj/apps/obds/src/obds.o
g_TextAttributeDefault                            /home/leon/git/swp-report/iMX6_Platform_SDK/output/mx6sdl/lib/libsdk.a(text_color.o)
                                                  /home/leon/git/swp-report/iMX6_Platform_SDK/output/mx6sdl/lib/libsdk.a(menu.o)
                                                  /home/leon/git/swp-report/iMX6_Platform_SDK/output/mx6sdl/obds/smart_device_rev_a/obj/apps/obds/src/tests/snvs_srtc_test.o
                                                  /home/leon/git/swp-report/iMX6_Platform_SDK/output/mx6sdl/obds/smart_device_rev_a/obj/apps/obds/src/obds.o
g_TextAttributeDim                                /home/leon/git/swp-report/iMX6_Platform_SDK/output/mx6sdl/lib/libsdk.a(text_color.o)
                                                  /home/leon/git/swp-report/iMX6_Platform_SDK/output/mx6sdl/obds/smart_device_rev_a/obj/apps/obds/src/obds.o
g_TextAttributeHidden                             /home/leon/git/swp-report/iMX6_Platform_SDK/output/mx6sdl/lib/libsdk.a(text_color.o)
g_TextAttributeReverse                            /home/leon/git/swp-report/iMX6_Platform_SDK/output/mx6sdl/lib/libsdk.a(text_color.o)
g_TextAttributeUnderline                          /home/leon/git/swp-report/iMX6_Platform_SDK/output/mx6sdl/lib/libsdk.a(text_color.o)
g_TextColorBlack                                  /home/leon/git/swp-report/iMX6_Platform_SDK/output/mx6sdl/lib/libsdk.a(text_color.o)
g_TextColorBlue                                   /home/leon/git/swp-report/iMX6_Platform_SDK/output/mx6sdl/lib/libsdk.a(text_color.o)
                                                  /home/leon/git/swp-report/iMX6_Platform_SDK/output/mx6sdl/lib/libsdk.a(menu.o)
g_TextColorCyan                                   /home/leon/git/swp-report/iMX6_Platform_SDK/output/mx6sdl/lib/libsdk.a(text_color.o)
g_TextColorGray                                   /home/leon/git/swp-report/iMX6_Platform_SDK/output/mx6sdl/lib/libsdk.a(text_color.o)
                                                  /home/leon/git/swp-report/iMX6_Platform_SDK/output/mx6sdl/obds/smart_device_rev_a/obj/apps/obds/src/obds.o
g_TextColorGreen                                  /home/leon/git/swp-report/iMX6_Platform_SDK/output/mx6sdl/lib/libsdk.a(text_color.o)
                                                  /home/leon/git/swp-report/iMX6_Platform_SDK/output/mx6sdl/obds/smart_device_rev_a/obj/apps/obds/src/obds.o
g_TextColorLightBlue                              /home/leon/git/swp-report/iMX6_Platform_SDK/output/mx6sdl/lib/libsdk.a(text_color.o)
g_TextColorMagenta                                /home/leon/git/swp-report/iMX6_Platform_SDK/output/mx6sdl/lib/libsdk.a(text_color.o)
                                                  /home/leon/git/swp-report/iMX6_Platform_SDK/output/mx6sdl/lib/libsdk.a(menu.o)
g_TextColorOrange                                 /home/leon/git/swp-report/iMX6_Platform_SDK/output/mx6sdl/lib/libsdk.a(text_color.o)
g_TextColorPurple                                 /home/leon/git/swp-report/iMX6_Platform_SDK/output/mx6sdl/lib/libsdk.a(text_color.o)
g_TextColorRed                                    /home/leon/git/swp-report/iMX6_Platform_SDK/output/mx6sdl/lib/libsdk.a(text_color.o)
                                                  /home/leon/git/swp-report/iMX6_Platform_SDK/output/mx6sdl/lib/libsdk.a(system_util.o)
                                                  /home/leon/git/swp-report/iMX6_Platform_SDK/output/mx6sdl/lib/libsdk.a(menu.o)
                                                  /home/leon/git/swp-report/iMX6_Platform_SDK/output/mx6sdl/obds/smart_device_rev_a/obj/apps/obds/src/tests/program_mac_address.o
                                                  /home/leon/git/swp-report/iMX6_Platform_SDK/output/mx6sdl/obds/smart_device_rev_a/obj/apps/obds/src/tests/program_board_id.o
                                                  /home/leon/git/swp-report/iMX6_Platform_SDK/output/mx6sdl/obds/smart_device_rev_a/obj/apps/obds/src/obds.o
g_TextColorWhite                                  /home/leon/git/swp-report/iMX6_Platform_SDK/output/mx6sdl/lib/libsdk.a(text_color.o)
g_TextColorYellow                                 /home/leon/git/swp-report/iMX6_Platform_SDK/output/mx6sdl/lib/libsdk.a(text_color.o)
                                                  /home/leon/git/swp-report/iMX6_Platform_SDK/output/mx6sdl/lib/libsdk.a(menu.o)
                                                  /home/leon/git/swp-report/iMX6_Platform_SDK/output/mx6sdl/obds/smart_device_rev_a/obj/apps/obds/src/tests/snvs_srtc_test.o
                                                  /home/leon/git/swp-report/iMX6_Platform_SDK/output/mx6sdl/obds/smart_device_rev_a/obj/apps/obds/src/obds.o
g_adv7180_i2c_device                              /home/leon/git/swp-report/iMX6_Platform_SDK/output/mx6sdl/lib/libboard_smart_device_rev_a.a(board_i2c.o)
                                                  /home/leon/git/swp-report/iMX6_Platform_SDK/output/mx6sdl/obds/smart_device_rev_a/obj/apps/obds/src/tests/video_dec_adv7180.o
g_android_buttons_test_name                       /home/leon/git/swp-report/iMX6_Platform_SDK/output/mx6sdl/obds/smart_device_rev_a/obj/apps/obds/src/tests/android_buttons_test.o
g_ar8031_test_name                                /home/leon/git/swp-report/iMX6_Platform_SDK/output/mx6sdl/obds/smart_device_rev_a/obj/apps/obds/src/tests/enet_mx6dldq_test.o
                                                  /home/leon/git/swp-report/iMX6_Platform_SDK/output/mx6sdl/obds/smart_device_rev_a/obj/apps/obds/src/obds.o
g_ard_main_board_reset_button_test                /home/leon/git/swp-report/iMX6_Platform_SDK/output/mx6sdl/obds/smart_device_rev_a/obj/apps/obds/src/tests/video_dec_ARD_MB_reset_button.o
g_ard_mb_expander_reset_test_name                 /home/leon/git/swp-report/iMX6_Platform_SDK/output/mx6sdl/obds/smart_device_rev_a/obj/apps/obds/src/tests/video_dec_ARD_MBrst_from_cpu_expander.o
g_at24cx_i2c_device                               /home/leon/git/swp-report/iMX6_Platform_SDK/output/mx6sdl/lib/libboard_smart_device_rev_a.a(board_i2c.o)
                                                  /home/leon/git/swp-report/iMX6_Platform_SDK/output/mx6sdl/obds/smart_device_rev_a/obj/apps/obds/src/tests/i2c_eeprom_at24cxx_test.o
g_audio_esai_test_name                            /home/leon/git/swp-report/iMX6_Platform_SDK/output/mx6sdl/obds/smart_device_rev_a/obj/apps/obds/src/tests/audio_esai_test.o
g_audio_ssi_test_name                             /home/leon/git/swp-report/iMX6_Platform_SDK/output/mx6sdl/obds/smart_device_rev_a/obj/apps/obds/src/tests/audio_ssi_test.o
                                                  /home/leon/git/swp-report/iMX6_Platform_SDK/output/mx6sdl/obds/smart_device_rev_a/obj/apps/obds/src/obds.o
g_camera_i2c_port                                 /home/leon/git/swp-report/iMX6_Platform_SDK/output/mx6sdl/lib/libboard_smart_device_rev_a.a(board_camera.o)
                                                  /home/leon/git/swp-report/iMX6_Platform_SDK/output/mx6sdl/lib/libsdk.a(smd_sensor.o)
g_camera_modes                                    /home/leon/git/swp-report/iMX6_Platform_SDK/output/mx6sdl/lib/libsdk.a(camera_profile.o)
g_camera_profiles                                 /home/leon/git/swp-report/iMX6_Platform_SDK/output/mx6sdl/lib/libsdk.a(camera_profile.o)
                                                  /home/leon/git/swp-report/iMX6_Platform_SDK/output/mx6sdl/lib/libsdk.a(smd_sensor.o)
g_camera_test_name                                /home/leon/git/swp-report/iMX6_Platform_SDK/output/mx6sdl/obds/smart_device_rev_a/obj/sdk/drivers/camera/test/camera_test.o
                                                  /home/leon/git/swp-report/iMX6_Platform_SDK/output/mx6sdl/obds/smart_device_rev_a/obj/apps/obds/src/obds.o
g_cs42888_i2c_device                              /home/leon/git/swp-report/iMX6_Platform_SDK/output/mx6sdl/lib/libboard_smart_device_rev_a.a(board_i2c.o)
                                                  /home/leon/git/swp-report/iMX6_Platform_SDK/output/mx6sdl/lib/libsdk.a(cs42888.o)
g_cs42888_i2c_device_id_test_name                 /home/leon/git/swp-report/iMX6_Platform_SDK/output/mx6sdl/obds/smart_device_rev_a/obj/apps/obds/src/tests/i2c_device_check_cs42888.o
g_ddr_test_name                                   /home/leon/git/swp-report/iMX6_Platform_SDK/output/mx6sdl/obds/smart_device_rev_a/obj/apps/obds/src/tests/ddr_test.o
                                                  /home/leon/git/swp-report/iMX6_Platform_SDK/output/mx6sdl/obds/smart_device_rev_a/obj/apps/obds/src/obds.o
g_debug_uart_port                                 /home/leon/git/swp-report/iMX6_Platform_SDK/output/mx6sdl/lib/libboard_smart_device_rev_a.a(hardware_modules.o)
                                                  /home/leon/git/swp-report/iMX6_Platform_SDK/output/mx6sdl/lib/libsdk.a(runtime_support.o)
                                                  /home/leon/git/swp-report/iMX6_Platform_SDK/output/mx6sdl/lib/libsdk.a(system_util.o)
                                                  /home/leon/git/swp-report/iMX6_Platform_SDK/output/mx6sdl/obds/smart_device_rev_a/obj/sdk/drivers/camera/test/csi_test_mode.o
                                                  /home/leon/git/swp-report/iMX6_Platform_SDK/output/mx6sdl/obds/smart_device_rev_a/obj/apps/common/print_clock_info.o
                                                  /home/leon/git/swp-report/iMX6_Platform_SDK/output/mx6sdl/obds/smart_device_rev_a/obj/apps/common/platform_init.o
g_eim_NOR_flash_test_name                         /home/leon/git/swp-report/iMX6_Platform_SDK/output/mx6sdl/obds/smart_device_rev_a/obj/apps/obds/src/tests/weim_nor_flash_test.o
g_emc1046_i2c_device_id_test_name                 /home/leon/git/swp-report/iMX6_Platform_SDK/output/mx6sdl/obds/smart_device_rev_a/obj/apps/obds/src/tests/i2c_device_temp_sensor_emc1046.o
g_epdc_test_name                                  /home/leon/git/swp-report/iMX6_Platform_SDK/output/mx6sdl/obds/smart_device_rev_a/obj/sdk/drivers/epdc/test/epdc_test.o
                                                  /home/leon/git/swp-report/iMX6_Platform_SDK/output/mx6sdl/obds/smart_device_rev_a/obj/apps/obds/src/obds.o
g_flexcan_test_name                               /home/leon/git/swp-report/iMX6_Platform_SDK/output/mx6sdl/obds/smart_device_rev_a/obj/apps/obds/src/tests/flexcan_test.o
g_gpio_led_test_name                              /home/leon/git/swp-report/iMX6_Platform_SDK/output/mx6sdl/obds/smart_device_rev_a/obj/apps/obds/src/tests/gpio_led.o
                                                  /home/leon/git/swp-report/iMX6_Platform_SDK/output/mx6sdl/obds/smart_device_rev_a/obj/apps/obds/src/obds.o
g_hs_tsc_p1003_i2c_device_id_test_name            /home/leon/git/swp-report/iMX6_Platform_SDK/output/mx6sdl/obds/smart_device_rev_a/obj/apps/obds/src/tests/i2c_device_id_check_p1003_tsc.o
                                                  /home/leon/git/swp-report/iMX6_Platform_SDK/output/mx6sdl/obds/smart_device_rev_a/obj/apps/obds/src/obds.o
g_interrupt_handlers                              /home/leon/git/swp-report/iMX6_Platform_SDK/output/mx6sdl/lib/libsdk.a(interrupt.o)
g_ipu_display_tests_name                          /home/leon/git/swp-report/iMX6_Platform_SDK/output/mx6sdl/obds/smart_device_rev_a/obj/apps/obds/src/tests/display_test.o
                                                  /home/leon/git/swp-report/iMX6_Platform_SDK/output/mx6sdl/obds/smart_device_rev_a/obj/apps/obds/src/obds.o
g_isl29023_i2c_device_id_test_name                /home/leon/git/swp-report/iMX6_Platform_SDK/output/mx6sdl/obds/smart_device_rev_a/obj/apps/obds/src/tests/i2c_check_light_sensor_isl29023.o
                                                  /home/leon/git/swp-report/iMX6_Platform_SDK/output/mx6sdl/obds/smart_device_rev_a/obj/apps/obds/src/obds.o
g_mag3110_i2c_device_id_test_name                 /home/leon/git/swp-report/iMX6_Platform_SDK/output/mx6sdl/obds/smart_device_rev_a/obj/apps/obds/src/tests/i2c_device_digital_compass_mag3110.o
                                                  /home/leon/git/swp-report/iMX6_Platform_SDK/output/mx6sdl/obds/smart_device_rev_a/obj/apps/obds/src/obds.o
g_mag3112_i2c_device_id_test_name                 /home/leon/git/swp-report/iMX6_Platform_SDK/output/mx6sdl/obds/smart_device_rev_a/obj/apps/obds/src/tests/i2c_device_digital_compass_mag3112.o
g_max17135_i2c_device_id_test_name                /home/leon/git/swp-report/iMX6_Platform_SDK/output/mx6sdl/obds/smart_device_rev_a/obj/apps/obds/src/tests/pmic_max17135.o
g_max7310_i2c_device_id_test_name                 /home/leon/git/swp-report/iMX6_Platform_SDK/output/mx6sdl/obds/smart_device_rev_a/obj/sdk/common/ioexpander/test/max7310_test.o
g_microsecondTimerMultiple                        /home/leon/git/swp-report/iMX6_Platform_SDK/output/mx6sdl/lib/libsdk.a(timer.o)
g_mma8450_i2c_device_id_test_name                 /home/leon/git/swp-report/iMX6_Platform_SDK/output/mx6sdl/obds/smart_device_rev_a/obj/apps/obds/src/tests/i2c_device_id_check_mma8450.o
g_mma8451_i2c_device                              /home/leon/git/swp-report/iMX6_Platform_SDK/output/mx6sdl/lib/libboard_smart_device_rev_a.a(board_i2c.o)
g_mma8451_i2c_device_id_test_name                 /home/leon/git/swp-report/iMX6_Platform_SDK/output/mx6sdl/obds/smart_device_rev_a/obj/apps/obds/src/tests/i2c_device_id_check_mma8451.o
                                                  /home/leon/git/swp-report/iMX6_Platform_SDK/output/mx6sdl/obds/smart_device_rev_a/obj/apps/obds/src/obds.o
g_mmcsd_test_name                                 /home/leon/git/swp-report/iMX6_Platform_SDK/output/mx6sdl/obds/smart_device_rev_a/obj/apps/obds/src/tests/mmcsd_test.o
                                                  /home/leon/git/swp-report/iMX6_Platform_SDK/output/mx6sdl/obds/smart_device_rev_a/obj/apps/obds/src/obds.o
g_mt9p111_af_firmware                             /home/leon/git/swp-report/iMX6_Platform_SDK/output/mx6sdl/lib/libsdk.a(camera_profile.o)
g_mt9p111_af_ready                                /home/leon/git/swp-report/iMX6_Platform_SDK/output/mx6sdl/lib/libsdk.a(camera_profile.o)
g_mt9p111_af_trigger                              /home/leon/git/swp-report/iMX6_Platform_SDK/output/mx6sdl/lib/libsdk.a(camera_profile.o)
g_mt9p111_mode_vga_640_480_30fps                  /home/leon/git/swp-report/iMX6_Platform_SDK/output/mx6sdl/lib/libsdk.a(camera_profile.o)
g_mt9p111_sensor_detection                        /home/leon/git/swp-report/iMX6_Platform_SDK/output/mx6sdl/lib/libsdk.a(camera_profile.o)
g_os81050_i2c_device                              /home/leon/git/swp-report/iMX6_Platform_SDK/output/mx6sdl/lib/libboard_smart_device_rev_a.a(board_i2c.o)
                                                  /home/leon/git/swp-report/iMX6_Platform_SDK/output/mx6sdl/obds/smart_device_rev_a/obj/apps/obds/src/tests/mlb_os81050.o
g_ov3640_mode_vga_640_480_30fps                   /home/leon/git/swp-report/iMX6_Platform_SDK/output/mx6sdl/lib/libsdk.a(camera_profile.o)
g_ov3640_sensor_detection                         /home/leon/git/swp-report/iMX6_Platform_SDK/output/mx6sdl/lib/libsdk.a(camera_profile.o)
g_ov5640_mode_vga_640_480_30fps                   /home/leon/git/swp-report/iMX6_Platform_SDK/output/mx6sdl/lib/libsdk.a(camera_profile.o)
g_ov5640_sensor_detection                         /home/leon/git/swp-report/iMX6_Platform_SDK/output/mx6sdl/lib/libsdk.a(camera_profile.o)
g_ov5642_af_firmware                              /home/leon/git/swp-report/iMX6_Platform_SDK/output/mx6sdl/lib/libsdk.a(camera_profile.o)
g_ov5642_af_ready                                 /home/leon/git/swp-report/iMX6_Platform_SDK/output/mx6sdl/lib/libsdk.a(camera_profile.o)
g_ov5642_af_trigger                               /home/leon/git/swp-report/iMX6_Platform_SDK/output/mx6sdl/lib/libsdk.a(camera_profile.o)
g_ov5642_mode_vga_640_480_30fps                   /home/leon/git/swp-report/iMX6_Platform_SDK/output/mx6sdl/lib/libsdk.a(camera_profile.o)
g_ov5642_sensor_detection                         /home/leon/git/swp-report/iMX6_Platform_SDK/output/mx6sdl/lib/libsdk.a(camera_profile.o)
g_p1003_tsc_i2c_device                            /home/leon/git/swp-report/iMX6_Platform_SDK/output/mx6sdl/lib/libboard_smart_device_rev_a.a(board_i2c.o)
                                                  /home/leon/git/swp-report/iMX6_Platform_SDK/output/mx6sdl/obds/smart_device_rev_a/obj/apps/obds/src/tests/i2c_device_id_check_p1003_tsc.o
g_pmic_da9053_i2c_device                          /home/leon/git/swp-report/iMX6_Platform_SDK/output/mx6sdl/lib/libboard_smart_device_rev_a.a(board_i2c.o)
                                                  /home/leon/git/swp-report/iMX6_Platform_SDK/output/mx6sdl/obds/smart_device_rev_a/obj/apps/obds/src/tests/touch_screen.o
                                                  /home/leon/git/swp-report/iMX6_Platform_SDK/output/mx6sdl/obds/smart_device_rev_a/obj/apps/obds/src/tests/pmic_da9053.o
g_pmic_ltc3589_i2c_device                         /home/leon/git/swp-report/iMX6_Platform_SDK/output/mx6sdl/lib/libboard_smart_device_rev_a.a(board_i2c.o)
                                                  /home/leon/git/swp-report/iMX6_Platform_SDK/output/mx6sdl/obds/smart_device_rev_a/obj/apps/obds/src/tests/pmic_lt3589.o
g_pmic_max17135_i2c_device                        /home/leon/git/swp-report/iMX6_Platform_SDK/output/mx6sdl/lib/libboard_smart_device_rev_a.a(board_i2c.o)
                                                  /home/leon/git/swp-report/iMX6_Platform_SDK/output/mx6sdl/obds/smart_device_rev_a/obj/apps/obds/src/tests/pmic_max17135.o
g_pmic_pf0100_i2c_device                          /home/leon/git/swp-report/iMX6_Platform_SDK/output/mx6sdl/lib/libboard_smart_device_rev_a.a(board_i2c.o)
                                                  /home/leon/git/swp-report/iMX6_Platform_SDK/output/mx6sdl/obds/smart_device_rev_a/obj/sdk/common/pmic/pfuse/pf0100.o
g_pmic_pf0100_i2c_device_id_test_name             /home/leon/git/swp-report/iMX6_Platform_SDK/output/mx6sdl/obds/smart_device_rev_a/obj/sdk/common/pmic/pfuse/pf0100.o
                                                  /home/leon/git/swp-report/iMX6_Platform_SDK/output/mx6sdl/obds/smart_device_rev_a/obj/apps/obds/src/obds.o
g_ppl3115_i2c_device_id_test_name                 /home/leon/git/swp-report/iMX6_Platform_SDK/output/mx6sdl/obds/smart_device_rev_a/obj/apps/obds/src/tests/i2c_device_barometer_ppl3115.o
g_program_board_id_test_name                      /home/leon/git/swp-report/iMX6_Platform_SDK/output/mx6sdl/obds/smart_device_rev_a/obj/apps/obds/src/tests/program_board_id.o
                                                  /home/leon/git/swp-report/iMX6_Platform_SDK/output/mx6sdl/obds/smart_device_rev_a/obj/apps/obds/src/obds.o
g_program_mac_address_test_name                   /home/leon/git/swp-report/iMX6_Platform_SDK/output/mx6sdl/obds/smart_device_rev_a/obj/apps/obds/src/tests/program_mac_address.o
                                                  /home/leon/git/swp-report/iMX6_Platform_SDK/output/mx6sdl/obds/smart_device_rev_a/obj/apps/obds/src/obds.o
g_sgtl5000_i2c_device                             /home/leon/git/swp-report/iMX6_Platform_SDK/output/mx6sdl/lib/libboard_smart_device_rev_a.a(board_i2c.o)
                                                  /home/leon/git/swp-report/iMX6_Platform_SDK/output/mx6sdl/lib/libsdk.a(sgtl5000.o)
g_si476x_i2c_device                               /home/leon/git/swp-report/iMX6_Platform_SDK/output/mx6sdl/lib/libboard_smart_device_rev_a.a(board_i2c.o)
                                                  /home/leon/git/swp-report/iMX6_Platform_SDK/output/mx6sdl/obds/smart_device_rev_a/obj/apps/obds/src/tests/fm_tuner_si476x_test.o
g_snvs_srtc_test_name                             /home/leon/git/swp-report/iMX6_Platform_SDK/output/mx6sdl/obds/smart_device_rev_a/obj/apps/obds/src/tests/snvs_srtc_test.o
                                                  /home/leon/git/swp-report/iMX6_Platform_SDK/output/mx6sdl/obds/smart_device_rev_a/obj/apps/obds/src/obds.o
g_spi_nor_test_name                               /home/leon/git/swp-report/iMX6_Platform_SDK/output/mx6sdl/obds/smart_device_rev_a/obj/apps/obds/src/tests/imx_spi_nor_test.o
                                                  /home/leon/git/swp-report/iMX6_Platform_SDK/output/mx6sdl/obds/smart_device_rev_a/obj/apps/obds/src/obds.o
g_system_timer_port                               /home/leon/git/swp-report/iMX6_Platform_SDK/output/mx6sdl/lib/libboard_smart_device_rev_a.a(hardware_modules.o)
                                                  /home/leon/git/swp-report/iMX6_Platform_SDK/output/mx6sdl/lib/libsdk.a(timer.o)
g_touch_buttons_test_name                         /home/leon/git/swp-report/iMX6_Platform_SDK/output/mx6sdl/obds/smart_device_rev_a/obj/apps/obds/src/tests/touch_button_test.o
g_uart_test_name                                  /home/leon/git/swp-report/iMX6_Platform_SDK/output/mx6sdl/obds/smart_device_rev_a/obj/sdk/drivers/uart/test/uart_test.o
                                                  /home/leon/git/swp-report/iMX6_Platform_SDK/output/mx6sdl/obds/smart_device_rev_a/obj/apps/obds/src/obds.o
g_usb_host1_dev_enum_test_name                    /home/leon/git/swp-report/iMX6_Platform_SDK/output/mx6sdl/obds/smart_device_rev_a/obj/apps/obds/src/tests/usb_tests_obds.o
g_usb_otg_dev_enum_test_name                      /home/leon/git/swp-report/iMX6_Platform_SDK/output/mx6sdl/obds/smart_device_rev_a/obj/apps/obds/src/tests/usb_tests_obds.o
                                                  /home/leon/git/swp-report/iMX6_Platform_SDK/output/mx6sdl/obds/smart_device_rev_a/obj/apps/obds/src/obds.o
g_vectNum                                         /home/leon/git/swp-report/iMX6_Platform_SDK/output/mx6sdl/lib/libsdk.a(interrupt.o)
g_video_dec_test_name                             /home/leon/git/swp-report/iMX6_Platform_SDK/output/mx6sdl/obds/smart_device_rev_a/obj/apps/obds/src/tests/video_dec_adv7180.o
g_wm8958_i2c_device                               /home/leon/git/swp-report/iMX6_Platform_SDK/output/mx6sdl/lib/libboard_smart_device_rev_a.a(board_i2c.o)
                                                  /home/leon/git/swp-report/iMX6_Platform_SDK/output/mx6sdl/lib/libsdk.a(wm8958_dac.o)
g_wm8962_i2c_device                               /home/leon/git/swp-report/iMX6_Platform_SDK/output/mx6sdl/lib/libboard_smart_device_rev_a.a(board_i2c.o)
                                                  /home/leon/git/swp-report/iMX6_Platform_SDK/output/mx6sdl/lib/libsdk.a(wm8962.o)
get_arm_private_peripheral_base                   /home/leon/git/swp-report/iMX6_Platform_SDK/output/mx6sdl/lib/libsdk.a(cortexA9.o)
                                                  /home/leon/git/swp-report/iMX6_Platform_SDK/output/mx6sdl/lib/libsdk.a(gic.o)
get_board_id                                      /home/leon/git/swp-report/iMX6_Platform_SDK/output/mx6sdl/lib/libsdk.a(board_id.o)
                                                  /home/leon/git/swp-report/iMX6_Platform_SDK/output/mx6sdl/obds/smart_device_rev_a/obj/apps/obds/src/tests/program_board_id.o
                                                  /home/leon/git/swp-report/iMX6_Platform_SDK/output/mx6sdl/obds/smart_device_rev_a/obj/apps/obds/src/obds.o
                                                  /home/leon/git/swp-report/iMX6_Platform_SDK/output/mx6sdl/obds/smart_device_rev_a/obj/apps/common/print_version.o
get_color_supported                               /home/leon/git/swp-report/iMX6_Platform_SDK/output/mx6sdl/lib/libsdk.a(text_color.o)
get_ddr_density                                   /home/leon/git/swp-report/iMX6_Platform_SDK/output/mx6sdl/obds/smart_device_rev_a/obj/apps/obds/src/tests/ddr_test.o
get_input_hex                                     /home/leon/git/swp-report/iMX6_Platform_SDK/output/mx6sdl/lib/libsdk.a(system_util.o)
get_main_clock                                    /home/leon/git/swp-report/iMX6_Platform_SDK/output/mx6sdl/lib/libsdk.a(ccm_pll.o)
                                                  /home/leon/git/swp-report/iMX6_Platform_SDK/output/mx6sdl/lib/libsdk.a(timer.o)
                                                  /home/leon/git/swp-report/iMX6_Platform_SDK/output/mx6sdl/lib/libsdk.a(imx_i2c.o)
                                                  /home/leon/git/swp-report/iMX6_Platform_SDK/output/mx6sdl/lib/libsdk.a(enet_drv.o)
                                                  /home/leon/git/swp-report/iMX6_Platform_SDK/output/mx6sdl/obds/smart_device_rev_a/obj/apps/common/print_clock_info.o
get_menu_item                                     /home/leon/git/swp-report/iMX6_Platform_SDK/output/mx6sdl/lib/libsdk.a(usb_common.o)
                                                  /home/leon/git/swp-report/iMX6_Platform_SDK/output/mx6sdl/obds/smart_device_rev_a/obj/sdk/drivers/usb/test/usb0_host_testmodes_test.o
get_panel_by_id                                   /home/leon/git/swp-report/iMX6_Platform_SDK/output/mx6sdl/lib/libsdk.a(ips_disp_panel.o)
                                                  /home/leon/git/swp-report/iMX6_Platform_SDK/output/mx6sdl/obds/smart_device_rev_a/obj/apps/obds/src/tests/display_test.o
get_peri_clock                                    /home/leon/git/swp-report/iMX6_Platform_SDK/output/mx6sdl/lib/libsdk.a(ccm_pll.o)
                                                  /home/leon/git/swp-report/iMX6_Platform_SDK/output/mx6sdl/lib/libsdk.a(imx_uart.o)
                                                  /home/leon/git/swp-report/iMX6_Platform_SDK/output/mx6sdl/obds/smart_device_rev_a/obj/apps/common/print_clock_info.o
gic_cpu_enable                                    /home/leon/git/swp-report/iMX6_Platform_SDK/output/mx6sdl/lib/libsdk.a(gic.o)
gic_enable                                        /home/leon/git/swp-report/iMX6_Platform_SDK/output/mx6sdl/lib/libsdk.a(gic.o)
gic_enable_irq                                    /home/leon/git/swp-report/iMX6_Platform_SDK/output/mx6sdl/lib/libsdk.a(gic.o)
                                                  /home/leon/git/swp-report/iMX6_Platform_SDK/output/mx6sdl/lib/libsdk.a(interrupt.o)
gic_init                                          /home/leon/git/swp-report/iMX6_Platform_SDK/output/mx6sdl/lib/libsdk.a(gic.o)
                                                  /home/leon/git/swp-report/iMX6_Platform_SDK/output/mx6sdl/obds/smart_device_rev_a/obj/apps/common/platform_init.o
gic_init_cpu                                      /home/leon/git/swp-report/iMX6_Platform_SDK/output/mx6sdl/lib/libsdk.a(gic.o)
gic_read_irq_ack                                  /home/leon/git/swp-report/iMX6_Platform_SDK/output/mx6sdl/lib/libsdk.a(gic.o)
                                                  /home/leon/git/swp-report/iMX6_Platform_SDK/output/mx6sdl/lib/libsdk.a(interrupt.o)
gic_send_sgi                                      /home/leon/git/swp-report/iMX6_Platform_SDK/output/mx6sdl/lib/libsdk.a(gic.o)
gic_set_cpu_priority_mask                         /home/leon/git/swp-report/iMX6_Platform_SDK/output/mx6sdl/lib/libsdk.a(gic.o)
gic_set_cpu_target                                /home/leon/git/swp-report/iMX6_Platform_SDK/output/mx6sdl/lib/libsdk.a(gic.o)
                                                  /home/leon/git/swp-report/iMX6_Platform_SDK/output/mx6sdl/lib/libsdk.a(interrupt.o)
gic_set_irq_priority                              /home/leon/git/swp-report/iMX6_Platform_SDK/output/mx6sdl/lib/libsdk.a(gic.o)
                                                  /home/leon/git/swp-report/iMX6_Platform_SDK/output/mx6sdl/lib/libsdk.a(interrupt.o)
gic_set_irq_security                              /home/leon/git/swp-report/iMX6_Platform_SDK/output/mx6sdl/lib/libsdk.a(gic.o)
                                                  /home/leon/git/swp-report/iMX6_Platform_SDK/output/mx6sdl/lib/libsdk.a(interrupt.o)
gic_write_end_of_irq                              /home/leon/git/swp-report/iMX6_Platform_SDK/output/mx6sdl/lib/libsdk.a(gic.o)
                                                  /home/leon/git/swp-report/iMX6_Platform_SDK/output/mx6sdl/lib/libsdk.a(interrupt.o)
gpio1_iomux_config                                /home/leon/git/swp-report/iMX6_Platform_SDK/output/mx6sdl/lib/libboard_smart_device_rev_a.a(gpio1_iomux_config.o)
                                                  /home/leon/git/swp-report/iMX6_Platform_SDK/output/mx6sdl/lib/libboard_smart_device_rev_a.a(iomux_config.o)
gpio2_iomux_config                                /home/leon/git/swp-report/iMX6_Platform_SDK/output/mx6sdl/lib/libboard_smart_device_rev_a.a(gpio2_iomux_config.o)
                                                  /home/leon/git/swp-report/iMX6_Platform_SDK/output/mx6sdl/lib/libboard_smart_device_rev_a.a(iomux_config.o)
gpio3_iomux_config                                /home/leon/git/swp-report/iMX6_Platform_SDK/output/mx6sdl/lib/libboard_smart_device_rev_a.a(gpio3_iomux_config.o)
                                                  /home/leon/git/swp-report/iMX6_Platform_SDK/output/mx6sdl/lib/libboard_smart_device_rev_a.a(iomux_config.o)
gpio4_iomux_config                                /home/leon/git/swp-report/iMX6_Platform_SDK/output/mx6sdl/lib/libboard_smart_device_rev_a.a(gpio4_iomux_config.o)
                                                  /home/leon/git/swp-report/iMX6_Platform_SDK/output/mx6sdl/lib/libboard_smart_device_rev_a.a(iomux_config.o)
gpio5_iomux_config                                /home/leon/git/swp-report/iMX6_Platform_SDK/output/mx6sdl/lib/libboard_smart_device_rev_a.a(gpio5_iomux_config.o)
                                                  /home/leon/git/swp-report/iMX6_Platform_SDK/output/mx6sdl/lib/libboard_smart_device_rev_a.a(iomux_config.o)
gpio6_iomux_config                                /home/leon/git/swp-report/iMX6_Platform_SDK/output/mx6sdl/lib/libboard_smart_device_rev_a.a(gpio6_iomux_config.o)
                                                  /home/leon/git/swp-report/iMX6_Platform_SDK/output/mx6sdl/lib/libboard_smart_device_rev_a.a(iomux_config.o)
gpio7_iomux_config                                /home/leon/git/swp-report/iMX6_Platform_SDK/output/mx6sdl/lib/libboard_smart_device_rev_a.a(gpio7_iomux_config.o)
                                                  /home/leon/git/swp-report/iMX6_Platform_SDK/output/mx6sdl/lib/libboard_smart_device_rev_a.a(iomux_config.o)
gpio_clear_interrupt                              /home/leon/git/swp-report/iMX6_Platform_SDK/output/mx6sdl/lib/libsdk.a(gpio.o)
                                                  /home/leon/git/swp-report/iMX6_Platform_SDK/output/mx6sdl/obds/smart_device_rev_a/obj/apps/obds/src/tests/android_buttons_test.o
gpio_get_direction                                /home/leon/git/swp-report/iMX6_Platform_SDK/output/mx6sdl/lib/libsdk.a(gpio.o)
gpio_get_interrupt_status                         /home/leon/git/swp-report/iMX6_Platform_SDK/output/mx6sdl/lib/libsdk.a(gpio.o)
                                                  /home/leon/git/swp-report/iMX6_Platform_SDK/output/mx6sdl/obds/smart_device_rev_a/obj/apps/obds/src/tests/android_buttons_test.o
gpio_get_level                                    /home/leon/git/swp-report/iMX6_Platform_SDK/output/mx6sdl/lib/libsdk.a(gpio.o)
                                                  /home/leon/git/swp-report/iMX6_Platform_SDK/output/mx6sdl/lib/libboard_smart_device_rev_a.a(board_usdhc.o)
                                                  /home/leon/git/swp-report/iMX6_Platform_SDK/output/mx6sdl/obds/smart_device_rev_a/obj/apps/obds/src/tests/touch_screen_max11801.o
                                                  /home/leon/git/swp-report/iMX6_Platform_SDK/output/mx6sdl/obds/smart_device_rev_a/obj/apps/obds/src/tests/deserializer_ds90ur124.o
gpio_get_port_count                               /home/leon/git/swp-report/iMX6_Platform_SDK/output/mx6sdl/lib/libsdk.a(gpio.o)
gpio_led_test                                     /home/leon/git/swp-report/iMX6_Platform_SDK/output/mx6sdl/obds/smart_device_rev_a/obj/apps/obds/src/tests/gpio_led.o
                                                  /home/leon/git/swp-report/iMX6_Platform_SDK/output/mx6sdl/obds/smart_device_rev_a/obj/apps/obds/src/obds.o
gpio_set_direction                                /home/leon/git/swp-report/iMX6_Platform_SDK/output/mx6sdl/lib/libsdk.a(gpio.o)
                                                  /home/leon/git/swp-report/iMX6_Platform_SDK/output/mx6sdl/lib/libboard_smart_device_rev_a.a(board_usb.o)
                                                  /home/leon/git/swp-report/iMX6_Platform_SDK/output/mx6sdl/lib/libboard_smart_device_rev_a.a(board_network.o)
                                                  /home/leon/git/swp-report/iMX6_Platform_SDK/output/mx6sdl/lib/libboard_smart_device_rev_a.a(board_mipi.o)
                                                  /home/leon/git/swp-report/iMX6_Platform_SDK/output/mx6sdl/lib/libboard_smart_device_rev_a.a(board_display.o)
                                                  /home/leon/git/swp-report/iMX6_Platform_SDK/output/mx6sdl/lib/libboard_smart_device_rev_a.a(board_camera.o)
                                                  /home/leon/git/swp-report/iMX6_Platform_SDK/output/mx6sdl/lib/libboard_smart_device_rev_a.a(board_audio.o)
                                                  /home/leon/git/swp-report/iMX6_Platform_SDK/output/mx6sdl/obds/smart_device_rev_a/obj/apps/obds/src/tests/i2c_device_temp_sensor_emc1046.o
                                                  /home/leon/git/swp-report/iMX6_Platform_SDK/output/mx6sdl/obds/smart_device_rev_a/obj/apps/obds/src/tests/i2c_device_id_check_mma8451.o
                                                  /home/leon/git/swp-report/iMX6_Platform_SDK/output/mx6sdl/obds/smart_device_rev_a/obj/apps/obds/src/tests/i2c_device_id_check_mma8450.o
                                                  /home/leon/git/swp-report/iMX6_Platform_SDK/output/mx6sdl/obds/smart_device_rev_a/obj/apps/obds/src/tests/i2c_device_digital_compass_mag3112.o
                                                  /home/leon/git/swp-report/iMX6_Platform_SDK/output/mx6sdl/obds/smart_device_rev_a/obj/apps/obds/src/tests/i2c_device_digital_compass_mag3110.o
                                                  /home/leon/git/swp-report/iMX6_Platform_SDK/output/mx6sdl/obds/smart_device_rev_a/obj/apps/obds/src/tests/i2c_device_barometer_ppl3115.o
                                                  /home/leon/git/swp-report/iMX6_Platform_SDK/output/mx6sdl/obds/smart_device_rev_a/obj/apps/obds/src/tests/i2c_check_light_sensor_isl29023.o
                                                  /home/leon/git/swp-report/iMX6_Platform_SDK/output/mx6sdl/obds/smart_device_rev_a/obj/apps/obds/src/tests/gpio_led.o
                                                  /home/leon/git/swp-report/iMX6_Platform_SDK/output/mx6sdl/obds/smart_device_rev_a/obj/apps/obds/src/tests/deserializer_ds90ur124.o
                                                  /home/leon/git/swp-report/iMX6_Platform_SDK/output/mx6sdl/obds/smart_device_rev_a/obj/apps/obds/src/tests/android_buttons_test.o
gpio_set_gpio                                     /home/leon/git/swp-report/iMX6_Platform_SDK/output/mx6sdl/lib/libsdk.a(gpio.o)
                                                  /home/leon/git/swp-report/iMX6_Platform_SDK/output/mx6sdl/lib/libboard_smart_device_rev_a.a(board_usb.o)
                                                  /home/leon/git/swp-report/iMX6_Platform_SDK/output/mx6sdl/lib/libboard_smart_device_rev_a.a(board_mipi.o)
                                                  /home/leon/git/swp-report/iMX6_Platform_SDK/output/mx6sdl/lib/libboard_smart_device_rev_a.a(board_display.o)
                                                  /home/leon/git/swp-report/iMX6_Platform_SDK/output/mx6sdl/lib/libboard_smart_device_rev_a.a(board_buttons.o)
                                                  /home/leon/git/swp-report/iMX6_Platform_SDK/output/mx6sdl/lib/libboard_smart_device_rev_a.a(board_audio.o)
                                                  /home/leon/git/swp-report/iMX6_Platform_SDK/output/mx6sdl/obds/smart_device_rev_a/obj/apps/obds/src/tests/i2c_device_id_check_mma8451.o
gpio_set_interrupt_config                         /home/leon/git/swp-report/iMX6_Platform_SDK/output/mx6sdl/lib/libsdk.a(gpio.o)
                                                  /home/leon/git/swp-report/iMX6_Platform_SDK/output/mx6sdl/obds/smart_device_rev_a/obj/apps/obds/src/tests/android_buttons_test.o
gpio_set_interrupt_mask                           /home/leon/git/swp-report/iMX6_Platform_SDK/output/mx6sdl/lib/libsdk.a(gpio.o)
                                                  /home/leon/git/swp-report/iMX6_Platform_SDK/output/mx6sdl/obds/smart_device_rev_a/obj/apps/obds/src/tests/android_buttons_test.o
gpio_set_level                                    /home/leon/git/swp-report/iMX6_Platform_SDK/output/mx6sdl/lib/libsdk.a(gpio.o)
                                                  /home/leon/git/swp-report/iMX6_Platform_SDK/output/mx6sdl/lib/libboard_smart_device_rev_a.a(board_usb.o)
                                                  /home/leon/git/swp-report/iMX6_Platform_SDK/output/mx6sdl/lib/libboard_smart_device_rev_a.a(board_network.o)
                                                  /home/leon/git/swp-report/iMX6_Platform_SDK/output/mx6sdl/lib/libboard_smart_device_rev_a.a(board_mipi.o)
                                                  /home/leon/git/swp-report/iMX6_Platform_SDK/output/mx6sdl/lib/libboard_smart_device_rev_a.a(board_display.o)
                                                  /home/leon/git/swp-report/iMX6_Platform_SDK/output/mx6sdl/lib/libboard_smart_device_rev_a.a(board_camera.o)
                                                  /home/leon/git/swp-report/iMX6_Platform_SDK/output/mx6sdl/lib/libboard_smart_device_rev_a.a(board_audio.o)
                                                  /home/leon/git/swp-report/iMX6_Platform_SDK/output/mx6sdl/obds/smart_device_rev_a/obj/apps/obds/src/tests/i2c_device_temp_sensor_emc1046.o
                                                  /home/leon/git/swp-report/iMX6_Platform_SDK/output/mx6sdl/obds/smart_device_rev_a/obj/apps/obds/src/tests/i2c_device_id_check_mma8451.o
                                                  /home/leon/git/swp-report/iMX6_Platform_SDK/output/mx6sdl/obds/smart_device_rev_a/obj/apps/obds/src/tests/i2c_device_id_check_mma8450.o
                                                  /home/leon/git/swp-report/iMX6_Platform_SDK/output/mx6sdl/obds/smart_device_rev_a/obj/apps/obds/src/tests/i2c_device_digital_compass_mag3112.o
                                                  /home/leon/git/swp-report/iMX6_Platform_SDK/output/mx6sdl/obds/smart_device_rev_a/obj/apps/obds/src/tests/i2c_device_digital_compass_mag3110.o
                                                  /home/leon/git/swp-report/iMX6_Platform_SDK/output/mx6sdl/obds/smart_device_rev_a/obj/apps/obds/src/tests/i2c_device_barometer_ppl3115.o
                                                  /home/leon/git/swp-report/iMX6_Platform_SDK/output/mx6sdl/obds/smart_device_rev_a/obj/apps/obds/src/tests/i2c_check_light_sensor_isl29023.o
                                                  /home/leon/git/swp-report/iMX6_Platform_SDK/output/mx6sdl/obds/smart_device_rev_a/obj/apps/obds/src/tests/gpio_led.o
gpmi_iomux_config                                 /home/leon/git/swp-report/iMX6_Platform_SDK/output/mx6sdl/lib/libboard_smart_device_rev_a.a(iomux_config.o)
gps_iomux_config                                  /home/leon/git/swp-report/iMX6_Platform_SDK/output/mx6sdl/lib/libboard_smart_device_rev_a.a(gps_iomux_config.o)
                                                  /home/leon/git/swp-report/iMX6_Platform_SDK/output/mx6sdl/lib/libboard_smart_device_rev_a.a(iomux_config.o)
gps_test                                          /home/leon/git/swp-report/iMX6_Platform_SDK/output/mx6sdl/obds/smart_device_rev_a/obj/apps/obds/src/tests/gps_test.o
gps_test_enable                                   /home/leon/git/swp-report/iMX6_Platform_SDK/output/mx6sdl/obds/smart_device_rev_a/obj/apps/obds/src/tests/gps_test.o
gpt_iomux_config                                  /home/leon/git/swp-report/iMX6_Platform_SDK/output/mx6sdl/lib/libboard_smart_device_rev_a.a(iomux_config.o)
gpu_clock_config                                  /home/leon/git/swp-report/iMX6_Platform_SDK/output/mx6sdl/lib/libsdk.a(ccm_pll.o)
hal_delay_us                                      /home/leon/git/swp-report/iMX6_Platform_SDK/output/mx6sdl/lib/libsdk.a(timer.o)
                                                  /home/leon/git/swp-report/iMX6_Platform_SDK/output/mx6sdl/lib/libboard_smart_device_rev_a.a(board_network.o)
                                                  /home/leon/git/swp-report/iMX6_Platform_SDK/output/mx6sdl/lib/libboard_smart_device_rev_a.a(board_mipi.o)
                                                  /home/leon/git/swp-report/iMX6_Platform_SDK/output/mx6sdl/lib/libboard_smart_device_rev_a.a(board_display.o)
                                                  /home/leon/git/swp-report/iMX6_Platform_SDK/output/mx6sdl/lib/libboard_smart_device_rev_a.a(board_camera.o)
                                                  /home/leon/git/swp-report/iMX6_Platform_SDK/output/mx6sdl/lib/libsdk.a(usdhc_sd.o)
                                                  /home/leon/git/swp-report/iMX6_Platform_SDK/output/mx6sdl/lib/libsdk.a(usdhc_mmc.o)
                                                  /home/leon/git/swp-report/iMX6_Platform_SDK/output/mx6sdl/lib/libsdk.a(usdhc_host.o)
                                                  /home/leon/git/swp-report/iMX6_Platform_SDK/output/mx6sdl/lib/libsdk.a(ecspi.o)
                                                  /home/leon/git/swp-report/iMX6_Platform_SDK/output/mx6sdl/lib/libsdk.a(ipu_common.o)
                                                  /home/leon/git/swp-report/iMX6_Platform_SDK/output/mx6sdl/lib/libsdk.a(hdmi_tx_phy.o)
                                                  /home/leon/git/swp-report/iMX6_Platform_SDK/output/mx6sdl/lib/libsdk.a(enet_drv.o)
                                                  /home/leon/git/swp-report/iMX6_Platform_SDK/output/mx6sdl/lib/libsdk.a(smd_sensor.o)
                                                  /home/leon/git/swp-report/iMX6_Platform_SDK/output/mx6sdl/lib/libsdk.a(wm8962.o)
                                                  /home/leon/git/swp-report/iMX6_Platform_SDK/output/mx6sdl/lib/libsdk.a(wm8958_dac.o)
                                                  /home/leon/git/swp-report/iMX6_Platform_SDK/output/mx6sdl/lib/libsdk.a(sgtl5000.o)
                                                  /home/leon/git/swp-report/iMX6_Platform_SDK/output/mx6sdl/lib/libsdk.a(cs42888.o)
                                                  /home/leon/git/swp-report/iMX6_Platform_SDK/output/mx6sdl/obds/smart_device_rev_a/obj/sdk/drivers/spi/test/spi_nor_numonyx.o
                                                  /home/leon/git/swp-report/iMX6_Platform_SDK/output/mx6sdl/obds/smart_device_rev_a/obj/sdk/drivers/hdmi/test/hdmi_test.o
                                                  /home/leon/git/swp-report/iMX6_Platform_SDK/output/mx6sdl/obds/smart_device_rev_a/obj/sdk/drivers/camera/test/csi_test_mode.o
                                                  /home/leon/git/swp-report/iMX6_Platform_SDK/output/mx6sdl/obds/smart_device_rev_a/obj/apps/obds/src/tests/video_dec_adv7180.o
                                                  /home/leon/git/swp-report/iMX6_Platform_SDK/output/mx6sdl/obds/smart_device_rev_a/obj/apps/obds/src/tests/video_dec_ARD_MBrst_from_cpu_expander.o
                                                  /home/leon/git/swp-report/iMX6_Platform_SDK/output/mx6sdl/obds/smart_device_rev_a/obj/apps/obds/src/tests/video_dec_ARD_MB_reset_button.o
                                                  /home/leon/git/swp-report/iMX6_Platform_SDK/output/mx6sdl/obds/smart_device_rev_a/obj/apps/obds/src/tests/touch_screen_max11801.o
                                                  /home/leon/git/swp-report/iMX6_Platform_SDK/output/mx6sdl/obds/smart_device_rev_a/obj/apps/obds/src/tests/touch_screen.o
                                                  /home/leon/git/swp-report/iMX6_Platform_SDK/output/mx6sdl/obds/smart_device_rev_a/obj/apps/obds/src/tests/snvs_srtc_test.o
                                                  /home/leon/git/swp-report/iMX6_Platform_SDK/output/mx6sdl/obds/smart_device_rev_a/obj/apps/obds/src/tests/mlb_os81050.o
                                                  /home/leon/git/swp-report/iMX6_Platform_SDK/output/mx6sdl/obds/smart_device_rev_a/obj/apps/obds/src/tests/i2c_device_temp_sensor_emc1046.o
                                                  /home/leon/git/swp-report/iMX6_Platform_SDK/output/mx6sdl/obds/smart_device_rev_a/obj/apps/obds/src/tests/i2c_device_id_check_p1003_tsc.o
                                                  /home/leon/git/swp-report/iMX6_Platform_SDK/output/mx6sdl/obds/smart_device_rev_a/obj/apps/obds/src/tests/i2c_device_id_check_mma8451.o
                                                  /home/leon/git/swp-report/iMX6_Platform_SDK/output/mx6sdl/obds/smart_device_rev_a/obj/apps/obds/src/tests/i2c_device_id_check_mma8450.o
                                                  /home/leon/git/swp-report/iMX6_Platform_SDK/output/mx6sdl/obds/smart_device_rev_a/obj/apps/obds/src/tests/i2c_device_digital_compass_mag3112.o
                                                  /home/leon/git/swp-report/iMX6_Platform_SDK/output/mx6sdl/obds/smart_device_rev_a/obj/apps/obds/src/tests/i2c_device_digital_compass_mag3110.o
                                                  /home/leon/git/swp-report/iMX6_Platform_SDK/output/mx6sdl/obds/smart_device_rev_a/obj/apps/obds/src/tests/i2c_device_barometer_ppl3115.o
                                                  /home/leon/git/swp-report/iMX6_Platform_SDK/output/mx6sdl/obds/smart_device_rev_a/obj/apps/obds/src/tests/i2c_check_light_sensor_isl29023.o
                                                  /home/leon/git/swp-report/iMX6_Platform_SDK/output/mx6sdl/obds/smart_device_rev_a/obj/apps/obds/src/tests/gpio_led.o
                                                  /home/leon/git/swp-report/iMX6_Platform_SDK/output/mx6sdl/obds/smart_device_rev_a/obj/apps/obds/src/tests/fm_tuner_si476x_test.o
                                                  /home/leon/git/swp-report/iMX6_Platform_SDK/output/mx6sdl/obds/smart_device_rev_a/obj/apps/obds/src/tests/enet_mx6dldq_test.o
hdmi_1080P60_video_output                         /home/leon/git/swp-report/iMX6_Platform_SDK/output/mx6sdl/obds/smart_device_rev_a/obj/sdk/drivers/hdmi/test/hdmi_test.o
hdmi_720P60_video_output                          /home/leon/git/swp-report/iMX6_Platform_SDK/output/mx6sdl/obds/smart_device_rev_a/obj/sdk/drivers/hdmi/test/hdmi_test.o
hdmi_720p_init                                    /home/leon/git/swp-report/iMX6_Platform_SDK/output/mx6sdl/obds/smart_device_rev_a/obj/apps/obds/src/tests/display_test.o
hdmi_audio_mute                                   /home/leon/git/swp-report/iMX6_Platform_SDK/output/mx6sdl/lib/libsdk.a(hdmi_tx_audio.o)
                                                  /home/leon/git/swp-report/iMX6_Platform_SDK/output/mx6sdl/obds/smart_device_rev_a/obj/sdk/drivers/hdmi/test/hdmi_test.o
                                                  /home/leon/git/swp-report/iMX6_Platform_SDK/output/mx6sdl/obds/smart_device_rev_a/obj/apps/obds/src/tests/display_test.o
hdmi_av_frame_composer                            /home/leon/git/swp-report/iMX6_Platform_SDK/output/mx6sdl/lib/libsdk.a(hdmi_tx.o)
                                                  /home/leon/git/swp-report/iMX6_Platform_SDK/output/mx6sdl/obds/smart_device_rev_a/obj/sdk/drivers/hdmi/test/hdmi_test.o
                                                  /home/leon/git/swp-report/iMX6_Platform_SDK/output/mx6sdl/obds/smart_device_rev_a/obj/apps/obds/src/tests/display_test.o
hdmi_clock_set                                    /home/leon/git/swp-report/iMX6_Platform_SDK/output/mx6sdl/lib/libboard_smart_device_rev_a.a(board_hdmi.o)
                                                  /home/leon/git/swp-report/iMX6_Platform_SDK/output/mx6sdl/lib/libsdk.a(ips_disp_panel.o)
hdmi_config_force_video                           /home/leon/git/swp-report/iMX6_Platform_SDK/output/mx6sdl/lib/libsdk.a(hdmi_tx.o)
hdmi_config_forced_pixels                         /home/leon/git/swp-report/iMX6_Platform_SDK/output/mx6sdl/lib/libsdk.a(hdmi_tx.o)
hdmi_config_input_source                          /home/leon/git/swp-report/iMX6_Platform_SDK/output/mx6sdl/lib/libsdk.a(hdmi_tx.o)
                                                  /home/leon/git/swp-report/iMX6_Platform_SDK/output/mx6sdl/obds/smart_device_rev_a/obj/sdk/drivers/hdmi/test/hdmi_test.o
                                                  /home/leon/git/swp-report/iMX6_Platform_SDK/output/mx6sdl/obds/smart_device_rev_a/obj/apps/obds/src/tests/display_test.o
hdmi_iomux_config                                 /home/leon/git/swp-report/iMX6_Platform_SDK/output/mx6sdl/lib/libboard_smart_device_rev_a.a(iomux_config.o)
hdmi_pgm_iomux                                    /home/leon/git/swp-report/iMX6_Platform_SDK/output/mx6sdl/lib/libboard_smart_device_rev_a.a(board_hdmi.o)
                                                  /home/leon/git/swp-report/iMX6_Platform_SDK/output/mx6sdl/lib/libsdk.a(ips_disp_panel.o)
hdmi_phy_init                                     /home/leon/git/swp-report/iMX6_Platform_SDK/output/mx6sdl/lib/libsdk.a(hdmi_tx_phy.o)
                                                  /home/leon/git/swp-report/iMX6_Platform_SDK/output/mx6sdl/obds/smart_device_rev_a/obj/sdk/drivers/hdmi/test/hdmi_test.o
                                                  /home/leon/git/swp-report/iMX6_Platform_SDK/output/mx6sdl/obds/smart_device_rev_a/obj/apps/obds/src/tests/display_test.o
hdmi_phy_int_mask                                 /home/leon/git/swp-report/iMX6_Platform_SDK/output/mx6sdl/lib/libsdk.a(hdmi_tx_phy.o)
hdmi_set_video_mode                               /home/leon/git/swp-report/iMX6_Platform_SDK/output/mx6sdl/lib/libsdk.a(hdmi_common.o)
                                                  /home/leon/git/swp-report/iMX6_Platform_SDK/output/mx6sdl/lib/libsdk.a(hdmi_tx.o)
hdmi_test                                         /home/leon/git/swp-report/iMX6_Platform_SDK/output/mx6sdl/obds/smart_device_rev_a/obj/sdk/drivers/hdmi/test/hdmi_test.o
hdmi_tx_ISR                                       /home/leon/git/swp-report/iMX6_Platform_SDK/output/mx6sdl/obds/smart_device_rev_a/obj/sdk/drivers/hdmi/test/hdmi_test.o
hdmi_tx_cec_pgm_iomux                             /home/leon/git/swp-report/iMX6_Platform_SDK/output/mx6sdl/lib/libboard_smart_device_rev_a.a(board_hdmi.o)
hdmi_tx_ddc_pgm_iomux                             /home/leon/git/swp-report/iMX6_Platform_SDK/output/mx6sdl/lib/libboard_smart_device_rev_a.a(board_hdmi.o)
hdmi_tx_hdcp_config                               /home/leon/git/swp-report/iMX6_Platform_SDK/output/mx6sdl/lib/libsdk.a(hdmi_tx.o)
                                                  /home/leon/git/swp-report/iMX6_Platform_SDK/output/mx6sdl/obds/smart_device_rev_a/obj/sdk/drivers/hdmi/test/hdmi_test.o
                                                  /home/leon/git/swp-report/iMX6_Platform_SDK/output/mx6sdl/obds/smart_device_rev_a/obj/apps/obds/src/tests/display_test.o
hdmi_tx_phydtb_pgm_iomux                          /home/leon/git/swp-report/iMX6_Platform_SDK/output/mx6sdl/lib/libboard_smart_device_rev_a.a(board_hdmi.o)
hdmi_video_csc                                    /home/leon/git/swp-report/iMX6_Platform_SDK/output/mx6sdl/lib/libsdk.a(hdmi_tx.o)
                                                  /home/leon/git/swp-report/iMX6_Platform_SDK/output/mx6sdl/obds/smart_device_rev_a/obj/sdk/drivers/hdmi/test/hdmi_test.o
                                                  /home/leon/git/swp-report/iMX6_Platform_SDK/output/mx6sdl/obds/smart_device_rev_a/obj/apps/obds/src/tests/display_test.o
hdmi_video_packetize                              /home/leon/git/swp-report/iMX6_Platform_SDK/output/mx6sdl/lib/libsdk.a(hdmi_tx.o)
                                                  /home/leon/git/swp-report/iMX6_Platform_SDK/output/mx6sdl/obds/smart_device_rev_a/obj/sdk/drivers/hdmi/test/hdmi_test.o
                                                  /home/leon/git/swp-report/iMX6_Platform_SDK/output/mx6sdl/obds/smart_device_rev_a/obj/apps/obds/src/tests/display_test.o
hdmi_video_sample                                 /home/leon/git/swp-report/iMX6_Platform_SDK/output/mx6sdl/lib/libsdk.a(hdmi_tx.o)
                                                  /home/leon/git/swp-report/iMX6_Platform_SDK/output/mx6sdl/obds/smart_device_rev_a/obj/sdk/drivers/hdmi/test/hdmi_test.o
                                                  /home/leon/git/swp-report/iMX6_Platform_SDK/output/mx6sdl/obds/smart_device_rev_a/obj/apps/obds/src/tests/display_test.o
host_cfg_block                                    /home/leon/git/swp-report/iMX6_Platform_SDK/output/mx6sdl/lib/libsdk.a(usdhc_host.o)
                                                  /home/leon/git/swp-report/iMX6_Platform_SDK/output/mx6sdl/lib/libsdk.a(usdhc_mmc.o)
                                                  /home/leon/git/swp-report/iMX6_Platform_SDK/output/mx6sdl/lib/libsdk.a(usdhc.o)
host_cfg_clock                                    /home/leon/git/swp-report/iMX6_Platform_SDK/output/mx6sdl/lib/libsdk.a(usdhc_host.o)
                                                  /home/leon/git/swp-report/iMX6_Platform_SDK/output/mx6sdl/lib/libsdk.a(usdhc_sd.o)
                                                  /home/leon/git/swp-report/iMX6_Platform_SDK/output/mx6sdl/lib/libsdk.a(usdhc_mmc.o)
                                                  /home/leon/git/swp-report/iMX6_Platform_SDK/output/mx6sdl/lib/libsdk.a(usdhc.o)
host_clear_fifo                                   /home/leon/git/swp-report/iMX6_Platform_SDK/output/mx6sdl/lib/libsdk.a(usdhc_host.o)
                                                  /home/leon/git/swp-report/iMX6_Platform_SDK/output/mx6sdl/lib/libsdk.a(usdhc.o)
host_data_read                                    /home/leon/git/swp-report/iMX6_Platform_SDK/output/mx6sdl/lib/libsdk.a(usdhc_host.o)
                                                  /home/leon/git/swp-report/iMX6_Platform_SDK/output/mx6sdl/lib/libsdk.a(usdhc_mmc.o)
                                                  /home/leon/git/swp-report/iMX6_Platform_SDK/output/mx6sdl/lib/libsdk.a(usdhc.o)
host_data_write                                   /home/leon/git/swp-report/iMX6_Platform_SDK/output/mx6sdl/lib/libsdk.a(usdhc_host.o)
                                                  /home/leon/git/swp-report/iMX6_Platform_SDK/output/mx6sdl/lib/libsdk.a(usdhc.o)
host_init                                         /home/leon/git/swp-report/iMX6_Platform_SDK/output/mx6sdl/lib/libsdk.a(usdhc_host.o)
                                                  /home/leon/git/swp-report/iMX6_Platform_SDK/output/mx6sdl/lib/libsdk.a(usdhc.o)
host_init_active                                  /home/leon/git/swp-report/iMX6_Platform_SDK/output/mx6sdl/lib/libsdk.a(usdhc_host.o)
                                                  /home/leon/git/swp-report/iMX6_Platform_SDK/output/mx6sdl/lib/libsdk.a(usdhc.o)
host_read_response                                /home/leon/git/swp-report/iMX6_Platform_SDK/output/mx6sdl/lib/libsdk.a(usdhc_host.o)
                                                  /home/leon/git/swp-report/iMX6_Platform_SDK/output/mx6sdl/lib/libsdk.a(usdhc_sd.o)
                                                  /home/leon/git/swp-report/iMX6_Platform_SDK/output/mx6sdl/lib/libsdk.a(usdhc_mmc.o)
                                                  /home/leon/git/swp-report/iMX6_Platform_SDK/output/mx6sdl/lib/libsdk.a(usdhc.o)
host_reset                                        /home/leon/git/swp-report/iMX6_Platform_SDK/output/mx6sdl/lib/libsdk.a(usdhc_host.o)
                                                  /home/leon/git/swp-report/iMX6_Platform_SDK/output/mx6sdl/lib/libsdk.a(usdhc.o)
host_send_cmd                                     /home/leon/git/swp-report/iMX6_Platform_SDK/output/mx6sdl/lib/libsdk.a(usdhc_host.o)
                                                  /home/leon/git/swp-report/iMX6_Platform_SDK/output/mx6sdl/lib/libsdk.a(usdhc_sd.o)
                                                  /home/leon/git/swp-report/iMX6_Platform_SDK/output/mx6sdl/lib/libsdk.a(usdhc_mmc.o)
                                                  /home/leon/git/swp-report/iMX6_Platform_SDK/output/mx6sdl/lib/libsdk.a(usdhc.o)
host_set_bus_width                                /home/leon/git/swp-report/iMX6_Platform_SDK/output/mx6sdl/lib/libsdk.a(usdhc_host.o)
                                                  /home/leon/git/swp-report/iMX6_Platform_SDK/output/mx6sdl/lib/libsdk.a(usdhc_sd.o)
                                                  /home/leon/git/swp-report/iMX6_Platform_SDK/output/mx6sdl/lib/libsdk.a(usdhc_mmc.o)
host_setup_adma                                   /home/leon/git/swp-report/iMX6_Platform_SDK/output/mx6sdl/lib/libsdk.a(usdhc_host.o)
                                                  /home/leon/git/swp-report/iMX6_Platform_SDK/output/mx6sdl/lib/libsdk.a(usdhc.o)
i2c1_iomux_config                                 /home/leon/git/swp-report/iMX6_Platform_SDK/output/mx6sdl/lib/libboard_smart_device_rev_a.a(i2c1_iomux_config.o)
                                                  /home/leon/git/swp-report/iMX6_Platform_SDK/output/mx6sdl/lib/libboard_smart_device_rev_a.a(iomux_config.o)
                                                  /home/leon/git/swp-report/iMX6_Platform_SDK/output/mx6sdl/lib/libboard_smart_device_rev_a.a(i2c_iomux_config.o)
i2c2_iomux_config                                 /home/leon/git/swp-report/iMX6_Platform_SDK/output/mx6sdl/lib/libboard_smart_device_rev_a.a(i2c2_iomux_config.o)
                                                  /home/leon/git/swp-report/iMX6_Platform_SDK/output/mx6sdl/lib/libboard_smart_device_rev_a.a(iomux_config.o)
                                                  /home/leon/git/swp-report/iMX6_Platform_SDK/output/mx6sdl/lib/libboard_smart_device_rev_a.a(i2c_iomux_config.o)
i2c3_iomux_config                                 /home/leon/git/swp-report/iMX6_Platform_SDK/output/mx6sdl/lib/libboard_smart_device_rev_a.a(i2c3_iomux_config.o)
                                                  /home/leon/git/swp-report/iMX6_Platform_SDK/output/mx6sdl/lib/libboard_smart_device_rev_a.a(iomux_config.o)
                                                  /home/leon/git/swp-report/iMX6_Platform_SDK/output/mx6sdl/lib/libboard_smart_device_rev_a.a(i2c_iomux_config.o)
i2c4_iomux_config                                 /home/leon/git/swp-report/iMX6_Platform_SDK/output/mx6sdl/lib/libboard_smart_device_rev_a.a(iomux_config.o)
                                                  /home/leon/git/swp-report/iMX6_Platform_SDK/output/mx6sdl/lib/libboard_smart_device_rev_a.a(i2c_iomux_config.o)
i2c_device_check_cs42888                          /home/leon/git/swp-report/iMX6_Platform_SDK/output/mx6sdl/obds/smart_device_rev_a/obj/apps/obds/src/tests/i2c_device_check_cs42888.o
i2c_device_check_max11801                         /home/leon/git/swp-report/iMX6_Platform_SDK/output/mx6sdl/obds/smart_device_rev_a/obj/apps/obds/src/tests/touch_screen_max11801.o
i2c_device_check_max11801_AUX                     /home/leon/git/swp-report/iMX6_Platform_SDK/output/mx6sdl/obds/smart_device_rev_a/obj/apps/obds/src/tests/touch_screen_max11801.o
i2c_device_emc1046_test                           /home/leon/git/swp-report/iMX6_Platform_SDK/output/mx6sdl/obds/smart_device_rev_a/obj/apps/obds/src/tests/i2c_device_temp_sensor_emc1046.o
i2c_device_id_check_DA9053                        /home/leon/git/swp-report/iMX6_Platform_SDK/output/mx6sdl/obds/smart_device_rev_a/obj/apps/obds/src/tests/pmic_da9053.o
i2c_device_id_check_MAX17135                      /home/leon/git/swp-report/iMX6_Platform_SDK/output/mx6sdl/obds/smart_device_rev_a/obj/apps/obds/src/tests/pmic_max17135.o
i2c_device_id_check_MMA8450                       /home/leon/git/swp-report/iMX6_Platform_SDK/output/mx6sdl/obds/smart_device_rev_a/obj/apps/obds/src/tests/i2c_device_id_check_mma8450.o
i2c_device_id_check_MMA8451                       /home/leon/git/swp-report/iMX6_Platform_SDK/output/mx6sdl/obds/smart_device_rev_a/obj/apps/obds/src/tests/i2c_device_id_check_mma8451.o
                                                  /home/leon/git/swp-report/iMX6_Platform_SDK/output/mx6sdl/obds/smart_device_rev_a/obj/apps/obds/src/obds.o
i2c_device_id_check_emc1046                       /home/leon/git/swp-report/iMX6_Platform_SDK/output/mx6sdl/obds/smart_device_rev_a/obj/apps/obds/src/tests/i2c_device_temp_sensor_emc1046.o
i2c_device_id_check_isl29023                      /home/leon/git/swp-report/iMX6_Platform_SDK/output/mx6sdl/obds/smart_device_rev_a/obj/apps/obds/src/tests/i2c_check_light_sensor_isl29023.o
                                                  /home/leon/git/swp-report/iMX6_Platform_SDK/output/mx6sdl/obds/smart_device_rev_a/obj/apps/obds/src/obds.o
i2c_device_id_check_mag3110                       /home/leon/git/swp-report/iMX6_Platform_SDK/output/mx6sdl/obds/smart_device_rev_a/obj/apps/obds/src/tests/i2c_device_digital_compass_mag3110.o
                                                  /home/leon/git/swp-report/iMX6_Platform_SDK/output/mx6sdl/obds/smart_device_rev_a/obj/apps/obds/src/obds.o
i2c_device_id_check_mag3112                       /home/leon/git/swp-report/iMX6_Platform_SDK/output/mx6sdl/obds/smart_device_rev_a/obj/apps/obds/src/tests/i2c_device_digital_compass_mag3112.o
i2c_device_id_check_mc1323                        /home/leon/git/swp-report/iMX6_Platform_SDK/output/mx6sdl/obds/smart_device_rev_a/obj/apps/obds/src/tests/i2c_device_zigbee_mc1323.o
i2c_device_id_check_p1003                         /home/leon/git/swp-report/iMX6_Platform_SDK/output/mx6sdl/obds/smart_device_rev_a/obj/apps/obds/src/tests/i2c_device_id_check_p1003_tsc.o
                                                  /home/leon/git/swp-report/iMX6_Platform_SDK/output/mx6sdl/obds/smart_device_rev_a/obj/apps/obds/src/obds.o
i2c_device_id_check_ppl3115                       /home/leon/git/swp-report/iMX6_Platform_SDK/output/mx6sdl/obds/smart_device_rev_a/obj/apps/obds/src/tests/i2c_device_barometer_ppl3115.o
i2c_device_id_check_touch_button                  /home/leon/git/swp-report/iMX6_Platform_SDK/output/mx6sdl/obds/smart_device_rev_a/obj/apps/obds/src/tests/touch_button_test.o
i2c_device_mc1323_test                            /home/leon/git/swp-report/iMX6_Platform_SDK/output/mx6sdl/obds/smart_device_rev_a/obj/apps/obds/src/tests/i2c_device_zigbee_mc1323.o
i2c_device_ppl3115_test                           /home/leon/git/swp-report/iMX6_Platform_SDK/output/mx6sdl/obds/smart_device_rev_a/obj/apps/obds/src/tests/i2c_device_barometer_ppl3115.o
i2c_get_request_instance                          /home/leon/git/swp-report/iMX6_Platform_SDK/output/mx6sdl/lib/libsdk.a(imx_i2c.o)
i2c_init                                          /home/leon/git/swp-report/iMX6_Platform_SDK/output/mx6sdl/lib/libsdk.a(imx_i2c.o)
                                                  /home/leon/git/swp-report/iMX6_Platform_SDK/output/mx6sdl/lib/libsdk.a(smd_sensor.o)
                                                  /home/leon/git/swp-report/iMX6_Platform_SDK/output/mx6sdl/lib/libsdk.a(wm8962.o)
                                                  /home/leon/git/swp-report/iMX6_Platform_SDK/output/mx6sdl/lib/libsdk.a(wm8958_dac.o)
                                                  /home/leon/git/swp-report/iMX6_Platform_SDK/output/mx6sdl/lib/libsdk.a(sgtl5000.o)
                                                  /home/leon/git/swp-report/iMX6_Platform_SDK/output/mx6sdl/lib/libsdk.a(cs42888.o)
                                                  /home/leon/git/swp-report/iMX6_Platform_SDK/output/mx6sdl/lib/libsdk.a(max7310.o)
                                                  /home/leon/git/swp-report/iMX6_Platform_SDK/output/mx6sdl/obds/smart_device_rev_a/obj/sdk/common/pmic/pfuse/pf0100.o
                                                  /home/leon/git/swp-report/iMX6_Platform_SDK/output/mx6sdl/obds/smart_device_rev_a/obj/apps/obds/src/tests/video_dec_adv7180.o
                                                  /home/leon/git/swp-report/iMX6_Platform_SDK/output/mx6sdl/obds/smart_device_rev_a/obj/apps/obds/src/tests/touch_screen_max11801.o
                                                  /home/leon/git/swp-report/iMX6_Platform_SDK/output/mx6sdl/obds/smart_device_rev_a/obj/apps/obds/src/tests/touch_screen.o
                                                  /home/leon/git/swp-report/iMX6_Platform_SDK/output/mx6sdl/obds/smart_device_rev_a/obj/apps/obds/src/tests/touch_button_test.o
                                                  /home/leon/git/swp-report/iMX6_Platform_SDK/output/mx6sdl/obds/smart_device_rev_a/obj/apps/obds/src/tests/pmic_max17135.o
                                                  /home/leon/git/swp-report/iMX6_Platform_SDK/output/mx6sdl/obds/smart_device_rev_a/obj/apps/obds/src/tests/pmic_lt3589.o
                                                  /home/leon/git/swp-report/iMX6_Platform_SDK/output/mx6sdl/obds/smart_device_rev_a/obj/apps/obds/src/tests/pmic_da9053.o
                                                  /home/leon/git/swp-report/iMX6_Platform_SDK/output/mx6sdl/obds/smart_device_rev_a/obj/apps/obds/src/tests/mlb_os81050.o
                                                  /home/leon/git/swp-report/iMX6_Platform_SDK/output/mx6sdl/obds/smart_device_rev_a/obj/apps/obds/src/tests/i2c_eeprom_at24cxx_test.o
                                                  /home/leon/git/swp-report/iMX6_Platform_SDK/output/mx6sdl/obds/smart_device_rev_a/obj/apps/obds/src/tests/i2c_device_zigbee_mc1323.o
                                                  /home/leon/git/swp-report/iMX6_Platform_SDK/output/mx6sdl/obds/smart_device_rev_a/obj/apps/obds/src/tests/i2c_device_temp_sensor_emc1046.o
                                                  /home/leon/git/swp-report/iMX6_Platform_SDK/output/mx6sdl/obds/smart_device_rev_a/obj/apps/obds/src/tests/i2c_device_id_check_p1003_tsc.o
                                                  /home/leon/git/swp-report/iMX6_Platform_SDK/output/mx6sdl/obds/smart_device_rev_a/obj/apps/obds/src/tests/i2c_device_id_check_mma8451.o
                                                  /home/leon/git/swp-report/iMX6_Platform_SDK/output/mx6sdl/obds/smart_device_rev_a/obj/apps/obds/src/tests/i2c_device_id_check_mma8450.o
                                                  /home/leon/git/swp-report/iMX6_Platform_SDK/output/mx6sdl/obds/smart_device_rev_a/obj/apps/obds/src/tests/i2c_device_digital_compass_mag3112.o
                                                  /home/leon/git/swp-report/iMX6_Platform_SDK/output/mx6sdl/obds/smart_device_rev_a/obj/apps/obds/src/tests/i2c_device_digital_compass_mag3110.o
                                                  /home/leon/git/swp-report/iMX6_Platform_SDK/output/mx6sdl/obds/smart_device_rev_a/obj/apps/obds/src/tests/i2c_device_barometer_ppl3115.o
                                                  /home/leon/git/swp-report/iMX6_Platform_SDK/output/mx6sdl/obds/smart_device_rev_a/obj/apps/obds/src/tests/i2c_check_light_sensor_isl29023.o
                                                  /home/leon/git/swp-report/iMX6_Platform_SDK/output/mx6sdl/obds/smart_device_rev_a/obj/apps/obds/src/tests/fm_tuner_si476x_test.o
i2c_iomux_config                                  /home/leon/git/swp-report/iMX6_Platform_SDK/output/mx6sdl/lib/libboard_smart_device_rev_a.a(i2c_iomux_config.o)
                                                  /home/leon/git/swp-report/iMX6_Platform_SDK/output/mx6sdl/lib/libsdk.a(imx_i2c.o)
i2c_read                                          /home/leon/git/swp-report/iMX6_Platform_SDK/output/mx6sdl/lib/libsdk.a(imx_i2c.o)
                                                  /home/leon/git/swp-report/iMX6_Platform_SDK/output/mx6sdl/lib/libsdk.a(sgtl5000.o)
                                                  /home/leon/git/swp-report/iMX6_Platform_SDK/output/mx6sdl/lib/libsdk.a(cs42888.o)
                                                  /home/leon/git/swp-report/iMX6_Platform_SDK/output/mx6sdl/lib/libsdk.a(max7310.o)
i2c_setup_interrupt                               /home/leon/git/swp-report/iMX6_Platform_SDK/output/mx6sdl/lib/libsdk.a(imx_i2c.o)
i2c_write                                         /home/leon/git/swp-report/iMX6_Platform_SDK/output/mx6sdl/lib/libsdk.a(imx_i2c.o)
                                                  /home/leon/git/swp-report/iMX6_Platform_SDK/output/mx6sdl/lib/libsdk.a(sgtl5000.o)
                                                  /home/leon/git/swp-report/iMX6_Platform_SDK/output/mx6sdl/lib/libsdk.a(cs42888.o)
                                                  /home/leon/git/swp-report/iMX6_Platform_SDK/output/mx6sdl/lib/libsdk.a(max7310.o)
i2c_xfer                                          /home/leon/git/swp-report/iMX6_Platform_SDK/output/mx6sdl/lib/libsdk.a(imx_i2c.o)
                                                  /home/leon/git/swp-report/iMX6_Platform_SDK/output/mx6sdl/lib/libsdk.a(smd_sensor.o)
                                                  /home/leon/git/swp-report/iMX6_Platform_SDK/output/mx6sdl/lib/libsdk.a(wm8962.o)
                                                  /home/leon/git/swp-report/iMX6_Platform_SDK/output/mx6sdl/lib/libsdk.a(wm8958_dac.o)
                                                  /home/leon/git/swp-report/iMX6_Platform_SDK/output/mx6sdl/obds/smart_device_rev_a/obj/sdk/common/pmic/pfuse/pf0100.o
                                                  /home/leon/git/swp-report/iMX6_Platform_SDK/output/mx6sdl/obds/smart_device_rev_a/obj/apps/obds/src/tests/video_dec_adv7180.o
                                                  /home/leon/git/swp-report/iMX6_Platform_SDK/output/mx6sdl/obds/smart_device_rev_a/obj/apps/obds/src/tests/touch_screen_max11801.o
                                                  /home/leon/git/swp-report/iMX6_Platform_SDK/output/mx6sdl/obds/smart_device_rev_a/obj/apps/obds/src/tests/touch_screen.o
                                                  /home/leon/git/swp-report/iMX6_Platform_SDK/output/mx6sdl/obds/smart_device_rev_a/obj/apps/obds/src/tests/touch_button_test.o
                                                  /home/leon/git/swp-report/iMX6_Platform_SDK/output/mx6sdl/obds/smart_device_rev_a/obj/apps/obds/src/tests/pmic_max17135.o
                                                  /home/leon/git/swp-report/iMX6_Platform_SDK/output/mx6sdl/obds/smart_device_rev_a/obj/apps/obds/src/tests/pmic_lt3589.o
                                                  /home/leon/git/swp-report/iMX6_Platform_SDK/output/mx6sdl/obds/smart_device_rev_a/obj/apps/obds/src/tests/pmic_da9053.o
                                                  /home/leon/git/swp-report/iMX6_Platform_SDK/output/mx6sdl/obds/smart_device_rev_a/obj/apps/obds/src/tests/mlb_os81050.o
                                                  /home/leon/git/swp-report/iMX6_Platform_SDK/output/mx6sdl/obds/smart_device_rev_a/obj/apps/obds/src/tests/i2c_eeprom_at24cxx_test.o
                                                  /home/leon/git/swp-report/iMX6_Platform_SDK/output/mx6sdl/obds/smart_device_rev_a/obj/apps/obds/src/tests/i2c_device_zigbee_mc1323.o
                                                  /home/leon/git/swp-report/iMX6_Platform_SDK/output/mx6sdl/obds/smart_device_rev_a/obj/apps/obds/src/tests/i2c_device_temp_sensor_emc1046.o
                                                  /home/leon/git/swp-report/iMX6_Platform_SDK/output/mx6sdl/obds/smart_device_rev_a/obj/apps/obds/src/tests/i2c_device_id_check_p1003_tsc.o
                                                  /home/leon/git/swp-report/iMX6_Platform_SDK/output/mx6sdl/obds/smart_device_rev_a/obj/apps/obds/src/tests/i2c_device_id_check_mma8451.o
                                                  /home/leon/git/swp-report/iMX6_Platform_SDK/output/mx6sdl/obds/smart_device_rev_a/obj/apps/obds/src/tests/i2c_device_id_check_mma8450.o
                                                  /home/leon/git/swp-report/iMX6_Platform_SDK/output/mx6sdl/obds/smart_device_rev_a/obj/apps/obds/src/tests/i2c_device_digital_compass_mag3112.o
                                                  /home/leon/git/swp-report/iMX6_Platform_SDK/output/mx6sdl/obds/smart_device_rev_a/obj/apps/obds/src/tests/i2c_device_digital_compass_mag3110.o
                                                  /home/leon/git/swp-report/iMX6_Platform_SDK/output/mx6sdl/obds/smart_device_rev_a/obj/apps/obds/src/tests/i2c_device_barometer_ppl3115.o
                                                  /home/leon/git/swp-report/iMX6_Platform_SDK/output/mx6sdl/obds/smart_device_rev_a/obj/apps/obds/src/tests/i2c_check_light_sensor_isl29023.o
                                                  /home/leon/git/swp-report/iMX6_Platform_SDK/output/mx6sdl/obds/smart_device_rev_a/obj/apps/obds/src/tests/fm_tuner_si476x_test.o
i2s_audio_test                                    /home/leon/git/swp-report/iMX6_Platform_SDK/output/mx6sdl/obds/smart_device_rev_a/obj/apps/obds/src/tests/audio_ssi_test.o
                                                  /home/leon/git/swp-report/iMX6_Platform_SDK/output/mx6sdl/obds/smart_device_rev_a/obj/apps/obds/src/obds.o
imx_KSZ9021RN_reset                               /home/leon/git/swp-report/iMX6_Platform_SDK/output/mx6sdl/lib/libboard_smart_device_rev_a.a(board_network.o)
                                                  /home/leon/git/swp-report/iMX6_Platform_SDK/output/mx6sdl/obds/smart_device_rev_a/obj/apps/obds/src/tests/enet_mx6dldq_test.o
imx_ar8031_iomux                                  /home/leon/git/swp-report/iMX6_Platform_SDK/output/mx6sdl/lib/libboard_smart_device_rev_a.a(board_network.o)
imx_ar8031_reset                                  /home/leon/git/swp-report/iMX6_Platform_SDK/output/mx6sdl/lib/libboard_smart_device_rev_a.a(board_network.o)
                                                  /home/leon/git/swp-report/iMX6_Platform_SDK/output/mx6sdl/obds/smart_device_rev_a/obj/apps/obds/src/tests/enet_mx6dldq_test.o
imx_enet_get_phy_status                           /home/leon/git/swp-report/iMX6_Platform_SDK/output/mx6sdl/lib/libsdk.a(enet_drv.o)
imx_enet_init                                     /home/leon/git/swp-report/iMX6_Platform_SDK/output/mx6sdl/lib/libsdk.a(enet_drv.o)
                                                  /home/leon/git/swp-report/iMX6_Platform_SDK/output/mx6sdl/obds/smart_device_rev_a/obj/apps/obds/src/tests/enet_mx6dldq_test.o
imx_enet_iomux                                    /home/leon/git/swp-report/iMX6_Platform_SDK/output/mx6sdl/lib/libboard_smart_device_rev_a.a(board_network.o)
                                                  /home/leon/git/swp-report/iMX6_Platform_SDK/output/mx6sdl/obds/smart_device_rev_a/obj/apps/obds/src/tests/enet_mx6dldq_test.o
imx_enet_isolate_phy                              /home/leon/git/swp-report/iMX6_Platform_SDK/output/mx6sdl/lib/libsdk.a(enet_drv.o)
imx_enet_mii_read                                 /home/leon/git/swp-report/iMX6_Platform_SDK/output/mx6sdl/lib/libsdk.a(enet_drv.o)
imx_enet_mii_type                                 /home/leon/git/swp-report/iMX6_Platform_SDK/output/mx6sdl/lib/libsdk.a(enet_drv.o)
                                                  /home/leon/git/swp-report/iMX6_Platform_SDK/output/mx6sdl/obds/smart_device_rev_a/obj/apps/obds/src/tests/enet_mx6dldq_test.o
imx_enet_mii_write                                /home/leon/git/swp-report/iMX6_Platform_SDK/output/mx6sdl/lib/libsdk.a(enet_drv.o)
imx_enet_phy_enable_external_loopback             /home/leon/git/swp-report/iMX6_Platform_SDK/output/mx6sdl/lib/libsdk.a(enet_drv.o)
imx_enet_phy_init                                 /home/leon/git/swp-report/iMX6_Platform_SDK/output/mx6sdl/lib/libsdk.a(enet_drv.o)
                                                  /home/leon/git/swp-report/iMX6_Platform_SDK/output/mx6sdl/obds/smart_device_rev_a/obj/apps/obds/src/tests/enet_mx6dldq_test.o
imx_enet_phy_reset                                /home/leon/git/swp-report/iMX6_Platform_SDK/output/mx6sdl/lib/libboard_smart_device_rev_a.a(board_network.o)
imx_enet_poll                                     /home/leon/git/swp-report/iMX6_Platform_SDK/output/mx6sdl/lib/libsdk.a(enet_drv.o)
                                                  /home/leon/git/swp-report/iMX6_Platform_SDK/output/mx6sdl/obds/smart_device_rev_a/obj/apps/obds/src/tests/enet_mx6dldq_test.o
imx_enet_recv                                     /home/leon/git/swp-report/iMX6_Platform_SDK/output/mx6sdl/lib/libsdk.a(enet_drv.o)
                                                  /home/leon/git/swp-report/iMX6_Platform_SDK/output/mx6sdl/obds/smart_device_rev_a/obj/apps/obds/src/tests/enet_mx6dldq_test.o
imx_enet_send                                     /home/leon/git/swp-report/iMX6_Platform_SDK/output/mx6sdl/lib/libsdk.a(enet_drv.o)
                                                  /home/leon/git/swp-report/iMX6_Platform_SDK/output/mx6sdl/obds/smart_device_rev_a/obj/apps/obds/src/tests/enet_mx6dldq_test.o
imx_enet_start                                    /home/leon/git/swp-report/iMX6_Platform_SDK/output/mx6sdl/lib/libsdk.a(enet_drv.o)
                                                  /home/leon/git/swp-report/iMX6_Platform_SDK/output/mx6sdl/obds/smart_device_rev_a/obj/apps/obds/src/tests/enet_mx6dldq_test.o
imx_enet_stop                                     /home/leon/git/swp-report/iMX6_Platform_SDK/output/mx6sdl/lib/libsdk.a(enet_drv.o)
                                                  /home/leon/git/swp-report/iMX6_Platform_SDK/output/mx6sdl/obds/smart_device_rev_a/obj/apps/obds/src/tests/enet_mx6dldq_test.o
imx_enet_unisolate_phy                            /home/leon/git/swp-report/iMX6_Platform_SDK/output/mx6sdl/lib/libsdk.a(enet_drv.o)
imx_esai_1                                        /home/leon/git/swp-report/iMX6_Platform_SDK/output/mx6sdl/lib/libsdk.a(imx_esai.o)
                                                  /home/leon/git/swp-report/iMX6_Platform_SDK/output/mx6sdl/obds/smart_device_rev_a/obj/sdk/drivers/audio/src/snd_card.o
imx_spdif                                         /home/leon/git/swp-report/iMX6_Platform_SDK/output/mx6sdl/lib/libsdk.a(imx_spdif.o)
                                                  /home/leon/git/swp-report/iMX6_Platform_SDK/output/mx6sdl/obds/smart_device_rev_a/obj/sdk/drivers/audio/src/snd_card.o
imx_ssi_1                                         /home/leon/git/swp-report/iMX6_Platform_SDK/output/mx6sdl/lib/libsdk.a(imx-ssi.o)
imx_ssi_2                                         /home/leon/git/swp-report/iMX6_Platform_SDK/output/mx6sdl/lib/libsdk.a(imx-ssi.o)
                                                  /home/leon/git/swp-report/iMX6_Platform_SDK/output/mx6sdl/obds/smart_device_rev_a/obj/sdk/drivers/audio/src/snd_card.o
imx_ssi_3                                         /home/leon/git/swp-report/iMX6_Platform_SDK/output/mx6sdl/lib/libsdk.a(imx-ssi.o)
init_android_buttons                              /home/leon/git/swp-report/iMX6_Platform_SDK/output/mx6sdl/obds/smart_device_rev_a/obj/apps/obds/src/tests/android_buttons_test.o
init_dma_data                                     /home/leon/git/swp-report/iMX6_Platform_SDK/output/mx6sdl/obds/smart_device_rev_a/obj/sdk/drivers/hdmi/test/init_dma_data.o
                                                  /home/leon/git/swp-report/iMX6_Platform_SDK/output/mx6sdl/obds/smart_device_rev_a/obj/sdk/drivers/hdmi/test/hdmi_test.o
init_hdmi_interrupt                               /home/leon/git/swp-report/iMX6_Platform_SDK/output/mx6sdl/obds/smart_device_rev_a/obj/sdk/drivers/hdmi/test/hdmi_test.o
input_dcd                                         /home/leon/git/swp-report/iMX6_Platform_SDK/output/mx6sdl/lib/libboard_smart_device_rev_a.a(dcd.o)
input_dcd_hdr                                     /home/leon/git/swp-report/iMX6_Platform_SDK/output/mx6sdl/lib/libboard_smart_device_rev_a.a(dcd.o)
                                                  /home/leon/git/swp-report/iMX6_Platform_SDK/output/mx6sdl/obds/smart_device_rev_a/obj/apps/common/ivt.o
input_dcd_wrt_cmd                                 /home/leon/git/swp-report/iMX6_Platform_SDK/output/mx6sdl/lib/libboard_smart_device_rev_a.a(dcd.o)
input_ivt                                         /home/leon/git/swp-report/iMX6_Platform_SDK/output/mx6sdl/obds/smart_device_rev_a/obj/apps/common/ivt.o
instance                                          /home/leon/git/swp-report/iMX6_Platform_SDK/output/mx6sdl/obds/smart_device_rev_a/obj/apps/obds/src/tests/mmcsd_test.o
iomux_config                                      /home/leon/git/swp-report/iMX6_Platform_SDK/output/mx6sdl/lib/libboard_smart_device_rev_a.a(iomux_config.o)
ips_deinterlace_proc                              /home/leon/git/swp-report/iMX6_Platform_SDK/output/mx6sdl/lib/libsdk.a(ipu_vdi.o)
                                                  /home/leon/git/swp-report/iMX6_Platform_SDK/output/mx6sdl/lib/libsdk.a(ipu_common.o)
ips_display_test                                  /home/leon/git/swp-report/iMX6_Platform_SDK/output/mx6sdl/obds/smart_device_rev_a/obj/sdk/drivers/ipu/test/ips_display.o
ips_ext_hdmi_transmitter_1080P60_stream           /home/leon/git/swp-report/iMX6_Platform_SDK/output/mx6sdl/obds/smart_device_rev_a/obj/sdk/drivers/ipu/test/ips_display.o
ips_hannstar_xga_yuv_stream                       /home/leon/git/swp-report/iMX6_Platform_SDK/output/mx6sdl/obds/smart_device_rev_a/obj/sdk/drivers/ipu/test/ips_display.o
ips_hdmi_1080P60_stream                           /home/leon/git/swp-report/iMX6_Platform_SDK/output/mx6sdl/obds/smart_device_rev_a/obj/sdk/drivers/ipu/test/ips_display.o
                                                  /home/leon/git/swp-report/iMX6_Platform_SDK/output/mx6sdl/obds/smart_device_rev_a/obj/sdk/drivers/hdmi/test/hdmi_test.o
ips_hdmi_720P60_stream                            /home/leon/git/swp-report/iMX6_Platform_SDK/output/mx6sdl/obds/smart_device_rev_a/obj/sdk/drivers/ipu/test/ips_display.o
                                                  /home/leon/git/swp-report/iMX6_Platform_SDK/output/mx6sdl/obds/smart_device_rev_a/obj/sdk/drivers/hdmi/test/hdmi_test.o
ips_hdmi_stream                                   /home/leon/git/swp-report/iMX6_Platform_SDK/output/mx6sdl/obds/smart_device_rev_a/obj/sdk/drivers/ipu/test/ips_display.o
                                                  /home/leon/git/swp-report/iMX6_Platform_SDK/output/mx6sdl/obds/smart_device_rev_a/obj/sdk/drivers/hdmi/test/hdmi_test.o
ips_mipi_wvga_rgb_stream                          /home/leon/git/swp-report/iMX6_Platform_SDK/output/mx6sdl/obds/smart_device_rev_a/obj/sdk/drivers/ipu/test/ips_display.o
ipu1_ch0_eobnd_isr                                /home/leon/git/swp-report/iMX6_Platform_SDK/output/mx6sdl/lib/libsdk.a(ipu_common.o)
ipu1_iomux_config                                 /home/leon/git/swp-report/iMX6_Platform_SDK/output/mx6sdl/lib/libboard_smart_device_rev_a.a(ipu1_iomux_config.o)
                                                  /home/leon/git/swp-report/iMX6_Platform_SDK/output/mx6sdl/lib/libboard_smart_device_rev_a.a(ipu_iomux_config.o)
                                                  /home/leon/git/swp-report/iMX6_Platform_SDK/output/mx6sdl/lib/libboard_smart_device_rev_a.a(iomux_config.o)
                                                  /home/leon/git/swp-report/iMX6_Platform_SDK/output/mx6sdl/lib/libboard_smart_device_rev_a.a(board_hdmi.o)
                                                  /home/leon/git/swp-report/iMX6_Platform_SDK/output/mx6sdl/lib/libsdk.a(ips_disp_panel.o)
                                                  /home/leon/git/swp-report/iMX6_Platform_SDK/output/mx6sdl/obds/smart_device_rev_a/obj/sdk/drivers/camera/test/sensor_capture.o
                                                  /home/leon/git/swp-report/iMX6_Platform_SDK/output/mx6sdl/obds/smart_device_rev_a/obj/sdk/drivers/camera/test/csi_test_mode.o
ipu_capture_disp_link                             /home/leon/git/swp-report/iMX6_Platform_SDK/output/mx6sdl/lib/libsdk.a(ipu_csi.o)
                                                  /home/leon/git/swp-report/iMX6_Platform_SDK/output/mx6sdl/lib/libsdk.a(ipu_common.o)
ipu_capture_setup                                 /home/leon/git/swp-report/iMX6_Platform_SDK/output/mx6sdl/lib/libsdk.a(ipu_common.o)
                                                  /home/leon/git/swp-report/iMX6_Platform_SDK/output/mx6sdl/obds/smart_device_rev_a/obj/sdk/drivers/camera/test/sensor_capture.o
                                                  /home/leon/git/swp-report/iMX6_Platform_SDK/output/mx6sdl/obds/smart_device_rev_a/obj/sdk/drivers/camera/test/csi_test_mode.o
ipu_capture_streamoff                             /home/leon/git/swp-report/iMX6_Platform_SDK/output/mx6sdl/lib/libsdk.a(ipu_common.o)
                                                  /home/leon/git/swp-report/iMX6_Platform_SDK/output/mx6sdl/obds/smart_device_rev_a/obj/sdk/drivers/camera/test/sensor_capture.o
                                                  /home/leon/git/swp-report/iMX6_Platform_SDK/output/mx6sdl/obds/smart_device_rev_a/obj/sdk/drivers/camera/test/csi_test_mode.o
ipu_ch0_eobnd_interrupt_register                  /home/leon/git/swp-report/iMX6_Platform_SDK/output/mx6sdl/lib/libsdk.a(ipu_common.o)
ipu_channel_buf_not_ready                         /home/leon/git/swp-report/iMX6_Platform_SDK/output/mx6sdl/lib/libsdk.a(ipu_idmac.o)
ipu_channel_buf_ready                             /home/leon/git/swp-report/iMX6_Platform_SDK/output/mx6sdl/lib/libsdk.a(ipu_idmac.o)
                                                  /home/leon/git/swp-report/iMX6_Platform_SDK/output/mx6sdl/lib/libsdk.a(ipu_vdi.o)
                                                  /home/leon/git/swp-report/iMX6_Platform_SDK/output/mx6sdl/lib/libsdk.a(ipu_common.o)
ipu_cpmem_mod_field                               /home/leon/git/swp-report/iMX6_Platform_SDK/output/mx6sdl/lib/libsdk.a(ipu_idmac.o)
                                                  /home/leon/git/swp-report/iMX6_Platform_SDK/output/mx6sdl/obds/smart_device_rev_a/obj/sdk/drivers/ipu/test/ips_display.o
ipu_cpmem_read_field                              /home/leon/git/swp-report/iMX6_Platform_SDK/output/mx6sdl/lib/libsdk.a(ipu_idmac.o)
ipu_cpmem_set_field                               /home/leon/git/swp-report/iMX6_Platform_SDK/output/mx6sdl/lib/libsdk.a(ipu_idmac.o)
                                                  /home/leon/git/swp-report/iMX6_Platform_SDK/output/mx6sdl/lib/libsdk.a(ipu_common.o)
ipu_csi_config                                    /home/leon/git/swp-report/iMX6_Platform_SDK/output/mx6sdl/lib/libsdk.a(ipu_csi.o)
                                                  /home/leon/git/swp-report/iMX6_Platform_SDK/output/mx6sdl/lib/libsdk.a(ipu_common.o)
ipu_csi_test_mode_color                           /home/leon/git/swp-report/iMX6_Platform_SDK/output/mx6sdl/lib/libsdk.a(ipu_csi.o)
                                                  /home/leon/git/swp-report/iMX6_Platform_SDK/output/mx6sdl/obds/smart_device_rev_a/obj/sdk/drivers/camera/test/csi_test_mode.o
ipu_dc_config                                     /home/leon/git/swp-report/iMX6_Platform_SDK/output/mx6sdl/lib/libsdk.a(ipu_dc.o)
                                                  /home/leon/git/swp-report/iMX6_Platform_SDK/output/mx6sdl/lib/libsdk.a(ipu_common.o)
ipu_dc_display_config                             /home/leon/git/swp-report/iMX6_Platform_SDK/output/mx6sdl/lib/libsdk.a(ipu_dc.o)
ipu_dc_map                                        /home/leon/git/swp-report/iMX6_Platform_SDK/output/mx6sdl/lib/libsdk.a(ipu_dc.o)
ipu_dc_microcode_config                           /home/leon/git/swp-report/iMX6_Platform_SDK/output/mx6sdl/lib/libsdk.a(ipu_dc.o)
ipu_dc_microcode_event                            /home/leon/git/swp-report/iMX6_Platform_SDK/output/mx6sdl/lib/libsdk.a(ipu_dc.o)
ipu_dc_write_channel_config                       /home/leon/git/swp-report/iMX6_Platform_SDK/output/mx6sdl/lib/libsdk.a(ipu_dc.o)
ipu_deinterlace_3_fields                          /home/leon/git/swp-report/iMX6_Platform_SDK/output/mx6sdl/lib/libsdk.a(ipu_vdi.o)
ipu_deinterlace_idmac_config                      /home/leon/git/swp-report/iMX6_Platform_SDK/output/mx6sdl/lib/libsdk.a(ipu_idmac.o)
                                                  /home/leon/git/swp-report/iMX6_Platform_SDK/output/mx6sdl/lib/libsdk.a(ipu_vdi.o)
ipu_di_bsclk_gen                                  /home/leon/git/swp-report/iMX6_Platform_SDK/output/mx6sdl/lib/libsdk.a(ipu_di.o)
ipu_di_config                                     /home/leon/git/swp-report/iMX6_Platform_SDK/output/mx6sdl/lib/libsdk.a(ipu_di.o)
                                                  /home/leon/git/swp-report/iMX6_Platform_SDK/output/mx6sdl/lib/libsdk.a(ipu_common.o)
ipu_di_interface_set                              /home/leon/git/swp-report/iMX6_Platform_SDK/output/mx6sdl/lib/libsdk.a(ipu_di.o)
ipu_di_pointer_config                             /home/leon/git/swp-report/iMX6_Platform_SDK/output/mx6sdl/lib/libsdk.a(ipu_di.o)
ipu_di_screen_set                                 /home/leon/git/swp-report/iMX6_Platform_SDK/output/mx6sdl/lib/libsdk.a(ipu_di.o)
ipu_di_sync_config                                /home/leon/git/swp-report/iMX6_Platform_SDK/output/mx6sdl/lib/libsdk.a(ipu_di.o)
ipu_di_waveform_config                            /home/leon/git/swp-report/iMX6_Platform_SDK/output/mx6sdl/lib/libsdk.a(ipu_di.o)
ipu_disable_csi                                   /home/leon/git/swp-report/iMX6_Platform_SDK/output/mx6sdl/lib/libsdk.a(ipu_csi.o)
                                                  /home/leon/git/swp-report/iMX6_Platform_SDK/output/mx6sdl/lib/libsdk.a(ipu_common.o)
ipu_disable_display                               /home/leon/git/swp-report/iMX6_Platform_SDK/output/mx6sdl/lib/libsdk.a(ipu_common.o)
ipu_disable_smfc                                  /home/leon/git/swp-report/iMX6_Platform_SDK/output/mx6sdl/lib/libsdk.a(ipu_csi.o)
                                                  /home/leon/git/swp-report/iMX6_Platform_SDK/output/mx6sdl/lib/libsdk.a(ipu_common.o)
ipu_disp_bg_idmac_config                          /home/leon/git/swp-report/iMX6_Platform_SDK/output/mx6sdl/lib/libsdk.a(ipu_idmac.o)
                                                  /home/leon/git/swp-report/iMX6_Platform_SDK/output/mx6sdl/lib/libsdk.a(ipu_common.o)
ipu_disp_fg_idmac_config                          /home/leon/git/swp-report/iMX6_Platform_SDK/output/mx6sdl/lib/libsdk.a(ipu_idmac.o)
                                                  /home/leon/git/swp-report/iMX6_Platform_SDK/output/mx6sdl/lib/libsdk.a(ipu_common.o)
ipu_display_panel                                 /home/leon/git/swp-report/iMX6_Platform_SDK/output/mx6sdl/obds/smart_device_rev_a/obj/apps/obds/src/tests/display_test.o
                                                  /home/leon/git/swp-report/iMX6_Platform_SDK/output/mx6sdl/obds/smart_device_rev_a/obj/apps/obds/src/obds.o
ipu_display_setup                                 /home/leon/git/swp-report/iMX6_Platform_SDK/output/mx6sdl/lib/libsdk.a(ipu_common.o)
                                                  /home/leon/git/swp-report/iMX6_Platform_SDK/output/mx6sdl/obds/smart_device_rev_a/obj/sdk/drivers/ipu/test/ips_display.o
                                                  /home/leon/git/swp-report/iMX6_Platform_SDK/output/mx6sdl/obds/smart_device_rev_a/obj/apps/obds/src/tests/display_test.o
ipu_display_test_main                             /home/leon/git/swp-report/iMX6_Platform_SDK/output/mx6sdl/obds/smart_device_rev_a/obj/apps/obds/src/tests/display_test.o
                                                  /home/leon/git/swp-report/iMX6_Platform_SDK/output/mx6sdl/obds/smart_device_rev_a/obj/apps/obds/src/obds.o
ipu_dma_update_buffer                             /home/leon/git/swp-report/iMX6_Platform_SDK/output/mx6sdl/lib/libsdk.a(ipu_idmac.o)
ipu_dmfc_alloc                                    /home/leon/git/swp-report/iMX6_Platform_SDK/output/mx6sdl/lib/libsdk.a(ipu_dmfc.o)
                                                  /home/leon/git/swp-report/iMX6_Platform_SDK/output/mx6sdl/obds/smart_device_rev_a/obj/sdk/drivers/ipu/test/ips_display.o
ipu_dmfc_config                                   /home/leon/git/swp-report/iMX6_Platform_SDK/output/mx6sdl/lib/libsdk.a(ipu_dmfc.o)
                                                  /home/leon/git/swp-report/iMX6_Platform_SDK/output/mx6sdl/lib/libsdk.a(ipu_common.o)
ipu_dp_config                                     /home/leon/git/swp-report/iMX6_Platform_SDK/output/mx6sdl/lib/libsdk.a(ipu_dp.o)
                                                  /home/leon/git/swp-report/iMX6_Platform_SDK/output/mx6sdl/lib/libsdk.a(ipu_common.o)
ipu_dp_csc_config                                 /home/leon/git/swp-report/iMX6_Platform_SDK/output/mx6sdl/lib/libsdk.a(ipu_dp.o)
ipu_dp_fg_config                                  /home/leon/git/swp-report/iMX6_Platform_SDK/output/mx6sdl/lib/libsdk.a(ipu_dp.o)
ipu_dual_display_setup                            /home/leon/git/swp-report/iMX6_Platform_SDK/output/mx6sdl/lib/libsdk.a(ipu_common.o)
ipu_enable_display                                /home/leon/git/swp-report/iMX6_Platform_SDK/output/mx6sdl/lib/libsdk.a(ipu_common.o)
                                                  /home/leon/git/swp-report/iMX6_Platform_SDK/output/mx6sdl/obds/smart_device_rev_a/obj/sdk/drivers/ipu/test/ips_display.o
                                                  /home/leon/git/swp-report/iMX6_Platform_SDK/output/mx6sdl/obds/smart_device_rev_a/obj/sdk/drivers/camera/test/sensor_capture.o
                                                  /home/leon/git/swp-report/iMX6_Platform_SDK/output/mx6sdl/obds/smart_device_rev_a/obj/sdk/drivers/camera/test/csi_test_mode.o
                                                  /home/leon/git/swp-report/iMX6_Platform_SDK/output/mx6sdl/obds/smart_device_rev_a/obj/apps/obds/src/tests/display_test.o
ipu_general_idmac_config                          /home/leon/git/swp-report/iMX6_Platform_SDK/output/mx6sdl/lib/libsdk.a(ipu_idmac.o)
                                                  /home/leon/git/swp-report/iMX6_Platform_SDK/output/mx6sdl/lib/libsdk.a(ipu_common.o)
ipu_hsp_clk_config                                /home/leon/git/swp-report/iMX6_Platform_SDK/output/mx6sdl/lib/libsdk.a(ccm_pll.o)
ipu_ic_calc_resize_coeffs                         /home/leon/git/swp-report/iMX6_Platform_SDK/output/mx6sdl/lib/libsdk.a(ipu_ic.o)
ipu_ic_combine_config                             /home/leon/git/swp-report/iMX6_Platform_SDK/output/mx6sdl/lib/libsdk.a(ipu_ic.o)
ipu_ic_config_resize_rate                         /home/leon/git/swp-report/iMX6_Platform_SDK/output/mx6sdl/lib/libsdk.a(ipu_ic.o)
ipu_ic_csc_config                                 /home/leon/git/swp-report/iMX6_Platform_SDK/output/mx6sdl/lib/libsdk.a(ipu_ic.o)
ipu_ic_deinterlace_config                         /home/leon/git/swp-report/iMX6_Platform_SDK/output/mx6sdl/lib/libsdk.a(ipu_ic.o)
                                                  /home/leon/git/swp-report/iMX6_Platform_SDK/output/mx6sdl/lib/libsdk.a(ipu_vdi.o)
ipu_ic_enable                                     /home/leon/git/swp-report/iMX6_Platform_SDK/output/mx6sdl/lib/libsdk.a(ipu_ic.o)
                                                  /home/leon/git/swp-report/iMX6_Platform_SDK/output/mx6sdl/lib/libsdk.a(ipu_vdi.o)
ipu_ic_resize_config                              /home/leon/git/swp-report/iMX6_Platform_SDK/output/mx6sdl/lib/libsdk.a(ipu_ic.o)
ipu_ic_rotation_config                            /home/leon/git/swp-report/iMX6_Platform_SDK/output/mx6sdl/lib/libsdk.a(ipu_ic.o)
ipu_ic_task_enable                                /home/leon/git/swp-report/iMX6_Platform_SDK/output/mx6sdl/lib/libsdk.a(ipu_ic.o)
                                                  /home/leon/git/swp-report/iMX6_Platform_SDK/output/mx6sdl/lib/libsdk.a(ipu_vdi.o)
ipu_idma_pixel_format_config                      /home/leon/git/swp-report/iMX6_Platform_SDK/output/mx6sdl/lib/libsdk.a(ipu_idmac.o)
ipu_idmac_chan_cur_buff                           /home/leon/git/swp-report/iMX6_Platform_SDK/output/mx6sdl/lib/libsdk.a(ipu_idmac.o)
ipu_idmac_channel_busy                            /home/leon/git/swp-report/iMX6_Platform_SDK/output/mx6sdl/lib/libsdk.a(ipu_idmac.o)
                                                  /home/leon/git/swp-report/iMX6_Platform_SDK/output/mx6sdl/lib/libsdk.a(ipu_vdi.o)
ipu_idmac_channel_enable                          /home/leon/git/swp-report/iMX6_Platform_SDK/output/mx6sdl/lib/libsdk.a(ipu_idmac.o)
                                                  /home/leon/git/swp-report/iMX6_Platform_SDK/output/mx6sdl/lib/libsdk.a(ipu_common.o)
ipu_idmac_channel_mode_sel                        /home/leon/git/swp-report/iMX6_Platform_SDK/output/mx6sdl/lib/libsdk.a(ipu_idmac.o)
ipu_iomux_config                                  /home/leon/git/swp-report/iMX6_Platform_SDK/output/mx6sdl/lib/libboard_smart_device_rev_a.a(ipu_iomux_config.o)
                                                  /home/leon/git/swp-report/iMX6_Platform_SDK/output/mx6sdl/obds/smart_device_rev_a/obj/apps/obds/src/tests/display_test.o
ipu_mipi_csi2_setup                               /home/leon/git/swp-report/iMX6_Platform_SDK/output/mx6sdl/lib/libsdk.a(ipu_common.o)
ipu_read                                          /home/leon/git/swp-report/iMX6_Platform_SDK/output/mx6sdl/lib/libsdk.a(ipu_common.o)
                                                  /home/leon/git/swp-report/iMX6_Platform_SDK/output/mx6sdl/lib/libsdk.a(ipu_vdi.o)
ipu_resize_idmac_config                           /home/leon/git/swp-report/iMX6_Platform_SDK/output/mx6sdl/lib/libsdk.a(ipu_idmac.o)
ipu_rotate_idmac_config                           /home/leon/git/swp-report/iMX6_Platform_SDK/output/mx6sdl/lib/libsdk.a(ipu_idmac.o)
ipu_smfc_fifo_allocate                            /home/leon/git/swp-report/iMX6_Platform_SDK/output/mx6sdl/lib/libsdk.a(ipu_csi.o)
                                                  /home/leon/git/swp-report/iMX6_Platform_SDK/output/mx6sdl/lib/libsdk.a(ipu_common.o)
ipu_sw_reset                                      /home/leon/git/swp-report/iMX6_Platform_SDK/output/mx6sdl/lib/libsdk.a(ipu_common.o)
                                                  /home/leon/git/swp-report/iMX6_Platform_SDK/output/mx6sdl/obds/smart_device_rev_a/obj/sdk/drivers/ipu/test/ips_display.o
                                                  /home/leon/git/swp-report/iMX6_Platform_SDK/output/mx6sdl/obds/smart_device_rev_a/obj/sdk/drivers/camera/test/sensor_capture.o
                                                  /home/leon/git/swp-report/iMX6_Platform_SDK/output/mx6sdl/obds/smart_device_rev_a/obj/sdk/drivers/camera/test/csi_test_mode.o
                                                  /home/leon/git/swp-report/iMX6_Platform_SDK/output/mx6sdl/obds/smart_device_rev_a/obj/apps/obds/src/tests/display_test.o
ipu_vdi_init                                      /home/leon/git/swp-report/iMX6_Platform_SDK/output/mx6sdl/lib/libsdk.a(ipu_vdi.o)
ipu_vdi_set_motion                                /home/leon/git/swp-report/iMX6_Platform_SDK/output/mx6sdl/lib/libsdk.a(ipu_vdi.o)
ipu_vdi_set_top_field_man                         /home/leon/git/swp-report/iMX6_Platform_SDK/output/mx6sdl/lib/libsdk.a(ipu_vdi.o)
ipu_vdi_uninit                                    /home/leon/git/swp-report/iMX6_Platform_SDK/output/mx6sdl/lib/libsdk.a(ipu_vdi.o)
ipu_write                                         /home/leon/git/swp-report/iMX6_Platform_SDK/output/mx6sdl/lib/libsdk.a(ipu_common.o)
                                                  /home/leon/git/swp-report/iMX6_Platform_SDK/output/mx6sdl/lib/libsdk.a(ipu_vdi.o)
ipu_write_field                                   /home/leon/git/swp-report/iMX6_Platform_SDK/output/mx6sdl/lib/libsdk.a(ipu_common.o)
                                                  /home/leon/git/swp-report/iMX6_Platform_SDK/output/mx6sdl/lib/libsdk.a(ipu_ic.o)
                                                  /home/leon/git/swp-report/iMX6_Platform_SDK/output/mx6sdl/lib/libsdk.a(ipu_vdi.o)
                                                  /home/leon/git/swp-report/iMX6_Platform_SDK/output/mx6sdl/lib/libsdk.a(ipu_idmac.o)
                                                  /home/leon/git/swp-report/iMX6_Platform_SDK/output/mx6sdl/lib/libsdk.a(ipu_dp.o)
                                                  /home/leon/git/swp-report/iMX6_Platform_SDK/output/mx6sdl/lib/libsdk.a(ipu_dmfc.o)
                                                  /home/leon/git/swp-report/iMX6_Platform_SDK/output/mx6sdl/lib/libsdk.a(ipu_di.o)
                                                  /home/leon/git/swp-report/iMX6_Platform_SDK/output/mx6sdl/lib/libsdk.a(ipu_dc.o)
                                                  /home/leon/git/swp-report/iMX6_Platform_SDK/output/mx6sdl/lib/libsdk.a(ipu_csi.o)
isColorSpaceConversion                            /home/leon/git/swp-report/iMX6_Platform_SDK/output/mx6sdl/lib/libsdk.a(hdmi_common.o)
                                                  /home/leon/git/swp-report/iMX6_Platform_SDK/output/mx6sdl/lib/libsdk.a(hdmi_tx.o)
isColorSpaceDecimation                            /home/leon/git/swp-report/iMX6_Platform_SDK/output/mx6sdl/lib/libsdk.a(hdmi_common.o)
                                                  /home/leon/git/swp-report/iMX6_Platform_SDK/output/mx6sdl/lib/libsdk.a(hdmi_tx.o)
isColorSpaceInterpolation                         /home/leon/git/swp-report/iMX6_Platform_SDK/output/mx6sdl/lib/libsdk.a(hdmi_common.o)
                                                  /home/leon/git/swp-report/iMX6_Platform_SDK/output/mx6sdl/lib/libsdk.a(hdmi_tx.o)
isPixelRepetition                                 /home/leon/git/swp-report/iMX6_Platform_SDK/output/mx6sdl/lib/libsdk.a(hdmi_common.o)
is_color_supported                                /home/leon/git/swp-report/iMX6_Platform_SDK/output/mx6sdl/lib/libsdk.a(text_color.o)
is_input_char                                     /home/leon/git/swp-report/iMX6_Platform_SDK/output/mx6sdl/lib/libsdk.a(system_util.o)
                                                  /home/leon/git/swp-report/iMX6_Platform_SDK/output/mx6sdl/obds/smart_device_rev_a/obj/sdk/drivers/camera/test/sensor_capture.o
                                                  /home/leon/git/swp-report/iMX6_Platform_SDK/output/mx6sdl/obds/smart_device_rev_a/obj/apps/obds/src/tests/program_mac_address.o
                                                  /home/leon/git/swp-report/iMX6_Platform_SDK/output/mx6sdl/obds/smart_device_rev_a/obj/apps/obds/src/tests/program_board_id.o
                                                  /home/leon/git/swp-report/iMX6_Platform_SDK/output/mx6sdl/obds/smart_device_rev_a/obj/apps/obds/src/tests/pmic_da9053.o
                                                  /home/leon/git/swp-report/iMX6_Platform_SDK/output/mx6sdl/obds/smart_device_rev_a/obj/apps/obds/src/tests/mmcsd_test.o
                                                  /home/leon/git/swp-report/iMX6_Platform_SDK/output/mx6sdl/obds/smart_device_rev_a/obj/apps/obds/src/tests/mlb_os81050.o
                                                  /home/leon/git/swp-report/iMX6_Platform_SDK/output/mx6sdl/obds/smart_device_rev_a/obj/apps/obds/src/tests/i2c_eeprom_at24cxx_test.o
                                                  /home/leon/git/swp-report/iMX6_Platform_SDK/output/mx6sdl/obds/smart_device_rev_a/obj/apps/obds/src/tests/gps_test.o
                                                  /home/leon/git/swp-report/iMX6_Platform_SDK/output/mx6sdl/obds/smart_device_rev_a/obj/apps/obds/src/tests/fm_tuner_si476x_test.o
                                                  /home/leon/git/swp-report/iMX6_Platform_SDK/output/mx6sdl/obds/smart_device_rev_a/obj/apps/obds/src/tests/enet_mx6dldq_test.o
                                                  /home/leon/git/swp-report/iMX6_Platform_SDK/output/mx6sdl/obds/smart_device_rev_a/obj/apps/obds/src/tests/display_test.o
                                                  /home/leon/git/swp-report/iMX6_Platform_SDK/output/mx6sdl/obds/smart_device_rev_a/obj/apps/obds/src/tests/deserializer_ds90ur124.o
                                                  /home/leon/git/swp-report/iMX6_Platform_SDK/output/mx6sdl/obds/smart_device_rev_a/obj/apps/obds/src/tests/audio_ssi_test.o
                                                  /home/leon/git/swp-report/iMX6_Platform_SDK/output/mx6sdl/obds/smart_device_rev_a/obj/apps/obds/src/tests/android_buttons_test.o
                                                  /home/leon/git/swp-report/iMX6_Platform_SDK/output/mx6sdl/obds/smart_device_rev_a/obj/apps/obds/src/obds.o
jump_to_sdp                                       /home/leon/git/swp-report/iMX6_Platform_SDK/output/mx6sdl/lib/libsdk.a(system_util.o)
k_gpio_mux_registers                              /home/leon/git/swp-report/iMX6_Platform_SDK/output/mx6sdl/lib/libsdk.a(imx6sdl_gpio_map.o)
                                                  /home/leon/git/swp-report/iMX6_Platform_SDK/output/mx6sdl/lib/libsdk.a(gpio.o)
k_sdk_copyright                                   /home/leon/git/swp-report/iMX6_Platform_SDK/output/mx6sdl/lib/libsdk.a(sdk_version.o)
                                                  /home/leon/git/swp-report/iMX6_Platform_SDK/output/mx6sdl/obds/smart_device_rev_a/obj/apps/common/print_version.o
k_sdk_version                                     /home/leon/git/swp-report/iMX6_Platform_SDK/output/mx6sdl/lib/libsdk.a(sdk_version.o)
                                                  /home/leon/git/swp-report/iMX6_Platform_SDK/output/mx6sdl/obds/smart_device_rev_a/obj/apps/common/print_version.o
kpp_iomux_config                                  /home/leon/git/swp-report/iMX6_Platform_SDK/output/mx6sdl/lib/libboard_smart_device_rev_a.a(kpp_iomux_config.o)
                                                  /home/leon/git/swp-report/iMX6_Platform_SDK/output/mx6sdl/lib/libboard_smart_device_rev_a.a(iomux_config.o)
lcd_iomux_config                                  /home/leon/git/swp-report/iMX6_Platform_SDK/output/mx6sdl/lib/libboard_smart_device_rev_a.a(iomux_config.o)
ldb_clock_config                                  /home/leon/git/swp-report/iMX6_Platform_SDK/output/mx6sdl/lib/libboard_smart_device_rev_a.a(board_display.o)
                                                  /home/leon/git/swp-report/iMX6_Platform_SDK/output/mx6sdl/lib/libsdk.a(ips_disp_panel.o)
ldb_config                                        /home/leon/git/swp-report/iMX6_Platform_SDK/output/mx6sdl/lib/libsdk.a(ldb.o)
                                                  /home/leon/git/swp-report/iMX6_Platform_SDK/output/mx6sdl/lib/libsdk.a(ips_disp_panel.o)
ldb_iomux_config                                  /home/leon/git/swp-report/iMX6_Platform_SDK/output/mx6sdl/lib/libboard_smart_device_rev_a.a(iomux_config.o)
                                                  /home/leon/git/swp-report/iMX6_Platform_SDK/output/mx6sdl/lib/libsdk.a(ips_disp_panel.o)
ldb_set_vs_polarity                               /home/leon/git/swp-report/iMX6_Platform_SDK/output/mx6sdl/lib/libsdk.a(ldb.o)
list_panel                                        /home/leon/git/swp-report/iMX6_Platform_SDK/output/mx6sdl/lib/libsdk.a(ips_disp_panel.o)
                                                  /home/leon/git/swp-report/iMX6_Platform_SDK/output/mx6sdl/obds/smart_device_rev_a/obj/apps/obds/src/tests/display_test.o
load_centralized_image                            /home/leon/git/swp-report/iMX6_Platform_SDK/output/mx6sdl/obds/smart_device_rev_a/obj/sdk/drivers/ipu/test/ipu_image.o
                                                  /home/leon/git/swp-report/iMX6_Platform_SDK/output/mx6sdl/obds/smart_device_rev_a/obj/sdk/drivers/ipu/test/ips_display.o
                                                  /home/leon/git/swp-report/iMX6_Platform_SDK/output/mx6sdl/obds/smart_device_rev_a/obj/apps/obds/src/tests/display_test.o
load_foreground_image                             /home/leon/git/swp-report/iMX6_Platform_SDK/output/mx6sdl/obds/smart_device_rev_a/obj/sdk/drivers/ipu/test/ipu_image.o
load_horiz_image                                  /home/leon/git/swp-report/iMX6_Platform_SDK/output/mx6sdl/obds/smart_device_rev_a/obj/sdk/drivers/ipu/test/ipu_image.o
load_vert_image                                   /home/leon/git/swp-report/iMX6_Platform_SDK/output/mx6sdl/obds/smart_device_rev_a/obj/sdk/drivers/ipu/test/ipu_image.o
localeconv                                        /home/leon/riotboard/arm-2012.09/bin/../arm-none-eabi/lib//libc.a(lib_a-locale.o)
ltc3589_backlight_en                              /home/leon/git/swp-report/iMX6_Platform_SDK/output/mx6sdl/obds/smart_device_rev_a/obj/apps/obds/src/tests/pmic_lt3589.o
ltc3589_camera_power_on                           /home/leon/git/swp-report/iMX6_Platform_SDK/output/mx6sdl/obds/smart_device_rev_a/obj/apps/obds/src/tests/pmic_lt3589.o
ltc3589_eval                                      /home/leon/git/swp-report/iMX6_Platform_SDK/output/mx6sdl/obds/smart_device_rev_a/obj/apps/obds/src/tests/pmic_lt3589.o
ltc3589_i2c_device_id_check                       /home/leon/git/swp-report/iMX6_Platform_SDK/output/mx6sdl/obds/smart_device_rev_a/obj/apps/obds/src/tests/pmic_lt3589.o
ltc3589_reg_read                                  /home/leon/git/swp-report/iMX6_Platform_SDK/output/mx6sdl/obds/smart_device_rev_a/obj/apps/obds/src/tests/pmic_lt3589.o
ltc3589_reg_write                                 /home/leon/git/swp-report/iMX6_Platform_SDK/output/mx6sdl/obds/smart_device_rev_a/obj/apps/obds/src/tests/pmic_lt3589.o
lvds_power_on                                     /home/leon/git/swp-report/iMX6_Platform_SDK/output/mx6sdl/lib/libboard_smart_device_rev_a.a(board_display.o)
                                                  /home/leon/git/swp-report/iMX6_Platform_SDK/output/mx6sdl/lib/libsdk.a(ips_disp_panel.o)
m29w256gl_auto_dev_id                             /home/leon/git/swp-report/iMX6_Platform_SDK/output/mx6sdl/obds/smart_device_rev_a/obj/apps/obds/src/tests/weim_nor_flash_test.o
m29w256gl_auto_manu_id                            /home/leon/git/swp-report/iMX6_Platform_SDK/output/mx6sdl/obds/smart_device_rev_a/obj/apps/obds/src/tests/weim_nor_flash_test.o
mac_address_str                                   /home/leon/git/swp-report/iMX6_Platform_SDK/output/mx6sdl/obds/smart_device_rev_a/obj/apps/obds/src/tests/program_mac_address.o
mag3110_reg_read                                  /home/leon/git/swp-report/iMX6_Platform_SDK/output/mx6sdl/obds/smart_device_rev_a/obj/apps/obds/src/tests/i2c_device_digital_compass_mag3110.o
mag3112_reg_read                                  /home/leon/git/swp-report/iMX6_Platform_SDK/output/mx6sdl/obds/smart_device_rev_a/obj/apps/obds/src/tests/i2c_device_digital_compass_mag3112.o
main                                              /home/leon/git/swp-report/iMX6_Platform_SDK/output/mx6sdl/obds/smart_device_rev_a/obj/apps/obds/src/obds.o
                                                  /home/leon/git/swp-report/iMX6_Platform_SDK/output/mx6sdl/lib/libsdk.a(startup.o)
main_menuitems                                    /home/leon/git/swp-report/iMX6_Platform_SDK/output/mx6sdl/obds/smart_device_rev_a/obj/apps/obds/src/obds.o
malloc                                            /home/leon/riotboard/arm-2012.09/bin/../arm-none-eabi/lib//libc.a(lib_a-malloc.o)
                                                  /home/leon/git/swp-report/iMX6_Platform_SDK/output/mx6sdl/lib/libsdk.a(usbh_drv.o)
                                                  /home/leon/git/swp-report/iMX6_Platform_SDK/output/mx6sdl/lib/libsdk.a(system_util.o)
                                                  /home/leon/git/swp-report/iMX6_Platform_SDK/output/mx6sdl/obds/smart_device_rev_a/obj/sdk/drivers/usb/test/usb0_host_test.o
                                                  /home/leon/git/swp-report/iMX6_Platform_SDK/output/mx6sdl/obds/smart_device_rev_a/obj/apps/obds/src/tests/usb_tests_obds.o
                                                  /home/leon/git/swp-report/iMX6_Platform_SDK/output/mx6sdl/obds/smart_device_rev_a/obj/apps/obds/src/obds.o
max11801_reg_read_multi                           /home/leon/git/swp-report/iMX6_Platform_SDK/output/mx6sdl/obds/smart_device_rev_a/obj/apps/obds/src/tests/touch_screen_max11801.o
max11801_reg_read_single                          /home/leon/git/swp-report/iMX6_Platform_SDK/output/mx6sdl/obds/smart_device_rev_a/obj/apps/obds/src/tests/touch_screen_max11801.o
max11801_reg_write                                /home/leon/git/swp-report/iMX6_Platform_SDK/output/mx6sdl/obds/smart_device_rev_a/obj/apps/obds/src/tests/touch_screen_max11801.o
max11801_ts_test                                  /home/leon/git/swp-report/iMX6_Platform_SDK/output/mx6sdl/obds/smart_device_rev_a/obj/apps/obds/src/tests/touch_screen_max11801.o
max17135_reg_read                                 /home/leon/git/swp-report/iMX6_Platform_SDK/output/mx6sdl/obds/smart_device_rev_a/obj/apps/obds/src/tests/pmic_max17135.o
max17135_reg_write                                /home/leon/git/swp-report/iMX6_Platform_SDK/output/mx6sdl/obds/smart_device_rev_a/obj/apps/obds/src/tests/pmic_max17135.o
max7310_i2c_device_id_check                       /home/leon/git/swp-report/iMX6_Platform_SDK/output/mx6sdl/obds/smart_device_rev_a/obj/sdk/common/ioexpander/test/max7310_test.o
max7310_i2c_req_array                             /home/leon/git/swp-report/iMX6_Platform_SDK/output/mx6sdl/lib/libboard_smart_device_rev_a.a(board_io_expanders.o)
                                                  /home/leon/git/swp-report/iMX6_Platform_SDK/output/mx6sdl/lib/libsdk.a(max7310.o)
max7310_init                                      /home/leon/git/swp-report/iMX6_Platform_SDK/output/mx6sdl/lib/libsdk.a(max7310.o)
max7310_reg_read                                  /home/leon/git/swp-report/iMX6_Platform_SDK/output/mx6sdl/lib/libsdk.a(max7310.o)
max7310_reg_write                                 /home/leon/git/swp-report/iMX6_Platform_SDK/output/mx6sdl/lib/libsdk.a(max7310.o)
max7310_set_gpio_output                           /home/leon/git/swp-report/iMX6_Platform_SDK/output/mx6sdl/lib/libsdk.a(max7310.o)
                                                  /home/leon/git/swp-report/iMX6_Platform_SDK/output/mx6sdl/obds/smart_device_rev_a/obj/apps/obds/src/tests/video_dec_adv7180.o
                                                  /home/leon/git/swp-report/iMX6_Platform_SDK/output/mx6sdl/obds/smart_device_rev_a/obj/apps/obds/src/tests/video_dec_ARD_MBrst_from_cpu_expander.o
                                                  /home/leon/git/swp-report/iMX6_Platform_SDK/output/mx6sdl/obds/smart_device_rev_a/obj/apps/obds/src/tests/mlb_os81050.o
                                                  /home/leon/git/swp-report/iMX6_Platform_SDK/output/mx6sdl/obds/smart_device_rev_a/obj/apps/obds/src/tests/fm_tuner_si476x_test.o
mc13892_i2c_reg                                   /home/leon/git/swp-report/iMX6_Platform_SDK/output/mx6sdl/obds/smart_device_rev_a/obj/apps/obds/src/tests/pmic_mc13892.o
memchr                                            /home/leon/riotboard/arm-2012.09/bin/../arm-none-eabi/lib//libc.a(lib_a-memchr.o)
                                                  /home/leon/riotboard/arm-2012.09/bin/../arm-none-eabi/lib//libc.a(lib_a-svfiprintf.o)
                                                  /home/leon/riotboard/arm-2012.09/bin/../arm-none-eabi/lib//libc.a(lib_a-fvwrite.o)
                                                  /home/leon/riotboard/arm-2012.09/bin/../arm-none-eabi/lib//libc.a(lib_a-vfprintf.o)
                                                  /home/leon/riotboard/arm-2012.09/bin/../arm-none-eabi/lib//libc.a(lib_a-vfiprintf.o)
                                                  /home/leon/riotboard/arm-2012.09/bin/../arm-none-eabi/lib//libc.a(lib_a-svfprintf.o)
memcpy                                            /home/leon/riotboard/arm-2012.09/bin/../arm-none-eabi/lib//libc.a(lib_a-memcpy.o)
                                                  /home/leon/riotboard/arm-2012.09/bin/../arm-none-eabi/lib//libc.a(lib_a-svfiprintf.o)
                                                  /home/leon/riotboard/arm-2012.09/bin/../arm-none-eabi/lib//libc.a(lib_a-mprec.o)
                                                  /home/leon/riotboard/arm-2012.09/bin/../arm-none-eabi/lib//libc.a(lib_a-fvwrite.o)
                                                  /home/leon/riotboard/arm-2012.09/bin/../arm-none-eabi/lib//libc.a(lib_a-dtoa.o)
                                                  /home/leon/git/swp-report/iMX6_Platform_SDK/output/mx6sdl/lib/libsdk.a(ipu_common.o)
                                                  /home/leon/git/swp-report/iMX6_Platform_SDK/output/mx6sdl/lib/libsdk.a(mxc_epdc.o)
                                                  /home/leon/git/swp-report/iMX6_Platform_SDK/output/mx6sdl/lib/libsdk.a(enet_drv.o)
                                                  /home/leon/git/swp-report/iMX6_Platform_SDK/output/mx6sdl/lib/libsdk.a(menu.o)
                                                  /home/leon/git/swp-report/iMX6_Platform_SDK/output/mx6sdl/obds/smart_device_rev_a/obj/sdk/drivers/spi/test/imx_spi_nor_atmel.o
                                                  /home/leon/git/swp-report/iMX6_Platform_SDK/output/mx6sdl/obds/smart_device_rev_a/obj/sdk/drivers/ipu/test/ipu_image.o
                                                  /home/leon/git/swp-report/iMX6_Platform_SDK/output/mx6sdl/obds/smart_device_rev_a/obj/apps/obds/src/tests/touch_screen_max11801.o
                                                  /home/leon/git/swp-report/iMX6_Platform_SDK/output/mx6sdl/obds/smart_device_rev_a/obj/apps/obds/src/tests/i2c_device_id_check_p1003_tsc.o
                                                  /home/leon/git/swp-report/iMX6_Platform_SDK/output/mx6sdl/obds/smart_device_rev_a/obj/apps/obds/src/tests/audio_esai_test.o
memmove                                           /home/leon/riotboard/arm-2012.09/bin/../arm-none-eabi/lib//libc.a(lib_a-memmove.o)
                                                  /home/leon/riotboard/arm-2012.09/bin/../arm-none-eabi/lib//libc.a(lib_a-svfiprintf.o)
                                                  /home/leon/riotboard/arm-2012.09/bin/../arm-none-eabi/lib//libc.a(lib_a-fvwrite.o)
                                                  /home/leon/riotboard/arm-2012.09/bin/../arm-none-eabi/lib//libc.a(lib_a-reallocr.o)
memset                                            /home/leon/riotboard/arm-2012.09/bin/../arm-none-eabi/lib//libc.a(lib_a-memset.o)
                                                  /home/leon/riotboard/arm-2012.09/bin/../arm-none-eabi/lib//libc.a(lib_a-callocr.o)
                                                  /home/leon/riotboard/arm-2012.09/bin/../arm-none-eabi/lib//libc.a(lib_a-findfp.o)
                                                  /home/leon/git/swp-report/iMX6_Platform_SDK/output/mx6sdl/lib/libsdk.a(ipu_vdi.o)
                                                  /home/leon/git/swp-report/iMX6_Platform_SDK/output/mx6sdl/lib/libsdk.a(ipu_idmac.o)
                                                  /home/leon/git/swp-report/iMX6_Platform_SDK/output/mx6sdl/lib/libsdk.a(ipu_di.o)
                                                  /home/leon/git/swp-report/iMX6_Platform_SDK/output/mx6sdl/lib/libsdk.a(ipu_common.o)
                                                  /home/leon/git/swp-report/iMX6_Platform_SDK/output/mx6sdl/lib/libsdk.a(mxc_epdc.o)
                                                  /home/leon/git/swp-report/iMX6_Platform_SDK/output/mx6sdl/lib/libsdk.a(board_id.o)
                                                  /home/leon/git/swp-report/iMX6_Platform_SDK/output/mx6sdl/lib/libsdk.a(imx_spdif.o)
                                                  /home/leon/git/swp-report/iMX6_Platform_SDK/output/mx6sdl/lib/libsdk.a(menu.o)
                                                  /home/leon/git/swp-report/iMX6_Platform_SDK/output/mx6sdl/obds/smart_device_rev_a/obj/sdk/drivers/usdhc/test/usdhc_test.o
                                                  /home/leon/git/swp-report/iMX6_Platform_SDK/output/mx6sdl/obds/smart_device_rev_a/obj/sdk/drivers/spi/test/spi_nor_numonyx.o
                                                  /home/leon/git/swp-report/iMX6_Platform_SDK/output/mx6sdl/obds/smart_device_rev_a/obj/sdk/drivers/ipu/test/ipu_image.o
                                                  /home/leon/git/swp-report/iMX6_Platform_SDK/output/mx6sdl/obds/smart_device_rev_a/obj/sdk/drivers/ipu/test/ips_display.o
                                                  /home/leon/git/swp-report/iMX6_Platform_SDK/output/mx6sdl/obds/smart_device_rev_a/obj/sdk/drivers/hdmi/test/hdmi_test.o
                                                  /home/leon/git/swp-report/iMX6_Platform_SDK/output/mx6sdl/obds/smart_device_rev_a/obj/apps/obds/src/tests/usb_tests_obds.o
                                                  /home/leon/git/swp-report/iMX6_Platform_SDK/output/mx6sdl/obds/smart_device_rev_a/obj/apps/obds/src/tests/imx_spi_nor_test.o
                                                  /home/leon/git/swp-report/iMX6_Platform_SDK/output/mx6sdl/obds/smart_device_rev_a/obj/apps/obds/src/tests/display_test.o
                                                  /home/leon/git/swp-report/iMX6_Platform_SDK/output/mx6sdl/obds/smart_device_rev_a/obj/apps/obds/src/obds.o
                                                  /home/leon/git/swp-report/iMX6_Platform_SDK/output/mx6sdl/obds/smart_device_rev_a/obj/apps/common/print_version.o
menu_append_menuitems                             /home/leon/git/swp-report/iMX6_Platform_SDK/output/mx6sdl/lib/libsdk.a(menu.o)
                                                  /home/leon/git/swp-report/iMX6_Platform_SDK/output/mx6sdl/obds/smart_device_rev_a/obj/apps/obds/src/obds.o
menu_get_indent                                   /home/leon/git/swp-report/iMX6_Platform_SDK/output/mx6sdl/lib/libsdk.a(menu.o)
                                                  /home/leon/git/swp-report/iMX6_Platform_SDK/output/mx6sdl/lib/libsdk.a(usdhc.o)
                                                  /home/leon/git/swp-report/iMX6_Platform_SDK/output/mx6sdl/obds/smart_device_rev_a/obj/sdk/drivers/usdhc/test/usdhc_test.o
                                                  /home/leon/git/swp-report/iMX6_Platform_SDK/output/mx6sdl/obds/smart_device_rev_a/obj/sdk/drivers/uart/test/uart_test.o
                                                  /home/leon/git/swp-report/iMX6_Platform_SDK/output/mx6sdl/obds/smart_device_rev_a/obj/sdk/drivers/epdc/test/epdc_test.o
                                                  /home/leon/git/swp-report/iMX6_Platform_SDK/output/mx6sdl/obds/smart_device_rev_a/obj/sdk/common/pmic/pfuse/pf0100.o
                                                  /home/leon/git/swp-report/iMX6_Platform_SDK/output/mx6sdl/obds/smart_device_rev_a/obj/apps/obds/src/tests/weim_nor_flash_test.o
                                                  /home/leon/git/swp-report/iMX6_Platform_SDK/output/mx6sdl/obds/smart_device_rev_a/obj/apps/obds/src/tests/video_dec_adv7180.o
                                                  /home/leon/git/swp-report/iMX6_Platform_SDK/output/mx6sdl/obds/smart_device_rev_a/obj/apps/obds/src/tests/video_dec_ARD_MBrst_from_cpu_expander.o
                                                  /home/leon/git/swp-report/iMX6_Platform_SDK/output/mx6sdl/obds/smart_device_rev_a/obj/apps/obds/src/tests/video_dec_ARD_MB_reset_button.o
                                                  /home/leon/git/swp-report/iMX6_Platform_SDK/output/mx6sdl/obds/smart_device_rev_a/obj/apps/obds/src/tests/touch_screen.o
                                                  /home/leon/git/swp-report/iMX6_Platform_SDK/output/mx6sdl/obds/smart_device_rev_a/obj/apps/obds/src/tests/touch_button_test.o
                                                  /home/leon/git/swp-report/iMX6_Platform_SDK/output/mx6sdl/obds/smart_device_rev_a/obj/apps/obds/src/tests/snvs_srtc_test.o
                                                  /home/leon/git/swp-report/iMX6_Platform_SDK/output/mx6sdl/obds/smart_device_rev_a/obj/apps/obds/src/tests/program_mac_address.o
                                                  /home/leon/git/swp-report/iMX6_Platform_SDK/output/mx6sdl/obds/smart_device_rev_a/obj/apps/obds/src/tests/program_board_id.o
                                                  /home/leon/git/swp-report/iMX6_Platform_SDK/output/mx6sdl/obds/smart_device_rev_a/obj/apps/obds/src/tests/pmic_mc13892.o
                                                  /home/leon/git/swp-report/iMX6_Platform_SDK/output/mx6sdl/obds/smart_device_rev_a/obj/apps/obds/src/tests/pmic_max17135.o
                                                  /home/leon/git/swp-report/iMX6_Platform_SDK/output/mx6sdl/obds/smart_device_rev_a/obj/apps/obds/src/tests/mmcsd_test.o
                                                  /home/leon/git/swp-report/iMX6_Platform_SDK/output/mx6sdl/obds/smart_device_rev_a/obj/apps/obds/src/tests/imx_spi_nor_test.o
                                                  /home/leon/git/swp-report/iMX6_Platform_SDK/output/mx6sdl/obds/smart_device_rev_a/obj/apps/obds/src/tests/i2c_device_zigbee_mc1323.o
                                                  /home/leon/git/swp-report/iMX6_Platform_SDK/output/mx6sdl/obds/smart_device_rev_a/obj/apps/obds/src/tests/i2c_device_id_check_p1003_tsc.o
                                                  /home/leon/git/swp-report/iMX6_Platform_SDK/output/mx6sdl/obds/smart_device_rev_a/obj/apps/obds/src/tests/i2c_device_id_check_mma8451.o
                                                  /home/leon/git/swp-report/iMX6_Platform_SDK/output/mx6sdl/obds/smart_device_rev_a/obj/apps/obds/src/tests/i2c_device_id_check_mma8450.o
                                                  /home/leon/git/swp-report/iMX6_Platform_SDK/output/mx6sdl/obds/smart_device_rev_a/obj/apps/obds/src/tests/i2c_device_digital_compass_mag3112.o
                                                  /home/leon/git/swp-report/iMX6_Platform_SDK/output/mx6sdl/obds/smart_device_rev_a/obj/apps/obds/src/tests/i2c_device_digital_compass_mag3110.o
                                                  /home/leon/git/swp-report/iMX6_Platform_SDK/output/mx6sdl/obds/smart_device_rev_a/obj/apps/obds/src/tests/i2c_check_light_sensor_isl29023.o
                                                  /home/leon/git/swp-report/iMX6_Platform_SDK/output/mx6sdl/obds/smart_device_rev_a/obj/apps/obds/src/tests/gpio_led.o
                                                  /home/leon/git/swp-report/iMX6_Platform_SDK/output/mx6sdl/obds/smart_device_rev_a/obj/apps/obds/src/tests/flexcan_test.o
                                                  /home/leon/git/swp-report/iMX6_Platform_SDK/output/mx6sdl/obds/smart_device_rev_a/obj/apps/obds/src/tests/enet_mx6dldq_test.o
                                                  /home/leon/git/swp-report/iMX6_Platform_SDK/output/mx6sdl/obds/smart_device_rev_a/obj/apps/obds/src/tests/audio_ssi_test.o
                                                  /home/leon/git/swp-report/iMX6_Platform_SDK/output/mx6sdl/obds/smart_device_rev_a/obj/apps/obds/src/tests/audio_esai_test.o
                                                  /home/leon/git/swp-report/iMX6_Platform_SDK/output/mx6sdl/obds/smart_device_rev_a/obj/apps/obds/src/tests/android_buttons_test.o
                                                  /home/leon/git/swp-report/iMX6_Platform_SDK/output/mx6sdl/obds/smart_device_rev_a/obj/apps/obds/src/obds.o
menu_present                                      /home/leon/git/swp-report/iMX6_Platform_SDK/output/mx6sdl/lib/libsdk.a(menu.o)
                                                  /home/leon/git/swp-report/iMX6_Platform_SDK/output/mx6sdl/obds/smart_device_rev_a/obj/apps/obds/src/obds.o
menu_print_menuitem                               /home/leon/git/swp-report/iMX6_Platform_SDK/output/mx6sdl/lib/libsdk.a(menu.o)
menuitem_cmd_exitmenu                             /home/leon/git/swp-report/iMX6_Platform_SDK/output/mx6sdl/lib/libsdk.a(menu.o)
                                                  /home/leon/git/swp-report/iMX6_Platform_SDK/output/mx6sdl/obds/smart_device_rev_a/obj/apps/obds/src/obds.o
menuitem_cmd_showmenu                             /home/leon/git/swp-report/iMX6_Platform_SDK/output/mx6sdl/lib/libsdk.a(menu.o)
                                                  /home/leon/git/swp-report/iMX6_Platform_SDK/output/mx6sdl/obds/smart_device_rev_a/obj/apps/obds/src/obds.o
mipi_backlight_en                                 /home/leon/git/swp-report/iMX6_Platform_SDK/output/mx6sdl/lib/libboard_smart_device_rev_a.a(board_mipi.o)
                                                  /home/leon/git/swp-report/iMX6_Platform_SDK/output/mx6sdl/lib/libsdk.a(ips_disp_panel.o)
mipi_cam_power_on                                 /home/leon/git/swp-report/iMX6_Platform_SDK/output/mx6sdl/lib/libboard_smart_device_rev_a.a(board_mipi.o)
mipi_clock_set                                    /home/leon/git/swp-report/iMX6_Platform_SDK/output/mx6sdl/lib/libboard_smart_device_rev_a.a(board_mipi.o)
                                                  /home/leon/git/swp-report/iMX6_Platform_SDK/output/mx6sdl/lib/libsdk.a(ips_disp_panel.o)
mipi_csi2_clock_set                               /home/leon/git/swp-report/iMX6_Platform_SDK/output/mx6sdl/lib/libboard_smart_device_rev_a.a(board_mipi.o)
mipi_csi_iomux_config                             /home/leon/git/swp-report/iMX6_Platform_SDK/output/mx6sdl/lib/libboard_smart_device_rev_a.a(iomux_config.o)
mipi_display_reset                                /home/leon/git/swp-report/iMX6_Platform_SDK/output/mx6sdl/lib/libboard_smart_device_rev_a.a(board_mipi.o)
                                                  /home/leon/git/swp-report/iMX6_Platform_SDK/output/mx6sdl/lib/libsdk.a(ips_disp_panel.o)
mipi_dsi_iomux_config                             /home/leon/git/swp-report/iMX6_Platform_SDK/output/mx6sdl/lib/libboard_smart_device_rev_a.a(iomux_config.o)
mipi_hsi_iomux_config                             /home/leon/git/swp-report/iMX6_Platform_SDK/output/mx6sdl/lib/libboard_smart_device_rev_a.a(iomux_config.o)
mlb_io_config                                     /home/leon/git/swp-report/iMX6_Platform_SDK/output/mx6sdl/obds/smart_device_rev_a/obj/apps/obds/src/tests/mlb_os81050.o
mlb_iomux_config                                  /home/leon/git/swp-report/iMX6_Platform_SDK/output/mx6sdl/lib/libboard_smart_device_rev_a.a(iomux_config.o)
mlb_os81050_test_enable                           /home/leon/git/swp-report/iMX6_Platform_SDK/output/mx6sdl/obds/smart_device_rev_a/obj/apps/obds/src/tests/mlb_os81050.o
mma8450_get_accel                                 /home/leon/git/swp-report/iMX6_Platform_SDK/output/mx6sdl/obds/smart_device_rev_a/obj/apps/obds/src/tests/i2c_device_id_check_mma8450.o
mma8450_set_config                                /home/leon/git/swp-report/iMX6_Platform_SDK/output/mx6sdl/obds/smart_device_rev_a/obj/apps/obds/src/tests/i2c_device_id_check_mma8450.o
mma8450_show_accel                                /home/leon/git/swp-report/iMX6_Platform_SDK/output/mx6sdl/obds/smart_device_rev_a/obj/apps/obds/src/tests/i2c_device_id_check_mma8450.o
mma8451_get_accel                                 /home/leon/git/swp-report/iMX6_Platform_SDK/output/mx6sdl/obds/smart_device_rev_a/obj/apps/obds/src/tests/i2c_device_id_check_mma8451.o
mma8451_set_config                                /home/leon/git/swp-report/iMX6_Platform_SDK/output/mx6sdl/obds/smart_device_rev_a/obj/apps/obds/src/tests/i2c_device_id_check_mma8451.o
mma8451_show_accel                                /home/leon/git/swp-report/iMX6_Platform_SDK/output/mx6sdl/obds/smart_device_rev_a/obj/apps/obds/src/tests/i2c_device_id_check_mma8451.o
mmc_init                                          /home/leon/git/swp-report/iMX6_Platform_SDK/output/mx6sdl/lib/libsdk.a(usdhc_mmc.o)
                                                  /home/leon/git/swp-report/iMX6_Platform_SDK/output/mx6sdl/lib/libsdk.a(usdhc.o)
mmc_sd_test                                       /home/leon/git/swp-report/iMX6_Platform_SDK/output/mx6sdl/obds/smart_device_rev_a/obj/sdk/drivers/usdhc/test/usdhc_test.o
                                                  /home/leon/git/swp-report/iMX6_Platform_SDK/output/mx6sdl/obds/smart_device_rev_a/obj/apps/obds/src/tests/mmcsd_test.o
mmc_set_boot_ack                                  /home/leon/git/swp-report/iMX6_Platform_SDK/output/mx6sdl/lib/libsdk.a(usdhc_mmc.o)
                                                  /home/leon/git/swp-report/iMX6_Platform_SDK/output/mx6sdl/obds/smart_device_rev_a/obj/sdk/drivers/usdhc/test/usdhc_test.o
mmc_set_boot_bus_width                            /home/leon/git/swp-report/iMX6_Platform_SDK/output/mx6sdl/lib/libsdk.a(usdhc_mmc.o)
                                                  /home/leon/git/swp-report/iMX6_Platform_SDK/output/mx6sdl/obds/smart_device_rev_a/obj/sdk/drivers/usdhc/test/usdhc_test.o
mmc_set_boot_partition                            /home/leon/git/swp-report/iMX6_Platform_SDK/output/mx6sdl/lib/libsdk.a(usdhc_mmc.o)
                                                  /home/leon/git/swp-report/iMX6_Platform_SDK/output/mx6sdl/obds/smart_device_rev_a/obj/sdk/drivers/usdhc/test/usdhc_test.o
mmc_voltage_validation                            /home/leon/git/swp-report/iMX6_Platform_SDK/output/mx6sdl/lib/libsdk.a(usdhc_mmc.o)
                                                  /home/leon/git/swp-report/iMX6_Platform_SDK/output/mx6sdl/lib/libsdk.a(usdhc.o)
mmcsd_bus_width                                   /home/leon/git/swp-report/iMX6_Platform_SDK/output/mx6sdl/obds/smart_device_rev_a/obj/apps/obds/src/tests/mmcsd_test.o
mmcsd_test                                        /home/leon/git/swp-report/iMX6_Platform_SDK/output/mx6sdl/obds/smart_device_rev_a/obj/apps/obds/src/tests/mmcsd_test.o
                                                  /home/leon/git/swp-report/iMX6_Platform_SDK/output/mx6sdl/obds/smart_device_rev_a/obj/apps/obds/src/obds.o
mmdc_iomux_config                                 /home/leon/git/swp-report/iMX6_Platform_SDK/output/mx6sdl/lib/libboard_smart_device_rev_a.a(mmdc_iomux_config.o)
                                                  /home/leon/git/swp-report/iMX6_Platform_SDK/output/mx6sdl/lib/libboard_smart_device_rev_a.a(iomux_config.o)
mmu_disable                                       /home/leon/git/swp-report/iMX6_Platform_SDK/output/mx6sdl/lib/libsdk.a(mmu.o)
mmu_enable                                        /home/leon/git/swp-report/iMX6_Platform_SDK/output/mx6sdl/lib/libsdk.a(mmu.o)
mmu_init                                          /home/leon/git/swp-report/iMX6_Platform_SDK/output/mx6sdl/lib/libsdk.a(mmu.o)
                                                  /home/leon/git/swp-report/iMX6_Platform_SDK/output/mx6sdl/obds/smart_device_rev_a/obj/apps/common/platform_init.o
mmu_map_l1_range                                  /home/leon/git/swp-report/iMX6_Platform_SDK/output/mx6sdl/lib/libsdk.a(mmu.o)
                                                  /home/leon/git/swp-report/iMX6_Platform_SDK/output/mx6sdl/obds/smart_device_rev_a/obj/apps/common/platform_init.o
mmu_virtual_to_physical                           /home/leon/git/swp-report/iMX6_Platform_SDK/output/mx6sdl/lib/libsdk.a(mmu.o)
mybkpt                                            /home/leon/git/swp-report/iMX6_Platform_SDK/output/mx6sdl/lib/libsdk.a(system_util.o)
need_csc                                          /home/leon/git/swp-report/iMX6_Platform_SDK/output/mx6sdl/lib/libsdk.a(ipu_common.o)
num_of_panels                                     /home/leon/git/swp-report/iMX6_Platform_SDK/output/mx6sdl/lib/libsdk.a(ips_disp_panel.o)
obds_tests                                        /home/leon/git/swp-report/iMX6_Platform_SDK/output/mx6sdl/obds/smart_device_rev_a/obj/apps/obds/src/obds.o
ocotp_fuse_blow_row                               /home/leon/git/swp-report/iMX6_Platform_SDK/output/mx6sdl/lib/libsdk.a(ocotp.o)
                                                  /home/leon/git/swp-report/iMX6_Platform_SDK/output/mx6sdl/obds/smart_device_rev_a/obj/apps/obds/src/tests/program_mac_address.o
                                                  /home/leon/git/swp-report/iMX6_Platform_SDK/output/mx6sdl/obds/smart_device_rev_a/obj/apps/obds/src/tests/program_board_id.o
ocotp_reload_otp_shadow_registers                 /home/leon/git/swp-report/iMX6_Platform_SDK/output/mx6sdl/lib/libsdk.a(ocotp.o)
                                                  /home/leon/git/swp-report/iMX6_Platform_SDK/output/mx6sdl/obds/smart_device_rev_a/obj/apps/obds/src/tests/program_mac_address.o
                                                  /home/leon/git/swp-report/iMX6_Platform_SDK/output/mx6sdl/obds/smart_device_rev_a/obj/apps/obds/src/tests/program_board_id.o
ocotp_sense_fuse                                  /home/leon/git/swp-report/iMX6_Platform_SDK/output/mx6sdl/lib/libsdk.a(ocotp.o)
                                                  /home/leon/git/swp-report/iMX6_Platform_SDK/output/mx6sdl/obds/smart_device_rev_a/obj/apps/obds/src/tests/program_mac_address.o
                                                  /home/leon/git/swp-report/iMX6_Platform_SDK/output/mx6sdl/obds/smart_device_rev_a/obj/apps/obds/src/tests/program_board_id.o
os81050_get_message                               /home/leon/git/swp-report/iMX6_Platform_SDK/output/mx6sdl/obds/smart_device_rev_a/obj/apps/obds/src/tests/mlb_os81050.o
os81050_i2c_init                                  /home/leon/git/swp-report/iMX6_Platform_SDK/output/mx6sdl/obds/smart_device_rev_a/obj/apps/obds/src/tests/mlb_os81050.o
os81050_read_status                               /home/leon/git/swp-report/iMX6_Platform_SDK/output/mx6sdl/obds/smart_device_rev_a/obj/apps/obds/src/tests/mlb_os81050.o
os81050_test_main                                 /home/leon/git/swp-report/iMX6_Platform_SDK/output/mx6sdl/obds/smart_device_rev_a/obj/apps/obds/src/tests/mlb_os81050.o
ov5642_strobe_on                                  /home/leon/git/swp-report/iMX6_Platform_SDK/output/mx6sdl/lib/libsdk.a(smd_sensor.o)
p1003_get_touch                                   /home/leon/git/swp-report/iMX6_Platform_SDK/output/mx6sdl/obds/smart_device_rev_a/obj/apps/obds/src/tests/i2c_device_id_check_p1003_tsc.o
p1003_show_touch                                  /home/leon/git/swp-report/iMX6_Platform_SDK/output/mx6sdl/obds/smart_device_rev_a/obj/apps/obds/src/tests/i2c_device_id_check_p1003_tsc.o
p1003_version_reg_read                            /home/leon/git/swp-report/iMX6_Platform_SDK/output/mx6sdl/obds/smart_device_rev_a/obj/apps/obds/src/tests/i2c_device_id_check_p1003_tsc.o
p1003_version_reg_write                           /home/leon/git/swp-report/iMX6_Platform_SDK/output/mx6sdl/obds/smart_device_rev_a/obj/apps/obds/src/tests/i2c_device_id_check_p1003_tsc.o
panel_name                                        /home/leon/git/swp-report/iMX6_Platform_SDK/output/mx6sdl/obds/smart_device_rev_a/obj/apps/obds/src/tests/display_test.o
pcie_iomux_config                                 /home/leon/git/swp-report/iMX6_Platform_SDK/output/mx6sdl/lib/libboard_smart_device_rev_a.a(iomux_config.o)
pcm_music                                         /home/leon/git/swp-report/iMX6_Platform_SDK/output/mx6sdl/obds/smart_device_rev_a/obj/apps/obds/src/tests/audio_ssi_test.o
                                                  /home/leon/git/swp-report/iMX6_Platform_SDK/output/mx6sdl/obds/smart_device_rev_a/obj/apps/obds/src/tests/audio_esai_test.o
pcm_para                                          /home/leon/git/swp-report/iMX6_Platform_SDK/output/mx6sdl/obds/smart_device_rev_a/obj/apps/obds/src/tests/audio_ssi_test.o
pcm_record                                        /home/leon/git/swp-report/iMX6_Platform_SDK/output/mx6sdl/obds/smart_device_rev_a/obj/apps/obds/src/tests/audio_ssi_test.o
                                                  /home/leon/git/swp-report/iMX6_Platform_SDK/output/mx6sdl/obds/smart_device_rev_a/obj/apps/obds/src/tests/audio_esai_test.o
pen_status                                        /home/leon/git/swp-report/iMX6_Platform_SDK/output/mx6sdl/obds/smart_device_rev_a/obj/apps/obds/src/tests/touch_screen.o
pf0100_enable_vgen1_1v2                           /home/leon/git/swp-report/iMX6_Platform_SDK/output/mx6sdl/obds/smart_device_rev_a/obj/sdk/common/pmic/pfuse/pf0100.o
pf0100_enable_vgen2_1v5                           /home/leon/git/swp-report/iMX6_Platform_SDK/output/mx6sdl/obds/smart_device_rev_a/obj/sdk/common/pmic/pfuse/pf0100.o
pf0100_enable_vgen3_1v8                           /home/leon/git/swp-report/iMX6_Platform_SDK/output/mx6sdl/obds/smart_device_rev_a/obj/sdk/common/pmic/pfuse/pf0100.o
pf0100_enable_vgen4_1v8                           /home/leon/git/swp-report/iMX6_Platform_SDK/output/mx6sdl/obds/smart_device_rev_a/obj/sdk/common/pmic/pfuse/pf0100.o
pf0100_enable_vgen4_2v5                           /home/leon/git/swp-report/iMX6_Platform_SDK/output/mx6sdl/obds/smart_device_rev_a/obj/sdk/common/pmic/pfuse/pf0100.o
pf0100_enable_vgen6_2v8                           /home/leon/git/swp-report/iMX6_Platform_SDK/output/mx6sdl/obds/smart_device_rev_a/obj/sdk/common/pmic/pfuse/pf0100.o
pf0100_i2c_device_id_check                        /home/leon/git/swp-report/iMX6_Platform_SDK/output/mx6sdl/obds/smart_device_rev_a/obj/sdk/common/pmic/pfuse/pf0100.o
                                                  /home/leon/git/swp-report/iMX6_Platform_SDK/output/mx6sdl/obds/smart_device_rev_a/obj/apps/obds/src/obds.o
pf0100_reg_read                                   /home/leon/git/swp-report/iMX6_Platform_SDK/output/mx6sdl/obds/smart_device_rev_a/obj/sdk/common/pmic/pfuse/pf0100.o
pf0100_reg_write                                  /home/leon/git/swp-report/iMX6_Platform_SDK/output/mx6sdl/obds/smart_device_rev_a/obj/sdk/common/pmic/pfuse/pf0100.o
platform_init                                     /home/leon/git/swp-report/iMX6_Platform_SDK/output/mx6sdl/obds/smart_device_rev_a/obj/apps/common/platform_init.o
                                                  /home/leon/git/swp-report/iMX6_Platform_SDK/output/mx6sdl/obds/smart_device_rev_a/obj/apps/obds/src/obds.o
pmic_da9053_test                                  /home/leon/git/swp-report/iMX6_Platform_SDK/output/mx6sdl/obds/smart_device_rev_a/obj/apps/obds/src/tests/pmic_da9053.o
pmic_lt3589_test                                  /home/leon/git/swp-report/iMX6_Platform_SDK/output/mx6sdl/obds/smart_device_rev_a/obj/apps/obds/src/tests/pmic_lt3589.o
pmic_mc13892_reg                                  /home/leon/git/swp-report/iMX6_Platform_SDK/output/mx6sdl/obds/smart_device_rev_a/obj/apps/obds/src/tests/pmic_mc13892.o
pmic_mc13892_test                                 /home/leon/git/swp-report/iMX6_Platform_SDK/output/mx6sdl/obds/smart_device_rev_a/obj/apps/obds/src/tests/pmic_mc13892.o
pmic_open_vgen1                                   /home/leon/git/swp-report/iMX6_Platform_SDK/output/mx6sdl/obds/smart_device_rev_a/obj/apps/obds/src/tests/pmic_mc13892.o
pmic_open_vsd                                     /home/leon/git/swp-report/iMX6_Platform_SDK/output/mx6sdl/obds/smart_device_rev_a/obj/apps/obds/src/tests/pmic_mc13892.o
pmic_open_vusb                                    /home/leon/git/swp-report/iMX6_Platform_SDK/output/mx6sdl/obds/smart_device_rev_a/obj/apps/obds/src/tests/pmic_mc13892.o
pmu_iomux_config                                  /home/leon/git/swp-report/iMX6_Platform_SDK/output/mx6sdl/lib/libboard_smart_device_rev_a.a(iomux_config.o)
preamble_filter_set                               /home/leon/git/swp-report/iMX6_Platform_SDK/output/mx6sdl/lib/libsdk.a(hdmi_tx.o)
prefetch_abort_handler                            /home/leon/git/swp-report/iMX6_Platform_SDK/output/mx6sdl/lib/libsdk.a(arm_abort.o)
                                                  /home/leon/git/swp-report/iMX6_Platform_SDK/output/mx6sdl/lib/libsdk.a(vectors.o)
print_test_failed                                 /home/leon/git/swp-report/iMX6_Platform_SDK/output/mx6sdl/obds/smart_device_rev_a/obj/apps/obds/src/obds.o
print_test_not_implemented                        /home/leon/git/swp-report/iMX6_Platform_SDK/output/mx6sdl/obds/smart_device_rev_a/obj/apps/obds/src/obds.o
print_test_passed                                 /home/leon/git/swp-report/iMX6_Platform_SDK/output/mx6sdl/obds/smart_device_rev_a/obj/apps/obds/src/obds.o
print_test_skipped                                /home/leon/git/swp-report/iMX6_Platform_SDK/output/mx6sdl/obds/smart_device_rev_a/obj/apps/obds/src/obds.o
print_version                                     /home/leon/git/swp-report/iMX6_Platform_SDK/output/mx6sdl/obds/smart_device_rev_a/obj/apps/common/print_version.o
                                                  /home/leon/git/swp-report/iMX6_Platform_SDK/output/mx6sdl/obds/smart_device_rev_a/obj/apps/obds/src/obds.o
printf                                            /home/leon/riotboard/arm-2012.09/bin/../arm-none-eabi/lib//libc.a(lib_a-printf.o)
                                                  /home/leon/git/swp-report/iMX6_Platform_SDK/output/mx6sdl/lib/libboard_smart_device_rev_a.a(board_hdmi.o)
                                                  /home/leon/git/swp-report/iMX6_Platform_SDK/output/mx6sdl/lib/libboard_smart_device_rev_a.a(board_display.o)
                                                  /home/leon/git/swp-report/iMX6_Platform_SDK/output/mx6sdl/lib/libsdk.a(abort_handler.o)
                                                  /home/leon/git/swp-report/iMX6_Platform_SDK/output/mx6sdl/lib/libsdk.a(ipu_ic.o)
                                                  /home/leon/git/swp-report/iMX6_Platform_SDK/output/mx6sdl/lib/libsdk.a(hdmi_common.o)
                                                  /home/leon/git/swp-report/iMX6_Platform_SDK/output/mx6sdl/lib/libsdk.a(usdhc_sd.o)
                                                  /home/leon/git/swp-report/iMX6_Platform_SDK/output/mx6sdl/lib/libsdk.a(usdhc_mmc.o)
                                                  /home/leon/git/swp-report/iMX6_Platform_SDK/output/mx6sdl/lib/libsdk.a(usdhc_host.o)
                                                  /home/leon/git/swp-report/iMX6_Platform_SDK/output/mx6sdl/lib/libsdk.a(usdhc.o)
                                                  /home/leon/git/swp-report/iMX6_Platform_SDK/output/mx6sdl/lib/libsdk.a(usbh_drv.o)
                                                  /home/leon/git/swp-report/iMX6_Platform_SDK/output/mx6sdl/lib/libsdk.a(usb_common.o)
                                                  /home/leon/git/swp-report/iMX6_Platform_SDK/output/mx6sdl/lib/libsdk.a(ecspi.o)
                                                  /home/leon/git/swp-report/iMX6_Platform_SDK/output/mx6sdl/lib/libsdk.a(ldb.o)
                                                  /home/leon/git/swp-report/iMX6_Platform_SDK/output/mx6sdl/lib/libsdk.a(ipu_idmac.o)
                                                  /home/leon/git/swp-report/iMX6_Platform_SDK/output/mx6sdl/lib/libsdk.a(ipu_di.o)
                                                  /home/leon/git/swp-report/iMX6_Platform_SDK/output/mx6sdl/lib/libsdk.a(ipu_dc.o)
                                                  /home/leon/git/swp-report/iMX6_Platform_SDK/output/mx6sdl/lib/libsdk.a(ipu_csi.o)
                                                  /home/leon/git/swp-report/iMX6_Platform_SDK/output/mx6sdl/lib/libsdk.a(ipu_common.o)
                                                  /home/leon/git/swp-report/iMX6_Platform_SDK/output/mx6sdl/lib/libsdk.a(ips_disp_panel.o)
                                                  /home/leon/git/swp-report/iMX6_Platform_SDK/output/mx6sdl/lib/libsdk.a(hdmi_tx_phy.o)
                                                  /home/leon/git/swp-report/iMX6_Platform_SDK/output/mx6sdl/lib/libsdk.a(hdmi_tx_audio.o)
                                                  /home/leon/git/swp-report/iMX6_Platform_SDK/output/mx6sdl/lib/libsdk.a(hdmi_tx.o)
                                                  /home/leon/git/swp-report/iMX6_Platform_SDK/output/mx6sdl/lib/libsdk.a(gpio.o)
                                                  /home/leon/git/swp-report/iMX6_Platform_SDK/output/mx6sdl/lib/libsdk.a(mxc_epdc.o)
                                                  /home/leon/git/swp-report/iMX6_Platform_SDK/output/mx6sdl/lib/libsdk.a(enet_drv.o)
                                                  /home/leon/git/swp-report/iMX6_Platform_SDK/output/mx6sdl/lib/libsdk.a(smd_sensor.o)
                                                  /home/leon/git/swp-report/iMX6_Platform_SDK/output/mx6sdl/lib/libsdk.a(board_id.o)
                                                  /home/leon/git/swp-report/iMX6_Platform_SDK/output/mx6sdl/lib/libsdk.a(wm8962.o)
                                                  /home/leon/git/swp-report/iMX6_Platform_SDK/output/mx6sdl/lib/libsdk.a(wm8958_dac.o)
                                                  /home/leon/git/swp-report/iMX6_Platform_SDK/output/mx6sdl/lib/libsdk.a(sgtl5000.o)
                                                  /home/leon/git/swp-report/iMX6_Platform_SDK/output/mx6sdl/lib/libsdk.a(imx_spdif.o)
                                                  /home/leon/git/swp-report/iMX6_Platform_SDK/output/mx6sdl/lib/libsdk.a(imx_esai.o)
                                                  /home/leon/git/swp-report/iMX6_Platform_SDK/output/mx6sdl/lib/libsdk.a(imx_audmux.o)
                                                  /home/leon/git/swp-report/iMX6_Platform_SDK/output/mx6sdl/lib/libsdk.a(imx-ssi.o)
                                                  /home/leon/git/swp-report/iMX6_Platform_SDK/output/mx6sdl/lib/libsdk.a(cs42888.o)
                                                  /home/leon/git/swp-report/iMX6_Platform_SDK/output/mx6sdl/lib/libsdk.a(text_color.o)
                                                  /home/leon/git/swp-report/iMX6_Platform_SDK/output/mx6sdl/lib/libsdk.a(system_util.o)
                                                  /home/leon/git/swp-report/iMX6_Platform_SDK/output/mx6sdl/lib/libsdk.a(menu.o)
                                                  /home/leon/git/swp-report/iMX6_Platform_SDK/output/mx6sdl/lib/libsdk.a(interrupt.o)
                                                  /home/leon/git/swp-report/iMX6_Platform_SDK/output/mx6sdl/obds/smart_device_rev_a/obj/sdk/drivers/usdhc/test/usdhc_test.o
                                                  /home/leon/git/swp-report/iMX6_Platform_SDK/output/mx6sdl/obds/smart_device_rev_a/obj/sdk/drivers/usb/test/usb0_host_testmodes_test.o
                                                  /home/leon/git/swp-report/iMX6_Platform_SDK/output/mx6sdl/obds/smart_device_rev_a/obj/sdk/drivers/usb/test/usb0_host_test.o
                                                  /home/leon/git/swp-report/iMX6_Platform_SDK/output/mx6sdl/obds/smart_device_rev_a/obj/sdk/drivers/uart/test/uart_test.o
                                                  /home/leon/git/swp-report/iMX6_Platform_SDK/output/mx6sdl/obds/smart_device_rev_a/obj/sdk/drivers/spi/test/spi_nor_numonyx.o
                                                  /home/leon/git/swp-report/iMX6_Platform_SDK/output/mx6sdl/obds/smart_device_rev_a/obj/sdk/drivers/spi/test/imx_spi_nor_atmel.o
                                                  /home/leon/git/swp-report/iMX6_Platform_SDK/output/mx6sdl/obds/smart_device_rev_a/obj/sdk/drivers/ipu/test/ips_display.o
                                                  /home/leon/git/swp-report/iMX6_Platform_SDK/output/mx6sdl/obds/smart_device_rev_a/obj/sdk/drivers/hdmi/test/init_dma_data.o
                                                  /home/leon/git/swp-report/iMX6_Platform_SDK/output/mx6sdl/obds/smart_device_rev_a/obj/sdk/drivers/hdmi/test/hdmi_test.o
                                                  /home/leon/git/swp-report/iMX6_Platform_SDK/output/mx6sdl/obds/smart_device_rev_a/obj/sdk/drivers/epdc/test/epdc_test.o
                                                  /home/leon/git/swp-report/iMX6_Platform_SDK/output/mx6sdl/obds/smart_device_rev_a/obj/sdk/drivers/camera/test/sensor_capture.o
                                                  /home/leon/git/swp-report/iMX6_Platform_SDK/output/mx6sdl/obds/smart_device_rev_a/obj/sdk/drivers/camera/test/csi_test_mode.o
                                                  /home/leon/git/swp-report/iMX6_Platform_SDK/output/mx6sdl/obds/smart_device_rev_a/obj/sdk/drivers/camera/test/camera_test.o
                                                  /home/leon/git/swp-report/iMX6_Platform_SDK/output/mx6sdl/obds/smart_device_rev_a/obj/sdk/drivers/audio/src/snd_card.o
                                                  /home/leon/git/swp-report/iMX6_Platform_SDK/output/mx6sdl/obds/smart_device_rev_a/obj/sdk/common/pmic/pfuse/pf0100.o
                                                  /home/leon/git/swp-report/iMX6_Platform_SDK/output/mx6sdl/obds/smart_device_rev_a/obj/apps/obds/src/tests/weim_nor_flash_test.o
                                                  /home/leon/git/swp-report/iMX6_Platform_SDK/output/mx6sdl/obds/smart_device_rev_a/obj/apps/obds/src/tests/video_dec_adv7180.o
                                                  /home/leon/git/swp-report/iMX6_Platform_SDK/output/mx6sdl/obds/smart_device_rev_a/obj/apps/obds/src/tests/video_dec_ARD_MBrst_from_cpu_expander.o
                                                  /home/leon/git/swp-report/iMX6_Platform_SDK/output/mx6sdl/obds/smart_device_rev_a/obj/apps/obds/src/tests/video_dec_ARD_MB_reset_button.o
                                                  /home/leon/git/swp-report/iMX6_Platform_SDK/output/mx6sdl/obds/smart_device_rev_a/obj/apps/obds/src/tests/usb_tests_obds.o
                                                  /home/leon/git/swp-report/iMX6_Platform_SDK/output/mx6sdl/obds/smart_device_rev_a/obj/apps/obds/src/tests/touch_screen_max11801.o
                                                  /home/leon/git/swp-report/iMX6_Platform_SDK/output/mx6sdl/obds/smart_device_rev_a/obj/apps/obds/src/tests/touch_screen.o
                                                  /home/leon/git/swp-report/iMX6_Platform_SDK/output/mx6sdl/obds/smart_device_rev_a/obj/apps/obds/src/tests/touch_button_test.o
                                                  /home/leon/git/swp-report/iMX6_Platform_SDK/output/mx6sdl/obds/smart_device_rev_a/obj/apps/obds/src/tests/snvs_srtc_test.o
                                                  /home/leon/git/swp-report/iMX6_Platform_SDK/output/mx6sdl/obds/smart_device_rev_a/obj/apps/obds/src/tests/program_mac_address.o
                                                  /home/leon/git/swp-report/iMX6_Platform_SDK/output/mx6sdl/obds/smart_device_rev_a/obj/apps/obds/src/tests/program_board_id.o
                                                  /home/leon/git/swp-report/iMX6_Platform_SDK/output/mx6sdl/obds/smart_device_rev_a/obj/apps/obds/src/tests/pmic_mc13892.o
                                                  /home/leon/git/swp-report/iMX6_Platform_SDK/output/mx6sdl/obds/smart_device_rev_a/obj/apps/obds/src/tests/pmic_max17135.o
                                                  /home/leon/git/swp-report/iMX6_Platform_SDK/output/mx6sdl/obds/smart_device_rev_a/obj/apps/obds/src/tests/pmic_lt3589.o
                                                  /home/leon/git/swp-report/iMX6_Platform_SDK/output/mx6sdl/obds/smart_device_rev_a/obj/apps/obds/src/tests/pmic_da9053.o
                                                  /home/leon/git/swp-report/iMX6_Platform_SDK/output/mx6sdl/obds/smart_device_rev_a/obj/apps/obds/src/tests/mmcsd_test.o
                                                  /home/leon/git/swp-report/iMX6_Platform_SDK/output/mx6sdl/obds/smart_device_rev_a/obj/apps/obds/src/tests/mlb_os81050.o
                                                  /home/leon/git/swp-report/iMX6_Platform_SDK/output/mx6sdl/obds/smart_device_rev_a/obj/apps/obds/src/tests/imx_spi_nor_test.o
                                                  /home/leon/git/swp-report/iMX6_Platform_SDK/output/mx6sdl/obds/smart_device_rev_a/obj/apps/obds/src/tests/i2c_eeprom_at24cxx_test.o
                                                  /home/leon/git/swp-report/iMX6_Platform_SDK/output/mx6sdl/obds/smart_device_rev_a/obj/apps/obds/src/tests/i2c_device_zigbee_mc1323.o
                                                  /home/leon/git/swp-report/iMX6_Platform_SDK/output/mx6sdl/obds/smart_device_rev_a/obj/apps/obds/src/tests/i2c_device_temp_sensor_emc1046.o
                                                  /home/leon/git/swp-report/iMX6_Platform_SDK/output/mx6sdl/obds/smart_device_rev_a/obj/apps/obds/src/tests/i2c_device_id_check_p1003_tsc.o
                                                  /home/leon/git/swp-report/iMX6_Platform_SDK/output/mx6sdl/obds/smart_device_rev_a/obj/apps/obds/src/tests/i2c_device_id_check_mma8451.o
                                                  /home/leon/git/swp-report/iMX6_Platform_SDK/output/mx6sdl/obds/smart_device_rev_a/obj/apps/obds/src/tests/i2c_device_id_check_mma8450.o
                                                  /home/leon/git/swp-report/iMX6_Platform_SDK/output/mx6sdl/obds/smart_device_rev_a/obj/apps/obds/src/tests/i2c_device_digital_compass_mag3112.o
                                                  /home/leon/git/swp-report/iMX6_Platform_SDK/output/mx6sdl/obds/smart_device_rev_a/obj/apps/obds/src/tests/i2c_device_digital_compass_mag3110.o
                                                  /home/leon/git/swp-report/iMX6_Platform_SDK/output/mx6sdl/obds/smart_device_rev_a/obj/apps/obds/src/tests/i2c_device_barometer_ppl3115.o
                                                  /home/leon/git/swp-report/iMX6_Platform_SDK/output/mx6sdl/obds/smart_device_rev_a/obj/apps/obds/src/tests/i2c_check_light_sensor_isl29023.o
                                                  /home/leon/git/swp-report/iMX6_Platform_SDK/output/mx6sdl/obds/smart_device_rev_a/obj/apps/obds/src/tests/gps_test.o
                                                  /home/leon/git/swp-report/iMX6_Platform_SDK/output/mx6sdl/obds/smart_device_rev_a/obj/apps/obds/src/tests/gpio_led.o
                                                  /home/leon/git/swp-report/iMX6_Platform_SDK/output/mx6sdl/obds/smart_device_rev_a/obj/apps/obds/src/tests/fm_tuner_si476x_test.o
                                                  /home/leon/git/swp-report/iMX6_Platform_SDK/output/mx6sdl/obds/smart_device_rev_a/obj/apps/obds/src/tests/flexcan_test.o
                                                  /home/leon/git/swp-report/iMX6_Platform_SDK/output/mx6sdl/obds/smart_device_rev_a/obj/apps/obds/src/tests/enet_mx6dldq_test.o
                                                  /home/leon/git/swp-report/iMX6_Platform_SDK/output/mx6sdl/obds/smart_device_rev_a/obj/apps/obds/src/tests/display_test.o
                                                  /home/leon/git/swp-report/iMX6_Platform_SDK/output/mx6sdl/obds/smart_device_rev_a/obj/apps/obds/src/tests/deserializer_ds90ur124.o
                                                  /home/leon/git/swp-report/iMX6_Platform_SDK/output/mx6sdl/obds/smart_device_rev_a/obj/apps/obds/src/tests/audio_ssi_test.o
                                                  /home/leon/git/swp-report/iMX6_Platform_SDK/output/mx6sdl/obds/smart_device_rev_a/obj/apps/obds/src/tests/audio_esai_test.o
                                                  /home/leon/git/swp-report/iMX6_Platform_SDK/output/mx6sdl/obds/smart_device_rev_a/obj/apps/obds/src/tests/android_buttons_test.o
                                                  /home/leon/git/swp-report/iMX6_Platform_SDK/output/mx6sdl/obds/smart_device_rev_a/obj/apps/obds/src/obds_utils.o
                                                  /home/leon/git/swp-report/iMX6_Platform_SDK/output/mx6sdl/obds/smart_device_rev_a/obj/apps/obds/src/obds.o
                                                  /home/leon/git/swp-report/iMX6_Platform_SDK/output/mx6sdl/obds/smart_device_rev_a/obj/apps/common/print_version.o
                                                  /home/leon/git/swp-report/iMX6_Platform_SDK/output/mx6sdl/obds/smart_device_rev_a/obj/apps/common/print_clock_info.o
printf_color                                      /home/leon/git/swp-report/iMX6_Platform_SDK/output/mx6sdl/lib/libsdk.a(text_color.o)
                                                  /home/leon/git/swp-report/iMX6_Platform_SDK/output/mx6sdl/lib/libsdk.a(system_util.o)
                                                  /home/leon/git/swp-report/iMX6_Platform_SDK/output/mx6sdl/lib/libsdk.a(menu.o)
                                                  /home/leon/git/swp-report/iMX6_Platform_SDK/output/mx6sdl/obds/smart_device_rev_a/obj/apps/obds/src/tests/program_mac_address.o
                                                  /home/leon/git/swp-report/iMX6_Platform_SDK/output/mx6sdl/obds/smart_device_rev_a/obj/apps/obds/src/tests/program_board_id.o
                                                  /home/leon/git/swp-report/iMX6_Platform_SDK/output/mx6sdl/obds/smart_device_rev_a/obj/apps/obds/src/obds.o
printf_hook                                       /home/leon/git/swp-report/iMX6_Platform_SDK/output/mx6sdl/obds/smart_device_rev_a/obj/apps/obds/src/obds.o
program_board_id                                  /home/leon/git/swp-report/iMX6_Platform_SDK/output/mx6sdl/obds/smart_device_rev_a/obj/apps/obds/src/tests/program_board_id.o
                                                  /home/leon/git/swp-report/iMX6_Platform_SDK/output/mx6sdl/obds/smart_device_rev_a/obj/apps/obds/src/obds.o
program_board_id_fuses                            /home/leon/git/swp-report/iMX6_Platform_SDK/output/mx6sdl/obds/smart_device_rev_a/obj/apps/obds/src/tests/program_board_id.o
program_mac_address                               /home/leon/git/swp-report/iMX6_Platform_SDK/output/mx6sdl/obds/smart_device_rev_a/obj/apps/obds/src/tests/program_mac_address.o
                                                  /home/leon/git/swp-report/iMX6_Platform_SDK/output/mx6sdl/obds/smart_device_rev_a/obj/apps/obds/src/obds.o
program_mac_address_fuses                         /home/leon/git/swp-report/iMX6_Platform_SDK/output/mx6sdl/obds/smart_device_rev_a/obj/apps/obds/src/tests/program_mac_address.o
prompt_run_test                                   /home/leon/git/swp-report/iMX6_Platform_SDK/output/mx6sdl/obds/smart_device_rev_a/obj/apps/obds/src/obds.o
                                                  /home/leon/git/swp-report/iMX6_Platform_SDK/output/mx6sdl/obds/smart_device_rev_a/obj/apps/obds/src/tests/touch_screen.o
                                                  /home/leon/git/swp-report/iMX6_Platform_SDK/output/mx6sdl/obds/smart_device_rev_a/obj/apps/obds/src/tests/pmic_mc13892.o
                                                  /home/leon/git/swp-report/iMX6_Platform_SDK/output/mx6sdl/obds/smart_device_rev_a/obj/apps/obds/src/tests/pmic_lt3589.o
                                                  /home/leon/git/swp-report/iMX6_Platform_SDK/output/mx6sdl/obds/smart_device_rev_a/obj/apps/obds/src/tests/pmic_da9053.o
                                                  /home/leon/git/swp-report/iMX6_Platform_SDK/output/mx6sdl/obds/smart_device_rev_a/obj/apps/obds/src/tests/i2c_device_zigbee_mc1323.o
putc                                              /home/leon/riotboard/arm-2012.09/bin/../arm-none-eabi/lib//libc.a(lib_a-putc.o)
pwm1_iomux_config                                 /home/leon/git/swp-report/iMX6_Platform_SDK/output/mx6sdl/lib/libboard_smart_device_rev_a.a(pwm1_iomux_config.o)
                                                  /home/leon/git/swp-report/iMX6_Platform_SDK/output/mx6sdl/lib/libboard_smart_device_rev_a.a(iomux_config.o)
pwm2_iomux_config                                 /home/leon/git/swp-report/iMX6_Platform_SDK/output/mx6sdl/lib/libboard_smart_device_rev_a.a(iomux_config.o)
pwm3_iomux_config                                 /home/leon/git/swp-report/iMX6_Platform_SDK/output/mx6sdl/lib/libboard_smart_device_rev_a.a(iomux_config.o)
pwm4_iomux_config                                 /home/leon/git/swp-report/iMX6_Platform_SDK/output/mx6sdl/lib/libboard_smart_device_rev_a.a(iomux_config.o)
raise                                             /home/leon/riotboard/arm-2012.09/bin/../arm-none-eabi/lib//libc.a(lib_a-signal.o)
                                                  /home/leon/riotboard/arm-2012.09/bin/../arm-none-eabi/lib//libc.a(lib_a-abort.o)
read_input_string                                 /home/leon/git/swp-report/iMX6_Platform_SDK/output/mx6sdl/lib/libsdk.a(system_util.o)
read_int                                          /home/leon/git/swp-report/iMX6_Platform_SDK/output/mx6sdl/lib/libsdk.a(system_util.o)
read_mac_otp_registers                            /home/leon/git/swp-report/iMX6_Platform_SDK/output/mx6sdl/obds/smart_device_rev_a/obj/apps/obds/src/tests/program_mac_address.o
read_usdhc_adma_mode                              /home/leon/git/swp-report/iMX6_Platform_SDK/output/mx6sdl/lib/libsdk.a(usdhc.o)
                                                  /home/leon/git/swp-report/iMX6_Platform_SDK/output/mx6sdl/lib/libsdk.a(usdhc_host.o)
read_usdhc_intr_mode                              /home/leon/git/swp-report/iMX6_Platform_SDK/output/mx6sdl/lib/libsdk.a(usdhc.o)
                                                  /home/leon/git/swp-report/iMX6_Platform_SDK/output/mx6sdl/lib/libsdk.a(usdhc_host.o)
                                                  /home/leon/git/swp-report/iMX6_Platform_SDK/output/mx6sdl/obds/smart_device_rev_a/obj/sdk/drivers/usdhc/test/usdhc_test.o
realloc                                           /home/leon/riotboard/arm-2012.09/bin/../arm-none-eabi/lib//libc.a(lib_a-realloc.o)
                                                  /home/leon/git/swp-report/iMX6_Platform_SDK/output/mx6sdl/lib/libsdk.a(system_util.o)
register_interrupt_routine                        /home/leon/git/swp-report/iMX6_Platform_SDK/output/mx6sdl/lib/libsdk.a(interrupt.o)
                                                  /home/leon/git/swp-report/iMX6_Platform_SDK/output/mx6sdl/lib/libsdk.a(epit.o)
                                                  /home/leon/git/swp-report/iMX6_Platform_SDK/output/mx6sdl/lib/libsdk.a(usdhc.o)
                                                  /home/leon/git/swp-report/iMX6_Platform_SDK/output/mx6sdl/lib/libsdk.a(imx_uart.o)
                                                  /home/leon/git/swp-report/iMX6_Platform_SDK/output/mx6sdl/lib/libsdk.a(ipu_common.o)
                                                  /home/leon/git/swp-report/iMX6_Platform_SDK/output/mx6sdl/lib/libsdk.a(imx_i2c.o)
                                                  /home/leon/git/swp-report/iMX6_Platform_SDK/output/mx6sdl/obds/smart_device_rev_a/obj/sdk/drivers/hdmi/test/hdmi_test.o
report_test_results                               /home/leon/git/swp-report/iMX6_Platform_SDK/output/mx6sdl/obds/smart_device_rev_a/obj/apps/obds/src/obds.o
reset_usb_hub                                     /home/leon/git/swp-report/iMX6_Platform_SDK/output/mx6sdl/lib/libboard_smart_device_rev_a.a(board_usb.o)
run_all_tests                                     /home/leon/git/swp-report/iMX6_Platform_SDK/output/mx6sdl/obds/smart_device_rev_a/obj/apps/obds/src/obds.o
run_test                                          /home/leon/git/swp-report/iMX6_Platform_SDK/output/mx6sdl/obds/smart_device_rev_a/obj/apps/obds/src/obds.o
scu_disable_maintenance_broadcast                 /home/leon/git/swp-report/iMX6_Platform_SDK/output/mx6sdl/lib/libsdk.a(cortexA9.o)
scu_enable                                        /home/leon/git/swp-report/iMX6_Platform_SDK/output/mx6sdl/lib/libsdk.a(cortexA9.o)
scu_enable_maintenance_broadcast                  /home/leon/git/swp-report/iMX6_Platform_SDK/output/mx6sdl/lib/libsdk.a(cortexA9.o)
scu_get_cpus_in_smp                               /home/leon/git/swp-report/iMX6_Platform_SDK/output/mx6sdl/lib/libsdk.a(cortexA9.o)
scu_join_smp                                      /home/leon/git/swp-report/iMX6_Platform_SDK/output/mx6sdl/lib/libsdk.a(cortexA9.o)
scu_leave_smp                                     /home/leon/git/swp-report/iMX6_Platform_SDK/output/mx6sdl/lib/libsdk.a(cortexA9.o)
scu_secure_invalidate                             /home/leon/git/swp-report/iMX6_Platform_SDK/output/mx6sdl/lib/libsdk.a(cortexA9.o)
sd_if_cmd_arg                                     /home/leon/git/swp-report/iMX6_Platform_SDK/output/mx6sdl/lib/libsdk.a(usdhc_sd.o)
sd_init                                           /home/leon/git/swp-report/iMX6_Platform_SDK/output/mx6sdl/lib/libsdk.a(usdhc_sd.o)
                                                  /home/leon/git/swp-report/iMX6_Platform_SDK/output/mx6sdl/lib/libsdk.a(usdhc.o)
sd_ocr_value                                      /home/leon/git/swp-report/iMX6_Platform_SDK/output/mx6sdl/lib/libsdk.a(usdhc_sd.o)
sd_voltage_validation                             /home/leon/git/swp-report/iMX6_Platform_SDK/output/mx6sdl/lib/libsdk.a(usdhc_sd.o)
                                                  /home/leon/git/swp-report/iMX6_Platform_SDK/output/mx6sdl/lib/libsdk.a(usdhc.o)
sdma_iomux_config                                 /home/leon/git/swp-report/iMX6_Platform_SDK/output/mx6sdl/lib/libboard_smart_device_rev_a.a(iomux_config.o)
search_panel                                      /home/leon/git/swp-report/iMX6_Platform_SDK/output/mx6sdl/lib/libsdk.a(ips_disp_panel.o)
                                                  /home/leon/git/swp-report/iMX6_Platform_SDK/output/mx6sdl/obds/smart_device_rev_a/obj/sdk/drivers/ipu/test/ips_display.o
                                                  /home/leon/git/swp-report/iMX6_Platform_SDK/output/mx6sdl/obds/smart_device_rev_a/obj/sdk/drivers/camera/test/sensor_capture.o
                                                  /home/leon/git/swp-report/iMX6_Platform_SDK/output/mx6sdl/obds/smart_device_rev_a/obj/sdk/drivers/camera/test/csi_test_mode.o
                                                  /home/leon/git/swp-report/iMX6_Platform_SDK/output/mx6sdl/obds/smart_device_rev_a/obj/apps/obds/src/tests/display_test.o
select_tests                                      /home/leon/git/swp-report/iMX6_Platform_SDK/output/mx6sdl/obds/smart_device_rev_a/obj/apps/obds/src/obds.o
sensor_af_trigger                                 /home/leon/git/swp-report/iMX6_Platform_SDK/output/mx6sdl/lib/libsdk.a(smd_sensor.o)
                                                  /home/leon/git/swp-report/iMX6_Platform_SDK/output/mx6sdl/obds/smart_device_rev_a/obj/sdk/drivers/camera/test/sensor_capture.o
sensor_autofocus_init                             /home/leon/git/swp-report/iMX6_Platform_SDK/output/mx6sdl/lib/libsdk.a(smd_sensor.o)
                                                  /home/leon/git/swp-report/iMX6_Platform_SDK/output/mx6sdl/obds/smart_device_rev_a/obj/sdk/drivers/camera/test/sensor_capture.o
sensor_capture                                    /home/leon/git/swp-report/iMX6_Platform_SDK/output/mx6sdl/obds/smart_device_rev_a/obj/sdk/drivers/camera/test/sensor_capture.o
                                                  /home/leon/git/swp-report/iMX6_Platform_SDK/output/mx6sdl/obds/smart_device_rev_a/obj/sdk/drivers/camera/test/camera_test.o
sensor_clock_setting                              /home/leon/git/swp-report/iMX6_Platform_SDK/output/mx6sdl/lib/libboard_smart_device_rev_a.a(board_camera.o)
                                                  /home/leon/git/swp-report/iMX6_Platform_SDK/output/mx6sdl/lib/libsdk.a(smd_sensor.o)
sensor_config                                     /home/leon/git/swp-report/iMX6_Platform_SDK/output/mx6sdl/lib/libsdk.a(smd_sensor.o)
                                                  /home/leon/git/swp-report/iMX6_Platform_SDK/output/mx6sdl/obds/smart_device_rev_a/obj/sdk/drivers/camera/test/sensor_capture.o
sensor_init                                       /home/leon/git/swp-report/iMX6_Platform_SDK/output/mx6sdl/lib/libsdk.a(smd_sensor.o)
sensor_reset                                      /home/leon/git/swp-report/iMX6_Platform_SDK/output/mx6sdl/lib/libboard_smart_device_rev_a.a(board_camera.o)
                                                  /home/leon/git/swp-report/iMX6_Platform_SDK/output/mx6sdl/lib/libsdk.a(smd_sensor.o)
sensor_search                                     /home/leon/git/swp-report/iMX6_Platform_SDK/output/mx6sdl/lib/libsdk.a(smd_sensor.o)
                                                  /home/leon/git/swp-report/iMX6_Platform_SDK/output/mx6sdl/obds/smart_device_rev_a/obj/sdk/drivers/camera/test/sensor_capture.o
sensor_standby                                    /home/leon/git/swp-report/iMX6_Platform_SDK/output/mx6sdl/lib/libboard_smart_device_rev_a.a(board_camera.o)
                                                  /home/leon/git/swp-report/iMX6_Platform_SDK/output/mx6sdl/obds/smart_device_rev_a/obj/sdk/drivers/camera/test/sensor_capture.o
set_background_margin                             /home/leon/git/swp-report/iMX6_Platform_SDK/output/mx6sdl/obds/smart_device_rev_a/obj/sdk/drivers/ipu/test/ipu_image.o
set_card_access_mode                              /home/leon/git/swp-report/iMX6_Platform_SDK/output/mx6sdl/lib/libsdk.a(usdhc.o)
                                                  /home/leon/git/swp-report/iMX6_Platform_SDK/output/mx6sdl/obds/smart_device_rev_a/obj/sdk/drivers/usdhc/test/usdhc_test.o
setlocale                                         /home/leon/riotboard/arm-2012.09/bin/../arm-none-eabi/lib//libc.a(lib_a-locale.o)
sgtl5000                                          /home/leon/git/swp-report/iMX6_Platform_SDK/output/mx6sdl/lib/libsdk.a(sgtl5000.o)
                                                  /home/leon/git/swp-report/iMX6_Platform_SDK/output/mx6sdl/obds/smart_device_rev_a/obj/sdk/drivers/audio/src/snd_card.o
sgtl5000_deinit                                   /home/leon/git/swp-report/iMX6_Platform_SDK/output/mx6sdl/lib/libsdk.a(sgtl5000.o)
sgtl5000_i2c_req                                  /home/leon/git/swp-report/iMX6_Platform_SDK/output/mx6sdl/lib/libsdk.a(sgtl5000.o)
sgtl5000_i2s_config                               /home/leon/git/swp-report/iMX6_Platform_SDK/output/mx6sdl/lib/libsdk.a(sgtl5000.o)
sgtl5000_init                                     /home/leon/git/swp-report/iMX6_Platform_SDK/output/mx6sdl/lib/libsdk.a(sgtl5000.o)
sgtl5000_ops                                      /home/leon/git/swp-report/iMX6_Platform_SDK/output/mx6sdl/lib/libsdk.a(sgtl5000.o)
show_board_id                                     /home/leon/git/swp-report/iMX6_Platform_SDK/output/mx6sdl/lib/libsdk.a(board_id.o)
                                                  /home/leon/git/swp-report/iMX6_Platform_SDK/output/mx6sdl/obds/smart_device_rev_a/obj/apps/obds/src/tests/program_board_id.o
show_boot_switch_info                             /home/leon/git/swp-report/iMX6_Platform_SDK/output/mx6sdl/obds/smart_device_rev_a/obj/apps/obds/src/obds_utils.o
                                                  /home/leon/git/swp-report/iMX6_Platform_SDK/output/mx6sdl/obds/smart_device_rev_a/obj/apps/obds/src/obds.o
show_ddr_config                                   /home/leon/git/swp-report/iMX6_Platform_SDK/output/mx6sdl/obds/smart_device_rev_a/obj/apps/common/print_clock_info.o
                                                  /home/leon/git/swp-report/iMX6_Platform_SDK/output/mx6sdl/obds/smart_device_rev_a/obj/apps/obds/src/obds.o
show_freq                                         /home/leon/git/swp-report/iMX6_Platform_SDK/output/mx6sdl/obds/smart_device_rev_a/obj/apps/common/print_clock_info.o
                                                  /home/leon/git/swp-report/iMX6_Platform_SDK/output/mx6sdl/obds/smart_device_rev_a/obj/apps/obds/src/obds.o
si476x_i2c_req                                    /home/leon/git/swp-report/iMX6_Platform_SDK/output/mx6sdl/obds/smart_device_rev_a/obj/apps/obds/src/tests/fm_tuner_si476x_test.o
si476x_test_enable                                /home/leon/git/swp-report/iMX6_Platform_SDK/output/mx6sdl/obds/smart_device_rev_a/obj/apps/obds/src/tests/fm_tuner_si476x_test.o
si476x_test_main                                  /home/leon/git/swp-report/iMX6_Platform_SDK/output/mx6sdl/obds/smart_device_rev_a/obj/apps/obds/src/tests/fm_tuner_si476x_test.o
signal                                            /home/leon/riotboard/arm-2012.09/bin/../arm-none-eabi/lib//libc.a(lib_a-signal.o)
sil9024_hdmi_power_on1                            /home/leon/git/swp-report/iMX6_Platform_SDK/output/mx6sdl/obds/smart_device_rev_a/obj/apps/obds/src/tests/pmic_lt3589.o
sjc_iomux_config                                  /home/leon/git/swp-report/iMX6_Platform_SDK/output/mx6sdl/lib/libboard_smart_device_rev_a.a(sjc_iomux_config.o)
                                                  /home/leon/git/swp-report/iMX6_Platform_SDK/output/mx6sdl/lib/libboard_smart_device_rev_a.a(iomux_config.o)
snd_card                                          /home/leon/git/swp-report/iMX6_Platform_SDK/output/mx6sdl/obds/smart_device_rev_a/obj/apps/obds/src/tests/audio_ssi_test.o
                                                  /home/leon/git/swp-report/iMX6_Platform_SDK/output/mx6sdl/obds/smart_device_rev_a/obj/apps/obds/src/tests/i2c_device_check_cs42888.o
                                                  /home/leon/git/swp-report/iMX6_Platform_SDK/output/mx6sdl/obds/smart_device_rev_a/obj/apps/obds/src/tests/audio_esai_test.o
snd_card_esai                                     /home/leon/git/swp-report/iMX6_Platform_SDK/output/mx6sdl/obds/smart_device_rev_a/obj/sdk/drivers/audio/src/snd_card.o
                                                  /home/leon/git/swp-report/iMX6_Platform_SDK/output/mx6sdl/obds/smart_device_rev_a/obj/apps/obds/src/tests/i2c_device_check_cs42888.o
                                                  /home/leon/git/swp-report/iMX6_Platform_SDK/output/mx6sdl/obds/smart_device_rev_a/obj/apps/obds/src/tests/audio_esai_test.o
snd_card_spdif                                    /home/leon/git/swp-report/iMX6_Platform_SDK/output/mx6sdl/obds/smart_device_rev_a/obj/sdk/drivers/audio/src/snd_card.o
snd_card_ssi_sgtl5000                             /home/leon/git/swp-report/iMX6_Platform_SDK/output/mx6sdl/obds/smart_device_rev_a/obj/sdk/drivers/audio/src/snd_card.o
snd_card_ssi_wm8958                               /home/leon/git/swp-report/iMX6_Platform_SDK/output/mx6sdl/obds/smart_device_rev_a/obj/sdk/drivers/audio/src/snd_card.o
                                                  /home/leon/git/swp-report/iMX6_Platform_SDK/output/mx6sdl/obds/smart_device_rev_a/obj/apps/obds/src/tests/audio_ssi_test.o
snd_card_ssi_wm8962                               /home/leon/git/swp-report/iMX6_Platform_SDK/output/mx6sdl/obds/smart_device_rev_a/obj/sdk/drivers/audio/src/snd_card.o
snvs_iomux_config                                 /home/leon/git/swp-report/iMX6_Platform_SDK/output/mx6sdl/lib/libboard_smart_device_rev_a.a(iomux_config.o)
snvs_srtc_test                                    /home/leon/git/swp-report/iMX6_Platform_SDK/output/mx6sdl/obds/smart_device_rev_a/obj/apps/obds/src/tests/snvs_srtc_test.o
                                                  /home/leon/git/swp-report/iMX6_Platform_SDK/output/mx6sdl/obds/smart_device_rev_a/obj/apps/obds/src/obds.o
soc_sbmr1                                         /home/leon/git/swp-report/iMX6_Platform_SDK/output/mx6sdl/obds/smart_device_rev_a/obj/apps/obds/src/obds_utils.o
soc_sbmr2                                         /home/leon/git/swp-report/iMX6_Platform_SDK/output/mx6sdl/obds/smart_device_rev_a/obj/apps/obds/src/obds_utils.o
spdif_clk_cfg                                     /home/leon/git/swp-report/iMX6_Platform_SDK/output/mx6sdl/lib/libboard_smart_device_rev_a.a(board_audio.o)
                                                  /home/leon/git/swp-report/iMX6_Platform_SDK/output/mx6sdl/lib/libsdk.a(imx_spdif.o)
spdif_config                                      /home/leon/git/swp-report/iMX6_Platform_SDK/output/mx6sdl/lib/libsdk.a(imx_spdif.o)
spdif_deinit                                      /home/leon/git/swp-report/iMX6_Platform_SDK/output/mx6sdl/lib/libsdk.a(imx_spdif.o)
spdif_get_tx_clk_freq                             /home/leon/git/swp-report/iMX6_Platform_SDK/output/mx6sdl/lib/libboard_smart_device_rev_a.a(board_audio.o)
                                                  /home/leon/git/swp-report/iMX6_Platform_SDK/output/mx6sdl/lib/libsdk.a(imx_spdif.o)
spdif_init                                        /home/leon/git/swp-report/iMX6_Platform_SDK/output/mx6sdl/lib/libsdk.a(imx_spdif.o)
spdif_iomux_config                                /home/leon/git/swp-report/iMX6_Platform_SDK/output/mx6sdl/lib/libboard_smart_device_rev_a.a(iomux_config.o)
                                                  /home/leon/git/swp-report/iMX6_Platform_SDK/output/mx6sdl/lib/libsdk.a(imx_spdif.o)
spdif_write_fifo                                  /home/leon/git/swp-report/iMX6_Platform_SDK/output/mx6sdl/lib/libsdk.a(imx_spdif.o)
spi_nor_erase                                     /home/leon/git/swp-report/iMX6_Platform_SDK/output/mx6sdl/obds/smart_device_rev_a/obj/apps/obds/src/tests/imx_spi_nor_test.o
spi_nor_erase_atmel                               /home/leon/git/swp-report/iMX6_Platform_SDK/output/mx6sdl/obds/smart_device_rev_a/obj/sdk/drivers/spi/test/imx_spi_nor_atmel.o
                                                  /home/leon/git/swp-report/iMX6_Platform_SDK/output/mx6sdl/obds/smart_device_rev_a/obj/apps/obds/src/tests/imx_spi_nor_test.o
spi_nor_erase_numonyx                             /home/leon/git/swp-report/iMX6_Platform_SDK/output/mx6sdl/obds/smart_device_rev_a/obj/sdk/drivers/spi/test/spi_nor_numonyx.o
                                                  /home/leon/git/swp-report/iMX6_Platform_SDK/output/mx6sdl/obds/smart_device_rev_a/obj/apps/obds/src/tests/imx_spi_nor_test.o
spi_nor_flash_type                                /home/leon/git/swp-report/iMX6_Platform_SDK/output/mx6sdl/obds/smart_device_rev_a/obj/apps/obds/src/tests/imx_spi_nor_test.o
spi_nor_query                                     /home/leon/git/swp-report/iMX6_Platform_SDK/output/mx6sdl/obds/smart_device_rev_a/obj/apps/obds/src/tests/imx_spi_nor_test.o
spi_nor_query_atmel                               /home/leon/git/swp-report/iMX6_Platform_SDK/output/mx6sdl/obds/smart_device_rev_a/obj/sdk/drivers/spi/test/imx_spi_nor_atmel.o
                                                  /home/leon/git/swp-report/iMX6_Platform_SDK/output/mx6sdl/obds/smart_device_rev_a/obj/apps/obds/src/tests/imx_spi_nor_test.o
spi_nor_query_numonyx                             /home/leon/git/swp-report/iMX6_Platform_SDK/output/mx6sdl/obds/smart_device_rev_a/obj/sdk/drivers/spi/test/spi_nor_numonyx.o
                                                  /home/leon/git/swp-report/iMX6_Platform_SDK/output/mx6sdl/obds/smart_device_rev_a/obj/apps/obds/src/tests/imx_spi_nor_test.o
spi_nor_read                                      /home/leon/git/swp-report/iMX6_Platform_SDK/output/mx6sdl/obds/smart_device_rev_a/obj/apps/obds/src/tests/imx_spi_nor_test.o
spi_nor_read_atmel                                /home/leon/git/swp-report/iMX6_Platform_SDK/output/mx6sdl/obds/smart_device_rev_a/obj/sdk/drivers/spi/test/imx_spi_nor_atmel.o
                                                  /home/leon/git/swp-report/iMX6_Platform_SDK/output/mx6sdl/obds/smart_device_rev_a/obj/apps/obds/src/tests/imx_spi_nor_test.o
spi_nor_read_numonyx                              /home/leon/git/swp-report/iMX6_Platform_SDK/output/mx6sdl/obds/smart_device_rev_a/obj/sdk/drivers/spi/test/spi_nor_numonyx.o
                                                  /home/leon/git/swp-report/iMX6_Platform_SDK/output/mx6sdl/obds/smart_device_rev_a/obj/apps/obds/src/tests/imx_spi_nor_test.o
spi_nor_rx_buf                                    /home/leon/git/swp-report/iMX6_Platform_SDK/output/mx6sdl/obds/smart_device_rev_a/obj/apps/obds/src/tests/imx_spi_nor_test.o
spi_nor_test                                      /home/leon/git/swp-report/iMX6_Platform_SDK/output/mx6sdl/obds/smart_device_rev_a/obj/apps/obds/src/tests/imx_spi_nor_test.o
                                                  /home/leon/git/swp-report/iMX6_Platform_SDK/output/mx6sdl/obds/smart_device_rev_a/obj/apps/obds/src/obds.o
spi_nor_tx_buf                                    /home/leon/git/swp-report/iMX6_Platform_SDK/output/mx6sdl/obds/smart_device_rev_a/obj/apps/obds/src/tests/imx_spi_nor_test.o
spi_nor_write                                     /home/leon/git/swp-report/iMX6_Platform_SDK/output/mx6sdl/obds/smart_device_rev_a/obj/apps/obds/src/tests/imx_spi_nor_test.o
spi_nor_write_atmel                               /home/leon/git/swp-report/iMX6_Platform_SDK/output/mx6sdl/obds/smart_device_rev_a/obj/sdk/drivers/spi/test/imx_spi_nor_atmel.o
                                                  /home/leon/git/swp-report/iMX6_Platform_SDK/output/mx6sdl/obds/smart_device_rev_a/obj/apps/obds/src/tests/imx_spi_nor_test.o
spi_nor_write_numonyx                             /home/leon/git/swp-report/iMX6_Platform_SDK/output/mx6sdl/obds/smart_device_rev_a/obj/sdk/drivers/spi/test/spi_nor_numonyx.o
                                                  /home/leon/git/swp-report/iMX6_Platform_SDK/output/mx6sdl/obds/smart_device_rev_a/obj/apps/obds/src/tests/imx_spi_nor_test.o
sprintf                                           /home/leon/riotboard/arm-2012.09/bin/../arm-none-eabi/lib//libc.a(lib_a-sprintf.o)
                                                  /home/leon/git/swp-report/iMX6_Platform_SDK/output/mx6sdl/lib/libsdk.a(board_id.o)
                                                  /home/leon/git/swp-report/iMX6_Platform_SDK/output/mx6sdl/obds/smart_device_rev_a/obj/apps/obds/src/tests/program_mac_address.o
                                                  /home/leon/git/swp-report/iMX6_Platform_SDK/output/mx6sdl/obds/smart_device_rev_a/obj/apps/obds/src/obds.o
src_iomux_config                                  /home/leon/git/swp-report/iMX6_Platform_SDK/output/mx6sdl/lib/libboard_smart_device_rev_a.a(iomux_config.o)
ssi_config                                        /home/leon/git/swp-report/iMX6_Platform_SDK/output/mx6sdl/lib/libsdk.a(imx-ssi.o)
ssi_deinit                                        /home/leon/git/swp-report/iMX6_Platform_SDK/output/mx6sdl/lib/libsdk.a(imx-ssi.o)
ssi_init                                          /home/leon/git/swp-report/iMX6_Platform_SDK/output/mx6sdl/lib/libsdk.a(imx-ssi.o)
ssi_read_fifo                                     /home/leon/git/swp-report/iMX6_Platform_SDK/output/mx6sdl/lib/libsdk.a(imx-ssi.o)
ssi_write_fifo                                    /home/leon/git/swp-report/iMX6_Platform_SDK/output/mx6sdl/lib/libsdk.a(imx-ssi.o)
strcat                                            /home/leon/riotboard/arm-2012.09/bin/../arm-none-eabi/lib//libc.a(lib_a-strcat.o)
                                                  /home/leon/git/swp-report/iMX6_Platform_SDK/output/mx6sdl/obds/smart_device_rev_a/obj/apps/obds/src/obds.o
strcmp                                            /home/leon/riotboard/arm-2012.09/bin/../arm-none-eabi/lib//libc.a(lib_a-strcmp.o)
                                                  /home/leon/riotboard/arm-2012.09/bin/../arm-none-eabi/lib//libc.a(lib_a-locale.o)
                                                  /home/leon/git/swp-report/iMX6_Platform_SDK/output/mx6sdl/lib/libboard_smart_device_rev_a.a(board_display.o)
                                                  /home/leon/git/swp-report/iMX6_Platform_SDK/output/mx6sdl/lib/libsdk.a(ipu_ic.o)
                                                  /home/leon/git/swp-report/iMX6_Platform_SDK/output/mx6sdl/lib/libsdk.a(ips_disp_panel.o)
                                                  /home/leon/git/swp-report/iMX6_Platform_SDK/output/mx6sdl/obds/smart_device_rev_a/obj/apps/obds/src/obds.o
strcpy                                            /home/leon/riotboard/arm-2012.09/bin/../arm-none-eabi/lib//libc.a(lib_a-strcpy.o)
                                                  /home/leon/riotboard/arm-2012.09/bin/../arm-none-eabi/lib//libc.a(lib_a-strcat.o)
                                                  /home/leon/git/swp-report/iMX6_Platform_SDK/output/mx6sdl/obds/smart_device_rev_a/obj/apps/obds/src/obds.o
strlen                                            /home/leon/riotboard/arm-2012.09/bin/../arm-none-eabi/lib//libc.a(lib_a-strlen.o)
                                                  /home/leon/git/swp-report/iMX6_Platform_SDK/output/mx6sdl/lib/libsdk.a(runtime_support.o)
                                                  /home/leon/riotboard/arm-2012.09/bin/../arm-none-eabi/lib//libc.a(lib_a-svfiprintf.o)
                                                  /home/leon/riotboard/arm-2012.09/bin/../arm-none-eabi/lib//libc.a(lib_a-vfprintf.o)
                                                  /home/leon/riotboard/arm-2012.09/bin/../arm-none-eabi/lib//libc.a(lib_a-vfiprintf.o)
                                                  /home/leon/riotboard/arm-2012.09/bin/../arm-none-eabi/lib//libc.a(lib_a-svfprintf.o)
                                                  /home/leon/git/swp-report/iMX6_Platform_SDK/output/mx6sdl/lib/libsdk.a(menu.o)
strncasecmp                                       /home/leon/riotboard/arm-2012.09/bin/../arm-none-eabi/lib//libc.a(lib_a-strncasecmp.o)
                                                  /home/leon/git/swp-report/iMX6_Platform_SDK/output/mx6sdl/lib/libsdk.a(menu.o)
strtok                                            /home/leon/riotboard/arm-2012.09/bin/../arm-none-eabi/lib//libc.a(lib_a-strtok.o)
                                                  /home/leon/git/swp-report/iMX6_Platform_SDK/output/mx6sdl/obds/smart_device_rev_a/obj/apps/obds/src/obds.o
strtok_r                                          /home/leon/riotboard/arm-2012.09/bin/../arm-none-eabi/lib//libc.a(lib_a-strtok_r.o)
swap32                                            /home/leon/git/swp-report/iMX6_Platform_SDK/output/mx6sdl/lib/libsdk.a(usb_common.o)
system_time_init                                  /home/leon/git/swp-report/iMX6_Platform_SDK/output/mx6sdl/lib/libsdk.a(timer.o)
                                                  /home/leon/git/swp-report/iMX6_Platform_SDK/output/mx6sdl/obds/smart_device_rev_a/obj/apps/common/platform_init.o
tftlcd_backlight_en                               /home/leon/git/swp-report/iMX6_Platform_SDK/output/mx6sdl/lib/libboard_smart_device_rev_a.a(board_display.o)
                                                  /home/leon/git/swp-report/iMX6_Platform_SDK/output/mx6sdl/lib/libsdk.a(ips_disp_panel.o)
tftlcd_reset                                      /home/leon/git/swp-report/iMX6_Platform_SDK/output/mx6sdl/lib/libboard_smart_device_rev_a.a(board_display.o)
                                                  /home/leon/git/swp-report/iMX6_Platform_SDK/output/mx6sdl/lib/libsdk.a(ips_disp_panel.o)
time_get_microseconds                             /home/leon/git/swp-report/iMX6_Platform_SDK/output/mx6sdl/lib/libsdk.a(timer.o)
                                                  /home/leon/git/swp-report/iMX6_Platform_SDK/output/mx6sdl/lib/libsdk.a(runtime_support.o)
top_of_stacks                                     /home/leon/git/swp-report/iMX6_Platform_SDK/output/mx6sdl/lib/libsdk.a(startup.o)
total_tests                                       /home/leon/git/swp-report/iMX6_Platform_SDK/output/mx6sdl/obds/smart_device_rev_a/obj/apps/obds/src/obds.o
touch_button_test                                 /home/leon/git/swp-report/iMX6_Platform_SDK/output/mx6sdl/obds/smart_device_rev_a/obj/apps/obds/src/tests/touch_button_test.o
touch_detect                                      /home/leon/git/swp-report/iMX6_Platform_SDK/output/mx6sdl/obds/smart_device_rev_a/obj/apps/obds/src/tests/touch_screen.o
touch_get_xy_value                                /home/leon/git/swp-report/iMX6_Platform_SDK/output/mx6sdl/obds/smart_device_rev_a/obj/apps/obds/src/tests/touch_screen.o
touch_init                                        /home/leon/git/swp-report/iMX6_Platform_SDK/output/mx6sdl/obds/smart_device_rev_a/obj/apps/obds/src/tests/touch_screen.o
touch_screen_prompt                               /home/leon/git/swp-report/iMX6_Platform_SDK/output/mx6sdl/obds/smart_device_rev_a/obj/apps/obds/src/tests/touch_screen.o
touch_screen_test                                 /home/leon/git/swp-report/iMX6_Platform_SDK/output/mx6sdl/obds/smart_device_rev_a/obj/apps/obds/src/tests/touch_screen.o
uart1_iomux_config                                /home/leon/git/swp-report/iMX6_Platform_SDK/output/mx6sdl/lib/libboard_smart_device_rev_a.a(uart1_iomux_config.o)
                                                  /home/leon/git/swp-report/iMX6_Platform_SDK/output/mx6sdl/lib/libboard_smart_device_rev_a.a(uart_iomux_config.o)
                                                  /home/leon/git/swp-report/iMX6_Platform_SDK/output/mx6sdl/lib/libboard_smart_device_rev_a.a(iomux_config.o)
uart2_iomux_config                                /home/leon/git/swp-report/iMX6_Platform_SDK/output/mx6sdl/lib/libboard_smart_device_rev_a.a(iomux_config.o)
                                                  /home/leon/git/swp-report/iMX6_Platform_SDK/output/mx6sdl/lib/libboard_smart_device_rev_a.a(uart_iomux_config.o)
                                                  /home/leon/git/swp-report/iMX6_Platform_SDK/output/mx6sdl/obds/smart_device_rev_a/obj/apps/obds/src/tests/gps_test.o
uart3_iomux_config                                /home/leon/git/swp-report/iMX6_Platform_SDK/output/mx6sdl/lib/libboard_smart_device_rev_a.a(iomux_config.o)
                                                  /home/leon/git/swp-report/iMX6_Platform_SDK/output/mx6sdl/lib/libboard_smart_device_rev_a.a(uart_iomux_config.o)
uart4_iomux_config                                /home/leon/git/swp-report/iMX6_Platform_SDK/output/mx6sdl/lib/libboard_smart_device_rev_a.a(iomux_config.o)
                                                  /home/leon/git/swp-report/iMX6_Platform_SDK/output/mx6sdl/lib/libboard_smart_device_rev_a.a(uart_iomux_config.o)
uart5_iomux_config                                /home/leon/git/swp-report/iMX6_Platform_SDK/output/mx6sdl/lib/libboard_smart_device_rev_a.a(iomux_config.o)
                                                  /home/leon/git/swp-report/iMX6_Platform_SDK/output/mx6sdl/lib/libboard_smart_device_rev_a.a(uart_iomux_config.o)
uart_get_reffreq                                  /home/leon/git/swp-report/iMX6_Platform_SDK/output/mx6sdl/lib/libsdk.a(imx_uart.o)
uart_getchar                                      /home/leon/git/swp-report/iMX6_Platform_SDK/output/mx6sdl/lib/libsdk.a(imx_uart.o)
                                                  /home/leon/git/swp-report/iMX6_Platform_SDK/output/mx6sdl/lib/libsdk.a(runtime_support.o)
                                                  /home/leon/git/swp-report/iMX6_Platform_SDK/output/mx6sdl/lib/libsdk.a(system_util.o)
                                                  /home/leon/git/swp-report/iMX6_Platform_SDK/output/mx6sdl/obds/smart_device_rev_a/obj/sdk/drivers/uart/test/uart_test.o
                                                  /home/leon/git/swp-report/iMX6_Platform_SDK/output/mx6sdl/obds/smart_device_rev_a/obj/sdk/drivers/camera/test/csi_test_mode.o
                                                  /home/leon/git/swp-report/iMX6_Platform_SDK/output/mx6sdl/obds/smart_device_rev_a/obj/apps/common/platform_init.o
uart_init                                         /home/leon/git/swp-report/iMX6_Platform_SDK/output/mx6sdl/lib/libsdk.a(imx_uart.o)
                                                  /home/leon/git/swp-report/iMX6_Platform_SDK/output/mx6sdl/obds/smart_device_rev_a/obj/sdk/drivers/uart/test/uart_test.o
                                                  /home/leon/git/swp-report/iMX6_Platform_SDK/output/mx6sdl/obds/smart_device_rev_a/obj/apps/obds/src/tests/gps_test.o
                                                  /home/leon/git/swp-report/iMX6_Platform_SDK/output/mx6sdl/obds/smart_device_rev_a/obj/apps/common/platform_init.o
uart_interrupt_handler                            /home/leon/git/swp-report/iMX6_Platform_SDK/output/mx6sdl/obds/smart_device_rev_a/obj/sdk/drivers/uart/test/uart_test.o
uart_iomux_config                                 /home/leon/git/swp-report/iMX6_Platform_SDK/output/mx6sdl/lib/libboard_smart_device_rev_a.a(uart_iomux_config.o)
                                                  /home/leon/git/swp-report/iMX6_Platform_SDK/output/mx6sdl/lib/libsdk.a(imx_uart.o)
uart_putchar                                      /home/leon/git/swp-report/iMX6_Platform_SDK/output/mx6sdl/lib/libsdk.a(imx_uart.o)
                                                  /home/leon/git/swp-report/iMX6_Platform_SDK/output/mx6sdl/lib/libsdk.a(runtime_support.o)
                                                  /home/leon/git/swp-report/iMX6_Platform_SDK/output/mx6sdl/obds/smart_device_rev_a/obj/sdk/drivers/uart/test/uart_test.o
uart_set_FIFO_mode                                /home/leon/git/swp-report/iMX6_Platform_SDK/output/mx6sdl/lib/libsdk.a(imx_uart.o)
                                                  /home/leon/git/swp-report/iMX6_Platform_SDK/output/mx6sdl/obds/smart_device_rev_a/obj/sdk/drivers/uart/test/uart_test.o
uart_set_loopback_mode                            /home/leon/git/swp-report/iMX6_Platform_SDK/output/mx6sdl/lib/libsdk.a(imx_uart.o)
                                                  /home/leon/git/swp-report/iMX6_Platform_SDK/output/mx6sdl/obds/smart_device_rev_a/obj/sdk/drivers/uart/test/uart_test.o
uart_setup_interrupt                              /home/leon/git/swp-report/iMX6_Platform_SDK/output/mx6sdl/lib/libsdk.a(imx_uart.o)
                                                  /home/leon/git/swp-report/iMX6_Platform_SDK/output/mx6sdl/obds/smart_device_rev_a/obj/sdk/drivers/uart/test/uart_test.o
uart_test                                         /home/leon/git/swp-report/iMX6_Platform_SDK/output/mx6sdl/obds/smart_device_rev_a/obj/sdk/drivers/uart/test/uart_test.o
                                                  /home/leon/git/swp-report/iMX6_Platform_SDK/output/mx6sdl/obds/smart_device_rev_a/obj/apps/obds/src/obds.o
update_csc_coeffs                                 /home/leon/git/swp-report/iMX6_Platform_SDK/output/mx6sdl/lib/libsdk.a(hdmi_tx.o)
usb0_host_test                                    /home/leon/git/swp-report/iMX6_Platform_SDK/output/mx6sdl/obds/smart_device_rev_a/obj/sdk/drivers/usb/test/usb0_host_test.o
usb0_host_testmodes_test                          /home/leon/git/swp-report/iMX6_Platform_SDK/output/mx6sdl/obds/smart_device_rev_a/obj/sdk/drivers/usb/test/usb0_host_testmodes_test.o
usbDisableVbus                                    /home/leon/git/swp-report/iMX6_Platform_SDK/output/mx6sdl/lib/libboard_smart_device_rev_a.a(board_usb.o)
usbEnableClocks                                   /home/leon/git/swp-report/iMX6_Platform_SDK/output/mx6sdl/lib/libsdk.a(mx6x_usb.o)
                                                  /home/leon/git/swp-report/iMX6_Platform_SDK/output/mx6sdl/lib/libsdk.a(usbh_drv.o)
usbEnableTransceiver                              /home/leon/git/swp-report/iMX6_Platform_SDK/output/mx6sdl/lib/libsdk.a(mx6x_usb.o)
                                                  /home/leon/git/swp-report/iMX6_Platform_SDK/output/mx6sdl/lib/libsdk.a(usbh_drv.o)
usbEnableVbus                                     /home/leon/git/swp-report/iMX6_Platform_SDK/output/mx6sdl/lib/libboard_smart_device_rev_a.a(board_usb.o)
                                                  /home/leon/git/swp-report/iMX6_Platform_SDK/output/mx6sdl/lib/libsdk.a(usbh_drv.o)
usb_enum_device                                   /home/leon/git/swp-report/iMX6_Platform_SDK/output/mx6sdl/obds/smart_device_rev_a/obj/apps/obds/src/tests/usb_tests_obds.o
usb_get_port_speed                                /home/leon/git/swp-report/iMX6_Platform_SDK/output/mx6sdl/lib/libsdk.a(usb_common.o)
                                                  /home/leon/git/swp-report/iMX6_Platform_SDK/output/mx6sdl/obds/smart_device_rev_a/obj/sdk/drivers/usb/test/usb0_host_test.o
                                                  /home/leon/git/swp-report/iMX6_Platform_SDK/output/mx6sdl/obds/smart_device_rev_a/obj/apps/obds/src/tests/usb_tests_obds.o
usb_iomux_config                                  /home/leon/git/swp-report/iMX6_Platform_SDK/output/mx6sdl/lib/libboard_smart_device_rev_a.a(iomux_config.o)
usbh_bus_reset                                    /home/leon/git/swp-report/iMX6_Platform_SDK/output/mx6sdl/lib/libsdk.a(usbh_drv.o)
                                                  /home/leon/git/swp-report/iMX6_Platform_SDK/output/mx6sdl/obds/smart_device_rev_a/obj/sdk/drivers/usb/test/usb0_host_test.o
                                                  /home/leon/git/swp-report/iMX6_Platform_SDK/output/mx6sdl/obds/smart_device_rev_a/obj/apps/obds/src/tests/usb_tests_obds.o
usbh_dev_enum_test                                /home/leon/git/swp-report/iMX6_Platform_SDK/output/mx6sdl/obds/smart_device_rev_a/obj/apps/obds/src/tests/usb_tests_obds.o
usbh_disable_Periodic_list                        /home/leon/git/swp-report/iMX6_Platform_SDK/output/mx6sdl/lib/libsdk.a(usbh_drv.o)
usbh_disable_asynchronous_schedule                /home/leon/git/swp-report/iMX6_Platform_SDK/output/mx6sdl/lib/libsdk.a(usbh_drv.o)
                                                  /home/leon/git/swp-report/iMX6_Platform_SDK/output/mx6sdl/obds/smart_device_rev_a/obj/sdk/drivers/usb/test/usb0_host_test.o
                                                  /home/leon/git/swp-report/iMX6_Platform_SDK/output/mx6sdl/obds/smart_device_rev_a/obj/apps/obds/src/tests/usb_tests_obds.o
usbh_enable_asynchronous_schedule                 /home/leon/git/swp-report/iMX6_Platform_SDK/output/mx6sdl/lib/libsdk.a(usbh_drv.o)
                                                  /home/leon/git/swp-report/iMX6_Platform_SDK/output/mx6sdl/obds/smart_device_rev_a/obj/sdk/drivers/usb/test/usb0_host_test.o
                                                  /home/leon/git/swp-report/iMX6_Platform_SDK/output/mx6sdl/obds/smart_device_rev_a/obj/apps/obds/src/tests/usb_tests_obds.o
usbh_get_config_desc                              /home/leon/git/swp-report/iMX6_Platform_SDK/output/mx6sdl/obds/smart_device_rev_a/obj/sdk/drivers/usb/test/usb0_host_test.o
usbh_get_dev_desc                                 /home/leon/git/swp-report/iMX6_Platform_SDK/output/mx6sdl/obds/smart_device_rev_a/obj/sdk/drivers/usb/test/usb0_host_test.o
                                                  /home/leon/git/swp-report/iMX6_Platform_SDK/output/mx6sdl/obds/smart_device_rev_a/obj/apps/obds/src/tests/usb_tests_obds.o
usbh_get_interface_desc                           /home/leon/git/swp-report/iMX6_Platform_SDK/output/mx6sdl/obds/smart_device_rev_a/obj/sdk/drivers/usb/test/usb0_host_test.o
usbh_get_report_desc                              /home/leon/git/swp-report/iMX6_Platform_SDK/output/mx6sdl/obds/smart_device_rev_a/obj/sdk/drivers/usb/test/usb0_host_test.o
usbh_init                                         /home/leon/git/swp-report/iMX6_Platform_SDK/output/mx6sdl/lib/libsdk.a(usbh_drv.o)
                                                  /home/leon/git/swp-report/iMX6_Platform_SDK/output/mx6sdl/obds/smart_device_rev_a/obj/sdk/drivers/usb/test/usb0_host_testmodes_test.o
                                                  /home/leon/git/swp-report/iMX6_Platform_SDK/output/mx6sdl/obds/smart_device_rev_a/obj/sdk/drivers/usb/test/usb0_host_test.o
                                                  /home/leon/git/swp-report/iMX6_Platform_SDK/output/mx6sdl/obds/smart_device_rev_a/obj/apps/obds/src/tests/usb_tests_obds.o
usbh_periodic_schedule_init                       /home/leon/git/swp-report/iMX6_Platform_SDK/output/mx6sdl/lib/libsdk.a(usbh_drv.o)
                                                  /home/leon/git/swp-report/iMX6_Platform_SDK/output/mx6sdl/obds/smart_device_rev_a/obj/sdk/drivers/usb/test/usb0_host_test.o
usbh_qh_init                                      /home/leon/git/swp-report/iMX6_Platform_SDK/output/mx6sdl/lib/libsdk.a(usbh_drv.o)
                                                  /home/leon/git/swp-report/iMX6_Platform_SDK/output/mx6sdl/obds/smart_device_rev_a/obj/sdk/drivers/usb/test/usb0_host_test.o
                                                  /home/leon/git/swp-report/iMX6_Platform_SDK/output/mx6sdl/obds/smart_device_rev_a/obj/apps/obds/src/tests/usb_tests_obds.o
usbh_qtd_init                                     /home/leon/git/swp-report/iMX6_Platform_SDK/output/mx6sdl/lib/libsdk.a(usbh_drv.o)
                                                  /home/leon/git/swp-report/iMX6_Platform_SDK/output/mx6sdl/obds/smart_device_rev_a/obj/sdk/drivers/usb/test/usb0_host_test.o
usbh_set_configuration                            /home/leon/git/swp-report/iMX6_Platform_SDK/output/mx6sdl/obds/smart_device_rev_a/obj/sdk/drivers/usb/test/usb0_host_test.o
usbh_set_device_address                           /home/leon/git/swp-report/iMX6_Platform_SDK/output/mx6sdl/obds/smart_device_rev_a/obj/sdk/drivers/usb/test/usb0_host_test.o
usbo_dev_enum_test                                /home/leon/git/swp-report/iMX6_Platform_SDK/output/mx6sdl/obds/smart_device_rev_a/obj/apps/obds/src/tests/usb_tests_obds.o
                                                  /home/leon/git/swp-report/iMX6_Platform_SDK/output/mx6sdl/obds/smart_device_rev_a/obj/apps/obds/src/obds.o
usdhc1_iomux_config                               /home/leon/git/swp-report/iMX6_Platform_SDK/output/mx6sdl/lib/libboard_smart_device_rev_a.a(iomux_config.o)
                                                  /home/leon/git/swp-report/iMX6_Platform_SDK/output/mx6sdl/lib/libboard_smart_device_rev_a.a(usdhc_iomux_config.o)
usdhc1_isr                                        /home/leon/git/swp-report/iMX6_Platform_SDK/output/mx6sdl/lib/libsdk.a(usdhc_host.o)
                                                  /home/leon/git/swp-report/iMX6_Platform_SDK/output/mx6sdl/lib/libsdk.a(usdhc.o)
usdhc2_iomux_config                               /home/leon/git/swp-report/iMX6_Platform_SDK/output/mx6sdl/lib/libboard_smart_device_rev_a.a(usdhc2_iomux_config.o)
                                                  /home/leon/git/swp-report/iMX6_Platform_SDK/output/mx6sdl/lib/libboard_smart_device_rev_a.a(usdhc_iomux_config.o)
                                                  /home/leon/git/swp-report/iMX6_Platform_SDK/output/mx6sdl/lib/libboard_smart_device_rev_a.a(iomux_config.o)
usdhc2_isr                                        /home/leon/git/swp-report/iMX6_Platform_SDK/output/mx6sdl/lib/libsdk.a(usdhc_host.o)
                                                  /home/leon/git/swp-report/iMX6_Platform_SDK/output/mx6sdl/lib/libsdk.a(usdhc.o)
usdhc3_iomux_config                               /home/leon/git/swp-report/iMX6_Platform_SDK/output/mx6sdl/lib/libboard_smart_device_rev_a.a(usdhc3_iomux_config.o)
                                                  /home/leon/git/swp-report/iMX6_Platform_SDK/output/mx6sdl/lib/libboard_smart_device_rev_a.a(usdhc_iomux_config.o)
                                                  /home/leon/git/swp-report/iMX6_Platform_SDK/output/mx6sdl/lib/libboard_smart_device_rev_a.a(iomux_config.o)
usdhc3_isr                                        /home/leon/git/swp-report/iMX6_Platform_SDK/output/mx6sdl/lib/libsdk.a(usdhc_host.o)
                                                  /home/leon/git/swp-report/iMX6_Platform_SDK/output/mx6sdl/lib/libsdk.a(usdhc.o)
usdhc4_iomux_config                               /home/leon/git/swp-report/iMX6_Platform_SDK/output/mx6sdl/lib/libboard_smart_device_rev_a.a(usdhc4_iomux_config.o)
                                                  /home/leon/git/swp-report/iMX6_Platform_SDK/output/mx6sdl/lib/libboard_smart_device_rev_a.a(usdhc_iomux_config.o)
                                                  /home/leon/git/swp-report/iMX6_Platform_SDK/output/mx6sdl/lib/libboard_smart_device_rev_a.a(iomux_config.o)
usdhc4_isr                                        /home/leon/git/swp-report/iMX6_Platform_SDK/output/mx6sdl/lib/libsdk.a(usdhc_host.o)
                                                  /home/leon/git/swp-report/iMX6_Platform_SDK/output/mx6sdl/lib/libsdk.a(usdhc.o)
usdhc_card_detected                               /home/leon/git/swp-report/iMX6_Platform_SDK/output/mx6sdl/lib/libboard_smart_device_rev_a.a(board_usdhc.o)
                                                  /home/leon/git/swp-report/iMX6_Platform_SDK/output/mx6sdl/lib/libsdk.a(usdhc.o)
                                                  /home/leon/git/swp-report/iMX6_Platform_SDK/output/mx6sdl/obds/smart_device_rev_a/obj/apps/obds/src/tests/mmcsd_test.o
usdhc_device                                      /home/leon/git/swp-report/iMX6_Platform_SDK/output/mx6sdl/lib/libsdk.a(usdhc.o)
                                                  /home/leon/git/swp-report/iMX6_Platform_SDK/output/mx6sdl/lib/libsdk.a(usdhc_sd.o)
                                                  /home/leon/git/swp-report/iMX6_Platform_SDK/output/mx6sdl/lib/libsdk.a(usdhc_mmc.o)
                                                  /home/leon/git/swp-report/iMX6_Platform_SDK/output/mx6sdl/lib/libsdk.a(usdhc_host.o)
usdhc_gpio_config                                 /home/leon/git/swp-report/iMX6_Platform_SDK/output/mx6sdl/lib/libboard_smart_device_rev_a.a(board_usdhc.o)
                                                  /home/leon/git/swp-report/iMX6_Platform_SDK/output/mx6sdl/lib/libsdk.a(usdhc_host.o)
usdhc_iomux_config                                /home/leon/git/swp-report/iMX6_Platform_SDK/output/mx6sdl/lib/libboard_smart_device_rev_a.a(usdhc_iomux_config.o)
                                                  /home/leon/git/swp-report/iMX6_Platform_SDK/output/mx6sdl/lib/libsdk.a(usdhc_host.o)
usdhc_test                                        /home/leon/git/swp-report/iMX6_Platform_SDK/output/mx6sdl/obds/smart_device_rev_a/obj/sdk/drivers/usdhc/test/usdhc_test.o
usdhc_write_protected                             /home/leon/git/swp-report/iMX6_Platform_SDK/output/mx6sdl/lib/libboard_smart_device_rev_a.a(board_usdhc.o)
                                                  /home/leon/git/swp-report/iMX6_Platform_SDK/output/mx6sdl/lib/libsdk.a(usdhc.o)
                                                  /home/leon/git/swp-report/iMX6_Platform_SDK/output/mx6sdl/obds/smart_device_rev_a/obj/apps/obds/src/tests/mmcsd_test.o
vectors                                           /home/leon/git/swp-report/iMX6_Platform_SDK/output/mx6sdl/lib/libsdk.a(vectors.o)
                                                  /home/leon/git/swp-report/iMX6_Platform_SDK/output/mx6sdl/lib/libsdk.a(startup.o)
vfiprintf                                         /home/leon/riotboard/arm-2012.09/bin/../arm-none-eabi/lib//libc.a(lib_a-vfiprintf.o)
vfprintf                                          /home/leon/riotboard/arm-2012.09/bin/../arm-none-eabi/lib//libc.a(lib_a-vfprintf.o)
vprintf                                           /home/leon/riotboard/arm-2012.09/bin/../arm-none-eabi/lib//libc.a(lib_a-vprintf.o)
                                                  /home/leon/git/swp-report/iMX6_Platform_SDK/output/mx6sdl/lib/libsdk.a(imx_i2c.o)
                                                  /home/leon/git/swp-report/iMX6_Platform_SDK/output/mx6sdl/lib/libsdk.a(gpio.o)
                                                  /home/leon/git/swp-report/iMX6_Platform_SDK/output/mx6sdl/lib/libsdk.a(sgtl5000.o)
                                                  /home/leon/git/swp-report/iMX6_Platform_SDK/output/mx6sdl/lib/libsdk.a(text_color.o)
                                                  /home/leon/git/swp-report/iMX6_Platform_SDK/output/mx6sdl/obds/smart_device_rev_a/obj/apps/obds/src/tests/program_mac_address.o
                                                  /home/leon/git/swp-report/iMX6_Platform_SDK/output/mx6sdl/obds/smart_device_rev_a/obj/apps/obds/src/tests/program_board_id.o
                                                  /home/leon/git/swp-report/iMX6_Platform_SDK/output/mx6sdl/obds/smart_device_rev_a/obj/apps/obds/src/tests/enet_mx6dldq_test.o
                                                  /home/leon/git/swp-report/iMX6_Platform_SDK/output/mx6sdl/obds/smart_device_rev_a/obj/apps/obds/src/obds.o
wait_convertion_done                              /home/leon/git/swp-report/iMX6_Platform_SDK/output/mx6sdl/obds/smart_device_rev_a/obj/apps/obds/src/tests/i2c_device_temp_sensor_emc1046.o
wav_data                                          /home/leon/git/swp-report/iMX6_Platform_SDK/output/mx6sdl/obds/smart_device_rev_a/obj/apps/obds/src/tests/audio_ssi_test.o
wcrtomb                                           /home/leon/riotboard/arm-2012.09/bin/../arm-none-eabi/lib//libc.a(lib_a-wcrtomb.o)
wdog1_iomux_config                                /home/leon/git/swp-report/iMX6_Platform_SDK/output/mx6sdl/lib/libboard_smart_device_rev_a.a(iomux_config.o)
wdog2_iomux_config                                /home/leon/git/swp-report/iMX6_Platform_SDK/output/mx6sdl/lib/libboard_smart_device_rev_a.a(iomux_config.o)
weim_nor_flash_cs_setup                           /home/leon/git/swp-report/iMX6_Platform_SDK/output/mx6sdl/obds/smart_device_rev_a/obj/apps/obds/src/tests/weim_nor_flash_test.o
wm8958                                            /home/leon/git/swp-report/iMX6_Platform_SDK/output/mx6sdl/lib/libsdk.a(wm8958_dac.o)
                                                  /home/leon/git/swp-report/iMX6_Platform_SDK/output/mx6sdl/obds/smart_device_rev_a/obj/sdk/drivers/audio/src/snd_card.o
wm8958_i2c_req                                    /home/leon/git/swp-report/iMX6_Platform_SDK/output/mx6sdl/lib/libsdk.a(wm8958_dac.o)
wm8958_ops                                        /home/leon/git/swp-report/iMX6_Platform_SDK/output/mx6sdl/lib/libsdk.a(wm8958_dac.o)
wm8962                                            /home/leon/git/swp-report/iMX6_Platform_SDK/output/mx6sdl/lib/libsdk.a(wm8962.o)
                                                  /home/leon/git/swp-report/iMX6_Platform_SDK/output/mx6sdl/obds/smart_device_rev_a/obj/sdk/drivers/audio/src/snd_card.o
wm8962_i2c_req                                    /home/leon/git/swp-report/iMX6_Platform_SDK/output/mx6sdl/lib/libsdk.a(wm8962.o)
wm8962_ops                                        /home/leon/git/swp-report/iMX6_Platform_SDK/output/mx6sdl/lib/libsdk.a(wm8962.o)
write_protect_test_en                             /home/leon/git/swp-report/iMX6_Platform_SDK/output/mx6sdl/lib/libsdk.a(usdhc.o)
                                                  /home/leon/git/swp-report/iMX6_Platform_SDK/output/mx6sdl/obds/smart_device_rev_a/obj/apps/obds/src/tests/mmcsd_test.o
wv_data                                           /home/leon/git/swp-report/iMX6_Platform_SDK/output/mx6sdl/lib/libsdk.a(mxc_epdc.o)
xtalosc_iomux_config                              /home/leon/git/swp-report/iMX6_Platform_SDK/output/mx6sdl/lib/libboard_smart_device_rev_a.a(iomux_config.o)
