Archive member included because of file (symbol)

/home/leon/git/swp-report/iMX6_Platform_SDK/output/mx6dq/lib/libsdk.a(max7310.o)
                              /home/leon/git/swp-report/iMX6_Platform_SDK/output/mx6dq/obds/sabre_ai_rev_a/obj/sdk/common/ioexpander/test/max7310_test.o (max7310_reg_read)
/home/leon/git/swp-report/iMX6_Platform_SDK/output/mx6dq/lib/libsdk.a(ccm_pll.o)
                              /home/leon/git/swp-report/iMX6_Platform_SDK/output/mx6dq/obds/sabre_ai_rev_a/obj/apps/common/platform_init.o (ccm_init)
/home/leon/git/swp-report/iMX6_Platform_SDK/output/mx6dq/lib/libsdk.a(cortexA9.o)
                              /home/leon/git/swp-report/iMX6_Platform_SDK/output/mx6dq/obds/sabre_ai_rev_a/obj/apps/common/platform_init.o (arm_set_interrupt_state)
/home/leon/git/swp-report/iMX6_Platform_SDK/output/mx6dq/lib/libsdk.a(gic.o)
                              /home/leon/git/swp-report/iMX6_Platform_SDK/output/mx6dq/obds/sabre_ai_rev_a/obj/apps/common/platform_init.o (gic_init)
/home/leon/git/swp-report/iMX6_Platform_SDK/output/mx6dq/lib/libsdk.a(interrupt.o)
                              /home/leon/git/swp-report/iMX6_Platform_SDK/output/mx6dq/obds/sabre_ai_rev_a/obj/sdk/drivers/hdmi/test/hdmi_test.o (disable_interrupt)
/home/leon/git/swp-report/iMX6_Platform_SDK/output/mx6dq/lib/libsdk.a(mmu.o)
                              /home/leon/git/swp-report/iMX6_Platform_SDK/output/mx6dq/obds/sabre_ai_rev_a/obj/apps/common/platform_init.o (mmu_init)
/home/leon/git/swp-report/iMX6_Platform_SDK/output/mx6dq/lib/libsdk.a(startup.o)
                              (_start)
/home/leon/git/swp-report/iMX6_Platform_SDK/output/mx6dq/lib/libsdk.a(vectors.o)
                              /home/leon/git/swp-report/iMX6_Platform_SDK/output/mx6dq/lib/libsdk.a(startup.o) (vectors)
/home/leon/git/swp-report/iMX6_Platform_SDK/output/mx6dq/lib/libsdk.a(menu.o)
                              /home/leon/git/swp-report/iMX6_Platform_SDK/output/mx6dq/obds/sabre_ai_rev_a/obj/apps/obds/src/obds.o (menu_get_indent)
/home/leon/git/swp-report/iMX6_Platform_SDK/output/mx6dq/lib/libsdk.a(sdk_version.o)
                              /home/leon/git/swp-report/iMX6_Platform_SDK/output/mx6dq/obds/sabre_ai_rev_a/obj/apps/common/print_version.o (k_sdk_version)
/home/leon/git/swp-report/iMX6_Platform_SDK/output/mx6dq/lib/libsdk.a(system_util.o)
                              /home/leon/git/swp-report/iMX6_Platform_SDK/output/mx6dq/lib/libsdk.a(startup.o) (_sys_exit)
/home/leon/git/swp-report/iMX6_Platform_SDK/output/mx6dq/lib/libsdk.a(text_color.o)
                              /home/leon/git/swp-report/iMX6_Platform_SDK/output/mx6dq/obds/sabre_ai_rev_a/obj/apps/obds/src/obds.o (g_TextAttributeDefault)
/home/leon/git/swp-report/iMX6_Platform_SDK/output/mx6dq/lib/libsdk.a(cs42888.o)
                              /home/leon/git/swp-report/iMX6_Platform_SDK/output/mx6dq/obds/sabre_ai_rev_a/obj/apps/obds/src/tests/i2c_device_check_cs42888.o (cs42888_init)
/home/leon/git/swp-report/iMX6_Platform_SDK/output/mx6dq/lib/libsdk.a(imx-ssi.o)
                              /home/leon/git/swp-report/iMX6_Platform_SDK/output/mx6dq/obds/sabre_ai_rev_a/obj/sdk/drivers/audio/src/snd_card.o (imx_ssi_2)
/home/leon/git/swp-report/iMX6_Platform_SDK/output/mx6dq/lib/libsdk.a(imx_esai.o)
                              /home/leon/git/swp-report/iMX6_Platform_SDK/output/mx6dq/obds/sabre_ai_rev_a/obj/sdk/drivers/audio/src/snd_card.o (imx_esai_1)
/home/leon/git/swp-report/iMX6_Platform_SDK/output/mx6dq/lib/libsdk.a(imx_spdif.o)
                              /home/leon/git/swp-report/iMX6_Platform_SDK/output/mx6dq/obds/sabre_ai_rev_a/obj/sdk/drivers/audio/src/snd_card.o (imx_spdif)
/home/leon/git/swp-report/iMX6_Platform_SDK/output/mx6dq/lib/libsdk.a(sgtl5000.o)
                              /home/leon/git/swp-report/iMX6_Platform_SDK/output/mx6dq/obds/sabre_ai_rev_a/obj/sdk/drivers/audio/src/snd_card.o (sgtl5000)
/home/leon/git/swp-report/iMX6_Platform_SDK/output/mx6dq/lib/libsdk.a(wm8958_dac.o)
                              /home/leon/git/swp-report/iMX6_Platform_SDK/output/mx6dq/obds/sabre_ai_rev_a/obj/sdk/drivers/audio/src/snd_card.o (wm8958)
/home/leon/git/swp-report/iMX6_Platform_SDK/output/mx6dq/lib/libsdk.a(wm8962.o)
                              /home/leon/git/swp-report/iMX6_Platform_SDK/output/mx6dq/obds/sabre_ai_rev_a/obj/sdk/drivers/audio/src/snd_card.o (wm8962)
/home/leon/git/swp-report/iMX6_Platform_SDK/output/mx6dq/lib/libsdk.a(board_id.o)
                              /home/leon/git/swp-report/iMX6_Platform_SDK/output/mx6dq/obds/sabre_ai_rev_a/obj/apps/common/print_version.o (chip_name)
/home/leon/git/swp-report/iMX6_Platform_SDK/output/mx6dq/lib/libsdk.a(smd_sensor.o)
                              /home/leon/git/swp-report/iMX6_Platform_SDK/output/mx6dq/obds/sabre_ai_rev_a/obj/sdk/drivers/camera/test/sensor_capture.o (sensor_config)
/home/leon/git/swp-report/iMX6_Platform_SDK/output/mx6dq/lib/libsdk.a(enet_drv.o)
                              /home/leon/git/swp-report/iMX6_Platform_SDK/output/mx6dq/obds/sabre_ai_rev_a/obj/apps/obds/src/tests/enet_mx6dldq_test.o (imx_enet_phy_init)
/home/leon/git/swp-report/iMX6_Platform_SDK/output/mx6dq/lib/libsdk.a(gpio.o)
                              /home/leon/git/swp-report/iMX6_Platform_SDK/output/mx6dq/obds/sabre_ai_rev_a/obj/apps/obds/src/tests/android_buttons_test.o (gpio_set_direction)
/home/leon/git/swp-report/iMX6_Platform_SDK/output/mx6dq/lib/libsdk.a(imx6dq_gpio_map.o)
                              /home/leon/git/swp-report/iMX6_Platform_SDK/output/mx6dq/lib/libsdk.a(gpio.o) (k_gpio_mux_registers)
/home/leon/git/swp-report/iMX6_Platform_SDK/output/mx6dq/lib/libsdk.a(hdmi_tx.o)
                              /home/leon/git/swp-report/iMX6_Platform_SDK/output/mx6dq/obds/sabre_ai_rev_a/obj/apps/obds/src/tests/display_test.o (hdmi_config_input_source)
/home/leon/git/swp-report/iMX6_Platform_SDK/output/mx6dq/lib/libsdk.a(hdmi_tx_audio.o)
                              /home/leon/git/swp-report/iMX6_Platform_SDK/output/mx6dq/obds/sabre_ai_rev_a/obj/apps/obds/src/tests/display_test.o (hdmi_audio_mute)
/home/leon/git/swp-report/iMX6_Platform_SDK/output/mx6dq/lib/libsdk.a(hdmi_tx_phy.o)
                              /home/leon/git/swp-report/iMX6_Platform_SDK/output/mx6dq/obds/sabre_ai_rev_a/obj/apps/obds/src/tests/display_test.o (hdmi_phy_init)
/home/leon/git/swp-report/iMX6_Platform_SDK/output/mx6dq/lib/libsdk.a(imx_i2c.o)
                              /home/leon/git/swp-report/iMX6_Platform_SDK/output/mx6dq/obds/sabre_ai_rev_a/obj/apps/obds/src/tests/fm_tuner_si476x_test.o (i2c_xfer)
/home/leon/git/swp-report/iMX6_Platform_SDK/output/mx6dq/lib/libsdk.a(ips_disp_panel.o)
                              /home/leon/git/swp-report/iMX6_Platform_SDK/output/mx6dq/obds/sabre_ai_rev_a/obj/apps/obds/src/tests/display_test.o (search_panel)
/home/leon/git/swp-report/iMX6_Platform_SDK/output/mx6dq/lib/libsdk.a(ipu_common.o)
                              /home/leon/git/swp-report/iMX6_Platform_SDK/output/mx6dq/obds/sabre_ai_rev_a/obj/apps/obds/src/tests/display_test.o (ipu_enable_display)
/home/leon/git/swp-report/iMX6_Platform_SDK/output/mx6dq/lib/libsdk.a(ipu_csi.o)
                              /home/leon/git/swp-report/iMX6_Platform_SDK/output/mx6dq/lib/libsdk.a(ipu_common.o) (ipu_csi_config)
/home/leon/git/swp-report/iMX6_Platform_SDK/output/mx6dq/lib/libsdk.a(ipu_dc.o)
                              /home/leon/git/swp-report/iMX6_Platform_SDK/output/mx6dq/lib/libsdk.a(ipu_common.o) (ipu_dc_config)
/home/leon/git/swp-report/iMX6_Platform_SDK/output/mx6dq/lib/libsdk.a(ipu_di.o)
                              /home/leon/git/swp-report/iMX6_Platform_SDK/output/mx6dq/lib/libsdk.a(ipu_common.o) (ipu_di_config)
/home/leon/git/swp-report/iMX6_Platform_SDK/output/mx6dq/lib/libsdk.a(ipu_dmfc.o)
                              /home/leon/git/swp-report/iMX6_Platform_SDK/output/mx6dq/lib/libsdk.a(ipu_common.o) (ipu_dmfc_config)
/home/leon/git/swp-report/iMX6_Platform_SDK/output/mx6dq/lib/libsdk.a(ipu_dp.o)
                              /home/leon/git/swp-report/iMX6_Platform_SDK/output/mx6dq/lib/libsdk.a(ipu_common.o) (ipu_dp_config)
/home/leon/git/swp-report/iMX6_Platform_SDK/output/mx6dq/lib/libsdk.a(ipu_idmac.o)
                              /home/leon/git/swp-report/iMX6_Platform_SDK/output/mx6dq/lib/libsdk.a(ipu_common.o) (ipu_cpmem_set_field)
/home/leon/git/swp-report/iMX6_Platform_SDK/output/mx6dq/lib/libsdk.a(ipu_vdi.o)
                              /home/leon/git/swp-report/iMX6_Platform_SDK/output/mx6dq/lib/libsdk.a(ipu_common.o) (ips_deinterlace_proc)
/home/leon/git/swp-report/iMX6_Platform_SDK/output/mx6dq/lib/libsdk.a(ldb.o)
                              /home/leon/git/swp-report/iMX6_Platform_SDK/output/mx6dq/lib/libsdk.a(ips_disp_panel.o) (ldb_config)
/home/leon/git/swp-report/iMX6_Platform_SDK/output/mx6dq/lib/libsdk.a(ocotp.o)
                              /home/leon/git/swp-report/iMX6_Platform_SDK/output/mx6dq/obds/sabre_ai_rev_a/obj/apps/obds/src/tests/program_board_id.o (ocotp_sense_fuse)
/home/leon/git/swp-report/iMX6_Platform_SDK/output/mx6dq/lib/libsdk.a(sata.o)
                              /home/leon/git/swp-report/iMX6_Platform_SDK/output/mx6dq/obds/sabre_ai_rev_a/obj/sdk/drivers/sata/test/sata_test.o (sata_disk_read_sector)
/home/leon/git/swp-report/iMX6_Platform_SDK/output/mx6dq/lib/libsdk.a(ecspi.o)
                              /home/leon/git/swp-report/iMX6_Platform_SDK/output/mx6dq/obds/sabre_ai_rev_a/obj/apps/obds/src/tests/imx_spi_nor_test.o (ecspi_open)
/home/leon/git/swp-report/iMX6_Platform_SDK/output/mx6dq/lib/libsdk.a(timer.o)
                              /home/leon/git/swp-report/iMX6_Platform_SDK/output/mx6dq/obds/sabre_ai_rev_a/obj/apps/obds/src/tests/enet_mx6dldq_test.o (hal_delay_us)
/home/leon/git/swp-report/iMX6_Platform_SDK/output/mx6dq/lib/libsdk.a(imx_uart.o)
                              /home/leon/git/swp-report/iMX6_Platform_SDK/output/mx6dq/obds/sabre_ai_rev_a/obj/sdk/drivers/uart/test/uart_test.o (uart_putchar)
/home/leon/git/swp-report/iMX6_Platform_SDK/output/mx6dq/lib/libsdk.a(usb_common.o)
                              /home/leon/git/swp-report/iMX6_Platform_SDK/output/mx6dq/obds/sabre_ai_rev_a/obj/apps/obds/src/tests/usb_tests_obds.o (usb_get_port_speed)
/home/leon/git/swp-report/iMX6_Platform_SDK/output/mx6dq/lib/libsdk.a(usbh_drv.o)
                              /home/leon/git/swp-report/iMX6_Platform_SDK/output/mx6dq/obds/sabre_ai_rev_a/obj/apps/obds/src/tests/usb_tests_obds.o (usbh_init)
/home/leon/git/swp-report/iMX6_Platform_SDK/output/mx6dq/lib/libsdk.a(usdhc.o)
                              /home/leon/git/swp-report/iMX6_Platform_SDK/output/mx6dq/obds/sabre_ai_rev_a/obj/apps/obds/src/tests/mmcsd_test.o (card_detect_test_en)
/home/leon/git/swp-report/iMX6_Platform_SDK/output/mx6dq/lib/libsdk.a(usdhc_host.o)
                              /home/leon/git/swp-report/iMX6_Platform_SDK/output/mx6dq/lib/libsdk.a(usdhc.o) (usdhc1_isr)
/home/leon/git/swp-report/iMX6_Platform_SDK/output/mx6dq/lib/libsdk.a(usdhc_mmc.o)
                              /home/leon/git/swp-report/iMX6_Platform_SDK/output/mx6dq/lib/libsdk.a(usdhc.o) (mmc_init)
/home/leon/git/swp-report/iMX6_Platform_SDK/output/mx6dq/lib/libsdk.a(usdhc_sd.o)
                              /home/leon/git/swp-report/iMX6_Platform_SDK/output/mx6dq/lib/libsdk.a(usdhc.o) (sd_init)
/home/leon/git/swp-report/iMX6_Platform_SDK/output/mx6dq/lib/libsdk.a(adv7180.o)
                              /home/leon/git/swp-report/iMX6_Platform_SDK/output/mx6dq/obds/sabre_ai_rev_a/obj/sdk/drivers/camera/test/adv7180_capture.o (video_fmts)
/home/leon/git/swp-report/iMX6_Platform_SDK/output/mx6dq/lib/libsdk.a(arm_abort.o)
                              /home/leon/git/swp-report/iMX6_Platform_SDK/output/mx6dq/lib/libsdk.a(vectors.o) (data_abort_handler)
/home/leon/git/swp-report/iMX6_Platform_SDK/output/mx6dq/lib/libsdk.a(armv7_cache.o)
                              /home/leon/git/swp-report/iMX6_Platform_SDK/output/mx6dq/lib/libsdk.a(usdhc.o) (arm_dcache_state_query)
/home/leon/git/swp-report/iMX6_Platform_SDK/output/mx6dq/lib/libsdk.a(camera_profile.o)
                              /home/leon/git/swp-report/iMX6_Platform_SDK/output/mx6dq/lib/libsdk.a(smd_sensor.o) (g_camera_profiles)
/home/leon/git/swp-report/iMX6_Platform_SDK/output/mx6dq/lib/libsdk.a(hdmi_common.o)
                              /home/leon/git/swp-report/iMX6_Platform_SDK/output/mx6dq/lib/libsdk.a(hdmi_tx.o) (isColorSpaceConversion)
/home/leon/git/swp-report/iMX6_Platform_SDK/output/mx6dq/lib/libsdk.a(ipu_ic.o)
                              /home/leon/git/swp-report/iMX6_Platform_SDK/output/mx6dq/lib/libsdk.a(ipu_vdi.o) (ipu_ic_enable)
/home/leon/git/swp-report/iMX6_Platform_SDK/output/mx6dq/lib/libsdk.a(epit.o)
                              /home/leon/git/swp-report/iMX6_Platform_SDK/output/mx6dq/lib/libsdk.a(timer.o) (epit_get_compare_event)
/home/leon/git/swp-report/iMX6_Platform_SDK/output/mx6dq/lib/libsdk.a(mx6x_usb.o)
                              /home/leon/git/swp-report/iMX6_Platform_SDK/output/mx6dq/lib/libsdk.a(usbh_drv.o) (usbEnableClocks)
/home/leon/git/swp-report/iMX6_Platform_SDK/output/mx6dq/lib/libsdk.a(abort_handler.o)
                              /home/leon/git/swp-report/iMX6_Platform_SDK/output/mx6dq/lib/libsdk.a(arm_abort.o) (dump_regs)
/home/leon/git/swp-report/iMX6_Platform_SDK/output/mx6dq/lib/libboard_sabre_ai_rev_a.a(board_audio.o)
                              /home/leon/git/swp-report/iMX6_Platform_SDK/output/mx6dq/lib/libsdk.a(sgtl5000.o) (SGTL5000PowerUp_and_clockinit)
/home/leon/git/swp-report/iMX6_Platform_SDK/output/mx6dq/lib/libboard_sabre_ai_rev_a.a(board_buttons.o)
                              /home/leon/git/swp-report/iMX6_Platform_SDK/output/mx6dq/obds/sabre_ai_rev_a/obj/apps/obds/src/tests/android_buttons_test.o (android_buttons_iomux_config)
/home/leon/git/swp-report/iMX6_Platform_SDK/output/mx6dq/lib/libboard_sabre_ai_rev_a.a(board_camera.o)
                              /home/leon/git/swp-report/iMX6_Platform_SDK/output/mx6dq/lib/libsdk.a(smd_sensor.o) (g_camera_i2c_port)
/home/leon/git/swp-report/iMX6_Platform_SDK/output/mx6dq/lib/libboard_sabre_ai_rev_a.a(board_display.o)
                              /home/leon/git/swp-report/iMX6_Platform_SDK/output/mx6dq/lib/libsdk.a(ips_disp_panel.o) (lvds_power_on)
/home/leon/git/swp-report/iMX6_Platform_SDK/output/mx6dq/lib/libboard_sabre_ai_rev_a.a(board_hdmi.o)
                              /home/leon/git/swp-report/iMX6_Platform_SDK/output/mx6dq/lib/libsdk.a(ips_disp_panel.o) (hdmi_pgm_iomux)
/home/leon/git/swp-report/iMX6_Platform_SDK/output/mx6dq/lib/libboard_sabre_ai_rev_a.a(board_i2c.o)
                              /home/leon/git/swp-report/iMX6_Platform_SDK/output/mx6dq/lib/libsdk.a(wm8958_dac.o) (g_wm8958_i2c_device)
/home/leon/git/swp-report/iMX6_Platform_SDK/output/mx6dq/lib/libboard_sabre_ai_rev_a.a(board_io_expanders.o)
                              /home/leon/git/swp-report/iMX6_Platform_SDK/output/mx6dq/obds/sabre_ai_rev_a/obj/sdk/common/ioexpander/test/max7310_test.o (max7310_i2c_req_array)
/home/leon/git/swp-report/iMX6_Platform_SDK/output/mx6dq/lib/libboard_sabre_ai_rev_a.a(board_mipi.o)
                              /home/leon/git/swp-report/iMX6_Platform_SDK/output/mx6dq/lib/libsdk.a(ips_disp_panel.o) (mipi_backlight_en)
/home/leon/git/swp-report/iMX6_Platform_SDK/output/mx6dq/lib/libboard_sabre_ai_rev_a.a(board_network.o)
                              /home/leon/git/swp-report/iMX6_Platform_SDK/output/mx6dq/obds/sabre_ai_rev_a/obj/apps/obds/src/tests/enet_mx6dldq_test.o (imx_KSZ9021RN_reset)
/home/leon/git/swp-report/iMX6_Platform_SDK/output/mx6dq/lib/libboard_sabre_ai_rev_a.a(board_sata.o)
                              /home/leon/git/swp-report/iMX6_Platform_SDK/output/mx6dq/lib/libsdk.a(sata.o) (sata_power_on)
/home/leon/git/swp-report/iMX6_Platform_SDK/output/mx6dq/lib/libboard_sabre_ai_rev_a.a(board_usb.o)
                              /home/leon/git/swp-report/iMX6_Platform_SDK/output/mx6dq/lib/libsdk.a(usbh_drv.o) (usbEnableVbus)
/home/leon/git/swp-report/iMX6_Platform_SDK/output/mx6dq/lib/libboard_sabre_ai_rev_a.a(board_usdhc.o)
                              /home/leon/git/swp-report/iMX6_Platform_SDK/output/mx6dq/lib/libsdk.a(usdhc_host.o) (usdhc_gpio_config)
/home/leon/git/swp-report/iMX6_Platform_SDK/output/mx6dq/lib/libboard_sabre_ai_rev_a.a(hardware_modules.o)
                              /home/leon/git/swp-report/iMX6_Platform_SDK/output/mx6dq/obds/sabre_ai_rev_a/obj/apps/common/platform_init.o (g_debug_uart_port)
/home/leon/git/swp-report/iMX6_Platform_SDK/output/mx6dq/lib/libboard_sabre_ai_rev_a.a(dcd.o)
                              /home/leon/git/swp-report/iMX6_Platform_SDK/output/mx6dq/obds/sabre_ai_rev_a/obj/apps/common/ivt.o (input_dcd_hdr)
/home/leon/git/swp-report/iMX6_Platform_SDK/output/mx6dq/lib/libboard_sabre_ai_rev_a.a(audmux_iomux_config.o)
                              /home/leon/git/swp-report/iMX6_Platform_SDK/output/mx6dq/lib/libsdk.a(imx-ssi.o) (audmux_iomux_config)
/home/leon/git/swp-report/iMX6_Platform_SDK/output/mx6dq/lib/libboard_sabre_ai_rev_a.a(ecspi_iomux_config.o)
                              /home/leon/git/swp-report/iMX6_Platform_SDK/output/mx6dq/lib/libsdk.a(ecspi.o) (ecspi_iomux_config)
/home/leon/git/swp-report/iMX6_Platform_SDK/output/mx6dq/lib/libboard_sabre_ai_rev_a.a(eim_iomux_config.o)
                              /home/leon/git/swp-report/iMX6_Platform_SDK/output/mx6dq/obds/sabre_ai_rev_a/obj/apps/obds/src/tests/weim_nor_flash_test.o (eim_iomux_config)
/home/leon/git/swp-report/iMX6_Platform_SDK/output/mx6dq/lib/libboard_sabre_ai_rev_a.a(enet_iomux_config.o)
                              /home/leon/git/swp-report/iMX6_Platform_SDK/output/mx6dq/lib/libboard_sabre_ai_rev_a.a(board_network.o) (enet_iomux_config)
/home/leon/git/swp-report/iMX6_Platform_SDK/output/mx6dq/lib/libboard_sabre_ai_rev_a.a(esai_iomux_config.o)
                              /home/leon/git/swp-report/iMX6_Platform_SDK/output/mx6dq/lib/libsdk.a(imx_esai.o) (esai_iomux_config)
/home/leon/git/swp-report/iMX6_Platform_SDK/output/mx6dq/lib/libboard_sabre_ai_rev_a.a(i2c3_iomux_config.o)
                              /home/leon/git/swp-report/iMX6_Platform_SDK/output/mx6dq/lib/libboard_sabre_ai_rev_a.a(board_io_expanders.o) (i2c3_iomux_config)
/home/leon/git/swp-report/iMX6_Platform_SDK/output/mx6dq/lib/libboard_sabre_ai_rev_a.a(i2c_iomux_config.o)
                              /home/leon/git/swp-report/iMX6_Platform_SDK/output/mx6dq/lib/libsdk.a(imx_i2c.o) (i2c_iomux_config)
/home/leon/git/swp-report/iMX6_Platform_SDK/output/mx6dq/lib/libboard_sabre_ai_rev_a.a(iomux_config.o)
                              /home/leon/git/swp-report/iMX6_Platform_SDK/output/mx6dq/lib/libboard_sabre_ai_rev_a.a(ecspi_iomux_config.o) (ecspi2_iomux_config)
/home/leon/git/swp-report/iMX6_Platform_SDK/output/mx6dq/lib/libboard_sabre_ai_rev_a.a(ipu1_iomux_config.o)
                              /home/leon/git/swp-report/iMX6_Platform_SDK/output/mx6dq/obds/sabre_ai_rev_a/obj/sdk/drivers/camera/test/adv7180_capture.o (ipu1_iomux_config)
/home/leon/git/swp-report/iMX6_Platform_SDK/output/mx6dq/lib/libboard_sabre_ai_rev_a.a(ipu_iomux_config.o)
                              /home/leon/git/swp-report/iMX6_Platform_SDK/output/mx6dq/obds/sabre_ai_rev_a/obj/apps/obds/src/tests/display_test.o (ipu_iomux_config)
/home/leon/git/swp-report/iMX6_Platform_SDK/output/mx6dq/lib/libboard_sabre_ai_rev_a.a(mlb_iomux_config.o)
                              /home/leon/git/swp-report/iMX6_Platform_SDK/output/mx6dq/lib/libboard_sabre_ai_rev_a.a(iomux_config.o) (mlb_iomux_config)
/home/leon/git/swp-report/iMX6_Platform_SDK/output/mx6dq/lib/libboard_sabre_ai_rev_a.a(mmdc_iomux_config.o)
                              /home/leon/git/swp-report/iMX6_Platform_SDK/output/mx6dq/lib/libboard_sabre_ai_rev_a.a(iomux_config.o) (mmdc_iomux_config)
/home/leon/git/swp-report/iMX6_Platform_SDK/output/mx6dq/lib/libboard_sabre_ai_rev_a.a(pwm3_iomux_config.o)
                              /home/leon/git/swp-report/iMX6_Platform_SDK/output/mx6dq/lib/libboard_sabre_ai_rev_a.a(iomux_config.o) (pwm3_iomux_config)
/home/leon/git/swp-report/iMX6_Platform_SDK/output/mx6dq/lib/libboard_sabre_ai_rev_a.a(pwm4_iomux_config.o)
                              /home/leon/git/swp-report/iMX6_Platform_SDK/output/mx6dq/lib/libboard_sabre_ai_rev_a.a(iomux_config.o) (pwm4_iomux_config)
/home/leon/git/swp-report/iMX6_Platform_SDK/output/mx6dq/lib/libboard_sabre_ai_rev_a.a(sjc_iomux_config.o)
                              /home/leon/git/swp-report/iMX6_Platform_SDK/output/mx6dq/lib/libboard_sabre_ai_rev_a.a(iomux_config.o) (sjc_iomux_config)
/home/leon/git/swp-report/iMX6_Platform_SDK/output/mx6dq/lib/libboard_sabre_ai_rev_a.a(spdif_iomux_config.o)
                              /home/leon/git/swp-report/iMX6_Platform_SDK/output/mx6dq/lib/libsdk.a(imx_spdif.o) (spdif_iomux_config)
/home/leon/git/swp-report/iMX6_Platform_SDK/output/mx6dq/lib/libboard_sabre_ai_rev_a.a(uart2_iomux_config.o)
                              /home/leon/git/swp-report/iMX6_Platform_SDK/output/mx6dq/obds/sabre_ai_rev_a/obj/apps/obds/src/tests/gps_test.o (uart2_iomux_config)
/home/leon/git/swp-report/iMX6_Platform_SDK/output/mx6dq/lib/libboard_sabre_ai_rev_a.a(uart3_iomux_config.o)
                              /home/leon/git/swp-report/iMX6_Platform_SDK/output/mx6dq/lib/libboard_sabre_ai_rev_a.a(iomux_config.o) (uart3_iomux_config)
/home/leon/git/swp-report/iMX6_Platform_SDK/output/mx6dq/lib/libboard_sabre_ai_rev_a.a(uart4_iomux_config.o)
                              /home/leon/git/swp-report/iMX6_Platform_SDK/output/mx6dq/lib/libboard_sabre_ai_rev_a.a(iomux_config.o) (uart4_iomux_config)
/home/leon/git/swp-report/iMX6_Platform_SDK/output/mx6dq/lib/libboard_sabre_ai_rev_a.a(uart_iomux_config.o)
                              /home/leon/git/swp-report/iMX6_Platform_SDK/output/mx6dq/lib/libsdk.a(imx_uart.o) (uart_iomux_config)
/home/leon/git/swp-report/iMX6_Platform_SDK/output/mx6dq/lib/libboard_sabre_ai_rev_a.a(usdhc1_iomux_config.o)
                              /home/leon/git/swp-report/iMX6_Platform_SDK/output/mx6dq/lib/libboard_sabre_ai_rev_a.a(iomux_config.o) (usdhc1_iomux_config)
/home/leon/git/swp-report/iMX6_Platform_SDK/output/mx6dq/lib/libboard_sabre_ai_rev_a.a(usdhc3_iomux_config.o)
                              /home/leon/git/swp-report/iMX6_Platform_SDK/output/mx6dq/lib/libboard_sabre_ai_rev_a.a(iomux_config.o) (usdhc3_iomux_config)
/home/leon/git/swp-report/iMX6_Platform_SDK/output/mx6dq/lib/libboard_sabre_ai_rev_a.a(usdhc_iomux_config.o)
                              /home/leon/git/swp-report/iMX6_Platform_SDK/output/mx6dq/lib/libsdk.a(usdhc_host.o) (usdhc_iomux_config)
/home/leon/git/swp-report/iMX6_Platform_SDK/output/mx6dq/lib/libboard_sabre_ai_rev_a.a(wdog1_iomux_config.o)
                              /home/leon/git/swp-report/iMX6_Platform_SDK/output/mx6dq/lib/libboard_sabre_ai_rev_a.a(iomux_config.o) (wdog1_iomux_config)
/home/leon/git/swp-report/iMX6_Platform_SDK/output/mx6dq/lib/libboard_sabre_ai_rev_a.a(ccm_iomux_config.o)
                              /home/leon/git/swp-report/iMX6_Platform_SDK/output/mx6dq/lib/libboard_sabre_ai_rev_a.a(iomux_config.o) (ccm_iomux_config)
/home/leon/git/swp-report/iMX6_Platform_SDK/output/mx6dq/lib/libboard_sabre_ai_rev_a.a(ecspi1_iomux_config.o)
                              /home/leon/git/swp-report/iMX6_Platform_SDK/output/mx6dq/lib/libboard_sabre_ai_rev_a.a(ecspi_iomux_config.o) (ecspi1_iomux_config)
/home/leon/git/swp-report/iMX6_Platform_SDK/output/mx6dq/lib/libboard_sabre_ai_rev_a.a(flexcan1_iomux_config.o)
                              /home/leon/git/swp-report/iMX6_Platform_SDK/output/mx6dq/lib/libboard_sabre_ai_rev_a.a(iomux_config.o) (flexcan1_iomux_config)
/home/leon/git/swp-report/iMX6_Platform_SDK/output/mx6dq/lib/libboard_sabre_ai_rev_a.a(flexcan2_iomux_config.o)
                              /home/leon/git/swp-report/iMX6_Platform_SDK/output/mx6dq/lib/libboard_sabre_ai_rev_a.a(iomux_config.o) (flexcan2_iomux_config)
/home/leon/git/swp-report/iMX6_Platform_SDK/output/mx6dq/lib/libboard_sabre_ai_rev_a.a(gpio1_iomux_config.o)
                              /home/leon/git/swp-report/iMX6_Platform_SDK/output/mx6dq/lib/libboard_sabre_ai_rev_a.a(iomux_config.o) (gpio1_iomux_config)
/home/leon/git/swp-report/iMX6_Platform_SDK/output/mx6dq/lib/libboard_sabre_ai_rev_a.a(gpio2_iomux_config.o)
                              /home/leon/git/swp-report/iMX6_Platform_SDK/output/mx6dq/lib/libboard_sabre_ai_rev_a.a(iomux_config.o) (gpio2_iomux_config)
/home/leon/git/swp-report/iMX6_Platform_SDK/output/mx6dq/lib/libboard_sabre_ai_rev_a.a(gpio4_iomux_config.o)
                              /home/leon/git/swp-report/iMX6_Platform_SDK/output/mx6dq/lib/libboard_sabre_ai_rev_a.a(iomux_config.o) (gpio4_iomux_config)
/home/leon/git/swp-report/iMX6_Platform_SDK/output/mx6dq/lib/libboard_sabre_ai_rev_a.a(gpio5_iomux_config.o)
                              /home/leon/git/swp-report/iMX6_Platform_SDK/output/mx6dq/lib/libboard_sabre_ai_rev_a.a(iomux_config.o) (gpio5_iomux_config)
/home/leon/git/swp-report/iMX6_Platform_SDK/output/mx6dq/lib/libboard_sabre_ai_rev_a.a(gpio6_iomux_config.o)
                              /home/leon/git/swp-report/iMX6_Platform_SDK/output/mx6dq/lib/libboard_sabre_ai_rev_a.a(iomux_config.o) (gpio6_iomux_config)
/home/leon/git/swp-report/iMX6_Platform_SDK/output/mx6dq/lib/libboard_sabre_ai_rev_a.a(gpmi_iomux_config.o)
                              /home/leon/git/swp-report/iMX6_Platform_SDK/output/mx6dq/lib/libboard_sabre_ai_rev_a.a(iomux_config.o) (gpmi_iomux_config)
/home/leon/git/swp-report/iMX6_Platform_SDK/output/mx6dq/lib/libboard_sabre_ai_rev_a.a(i2c2_iomux_config.o)
                              /home/leon/git/swp-report/iMX6_Platform_SDK/output/mx6dq/lib/libboard_sabre_ai_rev_a.a(i2c_iomux_config.o) (i2c2_iomux_config)
/home/leon/riotboard/arm-2012.09/bin/../arm-none-eabi/lib//libc.a(lib_a-assert.o)
                              /home/leon/git/swp-report/iMX6_Platform_SDK/output/mx6dq/lib/libsdk.a(gic.o) (__assert_func)
/home/leon/riotboard/arm-2012.09/bin/../arm-none-eabi/lib//libc.a(lib_a-bzero.o)
                              /home/leon/git/swp-report/iMX6_Platform_SDK/output/mx6dq/lib/libsdk.a(mmu.o) (bzero)
/home/leon/riotboard/arm-2012.09/bin/../arm-none-eabi/lib//libc.a(lib_a-fiprintf.o)
                              /home/leon/riotboard/arm-2012.09/bin/../arm-none-eabi/lib//libc.a(lib_a-assert.o) (fiprintf)
/home/leon/riotboard/arm-2012.09/bin/../arm-none-eabi/lib//libc.a(lib_a-fputc.o)
                              /home/leon/git/swp-report/iMX6_Platform_SDK/output/mx6dq/obds/sabre_ai_rev_a/obj/apps/obds/src/tests/program_mac_address.o (fputc)
/home/leon/riotboard/arm-2012.09/bin/../arm-none-eabi/lib//libc.a(lib_a-impure.o)
                              /home/leon/git/swp-report/iMX6_Platform_SDK/output/mx6dq/obds/sabre_ai_rev_a/obj/apps/obds/src/tests/android_buttons_test.o (_impure_ptr)
/home/leon/riotboard/arm-2012.09/bin/../arm-none-eabi/lib//libc.a(lib_a-init.o)
                              /home/leon/git/swp-report/iMX6_Platform_SDK/output/mx6dq/lib/libsdk.a(startup.o) (__libc_init_array)
/home/leon/riotboard/arm-2012.09/bin/../arm-none-eabi/lib//libc.a(lib_a-malloc.o)
                              /home/leon/git/swp-report/iMX6_Platform_SDK/output/mx6dq/obds/sabre_ai_rev_a/obj/apps/obds/src/obds.o (malloc)
/home/leon/riotboard/arm-2012.09/bin/../arm-none-eabi/lib//libc.a(lib_a-mallocr.o)
                              /home/leon/riotboard/arm-2012.09/bin/../arm-none-eabi/lib//libc.a(lib_a-malloc.o) (_malloc_r)
/home/leon/riotboard/arm-2012.09/bin/../arm-none-eabi/lib//libc.a(lib_a-memcpy.o)
                              /home/leon/git/swp-report/iMX6_Platform_SDK/output/mx6dq/obds/sabre_ai_rev_a/obj/apps/obds/src/tests/i2c_device_id_check_p1003_tsc.o (memcpy)
/home/leon/riotboard/arm-2012.09/bin/../arm-none-eabi/lib//libc.a(lib_a-memset.o)
                              /home/leon/git/swp-report/iMX6_Platform_SDK/output/mx6dq/obds/sabre_ai_rev_a/obj/apps/common/print_version.o (memset)
/home/leon/riotboard/arm-2012.09/bin/../arm-none-eabi/lib//libc.a(lib_a-mlock.o)
                              /home/leon/riotboard/arm-2012.09/bin/../arm-none-eabi/lib//libc.a(lib_a-mallocr.o) (__malloc_lock)
/home/leon/riotboard/arm-2012.09/bin/../arm-none-eabi/lib//libc.a(lib_a-printf.o)
                              /home/leon/git/swp-report/iMX6_Platform_SDK/output/mx6dq/obds/sabre_ai_rev_a/obj/apps/common/print_clock_info.o (printf)
/home/leon/riotboard/arm-2012.09/bin/../arm-none-eabi/lib//libc.a(lib_a-putc.o)
                              /home/leon/riotboard/arm-2012.09/bin/../arm-none-eabi/lib//libc.a(lib_a-fputc.o) (_putc_r)
/home/leon/riotboard/arm-2012.09/bin/../arm-none-eabi/lib//libc.a(lib_a-realloc.o)
                              /home/leon/git/swp-report/iMX6_Platform_SDK/output/mx6dq/lib/libsdk.a(system_util.o) (realloc)
/home/leon/riotboard/arm-2012.09/bin/../arm-none-eabi/lib//libc.a(lib_a-reallocr.o)
                              /home/leon/riotboard/arm-2012.09/bin/../arm-none-eabi/lib//libc.a(lib_a-realloc.o) (_realloc_r)
/home/leon/riotboard/arm-2012.09/bin/../arm-none-eabi/lib//libc.a(lib_a-rget.o)
                              /home/leon/git/swp-report/iMX6_Platform_SDK/output/mx6dq/obds/sabre_ai_rev_a/obj/apps/obds/src/tests/android_buttons_test.o (__srget_r)
/home/leon/riotboard/arm-2012.09/bin/../arm-none-eabi/lib//libc.a(lib_a-sbrkr.o)
                              /home/leon/riotboard/arm-2012.09/bin/../arm-none-eabi/lib//libc.a(lib_a-mallocr.o) (_sbrk_r)
/home/leon/riotboard/arm-2012.09/bin/../arm-none-eabi/lib//libc.a(lib_a-sprintf.o)
                              /home/leon/git/swp-report/iMX6_Platform_SDK/output/mx6dq/obds/sabre_ai_rev_a/obj/apps/obds/src/obds.o (sprintf)
/home/leon/riotboard/arm-2012.09/bin/../arm-none-eabi/lib//libc.a(lib_a-strcat.o)
                              /home/leon/git/swp-report/iMX6_Platform_SDK/output/mx6dq/obds/sabre_ai_rev_a/obj/apps/obds/src/obds.o (strcat)
/home/leon/riotboard/arm-2012.09/bin/../arm-none-eabi/lib//libc.a(lib_a-strcmp.o)
                              /home/leon/git/swp-report/iMX6_Platform_SDK/output/mx6dq/obds/sabre_ai_rev_a/obj/apps/obds/src/obds.o (strcmp)
/home/leon/riotboard/arm-2012.09/bin/../arm-none-eabi/lib//libc.a(lib_a-strcpy.o)
                              /home/leon/git/swp-report/iMX6_Platform_SDK/output/mx6dq/obds/sabre_ai_rev_a/obj/apps/obds/src/obds.o (strcpy)
/home/leon/riotboard/arm-2012.09/bin/../arm-none-eabi/lib//libc.a(lib_a-strlen.o)
                              /home/leon/git/swp-report/iMX6_Platform_SDK/output/mx6dq/lib/libsdk.a(menu.o) (strlen)
/home/leon/riotboard/arm-2012.09/bin/../arm-none-eabi/lib//libc.a(lib_a-strncasecmp.o)
                              /home/leon/git/swp-report/iMX6_Platform_SDK/output/mx6dq/lib/libsdk.a(menu.o) (strncasecmp)
/home/leon/riotboard/arm-2012.09/bin/../arm-none-eabi/lib//libc.a(lib_a-strtok.o)
                              /home/leon/git/swp-report/iMX6_Platform_SDK/output/mx6dq/obds/sabre_ai_rev_a/obj/apps/obds/src/obds.o (strtok)
/home/leon/riotboard/arm-2012.09/bin/../arm-none-eabi/lib//libc.a(lib_a-strtok_r.o)
                              /home/leon/riotboard/arm-2012.09/bin/../arm-none-eabi/lib//libc.a(lib_a-strtok.o) (__strtok_r)
/home/leon/riotboard/arm-2012.09/bin/../arm-none-eabi/lib//libc.a(lib_a-svfprintf.o)
                              /home/leon/riotboard/arm-2012.09/bin/../arm-none-eabi/lib//libc.a(lib_a-sprintf.o) (_svfprintf_r)
/home/leon/riotboard/arm-2012.09/bin/../arm-none-eabi/lib//libc.a(lib_a-vfiprintf.o)
                              /home/leon/riotboard/arm-2012.09/bin/../arm-none-eabi/lib//libc.a(lib_a-fiprintf.o) (_vfiprintf_r)
/home/leon/riotboard/arm-2012.09/bin/../arm-none-eabi/lib//libc.a(lib_a-vfprintf.o)
                              /home/leon/riotboard/arm-2012.09/bin/../arm-none-eabi/lib//libc.a(lib_a-printf.o) (_vfprintf_r)
/home/leon/riotboard/arm-2012.09/bin/../arm-none-eabi/lib//libc.a(lib_a-vprintf.o)
                              /home/leon/git/swp-report/iMX6_Platform_SDK/output/mx6dq/obds/sabre_ai_rev_a/obj/apps/obds/src/obds.o (vprintf)
/home/leon/riotboard/arm-2012.09/bin/../arm-none-eabi/lib//libc.a(lib_a-wbuf.o)
                              /home/leon/riotboard/arm-2012.09/bin/../arm-none-eabi/lib//libc.a(lib_a-putc.o) (__swbuf_r)
/home/leon/riotboard/arm-2012.09/bin/../arm-none-eabi/lib//libc.a(lib_a-wsetup.o)
                              /home/leon/riotboard/arm-2012.09/bin/../arm-none-eabi/lib//libc.a(lib_a-vfiprintf.o) (__swsetup_r)
/home/leon/riotboard/arm-2012.09/bin/../arm-none-eabi/lib//libc.a(lib_a-abort.o)
                              /home/leon/riotboard/arm-2012.09/bin/../arm-none-eabi/lib//libc.a(lib_a-assert.o) (abort)
/home/leon/riotboard/arm-2012.09/bin/../arm-none-eabi/lib//libc.a(lib_a-ctype_.o)
                              /home/leon/riotboard/arm-2012.09/bin/../arm-none-eabi/lib//libc.a(lib_a-strncasecmp.o) (__ctype_ptr__)
/home/leon/riotboard/arm-2012.09/bin/../arm-none-eabi/lib//libc.a(lib_a-dtoa.o)
                              /home/leon/riotboard/arm-2012.09/bin/../arm-none-eabi/lib//libc.a(lib_a-svfprintf.o) (_dtoa_r)
/home/leon/riotboard/arm-2012.09/bin/../arm-none-eabi/lib//libc.a(lib_a-fflush.o)
                              /home/leon/riotboard/arm-2012.09/bin/../arm-none-eabi/lib//libc.a(lib_a-vfiprintf.o) (_fflush_r)
/home/leon/riotboard/arm-2012.09/bin/../arm-none-eabi/lib//libc.a(lib_a-findfp.o)
                              /home/leon/riotboard/arm-2012.09/bin/../arm-none-eabi/lib//libc.a(lib_a-fputc.o) (__sinit)
/home/leon/riotboard/arm-2012.09/bin/../arm-none-eabi/lib//libc.a(lib_a-fputwc.o)
                              /home/leon/riotboard/arm-2012.09/bin/../arm-none-eabi/lib//libc.a(lib_a-vfiprintf.o) (_fputwc_r)
/home/leon/riotboard/arm-2012.09/bin/../arm-none-eabi/lib//libc.a(lib_a-freer.o)
                              /home/leon/riotboard/arm-2012.09/bin/../arm-none-eabi/lib//libc.a(lib_a-malloc.o) (_free_r)
/home/leon/riotboard/arm-2012.09/bin/../arm-none-eabi/lib//libc.a(lib_a-fvwrite.o)
                              /home/leon/riotboard/arm-2012.09/bin/../arm-none-eabi/lib//libc.a(lib_a-vfiprintf.o) (__sfvwrite_r)
/home/leon/riotboard/arm-2012.09/bin/../arm-none-eabi/lib//libc.a(lib_a-fwalk.o)
                              /home/leon/riotboard/arm-2012.09/bin/../arm-none-eabi/lib//libc.a(lib_a-findfp.o) (_fwalk)
/home/leon/riotboard/arm-2012.09/bin/../arm-none-eabi/lib//libc.a(lib_a-locale.o)
                              /home/leon/riotboard/arm-2012.09/bin/../arm-none-eabi/lib//libc.a(lib_a-fputwc.o) (__locale_mb_cur_max)
/home/leon/riotboard/arm-2012.09/bin/../arm-none-eabi/lib//libc.a(lib_a-makebuf.o)
                              /home/leon/riotboard/arm-2012.09/bin/../arm-none-eabi/lib//libc.a(lib_a-wsetup.o) (__smakebuf_r)
/home/leon/riotboard/arm-2012.09/bin/../arm-none-eabi/lib//libc.a(lib_a-memchr.o)
                              /home/leon/riotboard/arm-2012.09/bin/../arm-none-eabi/lib//libc.a(lib_a-svfprintf.o) (memchr)
/home/leon/riotboard/arm-2012.09/bin/../arm-none-eabi/lib//libc.a(lib_a-memmove.o)
                              /home/leon/riotboard/arm-2012.09/bin/../arm-none-eabi/lib//libc.a(lib_a-reallocr.o) (memmove)
/home/leon/riotboard/arm-2012.09/bin/../arm-none-eabi/lib//libc.a(lib_a-mprec.o)
                              /home/leon/riotboard/arm-2012.09/bin/../arm-none-eabi/lib//libc.a(lib_a-dtoa.o) (_Balloc)
/home/leon/riotboard/arm-2012.09/bin/../arm-none-eabi/lib//libc.a(lib_a-reent.o)
                              /home/leon/riotboard/arm-2012.09/bin/../arm-none-eabi/lib//libc.a(lib_a-sbrkr.o) (errno)
/home/leon/riotboard/arm-2012.09/bin/../arm-none-eabi/lib//libc.a(lib_a-refill.o)
                              /home/leon/riotboard/arm-2012.09/bin/../arm-none-eabi/lib//libc.a(lib_a-rget.o) (__srefill_r)
/home/leon/riotboard/arm-2012.09/bin/../arm-none-eabi/lib//libc.a(lib_a-s_fpclassify.o)
                              /home/leon/riotboard/arm-2012.09/bin/../arm-none-eabi/lib//libc.a(lib_a-svfprintf.o) (__fpclassifyd)
/home/leon/riotboard/arm-2012.09/bin/../arm-none-eabi/lib//libc.a(lib_a-signal.o)
                              /home/leon/riotboard/arm-2012.09/bin/../arm-none-eabi/lib//libc.a(lib_a-abort.o) (raise)
/home/leon/riotboard/arm-2012.09/bin/../arm-none-eabi/lib//libc.a(lib_a-signalr.o)
                              /home/leon/riotboard/arm-2012.09/bin/../arm-none-eabi/lib//libc.a(lib_a-signal.o) (_kill_r)
/home/leon/riotboard/arm-2012.09/bin/../arm-none-eabi/lib//libc.a(lib_a-stdio.o)
                              /home/leon/riotboard/arm-2012.09/bin/../arm-none-eabi/lib//libc.a(lib_a-findfp.o) (__sread)
/home/leon/riotboard/arm-2012.09/bin/../arm-none-eabi/lib//libc.a(lib_a-svfiprintf.o)
                              /home/leon/riotboard/arm-2012.09/bin/../arm-none-eabi/lib//libc.a(lib_a-svfprintf.o) (__ssprint_r)
/home/leon/riotboard/arm-2012.09/bin/../arm-none-eabi/lib//libc.a(lib_a-wcrtomb.o)
                              /home/leon/riotboard/arm-2012.09/bin/../arm-none-eabi/lib//libc.a(lib_a-fputwc.o) (_wcrtomb_r)
/home/leon/riotboard/arm-2012.09/bin/../arm-none-eabi/lib//libc.a(lib_a-wctomb_r.o)
                              /home/leon/riotboard/arm-2012.09/bin/../arm-none-eabi/lib//libc.a(lib_a-wcrtomb.o) (__wctomb)
/home/leon/riotboard/arm-2012.09/bin/../arm-none-eabi/lib//libc.a(lib_a-writer.o)
                              /home/leon/riotboard/arm-2012.09/bin/../arm-none-eabi/lib//libc.a(lib_a-stdio.o) (_write_r)
/home/leon/riotboard/arm-2012.09/bin/../arm-none-eabi/lib//libc.a(lib_a-callocr.o)
                              /home/leon/riotboard/arm-2012.09/bin/../arm-none-eabi/lib//libc.a(lib_a-mprec.o) (_calloc_r)
/home/leon/riotboard/arm-2012.09/bin/../arm-none-eabi/lib//libc.a(lib_a-closer.o)
                              /home/leon/riotboard/arm-2012.09/bin/../arm-none-eabi/lib//libc.a(lib_a-stdio.o) (_close_r)
/home/leon/riotboard/arm-2012.09/bin/../arm-none-eabi/lib//libc.a(lib_a-fclose.o)
                              /home/leon/riotboard/arm-2012.09/bin/../arm-none-eabi/lib//libc.a(lib_a-findfp.o) (fclose)
/home/leon/riotboard/arm-2012.09/bin/../arm-none-eabi/lib//libc.a(lib_a-fstatr.o)
                              /home/leon/riotboard/arm-2012.09/bin/../arm-none-eabi/lib//libc.a(lib_a-makebuf.o) (_fstat_r)
/home/leon/riotboard/arm-2012.09/bin/../arm-none-eabi/lib//libc.a(lib_a-isattyr.o)
                              /home/leon/riotboard/arm-2012.09/bin/../arm-none-eabi/lib//libc.a(lib_a-makebuf.o) (_isatty_r)
/home/leon/riotboard/arm-2012.09/bin/../arm-none-eabi/lib//libc.a(lib_a-lseekr.o)
                              /home/leon/riotboard/arm-2012.09/bin/../arm-none-eabi/lib//libc.a(lib_a-stdio.o) (_lseek_r)
/home/leon/riotboard/arm-2012.09/bin/../arm-none-eabi/lib//libc.a(lib_a-readr.o)
                              /home/leon/riotboard/arm-2012.09/bin/../arm-none-eabi/lib//libc.a(lib_a-stdio.o) (_read_r)
/home/leon/riotboard/arm-2012.09/bin/../lib/gcc/arm-none-eabi/4.7.2//libgcc.a(_udivsi3.o)
                              /home/leon/git/swp-report/iMX6_Platform_SDK/output/mx6dq/obds/sabre_ai_rev_a/obj/sdk/drivers/spi/test/imx_spi_nor_atmel.o (__aeabi_uidiv)
/home/leon/riotboard/arm-2012.09/bin/../lib/gcc/arm-none-eabi/4.7.2//libgcc.a(_divsi3.o)
                              /home/leon/git/swp-report/iMX6_Platform_SDK/output/mx6dq/lib/libsdk.a(ipu_common.o) (__aeabi_idiv)
/home/leon/riotboard/arm-2012.09/bin/../lib/gcc/arm-none-eabi/4.7.2//libgcc.a(_dvmd_tls.o)
                              /home/leon/riotboard/arm-2012.09/bin/../lib/gcc/arm-none-eabi/4.7.2//libgcc.a(_udivsi3.o) (__aeabi_idiv0)
/home/leon/riotboard/arm-2012.09/bin/../lib/gcc/arm-none-eabi/4.7.2//libgcc.a(_arm_addsubdf3.o)
                              /home/leon/riotboard/arm-2012.09/bin/../arm-none-eabi/lib//libc.a(lib_a-dtoa.o) (__aeabi_dsub)
/home/leon/riotboard/arm-2012.09/bin/../lib/gcc/arm-none-eabi/4.7.2//libgcc.a(_arm_muldivdf3.o)
                              /home/leon/riotboard/arm-2012.09/bin/../arm-none-eabi/lib//libc.a(lib_a-dtoa.o) (__aeabi_dmul)
/home/leon/riotboard/arm-2012.09/bin/../lib/gcc/arm-none-eabi/4.7.2//libgcc.a(_arm_cmpdf2.o)
                              /home/leon/riotboard/arm-2012.09/bin/../arm-none-eabi/lib//libc.a(lib_a-svfprintf.o) (__aeabi_dcmpeq)
/home/leon/riotboard/arm-2012.09/bin/../lib/gcc/arm-none-eabi/4.7.2//libgcc.a(_arm_fixdfsi.o)
                              /home/leon/riotboard/arm-2012.09/bin/../arm-none-eabi/lib//libc.a(lib_a-dtoa.o) (__aeabi_d2iz)
/home/leon/riotboard/arm-2012.09/bin/../lib/gcc/arm-none-eabi/4.7.2//libgcc.a(_aeabi_uldivmod.o)
                              /home/leon/git/swp-report/iMX6_Platform_SDK/output/mx6dq/lib/libsdk.a(timer.o) (__aeabi_uldivmod)
/home/leon/riotboard/arm-2012.09/bin/../lib/gcc/arm-none-eabi/4.7.2//libgcc.a(bpabi.o)
                              /home/leon/riotboard/arm-2012.09/bin/../lib/gcc/arm-none-eabi/4.7.2//libgcc.a(_aeabi_uldivmod.o) (__gnu_uldivmod_helper)
/home/leon/riotboard/arm-2012.09/bin/../lib/gcc/arm-none-eabi/4.7.2//libgcc.a(_divdi3.o)
                              /home/leon/riotboard/arm-2012.09/bin/../lib/gcc/arm-none-eabi/4.7.2//libgcc.a(bpabi.o) (__divdi3)
/home/leon/riotboard/arm-2012.09/bin/../lib/gcc/arm-none-eabi/4.7.2//libgcc.a(_udivdi3.o)
                              /home/leon/riotboard/arm-2012.09/bin/../lib/gcc/arm-none-eabi/4.7.2//libgcc.a(bpabi.o) (__udivdi3)
/home/leon/riotboard/arm-2012.09/bin/../lib/gcc/arm-none-eabi/4.7.2//libgcc.a(_clzsi2.o)
                              /home/leon/riotboard/arm-2012.09/bin/../lib/gcc/arm-none-eabi/4.7.2//libgcc.a(_divdi3.o) (__clzsi2)
/home/leon/git/swp-report/iMX6_Platform_SDK/output/mx6dq/lib/libsdk.a(runtime_support.o)
                              /home/leon/riotboard/arm-2012.09/bin/../arm-none-eabi/lib//libc.a(lib_a-isattyr.o) (_isatty)

Allocating common symbols
Common symbol       size              file

errno               0x4               /home/leon/riotboard/arm-2012.09/bin/../arm-none-eabi/lib//libc.a(lib_a-reent.o)

Memory Configuration

Name             Origin             Length             Attributes
OCRAM            0x00900000         0x00040000         xrw
DDR              0x10000000         0x80000000         xrw
*default*        0x00000000         0xffffffff

Linker script and memory map

LOAD /home/leon/riotboard/arm-2012.09/bin/../lib/gcc/arm-none-eabi/4.7.2//crtbegin.o
LOAD /home/leon/riotboard/arm-2012.09/bin/../lib/gcc/arm-none-eabi/4.7.2//crti.o
LOAD /home/leon/riotboard/arm-2012.09/bin/../lib/gcc/arm-none-eabi/4.7.2//crtend.o
LOAD /home/leon/riotboard/arm-2012.09/bin/../lib/gcc/arm-none-eabi/4.7.2//crtn.o

.l1_page_table  0x00900000     0x4000
                0x00900000                __l1_page_table_start = .
                0x00904000                . = (. + 0x4000)
 *fill*         0x00900000     0x4000 

.heap.ocram     0x00904000    0x3bfb8
                0x00904000                __heap_ocram_start = .
                0x0093ffb8                . = (. + 0x3bfb8)
 *fill*         0x00904000    0x3bfb8 
                0x0093ffb8                __heap_ocram_end = .

.ram_vectors    0x0093ffb8       0x48
                0x0093ffb8                __ram_vectors_start = .
                0x00940000                . = (. + 0x48)
 *fill*         0x0093ffb8       0x48 
                0x00940000                __ram_vectors_end = .
                0x10000000                _start_image_add = ORIGIN (DDR)

.ivt            0x10000000      0x420
                0x10000400                . = (. + 0x400)
 *fill*         0x10000000      0x400 
 *(.ivt)
 .ivt           0x10000400       0x20 /home/leon/git/swp-report/iMX6_Platform_SDK/output/mx6dq/obds/sabre_ai_rev_a/obj/apps/common/ivt.o
                0x10000400                input_ivt

.boot_data      0x10000420        0xc
                0x10000420                __start_boot_data = .
 *(.boot_data)
 .boot_data     0x10000420        0xc /home/leon/git/swp-report/iMX6_Platform_SDK/output/mx6dq/obds/sabre_ai_rev_a/obj/apps/common/ivt.o
                0x10000420                bd

.dcd_hdr        0x10000430        0x4
                0x10000430                __start_dcd = .
 *(.dcd_hdr)
 .dcd_hdr       0x10000430        0x4 /home/leon/git/swp-report/iMX6_Platform_SDK/output/mx6dq/lib/libboard_sabre_ai_rev_a.a(dcd.o)
                0x10000430                input_dcd_hdr

.dcd_wrt_cmd    0x10000434        0x4
 *(.dcd_wrt_cmd)
 .dcd_wrt_cmd   0x10000434        0x4 /home/leon/git/swp-report/iMX6_Platform_SDK/output/mx6dq/lib/libboard_sabre_ai_rev_a.a(dcd.o)
                0x10000434                input_dcd_wrt_cmd

.dcd_data       0x10000438      0x298
 *(.dcd_data)
 .dcd_data      0x10000438      0x298 /home/leon/git/swp-report/iMX6_Platform_SDK/output/mx6dq/lib/libboard_sabre_ai_rev_a.a(dcd.o)
                0x10000438                input_dcd

.text           0x100006d0    0x5e114
 CREATE_OBJECT_SYMBOLS
 *(.startup)
 .startup       0x100006d0      0x138 /home/leon/git/swp-report/iMX6_Platform_SDK/output/mx6dq/lib/libsdk.a(startup.o)
                0x100006d0                _start
 *(.text .text.* .gnu.linkonce.t.*)
 .text          0x10000808      0x128 /home/leon/riotboard/arm-2012.09/bin/../lib/gcc/arm-none-eabi/4.7.2//crtbegin.o
 .text          0x10000930        0x0 /home/leon/riotboard/arm-2012.09/bin/../lib/gcc/arm-none-eabi/4.7.2//crti.o
 .text          0x10000930        0x0 /home/leon/riotboard/arm-2012.09/bin/../lib/gcc/arm-none-eabi/4.7.2//crtend.o
 .text          0x10000930        0x0 /home/leon/riotboard/arm-2012.09/bin/../lib/gcc/arm-none-eabi/4.7.2//crtn.o
 .text          0x10000930        0x0 /home/leon/git/swp-report/iMX6_Platform_SDK/output/mx6dq/obds/sabre_ai_rev_a/obj/apps/common/ivt.o
 .text          0x10000930       0x98 /home/leon/git/swp-report/iMX6_Platform_SDK/output/mx6dq/obds/sabre_ai_rev_a/obj/apps/common/platform_init.o
                0x10000930                platform_init
 .text          0x100009c8       0xfc /home/leon/git/swp-report/iMX6_Platform_SDK/output/mx6dq/obds/sabre_ai_rev_a/obj/apps/common/print_clock_info.o
                0x100009c8                show_freq
                0x10000ab4                show_ddr_config
 .text          0x10000ac4      0x15c /home/leon/git/swp-report/iMX6_Platform_SDK/output/mx6dq/obds/sabre_ai_rev_a/obj/apps/common/print_version.o
                0x10000ac4                print_version
 .text          0x10000c20     0x11c8 /home/leon/git/swp-report/iMX6_Platform_SDK/output/mx6dq/obds/sabre_ai_rev_a/obj/apps/obds/src/obds.o
                0x10000c20                main
                0x10000f88                free_test_results
                0x10001020                printf_hook
                0x100011ec                prompt_run_test
                0x10001290                print_test_passed
                0x100012dc                print_test_skipped
                0x10001328                print_test_failed
                0x10001380                print_test_not_implemented
                0x100013d8                run_test
                0x10001624                report_test_results
                0x100019ec                run_all_tests
                0x10001c78                select_tests
 .text          0x10001de8      0x770 /home/leon/git/swp-report/iMX6_Platform_SDK/output/mx6dq/obds/sabre_ai_rev_a/obj/apps/obds/src/obds_utils.o
                0x10001de8                show_boot_switch_info
 .text          0x10002558      0x330 /home/leon/git/swp-report/iMX6_Platform_SDK/output/mx6dq/obds/sabre_ai_rev_a/obj/apps/obds/src/tests/android_buttons_test.o
                0x10002558                configure_android_button
                0x100025c0                init_android_buttons
                0x10002610                check_android_button_status
                0x1000275c                android_buttons_test
 .text          0x10002888      0x414 /home/leon/git/swp-report/iMX6_Platform_SDK/output/mx6dq/obds/sabre_ai_rev_a/obj/apps/obds/src/tests/audio_esai_test.o
                0x10002888                esai_test
 .text          0x10002c9c      0x3e4 /home/leon/git/swp-report/iMX6_Platform_SDK/output/mx6dq/obds/sabre_ai_rev_a/obj/apps/obds/src/tests/audio_ssi_test.o
                0x10002c9c                audio_test_init
                0x10002dc0                i2s_audio_test
 .text          0x10003080      0x620 /home/leon/git/swp-report/iMX6_Platform_SDK/output/mx6dq/obds/sabre_ai_rev_a/obj/apps/obds/src/tests/ddr_test.o
                0x10003080                get_ddr_density
                0x10003144                ddr_test
 .text          0x100036a0      0x2e4 /home/leon/git/swp-report/iMX6_Platform_SDK/output/mx6dq/obds/sabre_ai_rev_a/obj/apps/obds/src/tests/deserializer_ds90ur124.o
                0x100036a0                deserializer_io_config
                0x100036b4                ds90ur124_init
                0x100036e8                ds90ur124_receive_cnx_test
                0x100038ac                ds90ur124_test_main
 .text          0x10003984      0x744 /home/leon/git/swp-report/iMX6_Platform_SDK/output/mx6dq/obds/sabre_ai_rev_a/obj/apps/obds/src/tests/display_test.o
                0x10003984                hdmi_720p_init
                0x10003f1c                ipu_display_test_main
 .text          0x100040c8      0x978 /home/leon/git/swp-report/iMX6_Platform_SDK/output/mx6dq/obds/sabre_ai_rev_a/obj/apps/obds/src/tests/enet_mx6dldq_test.o
                0x1000425c                enet_test_main
                0x100044fc                ar8031_test_main
                0x100047ac                KSZ9021RN_test_main
 .text          0x10004a40       0xb4 /home/leon/git/swp-report/iMX6_Platform_SDK/output/mx6dq/obds/sabre_ai_rev_a/obj/apps/obds/src/tests/flexcan_test.o
                0x10004a40                flexcan_test
 .text          0x10004af4      0x278 /home/leon/git/swp-report/iMX6_Platform_SDK/output/mx6dq/obds/sabre_ai_rev_a/obj/apps/obds/src/tests/fm_tuner_si476x_test.o
                0x10004cd8                si476x_test_main
 .text          0x10004d6c      0x1d8 /home/leon/git/swp-report/iMX6_Platform_SDK/output/mx6dq/obds/sabre_ai_rev_a/obj/apps/obds/src/tests/gpio_led.o
                0x10004d6c                gpio_led_test
 .text          0x10004f44       0xd4 /home/leon/git/swp-report/iMX6_Platform_SDK/output/mx6dq/obds/sabre_ai_rev_a/obj/apps/obds/src/tests/gps_test.o
                0x10004f44                gps_test
 .text          0x10005018      0x5d0 /home/leon/git/swp-report/iMX6_Platform_SDK/output/mx6dq/obds/sabre_ai_rev_a/obj/apps/obds/src/tests/i2c_check_light_sensor_isl29023.o
                0x10005500                i2c_device_id_check_isl29023
 .text          0x100055e8      0x294 /home/leon/git/swp-report/iMX6_Platform_SDK/output/mx6dq/obds/sabre_ai_rev_a/obj/apps/obds/src/tests/i2c_device_barometer_ppl3115.o
                0x100057c0                i2c_device_id_check_ppl3115
                0x10005850                i2c_device_ppl3115_test
 .text          0x1000587c       0xf0 /home/leon/git/swp-report/iMX6_Platform_SDK/output/mx6dq/obds/sabre_ai_rev_a/obj/apps/obds/src/tests/i2c_device_check_cs42888.o
                0x1000587c                i2c_device_check_cs42888
 .text          0x1000596c      0x1ac /home/leon/git/swp-report/iMX6_Platform_SDK/output/mx6dq/obds/sabre_ai_rev_a/obj/apps/obds/src/tests/i2c_device_digital_compass_mag3110.o
                0x1000596c                mag3110_reg_read
                0x10005a80                i2c_device_id_check_mag3110
 .text          0x10005b18      0x1b4 /home/leon/git/swp-report/iMX6_Platform_SDK/output/mx6dq/obds/sabre_ai_rev_a/obj/apps/obds/src/tests/i2c_device_digital_compass_mag3112.o
                0x10005b18                mag3112_reg_read
                0x10005c2c                i2c_device_id_check_mag3112
 .text          0x10005ccc      0x964 /home/leon/git/swp-report/iMX6_Platform_SDK/output/mx6dq/obds/sabre_ai_rev_a/obj/apps/obds/src/tests/i2c_device_id_check_mma8450.o
                0x10005ea4                i2c_device_id_check_MMA8450
                0x10005f50                mma8450_set_config
                0x10006058                mma8450_get_accel
                0x10006464                mma8450_show_accel
 .text          0x10006630      0x97c /home/leon/git/swp-report/iMX6_Platform_SDK/output/mx6dq/obds/sabre_ai_rev_a/obj/apps/obds/src/tests/i2c_device_id_check_mma8451.o
                0x10006808                i2c_device_id_check_MMA8451
                0x100068c0                mma8451_set_config
                0x100069d4                mma8451_get_accel
                0x10006de0                mma8451_show_accel
 .text          0x10006fac      0x86c /home/leon/git/swp-report/iMX6_Platform_SDK/output/mx6dq/obds/sabre_ai_rev_a/obj/apps/obds/src/tests/i2c_device_id_check_p1003_tsc.o
                0x10006fac                p1003_version_reg_read
                0x10007104                p1003_version_reg_write
                0x10007268                i2c_device_id_check_p1003
                0x100073b4                p1003_get_touch
                0x10007614                p1003_show_touch
 .text          0x10007818      0x6e8 /home/leon/git/swp-report/iMX6_Platform_SDK/output/mx6dq/obds/sabre_ai_rev_a/obj/apps/obds/src/tests/i2c_device_temp_sensor_emc1046.o
                0x10007d4c                wait_convertion_done
                0x10007dc0                i2c_device_id_check_emc1046
                0x10007ed4                i2c_device_emc1046_test
 .text          0x10007f00      0x36c /home/leon/git/swp-report/iMX6_Platform_SDK/output/mx6dq/obds/sabre_ai_rev_a/obj/apps/obds/src/tests/i2c_device_zigbee_mc1323.o
                0x10008140                i2c_device_id_check_mc1323
                0x10008204                i2c_device_mc1323_test
 .text          0x1000826c      0x358 /home/leon/git/swp-report/iMX6_Platform_SDK/output/mx6dq/obds/sabre_ai_rev_a/obj/apps/obds/src/tests/i2c_eeprom_at24cxx_test.o
 .text          0x100085c4      0x6d4 /home/leon/git/swp-report/iMX6_Platform_SDK/output/mx6dq/obds/sabre_ai_rev_a/obj/apps/obds/src/tests/imx_spi_nor_test.o
                0x100085c4                spi_nor_query
                0x10008624                spi_nor_write
                0x1000869c                spi_nor_read
                0x10008714                spi_nor_erase
                0x10008780                spi_nor_test
 .text          0x10008c98      0x3b4 /home/leon/git/swp-report/iMX6_Platform_SDK/output/mx6dq/obds/sabre_ai_rev_a/obj/apps/obds/src/tests/mlb_os81050.o
                0x10008c98                mlb_io_config
                0x10008ca8                os81050_i2c_init
                0x10008d30                os81050_read_status
                0x10008e8c                os81050_get_message
                0x10008fac                os81050_test_main
 .text          0x1000904c      0x25c /home/leon/git/swp-report/iMX6_Platform_SDK/output/mx6dq/obds/sabre_ai_rev_a/obj/apps/obds/src/tests/mmcsd_test.o
                0x1000904c                mmcsd_test
 .text          0x100092a8      0x658 /home/leon/git/swp-report/iMX6_Platform_SDK/output/mx6dq/obds/sabre_ai_rev_a/obj/apps/obds/src/tests/pmic_da9053.o
                0x100092a8                da9053_i2c_reg
                0x100097f8                i2c_device_id_check_DA9053
                0x100098b0                pmic_da9053_test
 .text          0x10009900     0x138c /home/leon/git/swp-report/iMX6_Platform_SDK/output/mx6dq/obds/sabre_ai_rev_a/obj/apps/obds/src/tests/pmic_lt3589.o
                0x10009900                ltc3589_reg_read
                0x100099f8                ltc3589_reg_write
                0x10009ae0                ltc3589_eval
                0x1000a690                ltc3589_backlight_en
                0x1000a8a4                ltc3589_camera_power_on
                0x1000aa6c                sil9024_hdmi_power_on1
                0x1000ab9c                ltc3589_i2c_device_id_check
                0x1000ac3c                pmic_lt3589_test
 .text          0x1000ac8c      0x2f8 /home/leon/git/swp-report/iMX6_Platform_SDK/output/mx6dq/obds/sabre_ai_rev_a/obj/apps/obds/src/tests/pmic_max17135.o
                0x1000ac8c                max17135_reg_read
                0x1000ad7c                max17135_reg_write
                0x1000aed4                i2c_device_id_check_MAX17135
 .text          0x1000af84      0x3a0 /home/leon/git/swp-report/iMX6_Platform_SDK/output/mx6dq/obds/sabre_ai_rev_a/obj/apps/obds/src/tests/pmic_mc13892.o
                0x1000af84                mc13892_i2c_reg
                0x1000afc4                pmic_open_vgen1
                0x1000b0ac                pmic_open_vusb
                0x1000b178                pmic_open_vsd
                0x1000b294                device_id_check_mc13892
                0x1000b2c4                pmic_mc13892_test
 .text          0x1000b324      0x77c /home/leon/git/swp-report/iMX6_Platform_SDK/output/mx6dq/obds/sabre_ai_rev_a/obj/apps/obds/src/tests/program_board_id.o
                0x1000b354                program_board_id_fuses
                0x1000b554                program_board_id
 .text          0x1000baa0      0x8cc /home/leon/git/swp-report/iMX6_Platform_SDK/output/mx6dq/obds/sabre_ai_rev_a/obj/apps/obds/src/tests/program_mac_address.o
                0x1000bad0                read_mac_otp_registers
                0x1000bb8c                mac_address_str
                0x1000bc2c                program_mac_address_fuses
                0x1000bea4                program_mac_address
 .text          0x1000c36c      0x1fc /home/leon/git/swp-report/iMX6_Platform_SDK/output/mx6dq/obds/sabre_ai_rev_a/obj/apps/obds/src/tests/snvs_srtc_test.o
                0x1000c36c                snvs_srtc_test
 .text          0x1000c568        0x0 /home/leon/git/swp-report/iMX6_Platform_SDK/output/mx6dq/obds/sabre_ai_rev_a/obj/apps/obds/src/tests/touch_button_test.o
 .text          0x1000c568      0x6e0 /home/leon/git/swp-report/iMX6_Platform_SDK/output/mx6dq/obds/sabre_ai_rev_a/obj/apps/obds/src/tests/touch_screen.o
                0x1000c568                DA9053_Write
                0x1000c654                DA9053_Read
                0x1000c738                touch_init
                0x1000c7b8                touch_get_xy_value
                0x1000c8f4                touch_detect
                0x1000c9e8                touch_screen_prompt
                0x1000cb0c                touch_screen_test
 .text          0x1000cc48      0xb68 /home/leon/git/swp-report/iMX6_Platform_SDK/output/mx6dq/obds/sabre_ai_rev_a/obj/apps/obds/src/tests/touch_screen_max11801.o
                0x1000d010                max11801_ts_test
                0x1000d16c                max11801_reg_read_single
                0x1000d280                max11801_reg_read_multi
                0x1000d38c                max11801_reg_write
                0x1000d468                i2c_device_check_max11801_AUX
                0x1000d588                i2c_device_check_max11801
 .text          0x1000d7b0      0x524 /home/leon/git/swp-report/iMX6_Platform_SDK/output/mx6dq/obds/sabre_ai_rev_a/obj/apps/obds/src/tests/usb_tests_obds.o
                0x1000d7b0                usbo_dev_enum_test
                0x1000d820                usbh_dev_enum_test
                0x1000d890                usb_enum_device
 .text          0x1000dcd4      0x148 /home/leon/git/swp-report/iMX6_Platform_SDK/output/mx6dq/obds/sabre_ai_rev_a/obj/apps/obds/src/tests/video_dec_ARD_MB_reset_button.o
                0x1000dcd4                ard_mb_reset_test
 .text          0x1000de1c       0xa0 /home/leon/git/swp-report/iMX6_Platform_SDK/output/mx6dq/obds/sabre_ai_rev_a/obj/apps/obds/src/tests/video_dec_ARD_MBrst_from_cpu_expander.o
                0x1000de1c                ard_mb_expander_reset_test
 .text          0x1000debc      0x468 /home/leon/git/swp-report/iMX6_Platform_SDK/output/mx6dq/obds/sabre_ai_rev_a/obj/apps/obds/src/tests/video_dec_adv7180.o
                0x1000debc                adv7180_i2c_init_obds
                0x1000df1c                adv7180_reg_read
                0x1000dfcc                adv7180_reg_write
                0x1000e084                adv7180_set_tristate_output
                0x1000e0a0                adv7180_i2c_device_id_check
                0x1000e0fc                adv7180_set_gpio_output
                0x1000e188                adv7180_test_main
 .text          0x1000e324      0x324 /home/leon/git/swp-report/iMX6_Platform_SDK/output/mx6dq/obds/sabre_ai_rev_a/obj/apps/obds/src/tests/weim_nor_flash_test.o
                0x1000e324                weim_nor_flash_cs_setup
                0x1000e370                eim_nor_flash_test
                0x1000e3e0                m29w256gl_auto_manu_id
                0x1000e4c8                m29w256gl_auto_dev_id
 .text          0x1000e648       0xfc /home/leon/git/swp-report/iMX6_Platform_SDK/output/mx6dq/obds/sabre_ai_rev_a/obj/sdk/common/ioexpander/test/max7310_test.o
                0x1000e648                max7310_i2c_device_id_check
 .text          0x1000e744      0x478 /home/leon/git/swp-report/iMX6_Platform_SDK/output/mx6dq/obds/sabre_ai_rev_a/obj/sdk/common/pmic/pfuse/pf0100.o
                0x1000e744                pf0100_reg_read
                0x1000e834                pf0100_reg_write
                0x1000e924                pf0100_enable_vgen1_1v2
                0x1000e974                pf0100_enable_vgen2_1v5
                0x1000e9c4                pf0100_enable_vgen3_1v8
                0x1000ea14                pf0100_enable_vgen4_1v8
                0x1000ea64                pf0100_enable_vgen4_2v5
                0x1000eab4                pf0100_enable_vgen6_2v8
                0x1000eb04                pf0100_i2c_device_id_check
 .text          0x1000ebbc      0x438 /home/leon/git/swp-report/iMX6_Platform_SDK/output/mx6dq/obds/sabre_ai_rev_a/obj/sdk/drivers/audio/src/snd_card.o
 .text          0x1000eff4      0x300 /home/leon/git/swp-report/iMX6_Platform_SDK/output/mx6dq/obds/sabre_ai_rev_a/obj/sdk/drivers/camera/test/adv7180_capture.o
                0x1000eff4                adv7180_capture
 .text          0x1000f2f4      0x204 /home/leon/git/swp-report/iMX6_Platform_SDK/output/mx6dq/obds/sabre_ai_rev_a/obj/sdk/drivers/camera/test/camera_test.o
                0x1000f2f4                camera_test
 .text          0x1000f4f8      0x2f0 /home/leon/git/swp-report/iMX6_Platform_SDK/output/mx6dq/obds/sabre_ai_rev_a/obj/sdk/drivers/camera/test/csi_test_mode.o
                0x1000f4f8                csi_test_mode
 .text          0x1000f7e8      0x2b8 /home/leon/git/swp-report/iMX6_Platform_SDK/output/mx6dq/obds/sabre_ai_rev_a/obj/sdk/drivers/camera/test/sensor_capture.o
                0x1000f7e8                sensor_capture
 .text          0x1000faa0      0x82c /home/leon/git/swp-report/iMX6_Platform_SDK/output/mx6dq/obds/sabre_ai_rev_a/obj/sdk/drivers/hdmi/test/hdmi_test.o
                0x1000faa0                hdmi_test
                0x1000fe0c                init_hdmi_interrupt
                0x1000febc                hdmi_tx_ISR
                0x1000ff4c                hdmi_1080P60_video_output
                0x1001010c                hdmi_720P60_video_output
 .text          0x100102cc      0x540 /home/leon/git/swp-report/iMX6_Platform_SDK/output/mx6dq/obds/sabre_ai_rev_a/obj/sdk/drivers/hdmi/test/init_dma_data.o
                0x100102cc                init_dma_data
 .text          0x1001080c      0xd18 /home/leon/git/swp-report/iMX6_Platform_SDK/output/mx6dq/obds/sabre_ai_rev_a/obj/sdk/drivers/ipu/test/ips_display.o
                0x1001080c                ips_display_test
                0x10010948                ips_hdmi_stream
                0x10010aa8                ips_hdmi_720P60_stream
                0x10010d6c                ips_hdmi_1080P60_stream
                0x10010fc4                ips_ext_hdmi_transmitter_1080P60_stream
                0x100111e4                ips_hannstar_xga_yuv_stream
                0x10011484                ips_mipi_wvga_rgb_stream
 .text          0x10011524      0x538 /home/leon/git/swp-report/iMX6_Platform_SDK/output/mx6dq/obds/sabre_ai_rev_a/obj/sdk/drivers/ipu/test/ipu_image.o
                0x10011524                load_centralized_image
                0x10011660                load_foreground_image
                0x100116ac                load_horiz_image
                0x1001181c                set_background_margin
                0x1001190c                load_vert_image
 .text          0x10011a5c      0x33c /home/leon/git/swp-report/iMX6_Platform_SDK/output/mx6dq/obds/sabre_ai_rev_a/obj/sdk/drivers/sata/test/sata_test.o
                0x10011b1c                sata_test
 .text          0x10011d98     0x10b4 /home/leon/git/swp-report/iMX6_Platform_SDK/output/mx6dq/obds/sabre_ai_rev_a/obj/sdk/drivers/spi/test/imx_spi_nor_atmel.o
                0x10011d98                spi_nor_query_atmel
                0x10011edc                spi_nor_write_atmel
                0x100128bc                spi_nor_erase_atmel
                0x10012a60                spi_nor_read_atmel
 .text          0x10012e4c      0xb00 /home/leon/git/swp-report/iMX6_Platform_SDK/output/mx6dq/obds/sabre_ai_rev_a/obj/sdk/drivers/spi/test/spi_nor_numonyx.o
                0x10013124                spi_nor_query_numonyx
                0x100131f0                spi_nor_erase_numonyx
                0x1001327c                spi_nor_read_numonyx
                0x100134c4                spi_nor_write_numonyx
 .text          0x1001394c      0x24c /home/leon/git/swp-report/iMX6_Platform_SDK/output/mx6dq/obds/sabre_ai_rev_a/obj/sdk/drivers/uart/test/uart_test.o
                0x1001394c                uart_interrupt_handler
                0x100139a4                uart_test
 .text          0x10013b98     0x39f0 /home/leon/git/swp-report/iMX6_Platform_SDK/output/mx6dq/obds/sabre_ai_rev_a/obj/sdk/drivers/usb/test/usb0_host_test.o
                0x10013b98                usb0_host_test
                0x100146cc                emuerateDevice
                0x1001484c                usbh_set_device_address
                0x10014f74                usbh_get_dev_desc
                0x100156c4                usbh_get_config_desc
                0x10015e54                usbh_get_interface_desc
                0x100166c4                usbh_set_configuration
                0x10016e00                usbh_get_report_desc
 .text          0x10017588      0x978 /home/leon/git/swp-report/iMX6_Platform_SDK/output/mx6dq/obds/sabre_ai_rev_a/obj/sdk/drivers/usb/test/usb0_host_testmodes_test.o
                0x10017588                usb0_host_testmodes_test
 .text          0x10017f00      0xcf4 /home/leon/git/swp-report/iMX6_Platform_SDK/output/mx6dq/obds/sabre_ai_rev_a/obj/sdk/drivers/usdhc/test/usdhc_test.o
                0x10017f00                mmc_sd_test
                0x10017f34                usdhc_test
 .text          0x10018bf4      0x264 /home/leon/git/swp-report/iMX6_Platform_SDK/output/mx6dq/lib/libsdk.a(max7310.o)
                0x10018bf4                max7310_reg_read
                0x10018c58                max7310_reg_write
                0x10018cc4                max7310_init
                0x10018da4                max7310_set_gpio_output
 .text          0x10018e58      0xcdc /home/leon/git/swp-report/iMX6_Platform_SDK/output/mx6dq/lib/libsdk.a(ccm_pll.o)
                0x10018e58                ccm_init
                0x10018f7c                get_main_clock
                0x1001920c                get_peri_clock
                0x100193bc                ccm_ccgr_config
                0x10019424                clock_gating_config
                0x100198a4                ccm_set_lpm_wakeup_source
                0x10019998                ccm_enter_low_power
                0x10019a08                ipu_hsp_clk_config
                0x10019a28                gpu_clock_config
 .text          0x10019b34      0x164 /home/leon/git/swp-report/iMX6_Platform_SDK/output/mx6dq/lib/libsdk.a(cortexA9.o)
                0x10019b34                arm_set_interrupt_state
                0x10019b58                cpu_get_current
                0x10019b64                enable_neon_fpu
                0x10019b80                disable_strict_align_check
                0x10019b94                disable_L1_cache
                0x10019bb4                get_arm_private_peripheral_base
                0x10019bbc                arm_unified_tlb_invalidate
                0x10019bcc                arm_unified_tlb_invalidate_is
                0x10019bdc                arm_branch_prediction_enable
                0x10019bec                arm_branch_prediction_disable
                0x10019bfc                arm_branch_target_cache_invalidate
                0x10019c08                arm_branch_target_cache_invalidate_is
                0x10019c14                scu_enable
                0x10019c28                scu_join_smp
                0x10019c38                scu_leave_smp
                0x10019c48                scu_get_cpus_in_smp
                0x10019c5c                scu_enable_maintenance_broadcast
                0x10019c6c                scu_disable_maintenance_broadcast
                0x10019c7c                scu_secure_invalidate
 .text          0x10019c98      0x5e0 /home/leon/git/swp-report/iMX6_Platform_SDK/output/mx6dq/lib/libsdk.a(gic.o)
                0x10019d7c                gic_enable
                0x10019ddc                gic_set_irq_security
                0x10019e84                gic_enable_irq
                0x10019f00                gic_set_irq_priority
                0x10019f48                gic_set_cpu_target
                0x1001a054                gic_send_sgi
                0x1001a0a8                gic_cpu_enable
                0x1001a108                gic_set_cpu_priority_mask
                0x1001a13c                gic_read_irq_ack
                0x1001a168                gic_write_end_of_irq
                0x1001a198                gic_init
                0x1001a23c                gic_init_cpu
 .text          0x1001a278      0x1bc /home/leon/git/swp-report/iMX6_Platform_SDK/output/mx6dq/lib/libsdk.a(interrupt.o)
                0x1001a278                IRQ_HDLR
                0x1001a340                disable_interrupt
                0x1001a37c                enable_interrupt
                0x1001a3d4                register_interrupt_routine
                0x1001a408                default_interrupt_routine
 .text          0x1001a434      0x460 /home/leon/git/swp-report/iMX6_Platform_SDK/output/mx6dq/lib/libsdk.a(mmu.o)
                0x1001a434                mmu_enable
                0x1001a46c                mmu_disable
                0x1001a4a0                mmu_init
                0x1001a5bc                mmu_map_l1_range
                0x1001a7d4                mmu_virtual_to_physical
 .text          0x1001a894        0x0 /home/leon/git/swp-report/iMX6_Platform_SDK/output/mx6dq/lib/libsdk.a(startup.o)
 .text          0x1001a894        0x4 /home/leon/git/swp-report/iMX6_Platform_SDK/output/mx6dq/lib/libsdk.a(vectors.o)
                0x1001a894                exception_handler
 .text.vectors  0x1001a898       0x48 /home/leon/git/swp-report/iMX6_Platform_SDK/output/mx6dq/lib/libsdk.a(vectors.o)
                0x1001a898                vectors
 .text          0x1001a8e0      0xc78 /home/leon/git/swp-report/iMX6_Platform_SDK/output/mx6dq/lib/libsdk.a(menu.o)
                0x1001ad88                menu_get_indent
                0x1001ada4                menuitem_cmd_showmenu
                0x1001adc8                menuitem_cmd_exitmenu
                0x1001adec                menu_append_menuitems
                0x1001af0c                menu_present
                0x1001b4a8                menu_print_menuitem
 .text          0x1001b558        0x0 /home/leon/git/swp-report/iMX6_Platform_SDK/output/mx6dq/lib/libsdk.a(sdk_version.o)
 .text          0x1001b558      0x914 /home/leon/git/swp-report/iMX6_Platform_SDK/output/mx6dq/lib/libsdk.a(system_util.o)
                0x1001b558                _sys_exit
                0x1001b574                mybkpt
                0x1001b57c                is_input_char
                0x1001b6fc                read_input_string
                0x1001b9e4                get_input_hex
                0x1001bc64                read_int
                0x1001bdc8                jump_to_sdp
 .text          0x1001be6c       0xe0 /home/leon/git/swp-report/iMX6_Platform_SDK/output/mx6dq/lib/libsdk.a(text_color.o)
                0x1001be6c                printf_color
                0x1001bf08                get_color_supported
 .text          0x1001bf4c      0x408 /home/leon/git/swp-report/iMX6_Platform_SDK/output/mx6dq/lib/libsdk.a(cs42888.o)
                0x1001c094                cs42888_init
                0x1001c0cc                cs42888_dev_info
                0x1001c120                cs42888_config
                0x1001c304                cs42888_deinit
 .text          0x1001c354     0x2990 /home/leon/git/swp-report/iMX6_Platform_SDK/output/mx6dq/lib/libsdk.a(imx-ssi.o)
                0x1001e288                ssi_init
                0x1001e2c8                ssi_config
                0x1001e7dc                ssi_write_fifo
                0x1001e9d4                ssi_read_fifo
                0x1001eb94                ssi_deinit
 .text          0x1001ece4      0xe0c /home/leon/git/swp-report/iMX6_Platform_SDK/output/mx6dq/lib/libsdk.a(imx_esai.o)
                0x1001f53c                esai_config
                0x1001f8a4                esai_init
                0x1001f8e0                esai_deinit
                0x1001f904                esai_write_fifo
 .text          0x1001faf0      0x708 /home/leon/git/swp-report/iMX6_Platform_SDK/output/mx6dq/lib/libsdk.a(imx_spdif.o)
                0x1001fe68                spdif_init
                0x1001fea4                spdif_config
                0x100200d8                spdif_write_fifo
                0x100201d4                spdif_deinit
 .text          0x100201f8     0x1100 /home/leon/git/swp-report/iMX6_Platform_SDK/output/mx6dq/lib/libsdk.a(sgtl5000.o)
                0x10020bf4                sgtl5000_init
                0x10021168                sgtl5000_i2s_config
                0x100212c4                sgtl5000_deinit
 .text          0x100212f8      0xeb4 /home/leon/git/swp-report/iMX6_Platform_SDK/output/mx6dq/lib/libsdk.a(wm8958_dac.o)
                0x100214a4                WM8958_dump
                0x100219e8                WM8958_DAC_configure
                0x10022118                WM8958_DAC_init
                0x10022180                WM8958_DAC_deinit
 .text          0x100221ac      0xb7c /home/leon/git/swp-report/iMX6_Platform_SDK/output/mx6dq/lib/libsdk.a(wm8962.o)
                0x100224b0                WM8962_dump
                0x100224e0                WM8962_DAC_configure
                0x10022c08                WM8962_DAC_init
                0x10022cfc                WM8962_DAC_deinit
 .text          0x10022d28      0x7c4 /home/leon/git/swp-report/iMX6_Platform_SDK/output/mx6dq/lib/libsdk.a(board_id.o)
                0x10022d28                chip_name
                0x10022e40                chip_revision
                0x10022f18                board_name
                0x1002301c                board_revision
                0x100230e4                board_description
                0x10023204                get_board_id
                0x100232e0                show_board_id
 .text          0x100234ec      0xa88 /home/leon/git/swp-report/iMX6_Platform_SDK/output/mx6dq/lib/libsdk.a(smd_sensor.o)
                0x10023884                sensor_config
                0x100238c0                sensor_search
                0x10023a50                sensor_init
                0x10023bc4                sensor_af_trigger
                0x10023ca4                sensor_autofocus_init
                0x10023e24                camera_strobeflash_on
                0x10023f00                camera_strobeflash_off
 .text          0x10023f74     0x17e0 /home/leon/git/swp-report/iMX6_Platform_SDK/output/mx6dq/lib/libsdk.a(enet_drv.o)
                0x10023f74                imx_enet_mii_read
                0x10024084                imx_enet_mii_write
                0x10024558                enet_phy_rework_ar8031
                0x100246cc                enet_phy_rework_ksz9021
                0x100247c0                imx_enet_phy_init
                0x10024a40                imx_enet_get_phy_status
                0x10024d68                imx_enet_phy_enable_external_loopback
                0x10024e84                imx_enet_poll
                0x10024f7c                imx_enet_send
                0x10025094                imx_enet_recv
                0x10025270                imx_enet_init
                0x100253c4                imx_enet_start
                0x10025458                imx_enet_stop
                0x1002549c                imx_enet_isolate_phy
                0x10025540                imx_enet_unisolate_phy
                0x10025608                imx_enet_mii_type
 .text          0x10025754     0x1308 /home/leon/git/swp-report/iMX6_Platform_SDK/output/mx6dq/lib/libsdk.a(gpio.o)
                0x10025784                gpio_get_port_count
                0x1002579c                gpio_set_gpio
                0x10025860                gpio_set_direction
                0x10025abc                gpio_get_direction
                0x10025c04                gpio_set_level
                0x10025f44                gpio_get_level
                0x100260a4                gpio_set_interrupt_config
                0x100264a8                gpio_set_interrupt_mask
                0x100266ec                gpio_get_interrupt_status
                0x10026848                gpio_clear_interrupt
 .text          0x10026a5c        0x0 /home/leon/git/swp-report/iMX6_Platform_SDK/output/mx6dq/lib/libsdk.a(imx6dq_gpio_map.o)
 .text          0x10026a5c     0x1334 /home/leon/git/swp-report/iMX6_Platform_SDK/output/mx6dq/lib/libsdk.a(hdmi_tx.o)
                0x10026a5c                hdmi_config_input_source
                0x10026a9c                hdmi_video_sample
                0x10026ce4                update_csc_coeffs
                0x100271f8                hdmi_video_csc
                0x10027398                hdmi_video_packetize
                0x10027764                preamble_filter_set
                0x10027824                hdmi_av_frame_composer
                0x10027c6c                hdmi_tx_hdcp_config
                0x10027cd8                hdmi_config_force_video
                0x10027d30                hdmi_config_forced_pixels
 .text          0x10027d90      0xd24 /home/leon/git/swp-report/iMX6_Platform_SDK/output/mx6dq/lib/libsdk.a(hdmi_tx_audio.o)
                0x10027d90                hdmi_audio_mute
                0x10027de0                audio_PacketLayout
                0x10027e20                audio_DMA_InterruptMask
                0x10027e50                audio_DMA_InterruptPolarity
                0x10027e80                audio_DMA_ResetFIFO
                0x10027ea4                audio_clk_N
                0x10027f04                audio_clk_CTS
                0x10027fa4                audio_ComputeN
                0x100282c4                audio_ComputeCTS
                0x10028500                audio_DMA_StartAddr
                0x10028578                audio_DMA_StopAddr
                0x100285f0                audio_DMA_LockEnable
                0x10028630                audio_DMA_BurstMode
                0x10028670                audio_DMA_IncrType
                0x100286b0                audio_DMA_Threshold
                0x100286e0                audio_DMA_SetCONF1
                0x10028710                audio_DMA_Start
                0x10028734                audio_Configure
                0x100287ec                Audio_ChannelCount
                0x100288dc                audio_Configure_DMA
                0x10028a74                audio_info_config
 .text          0x10028ab4     0x14fc /home/leon/git/swp-report/iMX6_Platform_SDK/output/mx6dq/lib/libsdk.a(hdmi_tx_phy.o)
                0x10028ab4                hdmi_phy_int_mask
                0x10029f1c                hdmi_phy_init
 .text          0x10029fb0     0x14bc /home/leon/git/swp-report/iMX6_Platform_SDK/output/mx6dq/lib/libsdk.a(imx_i2c.o)
                0x10029fe0                i2c_get_request_instance
                0x1002a930                i2c_xfer
                0x1002af8c                i2c_read
                0x1002afbc                i2c_write
                0x1002afec                i2c_setup_interrupt
                0x1002b1f8                i2c_init
 .text          0x1002b46c      0x474 /home/leon/git/swp-report/iMX6_Platform_SDK/output/mx6dq/lib/libsdk.a(ips_disp_panel.o)
                0x1002b700                search_panel
                0x1002b7c0                list_panel
                0x1002b858                get_panel_by_id
 .text          0x1002b8e0      0xff4 /home/leon/git/swp-report/iMX6_Platform_SDK/output/mx6dq/lib/libsdk.a(ipu_common.o)
                0x1002b8e0                need_csc
                0x1002b948                ipu_write_field
                0x1002ba00                ipu_read
                0x1002ba6c                ipu_write
                0x1002bad4                ipu_enable_display
                0x1002bb40                ipu_disable_display
                0x1002bbc0                ipu_sw_reset
                0x1002bca0                ipu_display_setup
                0x1002be14                ipu_dual_display_setup
                0x1002bf18                ipu_capture_setup
                0x1002c384                ipu_capture_streamoff
                0x1002c458                ipu_mipi_csi2_setup
                0x1002c650                ipu1_ch0_eobnd_isr
                0x1002c82c                ipu_ch0_eobnd_interrupt_register
 .text          0x1002c8d4      0xcb8 /home/leon/git/swp-report/iMX6_Platform_SDK/output/mx6dq/lib/libsdk.a(ipu_csi.o)
                0x1002c8d4                ipu_csi_config
                0x1002cf18                ipu_smfc_fifo_allocate
                0x1002d074                ipu_capture_disp_link
                0x1002d1a0                ipu_disable_csi
                0x1002d20c                ipu_disable_smfc
                0x1002d240                ipu_csi_test_mode_color
 .text          0x1002d58c     0x1bec /home/leon/git/swp-report/iMX6_Platform_SDK/output/mx6dq/lib/libsdk.a(ipu_dc.o)
                0x1002d58c                ipu_dc_config
                0x1002d87c                ipu_dc_write_channel_config
                0x1002db34                ipu_dc_display_config
                0x1002dcc8                ipu_dc_map
                0x1002e05c                ipu_dc_microcode_config
                0x1002ee1c                ipu_dc_microcode_event
 .text          0x1002f178      0xfec /home/leon/git/swp-report/iMX6_Platform_SDK/output/mx6dq/lib/libsdk.a(ipu_di.o)
                0x1002f178                ipu_di_config
                0x1002f7a8                ipu_di_waveform_config
                0x1002f870                ipu_di_screen_set
                0x1002f904                ipu_di_pointer_config
                0x1002fa68                ipu_di_bsclk_gen
                0x1002fba0                ipu_di_sync_config
                0x1002fea8                ipu_di_interface_set
 .text          0x10030164      0x3e0 /home/leon/git/swp-report/iMX6_Platform_SDK/output/mx6dq/lib/libsdk.a(ipu_dmfc.o)
                0x10030164                ipu_dmfc_config
                0x100303f8                ipu_dmfc_alloc
 .text          0x10030544      0x5b0 /home/leon/git/swp-report/iMX6_Platform_SDK/output/mx6dq/lib/libsdk.a(ipu_dp.o)
                0x10030544                ipu_dp_config
                0x10030598                ipu_dp_csc_config
                0x10030950                ipu_dp_fg_config
 .text          0x10030af4     0x2e08 /home/leon/git/swp-report/iMX6_Platform_SDK/output/mx6dq/lib/libsdk.a(ipu_idmac.o)
                0x10030af4                ipu_cpmem_set_field
                0x10030c20                ipu_cpmem_mod_field
                0x10030dac                ipu_cpmem_read_field
                0x10030f08                ipu_channel_buf_ready
                0x10031080                ipu_channel_buf_not_ready
                0x100311f8                ipu_idmac_channel_mode_sel
                0x10031280                ipu_idmac_channel_enable
                0x10031308                ipu_idmac_channel_busy
                0x100313c8                ipu_general_idmac_config
                0x100319b0                ipu_disp_bg_idmac_config
                0x10031a98                ipu_disp_fg_idmac_config
                0x10031b80                ipu_dma_update_buffer
                0x10031c9c                ipu_idmac_chan_cur_buff
                0x10031d48                ipu_rotate_idmac_config
                0x10031e7c                ipu_resize_idmac_config
                0x10031fb8                ipu_deinterlace_idmac_config
                0x1003210c                ipu_idma_pixel_format_config
 .text          0x100338fc      0x598 /home/leon/git/swp-report/iMX6_Platform_SDK/output/mx6dq/lib/libsdk.a(ipu_vdi.o)
                0x100338fc                ipu_deinterlace_3_fields
                0x1003394c                ipu_vdi_set_top_field_man
                0x100339c0                ipu_vdi_set_motion
                0x10033ac8                ipu_vdi_init
                0x10033c0c                ipu_vdi_uninit
                0x10033c54                ips_deinterlace_proc
 .text          0x10033e94      0x4ac /home/leon/git/swp-report/iMX6_Platform_SDK/output/mx6dq/lib/libsdk.a(ldb.o)
                0x10034064                ldb_config
                0x1003429c                ldb_set_vs_polarity
 .text          0x10034340      0x3f4 /home/leon/git/swp-report/iMX6_Platform_SDK/output/mx6dq/lib/libsdk.a(ocotp.o)
                0x100343ac                Delay4Reload
                0x100345f0                ocotp_sense_fuse
                0x10034660                ocotp_fuse_blow_row
                0x100346bc                ocotp_reload_otp_shadow_registers
 .text          0x10034734     0x2a8c /home/leon/git/swp-report/iMX6_Platform_SDK/output/mx6dq/lib/libsdk.a(sata.o)
                0x10034734                sata_pio_read_sector
                0x100348cc                sata_pio_write_sector
                0x10034a58                sata_dma_read_sector
                0x10034be4                sata_dma_write_sector
                0x10034d70                sata_disk_read_sector
                0x10034eb8                sata_disk_write_sector
                0x10035014                printf_buffer
                0x10035074                print_identify_data
                0x100369dc                sata_init
                0x10036f68                sata_deinit
                0x100370a4                sata_identify
 .text          0x100371c0     0x15e4 /home/leon/git/swp-report/iMX6_Platform_SDK/output/mx6dq/lib/libsdk.a(ecspi.o)
                0x10037870                ecspi_configure
                0x10038378                ecspi_open
                0x10038448                ecspi_close
                0x10038584                ecspi_xfer
 .text          0x100387a4      0x290 /home/leon/git/swp-report/iMX6_Platform_SDK/output/mx6dq/lib/libsdk.a(timer.o)
                0x100387a4                hal_delay_us
                0x10038814                system_time_init
                0x10038974                time_get_microseconds
 .text          0x10038a34     0x2820 /home/leon/git/swp-report/iMX6_Platform_SDK/output/mx6dq/lib/libsdk.a(imx_uart.o)
                0x10038a34                uart_get_reffreq
                0x10038b30                uart_putchar
                0x10038c80                uart_getchar
                0x10038de0                uart_set_FIFO_mode
                0x1003990c                uart_set_loopback_mode
                0x10039b60                uart_setup_interrupt
                0x10039c2c                uart_init
 .text          0x1003b254      0x3a8 /home/leon/git/swp-report/iMX6_Platform_SDK/output/mx6dq/lib/libsdk.a(usb_common.o)
                0x1003b254                usb_get_port_speed
                0x1003b3f0                swap32
                0x1003b46c                get_menu_item
 .text          0x1003b5fc     0x37f0 /home/leon/git/swp-report/iMX6_Platform_SDK/output/mx6dq/lib/libsdk.a(usbh_drv.o)
                0x1003b5fc                usbh_init
                0x1003c58c                usbh_periodic_schedule_init
                0x1003dde4                usbh_bus_reset
                0x1003e0e8                usbh_enable_asynchronous_schedule
                0x1003e3ec                usbh_disable_asynchronous_schedule
                0x1003e6f0                usbh_disable_Periodic_list
                0x1003e9f4                usbh_qtd_init
                0x1003ec1c                usbh_qh_init
 .text          0x1003edec     0x11b8 /home/leon/git/swp-report/iMX6_Platform_SDK/output/mx6dq/lib/libsdk.a(usdhc.o)
                0x1003f004                set_card_access_mode
                0x1003f044                read_usdhc_adma_mode
                0x1003f064                read_usdhc_intr_mode
                0x1003f084                card_init
                0x1003f234                card_emmc_init
                0x1003f2c8                card_cmd_config
                0x1003f3dc                card_get_cid
                0x1003f47c                card_enter_trans
                0x1003f558                card_trans_status
                0x1003f654                card_get_port
                0x1003f73c                card_set_blklen
                0x1003f820                card_data_read
                0x1003fb0c                card_data_write
                0x1003fe0c                card_xfer_result
                0x1003ff00                card_wait_xfer_done
 .text          0x1003ffa4     0x3484 /home/leon/git/swp-report/iMX6_Platform_SDK/output/mx6dq/lib/libsdk.a(usdhc_host.o)
                0x10041384                usdhc1_isr
                0x1004139c                usdhc2_isr
                0x100413b4                usdhc3_isr
                0x100413cc                usdhc4_isr
                0x100413e4                host_init
                0x10041414                host_init_active
                0x100414bc                host_send_cmd
                0x100418e4                host_cfg_clock
                0x10042080                host_set_bus_width
                0x100420b8                host_reset
                0x100421e8                host_read_response
                0x100423d8                host_cfg_block
                0x10042654                host_clear_fifo
                0x10042800                host_setup_adma
                0x10042a20                host_data_read
                0x10042f28                host_data_write
 .text          0x10043428      0xe04 /home/leon/git/swp-report/iMX6_Platform_SDK/output/mx6dq/lib/libsdk.a(usdhc_mmc.o)
                0x100439c8                mmc_init
                0x10043a6c                emmc_init
                0x10043b98                emmc_print_cfg_info
                0x10043dd0                mmc_set_boot_bus_width
                0x10043e98                mmc_set_boot_partition
                0x10043f98                mmc_set_boot_ack
                0x1004401c                mmc_voltage_validation
 .text          0x1004422c      0x800 /home/leon/git/swp-report/iMX6_Platform_SDK/output/mx6dq/lib/libsdk.a(usdhc_sd.o)
                0x100445c0                sd_init
                0x10044678                sd_voltage_validation
 .text          0x10044a2c      0x614 /home/leon/git/swp-report/iMX6_Platform_SDK/output/mx6dq/lib/libsdk.a(adv7180.o)
                0x10044dcc                adv7180_init
                0x10044e80                adv7180_get_std
                0x10044f10                adv7180_is_interlaced_mode
 .text          0x10045040       0x98 /home/leon/git/swp-report/iMX6_Platform_SDK/output/mx6dq/lib/libsdk.a(arm_abort.o)
                0x10045040                common_abort_handler
                0x100450a0                data_abort_handler
                0x100450b8                prefetch_abort_handler
 .text          0x100450d8      0x644 /home/leon/git/swp-report/iMX6_Platform_SDK/output/mx6dq/lib/libsdk.a(armv7_cache.o)
                0x100450d8                arm_dcache_state_query
                0x10045118                arm_dcache_enable
                0x10045160                arm_dcache_disable
                0x10045198                arm_dcache_invalidate
                0x1004523c                arm_dcache_invalidate_line
                0x100452a8                arm_dcache_invalidate_mlines
                0x10045348                arm_dcache_flush
                0x100453ec                arm_dcache_flush_line
                0x10045458                arm_dcache_flush_mlines
                0x100454f8                arm_icache_state_query
                0x10045538                arm_icache_enable
                0x10045580                arm_icache_disable
                0x100455b8                arm_icache_invalidate
                0x100455e4                arm_icache_invalidate_is
                0x10045610                arm_icache_invalidate_line
                0x1004567c                arm_icache_invalidate_mlines
 .text          0x1004571c        0x0 /home/leon/git/swp-report/iMX6_Platform_SDK/output/mx6dq/lib/libsdk.a(camera_profile.o)
 .text          0x1004571c     0x1e94 /home/leon/git/swp-report/iMX6_Platform_SDK/output/mx6dq/lib/libsdk.a(hdmi_common.o)
                0x1004571c                isColorSpaceConversion
                0x10045758                isColorSpaceDecimation
                0x10045794                isColorSpaceInterpolation
                0x100457e8                isPixelRepetition
                0x10045820                hdmi_set_video_mode
 .text          0x100475b0     0x16a4 /home/leon/git/swp-report/iMX6_Platform_SDK/output/mx6dq/lib/libsdk.a(ipu_ic.o)
                0x100475b0                ipu_ic_enable
                0x100475fc                ipu_ic_rotation_config
                0x10047808                ipu_ic_resize_config
                0x10047d5c                ipu_ic_deinterlace_config
                0x10047f38                ipu_ic_calc_resize_coeffs
                0x10048050                ipu_ic_config_resize_rate
                0x1004818c                ipu_ic_combine_config
                0x10048348                ipu_ic_csc_config
                0x10048a54                ipu_ic_task_enable
 .text          0x10048c54      0x8e0 /home/leon/git/swp-report/iMX6_Platform_SDK/output/mx6dq/lib/libsdk.a(epit.o)
                0x10048c54                epit_reload_counter
                0x10048cb4                epit_get_counter_value
                0x10048d10                epit_set_compare_event
                0x10048d70                epit_get_compare_event
                0x10048e68                epit_counter_disable
                0x1004902c                epit_counter_enable
                0x10049288                epit_setup_interrupt
                0x10049318                epit_init
 .text          0x10049534      0x2fc /home/leon/git/swp-report/iMX6_Platform_SDK/output/mx6dq/lib/libsdk.a(mx6x_usb.o)
                0x10049534                usbEnableClocks
                0x1004965c                usbEnableTransceiver
 .text          0x10049830      0x4bc /home/leon/git/swp-report/iMX6_Platform_SDK/output/mx6dq/lib/libsdk.a(abort_handler.o)
                0x10049830                dump_regs
 .text          0x10049cec      0x100 /home/leon/git/swp-report/iMX6_Platform_SDK/output/mx6dq/lib/libboard_sabre_ai_rev_a.a(board_audio.o)
                0x10049cec                SGTL5000PowerUp_and_clockinit
                0x10049cfc                spdif_get_tx_clk_freq
                0x10049d18                audio_codec_power_on
                0x10049d28                audio_clock_config
                0x10049d38                spdif_clk_cfg
                0x10049d9c                esai_codec_power_on
                0x10049db4                esai_clk_sel_gate_on
 .text          0x10049dec       0x9c /home/leon/git/swp-report/iMX6_Platform_SDK/output/mx6dq/lib/libboard_sabre_ai_rev_a.a(board_buttons.o)
                0x10049dec                android_buttons_iomux_config
 .text          0x10049e88      0x388 /home/leon/git/swp-report/iMX6_Platform_SDK/output/mx6dq/lib/libboard_sabre_ai_rev_a.a(board_camera.o)
                0x10049e88                camera_power_on
                0x10049e98                csi_port0_iomux_config
                0x10049ec8                camera_ipu1_iomux_config
                0x1004a064                sensor_reset
                0x1004a0fc                sensor_standby
                0x1004a178                sensor_clock_setting
 .text          0x1004a210      0x344 /home/leon/git/swp-report/iMX6_Platform_SDK/output/mx6dq/lib/libboard_sabre_ai_rev_a.a(board_display.o)
                0x1004a210                lvds_power_on
                0x1004a260                disable_para_panel
                0x1004a2b0                tftlcd_backlight_en
                0x1004a38c                tftlcd_reset
                0x1004a3b8                ldb_clock_config
                0x1004a4e8                epdc_clock_setting
                0x1004a504                epdc_power_supply
 .text          0x1004a554      0x248 /home/leon/git/swp-report/iMX6_Platform_SDK/output/mx6dq/lib/libboard_sabre_ai_rev_a.a(board_hdmi.o)
                0x1004a554                hdmi_tx_cec_pgm_iomux
                0x1004a598                hdmi_tx_ddc_pgm_iomux
                0x1004a610                hdmi_tx_phydtb_pgm_iomux
                0x1004a660                hdmi_pgm_iomux
                0x1004a680                ext_hdmi_transmitter_power_on
                0x1004a690                hdmi_clock_set
 .text          0x1004a79c        0x0 /home/leon/git/swp-report/iMX6_Platform_SDK/output/mx6dq/lib/libboard_sabre_ai_rev_a.a(board_i2c.o)
 .text          0x1004a79c      0x10c /home/leon/git/swp-report/iMX6_Platform_SDK/output/mx6dq/lib/libboard_sabre_ai_rev_a.a(board_io_expanders.o)
                0x1004a79c                board_ioexpander_init
                0x1004a894                board_ioexpander_iomux_config
 .text          0x1004a8a8      0x144 /home/leon/git/swp-report/iMX6_Platform_SDK/output/mx6dq/lib/libboard_sabre_ai_rev_a.a(board_mipi.o)
                0x1004a8a8                mipi_cam_power_on
                0x1004a8f4                mipi_backlight_en
                0x1004a904                mipi_display_reset
                0x1004a914                mipi_clock_set
                0x1004a944                mipi_csi2_clock_set
 .text          0x1004a9ec       0x88 /home/leon/git/swp-report/iMX6_Platform_SDK/output/mx6dq/lib/libboard_sabre_ai_rev_a.a(board_network.o)
                0x1004a9ec                imx_ar8031_iomux
                0x1004aa00                imx_KSZ9021RN_reset
                0x1004aa10                imx_ar8031_reset
                0x1004aa20                imx_enet_iomux
                0x1004aa60                imx_enet_phy_reset
 .text          0x1004aa74      0x174 /home/leon/git/swp-report/iMX6_Platform_SDK/output/mx6dq/lib/libboard_sabre_ai_rev_a.a(board_sata.o)
                0x1004aa74                sata_power_on
                0x1004aa84                sata_power_off
                0x1004aaa8                enable_extrn_100mhz_clk
                0x1004ab18                sata_clock_enable
                0x1004ab94                sata_clock_disable
                0x1004abc0                sata_get_phy_src_clk
 .text          0x1004abe8      0x100 /home/leon/git/swp-report/iMX6_Platform_SDK/output/mx6dq/lib/libboard_sabre_ai_rev_a.a(board_usb.o)
                0x1004abe8                usbEnableVbus
                0x1004ac64                usbDisableVbus
                0x1004acd8                reset_usb_hub
 .text          0x1004ace8      0x214 /home/leon/git/swp-report/iMX6_Platform_SDK/output/mx6dq/lib/libboard_sabre_ai_rev_a.a(board_usdhc.o)
                0x1004ace8                usdhc_gpio_config
                0x1004ad88                usdhc_card_detected
                0x1004ae74                usdhc_write_protected
 .text          0x1004aefc        0x0 /home/leon/git/swp-report/iMX6_Platform_SDK/output/mx6dq/lib/libboard_sabre_ai_rev_a.a(hardware_modules.o)
 .text          0x1004aefc        0x0 /home/leon/git/swp-report/iMX6_Platform_SDK/output/mx6dq/lib/libboard_sabre_ai_rev_a.a(dcd.o)
 .text          0x1004aefc      0x13c /home/leon/git/swp-report/iMX6_Platform_SDK/output/mx6dq/lib/libboard_sabre_ai_rev_a.a(audmux_iomux_config.o)
                0x1004aefc                audmux_iomux_config
 .text          0x1004b038       0x90 /home/leon/git/swp-report/iMX6_Platform_SDK/output/mx6dq/lib/libboard_sabre_ai_rev_a.a(ecspi_iomux_config.o)
                0x1004b038                ecspi_iomux_config
 .text          0x1004b0c8      0x5f0 /home/leon/git/swp-report/iMX6_Platform_SDK/output/mx6dq/lib/libboard_sabre_ai_rev_a.a(eim_iomux_config.o)
                0x1004b0c8                eim_iomux_config
 .text          0x1004b6b8      0x3bc /home/leon/git/swp-report/iMX6_Platform_SDK/output/mx6dq/lib/libboard_sabre_ai_rev_a.a(enet_iomux_config.o)
                0x1004b6b8                enet_iomux_config
 .text          0x1004ba74      0x218 /home/leon/git/swp-report/iMX6_Platform_SDK/output/mx6dq/lib/libboard_sabre_ai_rev_a.a(esai_iomux_config.o)
                0x1004ba74                esai_iomux_config
 .text          0x1004bc8c       0x78 /home/leon/git/swp-report/iMX6_Platform_SDK/output/mx6dq/lib/libboard_sabre_ai_rev_a.a(i2c3_iomux_config.o)
                0x1004bc8c                i2c3_iomux_config
 .text          0x1004bd04       0x74 /home/leon/git/swp-report/iMX6_Platform_SDK/output/mx6dq/lib/libboard_sabre_ai_rev_a.a(i2c_iomux_config.o)
                0x1004bd04                i2c_iomux_config
 .text          0x1004bd78      0x2c4 /home/leon/git/swp-report/iMX6_Platform_SDK/output/mx6dq/lib/libboard_sabre_ai_rev_a.a(iomux_config.o)
                0x1004bd78                iomux_config
                0x1004bdfc                arm_iomux_config
                0x1004be0c                asrc_iomux_config
                0x1004be1c                dcic1_iomux_config
                0x1004be2c                dcic2_iomux_config
                0x1004be3c                ecspi2_iomux_config
                0x1004be4c                ecspi3_iomux_config
                0x1004be5c                ecspi4_iomux_config
                0x1004be6c                ecspi5_iomux_config
                0x1004be7c                epit1_iomux_config
                0x1004be8c                epit2_iomux_config
                0x1004be9c                gpio3_iomux_config
                0x1004beac                gpio7_iomux_config
                0x1004bebc                gpt_iomux_config
                0x1004becc                hdmi_iomux_config
                0x1004bedc                i2c1_iomux_config
                0x1004beec                ipu2_iomux_config
                0x1004befc                kpp_iomux_config
                0x1004bf0c                ldb_iomux_config
                0x1004bf1c                mipi_csi_iomux_config
                0x1004bf2c                mipi_dsi_iomux_config
                0x1004bf3c                mipi_hsi_iomux_config
                0x1004bf4c                pcie_iomux_config
                0x1004bf5c                pmu_iomux_config
                0x1004bf6c                pwm1_iomux_config
                0x1004bf7c                pwm2_iomux_config
                0x1004bf8c                sata_phy_iomux_config
                0x1004bf9c                sdma_iomux_config
                0x1004bfac                snvs_iomux_config
                0x1004bfbc                src_iomux_config
                0x1004bfcc                uart1_iomux_config
                0x1004bfdc                uart5_iomux_config
                0x1004bfec                usb_iomux_config
                0x1004bffc                usdhc2_iomux_config
                0x1004c00c                usdhc4_iomux_config
                0x1004c01c                wdog2_iomux_config
                0x1004c02c                xtalosc_iomux_config
 .text          0x1004c03c      0x5f8 /home/leon/git/swp-report/iMX6_Platform_SDK/output/mx6dq/lib/libboard_sabre_ai_rev_a.a(ipu1_iomux_config.o)
                0x1004c03c                ipu1_iomux_config
 .text          0x1004c634       0x68 /home/leon/git/swp-report/iMX6_Platform_SDK/output/mx6dq/lib/libboard_sabre_ai_rev_a.a(ipu_iomux_config.o)
                0x1004c634                ipu_iomux_config
 .text          0x1004c69c       0xac /home/leon/git/swp-report/iMX6_Platform_SDK/output/mx6dq/lib/libboard_sabre_ai_rev_a.a(mlb_iomux_config.o)
                0x1004c69c                mlb_iomux_config
 .text          0x1004c748     0x2884 /home/leon/git/swp-report/iMX6_Platform_SDK/output/mx6dq/lib/libboard_sabre_ai_rev_a.a(mmdc_iomux_config.o)
                0x1004c748                mmdc_iomux_config
 .text          0x1004efcc       0x34 /home/leon/git/swp-report/iMX6_Platform_SDK/output/mx6dq/lib/libboard_sabre_ai_rev_a.a(pwm3_iomux_config.o)
                0x1004efcc                pwm3_iomux_config
 .text          0x1004f000       0x34 /home/leon/git/swp-report/iMX6_Platform_SDK/output/mx6dq/lib/libboard_sabre_ai_rev_a.a(pwm4_iomux_config.o)
                0x1004f000                pwm4_iomux_config
 .text          0x1004f034       0x70 /home/leon/git/swp-report/iMX6_Platform_SDK/output/mx6dq/lib/libboard_sabre_ai_rev_a.a(sjc_iomux_config.o)
                0x1004f034                sjc_iomux_config
 .text          0x1004f0a4       0x40 /home/leon/git/swp-report/iMX6_Platform_SDK/output/mx6dq/lib/libboard_sabre_ai_rev_a.a(spdif_iomux_config.o)
                0x1004f0a4                spdif_iomux_config
 .text          0x1004f0e4       0xe0 /home/leon/git/swp-report/iMX6_Platform_SDK/output/mx6dq/lib/libboard_sabre_ai_rev_a.a(uart2_iomux_config.o)
                0x1004f0e4                uart2_iomux_config
 .text          0x1004f1c4       0xe0 /home/leon/git/swp-report/iMX6_Platform_SDK/output/mx6dq/lib/libboard_sabre_ai_rev_a.a(uart3_iomux_config.o)
                0x1004f1c4                uart3_iomux_config
 .text          0x1004f2a4       0x78 /home/leon/git/swp-report/iMX6_Platform_SDK/output/mx6dq/lib/libboard_sabre_ai_rev_a.a(uart4_iomux_config.o)
                0x1004f2a4                uart4_iomux_config
 .text          0x1004f31c       0x90 /home/leon/git/swp-report/iMX6_Platform_SDK/output/mx6dq/lib/libboard_sabre_ai_rev_a.a(uart_iomux_config.o)
                0x1004f31c                uart_iomux_config
 .text          0x1004f3ac      0x19c /home/leon/git/swp-report/iMX6_Platform_SDK/output/mx6dq/lib/libboard_sabre_ai_rev_a.a(usdhc1_iomux_config.o)
                0x1004f3ac                usdhc1_iomux_config
 .text          0x1004f548      0x1c0 /home/leon/git/swp-report/iMX6_Platform_SDK/output/mx6dq/lib/libboard_sabre_ai_rev_a.a(usdhc3_iomux_config.o)
                0x1004f548                usdhc3_iomux_config
 .text          0x1004f708       0x84 /home/leon/git/swp-report/iMX6_Platform_SDK/output/mx6dq/lib/libboard_sabre_ai_rev_a.a(usdhc_iomux_config.o)
                0x1004f708                usdhc_iomux_config
 .text          0x1004f78c       0x34 /home/leon/git/swp-report/iMX6_Platform_SDK/output/mx6dq/lib/libboard_sabre_ai_rev_a.a(wdog1_iomux_config.o)
                0x1004f78c                wdog1_iomux_config
 .text          0x1004f7c0       0x34 /home/leon/git/swp-report/iMX6_Platform_SDK/output/mx6dq/lib/libboard_sabre_ai_rev_a.a(ccm_iomux_config.o)
                0x1004f7c0                ccm_iomux_config
 .text          0x1004f7f4      0x104 /home/leon/git/swp-report/iMX6_Platform_SDK/output/mx6dq/lib/libboard_sabre_ai_rev_a.a(ecspi1_iomux_config.o)
                0x1004f7f4                ecspi1_iomux_config
 .text          0x1004f8f8       0x68 /home/leon/git/swp-report/iMX6_Platform_SDK/output/mx6dq/lib/libboard_sabre_ai_rev_a.a(flexcan1_iomux_config.o)
                0x1004f8f8                flexcan1_iomux_config
 .text          0x1004f960       0x68 /home/leon/git/swp-report/iMX6_Platform_SDK/output/mx6dq/lib/libboard_sabre_ai_rev_a.a(flexcan2_iomux_config.o)
                0x1004f960                flexcan2_iomux_config
 .text          0x1004f9c8      0x130 /home/leon/git/swp-report/iMX6_Platform_SDK/output/mx6dq/lib/libboard_sabre_ai_rev_a.a(gpio1_iomux_config.o)
                0x1004f9c8                gpio1_iomux_config
 .text          0x1004faf8       0xfc /home/leon/git/swp-report/iMX6_Platform_SDK/output/mx6dq/lib/libboard_sabre_ai_rev_a.a(gpio2_iomux_config.o)
                0x1004faf8                gpio2_iomux_config
 .text          0x1004fbf4       0x34 /home/leon/git/swp-report/iMX6_Platform_SDK/output/mx6dq/lib/libboard_sabre_ai_rev_a.a(gpio4_iomux_config.o)
                0x1004fbf4                gpio4_iomux_config
 .text          0x1004fc28       0xc4 /home/leon/git/swp-report/iMX6_Platform_SDK/output/mx6dq/lib/libboard_sabre_ai_rev_a.a(gpio5_iomux_config.o)
                0x1004fc28                gpio5_iomux_config
 .text          0x1004fcec       0x54 /home/leon/git/swp-report/iMX6_Platform_SDK/output/mx6dq/lib/libboard_sabre_ai_rev_a.a(gpio6_iomux_config.o)
                0x1004fcec                gpio6_iomux_config
 .text          0x1004fd40      0x274 /home/leon/git/swp-report/iMX6_Platform_SDK/output/mx6dq/lib/libboard_sabre_ai_rev_a.a(gpmi_iomux_config.o)
                0x1004fd40                gpmi_iomux_config
 .text          0x1004ffb4       0x78 /home/leon/git/swp-report/iMX6_Platform_SDK/output/mx6dq/lib/libboard_sabre_ai_rev_a.a(i2c2_iomux_config.o)
                0x1004ffb4                i2c2_iomux_config
 .text          0x1005002c       0x68 /home/leon/riotboard/arm-2012.09/bin/../arm-none-eabi/lib//libc.a(lib_a-assert.o)
                0x1005002c                __assert_func
                0x10050084                __assert
 .text          0x10050094       0x20 /home/leon/riotboard/arm-2012.09/bin/../arm-none-eabi/lib//libc.a(lib_a-bzero.o)
                0x10050094                bzero
 .text          0x100500b4       0x70 /home/leon/riotboard/arm-2012.09/bin/../arm-none-eabi/lib//libc.a(lib_a-fiprintf.o)
                0x100500b4                _fiprintf_r
                0x100500e4                fiprintf
 .text          0x10050124       0x94 /home/leon/riotboard/arm-2012.09/bin/../arm-none-eabi/lib//libc.a(lib_a-fputc.o)
                0x10050124                _fputc_r
                0x10050168                fputc
 .text          0x100501b8        0x0 /home/leon/riotboard/arm-2012.09/bin/../arm-none-eabi/lib//libc.a(lib_a-impure.o)
 .text          0x100501b8       0x88 /home/leon/riotboard/arm-2012.09/bin/../arm-none-eabi/lib//libc.a(lib_a-init.o)
                0x100501b8                __libc_init_array
 .text          0x10050240       0x40 /home/leon/riotboard/arm-2012.09/bin/../arm-none-eabi/lib//libc.a(lib_a-malloc.o)
                0x10050240                malloc
                0x10050260                free
 .text          0x10050280      0x71c /home/leon/riotboard/arm-2012.09/bin/../arm-none-eabi/lib//libc.a(lib_a-mallocr.o)
                0x10050280                _malloc_r
 .text          0x1005099c      0x20c /home/leon/riotboard/arm-2012.09/bin/../arm-none-eabi/lib//libc.a(lib_a-memcpy.o)
                0x1005099c                memcpy
 .text          0x10050ba8      0x134 /home/leon/riotboard/arm-2012.09/bin/../arm-none-eabi/lib//libc.a(lib_a-memset.o)
                0x10050ba8                memset
 .text          0x10050cdc        0x8 /home/leon/riotboard/arm-2012.09/bin/../arm-none-eabi/lib//libc.a(lib_a-mlock.o)
                0x10050cdc                __malloc_lock
                0x10050ce0                __malloc_unlock
 .text          0x10050ce4       0x74 /home/leon/riotboard/arm-2012.09/bin/../arm-none-eabi/lib//libc.a(lib_a-printf.o)
                0x10050ce4                _printf_r
                0x10050d18                printf
 .text          0x10050d58      0x170 /home/leon/riotboard/arm-2012.09/bin/../arm-none-eabi/lib//libc.a(lib_a-putc.o)
                0x10050d58                _putc_r
                0x10050e08                putc
 .text          0x10050ec8       0x28 /home/leon/riotboard/arm-2012.09/bin/../arm-none-eabi/lib//libc.a(lib_a-realloc.o)
                0x10050ec8                realloc
 .text          0x10050ef0      0x574 /home/leon/riotboard/arm-2012.09/bin/../arm-none-eabi/lib//libc.a(lib_a-reallocr.o)
                0x10050ef0                _realloc_r
 .text          0x10051464       0x6c /home/leon/riotboard/arm-2012.09/bin/../arm-none-eabi/lib//libc.a(lib_a-rget.o)
                0x10051464                __srget_r
                0x100514bc                __srget
 .text          0x100514d0       0x40 /home/leon/riotboard/arm-2012.09/bin/../arm-none-eabi/lib//libc.a(lib_a-sbrkr.o)
                0x100514d0                _sbrk_r
 .text          0x10051510       0xdc /home/leon/riotboard/arm-2012.09/bin/../arm-none-eabi/lib//libc.a(lib_a-sprintf.o)
                0x10051510                _sprintf_r
                0x10051578                sprintf
 .text          0x100515ec       0xa0 /home/leon/riotboard/arm-2012.09/bin/../arm-none-eabi/lib//libc.a(lib_a-strcat.o)
                0x100515ec                strcat
 .text          0x1005168c      0x230 /home/leon/riotboard/arm-2012.09/bin/../arm-none-eabi/lib//libc.a(lib_a-strcmp.o)
                0x1005168c                strcmp
 .text          0x100518bc       0xf0 /home/leon/riotboard/arm-2012.09/bin/../arm-none-eabi/lib//libc.a(lib_a-strcpy.o)
                0x100518bc                strcpy
 .text          0x100519ac       0x60 /home/leon/riotboard/arm-2012.09/bin/../arm-none-eabi/lib//libc.a(lib_a-strlen.o)
                0x100519ac                strlen
 .text          0x10051a0c       0x78 /home/leon/riotboard/arm-2012.09/bin/../arm-none-eabi/lib//libc.a(lib_a-strncasecmp.o)
                0x10051a0c                strncasecmp
 .text          0x10051a84       0x24 /home/leon/riotboard/arm-2012.09/bin/../arm-none-eabi/lib//libc.a(lib_a-strtok.o)
                0x10051a84                strtok
 .text          0x10051aa8       0xb8 /home/leon/riotboard/arm-2012.09/bin/../arm-none-eabi/lib//libc.a(lib_a-strtok_r.o)
                0x10051aa8                __strtok_r
                0x10051b58                strtok_r
 .text          0x10051b60     0x1f7c /home/leon/riotboard/arm-2012.09/bin/../arm-none-eabi/lib//libc.a(lib_a-svfprintf.o)
                0x10051b60                _svfprintf_r
 .text          0x10053adc     0x12c4 /home/leon/riotboard/arm-2012.09/bin/../arm-none-eabi/lib//libc.a(lib_a-vfiprintf.o)
                0x10053adc                __sprint_r
                0x10053b98                _vfiprintf_r
                0x10054d74                vfiprintf
 .text          0x10054da0     0x2180 /home/leon/riotboard/arm-2012.09/bin/../arm-none-eabi/lib//libc.a(lib_a-vfprintf.o)
                0x10054da0                _vfprintf_r
                0x10056ef4                vfprintf
 .text          0x10056f20       0x4c /home/leon/riotboard/arm-2012.09/bin/../arm-none-eabi/lib//libc.a(lib_a-vprintf.o)
                0x10056f20                vprintf
                0x10056f4c                _vprintf_r
 .text          0x10056f6c      0x14c /home/leon/riotboard/arm-2012.09/bin/../arm-none-eabi/lib//libc.a(lib_a-wbuf.o)
                0x10056f6c                __swbuf_r
                0x1005709c                __swbuf
 .text          0x100570b8      0x138 /home/leon/riotboard/arm-2012.09/bin/../arm-none-eabi/lib//libc.a(lib_a-wsetup.o)
                0x100570b8                __swsetup_r
 .text          0x100571f0       0x14 /home/leon/riotboard/arm-2012.09/bin/../arm-none-eabi/lib//libc.a(lib_a-abort.o)
                0x100571f0                abort
 .text          0x10057204        0x0 /home/leon/riotboard/arm-2012.09/bin/../arm-none-eabi/lib//libc.a(lib_a-ctype_.o)
 *fill*         0x10057204        0x4 
 .text          0x10057208     0x18a8 /home/leon/riotboard/arm-2012.09/bin/../arm-none-eabi/lib//libc.a(lib_a-dtoa.o)
                0x100573e8                _dtoa_r
 .text          0x10058ab0      0x26c /home/leon/riotboard/arm-2012.09/bin/../arm-none-eabi/lib//libc.a(lib_a-fflush.o)
                0x10058ab0                _fflush_r
                0x10058cdc                fflush
 .text          0x10058d1c      0x2c4 /home/leon/riotboard/arm-2012.09/bin/../arm-none-eabi/lib//libc.a(lib_a-findfp.o)
                0x10058d2c                _cleanup_r
                0x10058dc0                __sfmoreglue
                0x10058e08                _cleanup
                0x10058e18                __sinit
                0x10058e90                __sfp
                0x10058f88                __sfp_lock_acquire
                0x10058f8c                __sfp_lock_release
                0x10058f90                __sinit_lock_acquire
                0x10058f94                __sinit_lock_release
                0x10058f98                __fp_lock_all
                0x10058fbc                __fp_unlock_all
 .text          0x10058fe0      0x19c /home/leon/riotboard/arm-2012.09/bin/../arm-none-eabi/lib//libc.a(lib_a-fputwc.o)
                0x10058fe0                _fputwc_r
                0x10059130                fputwc
 .text          0x1005917c      0x368 /home/leon/riotboard/arm-2012.09/bin/../arm-none-eabi/lib//libc.a(lib_a-freer.o)
                0x1005917c                _malloc_trim_r
                0x10059278                _free_r
 .text          0x100594e4      0x4c4 /home/leon/riotboard/arm-2012.09/bin/../arm-none-eabi/lib//libc.a(lib_a-fvwrite.o)
                0x100594e4                __sfvwrite_r
 .text          0x100599a8      0x114 /home/leon/riotboard/arm-2012.09/bin/../arm-none-eabi/lib//libc.a(lib_a-fwalk.o)
                0x100599a8                _fwalk
                0x10059a30                _fwalk_reent
 .text          0x10059abc       0xd0 /home/leon/riotboard/arm-2012.09/bin/../arm-none-eabi/lib//libc.a(lib_a-locale.o)
                0x10059abc                _setlocale_r
                0x10059b28                __locale_charset
                0x10059b34                __locale_mb_cur_max
                0x10059b44                __locale_msgcharset
                0x10059b50                __locale_cjk_lang
                0x10059b58                _localeconv_r
                0x10059b64                setlocale
                0x10059b80                localeconv
 .text          0x10059b8c      0x15c /home/leon/riotboard/arm-2012.09/bin/../arm-none-eabi/lib//libc.a(lib_a-makebuf.o)
                0x10059b8c                __smakebuf_r
 .text          0x10059ce8      0x11c /home/leon/riotboard/arm-2012.09/bin/../arm-none-eabi/lib//libc.a(lib_a-memchr.o)
                0x10059ce8                memchr
 .text          0x10059e04      0x134 /home/leon/riotboard/arm-2012.09/bin/../arm-none-eabi/lib//libc.a(lib_a-memmove.o)
                0x10059e04                memmove
 .text          0x10059f38      0xd20 /home/leon/riotboard/arm-2012.09/bin/../arm-none-eabi/lib//libc.a(lib_a-mprec.o)
                0x10059f38                _Balloc
                0x10059fc4                _Bfree
                0x10059fe0                __multadd
                0x1005a0bc                __s2b
                0x1005a1ac                __hi0bits
                0x1005a1fc                __lo0bits
                0x1005a290                __i2b
                0x1005a2b4                __multiply
                0x1005a498                __pow5mult
                0x1005a58c                __lshift
                0x1005a690                __mcmp
                0x1005a6f4                __mdiff
                0x1005a840                __ulp
                0x1005a8a4                __b2d
                0x1005a970                __d2b
                0x1005aa78                __ratio
                0x1005ab08                _mprec_log10
                0x1005ab5c                __copybits
                0x1005abd0                __any_on
 .text          0x1005ac58      0x19c /home/leon/riotboard/arm-2012.09/bin/../arm-none-eabi/lib//libc.a(lib_a-reent.o)
                0x1005ac58                cleanup_glue
                0x1005ac84                _reclaim_reent
                0x1005ad80                _wrapup_reent
 .text          0x1005adf4      0x1cc /home/leon/riotboard/arm-2012.09/bin/../arm-none-eabi/lib//libc.a(lib_a-refill.o)
                0x1005ae1c                __srefill_r
 .text          0x1005afc0       0x6c /home/leon/riotboard/arm-2012.09/bin/../arm-none-eabi/lib//libc.a(lib_a-s_fpclassify.o)
                0x1005afc0                __fpclassifyd
 .text          0x1005b02c      0x24c /home/leon/riotboard/arm-2012.09/bin/../arm-none-eabi/lib//libc.a(lib_a-signal.o)
                0x1005b02c                _init_signal_r
                0x1005b08c                _signal_r
                0x1005b0f8                _raise_r
                0x1005b190                __sigtramp_r
                0x1005b224                raise
                0x1005b238                signal
                0x1005b254                _init_signal
                0x1005b264                __sigtramp
 .text          0x1005b278       0x50 /home/leon/riotboard/arm-2012.09/bin/../arm-none-eabi/lib//libc.a(lib_a-signalr.o)
                0x1005b278                _kill_r
                0x1005b2b8                _getpid_r
 .text          0x1005b2c8       0xdc /home/leon/riotboard/arm-2012.09/bin/../arm-none-eabi/lib//libc.a(lib_a-stdio.o)
                0x1005b2c8                __sread
                0x1005b2fc                __seofread
                0x1005b304                __swrite
                0x1005b35c                __sseek
                0x1005b390                __sclose
 .text          0x1005b3a4     0x1224 /home/leon/riotboard/arm-2012.09/bin/../arm-none-eabi/lib//libc.a(lib_a-svfiprintf.o)
                0x1005b3a4                __ssprint_r
                0x1005b548                _svfiprintf_r
 .text          0x1005c5c8      0x134 /home/leon/riotboard/arm-2012.09/bin/../arm-none-eabi/lib//libc.a(lib_a-wcrtomb.o)
                0x1005c5c8                _wcrtomb_r
                0x1005c658                wcrtomb
 .text          0x1005c6fc       0x7c /home/leon/riotboard/arm-2012.09/bin/../arm-none-eabi/lib//libc.a(lib_a-wctomb_r.o)
                0x1005c6fc                __ascii_wctomb
                0x1005c728                _wctomb_r
 .text          0x1005c778       0x44 /home/leon/riotboard/arm-2012.09/bin/../arm-none-eabi/lib//libc.a(lib_a-writer.o)
                0x1005c778                _write_r
 .text          0x1005c7bc       0x94 /home/leon/riotboard/arm-2012.09/bin/../arm-none-eabi/lib//libc.a(lib_a-callocr.o)
                0x1005c7bc                _calloc_r
 .text          0x1005c850       0x3c /home/leon/riotboard/arm-2012.09/bin/../arm-none-eabi/lib//libc.a(lib_a-closer.o)
                0x1005c850                _close_r
 .text          0x1005c88c      0x10c /home/leon/riotboard/arm-2012.09/bin/../arm-none-eabi/lib//libc.a(lib_a-fclose.o)
                0x1005c88c                _fclose_r
                0x1005c984                fclose
 .text          0x1005c998       0x40 /home/leon/riotboard/arm-2012.09/bin/../arm-none-eabi/lib//libc.a(lib_a-fstatr.o)
                0x1005c998                _fstat_r
 .text          0x1005c9d8       0x3c /home/leon/riotboard/arm-2012.09/bin/../arm-none-eabi/lib//libc.a(lib_a-isattyr.o)
                0x1005c9d8                _isatty_r
 .text          0x1005ca14       0x44 /home/leon/riotboard/arm-2012.09/bin/../arm-none-eabi/lib//libc.a(lib_a-lseekr.o)
                0x1005ca14                _lseek_r
 .text          0x1005ca58       0x44 /home/leon/riotboard/arm-2012.09/bin/../arm-none-eabi/lib//libc.a(lib_a-readr.o)
                0x1005ca58                _read_r
 .text          0x1005ca9c      0x114 /home/leon/riotboard/arm-2012.09/bin/../lib/gcc/arm-none-eabi/4.7.2//libgcc.a(_udivsi3.o)
                0x1005ca9c                __udivsi3
                0x1005ca9c                __aeabi_uidiv
                0x1005cb90                __aeabi_uidivmod
 .text          0x1005cbb0      0x148 /home/leon/riotboard/arm-2012.09/bin/../lib/gcc/arm-none-eabi/4.7.2//libgcc.a(_divsi3.o)
                0x1005cbb0                __aeabi_idiv
                0x1005cbb0                __divsi3
                0x1005ccd8                __aeabi_idivmod
 .text          0x1005ccf8        0x4 /home/leon/riotboard/arm-2012.09/bin/../lib/gcc/arm-none-eabi/4.7.2//libgcc.a(_dvmd_tls.o)
                0x1005ccf8                __aeabi_ldiv0
                0x1005ccf8                __aeabi_idiv0
 .text          0x1005ccfc      0x41c /home/leon/riotboard/arm-2012.09/bin/../lib/gcc/arm-none-eabi/4.7.2//libgcc.a(_arm_addsubdf3.o)
                0x1005ccfc                __aeabi_drsub
                0x1005cd04                __aeabi_dsub
                0x1005cd04                __subdf3
                0x1005cd08                __adddf3
                0x1005cd08                __aeabi_dadd
                0x1005d018                __aeabi_ui2d
                0x1005d018                __floatunsidf
                0x1005d03c                __floatsidf
                0x1005d03c                __aeabi_i2d
                0x1005d064                __extendsfdf2
                0x1005d064                __aeabi_f2d
                0x1005d0a4                __aeabi_ul2d
                0x1005d0a4                __floatundidf
                0x1005d0b8                __floatdidf
                0x1005d0b8                __aeabi_l2d
 .text          0x1005d118      0x49c /home/leon/riotboard/arm-2012.09/bin/../lib/gcc/arm-none-eabi/4.7.2//libgcc.a(_arm_muldivdf3.o)
                0x1005d118                __aeabi_dmul
                0x1005d118                __muldf3
                0x1005d3a8                __aeabi_ddiv
                0x1005d3a8                __divdf3
 .text          0x1005d5b4      0x144 /home/leon/riotboard/arm-2012.09/bin/../lib/gcc/arm-none-eabi/4.7.2//libgcc.a(_arm_cmpdf2.o)
                0x1005d5b4                __gtdf2
                0x1005d5b4                __gedf2
                0x1005d5bc                __ltdf2
                0x1005d5bc                __ledf2
                0x1005d5c4                __cmpdf2
                0x1005d5c4                __eqdf2
                0x1005d5c4                __nedf2
                0x1005d64c                __aeabi_cdrcmple
                0x1005d668                __aeabi_cdcmple
                0x1005d668                __aeabi_cdcmpeq
                0x1005d680                __aeabi_dcmpeq
                0x1005d698                __aeabi_dcmplt
                0x1005d6b0                __aeabi_dcmple
                0x1005d6c8                __aeabi_dcmpge
                0x1005d6e0                __aeabi_dcmpgt
 .text          0x1005d6f8       0x5c /home/leon/riotboard/arm-2012.09/bin/../lib/gcc/arm-none-eabi/4.7.2//libgcc.a(_arm_fixdfsi.o)
                0x1005d6f8                __fixdfsi
                0x1005d6f8                __aeabi_d2iz
 .text          0x1005d754       0x3c /home/leon/riotboard/arm-2012.09/bin/../lib/gcc/arm-none-eabi/4.7.2//libgcc.a(_aeabi_uldivmod.o)
                0x1005d754                __aeabi_uldivmod
 .text          0x1005d790       0x84 /home/leon/riotboard/arm-2012.09/bin/../lib/gcc/arm-none-eabi/4.7.2//libgcc.a(bpabi.o)
                0x1005d790                __gnu_ldivmod_helper
                0x1005d7d4                __gnu_uldivmod_helper
 .text          0x1005d814      0x4f0 /home/leon/riotboard/arm-2012.09/bin/../lib/gcc/arm-none-eabi/4.7.2//libgcc.a(_divdi3.o)
                0x1005d814                __divdi3
 .text          0x1005dd04      0x488 /home/leon/riotboard/arm-2012.09/bin/../lib/gcc/arm-none-eabi/4.7.2//libgcc.a(_udivdi3.o)
                0x1005dd04                __udivdi3
 .text          0x1005e18c       0x48 /home/leon/riotboard/arm-2012.09/bin/../lib/gcc/arm-none-eabi/4.7.2//libgcc.a(_clzsi2.o)
                0x1005e18c                __clzsi2
 .text          0x1005e1d4      0x610 /home/leon/git/swp-report/iMX6_Platform_SDK/output/mx6dq/lib/libsdk.a(runtime_support.o)
                0x1005e1d4                _execve
                0x1005e210                _fork
                0x1005e238                _isatty
                0x1005e25c                _open
                0x1005e288                _close
                0x1005e2ac                _lseek
                0x1005e2d8                _fstat
                0x1005e30c                _read
                0x1005e3dc                _write
                0x1005e4c8                _raw_puts
                0x1005e548                _sbrk
                0x1005e5f8                _exit
                0x1005e618                _kill
                0x1005e650                _getpid
                0x1005e668                _link
                0x1005e6a0                _unlink
                0x1005e6d4                _stat
                0x1005e708                _times
                0x1005e72c                _gettimeofday
                0x1005e7b0                _wait
 *(.glue_7t)
 .glue_7t       0x00000000        0x0 linker stubs
 *(.glue_7)
 .glue_7        0x00000000        0x0 linker stubs
 *(.vfp11_veneer)
 .vfp11_veneer  0x00000000        0x0 linker stubs
 *(.ARM.extab* .gnu.linkonce.armextab.*)
 .ARM.extab.startup
                0x1005e7e4        0x0 /home/leon/git/swp-report/iMX6_Platform_SDK/output/mx6dq/lib/libsdk.a(startup.o)
 .ARM.extab     0x1005e7e4        0x0 /home/leon/riotboard/arm-2012.09/bin/../lib/gcc/arm-none-eabi/4.7.2//libgcc.a(_divdi3.o)
 .ARM.extab     0x1005e7e4        0x0 /home/leon/riotboard/arm-2012.09/bin/../lib/gcc/arm-none-eabi/4.7.2//libgcc.a(_udivdi3.o)
 *(.gcc_except_table)

.v4_bx          0x1005e7e4        0x0
 .v4_bx         0x00000000        0x0 linker stubs

.iplt           0x1005e7e4        0x0
 .iplt          0x00000000        0x0 /home/leon/riotboard/arm-2012.09/bin/../lib/gcc/arm-none-eabi/4.7.2//crtbegin.o

.ctors
 *crtbegin.o(.ctors)
 *crtbegin?.o(.ctors)
 *(EXCLUDE_FILE(*crtend?.o *crtend.o) .ctors)
 *(SORT(.ctors.*))
 *(.ctors)

.dtors
 *crtbegin.o(.dtors)
 *crtbegin?.o(.dtors)
 *(EXCLUDE_FILE(*crtend?.o *crtend.o) .dtors)
 *(SORT(.dtors.*))
 *(.dtors)

.rodata         0x1005e7e8    0x3c6f8
 *(.rodata .rodata.* .gnu.linkonce.r.*)
 .rodata        0x1005e7e8       0x9c /home/leon/git/swp-report/iMX6_Platform_SDK/output/mx6dq/obds/sabre_ai_rev_a/obj/apps/common/print_clock_info.o
 .rodata        0x1005e884      0x100 /home/leon/git/swp-report/iMX6_Platform_SDK/output/mx6dq/obds/sabre_ai_rev_a/obj/apps/common/print_version.o
 .rodata        0x1005e984      0x834 /home/leon/git/swp-report/iMX6_Platform_SDK/output/mx6dq/obds/sabre_ai_rev_a/obj/apps/obds/src/obds.o
                0x1005ed50                MenuList_All_Tests
                0x1005edac                Menu_Commands
                0x1005ee58                CPU_Tests
                0x1005f034                MainBoard_Tests
                0x1005f188                Display_Test
 .rodata        0x1005f1b8      0x318 /home/leon/git/swp-report/iMX6_Platform_SDK/output/mx6dq/obds/sabre_ai_rev_a/obj/apps/obds/src/obds_utils.o
 .rodata        0x1005f4d0      0x1c0 /home/leon/git/swp-report/iMX6_Platform_SDK/output/mx6dq/obds/sabre_ai_rev_a/obj/apps/obds/src/tests/android_buttons_test.o
                0x1005f4d0                g_android_buttons_test_name
 .rodata        0x1005f690      0x140 /home/leon/git/swp-report/iMX6_Platform_SDK/output/mx6dq/obds/sabre_ai_rev_a/obj/apps/obds/src/tests/audio_esai_test.o
                0x1005f690                g_audio_esai_test_name
 .rodata        0x1005f7d0      0x22c /home/leon/git/swp-report/iMX6_Platform_SDK/output/mx6dq/obds/sabre_ai_rev_a/obj/apps/obds/src/tests/audio_ssi_test.o
                0x1005f7d0                g_audio_ssi_test_name
 .rodata        0x1005f9fc        0xc /home/leon/git/swp-report/iMX6_Platform_SDK/output/mx6dq/obds/sabre_ai_rev_a/obj/apps/obds/src/tests/ddr_test.o
                0x1005f9fc                g_ddr_test_name
 .rodata        0x1005fa08      0x1c0 /home/leon/git/swp-report/iMX6_Platform_SDK/output/mx6dq/obds/sabre_ai_rev_a/obj/apps/obds/src/tests/deserializer_ds90ur124.o
 .rodata        0x1005fbc8      0x22c /home/leon/git/swp-report/iMX6_Platform_SDK/output/mx6dq/obds/sabre_ai_rev_a/obj/apps/obds/src/tests/display_test.o
                0x1005fbc8                g_ipu_display_tests_name
 .rodata        0x1005fdf4      0x2d8 /home/leon/git/swp-report/iMX6_Platform_SDK/output/mx6dq/obds/sabre_ai_rev_a/obj/apps/obds/src/tests/enet_mx6dldq_test.o
                0x1005fdf4                g_ar8031_test_name
                0x1005fe14                g_KSZ9021RN_test_name
 .rodata        0x100600cc      0x158 /home/leon/git/swp-report/iMX6_Platform_SDK/output/mx6dq/obds/sabre_ai_rev_a/obj/apps/obds/src/tests/flexcan_test.o
                0x100600cc                g_flexcan_test_name
 .rodata        0x10060224       0x50 /home/leon/git/swp-report/iMX6_Platform_SDK/output/mx6dq/obds/sabre_ai_rev_a/obj/apps/obds/src/tests/fm_tuner_si476x_test.o
 .rodata        0x10060274       0x34 /home/leon/git/swp-report/iMX6_Platform_SDK/output/mx6dq/obds/sabre_ai_rev_a/obj/apps/obds/src/tests/gpio_led.o
                0x10060274                g_gpio_led_test_name
 .rodata        0x100602a8       0x20 /home/leon/git/swp-report/iMX6_Platform_SDK/output/mx6dq/obds/sabre_ai_rev_a/obj/apps/obds/src/tests/gps_test.o
 .rodata        0x100602c8      0x10c /home/leon/git/swp-report/iMX6_Platform_SDK/output/mx6dq/obds/sabre_ai_rev_a/obj/apps/obds/src/tests/i2c_check_light_sensor_isl29023.o
                0x100602c8                g_isl29023_i2c_device_id_test_name
 .rodata        0x100603d4       0x6c /home/leon/git/swp-report/iMX6_Platform_SDK/output/mx6dq/obds/sabre_ai_rev_a/obj/apps/obds/src/tests/i2c_device_barometer_ppl3115.o
                0x100603d4                g_ppl3115_i2c_device_id_test_name
 .rodata        0x10060440       0x7c /home/leon/git/swp-report/iMX6_Platform_SDK/output/mx6dq/obds/sabre_ai_rev_a/obj/apps/obds/src/tests/i2c_device_check_cs42888.o
                0x10060440                g_cs42888_i2c_device_id_test_name
 .rodata        0x100604bc       0xb4 /home/leon/git/swp-report/iMX6_Platform_SDK/output/mx6dq/obds/sabre_ai_rev_a/obj/apps/obds/src/tests/i2c_device_digital_compass_mag3110.o
                0x100604bc                g_mag3110_i2c_device_id_test_name
 .rodata        0x10060570       0xb4 /home/leon/git/swp-report/iMX6_Platform_SDK/output/mx6dq/obds/sabre_ai_rev_a/obj/apps/obds/src/tests/i2c_device_digital_compass_mag3112.o
                0x10060570                g_mag3112_i2c_device_id_test_name
 .rodata        0x10060624      0x138 /home/leon/git/swp-report/iMX6_Platform_SDK/output/mx6dq/obds/sabre_ai_rev_a/obj/apps/obds/src/tests/i2c_device_id_check_mma8450.o
                0x10060624                g_mma8450_i2c_device_id_test_name
 .rodata        0x1006075c      0x138 /home/leon/git/swp-report/iMX6_Platform_SDK/output/mx6dq/obds/sabre_ai_rev_a/obj/apps/obds/src/tests/i2c_device_id_check_mma8451.o
                0x1006075c                g_mma8451_i2c_device_id_test_name
 .rodata        0x10060894      0x234 /home/leon/git/swp-report/iMX6_Platform_SDK/output/mx6dq/obds/sabre_ai_rev_a/obj/apps/obds/src/tests/i2c_device_id_check_p1003_tsc.o
                0x10060894                g_hs_tsc_p1003_i2c_device_id_test_name
 .rodata        0x10060ac8       0xf8 /home/leon/git/swp-report/iMX6_Platform_SDK/output/mx6dq/obds/sabre_ai_rev_a/obj/apps/obds/src/tests/i2c_device_temp_sensor_emc1046.o
                0x10060ac8                g_emc1046_i2c_device_id_test_name
 .rodata        0x10060bc0       0x90 /home/leon/git/swp-report/iMX6_Platform_SDK/output/mx6dq/obds/sabre_ai_rev_a/obj/apps/obds/src/tests/i2c_device_zigbee_mc1323.o
 .rodata        0x10060c50       0x88 /home/leon/git/swp-report/iMX6_Platform_SDK/output/mx6dq/obds/sabre_ai_rev_a/obj/apps/obds/src/tests/i2c_eeprom_at24cxx_test.o
 .rodata        0x10060cd8      0x23c /home/leon/git/swp-report/iMX6_Platform_SDK/output/mx6dq/obds/sabre_ai_rev_a/obj/apps/obds/src/tests/imx_spi_nor_test.o
                0x10060cd8                g_spi_nor_test_name
 .rodata        0x10060f14       0x54 /home/leon/git/swp-report/iMX6_Platform_SDK/output/mx6dq/obds/sabre_ai_rev_a/obj/apps/obds/src/tests/mlb_os81050.o
 .rodata        0x10060f68      0x1d4 /home/leon/git/swp-report/iMX6_Platform_SDK/output/mx6dq/obds/sabre_ai_rev_a/obj/apps/obds/src/tests/mmcsd_test.o
                0x10060f68                g_mmcsd_test_name
 .rodata        0x1006113c      0x718 /home/leon/git/swp-report/iMX6_Platform_SDK/output/mx6dq/obds/sabre_ai_rev_a/obj/apps/obds/src/tests/pmic_da9053.o
 .rodata        0x10061854      0x734 /home/leon/git/swp-report/iMX6_Platform_SDK/output/mx6dq/obds/sabre_ai_rev_a/obj/apps/obds/src/tests/pmic_lt3589.o
 .rodata        0x10061f88       0x54 /home/leon/git/swp-report/iMX6_Platform_SDK/output/mx6dq/obds/sabre_ai_rev_a/obj/apps/obds/src/tests/pmic_max17135.o
                0x10061f88                g_max17135_i2c_device_id_test_name
 .rodata        0x10061fdc       0x48 /home/leon/git/swp-report/iMX6_Platform_SDK/output/mx6dq/obds/sabre_ai_rev_a/obj/apps/obds/src/tests/pmic_mc13892.o
 .rodata        0x10062024      0x2dc /home/leon/git/swp-report/iMX6_Platform_SDK/output/mx6dq/obds/sabre_ai_rev_a/obj/apps/obds/src/tests/program_board_id.o
                0x10062024                g_program_board_id_test_name
 .rodata        0x10062300      0x3c8 /home/leon/git/swp-report/iMX6_Platform_SDK/output/mx6dq/obds/sabre_ai_rev_a/obj/apps/obds/src/tests/program_mac_address.o
                0x10062300                g_program_mac_address_test_name
 .rodata        0x100626c8      0x1bc /home/leon/git/swp-report/iMX6_Platform_SDK/output/mx6dq/obds/sabre_ai_rev_a/obj/apps/obds/src/tests/snvs_srtc_test.o
                0x100626c8                g_snvs_srtc_test_name
 .rodata        0x10062884      0x10c /home/leon/git/swp-report/iMX6_Platform_SDK/output/mx6dq/obds/sabre_ai_rev_a/obj/apps/obds/src/tests/touch_screen.o
 .rodata        0x10062990      0x1b0 /home/leon/git/swp-report/iMX6_Platform_SDK/output/mx6dq/obds/sabre_ai_rev_a/obj/apps/obds/src/tests/touch_screen_max11801.o
 .rodata        0x10062b40      0x2b0 /home/leon/git/swp-report/iMX6_Platform_SDK/output/mx6dq/obds/sabre_ai_rev_a/obj/apps/obds/src/tests/usb_tests_obds.o
                0x10062b40                g_usb_otg_dev_enum_test_name
                0x10062b60                g_usb_host1_dev_enum_test_name
 .rodata        0x10062df0      0x150 /home/leon/git/swp-report/iMX6_Platform_SDK/output/mx6dq/obds/sabre_ai_rev_a/obj/apps/obds/src/tests/video_dec_ARD_MB_reset_button.o
                0x10062df0                g_ard_main_board_reset_button_test
 .rodata        0x10062f40       0x68 /home/leon/git/swp-report/iMX6_Platform_SDK/output/mx6dq/obds/sabre_ai_rev_a/obj/apps/obds/src/tests/video_dec_ARD_MBrst_from_cpu_expander.o
                0x10062f40                g_ard_mb_expander_reset_test_name
 .rodata        0x10062fa8       0x94 /home/leon/git/swp-report/iMX6_Platform_SDK/output/mx6dq/obds/sabre_ai_rev_a/obj/apps/obds/src/tests/video_dec_adv7180.o
                0x10062fa8                g_video_dec_test_name
 .rodata        0x1006303c      0x180 /home/leon/git/swp-report/iMX6_Platform_SDK/output/mx6dq/obds/sabre_ai_rev_a/obj/apps/obds/src/tests/weim_nor_flash_test.o
                0x1006303c                g_eim_NOR_flash_test_name
 .rodata        0x100631bc       0x74 /home/leon/git/swp-report/iMX6_Platform_SDK/output/mx6dq/obds/sabre_ai_rev_a/obj/sdk/common/ioexpander/test/max7310_test.o
                0x100631bc                g_max7310_i2c_device_id_test_name
 .rodata        0x10063230       0x98 /home/leon/git/swp-report/iMX6_Platform_SDK/output/mx6dq/obds/sabre_ai_rev_a/obj/sdk/common/pmic/pfuse/pf0100.o
                0x10063230                g_pmic_pf0100_i2c_device_id_test_name
 .rodata        0x100632c8       0xe4 /home/leon/git/swp-report/iMX6_Platform_SDK/output/mx6dq/obds/sabre_ai_rev_a/obj/sdk/drivers/audio/src/snd_card.o
 .rodata        0x100633ac       0xe0 /home/leon/git/swp-report/iMX6_Platform_SDK/output/mx6dq/obds/sabre_ai_rev_a/obj/sdk/drivers/camera/test/adv7180_capture.o
 .rodata        0x1006348c       0x94 /home/leon/git/swp-report/iMX6_Platform_SDK/output/mx6dq/obds/sabre_ai_rev_a/obj/sdk/drivers/camera/test/camera_test.o
                0x1006348c                g_camera_test_name
 .rodata        0x10063520      0x118 /home/leon/git/swp-report/iMX6_Platform_SDK/output/mx6dq/obds/sabre_ai_rev_a/obj/sdk/drivers/camera/test/csi_test_mode.o
 .rodata        0x10063638      0x118 /home/leon/git/swp-report/iMX6_Platform_SDK/output/mx6dq/obds/sabre_ai_rev_a/obj/sdk/drivers/camera/test/sensor_capture.o
 .rodata        0x10063750       0x98 /home/leon/git/swp-report/iMX6_Platform_SDK/output/mx6dq/obds/sabre_ai_rev_a/obj/sdk/drivers/hdmi/test/hdmi_test.o
 .rodata        0x100637e8     0x403c /home/leon/git/swp-report/iMX6_Platform_SDK/output/mx6dq/obds/sabre_ai_rev_a/obj/sdk/drivers/hdmi/test/init_dma_data.o
                0x100637e8                gAudio_sample
 .rodata        0x10067824       0xa0 /home/leon/git/swp-report/iMX6_Platform_SDK/output/mx6dq/obds/sabre_ai_rev_a/obj/sdk/drivers/ipu/test/ips_display.o
 .rodata        0x100678c4    0x2f2dc /home/leon/git/swp-report/iMX6_Platform_SDK/output/mx6dq/obds/sabre_ai_rev_a/obj/sdk/drivers/ipu/test/ipu_image.o
                0x100796e0                gImage_foretext
 .rodata        0x10096ba0      0x108 /home/leon/git/swp-report/iMX6_Platform_SDK/output/mx6dq/obds/sabre_ai_rev_a/obj/sdk/drivers/sata/test/sata_test.o
                0x10096ba0                g_sata_test_name
 .rodata        0x10096ca8      0x194 /home/leon/git/swp-report/iMX6_Platform_SDK/output/mx6dq/obds/sabre_ai_rev_a/obj/sdk/drivers/spi/test/imx_spi_nor_atmel.o
 .rodata        0x10096e3c      0x118 /home/leon/git/swp-report/iMX6_Platform_SDK/output/mx6dq/obds/sabre_ai_rev_a/obj/sdk/drivers/spi/test/spi_nor_numonyx.o
 .rodata        0x10096f54       0xb0 /home/leon/git/swp-report/iMX6_Platform_SDK/output/mx6dq/obds/sabre_ai_rev_a/obj/sdk/drivers/uart/test/uart_test.o
                0x10096f54                g_uart_test_name
 .rodata        0x10097004      0x218 /home/leon/git/swp-report/iMX6_Platform_SDK/output/mx6dq/obds/sabre_ai_rev_a/obj/sdk/drivers/usb/test/usb0_host_test.o
 .rodata        0x1009721c       0xa8 /home/leon/git/swp-report/iMX6_Platform_SDK/output/mx6dq/obds/sabre_ai_rev_a/obj/sdk/drivers/usb/test/usb0_host_testmodes_test.o
 .rodata        0x100972c4      0x38c /home/leon/git/swp-report/iMX6_Platform_SDK/output/mx6dq/obds/sabre_ai_rev_a/obj/sdk/drivers/usdhc/test/usdhc_test.o
 .rodata        0x10097650       0x34 /home/leon/git/swp-report/iMX6_Platform_SDK/output/mx6dq/lib/libsdk.a(ccm_pll.o)
                0x10097650                PLL1_OUTPUT
                0x10097654                PLL2_OUTPUT
                0x10097668                PLL3_OUTPUT
                0x1009767c                PLL4_OUTPUT
                0x10097680                PLL5_OUTPUT
 .rodata        0x10097684       0x64 /home/leon/git/swp-report/iMX6_Platform_SDK/output/mx6dq/lib/libsdk.a(gic.o)
 .rodata        0x100976e8       0x20 /home/leon/git/swp-report/iMX6_Platform_SDK/output/mx6dq/lib/libsdk.a(interrupt.o)
 .rodata        0x10097708      0x154 /home/leon/git/swp-report/iMX6_Platform_SDK/output/mx6dq/lib/libsdk.a(menu.o)
 .rodata        0x1009785c       0x50 /home/leon/git/swp-report/iMX6_Platform_SDK/output/mx6dq/lib/libsdk.a(sdk_version.o)
                0x1009785c                k_sdk_version
                0x10097860                k_sdk_copyright
 .rodata        0x100978ac       0xcc /home/leon/git/swp-report/iMX6_Platform_SDK/output/mx6dq/lib/libsdk.a(system_util.o)
 .rodata        0x10097978       0xf4 /home/leon/git/swp-report/iMX6_Platform_SDK/output/mx6dq/lib/libsdk.a(text_color.o)
                0x10097980                g_TextAttributeDefault
                0x1009798c                g_TextAttributeBold
                0x10097998                g_TextAttributeDim
                0x100979a4                g_TextAttributeUnderline
                0x100979b0                g_TextAttributeBlink
                0x100979bc                g_TextAttributeReverse
                0x100979c8                g_TextAttributeHidden
                0x100979d4                g_TextColorBlack
                0x100979e0                g_TextColorRed
                0x100979ec                g_TextColorGreen
                0x100979f8                g_TextColorYellow
                0x10097a04                g_TextColorBlue
                0x10097a10                g_TextColorMagenta
                0x10097a1c                g_TextColorCyan
                0x10097a28                g_TextColorWhite
                0x10097a38                g_TextColorOrange
                0x10097a48                g_TextColorLightBlue
                0x10097a58                g_TextColorGray
                0x10097a68                g_TextColorPurple
 .rodata        0x10097a6c       0x28 /home/leon/git/swp-report/iMX6_Platform_SDK/output/mx6dq/lib/libsdk.a(cs42888.o)
 .rodata        0x10097a94      0x1ac /home/leon/git/swp-report/iMX6_Platform_SDK/output/mx6dq/lib/libsdk.a(imx-ssi.o)
 .rodata        0x10097c40       0xf0 /home/leon/git/swp-report/iMX6_Platform_SDK/output/mx6dq/lib/libsdk.a(imx_esai.o)
 .rodata        0x10097d30       0xdc /home/leon/git/swp-report/iMX6_Platform_SDK/output/mx6dq/lib/libsdk.a(imx_spdif.o)
 .rodata        0x10097e0c      0x200 /home/leon/git/swp-report/iMX6_Platform_SDK/output/mx6dq/lib/libsdk.a(sgtl5000.o)
 .rodata        0x1009800c      0x66c /home/leon/git/swp-report/iMX6_Platform_SDK/output/mx6dq/lib/libsdk.a(wm8958_dac.o)
 .rodata        0x10098678      0x1a4 /home/leon/git/swp-report/iMX6_Platform_SDK/output/mx6dq/lib/libsdk.a(wm8962.o)
 .rodata        0x1009881c      0x1f8 /home/leon/git/swp-report/iMX6_Platform_SDK/output/mx6dq/lib/libsdk.a(board_id.o)
 .rodata        0x10098a14       0xc4 /home/leon/git/swp-report/iMX6_Platform_SDK/output/mx6dq/lib/libsdk.a(smd_sensor.o)
 .rodata        0x10098ad8      0x1c4 /home/leon/git/swp-report/iMX6_Platform_SDK/output/mx6dq/lib/libsdk.a(enet_drv.o)
 .rodata        0x10098c9c       0xe0 /home/leon/git/swp-report/iMX6_Platform_SDK/output/mx6dq/lib/libsdk.a(gpio.o)
 .rodata        0x10098d7c      0x380 /home/leon/git/swp-report/iMX6_Platform_SDK/output/mx6dq/lib/libsdk.a(imx6dq_gpio_map.o)
                0x10098d7c                k_gpio_mux_registers
 .rodata        0x100990fc       0xb4 /home/leon/git/swp-report/iMX6_Platform_SDK/output/mx6dq/lib/libsdk.a(hdmi_tx.o)
 .rodata        0x100991b0       0x3c /home/leon/git/swp-report/iMX6_Platform_SDK/output/mx6dq/lib/libsdk.a(hdmi_tx_audio.o)
 .rodata        0x100991ec       0xec /home/leon/git/swp-report/iMX6_Platform_SDK/output/mx6dq/lib/libsdk.a(hdmi_tx_phy.o)
 .rodata        0x100992d8      0x2c4 /home/leon/git/swp-report/iMX6_Platform_SDK/output/mx6dq/lib/libsdk.a(imx_i2c.o)
 .rodata        0x1009959c       0x54 /home/leon/git/swp-report/iMX6_Platform_SDK/output/mx6dq/lib/libsdk.a(ips_disp_panel.o)
 .rodata        0x100995f0       0x74 /home/leon/git/swp-report/iMX6_Platform_SDK/output/mx6dq/lib/libsdk.a(ipu_common.o)
 .rodata        0x10099664       0xc0 /home/leon/git/swp-report/iMX6_Platform_SDK/output/mx6dq/lib/libsdk.a(ipu_csi.o)
 .rodata        0x10099724       0x9c /home/leon/git/swp-report/iMX6_Platform_SDK/output/mx6dq/lib/libsdk.a(ipu_dc.o)
 .rodata        0x100997c0       0x18 /home/leon/git/swp-report/iMX6_Platform_SDK/output/mx6dq/lib/libsdk.a(ipu_di.o)
 .rodata        0x100997d8       0x78 /home/leon/git/swp-report/iMX6_Platform_SDK/output/mx6dq/lib/libsdk.a(ipu_dp.o)
 .rodata        0x10099850       0x38 /home/leon/git/swp-report/iMX6_Platform_SDK/output/mx6dq/lib/libsdk.a(ipu_idmac.o)
 .rodata        0x10099888       0x68 /home/leon/git/swp-report/iMX6_Platform_SDK/output/mx6dq/lib/libsdk.a(ldb.o)
 .rodata        0x100998f0      0x4ec /home/leon/git/swp-report/iMX6_Platform_SDK/output/mx6dq/lib/libsdk.a(sata.o)
 .rodata        0x10099ddc       0x74 /home/leon/git/swp-report/iMX6_Platform_SDK/output/mx6dq/lib/libsdk.a(ecspi.o)
 .rodata        0x10099e50       0x94 /home/leon/git/swp-report/iMX6_Platform_SDK/output/mx6dq/lib/libsdk.a(usb_common.o)
 .rodata        0x10099ee4       0x28 /home/leon/git/swp-report/iMX6_Platform_SDK/output/mx6dq/lib/libsdk.a(usbh_drv.o)
 .rodata        0x10099f0c      0x1cc /home/leon/git/swp-report/iMX6_Platform_SDK/output/mx6dq/lib/libsdk.a(usdhc.o)
 .rodata        0x1009a0d8       0x1c /home/leon/git/swp-report/iMX6_Platform_SDK/output/mx6dq/lib/libsdk.a(usdhc_host.o)
 .rodata        0x1009a0f4      0x20c /home/leon/git/swp-report/iMX6_Platform_SDK/output/mx6dq/lib/libsdk.a(usdhc_mmc.o)
 .rodata        0x1009a300       0x58 /home/leon/git/swp-report/iMX6_Platform_SDK/output/mx6dq/lib/libsdk.a(usdhc_sd.o)
                0x1009a300                sd_ocr_value
                0x1009a30c                sd_if_cmd_arg
 .rodata        0x1009a358       0x68 /home/leon/git/swp-report/iMX6_Platform_SDK/output/mx6dq/lib/libsdk.a(adv7180.o)
 .rodata        0x1009a3c0       0x10 /home/leon/git/swp-report/iMX6_Platform_SDK/output/mx6dq/lib/libsdk.a(hdmi_common.o)
 .rodata        0x1009a3d0      0x1bc /home/leon/git/swp-report/iMX6_Platform_SDK/output/mx6dq/lib/libsdk.a(ipu_ic.o)
 .rodata        0x1009a58c      0x230 /home/leon/git/swp-report/iMX6_Platform_SDK/output/mx6dq/lib/libsdk.a(abort_handler.o)
 .rodata        0x1009a7bc       0x64 /home/leon/git/swp-report/iMX6_Platform_SDK/output/mx6dq/lib/libboard_sabre_ai_rev_a.a(board_display.o)
 .rodata        0x1009a820       0x28 /home/leon/git/swp-report/iMX6_Platform_SDK/output/mx6dq/lib/libboard_sabre_ai_rev_a.a(board_hdmi.o)
 .rodata        0x1009a848       0x70 /home/leon/git/swp-report/iMX6_Platform_SDK/output/mx6dq/lib/libboard_sabre_ai_rev_a.a(board_i2c.o)
                0x1009a848                g_wm8958_i2c_device
                0x1009a850                g_wm8962_i2c_device
                0x1009a858                g_sgtl5000_i2c_device
                0x1009a860                g_cs42888_i2c_device
                0x1009a868                g_pmic_ltc3589_i2c_device
                0x1009a870                g_pmic_da9053_i2c_device
                0x1009a878                g_pmic_max17135_i2c_device
                0x1009a880                g_pmic_pf0100_i2c_device
                0x1009a888                g_adv7180_i2c_device
                0x1009a890                g_os81050_i2c_device
                0x1009a898                g_p1003_tsc_i2c_device
                0x1009a8a0                g_at24cx_i2c_device
                0x1009a8a8                g_si476x_i2c_device
                0x1009a8b0                g_mma8451_i2c_device
 .rodata        0x1009a8b8       0x80 /home/leon/git/swp-report/iMX6_Platform_SDK/output/mx6dq/lib/libboard_sabre_ai_rev_a.a(ecspi_iomux_config.o)
 .rodata        0x1009a938       0x7c /home/leon/git/swp-report/iMX6_Platform_SDK/output/mx6dq/lib/libboard_sabre_ai_rev_a.a(i2c_iomux_config.o)
 .rodata        0x1009a9b4       0x7c /home/leon/git/swp-report/iMX6_Platform_SDK/output/mx6dq/lib/libboard_sabre_ai_rev_a.a(ipu_iomux_config.o)
 .rodata        0x1009aa30       0x80 /home/leon/git/swp-report/iMX6_Platform_SDK/output/mx6dq/lib/libboard_sabre_ai_rev_a.a(uart_iomux_config.o)
 .rodata        0x1009aab0       0x80 /home/leon/git/swp-report/iMX6_Platform_SDK/output/mx6dq/lib/libboard_sabre_ai_rev_a.a(usdhc_iomux_config.o)
 .rodata.str1.4
                0x1009ab30       0x3f /home/leon/riotboard/arm-2012.09/bin/../arm-none-eabi/lib//libc.a(lib_a-assert.o)
                                 0x44 (size before relaxing)
 *fill*         0x1009ab6f        0x1 
 .rodata        0x1009ab70        0x4 /home/leon/riotboard/arm-2012.09/bin/../arm-none-eabi/lib//libc.a(lib_a-impure.o)
                0x1009ab70                _global_impure_ptr
 .rodata.str1.4
                0x1009ab74        0x2 /home/leon/riotboard/arm-2012.09/bin/../arm-none-eabi/lib//libc.a(lib_a-impure.o)
                                  0x4 (size before relaxing)
 *fill*         0x1009ab76        0x2 
 .rodata        0x1009ab78       0x20 /home/leon/riotboard/arm-2012.09/bin/../arm-none-eabi/lib//libc.a(lib_a-svfprintf.o)
 .rodata.str1.4
                0x1009ab98       0x42 /home/leon/riotboard/arm-2012.09/bin/../arm-none-eabi/lib//libc.a(lib_a-svfprintf.o)
                                 0x44 (size before relaxing)
 *fill*         0x1009abda        0x2 
 .rodata        0x1009abdc       0x20 /home/leon/riotboard/arm-2012.09/bin/../arm-none-eabi/lib//libc.a(lib_a-vfiprintf.o)
 .rodata.str1.4
                0x00000000       0x30 /home/leon/riotboard/arm-2012.09/bin/../arm-none-eabi/lib//libc.a(lib_a-vfiprintf.o)
 .rodata        0x1009abfc       0x20 /home/leon/riotboard/arm-2012.09/bin/../arm-none-eabi/lib//libc.a(lib_a-vfprintf.o)
 .rodata.str1.4
                0x00000000       0x44 /home/leon/riotboard/arm-2012.09/bin/../arm-none-eabi/lib//libc.a(lib_a-vfprintf.o)
 .rodata        0x1009ac1c      0x104 /home/leon/riotboard/arm-2012.09/bin/../arm-none-eabi/lib//libc.a(lib_a-ctype_.o)
                0x1009ac1c                _ctype_
 .rodata.str1.4
                0x1009ad20       0x10 /home/leon/riotboard/arm-2012.09/bin/../arm-none-eabi/lib//libc.a(lib_a-dtoa.o)
                                 0x14 (size before relaxing)
 .rodata.str1.4
                0x1009ad30        0xc /home/leon/riotboard/arm-2012.09/bin/../arm-none-eabi/lib//libc.a(lib_a-locale.o)
                                 0x14 (size before relaxing)
 *fill*         0x1009ad3c        0x4 
 .rodata        0x1009ad40      0x128 /home/leon/riotboard/arm-2012.09/bin/../arm-none-eabi/lib//libc.a(lib_a-mprec.o)
                0x1009ad50                __mprec_tens
                0x1009ae18                __mprec_tinytens
                0x1009ae40                __mprec_bigtens
 .rodata        0x1009ae68       0x20 /home/leon/riotboard/arm-2012.09/bin/../arm-none-eabi/lib//libc.a(lib_a-svfiprintf.o)
 .rodata.str1.4
                0x00000000       0x30 /home/leon/riotboard/arm-2012.09/bin/../arm-none-eabi/lib//libc.a(lib_a-svfiprintf.o)
 .rodata        0x1009ae88       0x20 /home/leon/git/swp-report/iMX6_Platform_SDK/output/mx6dq/lib/libsdk.a(runtime_support.o)
                0x1009aea8                . = ALIGN (0x4)
 *(.init)
 .init          0x1009aea8        0xc /home/leon/riotboard/arm-2012.09/bin/../lib/gcc/arm-none-eabi/4.7.2//crti.o
                0x1009aea8                _init
 .init          0x1009aeb4        0xc /home/leon/riotboard/arm-2012.09/bin/../lib/gcc/arm-none-eabi/4.7.2//crtn.o
                0x1009aec0                . = ALIGN (0x4)
                0x1009aec0                __init_array_start = .
 *(SORT(.init_array.*))
 *(.init_array)
 .init_array    0x1009aec0        0x4 /home/leon/riotboard/arm-2012.09/bin/../lib/gcc/arm-none-eabi/4.7.2//crtbegin.o
                0x1009aec4                __init_array_end = .
                0x1009aec4                . = ALIGN (0x4)
 *(.fini)
 .fini          0x1009aec4        0xc /home/leon/riotboard/arm-2012.09/bin/../lib/gcc/arm-none-eabi/4.7.2//crti.o
                0x1009aec4                _fini
 .fini          0x1009aed0        0xc /home/leon/riotboard/arm-2012.09/bin/../lib/gcc/arm-none-eabi/4.7.2//crtn.o
                0x1009aedc                . = ALIGN (0x4)
                0x1009aedc                __fini_array_start = .
 *(.fini_array)
 .fini_array    0x1009aedc        0x4 /home/leon/riotboard/arm-2012.09/bin/../lib/gcc/arm-none-eabi/4.7.2//crtbegin.o
 *(SORT(.fini_array.*))
                0x1009aee0                __fini_array_end = .
                0x1009aee0                PROVIDE (__exidx_start, .)

.eh_frame       0x1009aee0        0x4
 .eh_frame      0x1009aee0        0x0 /home/leon/riotboard/arm-2012.09/bin/../lib/gcc/arm-none-eabi/4.7.2//crtbegin.o
 .eh_frame      0x1009aee0        0x4 /home/leon/riotboard/arm-2012.09/bin/../lib/gcc/arm-none-eabi/4.7.2//crtend.o

.ARM.exidx      0x1009aee4        0x8
 *(.ARM.exidx* .gnu.linkonce.armexidx.*)
 .ARM.exidx.startup
                0x1009aee4        0x8 /home/leon/git/swp-report/iMX6_Platform_SDK/output/mx6dq/lib/libsdk.a(startup.o)
 .ARM.exidx     0x1009aeec        0x0 /home/leon/riotboard/arm-2012.09/bin/../lib/gcc/arm-none-eabi/4.7.2//libgcc.a(_divdi3.o)
                                  0x8 (size before relaxing)
 .ARM.exidx     0x1009aeec        0x0 /home/leon/riotboard/arm-2012.09/bin/../lib/gcc/arm-none-eabi/4.7.2//libgcc.a(_udivdi3.o)
                                  0x8 (size before relaxing)
                0x1009aeec                PROVIDE (__exidx_end, .)

.rel.dyn        0x1009aeec        0x0
 .rel.iplt      0x00000000        0x0 /home/leon/riotboard/arm-2012.09/bin/../lib/gcc/arm-none-eabi/4.7.2//crtbegin.o

.data           0x1009aef0    0x58990
 *(.data .data.* .gnu.linkonce.d.*)
 .data          0x1009aef0        0x4 /home/leon/riotboard/arm-2012.09/bin/../lib/gcc/arm-none-eabi/4.7.2//crtbegin.o
                0x1009aef0                __dso_handle
 .data          0x1009aef4        0x0 /home/leon/riotboard/arm-2012.09/bin/../lib/gcc/arm-none-eabi/4.7.2//crti.o
 .data          0x1009aef4        0x0 /home/leon/riotboard/arm-2012.09/bin/../lib/gcc/arm-none-eabi/4.7.2//crtend.o
 .data          0x1009aef4        0x0 /home/leon/riotboard/arm-2012.09/bin/../lib/gcc/arm-none-eabi/4.7.2//crtn.o
 .data          0x1009aef4        0x0 /home/leon/git/swp-report/iMX6_Platform_SDK/output/mx6dq/obds/sabre_ai_rev_a/obj/apps/common/ivt.o
 .data          0x1009aef4        0x0 /home/leon/git/swp-report/iMX6_Platform_SDK/output/mx6dq/obds/sabre_ai_rev_a/obj/apps/common/platform_init.o
 .data          0x1009aef4        0x0 /home/leon/git/swp-report/iMX6_Platform_SDK/output/mx6dq/obds/sabre_ai_rev_a/obj/apps/common/print_clock_info.o
 .data          0x1009aef4        0x0 /home/leon/git/swp-report/iMX6_Platform_SDK/output/mx6dq/obds/sabre_ai_rev_a/obj/apps/common/print_version.o
 .data          0x1009aef4        0x4 /home/leon/git/swp-report/iMX6_Platform_SDK/output/mx6dq/obds/sabre_ai_rev_a/obj/apps/obds/src/obds.o
                0x1009aef4                auto_run_enable
 .data          0x1009aef8        0x8 /home/leon/git/swp-report/iMX6_Platform_SDK/output/mx6dq/obds/sabre_ai_rev_a/obj/apps/obds/src/obds_utils.o
                0x1009aef8                soc_sbmr1
                0x1009aefc                soc_sbmr2
 .data          0x1009af00        0x0 /home/leon/git/swp-report/iMX6_Platform_SDK/output/mx6dq/obds/sabre_ai_rev_a/obj/apps/obds/src/tests/android_buttons_test.o
 .data          0x1009af00        0x0 /home/leon/git/swp-report/iMX6_Platform_SDK/output/mx6dq/obds/sabre_ai_rev_a/obj/apps/obds/src/tests/audio_esai_test.o
 .data          0x1009af00    0x275f4 /home/leon/git/swp-report/iMX6_Platform_SDK/output/mx6dq/obds/sabre_ai_rev_a/obj/apps/obds/src/tests/audio_ssi_test.o
                0x1009af00                wav_data
                0x100c24c8                pcm_para
                0x100c24d4                pcm_music
                0x100c24e4                pcm_record
 .data          0x100c24f4        0x0 /home/leon/git/swp-report/iMX6_Platform_SDK/output/mx6dq/obds/sabre_ai_rev_a/obj/apps/obds/src/tests/ddr_test.o
 .data          0x100c24f4        0x0 /home/leon/git/swp-report/iMX6_Platform_SDK/output/mx6dq/obds/sabre_ai_rev_a/obj/apps/obds/src/tests/deserializer_ds90ur124.o
 .data          0x100c24f4    0x11e38 /home/leon/git/swp-report/iMX6_Platform_SDK/output/mx6dq/obds/sabre_ai_rev_a/obj/apps/obds/src/tests/display_test.o
                0x100c24f4                gImage_fsl
 .data          0x100d432c        0x8 /home/leon/git/swp-report/iMX6_Platform_SDK/output/mx6dq/obds/sabre_ai_rev_a/obj/apps/obds/src/tests/enet_mx6dldq_test.o
 .data          0x100d4334        0x0 /home/leon/git/swp-report/iMX6_Platform_SDK/output/mx6dq/obds/sabre_ai_rev_a/obj/apps/obds/src/tests/flexcan_test.o
 .data          0x100d4334        0x0 /home/leon/git/swp-report/iMX6_Platform_SDK/output/mx6dq/obds/sabre_ai_rev_a/obj/apps/obds/src/tests/fm_tuner_si476x_test.o
 .data          0x100d4334        0x0 /home/leon/git/swp-report/iMX6_Platform_SDK/output/mx6dq/obds/sabre_ai_rev_a/obj/apps/obds/src/tests/gpio_led.o
 .data          0x100d4334        0x4 /home/leon/git/swp-report/iMX6_Platform_SDK/output/mx6dq/obds/sabre_ai_rev_a/obj/apps/obds/src/tests/gps_test.o
 .data          0x100d4338        0x0 /home/leon/git/swp-report/iMX6_Platform_SDK/output/mx6dq/obds/sabre_ai_rev_a/obj/apps/obds/src/tests/i2c_check_light_sensor_isl29023.o
 .data          0x100d4338        0x0 /home/leon/git/swp-report/iMX6_Platform_SDK/output/mx6dq/obds/sabre_ai_rev_a/obj/apps/obds/src/tests/i2c_device_barometer_ppl3115.o
 .data          0x100d4338        0x0 /home/leon/git/swp-report/iMX6_Platform_SDK/output/mx6dq/obds/sabre_ai_rev_a/obj/apps/obds/src/tests/i2c_device_check_cs42888.o
 .data          0x100d4338        0x0 /home/leon/git/swp-report/iMX6_Platform_SDK/output/mx6dq/obds/sabre_ai_rev_a/obj/apps/obds/src/tests/i2c_device_digital_compass_mag3110.o
 .data          0x100d4338        0x0 /home/leon/git/swp-report/iMX6_Platform_SDK/output/mx6dq/obds/sabre_ai_rev_a/obj/apps/obds/src/tests/i2c_device_digital_compass_mag3112.o
 .data          0x100d4338        0x0 /home/leon/git/swp-report/iMX6_Platform_SDK/output/mx6dq/obds/sabre_ai_rev_a/obj/apps/obds/src/tests/i2c_device_id_check_mma8450.o
 .data          0x100d4338        0x0 /home/leon/git/swp-report/iMX6_Platform_SDK/output/mx6dq/obds/sabre_ai_rev_a/obj/apps/obds/src/tests/i2c_device_id_check_mma8451.o
 .data          0x100d4338        0x0 /home/leon/git/swp-report/iMX6_Platform_SDK/output/mx6dq/obds/sabre_ai_rev_a/obj/apps/obds/src/tests/i2c_device_id_check_p1003_tsc.o
 .data          0x100d4338        0x0 /home/leon/git/swp-report/iMX6_Platform_SDK/output/mx6dq/obds/sabre_ai_rev_a/obj/apps/obds/src/tests/i2c_device_temp_sensor_emc1046.o
 .data          0x100d4338        0x0 /home/leon/git/swp-report/iMX6_Platform_SDK/output/mx6dq/obds/sabre_ai_rev_a/obj/apps/obds/src/tests/i2c_device_zigbee_mc1323.o
 .data          0x100d4338        0x0 /home/leon/git/swp-report/iMX6_Platform_SDK/output/mx6dq/obds/sabre_ai_rev_a/obj/apps/obds/src/tests/i2c_eeprom_at24cxx_test.o
 .data          0x100d4338        0x8 /home/leon/git/swp-report/iMX6_Platform_SDK/output/mx6dq/obds/sabre_ai_rev_a/obj/apps/obds/src/tests/imx_spi_nor_test.o
                0x100d4338                AT45DB321D_id
                0x100d433c                M25P32_id
 .data          0x100d4340        0x8 /home/leon/git/swp-report/iMX6_Platform_SDK/output/mx6dq/obds/sabre_ai_rev_a/obj/apps/obds/src/tests/mlb_os81050.o
 .data          0x100d4348        0x0 /home/leon/git/swp-report/iMX6_Platform_SDK/output/mx6dq/obds/sabre_ai_rev_a/obj/apps/obds/src/tests/mmcsd_test.o
 .data          0x100d4348        0x0 /home/leon/git/swp-report/iMX6_Platform_SDK/output/mx6dq/obds/sabre_ai_rev_a/obj/apps/obds/src/tests/pmic_da9053.o
 .data          0x100d4348        0x0 /home/leon/git/swp-report/iMX6_Platform_SDK/output/mx6dq/obds/sabre_ai_rev_a/obj/apps/obds/src/tests/pmic_lt3589.o
 .data          0x100d4348        0x0 /home/leon/git/swp-report/iMX6_Platform_SDK/output/mx6dq/obds/sabre_ai_rev_a/obj/apps/obds/src/tests/pmic_max17135.o
 .data          0x100d4348        0x0 /home/leon/git/swp-report/iMX6_Platform_SDK/output/mx6dq/obds/sabre_ai_rev_a/obj/apps/obds/src/tests/pmic_mc13892.o
 .data          0x100d4348        0x0 /home/leon/git/swp-report/iMX6_Platform_SDK/output/mx6dq/obds/sabre_ai_rev_a/obj/apps/obds/src/tests/program_board_id.o
 .data          0x100d4348        0x0 /home/leon/git/swp-report/iMX6_Platform_SDK/output/mx6dq/obds/sabre_ai_rev_a/obj/apps/obds/src/tests/program_mac_address.o
 .data          0x100d4348        0x0 /home/leon/git/swp-report/iMX6_Platform_SDK/output/mx6dq/obds/sabre_ai_rev_a/obj/apps/obds/src/tests/snvs_srtc_test.o
 .data          0x100d4348        0x0 /home/leon/git/swp-report/iMX6_Platform_SDK/output/mx6dq/obds/sabre_ai_rev_a/obj/apps/obds/src/tests/touch_button_test.o
 .data          0x100d4348        0x0 /home/leon/git/swp-report/iMX6_Platform_SDK/output/mx6dq/obds/sabre_ai_rev_a/obj/apps/obds/src/tests/touch_screen.o
 .data          0x100d4348        0x0 /home/leon/git/swp-report/iMX6_Platform_SDK/output/mx6dq/obds/sabre_ai_rev_a/obj/apps/obds/src/tests/touch_screen_max11801.o
 .data          0x100d4348        0x0 /home/leon/git/swp-report/iMX6_Platform_SDK/output/mx6dq/obds/sabre_ai_rev_a/obj/apps/obds/src/tests/usb_tests_obds.o
 .data          0x100d4348        0x0 /home/leon/git/swp-report/iMX6_Platform_SDK/output/mx6dq/obds/sabre_ai_rev_a/obj/apps/obds/src/tests/video_dec_ARD_MB_reset_button.o
 .data          0x100d4348        0x0 /home/leon/git/swp-report/iMX6_Platform_SDK/output/mx6dq/obds/sabre_ai_rev_a/obj/apps/obds/src/tests/video_dec_ARD_MBrst_from_cpu_expander.o
 .data          0x100d4348        0x0 /home/leon/git/swp-report/iMX6_Platform_SDK/output/mx6dq/obds/sabre_ai_rev_a/obj/apps/obds/src/tests/video_dec_adv7180.o
 .data          0x100d4348        0x0 /home/leon/git/swp-report/iMX6_Platform_SDK/output/mx6dq/obds/sabre_ai_rev_a/obj/apps/obds/src/tests/weim_nor_flash_test.o
 .data          0x100d4348        0x0 /home/leon/git/swp-report/iMX6_Platform_SDK/output/mx6dq/obds/sabre_ai_rev_a/obj/sdk/common/ioexpander/test/max7310_test.o
 .data          0x100d4348        0x0 /home/leon/git/swp-report/iMX6_Platform_SDK/output/mx6dq/obds/sabre_ai_rev_a/obj/sdk/common/pmic/pfuse/pf0100.o
 .data          0x100d4348       0x68 /home/leon/git/swp-report/iMX6_Platform_SDK/output/mx6dq/obds/sabre_ai_rev_a/obj/sdk/drivers/audio/src/snd_card.o
                0x100d4360                snd_card_esai
                0x100d4370                snd_card_spdif
                0x100d4380                snd_card_ssi_sgtl5000
                0x100d4390                snd_card_ssi_wm8958
                0x100d43a0                snd_card_ssi_wm8962
 .data          0x100d43b0        0x0 /home/leon/git/swp-report/iMX6_Platform_SDK/output/mx6dq/obds/sabre_ai_rev_a/obj/sdk/drivers/camera/test/adv7180_capture.o
 .data          0x100d43b0       0x10 /home/leon/git/swp-report/iMX6_Platform_SDK/output/mx6dq/obds/sabre_ai_rev_a/obj/sdk/drivers/camera/test/camera_test.o
 .data          0x100d43c0        0x0 /home/leon/git/swp-report/iMX6_Platform_SDK/output/mx6dq/obds/sabre_ai_rev_a/obj/sdk/drivers/camera/test/csi_test_mode.o
 .data          0x100d43c0        0x0 /home/leon/git/swp-report/iMX6_Platform_SDK/output/mx6dq/obds/sabre_ai_rev_a/obj/sdk/drivers/camera/test/sensor_capture.o
 .data          0x100d43c0        0x0 /home/leon/git/swp-report/iMX6_Platform_SDK/output/mx6dq/obds/sabre_ai_rev_a/obj/sdk/drivers/hdmi/test/hdmi_test.o
 .data          0x100d43c0        0x0 /home/leon/git/swp-report/iMX6_Platform_SDK/output/mx6dq/obds/sabre_ai_rev_a/obj/sdk/drivers/hdmi/test/init_dma_data.o
 .data          0x100d43c0        0x0 /home/leon/git/swp-report/iMX6_Platform_SDK/output/mx6dq/obds/sabre_ai_rev_a/obj/sdk/drivers/ipu/test/ips_display.o
 .data          0x100d43c0        0x0 /home/leon/git/swp-report/iMX6_Platform_SDK/output/mx6dq/obds/sabre_ai_rev_a/obj/sdk/drivers/ipu/test/ipu_image.o
 .data          0x100d43c0        0x0 /home/leon/git/swp-report/iMX6_Platform_SDK/output/mx6dq/obds/sabre_ai_rev_a/obj/sdk/drivers/sata/test/sata_test.o
 .data          0x100d43c0        0x0 /home/leon/git/swp-report/iMX6_Platform_SDK/output/mx6dq/obds/sabre_ai_rev_a/obj/sdk/drivers/spi/test/imx_spi_nor_atmel.o
 .data          0x100d43c0        0x0 /home/leon/git/swp-report/iMX6_Platform_SDK/output/mx6dq/obds/sabre_ai_rev_a/obj/sdk/drivers/spi/test/spi_nor_numonyx.o
 .data          0x100d43c0        0x4 /home/leon/git/swp-report/iMX6_Platform_SDK/output/mx6dq/obds/sabre_ai_rev_a/obj/sdk/drivers/uart/test/uart_test.o
 .data          0x100d43c4        0x0 /home/leon/git/swp-report/iMX6_Platform_SDK/output/mx6dq/obds/sabre_ai_rev_a/obj/sdk/drivers/usb/test/usb0_host_test.o
 .data          0x100d43c4       0x28 /home/leon/git/swp-report/iMX6_Platform_SDK/output/mx6dq/obds/sabre_ai_rev_a/obj/sdk/drivers/usb/test/usb0_host_testmodes_test.o
 .data          0x100d43ec       0x68 /home/leon/git/swp-report/iMX6_Platform_SDK/output/mx6dq/obds/sabre_ai_rev_a/obj/sdk/drivers/usdhc/test/usdhc_test.o
 .data          0x100d4454        0x0 /home/leon/git/swp-report/iMX6_Platform_SDK/output/mx6dq/lib/libsdk.a(max7310.o)
 .data          0x100d4454        0x0 /home/leon/git/swp-report/iMX6_Platform_SDK/output/mx6dq/lib/libsdk.a(ccm_pll.o)
 .data          0x100d4454        0x0 /home/leon/git/swp-report/iMX6_Platform_SDK/output/mx6dq/lib/libsdk.a(cortexA9.o)
 .data          0x100d4454        0x0 /home/leon/git/swp-report/iMX6_Platform_SDK/output/mx6dq/lib/libsdk.a(gic.o)
 .data          0x100d4454        0x0 /home/leon/git/swp-report/iMX6_Platform_SDK/output/mx6dq/lib/libsdk.a(interrupt.o)
 .data          0x100d4454        0x0 /home/leon/git/swp-report/iMX6_Platform_SDK/output/mx6dq/lib/libsdk.a(mmu.o)
 .data          0x100d4454        0x0 /home/leon/git/swp-report/iMX6_Platform_SDK/output/mx6dq/lib/libsdk.a(startup.o)
 .data          0x100d4454        0x0 /home/leon/git/swp-report/iMX6_Platform_SDK/output/mx6dq/lib/libsdk.a(vectors.o)
 .data          0x100d4454        0x4 /home/leon/git/swp-report/iMX6_Platform_SDK/output/mx6dq/lib/libsdk.a(menu.o)
 .data          0x100d4458        0x0 /home/leon/git/swp-report/iMX6_Platform_SDK/output/mx6dq/lib/libsdk.a(sdk_version.o)
 .data          0x100d4458        0x0 /home/leon/git/swp-report/iMX6_Platform_SDK/output/mx6dq/lib/libsdk.a(system_util.o)
 .data          0x100d4458        0x4 /home/leon/git/swp-report/iMX6_Platform_SDK/output/mx6dq/lib/libsdk.a(text_color.o)
                0x100d4458                is_color_supported
 .data          0x100d445c       0x28 /home/leon/git/swp-report/iMX6_Platform_SDK/output/mx6dq/lib/libsdk.a(cs42888.o)
                0x100d445c                cs42888_ops
                0x100d4474                cs42888
 .data          0x100d4484       0x60 /home/leon/git/swp-report/iMX6_Platform_SDK/output/mx6dq/lib/libsdk.a(imx-ssi.o)
                0x100d449c                imx_ssi_1
                0x100d44b4                imx_ssi_2
                0x100d44cc                imx_ssi_3
 .data          0x100d44e4       0x30 /home/leon/git/swp-report/iMX6_Platform_SDK/output/mx6dq/lib/libsdk.a(imx_esai.o)
                0x100d44fc                imx_esai_1
 .data          0x100d4514       0x30 /home/leon/git/swp-report/iMX6_Platform_SDK/output/mx6dq/lib/libsdk.a(imx_spdif.o)
                0x100d452c                imx_spdif
 .data          0x100d4544       0x28 /home/leon/git/swp-report/iMX6_Platform_SDK/output/mx6dq/lib/libsdk.a(sgtl5000.o)
                0x100d4544                sgtl5000_ops
                0x100d455c                sgtl5000
 .data          0x100d456c       0x28 /home/leon/git/swp-report/iMX6_Platform_SDK/output/mx6dq/lib/libsdk.a(wm8958_dac.o)
                0x100d456c                wm8958_ops
                0x100d4584                wm8958
 .data          0x100d4594       0x28 /home/leon/git/swp-report/iMX6_Platform_SDK/output/mx6dq/lib/libsdk.a(wm8962.o)
                0x100d4594                wm8962_ops
                0x100d45ac                wm8962
 .data          0x100d45bc        0x0 /home/leon/git/swp-report/iMX6_Platform_SDK/output/mx6dq/lib/libsdk.a(board_id.o)
 .data          0x100d45bc       0x30 /home/leon/git/swp-report/iMX6_Platform_SDK/output/mx6dq/lib/libsdk.a(smd_sensor.o)
                0x100d45bc                ov5642_strobe_on
 .data          0x100d45ec        0x0 /home/leon/git/swp-report/iMX6_Platform_SDK/output/mx6dq/lib/libsdk.a(enet_drv.o)
 .data          0x100d45ec        0x0 /home/leon/git/swp-report/iMX6_Platform_SDK/output/mx6dq/lib/libsdk.a(gpio.o)
 .data          0x100d45ec        0x0 /home/leon/git/swp-report/iMX6_Platform_SDK/output/mx6dq/lib/libsdk.a(imx6dq_gpio_map.o)
 .data          0x100d45ec        0x0 /home/leon/git/swp-report/iMX6_Platform_SDK/output/mx6dq/lib/libsdk.a(hdmi_tx.o)
 .data          0x100d45ec        0x0 /home/leon/git/swp-report/iMX6_Platform_SDK/output/mx6dq/lib/libsdk.a(hdmi_tx_audio.o)
 .data          0x100d45ec        0x0 /home/leon/git/swp-report/iMX6_Platform_SDK/output/mx6dq/lib/libsdk.a(hdmi_tx_phy.o)
 .data          0x100d45ec        0x0 /home/leon/git/swp-report/iMX6_Platform_SDK/output/mx6dq/lib/libsdk.a(imx_i2c.o)
 .data          0x100d45ec      0x368 /home/leon/git/swp-report/iMX6_Platform_SDK/output/mx6dq/lib/libsdk.a(ips_disp_panel.o)
                0x100d45ec                disp_dev_list
                0x100d4950                num_of_panels
 .data          0x100d4954        0x0 /home/leon/git/swp-report/iMX6_Platform_SDK/output/mx6dq/lib/libsdk.a(ipu_common.o)
 .data          0x100d4954        0x0 /home/leon/git/swp-report/iMX6_Platform_SDK/output/mx6dq/lib/libsdk.a(ipu_csi.o)
 .data          0x100d4954        0x0 /home/leon/git/swp-report/iMX6_Platform_SDK/output/mx6dq/lib/libsdk.a(ipu_dc.o)
 .data          0x100d4954        0x0 /home/leon/git/swp-report/iMX6_Platform_SDK/output/mx6dq/lib/libsdk.a(ipu_di.o)
 .data          0x100d4954        0x0 /home/leon/git/swp-report/iMX6_Platform_SDK/output/mx6dq/lib/libsdk.a(ipu_dmfc.o)
 .data          0x100d4954        0x0 /home/leon/git/swp-report/iMX6_Platform_SDK/output/mx6dq/lib/libsdk.a(ipu_dp.o)
 .data          0x100d4954        0x0 /home/leon/git/swp-report/iMX6_Platform_SDK/output/mx6dq/lib/libsdk.a(ipu_idmac.o)
 .data          0x100d4954        0x0 /home/leon/git/swp-report/iMX6_Platform_SDK/output/mx6dq/lib/libsdk.a(ipu_vdi.o)
 .data          0x100d4954        0x0 /home/leon/git/swp-report/iMX6_Platform_SDK/output/mx6dq/lib/libsdk.a(ldb.o)
 .data          0x100d4954        0x0 /home/leon/git/swp-report/iMX6_Platform_SDK/output/mx6dq/lib/libsdk.a(ocotp.o)
 .data          0x100d4954        0x1 /home/leon/git/swp-report/iMX6_Platform_SDK/output/mx6dq/lib/libsdk.a(sata.o)
 .data          0x100d4955        0x0 /home/leon/git/swp-report/iMX6_Platform_SDK/output/mx6dq/lib/libsdk.a(ecspi.o)
 .data          0x100d4955        0x0 /home/leon/git/swp-report/iMX6_Platform_SDK/output/mx6dq/lib/libsdk.a(timer.o)
 .data          0x100d4955        0x0 /home/leon/git/swp-report/iMX6_Platform_SDK/output/mx6dq/lib/libsdk.a(imx_uart.o)
 .data          0x100d4955        0x0 /home/leon/git/swp-report/iMX6_Platform_SDK/output/mx6dq/lib/libsdk.a(usb_common.o)
 .data          0x100d4955        0x0 /home/leon/git/swp-report/iMX6_Platform_SDK/output/mx6dq/lib/libsdk.a(usbh_drv.o)
 *fill*         0x100d4955        0x3 
 .data          0x100d4958       0x58 /home/leon/git/swp-report/iMX6_Platform_SDK/output/mx6dq/lib/libsdk.a(usdhc.o)
                0x100d4958                usdhc_device
                0x100d49a8                card_detect_test_en
                0x100d49ac                write_protect_test_en
 .data          0x100d49b0        0x0 /home/leon/git/swp-report/iMX6_Platform_SDK/output/mx6dq/lib/libsdk.a(usdhc_host.o)
 .data          0x100d49b0        0x4 /home/leon/git/swp-report/iMX6_Platform_SDK/output/mx6dq/lib/libsdk.a(usdhc_mmc.o)
 .data          0x100d49b4        0x0 /home/leon/git/swp-report/iMX6_Platform_SDK/output/mx6dq/lib/libsdk.a(usdhc_sd.o)
 .data          0x100d49b4      0x230 /home/leon/git/swp-report/iMX6_Platform_SDK/output/mx6dq/lib/libsdk.a(adv7180.o)
                0x100d49b4                video_fmts
                0x100d4a08                adv7180_work_mode
 .data          0x100d4be4        0x4 /home/leon/git/swp-report/iMX6_Platform_SDK/output/mx6dq/lib/libsdk.a(arm_abort.o)
 .data          0x100d4be8        0x0 /home/leon/git/swp-report/iMX6_Platform_SDK/output/mx6dq/lib/libsdk.a(armv7_cache.o)
 .data          0x100d4be8    0x1e3c0 /home/leon/git/swp-report/iMX6_Platform_SDK/output/mx6dq/lib/libsdk.a(camera_profile.o)
                0x100d4be8                g_ov3640_sensor_detection
                0x100d4c08                g_ov5640_sensor_detection
                0x100d4c28                g_ov5642_sensor_detection
                0x100d4c48                g_mt9p111_sensor_detection
                0x100d4c58                g_ov3640_mode_vga_640_480_30fps
                0x100d53b8                g_ov5640_mode_vga_640_480_30fps
                0x100d6338                g_ov5642_mode_vga_640_480_30fps
                0x100d8258                g_ov5642_af_firmware
                0x100eef28                g_ov5642_af_trigger
                0x100eef48                g_ov5642_af_ready
                0x100eef58                g_mt9p111_mode_vga_640_480_30fps
                0x100f2698                g_mt9p111_af_firmware
                0x100f2dd8                g_mt9p111_af_trigger
                0x100f2e08                g_mt9p111_af_ready
                0x100f2e18                g_camera_modes
                0x100f2e38                g_camera_profiles
 .data          0x100f2fa8        0x0 /home/leon/git/swp-report/iMX6_Platform_SDK/output/mx6dq/lib/libsdk.a(hdmi_common.o)
 .data          0x100f2fa8        0x0 /home/leon/git/swp-report/iMX6_Platform_SDK/output/mx6dq/lib/libsdk.a(ipu_ic.o)
 .data          0x100f2fa8        0x0 /home/leon/git/swp-report/iMX6_Platform_SDK/output/mx6dq/lib/libsdk.a(epit.o)
 .data          0x100f2fa8        0x0 /home/leon/git/swp-report/iMX6_Platform_SDK/output/mx6dq/lib/libsdk.a(mx6x_usb.o)
 .data          0x100f2fa8        0x0 /home/leon/git/swp-report/iMX6_Platform_SDK/output/mx6dq/lib/libsdk.a(abort_handler.o)
 .data          0x100f2fa8        0x0 /home/leon/git/swp-report/iMX6_Platform_SDK/output/mx6dq/lib/libboard_sabre_ai_rev_a.a(board_audio.o)
 .data          0x100f2fa8        0x0 /home/leon/git/swp-report/iMX6_Platform_SDK/output/mx6dq/lib/libboard_sabre_ai_rev_a.a(board_buttons.o)
 .data          0x100f2fa8        0x1 /home/leon/git/swp-report/iMX6_Platform_SDK/output/mx6dq/lib/libboard_sabre_ai_rev_a.a(board_camera.o)
                0x100f2fa8                g_camera_i2c_port
 .data          0x100f2fa9        0x0 /home/leon/git/swp-report/iMX6_Platform_SDK/output/mx6dq/lib/libboard_sabre_ai_rev_a.a(board_display.o)
 .data          0x100f2fa9        0x0 /home/leon/git/swp-report/iMX6_Platform_SDK/output/mx6dq/lib/libboard_sabre_ai_rev_a.a(board_hdmi.o)
 .data          0x100f2fa9        0x0 /home/leon/git/swp-report/iMX6_Platform_SDK/output/mx6dq/lib/libboard_sabre_ai_rev_a.a(board_i2c.o)
 .data          0x100f2fa9        0x0 /home/leon/git/swp-report/iMX6_Platform_SDK/output/mx6dq/lib/libboard_sabre_ai_rev_a.a(board_io_expanders.o)
 .data          0x100f2fa9        0x0 /home/leon/git/swp-report/iMX6_Platform_SDK/output/mx6dq/lib/libboard_sabre_ai_rev_a.a(board_mipi.o)
 .data          0x100f2fa9        0x0 /home/leon/git/swp-report/iMX6_Platform_SDK/output/mx6dq/lib/libboard_sabre_ai_rev_a.a(board_network.o)
 .data          0x100f2fa9        0x0 /home/leon/git/swp-report/iMX6_Platform_SDK/output/mx6dq/lib/libboard_sabre_ai_rev_a.a(board_sata.o)
 .data          0x100f2fa9        0x0 /home/leon/git/swp-report/iMX6_Platform_SDK/output/mx6dq/lib/libboard_sabre_ai_rev_a.a(board_usb.o)
 .data          0x100f2fa9        0x0 /home/leon/git/swp-report/iMX6_Platform_SDK/output/mx6dq/lib/libboard_sabre_ai_rev_a.a(board_usdhc.o)
 *fill*         0x100f2fa9        0x3 
 .data          0x100f2fac        0x8 /home/leon/git/swp-report/iMX6_Platform_SDK/output/mx6dq/lib/libboard_sabre_ai_rev_a.a(hardware_modules.o)
                0x100f2fac                g_debug_uart_port
                0x100f2fb0                g_system_timer_port
 .data          0x100f2fb4        0x0 /home/leon/git/swp-report/iMX6_Platform_SDK/output/mx6dq/lib/libboard_sabre_ai_rev_a.a(dcd.o)
 .data          0x100f2fb4        0x0 /home/leon/git/swp-report/iMX6_Platform_SDK/output/mx6dq/lib/libboard_sabre_ai_rev_a.a(audmux_iomux_config.o)
 .data          0x100f2fb4        0x0 /home/leon/git/swp-report/iMX6_Platform_SDK/output/mx6dq/lib/libboard_sabre_ai_rev_a.a(ecspi_iomux_config.o)
 .data          0x100f2fb4        0x0 /home/leon/git/swp-report/iMX6_Platform_SDK/output/mx6dq/lib/libboard_sabre_ai_rev_a.a(eim_iomux_config.o)
 .data          0x100f2fb4        0x0 /home/leon/git/swp-report/iMX6_Platform_SDK/output/mx6dq/lib/libboard_sabre_ai_rev_a.a(enet_iomux_config.o)
 .data          0x100f2fb4        0x0 /home/leon/git/swp-report/iMX6_Platform_SDK/output/mx6dq/lib/libboard_sabre_ai_rev_a.a(esai_iomux_config.o)
 .data          0x100f2fb4        0x0 /home/leon/git/swp-report/iMX6_Platform_SDK/output/mx6dq/lib/libboard_sabre_ai_rev_a.a(i2c3_iomux_config.o)
 .data          0x100f2fb4        0x0 /home/leon/git/swp-report/iMX6_Platform_SDK/output/mx6dq/lib/libboard_sabre_ai_rev_a.a(i2c_iomux_config.o)
 .data          0x100f2fb4        0x0 /home/leon/git/swp-report/iMX6_Platform_SDK/output/mx6dq/lib/libboard_sabre_ai_rev_a.a(iomux_config.o)
 .data          0x100f2fb4        0x0 /home/leon/git/swp-report/iMX6_Platform_SDK/output/mx6dq/lib/libboard_sabre_ai_rev_a.a(ipu1_iomux_config.o)
 .data          0x100f2fb4        0x0 /home/leon/git/swp-report/iMX6_Platform_SDK/output/mx6dq/lib/libboard_sabre_ai_rev_a.a(ipu_iomux_config.o)
 .data          0x100f2fb4        0x0 /home/leon/git/swp-report/iMX6_Platform_SDK/output/mx6dq/lib/libboard_sabre_ai_rev_a.a(mlb_iomux_config.o)
 .data          0x100f2fb4        0x0 /home/leon/git/swp-report/iMX6_Platform_SDK/output/mx6dq/lib/libboard_sabre_ai_rev_a.a(mmdc_iomux_config.o)
 .data          0x100f2fb4        0x0 /home/leon/git/swp-report/iMX6_Platform_SDK/output/mx6dq/lib/libboard_sabre_ai_rev_a.a(pwm3_iomux_config.o)
 .data          0x100f2fb4        0x0 /home/leon/git/swp-report/iMX6_Platform_SDK/output/mx6dq/lib/libboard_sabre_ai_rev_a.a(pwm4_iomux_config.o)
 .data          0x100f2fb4        0x0 /home/leon/git/swp-report/iMX6_Platform_SDK/output/mx6dq/lib/libboard_sabre_ai_rev_a.a(sjc_iomux_config.o)
 .data          0x100f2fb4        0x0 /home/leon/git/swp-report/iMX6_Platform_SDK/output/mx6dq/lib/libboard_sabre_ai_rev_a.a(spdif_iomux_config.o)
 .data          0x100f2fb4        0x0 /home/leon/git/swp-report/iMX6_Platform_SDK/output/mx6dq/lib/libboard_sabre_ai_rev_a.a(uart2_iomux_config.o)
 .data          0x100f2fb4        0x0 /home/leon/git/swp-report/iMX6_Platform_SDK/output/mx6dq/lib/libboard_sabre_ai_rev_a.a(uart3_iomux_config.o)
 .data          0x100f2fb4        0x0 /home/leon/git/swp-report/iMX6_Platform_SDK/output/mx6dq/lib/libboard_sabre_ai_rev_a.a(uart4_iomux_config.o)
 .data          0x100f2fb4        0x0 /home/leon/git/swp-report/iMX6_Platform_SDK/output/mx6dq/lib/libboard_sabre_ai_rev_a.a(uart_iomux_config.o)
 .data          0x100f2fb4        0x0 /home/leon/git/swp-report/iMX6_Platform_SDK/output/mx6dq/lib/libboard_sabre_ai_rev_a.a(usdhc1_iomux_config.o)
 .data          0x100f2fb4        0x0 /home/leon/git/swp-report/iMX6_Platform_SDK/output/mx6dq/lib/libboard_sabre_ai_rev_a.a(usdhc3_iomux_config.o)
 .data          0x100f2fb4        0x0 /home/leon/git/swp-report/iMX6_Platform_SDK/output/mx6dq/lib/libboard_sabre_ai_rev_a.a(usdhc_iomux_config.o)
 .data          0x100f2fb4        0x0 /home/leon/git/swp-report/iMX6_Platform_SDK/output/mx6dq/lib/libboard_sabre_ai_rev_a.a(wdog1_iomux_config.o)
 .data          0x100f2fb4        0x0 /home/leon/git/swp-report/iMX6_Platform_SDK/output/mx6dq/lib/libboard_sabre_ai_rev_a.a(ccm_iomux_config.o)
 .data          0x100f2fb4        0x0 /home/leon/git/swp-report/iMX6_Platform_SDK/output/mx6dq/lib/libboard_sabre_ai_rev_a.a(ecspi1_iomux_config.o)
 .data          0x100f2fb4        0x0 /home/leon/git/swp-report/iMX6_Platform_SDK/output/mx6dq/lib/libboard_sabre_ai_rev_a.a(flexcan1_iomux_config.o)
 .data          0x100f2fb4        0x0 /home/leon/git/swp-report/iMX6_Platform_SDK/output/mx6dq/lib/libboard_sabre_ai_rev_a.a(flexcan2_iomux_config.o)
 .data          0x100f2fb4        0x0 /home/leon/git/swp-report/iMX6_Platform_SDK/output/mx6dq/lib/libboard_sabre_ai_rev_a.a(gpio1_iomux_config.o)
 .data          0x100f2fb4        0x0 /home/leon/git/swp-report/iMX6_Platform_SDK/output/mx6dq/lib/libboard_sabre_ai_rev_a.a(gpio2_iomux_config.o)
 .data          0x100f2fb4        0x0 /home/leon/git/swp-report/iMX6_Platform_SDK/output/mx6dq/lib/libboard_sabre_ai_rev_a.a(gpio4_iomux_config.o)
 .data          0x100f2fb4        0x0 /home/leon/git/swp-report/iMX6_Platform_SDK/output/mx6dq/lib/libboard_sabre_ai_rev_a.a(gpio5_iomux_config.o)
 .data          0x100f2fb4        0x0 /home/leon/git/swp-report/iMX6_Platform_SDK/output/mx6dq/lib/libboard_sabre_ai_rev_a.a(gpio6_iomux_config.o)
 .data          0x100f2fb4        0x0 /home/leon/git/swp-report/iMX6_Platform_SDK/output/mx6dq/lib/libboard_sabre_ai_rev_a.a(gpmi_iomux_config.o)
 .data          0x100f2fb4        0x0 /home/leon/git/swp-report/iMX6_Platform_SDK/output/mx6dq/lib/libboard_sabre_ai_rev_a.a(i2c2_iomux_config.o)
 .data          0x100f2fb4        0x0 /home/leon/riotboard/arm-2012.09/bin/../arm-none-eabi/lib//libc.a(lib_a-assert.o)
 .data          0x100f2fb4        0x0 /home/leon/riotboard/arm-2012.09/bin/../arm-none-eabi/lib//libc.a(lib_a-bzero.o)
 .data          0x100f2fb4        0x0 /home/leon/riotboard/arm-2012.09/bin/../arm-none-eabi/lib//libc.a(lib_a-fiprintf.o)
 .data          0x100f2fb4        0x0 /home/leon/riotboard/arm-2012.09/bin/../arm-none-eabi/lib//libc.a(lib_a-fputc.o)
 *fill*         0x100f2fb4        0x4 
 .data          0x100f2fb8      0x430 /home/leon/riotboard/arm-2012.09/bin/../arm-none-eabi/lib//libc.a(lib_a-impure.o)
                0x100f2fb8                _impure_ptr
 .data          0x100f33e8        0x0 /home/leon/riotboard/arm-2012.09/bin/../arm-none-eabi/lib//libc.a(lib_a-init.o)
 .data          0x100f33e8        0x0 /home/leon/riotboard/arm-2012.09/bin/../arm-none-eabi/lib//libc.a(lib_a-malloc.o)
 .data          0x100f33e8      0x410 /home/leon/riotboard/arm-2012.09/bin/../arm-none-eabi/lib//libc.a(lib_a-mallocr.o)
                0x100f33e8                __malloc_av_
                0x100f37f0                __malloc_sbrk_base
                0x100f37f4                __malloc_trim_threshold
 .data          0x100f37f8        0x0 /home/leon/riotboard/arm-2012.09/bin/../arm-none-eabi/lib//libc.a(lib_a-memcpy.o)
 .data          0x100f37f8        0x0 /home/leon/riotboard/arm-2012.09/bin/../arm-none-eabi/lib//libc.a(lib_a-memset.o)
 .data          0x100f37f8        0x0 /home/leon/riotboard/arm-2012.09/bin/../arm-none-eabi/lib//libc.a(lib_a-mlock.o)
 .data          0x100f37f8        0x0 /home/leon/riotboard/arm-2012.09/bin/../arm-none-eabi/lib//libc.a(lib_a-printf.o)
 .data          0x100f37f8        0x0 /home/leon/riotboard/arm-2012.09/bin/../arm-none-eabi/lib//libc.a(lib_a-putc.o)
 .data          0x100f37f8        0x0 /home/leon/riotboard/arm-2012.09/bin/../arm-none-eabi/lib//libc.a(lib_a-realloc.o)
 .data          0x100f37f8        0x0 /home/leon/riotboard/arm-2012.09/bin/../arm-none-eabi/lib//libc.a(lib_a-reallocr.o)
 .data          0x100f37f8        0x0 /home/leon/riotboard/arm-2012.09/bin/../arm-none-eabi/lib//libc.a(lib_a-rget.o)
 .data          0x100f37f8        0x0 /home/leon/riotboard/arm-2012.09/bin/../arm-none-eabi/lib//libc.a(lib_a-sbrkr.o)
 .data          0x100f37f8        0x0 /home/leon/riotboard/arm-2012.09/bin/../arm-none-eabi/lib//libc.a(lib_a-sprintf.o)
 .data          0x100f37f8        0x0 /home/leon/riotboard/arm-2012.09/bin/../arm-none-eabi/lib//libc.a(lib_a-strcat.o)
 .data          0x100f37f8        0x0 /home/leon/riotboard/arm-2012.09/bin/../arm-none-eabi/lib//libc.a(lib_a-strcmp.o)
 .data          0x100f37f8        0x0 /home/leon/riotboard/arm-2012.09/bin/../arm-none-eabi/lib//libc.a(lib_a-strcpy.o)
 .data          0x100f37f8        0x0 /home/leon/riotboard/arm-2012.09/bin/../arm-none-eabi/lib//libc.a(lib_a-strlen.o)
 .data          0x100f37f8        0x0 /home/leon/riotboard/arm-2012.09/bin/../arm-none-eabi/lib//libc.a(lib_a-strncasecmp.o)
 .data          0x100f37f8        0x0 /home/leon/riotboard/arm-2012.09/bin/../arm-none-eabi/lib//libc.a(lib_a-strtok.o)
 .data          0x100f37f8        0x0 /home/leon/riotboard/arm-2012.09/bin/../arm-none-eabi/lib//libc.a(lib_a-strtok_r.o)
 .data          0x100f37f8        0x0 /home/leon/riotboard/arm-2012.09/bin/../arm-none-eabi/lib//libc.a(lib_a-svfprintf.o)
 .data          0x100f37f8        0x0 /home/leon/riotboard/arm-2012.09/bin/../arm-none-eabi/lib//libc.a(lib_a-vfiprintf.o)
 .data          0x100f37f8        0x0 /home/leon/riotboard/arm-2012.09/bin/../arm-none-eabi/lib//libc.a(lib_a-vfprintf.o)
 .data          0x100f37f8        0x0 /home/leon/riotboard/arm-2012.09/bin/../arm-none-eabi/lib//libc.a(lib_a-vprintf.o)
 .data          0x100f37f8        0x0 /home/leon/riotboard/arm-2012.09/bin/../arm-none-eabi/lib//libc.a(lib_a-wbuf.o)
 .data          0x100f37f8        0x0 /home/leon/riotboard/arm-2012.09/bin/../arm-none-eabi/lib//libc.a(lib_a-wsetup.o)
 .data          0x100f37f8        0x0 /home/leon/riotboard/arm-2012.09/bin/../arm-none-eabi/lib//libc.a(lib_a-abort.o)
 .data          0x100f37f8        0x4 /home/leon/riotboard/arm-2012.09/bin/../arm-none-eabi/lib//libc.a(lib_a-ctype_.o)
                0x100f37f8                __ctype_ptr__
 .data          0x100f37fc        0x0 /home/leon/riotboard/arm-2012.09/bin/../arm-none-eabi/lib//libc.a(lib_a-dtoa.o)
 .data          0x100f37fc        0x0 /home/leon/riotboard/arm-2012.09/bin/../arm-none-eabi/lib//libc.a(lib_a-fflush.o)
 .data          0x100f37fc        0x0 /home/leon/riotboard/arm-2012.09/bin/../arm-none-eabi/lib//libc.a(lib_a-findfp.o)
 .data          0x100f37fc        0x0 /home/leon/riotboard/arm-2012.09/bin/../arm-none-eabi/lib//libc.a(lib_a-fputwc.o)
 .data          0x100f37fc        0x0 /home/leon/riotboard/arm-2012.09/bin/../arm-none-eabi/lib//libc.a(lib_a-freer.o)
 .data          0x100f37fc        0x0 /home/leon/riotboard/arm-2012.09/bin/../arm-none-eabi/lib//libc.a(lib_a-fvwrite.o)
 .data          0x100f37fc        0x0 /home/leon/riotboard/arm-2012.09/bin/../arm-none-eabi/lib//libc.a(lib_a-fwalk.o)
 .data          0x100f37fc       0x7c /home/leon/riotboard/arm-2012.09/bin/../arm-none-eabi/lib//libc.a(lib_a-locale.o)
                0x100f381c                __mb_cur_max
 .data          0x100f3878        0x0 /home/leon/riotboard/arm-2012.09/bin/../arm-none-eabi/lib//libc.a(lib_a-makebuf.o)
 .data          0x100f3878        0x0 /home/leon/riotboard/arm-2012.09/bin/../arm-none-eabi/lib//libc.a(lib_a-memchr.o)
 .data          0x100f3878        0x0 /home/leon/riotboard/arm-2012.09/bin/../arm-none-eabi/lib//libc.a(lib_a-memmove.o)
 .data          0x100f3878        0x0 /home/leon/riotboard/arm-2012.09/bin/../arm-none-eabi/lib//libc.a(lib_a-mprec.o)
 .data          0x100f3878        0x0 /home/leon/riotboard/arm-2012.09/bin/../arm-none-eabi/lib//libc.a(lib_a-reent.o)
 .data          0x100f3878        0x0 /home/leon/riotboard/arm-2012.09/bin/../arm-none-eabi/lib//libc.a(lib_a-refill.o)
 .data          0x100f3878        0x0 /home/leon/riotboard/arm-2012.09/bin/../arm-none-eabi/lib//libc.a(lib_a-s_fpclassify.o)
 .data          0x100f3878        0x0 /home/leon/riotboard/arm-2012.09/bin/../arm-none-eabi/lib//libc.a(lib_a-signal.o)
 .data          0x100f3878        0x0 /home/leon/riotboard/arm-2012.09/bin/../arm-none-eabi/lib//libc.a(lib_a-signalr.o)
 .data          0x100f3878        0x0 /home/leon/riotboard/arm-2012.09/bin/../arm-none-eabi/lib//libc.a(lib_a-stdio.o)
 .data          0x100f3878        0x0 /home/leon/riotboard/arm-2012.09/bin/../arm-none-eabi/lib//libc.a(lib_a-svfiprintf.o)
 .data          0x100f3878        0x0 /home/leon/riotboard/arm-2012.09/bin/../arm-none-eabi/lib//libc.a(lib_a-wcrtomb.o)
 .data          0x100f3878        0x4 /home/leon/riotboard/arm-2012.09/bin/../arm-none-eabi/lib//libc.a(lib_a-wctomb_r.o)
                0x100f3878                __wctomb
 .data          0x100f387c        0x0 /home/leon/riotboard/arm-2012.09/bin/../arm-none-eabi/lib//libc.a(lib_a-writer.o)
 .data          0x100f387c        0x0 /home/leon/riotboard/arm-2012.09/bin/../arm-none-eabi/lib//libc.a(lib_a-callocr.o)
 .data          0x100f387c        0x0 /home/leon/riotboard/arm-2012.09/bin/../arm-none-eabi/lib//libc.a(lib_a-closer.o)
 .data          0x100f387c        0x0 /home/leon/riotboard/arm-2012.09/bin/../arm-none-eabi/lib//libc.a(lib_a-fclose.o)
 .data          0x100f387c        0x0 /home/leon/riotboard/arm-2012.09/bin/../arm-none-eabi/lib//libc.a(lib_a-fstatr.o)
 .data          0x100f387c        0x0 /home/leon/riotboard/arm-2012.09/bin/../arm-none-eabi/lib//libc.a(lib_a-isattyr.o)
 .data          0x100f387c        0x0 /home/leon/riotboard/arm-2012.09/bin/../arm-none-eabi/lib//libc.a(lib_a-lseekr.o)
 .data          0x100f387c        0x0 /home/leon/riotboard/arm-2012.09/bin/../arm-none-eabi/lib//libc.a(lib_a-readr.o)
 .data          0x100f387c        0x0 /home/leon/riotboard/arm-2012.09/bin/../lib/gcc/arm-none-eabi/4.7.2//libgcc.a(_udivsi3.o)
 .data          0x100f387c        0x0 /home/leon/riotboard/arm-2012.09/bin/../lib/gcc/arm-none-eabi/4.7.2//libgcc.a(_divsi3.o)
 .data          0x100f387c        0x0 /home/leon/riotboard/arm-2012.09/bin/../lib/gcc/arm-none-eabi/4.7.2//libgcc.a(_dvmd_tls.o)
 .data          0x100f387c        0x0 /home/leon/riotboard/arm-2012.09/bin/../lib/gcc/arm-none-eabi/4.7.2//libgcc.a(_arm_addsubdf3.o)
 .data          0x100f387c        0x0 /home/leon/riotboard/arm-2012.09/bin/../lib/gcc/arm-none-eabi/4.7.2//libgcc.a(_arm_muldivdf3.o)
 .data          0x100f387c        0x0 /home/leon/riotboard/arm-2012.09/bin/../lib/gcc/arm-none-eabi/4.7.2//libgcc.a(_arm_cmpdf2.o)
 .data          0x100f387c        0x0 /home/leon/riotboard/arm-2012.09/bin/../lib/gcc/arm-none-eabi/4.7.2//libgcc.a(_arm_fixdfsi.o)
 .data          0x100f387c        0x0 /home/leon/riotboard/arm-2012.09/bin/../lib/gcc/arm-none-eabi/4.7.2//libgcc.a(_aeabi_uldivmod.o)
 .data          0x100f387c        0x0 /home/leon/riotboard/arm-2012.09/bin/../lib/gcc/arm-none-eabi/4.7.2//libgcc.a(bpabi.o)
 .data          0x100f387c        0x0 /home/leon/riotboard/arm-2012.09/bin/../lib/gcc/arm-none-eabi/4.7.2//libgcc.a(_divdi3.o)
 .data          0x100f387c        0x0 /home/leon/riotboard/arm-2012.09/bin/../lib/gcc/arm-none-eabi/4.7.2//libgcc.a(_udivdi3.o)
 .data          0x100f387c        0x0 /home/leon/riotboard/arm-2012.09/bin/../lib/gcc/arm-none-eabi/4.7.2//libgcc.a(_clzsi2.o)
 .data          0x100f387c        0x4 /home/leon/git/swp-report/iMX6_Platform_SDK/output/mx6dq/lib/libsdk.a(runtime_support.o)
                0x100f387c                environ

.jcr            0x100f3880        0x4
 .jcr           0x100f3880        0x0 /home/leon/riotboard/arm-2012.09/bin/../lib/gcc/arm-none-eabi/4.7.2//crtbegin.o
 .jcr           0x100f3880        0x4 /home/leon/riotboard/arm-2012.09/bin/../lib/gcc/arm-none-eabi/4.7.2//crtend.o

.tm_clone_table
                0x100f3884        0x0
 .tm_clone_table
                0x100f3884        0x0 /home/leon/riotboard/arm-2012.09/bin/../lib/gcc/arm-none-eabi/4.7.2//crtbegin.o
 .tm_clone_table
                0x100f3884        0x0 /home/leon/riotboard/arm-2012.09/bin/../lib/gcc/arm-none-eabi/4.7.2//crtend.o

.igot.plt       0x100f3884        0x0
 .igot.plt      0x00000000        0x0 /home/leon/riotboard/arm-2012.09/bin/../lib/gcc/arm-none-eabi/4.7.2//crtbegin.o

.hab.data       0x10400000     0x2000
                0x10400000                __hab_data = .
                0x10402000                . = (. + 0x2000)
 *fill*         0x10400000     0x2000 
                0x10402000                . = ALIGN (0x20)
                0x10402000                __hab_data_end = .
                0x00402000                _image_size = (. - _start_image_add)

.bss            0x10402000   0x121674
                0x10402000                __bss_start__ = .
 *(.shbss)
 *(.bss .bss.* .gnu.linkonce.b.*)
 .bss           0x10402000       0x1c /home/leon/riotboard/arm-2012.09/bin/../lib/gcc/arm-none-eabi/4.7.2//crtbegin.o
 .bss           0x1040201c        0x0 /home/leon/riotboard/arm-2012.09/bin/../lib/gcc/arm-none-eabi/4.7.2//crti.o
 .bss           0x1040201c        0x0 /home/leon/riotboard/arm-2012.09/bin/../lib/gcc/arm-none-eabi/4.7.2//crtend.o
 .bss           0x1040201c        0x0 /home/leon/riotboard/arm-2012.09/bin/../lib/gcc/arm-none-eabi/4.7.2//crtn.o
 .bss           0x1040201c        0x0 /home/leon/git/swp-report/iMX6_Platform_SDK/output/mx6dq/obds/sabre_ai_rev_a/obj/apps/common/ivt.o
 .bss           0x1040201c        0x0 /home/leon/git/swp-report/iMX6_Platform_SDK/output/mx6dq/obds/sabre_ai_rev_a/obj/apps/common/platform_init.o
 .bss           0x1040201c        0x0 /home/leon/git/swp-report/iMX6_Platform_SDK/output/mx6dq/obds/sabre_ai_rev_a/obj/apps/common/print_clock_info.o
 .bss           0x1040201c        0x0 /home/leon/git/swp-report/iMX6_Platform_SDK/output/mx6dq/obds/sabre_ai_rev_a/obj/apps/common/print_version.o
 .bss           0x1040201c      0x7d4 /home/leon/git/swp-report/iMX6_Platform_SDK/output/mx6dq/obds/sabre_ai_rev_a/obj/apps/obds/src/obds.o
                0x1040201c                total_tests
                0x10402020                main_menuitems
                0x104024d0                obds_tests
 .bss           0x104027f0        0x0 /home/leon/git/swp-report/iMX6_Platform_SDK/output/mx6dq/obds/sabre_ai_rev_a/obj/apps/obds/src/obds_utils.o
 .bss           0x104027f0        0x0 /home/leon/git/swp-report/iMX6_Platform_SDK/output/mx6dq/obds/sabre_ai_rev_a/obj/apps/obds/src/tests/android_buttons_test.o
 .bss           0x104027f0        0x0 /home/leon/git/swp-report/iMX6_Platform_SDK/output/mx6dq/obds/sabre_ai_rev_a/obj/apps/obds/src/tests/audio_esai_test.o
 .bss           0x104027f0   0x100004 /home/leon/git/swp-report/iMX6_Platform_SDK/output/mx6dq/obds/sabre_ai_rev_a/obj/apps/obds/src/tests/audio_ssi_test.o
                0x104027f0                audio_record_buf
                0x105027f0                snd_card
 .bss           0x105027f4        0x0 /home/leon/git/swp-report/iMX6_Platform_SDK/output/mx6dq/obds/sabre_ai_rev_a/obj/apps/obds/src/tests/ddr_test.o
 .bss           0x105027f4        0x4 /home/leon/git/swp-report/iMX6_Platform_SDK/output/mx6dq/obds/sabre_ai_rev_a/obj/apps/obds/src/tests/deserializer_ds90ur124.o
                0x105027f4                ds90ur124_test_enable
 .bss           0x105027f8       0x70 /home/leon/git/swp-report/iMX6_Platform_SDK/output/mx6dq/obds/sabre_ai_rev_a/obj/apps/obds/src/tests/display_test.o
                0x105027f8                panel_name
                0x10502818                ipu_display_panel
 .bss           0x10502868     0x1028 /home/leon/git/swp-report/iMX6_Platform_SDK/output/mx6dq/obds/sabre_ai_rev_a/obj/apps/obds/src/tests/enet_mx6dldq_test.o
 .bss           0x10503890        0x0 /home/leon/git/swp-report/iMX6_Platform_SDK/output/mx6dq/obds/sabre_ai_rev_a/obj/apps/obds/src/tests/flexcan_test.o
 .bss           0x10503890       0x28 /home/leon/git/swp-report/iMX6_Platform_SDK/output/mx6dq/obds/sabre_ai_rev_a/obj/apps/obds/src/tests/fm_tuner_si476x_test.o
                0x10503890                si476x_i2c_req
                0x105038b4                si476x_test_enable
 .bss           0x105038b8        0x0 /home/leon/git/swp-report/iMX6_Platform_SDK/output/mx6dq/obds/sabre_ai_rev_a/obj/apps/obds/src/tests/gpio_led.o
 .bss           0x105038b8        0x4 /home/leon/git/swp-report/iMX6_Platform_SDK/output/mx6dq/obds/sabre_ai_rev_a/obj/apps/obds/src/tests/gps_test.o
                0x105038b8                gps_test_enable
 .bss           0x105038bc        0x0 /home/leon/git/swp-report/iMX6_Platform_SDK/output/mx6dq/obds/sabre_ai_rev_a/obj/apps/obds/src/tests/i2c_check_light_sensor_isl29023.o
 .bss           0x105038bc        0x0 /home/leon/git/swp-report/iMX6_Platform_SDK/output/mx6dq/obds/sabre_ai_rev_a/obj/apps/obds/src/tests/i2c_device_barometer_ppl3115.o
 .bss           0x105038bc        0x0 /home/leon/git/swp-report/iMX6_Platform_SDK/output/mx6dq/obds/sabre_ai_rev_a/obj/apps/obds/src/tests/i2c_device_check_cs42888.o
 .bss           0x105038bc        0x0 /home/leon/git/swp-report/iMX6_Platform_SDK/output/mx6dq/obds/sabre_ai_rev_a/obj/apps/obds/src/tests/i2c_device_digital_compass_mag3110.o
 .bss           0x105038bc        0x0 /home/leon/git/swp-report/iMX6_Platform_SDK/output/mx6dq/obds/sabre_ai_rev_a/obj/apps/obds/src/tests/i2c_device_digital_compass_mag3112.o
 .bss           0x105038bc        0x0 /home/leon/git/swp-report/iMX6_Platform_SDK/output/mx6dq/obds/sabre_ai_rev_a/obj/apps/obds/src/tests/i2c_device_id_check_mma8450.o
 .bss           0x105038bc        0x0 /home/leon/git/swp-report/iMX6_Platform_SDK/output/mx6dq/obds/sabre_ai_rev_a/obj/apps/obds/src/tests/i2c_device_id_check_mma8451.o
 .bss           0x105038bc        0x8 /home/leon/git/swp-report/iMX6_Platform_SDK/output/mx6dq/obds/sabre_ai_rev_a/obj/apps/obds/src/tests/i2c_device_id_check_p1003_tsc.o
 .bss           0x105038c4        0x0 /home/leon/git/swp-report/iMX6_Platform_SDK/output/mx6dq/obds/sabre_ai_rev_a/obj/apps/obds/src/tests/i2c_device_temp_sensor_emc1046.o
 .bss           0x105038c4        0x4 /home/leon/git/swp-report/iMX6_Platform_SDK/output/mx6dq/obds/sabre_ai_rev_a/obj/apps/obds/src/tests/i2c_device_zigbee_mc1323.o
                0x105038c4                buf
 .bss           0x105038c8        0x4 /home/leon/git/swp-report/iMX6_Platform_SDK/output/mx6dq/obds/sabre_ai_rev_a/obj/apps/obds/src/tests/i2c_eeprom_at24cxx_test.o
                0x105038c8                eeprom_test_enable
 .bss           0x105038cc      0x408 /home/leon/git/swp-report/iMX6_Platform_SDK/output/mx6dq/obds/sabre_ai_rev_a/obj/apps/obds/src/tests/imx_spi_nor_test.o
                0x105038cc                spi_nor_flash_type
                0x105038d0                dev_spi_nor
                0x105038d4                spi_nor_tx_buf
                0x10503ad4                spi_nor_rx_buf
 .bss           0x10503cd4       0x28 /home/leon/git/swp-report/iMX6_Platform_SDK/output/mx6dq/obds/sabre_ai_rev_a/obj/apps/obds/src/tests/mlb_os81050.o
                0x10503cf8                mlb_os81050_test_enable
 .bss           0x10503cfc        0xc /home/leon/git/swp-report/iMX6_Platform_SDK/output/mx6dq/obds/sabre_ai_rev_a/obj/apps/obds/src/tests/mmcsd_test.o
                0x10503cfc                SDHC_UHSI_mode
                0x10503d00                mmcsd_bus_width
                0x10503d04                instance
 .bss           0x10503d08        0x0 /home/leon/git/swp-report/iMX6_Platform_SDK/output/mx6dq/obds/sabre_ai_rev_a/obj/apps/obds/src/tests/pmic_da9053.o
 .bss           0x10503d08        0x0 /home/leon/git/swp-report/iMX6_Platform_SDK/output/mx6dq/obds/sabre_ai_rev_a/obj/apps/obds/src/tests/pmic_lt3589.o
 .bss           0x10503d08        0x0 /home/leon/git/swp-report/iMX6_Platform_SDK/output/mx6dq/obds/sabre_ai_rev_a/obj/apps/obds/src/tests/pmic_max17135.o
 .bss           0x10503d08        0x4 /home/leon/git/swp-report/iMX6_Platform_SDK/output/mx6dq/obds/sabre_ai_rev_a/obj/apps/obds/src/tests/pmic_mc13892.o
                0x10503d08                pmic_mc13892_reg
 .bss           0x10503d0c        0x0 /home/leon/git/swp-report/iMX6_Platform_SDK/output/mx6dq/obds/sabre_ai_rev_a/obj/apps/obds/src/tests/program_board_id.o
 .bss           0x10503d0c       0x14 /home/leon/git/swp-report/iMX6_Platform_SDK/output/mx6dq/obds/sabre_ai_rev_a/obj/apps/obds/src/tests/program_mac_address.o
 .bss           0x10503d20        0x0 /home/leon/git/swp-report/iMX6_Platform_SDK/output/mx6dq/obds/sabre_ai_rev_a/obj/apps/obds/src/tests/snvs_srtc_test.o
 .bss           0x10503d20        0x0 /home/leon/git/swp-report/iMX6_Platform_SDK/output/mx6dq/obds/sabre_ai_rev_a/obj/apps/obds/src/tests/touch_button_test.o
 .bss           0x10503d20        0x4 /home/leon/git/swp-report/iMX6_Platform_SDK/output/mx6dq/obds/sabre_ai_rev_a/obj/apps/obds/src/tests/touch_screen.o
                0x10503d20                pen_status
 .bss           0x10503d24        0x0 /home/leon/git/swp-report/iMX6_Platform_SDK/output/mx6dq/obds/sabre_ai_rev_a/obj/apps/obds/src/tests/touch_screen_max11801.o
 .bss           0x10503d24        0x0 /home/leon/git/swp-report/iMX6_Platform_SDK/output/mx6dq/obds/sabre_ai_rev_a/obj/apps/obds/src/tests/usb_tests_obds.o
 .bss           0x10503d24        0x0 /home/leon/git/swp-report/iMX6_Platform_SDK/output/mx6dq/obds/sabre_ai_rev_a/obj/apps/obds/src/tests/video_dec_ARD_MB_reset_button.o
 .bss           0x10503d24        0x0 /home/leon/git/swp-report/iMX6_Platform_SDK/output/mx6dq/obds/sabre_ai_rev_a/obj/apps/obds/src/tests/video_dec_ARD_MBrst_from_cpu_expander.o
 .bss           0x10503d24       0x24 /home/leon/git/swp-report/iMX6_Platform_SDK/output/mx6dq/obds/sabre_ai_rev_a/obj/apps/obds/src/tests/video_dec_adv7180.o
 .bss           0x10503d48        0x0 /home/leon/git/swp-report/iMX6_Platform_SDK/output/mx6dq/obds/sabre_ai_rev_a/obj/apps/obds/src/tests/weim_nor_flash_test.o
 .bss           0x10503d48        0x0 /home/leon/git/swp-report/iMX6_Platform_SDK/output/mx6dq/obds/sabre_ai_rev_a/obj/sdk/common/ioexpander/test/max7310_test.o
 .bss           0x10503d48        0x0 /home/leon/git/swp-report/iMX6_Platform_SDK/output/mx6dq/obds/sabre_ai_rev_a/obj/sdk/common/pmic/pfuse/pf0100.o
 .bss           0x10503d48        0x0 /home/leon/git/swp-report/iMX6_Platform_SDK/output/mx6dq/obds/sabre_ai_rev_a/obj/sdk/drivers/audio/src/snd_card.o
 .bss           0x10503d48        0x0 /home/leon/git/swp-report/iMX6_Platform_SDK/output/mx6dq/obds/sabre_ai_rev_a/obj/sdk/drivers/camera/test/adv7180_capture.o
 .bss           0x10503d48        0x0 /home/leon/git/swp-report/iMX6_Platform_SDK/output/mx6dq/obds/sabre_ai_rev_a/obj/sdk/drivers/camera/test/camera_test.o
 .bss           0x10503d48        0x0 /home/leon/git/swp-report/iMX6_Platform_SDK/output/mx6dq/obds/sabre_ai_rev_a/obj/sdk/drivers/camera/test/csi_test_mode.o
 .bss           0x10503d48        0x0 /home/leon/git/swp-report/iMX6_Platform_SDK/output/mx6dq/obds/sabre_ai_rev_a/obj/sdk/drivers/camera/test/sensor_capture.o
 .bss           0x10503d48        0x0 /home/leon/git/swp-report/iMX6_Platform_SDK/output/mx6dq/obds/sabre_ai_rev_a/obj/sdk/drivers/hdmi/test/hdmi_test.o
 .bss           0x10503d48        0x0 /home/leon/git/swp-report/iMX6_Platform_SDK/output/mx6dq/obds/sabre_ai_rev_a/obj/sdk/drivers/hdmi/test/init_dma_data.o
 .bss           0x10503d48        0x0 /home/leon/git/swp-report/iMX6_Platform_SDK/output/mx6dq/obds/sabre_ai_rev_a/obj/sdk/drivers/ipu/test/ips_display.o
 .bss           0x10503d48        0x0 /home/leon/git/swp-report/iMX6_Platform_SDK/output/mx6dq/obds/sabre_ai_rev_a/obj/sdk/drivers/ipu/test/ipu_image.o
 .bss           0x10503d48      0x400 /home/leon/git/swp-report/iMX6_Platform_SDK/output/mx6dq/obds/sabre_ai_rev_a/obj/sdk/drivers/sata/test/sata_test.o
 .bss           0x10504148      0x400 /home/leon/git/swp-report/iMX6_Platform_SDK/output/mx6dq/obds/sabre_ai_rev_a/obj/sdk/drivers/spi/test/imx_spi_nor_atmel.o
 .bss           0x10504548      0x400 /home/leon/git/swp-report/iMX6_Platform_SDK/output/mx6dq/obds/sabre_ai_rev_a/obj/sdk/drivers/spi/test/spi_nor_numonyx.o
 .bss           0x10504948        0x1 /home/leon/git/swp-report/iMX6_Platform_SDK/output/mx6dq/obds/sabre_ai_rev_a/obj/sdk/drivers/uart/test/uart_test.o
 *fill*         0x10504949      0x6b7 
 .bss           0x10505000     0x1000 /home/leon/git/swp-report/iMX6_Platform_SDK/output/mx6dq/obds/sabre_ai_rev_a/obj/sdk/drivers/usb/test/usb0_host_test.o
                0x10505000                frame_list
 .bss           0x10506000        0x0 /home/leon/git/swp-report/iMX6_Platform_SDK/output/mx6dq/obds/sabre_ai_rev_a/obj/sdk/drivers/usb/test/usb0_host_testmodes_test.o
 .bss           0x10506000    0x17d00 /home/leon/git/swp-report/iMX6_Platform_SDK/output/mx6dq/obds/sabre_ai_rev_a/obj/sdk/drivers/usdhc/test/usdhc_test.o
 .bss           0x1051dd00        0x4 /home/leon/git/swp-report/iMX6_Platform_SDK/output/mx6dq/lib/libsdk.a(max7310.o)
 .bss           0x1051dd04        0x0 /home/leon/git/swp-report/iMX6_Platform_SDK/output/mx6dq/lib/libsdk.a(ccm_pll.o)
 .bss           0x1051dd04        0x0 /home/leon/git/swp-report/iMX6_Platform_SDK/output/mx6dq/lib/libsdk.a(cortexA9.o)
 .bss           0x1051dd04        0x0 /home/leon/git/swp-report/iMX6_Platform_SDK/output/mx6dq/lib/libsdk.a(gic.o)
 .bss           0x1051dd04      0x290 /home/leon/git/swp-report/iMX6_Platform_SDK/output/mx6dq/lib/libsdk.a(interrupt.o)
                0x1051dd04                g_interrupt_handlers
                0x1051df84                g_vectNum
 .bss           0x1051df94        0x0 /home/leon/git/swp-report/iMX6_Platform_SDK/output/mx6dq/lib/libsdk.a(mmu.o)
 .bss           0x1051df94        0x0 /home/leon/git/swp-report/iMX6_Platform_SDK/output/mx6dq/lib/libsdk.a(startup.o)
 .bss           0x1051df94        0x0 /home/leon/git/swp-report/iMX6_Platform_SDK/output/mx6dq/lib/libsdk.a(vectors.o)
 .bss           0x1051df94       0x7c /home/leon/git/swp-report/iMX6_Platform_SDK/output/mx6dq/lib/libsdk.a(menu.o)
 .bss           0x1051e010        0x0 /home/leon/git/swp-report/iMX6_Platform_SDK/output/mx6dq/lib/libsdk.a(sdk_version.o)
 .bss           0x1051e010        0x0 /home/leon/git/swp-report/iMX6_Platform_SDK/output/mx6dq/lib/libsdk.a(system_util.o)
 .bss           0x1051e010        0x0 /home/leon/git/swp-report/iMX6_Platform_SDK/output/mx6dq/lib/libsdk.a(text_color.o)
 .bss           0x1051e010       0x24 /home/leon/git/swp-report/iMX6_Platform_SDK/output/mx6dq/lib/libsdk.a(cs42888.o)
                0x1051e010                cs42888_i2c_req
 .bss           0x1051e034        0x0 /home/leon/git/swp-report/iMX6_Platform_SDK/output/mx6dq/lib/libsdk.a(imx-ssi.o)
 .bss           0x1051e034        0x0 /home/leon/git/swp-report/iMX6_Platform_SDK/output/mx6dq/lib/libsdk.a(imx_esai.o)
 .bss           0x1051e034        0x0 /home/leon/git/swp-report/iMX6_Platform_SDK/output/mx6dq/lib/libsdk.a(imx_spdif.o)
 .bss           0x1051e034       0x28 /home/leon/git/swp-report/iMX6_Platform_SDK/output/mx6dq/lib/libsdk.a(sgtl5000.o)
                0x1051e034                sgtl5000_i2c_req
 .bss           0x1051e05c       0x24 /home/leon/git/swp-report/iMX6_Platform_SDK/output/mx6dq/lib/libsdk.a(wm8958_dac.o)
                0x1051e05c                wm8958_i2c_req
 .bss           0x1051e080       0x24 /home/leon/git/swp-report/iMX6_Platform_SDK/output/mx6dq/lib/libsdk.a(wm8962.o)
                0x1051e080                wm8962_i2c_req
 .bss           0x1051e0a4        0x0 /home/leon/git/swp-report/iMX6_Platform_SDK/output/mx6dq/lib/libsdk.a(board_id.o)
 .bss           0x1051e0a4        0x0 /home/leon/git/swp-report/iMX6_Platform_SDK/output/mx6dq/lib/libsdk.a(smd_sensor.o)
 *fill*         0x1051e0a4       0x1c 
 .bss           0x1051e0c0     0x5060 /home/leon/git/swp-report/iMX6_Platform_SDK/output/mx6dq/lib/libsdk.a(enet_drv.o)
 .bss           0x10523120        0x0 /home/leon/git/swp-report/iMX6_Platform_SDK/output/mx6dq/lib/libsdk.a(gpio.o)
 .bss           0x10523120        0x0 /home/leon/git/swp-report/iMX6_Platform_SDK/output/mx6dq/lib/libsdk.a(imx6dq_gpio_map.o)
 .bss           0x10523120        0x0 /home/leon/git/swp-report/iMX6_Platform_SDK/output/mx6dq/lib/libsdk.a(hdmi_tx.o)
 .bss           0x10523120        0x0 /home/leon/git/swp-report/iMX6_Platform_SDK/output/mx6dq/lib/libsdk.a(hdmi_tx_audio.o)
 .bss           0x10523120        0x0 /home/leon/git/swp-report/iMX6_Platform_SDK/output/mx6dq/lib/libsdk.a(hdmi_tx_phy.o)
 .bss           0x10523120        0x0 /home/leon/git/swp-report/iMX6_Platform_SDK/output/mx6dq/lib/libsdk.a(imx_i2c.o)
 .bss           0x10523120        0x0 /home/leon/git/swp-report/iMX6_Platform_SDK/output/mx6dq/lib/libsdk.a(ips_disp_panel.o)
 .bss           0x10523120       0x10 /home/leon/git/swp-report/iMX6_Platform_SDK/output/mx6dq/lib/libsdk.a(ipu_common.o)
                0x10523120                csi_vdi_direct_path
                0x10523124                csi_dma_band_mode
 .bss           0x10523130        0x0 /home/leon/git/swp-report/iMX6_Platform_SDK/output/mx6dq/lib/libsdk.a(ipu_csi.o)
 .bss           0x10523130        0x0 /home/leon/git/swp-report/iMX6_Platform_SDK/output/mx6dq/lib/libsdk.a(ipu_dc.o)
 .bss           0x10523130        0x0 /home/leon/git/swp-report/iMX6_Platform_SDK/output/mx6dq/lib/libsdk.a(ipu_di.o)
 .bss           0x10523130        0x0 /home/leon/git/swp-report/iMX6_Platform_SDK/output/mx6dq/lib/libsdk.a(ipu_dmfc.o)
 .bss           0x10523130        0x0 /home/leon/git/swp-report/iMX6_Platform_SDK/output/mx6dq/lib/libsdk.a(ipu_dp.o)
 .bss           0x10523130        0x0 /home/leon/git/swp-report/iMX6_Platform_SDK/output/mx6dq/lib/libsdk.a(ipu_idmac.o)
 .bss           0x10523130        0x0 /home/leon/git/swp-report/iMX6_Platform_SDK/output/mx6dq/lib/libsdk.a(ipu_vdi.o)
 .bss           0x10523130        0x0 /home/leon/git/swp-report/iMX6_Platform_SDK/output/mx6dq/lib/libsdk.a(ldb.o)
 .bss           0x10523130        0x0 /home/leon/git/swp-report/iMX6_Platform_SDK/output/mx6dq/lib/libsdk.a(ocotp.o)
 .bss           0x10523130      0x268 /home/leon/git/swp-report/iMX6_Platform_SDK/output/mx6dq/lib/libsdk.a(sata.o)
                0x10523130                cmdhdr
                0x10523134                cmdtbl
                0x10523138                hdd_ident
                0x10523338                ident
 .bss           0x10523398        0x0 /home/leon/git/swp-report/iMX6_Platform_SDK/output/mx6dq/lib/libsdk.a(ecspi.o)
 .bss           0x10523398        0x4 /home/leon/git/swp-report/iMX6_Platform_SDK/output/mx6dq/lib/libsdk.a(timer.o)
                0x10523398                g_microsecondTimerMultiple
 .bss           0x1052339c        0x0 /home/leon/git/swp-report/iMX6_Platform_SDK/output/mx6dq/lib/libsdk.a(imx_uart.o)
 .bss           0x1052339c        0x0 /home/leon/git/swp-report/iMX6_Platform_SDK/output/mx6dq/lib/libsdk.a(usb_common.o)
 .bss           0x1052339c        0x0 /home/leon/git/swp-report/iMX6_Platform_SDK/output/mx6dq/lib/libsdk.a(usbh_drv.o)
 .bss           0x1052339c        0x8 /home/leon/git/swp-report/iMX6_Platform_SDK/output/mx6dq/lib/libsdk.a(usdhc.o)
 .bss           0x105233a4        0x0 /home/leon/git/swp-report/iMX6_Platform_SDK/output/mx6dq/lib/libsdk.a(usdhc_host.o)
 .bss           0x105233a4      0x214 /home/leon/git/swp-report/iMX6_Platform_SDK/output/mx6dq/lib/libsdk.a(usdhc_mmc.o)
 .bss           0x105235b8        0x0 /home/leon/git/swp-report/iMX6_Platform_SDK/output/mx6dq/lib/libsdk.a(usdhc_sd.o)
 .bss           0x105235b8        0x0 /home/leon/git/swp-report/iMX6_Platform_SDK/output/mx6dq/lib/libsdk.a(adv7180.o)
 .bss           0x105235b8        0x0 /home/leon/git/swp-report/iMX6_Platform_SDK/output/mx6dq/lib/libsdk.a(arm_abort.o)
 .bss           0x105235b8        0x0 /home/leon/git/swp-report/iMX6_Platform_SDK/output/mx6dq/lib/libsdk.a(armv7_cache.o)
 .bss           0x105235b8        0x0 /home/leon/git/swp-report/iMX6_Platform_SDK/output/mx6dq/lib/libsdk.a(camera_profile.o)
 .bss           0x105235b8        0x0 /home/leon/git/swp-report/iMX6_Platform_SDK/output/mx6dq/lib/libsdk.a(hdmi_common.o)
 .bss           0x105235b8        0x0 /home/leon/git/swp-report/iMX6_Platform_SDK/output/mx6dq/lib/libsdk.a(ipu_ic.o)
 .bss           0x105235b8        0x0 /home/leon/git/swp-report/iMX6_Platform_SDK/output/mx6dq/lib/libsdk.a(epit.o)
 .bss           0x105235b8        0x0 /home/leon/git/swp-report/iMX6_Platform_SDK/output/mx6dq/lib/libsdk.a(mx6x_usb.o)
 .bss           0x105235b8        0x0 /home/leon/git/swp-report/iMX6_Platform_SDK/output/mx6dq/lib/libsdk.a(abort_handler.o)
 .bss           0x105235b8        0x0 /home/leon/git/swp-report/iMX6_Platform_SDK/output/mx6dq/lib/libboard_sabre_ai_rev_a.a(board_audio.o)
 .bss           0x105235b8        0x0 /home/leon/git/swp-report/iMX6_Platform_SDK/output/mx6dq/lib/libboard_sabre_ai_rev_a.a(board_buttons.o)
 .bss           0x105235b8        0x0 /home/leon/git/swp-report/iMX6_Platform_SDK/output/mx6dq/lib/libboard_sabre_ai_rev_a.a(board_camera.o)
 .bss           0x105235b8        0x0 /home/leon/git/swp-report/iMX6_Platform_SDK/output/mx6dq/lib/libboard_sabre_ai_rev_a.a(board_display.o)
 .bss           0x105235b8        0x0 /home/leon/git/swp-report/iMX6_Platform_SDK/output/mx6dq/lib/libboard_sabre_ai_rev_a.a(board_hdmi.o)
 .bss           0x105235b8        0x0 /home/leon/git/swp-report/iMX6_Platform_SDK/output/mx6dq/lib/libboard_sabre_ai_rev_a.a(board_i2c.o)
 .bss           0x105235b8       0x6c /home/leon/git/swp-report/iMX6_Platform_SDK/output/mx6dq/lib/libboard_sabre_ai_rev_a.a(board_io_expanders.o)
                0x105235b8                max7310_i2c_req_array
 .bss           0x10523624        0x0 /home/leon/git/swp-report/iMX6_Platform_SDK/output/mx6dq/lib/libboard_sabre_ai_rev_a.a(board_mipi.o)
 .bss           0x10523624        0x0 /home/leon/git/swp-report/iMX6_Platform_SDK/output/mx6dq/lib/libboard_sabre_ai_rev_a.a(board_network.o)
 .bss           0x10523624        0x0 /home/leon/git/swp-report/iMX6_Platform_SDK/output/mx6dq/lib/libboard_sabre_ai_rev_a.a(board_sata.o)
 .bss           0x10523624        0x0 /home/leon/git/swp-report/iMX6_Platform_SDK/output/mx6dq/lib/libboard_sabre_ai_rev_a.a(board_usb.o)
 .bss           0x10523624        0x0 /home/leon/git/swp-report/iMX6_Platform_SDK/output/mx6dq/lib/libboard_sabre_ai_rev_a.a(board_usdhc.o)
 .bss           0x10523624        0x0 /home/leon/git/swp-report/iMX6_Platform_SDK/output/mx6dq/lib/libboard_sabre_ai_rev_a.a(hardware_modules.o)
 .bss           0x10523624        0x0 /home/leon/git/swp-report/iMX6_Platform_SDK/output/mx6dq/lib/libboard_sabre_ai_rev_a.a(dcd.o)
 .bss           0x10523624        0x0 /home/leon/git/swp-report/iMX6_Platform_SDK/output/mx6dq/lib/libboard_sabre_ai_rev_a.a(audmux_iomux_config.o)
 .bss           0x10523624        0x0 /home/leon/git/swp-report/iMX6_Platform_SDK/output/mx6dq/lib/libboard_sabre_ai_rev_a.a(ecspi_iomux_config.o)
 .bss           0x10523624        0x0 /home/leon/git/swp-report/iMX6_Platform_SDK/output/mx6dq/lib/libboard_sabre_ai_rev_a.a(eim_iomux_config.o)
 .bss           0x10523624        0x0 /home/leon/git/swp-report/iMX6_Platform_SDK/output/mx6dq/lib/libboard_sabre_ai_rev_a.a(enet_iomux_config.o)
 .bss           0x10523624        0x0 /home/leon/git/swp-report/iMX6_Platform_SDK/output/mx6dq/lib/libboard_sabre_ai_rev_a.a(esai_iomux_config.o)
 .bss           0x10523624        0x0 /home/leon/git/swp-report/iMX6_Platform_SDK/output/mx6dq/lib/libboard_sabre_ai_rev_a.a(i2c3_iomux_config.o)
 .bss           0x10523624        0x0 /home/leon/git/swp-report/iMX6_Platform_SDK/output/mx6dq/lib/libboard_sabre_ai_rev_a.a(i2c_iomux_config.o)
 .bss           0x10523624        0x0 /home/leon/git/swp-report/iMX6_Platform_SDK/output/mx6dq/lib/libboard_sabre_ai_rev_a.a(iomux_config.o)
 .bss           0x10523624        0x0 /home/leon/git/swp-report/iMX6_Platform_SDK/output/mx6dq/lib/libboard_sabre_ai_rev_a.a(ipu1_iomux_config.o)
 .bss           0x10523624        0x0 /home/leon/git/swp-report/iMX6_Platform_SDK/output/mx6dq/lib/libboard_sabre_ai_rev_a.a(ipu_iomux_config.o)
 .bss           0x10523624        0x0 /home/leon/git/swp-report/iMX6_Platform_SDK/output/mx6dq/lib/libboard_sabre_ai_rev_a.a(mlb_iomux_config.o)
 .bss           0x10523624        0x0 /home/leon/git/swp-report/iMX6_Platform_SDK/output/mx6dq/lib/libboard_sabre_ai_rev_a.a(mmdc_iomux_config.o)
 .bss           0x10523624        0x0 /home/leon/git/swp-report/iMX6_Platform_SDK/output/mx6dq/lib/libboard_sabre_ai_rev_a.a(pwm3_iomux_config.o)
 .bss           0x10523624        0x0 /home/leon/git/swp-report/iMX6_Platform_SDK/output/mx6dq/lib/libboard_sabre_ai_rev_a.a(pwm4_iomux_config.o)
 .bss           0x10523624        0x0 /home/leon/git/swp-report/iMX6_Platform_SDK/output/mx6dq/lib/libboard_sabre_ai_rev_a.a(sjc_iomux_config.o)
 .bss           0x10523624        0x0 /home/leon/git/swp-report/iMX6_Platform_SDK/output/mx6dq/lib/libboard_sabre_ai_rev_a.a(spdif_iomux_config.o)
 .bss           0x10523624        0x0 /home/leon/git/swp-report/iMX6_Platform_SDK/output/mx6dq/lib/libboard_sabre_ai_rev_a.a(uart2_iomux_config.o)
 .bss           0x10523624        0x0 /home/leon/git/swp-report/iMX6_Platform_SDK/output/mx6dq/lib/libboard_sabre_ai_rev_a.a(uart3_iomux_config.o)
 .bss           0x10523624        0x0 /home/leon/git/swp-report/iMX6_Platform_SDK/output/mx6dq/lib/libboard_sabre_ai_rev_a.a(uart4_iomux_config.o)
 .bss           0x10523624        0x0 /home/leon/git/swp-report/iMX6_Platform_SDK/output/mx6dq/lib/libboard_sabre_ai_rev_a.a(uart_iomux_config.o)
 .bss           0x10523624        0x0 /home/leon/git/swp-report/iMX6_Platform_SDK/output/mx6dq/lib/libboard_sabre_ai_rev_a.a(usdhc1_iomux_config.o)
 .bss           0x10523624        0x0 /home/leon/git/swp-report/iMX6_Platform_SDK/output/mx6dq/lib/libboard_sabre_ai_rev_a.a(usdhc3_iomux_config.o)
 .bss           0x10523624        0x0 /home/leon/git/swp-report/iMX6_Platform_SDK/output/mx6dq/lib/libboard_sabre_ai_rev_a.a(usdhc_iomux_config.o)
 .bss           0x10523624        0x0 /home/leon/git/swp-report/iMX6_Platform_SDK/output/mx6dq/lib/libboard_sabre_ai_rev_a.a(wdog1_iomux_config.o)
 .bss           0x10523624        0x0 /home/leon/git/swp-report/iMX6_Platform_SDK/output/mx6dq/lib/libboard_sabre_ai_rev_a.a(ccm_iomux_config.o)
 .bss           0x10523624        0x0 /home/leon/git/swp-report/iMX6_Platform_SDK/output/mx6dq/lib/libboard_sabre_ai_rev_a.a(ecspi1_iomux_config.o)
 .bss           0x10523624        0x0 /home/leon/git/swp-report/iMX6_Platform_SDK/output/mx6dq/lib/libboard_sabre_ai_rev_a.a(flexcan1_iomux_config.o)
 .bss           0x10523624        0x0 /home/leon/git/swp-report/iMX6_Platform_SDK/output/mx6dq/lib/libboard_sabre_ai_rev_a.a(flexcan2_iomux_config.o)
 .bss           0x10523624        0x0 /home/leon/git/swp-report/iMX6_Platform_SDK/output/mx6dq/lib/libboard_sabre_ai_rev_a.a(gpio1_iomux_config.o)
 .bss           0x10523624        0x0 /home/leon/git/swp-report/iMX6_Platform_SDK/output/mx6dq/lib/libboard_sabre_ai_rev_a.a(gpio2_iomux_config.o)
 .bss           0x10523624        0x0 /home/leon/git/swp-report/iMX6_Platform_SDK/output/mx6dq/lib/libboard_sabre_ai_rev_a.a(gpio4_iomux_config.o)
 .bss           0x10523624        0x0 /home/leon/git/swp-report/iMX6_Platform_SDK/output/mx6dq/lib/libboard_sabre_ai_rev_a.a(gpio5_iomux_config.o)
 .bss           0x10523624        0x0 /home/leon/git/swp-report/iMX6_Platform_SDK/output/mx6dq/lib/libboard_sabre_ai_rev_a.a(gpio6_iomux_config.o)
 .bss           0x10523624        0x0 /home/leon/git/swp-report/iMX6_Platform_SDK/output/mx6dq/lib/libboard_sabre_ai_rev_a.a(gpmi_iomux_config.o)
 .bss           0x10523624        0x0 /home/leon/git/swp-report/iMX6_Platform_SDK/output/mx6dq/lib/libboard_sabre_ai_rev_a.a(i2c2_iomux_config.o)
 .bss           0x10523624        0x0 /home/leon/riotboard/arm-2012.09/bin/../arm-none-eabi/lib//libc.a(lib_a-assert.o)
 .bss           0x10523624        0x0 /home/leon/riotboard/arm-2012.09/bin/../arm-none-eabi/lib//libc.a(lib_a-bzero.o)
 .bss           0x10523624        0x0 /home/leon/riotboard/arm-2012.09/bin/../arm-none-eabi/lib//libc.a(lib_a-fiprintf.o)
 .bss           0x10523624        0x0 /home/leon/riotboard/arm-2012.09/bin/../arm-none-eabi/lib//libc.a(lib_a-fputc.o)
 .bss           0x10523624        0x0 /home/leon/riotboard/arm-2012.09/bin/../arm-none-eabi/lib//libc.a(lib_a-impure.o)
 .bss           0x10523624        0x0 /home/leon/riotboard/arm-2012.09/bin/../arm-none-eabi/lib//libc.a(lib_a-init.o)
 .bss           0x10523624        0x0 /home/leon/riotboard/arm-2012.09/bin/../arm-none-eabi/lib//libc.a(lib_a-malloc.o)
 .bss           0x10523624       0x34 /home/leon/riotboard/arm-2012.09/bin/../arm-none-eabi/lib//libc.a(lib_a-mallocr.o)
                0x10523624                __malloc_top_pad
                0x10523628                __malloc_current_mallinfo
                0x10523650                __malloc_max_sbrked_mem
                0x10523654                __malloc_max_total_mem
 .bss           0x10523658        0x0 /home/leon/riotboard/arm-2012.09/bin/../arm-none-eabi/lib//libc.a(lib_a-memcpy.o)
 .bss           0x10523658        0x0 /home/leon/riotboard/arm-2012.09/bin/../arm-none-eabi/lib//libc.a(lib_a-memset.o)
 .bss           0x10523658        0x0 /home/leon/riotboard/arm-2012.09/bin/../arm-none-eabi/lib//libc.a(lib_a-mlock.o)
 .bss           0x10523658        0x0 /home/leon/riotboard/arm-2012.09/bin/../arm-none-eabi/lib//libc.a(lib_a-printf.o)
 .bss           0x10523658        0x0 /home/leon/riotboard/arm-2012.09/bin/../arm-none-eabi/lib//libc.a(lib_a-putc.o)
 .bss           0x10523658        0x0 /home/leon/riotboard/arm-2012.09/bin/../arm-none-eabi/lib//libc.a(lib_a-realloc.o)
 .bss           0x10523658        0x0 /home/leon/riotboard/arm-2012.09/bin/../arm-none-eabi/lib//libc.a(lib_a-reallocr.o)
 .bss           0x10523658        0x0 /home/leon/riotboard/arm-2012.09/bin/../arm-none-eabi/lib//libc.a(lib_a-rget.o)
 .bss           0x10523658        0x0 /home/leon/riotboard/arm-2012.09/bin/../arm-none-eabi/lib//libc.a(lib_a-sbrkr.o)
 .bss           0x10523658        0x0 /home/leon/riotboard/arm-2012.09/bin/../arm-none-eabi/lib//libc.a(lib_a-sprintf.o)
 .bss           0x10523658        0x0 /home/leon/riotboard/arm-2012.09/bin/../arm-none-eabi/lib//libc.a(lib_a-strcat.o)
 .bss           0x10523658        0x0 /home/leon/riotboard/arm-2012.09/bin/../arm-none-eabi/lib//libc.a(lib_a-strcmp.o)
 .bss           0x10523658        0x0 /home/leon/riotboard/arm-2012.09/bin/../arm-none-eabi/lib//libc.a(lib_a-strcpy.o)
 .bss           0x10523658        0x0 /home/leon/riotboard/arm-2012.09/bin/../arm-none-eabi/lib//libc.a(lib_a-strlen.o)
 .bss           0x10523658        0x0 /home/leon/riotboard/arm-2012.09/bin/../arm-none-eabi/lib//libc.a(lib_a-strncasecmp.o)
 .bss           0x10523658        0x0 /home/leon/riotboard/arm-2012.09/bin/../arm-none-eabi/lib//libc.a(lib_a-strtok.o)
 .bss           0x10523658        0x0 /home/leon/riotboard/arm-2012.09/bin/../arm-none-eabi/lib//libc.a(lib_a-strtok_r.o)
 .bss           0x10523658        0x0 /home/leon/riotboard/arm-2012.09/bin/../arm-none-eabi/lib//libc.a(lib_a-svfprintf.o)
 .bss           0x10523658        0x0 /home/leon/riotboard/arm-2012.09/bin/../arm-none-eabi/lib//libc.a(lib_a-vfiprintf.o)
 .bss           0x10523658        0x0 /home/leon/riotboard/arm-2012.09/bin/../arm-none-eabi/lib//libc.a(lib_a-vfprintf.o)
 .bss           0x10523658        0x0 /home/leon/riotboard/arm-2012.09/bin/../arm-none-eabi/lib//libc.a(lib_a-vprintf.o)
 .bss           0x10523658        0x0 /home/leon/riotboard/arm-2012.09/bin/../arm-none-eabi/lib//libc.a(lib_a-wbuf.o)
 .bss           0x10523658        0x0 /home/leon/riotboard/arm-2012.09/bin/../arm-none-eabi/lib//libc.a(lib_a-wsetup.o)
 .bss           0x10523658        0x0 /home/leon/riotboard/arm-2012.09/bin/../arm-none-eabi/lib//libc.a(lib_a-abort.o)
 .bss           0x10523658        0x0 /home/leon/riotboard/arm-2012.09/bin/../arm-none-eabi/lib//libc.a(lib_a-ctype_.o)
 .bss           0x10523658        0x0 /home/leon/riotboard/arm-2012.09/bin/../arm-none-eabi/lib//libc.a(lib_a-dtoa.o)
 .bss           0x10523658        0x0 /home/leon/riotboard/arm-2012.09/bin/../arm-none-eabi/lib//libc.a(lib_a-fflush.o)
 .bss           0x10523658        0x0 /home/leon/riotboard/arm-2012.09/bin/../arm-none-eabi/lib//libc.a(lib_a-findfp.o)
 .bss           0x10523658        0x0 /home/leon/riotboard/arm-2012.09/bin/../arm-none-eabi/lib//libc.a(lib_a-fputwc.o)
 .bss           0x10523658        0x0 /home/leon/riotboard/arm-2012.09/bin/../arm-none-eabi/lib//libc.a(lib_a-freer.o)
 .bss           0x10523658        0x0 /home/leon/riotboard/arm-2012.09/bin/../arm-none-eabi/lib//libc.a(lib_a-fvwrite.o)
 .bss           0x10523658        0x0 /home/leon/riotboard/arm-2012.09/bin/../arm-none-eabi/lib//libc.a(lib_a-fwalk.o)
 .bss           0x10523658        0xc /home/leon/riotboard/arm-2012.09/bin/../arm-none-eabi/lib//libc.a(lib_a-locale.o)
                0x10523658                _PathLocale
                0x1052365c                __mlocale_changed
                0x10523660                __nlocale_changed
 .bss           0x10523664        0x0 /home/leon/riotboard/arm-2012.09/bin/../arm-none-eabi/lib//libc.a(lib_a-makebuf.o)
 .bss           0x10523664        0x0 /home/leon/riotboard/arm-2012.09/bin/../arm-none-eabi/lib//libc.a(lib_a-memchr.o)
 .bss           0x10523664        0x0 /home/leon/riotboard/arm-2012.09/bin/../arm-none-eabi/lib//libc.a(lib_a-memmove.o)
 .bss           0x10523664        0x0 /home/leon/riotboard/arm-2012.09/bin/../arm-none-eabi/lib//libc.a(lib_a-mprec.o)
 .bss           0x10523664        0x0 /home/leon/riotboard/arm-2012.09/bin/../arm-none-eabi/lib//libc.a(lib_a-reent.o)
 .bss           0x10523664        0x0 /home/leon/riotboard/arm-2012.09/bin/../arm-none-eabi/lib//libc.a(lib_a-refill.o)
 .bss           0x10523664        0x0 /home/leon/riotboard/arm-2012.09/bin/../arm-none-eabi/lib//libc.a(lib_a-s_fpclassify.o)
 .bss           0x10523664        0x0 /home/leon/riotboard/arm-2012.09/bin/../arm-none-eabi/lib//libc.a(lib_a-signal.o)
 .bss           0x10523664        0x0 /home/leon/riotboard/arm-2012.09/bin/../arm-none-eabi/lib//libc.a(lib_a-signalr.o)
 .bss           0x10523664        0x0 /home/leon/riotboard/arm-2012.09/bin/../arm-none-eabi/lib//libc.a(lib_a-stdio.o)
 .bss           0x10523664        0x0 /home/leon/riotboard/arm-2012.09/bin/../arm-none-eabi/lib//libc.a(lib_a-svfiprintf.o)
 .bss           0x10523664        0x0 /home/leon/riotboard/arm-2012.09/bin/../arm-none-eabi/lib//libc.a(lib_a-wcrtomb.o)
 .bss           0x10523664        0x0 /home/leon/riotboard/arm-2012.09/bin/../arm-none-eabi/lib//libc.a(lib_a-wctomb_r.o)
 .bss           0x10523664        0x0 /home/leon/riotboard/arm-2012.09/bin/../arm-none-eabi/lib//libc.a(lib_a-writer.o)
 .bss           0x10523664        0x0 /home/leon/riotboard/arm-2012.09/bin/../arm-none-eabi/lib//libc.a(lib_a-callocr.o)
 .bss           0x10523664        0x0 /home/leon/riotboard/arm-2012.09/bin/../arm-none-eabi/lib//libc.a(lib_a-closer.o)
 .bss           0x10523664        0x0 /home/leon/riotboard/arm-2012.09/bin/../arm-none-eabi/lib//libc.a(lib_a-fclose.o)
 .bss           0x10523664        0x0 /home/leon/riotboard/arm-2012.09/bin/../arm-none-eabi/lib//libc.a(lib_a-fstatr.o)
 .bss           0x10523664        0x0 /home/leon/riotboard/arm-2012.09/bin/../arm-none-eabi/lib//libc.a(lib_a-isattyr.o)
 .bss           0x10523664        0x0 /home/leon/riotboard/arm-2012.09/bin/../arm-none-eabi/lib//libc.a(lib_a-lseekr.o)
 .bss           0x10523664        0x0 /home/leon/riotboard/arm-2012.09/bin/../arm-none-eabi/lib//libc.a(lib_a-readr.o)
 .bss           0x10523664        0x0 /home/leon/riotboard/arm-2012.09/bin/../lib/gcc/arm-none-eabi/4.7.2//libgcc.a(_udivsi3.o)
 .bss           0x10523664        0x0 /home/leon/riotboard/arm-2012.09/bin/../lib/gcc/arm-none-eabi/4.7.2//libgcc.a(_divsi3.o)
 .bss           0x10523664        0x0 /home/leon/riotboard/arm-2012.09/bin/../lib/gcc/arm-none-eabi/4.7.2//libgcc.a(_dvmd_tls.o)
 .bss           0x10523664        0x0 /home/leon/riotboard/arm-2012.09/bin/../lib/gcc/arm-none-eabi/4.7.2//libgcc.a(_arm_addsubdf3.o)
 .bss           0x10523664        0x0 /home/leon/riotboard/arm-2012.09/bin/../lib/gcc/arm-none-eabi/4.7.2//libgcc.a(_arm_muldivdf3.o)
 .bss           0x10523664        0x0 /home/leon/riotboard/arm-2012.09/bin/../lib/gcc/arm-none-eabi/4.7.2//libgcc.a(_arm_cmpdf2.o)
 .bss           0x10523664        0x0 /home/leon/riotboard/arm-2012.09/bin/../lib/gcc/arm-none-eabi/4.7.2//libgcc.a(_arm_fixdfsi.o)
 .bss           0x10523664        0x0 /home/leon/riotboard/arm-2012.09/bin/../lib/gcc/arm-none-eabi/4.7.2//libgcc.a(_aeabi_uldivmod.o)
 .bss           0x10523664        0x0 /home/leon/riotboard/arm-2012.09/bin/../lib/gcc/arm-none-eabi/4.7.2//libgcc.a(bpabi.o)
 .bss           0x10523664        0x0 /home/leon/riotboard/arm-2012.09/bin/../lib/gcc/arm-none-eabi/4.7.2//libgcc.a(_divdi3.o)
 .bss           0x10523664        0x0 /home/leon/riotboard/arm-2012.09/bin/../lib/gcc/arm-none-eabi/4.7.2//libgcc.a(_udivdi3.o)
 .bss           0x10523664        0x0 /home/leon/riotboard/arm-2012.09/bin/../lib/gcc/arm-none-eabi/4.7.2//libgcc.a(_clzsi2.o)
 .bss           0x10523664        0xc /home/leon/git/swp-report/iMX6_Platform_SDK/output/mx6dq/lib/libsdk.a(runtime_support.o)
                0x10523664                __env
 *(COMMON)
 COMMON         0x10523670        0x4 /home/leon/riotboard/arm-2012.09/bin/../arm-none-eabi/lib//libc.a(lib_a-reent.o)
                0x10523670                errno
 *(.bss)
                0x10523674                __bss_end__ = .

.stacks         0x10523674     0xc000
                0x10523674                __stacks_start = .
                0x1052f674                . = (. + 0xc000)
 *fill*         0x10523674     0xc000 
                0x1052f674                __stacks_end = .
                0x1052f674                top_of_stacks = .
                0x1052f680                free_memory_start = ALIGN (0x20)
                0x1852f674                . = (. + 0x8000000)
                0x1852f674                free_memory_end = .
                0x1852f674                _end = .
START GROUP
LOAD /home/leon/git/swp-report/iMX6_Platform_SDK/output/mx6dq/obds/sabre_ai_rev_a/obj/apps/common/ivt.o
LOAD /home/leon/git/swp-report/iMX6_Platform_SDK/output/mx6dq/obds/sabre_ai_rev_a/obj/apps/common/platform_init.o
LOAD /home/leon/git/swp-report/iMX6_Platform_SDK/output/mx6dq/obds/sabre_ai_rev_a/obj/apps/common/print_clock_info.o
LOAD /home/leon/git/swp-report/iMX6_Platform_SDK/output/mx6dq/obds/sabre_ai_rev_a/obj/apps/common/print_version.o
LOAD /home/leon/git/swp-report/iMX6_Platform_SDK/output/mx6dq/obds/sabre_ai_rev_a/obj/apps/obds/src/obds.o
LOAD /home/leon/git/swp-report/iMX6_Platform_SDK/output/mx6dq/obds/sabre_ai_rev_a/obj/apps/obds/src/obds_utils.o
LOAD /home/leon/git/swp-report/iMX6_Platform_SDK/output/mx6dq/obds/sabre_ai_rev_a/obj/apps/obds/src/tests/android_buttons_test.o
LOAD /home/leon/git/swp-report/iMX6_Platform_SDK/output/mx6dq/obds/sabre_ai_rev_a/obj/apps/obds/src/tests/audio_esai_test.o
LOAD /home/leon/git/swp-report/iMX6_Platform_SDK/output/mx6dq/obds/sabre_ai_rev_a/obj/apps/obds/src/tests/audio_ssi_test.o
LOAD /home/leon/git/swp-report/iMX6_Platform_SDK/output/mx6dq/obds/sabre_ai_rev_a/obj/apps/obds/src/tests/ddr_test.o
LOAD /home/leon/git/swp-report/iMX6_Platform_SDK/output/mx6dq/obds/sabre_ai_rev_a/obj/apps/obds/src/tests/deserializer_ds90ur124.o
LOAD /home/leon/git/swp-report/iMX6_Platform_SDK/output/mx6dq/obds/sabre_ai_rev_a/obj/apps/obds/src/tests/display_test.o
LOAD /home/leon/git/swp-report/iMX6_Platform_SDK/output/mx6dq/obds/sabre_ai_rev_a/obj/apps/obds/src/tests/enet_mx6dldq_test.o
LOAD /home/leon/git/swp-report/iMX6_Platform_SDK/output/mx6dq/obds/sabre_ai_rev_a/obj/apps/obds/src/tests/flexcan_test.o
LOAD /home/leon/git/swp-report/iMX6_Platform_SDK/output/mx6dq/obds/sabre_ai_rev_a/obj/apps/obds/src/tests/fm_tuner_si476x_test.o
LOAD /home/leon/git/swp-report/iMX6_Platform_SDK/output/mx6dq/obds/sabre_ai_rev_a/obj/apps/obds/src/tests/gpio_led.o
LOAD /home/leon/git/swp-report/iMX6_Platform_SDK/output/mx6dq/obds/sabre_ai_rev_a/obj/apps/obds/src/tests/gps_test.o
LOAD /home/leon/git/swp-report/iMX6_Platform_SDK/output/mx6dq/obds/sabre_ai_rev_a/obj/apps/obds/src/tests/i2c_check_light_sensor_isl29023.o
LOAD /home/leon/git/swp-report/iMX6_Platform_SDK/output/mx6dq/obds/sabre_ai_rev_a/obj/apps/obds/src/tests/i2c_device_barometer_ppl3115.o
LOAD /home/leon/git/swp-report/iMX6_Platform_SDK/output/mx6dq/obds/sabre_ai_rev_a/obj/apps/obds/src/tests/i2c_device_check_cs42888.o
LOAD /home/leon/git/swp-report/iMX6_Platform_SDK/output/mx6dq/obds/sabre_ai_rev_a/obj/apps/obds/src/tests/i2c_device_digital_compass_mag3110.o
LOAD /home/leon/git/swp-report/iMX6_Platform_SDK/output/mx6dq/obds/sabre_ai_rev_a/obj/apps/obds/src/tests/i2c_device_digital_compass_mag3112.o
LOAD /home/leon/git/swp-report/iMX6_Platform_SDK/output/mx6dq/obds/sabre_ai_rev_a/obj/apps/obds/src/tests/i2c_device_id_check_mma8450.o
LOAD /home/leon/git/swp-report/iMX6_Platform_SDK/output/mx6dq/obds/sabre_ai_rev_a/obj/apps/obds/src/tests/i2c_device_id_check_mma8451.o
LOAD /home/leon/git/swp-report/iMX6_Platform_SDK/output/mx6dq/obds/sabre_ai_rev_a/obj/apps/obds/src/tests/i2c_device_id_check_p1003_tsc.o
LOAD /home/leon/git/swp-report/iMX6_Platform_SDK/output/mx6dq/obds/sabre_ai_rev_a/obj/apps/obds/src/tests/i2c_device_temp_sensor_emc1046.o
LOAD /home/leon/git/swp-report/iMX6_Platform_SDK/output/mx6dq/obds/sabre_ai_rev_a/obj/apps/obds/src/tests/i2c_device_zigbee_mc1323.o
LOAD /home/leon/git/swp-report/iMX6_Platform_SDK/output/mx6dq/obds/sabre_ai_rev_a/obj/apps/obds/src/tests/i2c_eeprom_at24cxx_test.o
LOAD /home/leon/git/swp-report/iMX6_Platform_SDK/output/mx6dq/obds/sabre_ai_rev_a/obj/apps/obds/src/tests/imx_spi_nor_test.o
LOAD /home/leon/git/swp-report/iMX6_Platform_SDK/output/mx6dq/obds/sabre_ai_rev_a/obj/apps/obds/src/tests/mlb_os81050.o
LOAD /home/leon/git/swp-report/iMX6_Platform_SDK/output/mx6dq/obds/sabre_ai_rev_a/obj/apps/obds/src/tests/mmcsd_test.o
LOAD /home/leon/git/swp-report/iMX6_Platform_SDK/output/mx6dq/obds/sabre_ai_rev_a/obj/apps/obds/src/tests/pmic_da9053.o
LOAD /home/leon/git/swp-report/iMX6_Platform_SDK/output/mx6dq/obds/sabre_ai_rev_a/obj/apps/obds/src/tests/pmic_lt3589.o
LOAD /home/leon/git/swp-report/iMX6_Platform_SDK/output/mx6dq/obds/sabre_ai_rev_a/obj/apps/obds/src/tests/pmic_max17135.o
LOAD /home/leon/git/swp-report/iMX6_Platform_SDK/output/mx6dq/obds/sabre_ai_rev_a/obj/apps/obds/src/tests/pmic_mc13892.o
LOAD /home/leon/git/swp-report/iMX6_Platform_SDK/output/mx6dq/obds/sabre_ai_rev_a/obj/apps/obds/src/tests/program_board_id.o
LOAD /home/leon/git/swp-report/iMX6_Platform_SDK/output/mx6dq/obds/sabre_ai_rev_a/obj/apps/obds/src/tests/program_mac_address.o
LOAD /home/leon/git/swp-report/iMX6_Platform_SDK/output/mx6dq/obds/sabre_ai_rev_a/obj/apps/obds/src/tests/snvs_srtc_test.o
LOAD /home/leon/git/swp-report/iMX6_Platform_SDK/output/mx6dq/obds/sabre_ai_rev_a/obj/apps/obds/src/tests/touch_button_test.o
LOAD /home/leon/git/swp-report/iMX6_Platform_SDK/output/mx6dq/obds/sabre_ai_rev_a/obj/apps/obds/src/tests/touch_screen.o
LOAD /home/leon/git/swp-report/iMX6_Platform_SDK/output/mx6dq/obds/sabre_ai_rev_a/obj/apps/obds/src/tests/touch_screen_max11801.o
LOAD /home/leon/git/swp-report/iMX6_Platform_SDK/output/mx6dq/obds/sabre_ai_rev_a/obj/apps/obds/src/tests/usb_tests_obds.o
LOAD /home/leon/git/swp-report/iMX6_Platform_SDK/output/mx6dq/obds/sabre_ai_rev_a/obj/apps/obds/src/tests/video_dec_ARD_MB_reset_button.o
LOAD /home/leon/git/swp-report/iMX6_Platform_SDK/output/mx6dq/obds/sabre_ai_rev_a/obj/apps/obds/src/tests/video_dec_ARD_MBrst_from_cpu_expander.o
LOAD /home/leon/git/swp-report/iMX6_Platform_SDK/output/mx6dq/obds/sabre_ai_rev_a/obj/apps/obds/src/tests/video_dec_adv7180.o
LOAD /home/leon/git/swp-report/iMX6_Platform_SDK/output/mx6dq/obds/sabre_ai_rev_a/obj/apps/obds/src/tests/weim_nor_flash_test.o
LOAD /home/leon/git/swp-report/iMX6_Platform_SDK/output/mx6dq/obds/sabre_ai_rev_a/obj/sdk/common/ioexpander/test/max7310_test.o
LOAD /home/leon/git/swp-report/iMX6_Platform_SDK/output/mx6dq/obds/sabre_ai_rev_a/obj/sdk/common/pmic/pfuse/pf0100.o
LOAD /home/leon/git/swp-report/iMX6_Platform_SDK/output/mx6dq/obds/sabre_ai_rev_a/obj/sdk/drivers/audio/src/snd_card.o
LOAD /home/leon/git/swp-report/iMX6_Platform_SDK/output/mx6dq/obds/sabre_ai_rev_a/obj/sdk/drivers/camera/test/adv7180_capture.o
LOAD /home/leon/git/swp-report/iMX6_Platform_SDK/output/mx6dq/obds/sabre_ai_rev_a/obj/sdk/drivers/camera/test/camera_test.o
LOAD /home/leon/git/swp-report/iMX6_Platform_SDK/output/mx6dq/obds/sabre_ai_rev_a/obj/sdk/drivers/camera/test/csi_test_mode.o
LOAD /home/leon/git/swp-report/iMX6_Platform_SDK/output/mx6dq/obds/sabre_ai_rev_a/obj/sdk/drivers/camera/test/sensor_capture.o
LOAD /home/leon/git/swp-report/iMX6_Platform_SDK/output/mx6dq/obds/sabre_ai_rev_a/obj/sdk/drivers/hdmi/test/hdmi_test.o
LOAD /home/leon/git/swp-report/iMX6_Platform_SDK/output/mx6dq/obds/sabre_ai_rev_a/obj/sdk/drivers/hdmi/test/init_dma_data.o
LOAD /home/leon/git/swp-report/iMX6_Platform_SDK/output/mx6dq/obds/sabre_ai_rev_a/obj/sdk/drivers/ipu/test/ips_display.o
LOAD /home/leon/git/swp-report/iMX6_Platform_SDK/output/mx6dq/obds/sabre_ai_rev_a/obj/sdk/drivers/ipu/test/ipu_image.o
LOAD /home/leon/git/swp-report/iMX6_Platform_SDK/output/mx6dq/obds/sabre_ai_rev_a/obj/sdk/drivers/sata/test/sata_test.o
LOAD /home/leon/git/swp-report/iMX6_Platform_SDK/output/mx6dq/obds/sabre_ai_rev_a/obj/sdk/drivers/spi/test/imx_spi_nor_atmel.o
LOAD /home/leon/git/swp-report/iMX6_Platform_SDK/output/mx6dq/obds/sabre_ai_rev_a/obj/sdk/drivers/spi/test/spi_nor_numonyx.o
LOAD /home/leon/git/swp-report/iMX6_Platform_SDK/output/mx6dq/obds/sabre_ai_rev_a/obj/sdk/drivers/uart/test/uart_test.o
LOAD /home/leon/git/swp-report/iMX6_Platform_SDK/output/mx6dq/obds/sabre_ai_rev_a/obj/sdk/drivers/usb/test/usb0_host_test.o
LOAD /home/leon/git/swp-report/iMX6_Platform_SDK/output/mx6dq/obds/sabre_ai_rev_a/obj/sdk/drivers/usb/test/usb0_host_testmodes_test.o
LOAD /home/leon/git/swp-report/iMX6_Platform_SDK/output/mx6dq/obds/sabre_ai_rev_a/obj/sdk/drivers/usdhc/test/usdhc_test.o
LOAD /home/leon/git/swp-report/iMX6_Platform_SDK/output/mx6dq/lib/libsdk.a
LOAD /home/leon/git/swp-report/iMX6_Platform_SDK/output/mx6dq/lib/libboard_sabre_ai_rev_a.a
LOAD /home/leon/riotboard/arm-2012.09/bin/../arm-none-eabi/lib//libm.a
LOAD /home/leon/riotboard/arm-2012.09/bin/../arm-none-eabi/lib//libstdc++.a
LOAD /home/leon/riotboard/arm-2012.09/bin/../arm-none-eabi/lib//libc.a
LOAD /home/leon/riotboard/arm-2012.09/bin/../lib/gcc/arm-none-eabi/4.7.2//libgcc.a
END GROUP
OUTPUT(/home/leon/git/swp-report/iMX6_Platform_SDK/output/mx6dq/obds/sabre_ai_rev_a/obds.elf elf32-littlearm)

.ARM.attributes
                0x00000000       0x3b
 .ARM.attributes
                0x00000000       0x30 /home/leon/riotboard/arm-2012.09/bin/../lib/gcc/arm-none-eabi/4.7.2//crtbegin.o
 .ARM.attributes
                0x00000030       0x16 /home/leon/riotboard/arm-2012.09/bin/../lib/gcc/arm-none-eabi/4.7.2//crti.o
 .ARM.attributes
                0x00000046       0x30 /home/leon/riotboard/arm-2012.09/bin/../lib/gcc/arm-none-eabi/4.7.2//crtend.o
 .ARM.attributes
                0x00000076       0x18 /home/leon/riotboard/arm-2012.09/bin/../lib/gcc/arm-none-eabi/4.7.2//crtn.o
 .ARM.attributes
                0x0000008e       0x39 /home/leon/git/swp-report/iMX6_Platform_SDK/output/mx6dq/obds/sabre_ai_rev_a/obj/apps/common/ivt.o
 .ARM.attributes
                0x000000c7       0x39 /home/leon/git/swp-report/iMX6_Platform_SDK/output/mx6dq/obds/sabre_ai_rev_a/obj/apps/common/platform_init.o
 .ARM.attributes
                0x00000100       0x39 /home/leon/git/swp-report/iMX6_Platform_SDK/output/mx6dq/obds/sabre_ai_rev_a/obj/apps/common/print_clock_info.o
 .ARM.attributes
                0x00000139       0x39 /home/leon/git/swp-report/iMX6_Platform_SDK/output/mx6dq/obds/sabre_ai_rev_a/obj/apps/common/print_version.o
 .ARM.attributes
                0x00000172       0x39 /home/leon/git/swp-report/iMX6_Platform_SDK/output/mx6dq/obds/sabre_ai_rev_a/obj/apps/obds/src/obds.o
 .ARM.attributes
                0x000001ab       0x39 /home/leon/git/swp-report/iMX6_Platform_SDK/output/mx6dq/obds/sabre_ai_rev_a/obj/apps/obds/src/obds_utils.o
 .ARM.attributes
                0x000001e4       0x39 /home/leon/git/swp-report/iMX6_Platform_SDK/output/mx6dq/obds/sabre_ai_rev_a/obj/apps/obds/src/tests/android_buttons_test.o
 .ARM.attributes
                0x0000021d       0x39 /home/leon/git/swp-report/iMX6_Platform_SDK/output/mx6dq/obds/sabre_ai_rev_a/obj/apps/obds/src/tests/audio_esai_test.o
 .ARM.attributes
                0x00000256       0x39 /home/leon/git/swp-report/iMX6_Platform_SDK/output/mx6dq/obds/sabre_ai_rev_a/obj/apps/obds/src/tests/audio_ssi_test.o
 .ARM.attributes
                0x0000028f       0x39 /home/leon/git/swp-report/iMX6_Platform_SDK/output/mx6dq/obds/sabre_ai_rev_a/obj/apps/obds/src/tests/ddr_test.o
 .ARM.attributes
                0x000002c8       0x39 /home/leon/git/swp-report/iMX6_Platform_SDK/output/mx6dq/obds/sabre_ai_rev_a/obj/apps/obds/src/tests/deserializer_ds90ur124.o
 .ARM.attributes
                0x00000301       0x39 /home/leon/git/swp-report/iMX6_Platform_SDK/output/mx6dq/obds/sabre_ai_rev_a/obj/apps/obds/src/tests/display_test.o
 .ARM.attributes
                0x0000033a       0x39 /home/leon/git/swp-report/iMX6_Platform_SDK/output/mx6dq/obds/sabre_ai_rev_a/obj/apps/obds/src/tests/enet_mx6dldq_test.o
 .ARM.attributes
                0x00000373       0x39 /home/leon/git/swp-report/iMX6_Platform_SDK/output/mx6dq/obds/sabre_ai_rev_a/obj/apps/obds/src/tests/flexcan_test.o
 .ARM.attributes
                0x000003ac       0x39 /home/leon/git/swp-report/iMX6_Platform_SDK/output/mx6dq/obds/sabre_ai_rev_a/obj/apps/obds/src/tests/fm_tuner_si476x_test.o
 .ARM.attributes
                0x000003e5       0x39 /home/leon/git/swp-report/iMX6_Platform_SDK/output/mx6dq/obds/sabre_ai_rev_a/obj/apps/obds/src/tests/gpio_led.o
 .ARM.attributes
                0x0000041e       0x39 /home/leon/git/swp-report/iMX6_Platform_SDK/output/mx6dq/obds/sabre_ai_rev_a/obj/apps/obds/src/tests/gps_test.o
 .ARM.attributes
                0x00000457       0x39 /home/leon/git/swp-report/iMX6_Platform_SDK/output/mx6dq/obds/sabre_ai_rev_a/obj/apps/obds/src/tests/i2c_check_light_sensor_isl29023.o
 .ARM.attributes
                0x00000490       0x39 /home/leon/git/swp-report/iMX6_Platform_SDK/output/mx6dq/obds/sabre_ai_rev_a/obj/apps/obds/src/tests/i2c_device_barometer_ppl3115.o
 .ARM.attributes
                0x000004c9       0x39 /home/leon/git/swp-report/iMX6_Platform_SDK/output/mx6dq/obds/sabre_ai_rev_a/obj/apps/obds/src/tests/i2c_device_check_cs42888.o
 .ARM.attributes
                0x00000502       0x39 /home/leon/git/swp-report/iMX6_Platform_SDK/output/mx6dq/obds/sabre_ai_rev_a/obj/apps/obds/src/tests/i2c_device_digital_compass_mag3110.o
 .ARM.attributes
                0x0000053b       0x39 /home/leon/git/swp-report/iMX6_Platform_SDK/output/mx6dq/obds/sabre_ai_rev_a/obj/apps/obds/src/tests/i2c_device_digital_compass_mag3112.o
 .ARM.attributes
                0x00000574       0x39 /home/leon/git/swp-report/iMX6_Platform_SDK/output/mx6dq/obds/sabre_ai_rev_a/obj/apps/obds/src/tests/i2c_device_id_check_mma8450.o
 .ARM.attributes
                0x000005ad       0x39 /home/leon/git/swp-report/iMX6_Platform_SDK/output/mx6dq/obds/sabre_ai_rev_a/obj/apps/obds/src/tests/i2c_device_id_check_mma8451.o
 .ARM.attributes
                0x000005e6       0x39 /home/leon/git/swp-report/iMX6_Platform_SDK/output/mx6dq/obds/sabre_ai_rev_a/obj/apps/obds/src/tests/i2c_device_id_check_p1003_tsc.o
 .ARM.attributes
                0x0000061f       0x39 /home/leon/git/swp-report/iMX6_Platform_SDK/output/mx6dq/obds/sabre_ai_rev_a/obj/apps/obds/src/tests/i2c_device_temp_sensor_emc1046.o
 .ARM.attributes
                0x00000658       0x39 /home/leon/git/swp-report/iMX6_Platform_SDK/output/mx6dq/obds/sabre_ai_rev_a/obj/apps/obds/src/tests/i2c_device_zigbee_mc1323.o
 .ARM.attributes
                0x00000691       0x39 /home/leon/git/swp-report/iMX6_Platform_SDK/output/mx6dq/obds/sabre_ai_rev_a/obj/apps/obds/src/tests/i2c_eeprom_at24cxx_test.o
 .ARM.attributes
                0x000006ca       0x39 /home/leon/git/swp-report/iMX6_Platform_SDK/output/mx6dq/obds/sabre_ai_rev_a/obj/apps/obds/src/tests/imx_spi_nor_test.o
 .ARM.attributes
                0x00000703       0x39 /home/leon/git/swp-report/iMX6_Platform_SDK/output/mx6dq/obds/sabre_ai_rev_a/obj/apps/obds/src/tests/mlb_os81050.o
 .ARM.attributes
                0x0000073c       0x39 /home/leon/git/swp-report/iMX6_Platform_SDK/output/mx6dq/obds/sabre_ai_rev_a/obj/apps/obds/src/tests/mmcsd_test.o
 .ARM.attributes
                0x00000775       0x39 /home/leon/git/swp-report/iMX6_Platform_SDK/output/mx6dq/obds/sabre_ai_rev_a/obj/apps/obds/src/tests/pmic_da9053.o
 .ARM.attributes
                0x000007ae       0x39 /home/leon/git/swp-report/iMX6_Platform_SDK/output/mx6dq/obds/sabre_ai_rev_a/obj/apps/obds/src/tests/pmic_lt3589.o
 .ARM.attributes
                0x000007e7       0x39 /home/leon/git/swp-report/iMX6_Platform_SDK/output/mx6dq/obds/sabre_ai_rev_a/obj/apps/obds/src/tests/pmic_max17135.o
 .ARM.attributes
                0x00000820       0x39 /home/leon/git/swp-report/iMX6_Platform_SDK/output/mx6dq/obds/sabre_ai_rev_a/obj/apps/obds/src/tests/pmic_mc13892.o
 .ARM.attributes
                0x00000859       0x39 /home/leon/git/swp-report/iMX6_Platform_SDK/output/mx6dq/obds/sabre_ai_rev_a/obj/apps/obds/src/tests/program_board_id.o
 .ARM.attributes
                0x00000892       0x39 /home/leon/git/swp-report/iMX6_Platform_SDK/output/mx6dq/obds/sabre_ai_rev_a/obj/apps/obds/src/tests/program_mac_address.o
 .ARM.attributes
                0x000008cb       0x39 /home/leon/git/swp-report/iMX6_Platform_SDK/output/mx6dq/obds/sabre_ai_rev_a/obj/apps/obds/src/tests/snvs_srtc_test.o
 .ARM.attributes
                0x00000904       0x39 /home/leon/git/swp-report/iMX6_Platform_SDK/output/mx6dq/obds/sabre_ai_rev_a/obj/apps/obds/src/tests/touch_button_test.o
 .ARM.attributes
                0x0000093d       0x39 /home/leon/git/swp-report/iMX6_Platform_SDK/output/mx6dq/obds/sabre_ai_rev_a/obj/apps/obds/src/tests/touch_screen.o
 .ARM.attributes
                0x00000976       0x39 /home/leon/git/swp-report/iMX6_Platform_SDK/output/mx6dq/obds/sabre_ai_rev_a/obj/apps/obds/src/tests/touch_screen_max11801.o
 .ARM.attributes
                0x000009af       0x39 /home/leon/git/swp-report/iMX6_Platform_SDK/output/mx6dq/obds/sabre_ai_rev_a/obj/apps/obds/src/tests/usb_tests_obds.o
 .ARM.attributes
                0x000009e8       0x39 /home/leon/git/swp-report/iMX6_Platform_SDK/output/mx6dq/obds/sabre_ai_rev_a/obj/apps/obds/src/tests/video_dec_ARD_MB_reset_button.o
 .ARM.attributes
                0x00000a21       0x39 /home/leon/git/swp-report/iMX6_Platform_SDK/output/mx6dq/obds/sabre_ai_rev_a/obj/apps/obds/src/tests/video_dec_ARD_MBrst_from_cpu_expander.o
 .ARM.attributes
                0x00000a5a       0x39 /home/leon/git/swp-report/iMX6_Platform_SDK/output/mx6dq/obds/sabre_ai_rev_a/obj/apps/obds/src/tests/video_dec_adv7180.o
 .ARM.attributes
                0x00000a93       0x39 /home/leon/git/swp-report/iMX6_Platform_SDK/output/mx6dq/obds/sabre_ai_rev_a/obj/apps/obds/src/tests/weim_nor_flash_test.o
 .ARM.attributes
                0x00000acc       0x39 /home/leon/git/swp-report/iMX6_Platform_SDK/output/mx6dq/obds/sabre_ai_rev_a/obj/sdk/common/ioexpander/test/max7310_test.o
 .ARM.attributes
                0x00000b05       0x39 /home/leon/git/swp-report/iMX6_Platform_SDK/output/mx6dq/obds/sabre_ai_rev_a/obj/sdk/common/pmic/pfuse/pf0100.o
 .ARM.attributes
                0x00000b3e       0x39 /home/leon/git/swp-report/iMX6_Platform_SDK/output/mx6dq/obds/sabre_ai_rev_a/obj/sdk/drivers/audio/src/snd_card.o
 .ARM.attributes
                0x00000b77       0x39 /home/leon/git/swp-report/iMX6_Platform_SDK/output/mx6dq/obds/sabre_ai_rev_a/obj/sdk/drivers/camera/test/adv7180_capture.o
 .ARM.attributes
                0x00000bb0       0x39 /home/leon/git/swp-report/iMX6_Platform_SDK/output/mx6dq/obds/sabre_ai_rev_a/obj/sdk/drivers/camera/test/camera_test.o
 .ARM.attributes
                0x00000be9       0x39 /home/leon/git/swp-report/iMX6_Platform_SDK/output/mx6dq/obds/sabre_ai_rev_a/obj/sdk/drivers/camera/test/csi_test_mode.o
 .ARM.attributes
                0x00000c22       0x39 /home/leon/git/swp-report/iMX6_Platform_SDK/output/mx6dq/obds/sabre_ai_rev_a/obj/sdk/drivers/camera/test/sensor_capture.o
 .ARM.attributes
                0x00000c5b       0x39 /home/leon/git/swp-report/iMX6_Platform_SDK/output/mx6dq/obds/sabre_ai_rev_a/obj/sdk/drivers/hdmi/test/hdmi_test.o
 .ARM.attributes
                0x00000c94       0x39 /home/leon/git/swp-report/iMX6_Platform_SDK/output/mx6dq/obds/sabre_ai_rev_a/obj/sdk/drivers/hdmi/test/init_dma_data.o
 .ARM.attributes
                0x00000ccd       0x39 /home/leon/git/swp-report/iMX6_Platform_SDK/output/mx6dq/obds/sabre_ai_rev_a/obj/sdk/drivers/ipu/test/ips_display.o
 .ARM.attributes
                0x00000d06       0x39 /home/leon/git/swp-report/iMX6_Platform_SDK/output/mx6dq/obds/sabre_ai_rev_a/obj/sdk/drivers/ipu/test/ipu_image.o
 .ARM.attributes
                0x00000d3f       0x39 /home/leon/git/swp-report/iMX6_Platform_SDK/output/mx6dq/obds/sabre_ai_rev_a/obj/sdk/drivers/sata/test/sata_test.o
 .ARM.attributes
                0x00000d78       0x39 /home/leon/git/swp-report/iMX6_Platform_SDK/output/mx6dq/obds/sabre_ai_rev_a/obj/sdk/drivers/spi/test/imx_spi_nor_atmel.o
 .ARM.attributes
                0x00000db1       0x39 /home/leon/git/swp-report/iMX6_Platform_SDK/output/mx6dq/obds/sabre_ai_rev_a/obj/sdk/drivers/spi/test/spi_nor_numonyx.o
 .ARM.attributes
                0x00000dea       0x39 /home/leon/git/swp-report/iMX6_Platform_SDK/output/mx6dq/obds/sabre_ai_rev_a/obj/sdk/drivers/uart/test/uart_test.o
 .ARM.attributes
                0x00000e23       0x39 /home/leon/git/swp-report/iMX6_Platform_SDK/output/mx6dq/obds/sabre_ai_rev_a/obj/sdk/drivers/usb/test/usb0_host_test.o
 .ARM.attributes
                0x00000e5c       0x39 /home/leon/git/swp-report/iMX6_Platform_SDK/output/mx6dq/obds/sabre_ai_rev_a/obj/sdk/drivers/usb/test/usb0_host_testmodes_test.o
 .ARM.attributes
                0x00000e95       0x39 /home/leon/git/swp-report/iMX6_Platform_SDK/output/mx6dq/obds/sabre_ai_rev_a/obj/sdk/drivers/usdhc/test/usdhc_test.o
 .ARM.attributes
                0x00000ece       0x39 /home/leon/git/swp-report/iMX6_Platform_SDK/output/mx6dq/lib/libsdk.a(max7310.o)
 .ARM.attributes
                0x00000f07       0x39 /home/leon/git/swp-report/iMX6_Platform_SDK/output/mx6dq/lib/libsdk.a(ccm_pll.o)
 .ARM.attributes
                0x00000f40       0x16 /home/leon/git/swp-report/iMX6_Platform_SDK/output/mx6dq/lib/libsdk.a(cortexA9.o)
 .ARM.attributes
                0x00000f56       0x39 /home/leon/git/swp-report/iMX6_Platform_SDK/output/mx6dq/lib/libsdk.a(gic.o)
 .ARM.attributes
                0x00000f8f       0x39 /home/leon/git/swp-report/iMX6_Platform_SDK/output/mx6dq/lib/libsdk.a(interrupt.o)
 .ARM.attributes
                0x00000fc8       0x39 /home/leon/git/swp-report/iMX6_Platform_SDK/output/mx6dq/lib/libsdk.a(mmu.o)
 .ARM.attributes
                0x00001001       0x16 /home/leon/git/swp-report/iMX6_Platform_SDK/output/mx6dq/lib/libsdk.a(startup.o)
 .ARM.attributes
                0x00001017       0x14 /home/leon/git/swp-report/iMX6_Platform_SDK/output/mx6dq/lib/libsdk.a(vectors.o)
 .ARM.attributes
                0x0000102b       0x39 /home/leon/git/swp-report/iMX6_Platform_SDK/output/mx6dq/lib/libsdk.a(menu.o)
 .ARM.attributes
                0x00001064       0x39 /home/leon/git/swp-report/iMX6_Platform_SDK/output/mx6dq/lib/libsdk.a(sdk_version.o)
 .ARM.attributes
                0x0000109d       0x39 /home/leon/git/swp-report/iMX6_Platform_SDK/output/mx6dq/lib/libsdk.a(system_util.o)
 .ARM.attributes
                0x000010d6       0x39 /home/leon/git/swp-report/iMX6_Platform_SDK/output/mx6dq/lib/libsdk.a(text_color.o)
 .ARM.attributes
                0x0000110f       0x39 /home/leon/git/swp-report/iMX6_Platform_SDK/output/mx6dq/lib/libsdk.a(cs42888.o)
 .ARM.attributes
                0x00001148       0x39 /home/leon/git/swp-report/iMX6_Platform_SDK/output/mx6dq/lib/libsdk.a(imx-ssi.o)
 .ARM.attributes
                0x00001181       0x39 /home/leon/git/swp-report/iMX6_Platform_SDK/output/mx6dq/lib/libsdk.a(imx_esai.o)
 .ARM.attributes
                0x000011ba       0x39 /home/leon/git/swp-report/iMX6_Platform_SDK/output/mx6dq/lib/libsdk.a(imx_spdif.o)
 .ARM.attributes
                0x000011f3       0x39 /home/leon/git/swp-report/iMX6_Platform_SDK/output/mx6dq/lib/libsdk.a(sgtl5000.o)
 .ARM.attributes
                0x0000122c       0x39 /home/leon/git/swp-report/iMX6_Platform_SDK/output/mx6dq/lib/libsdk.a(wm8958_dac.o)
 .ARM.attributes
                0x00001265       0x39 /home/leon/git/swp-report/iMX6_Platform_SDK/output/mx6dq/lib/libsdk.a(wm8962.o)
 .ARM.attributes
                0x0000129e       0x39 /home/leon/git/swp-report/iMX6_Platform_SDK/output/mx6dq/lib/libsdk.a(board_id.o)
 .ARM.attributes
                0x000012d7       0x39 /home/leon/git/swp-report/iMX6_Platform_SDK/output/mx6dq/lib/libsdk.a(smd_sensor.o)
 .ARM.attributes
                0x00001310       0x39 /home/leon/git/swp-report/iMX6_Platform_SDK/output/mx6dq/lib/libsdk.a(enet_drv.o)
 .ARM.attributes
                0x00001349       0x39 /home/leon/git/swp-report/iMX6_Platform_SDK/output/mx6dq/lib/libsdk.a(gpio.o)
 .ARM.attributes
                0x00001382       0x39 /home/leon/git/swp-report/iMX6_Platform_SDK/output/mx6dq/lib/libsdk.a(imx6dq_gpio_map.o)
 .ARM.attributes
                0x000013bb       0x39 /home/leon/git/swp-report/iMX6_Platform_SDK/output/mx6dq/lib/libsdk.a(hdmi_tx.o)
 .ARM.attributes
                0x000013f4       0x39 /home/leon/git/swp-report/iMX6_Platform_SDK/output/mx6dq/lib/libsdk.a(hdmi_tx_audio.o)
 .ARM.attributes
                0x0000142d       0x39 /home/leon/git/swp-report/iMX6_Platform_SDK/output/mx6dq/lib/libsdk.a(hdmi_tx_phy.o)
 .ARM.attributes
                0x00001466       0x39 /home/leon/git/swp-report/iMX6_Platform_SDK/output/mx6dq/lib/libsdk.a(imx_i2c.o)
 .ARM.attributes
                0x0000149f       0x39 /home/leon/git/swp-report/iMX6_Platform_SDK/output/mx6dq/lib/libsdk.a(ips_disp_panel.o)
 .ARM.attributes
                0x000014d8       0x39 /home/leon/git/swp-report/iMX6_Platform_SDK/output/mx6dq/lib/libsdk.a(ipu_common.o)
 .ARM.attributes
                0x00001511       0x39 /home/leon/git/swp-report/iMX6_Platform_SDK/output/mx6dq/lib/libsdk.a(ipu_csi.o)
 .ARM.attributes
                0x0000154a       0x39 /home/leon/git/swp-report/iMX6_Platform_SDK/output/mx6dq/lib/libsdk.a(ipu_dc.o)
 .ARM.attributes
                0x00001583       0x39 /home/leon/git/swp-report/iMX6_Platform_SDK/output/mx6dq/lib/libsdk.a(ipu_di.o)
 .ARM.attributes
                0x000015bc       0x39 /home/leon/git/swp-report/iMX6_Platform_SDK/output/mx6dq/lib/libsdk.a(ipu_dmfc.o)
 .ARM.attributes
                0x000015f5       0x39 /home/leon/git/swp-report/iMX6_Platform_SDK/output/mx6dq/lib/libsdk.a(ipu_dp.o)
 .ARM.attributes
                0x0000162e       0x39 /home/leon/git/swp-report/iMX6_Platform_SDK/output/mx6dq/lib/libsdk.a(ipu_idmac.o)
 .ARM.attributes
                0x00001667       0x39 /home/leon/git/swp-report/iMX6_Platform_SDK/output/mx6dq/lib/libsdk.a(ipu_vdi.o)
 .ARM.attributes
                0x000016a0       0x39 /home/leon/git/swp-report/iMX6_Platform_SDK/output/mx6dq/lib/libsdk.a(ldb.o)
 .ARM.attributes
                0x000016d9       0x39 /home/leon/git/swp-report/iMX6_Platform_SDK/output/mx6dq/lib/libsdk.a(ocotp.o)
 .ARM.attributes
                0x00001712       0x39 /home/leon/git/swp-report/iMX6_Platform_SDK/output/mx6dq/lib/libsdk.a(sata.o)
 .ARM.attributes
                0x0000174b       0x39 /home/leon/git/swp-report/iMX6_Platform_SDK/output/mx6dq/lib/libsdk.a(ecspi.o)
 .ARM.attributes
                0x00001784       0x39 /home/leon/git/swp-report/iMX6_Platform_SDK/output/mx6dq/lib/libsdk.a(timer.o)
 .ARM.attributes
                0x000017bd       0x39 /home/leon/git/swp-report/iMX6_Platform_SDK/output/mx6dq/lib/libsdk.a(imx_uart.o)
 .ARM.attributes
                0x000017f6       0x39 /home/leon/git/swp-report/iMX6_Platform_SDK/output/mx6dq/lib/libsdk.a(usb_common.o)
 .ARM.attributes
                0x0000182f       0x39 /home/leon/git/swp-report/iMX6_Platform_SDK/output/mx6dq/lib/libsdk.a(usbh_drv.o)
 .ARM.attributes
                0x00001868       0x39 /home/leon/git/swp-report/iMX6_Platform_SDK/output/mx6dq/lib/libsdk.a(usdhc.o)
 .ARM.attributes
                0x000018a1       0x39 /home/leon/git/swp-report/iMX6_Platform_SDK/output/mx6dq/lib/libsdk.a(usdhc_host.o)
 .ARM.attributes
                0x000018da       0x39 /home/leon/git/swp-report/iMX6_Platform_SDK/output/mx6dq/lib/libsdk.a(usdhc_mmc.o)
 .ARM.attributes
                0x00001913       0x39 /home/leon/git/swp-report/iMX6_Platform_SDK/output/mx6dq/lib/libsdk.a(usdhc_sd.o)
 .ARM.attributes
                0x0000194c       0x39 /home/leon/git/swp-report/iMX6_Platform_SDK/output/mx6dq/lib/libsdk.a(adv7180.o)
 .ARM.attributes
                0x00001985       0x14 /home/leon/git/swp-report/iMX6_Platform_SDK/output/mx6dq/lib/libsdk.a(arm_abort.o)
 .ARM.attributes
                0x00001999       0x39 /home/leon/git/swp-report/iMX6_Platform_SDK/output/mx6dq/lib/libsdk.a(armv7_cache.o)
 .ARM.attributes
                0x000019d2       0x39 /home/leon/git/swp-report/iMX6_Platform_SDK/output/mx6dq/lib/libsdk.a(camera_profile.o)
 .ARM.attributes
                0x00001a0b       0x39 /home/leon/git/swp-report/iMX6_Platform_SDK/output/mx6dq/lib/libsdk.a(hdmi_common.o)
 .ARM.attributes
                0x00001a44       0x39 /home/leon/git/swp-report/iMX6_Platform_SDK/output/mx6dq/lib/libsdk.a(ipu_ic.o)
 .ARM.attributes
                0x00001a7d       0x39 /home/leon/git/swp-report/iMX6_Platform_SDK/output/mx6dq/lib/libsdk.a(epit.o)
 .ARM.attributes
                0x00001ab6       0x39 /home/leon/git/swp-report/iMX6_Platform_SDK/output/mx6dq/lib/libsdk.a(mx6x_usb.o)
 .ARM.attributes
                0x00001aef       0x39 /home/leon/git/swp-report/iMX6_Platform_SDK/output/mx6dq/lib/libsdk.a(abort_handler.o)
 .ARM.attributes
                0x00001b28       0x39 /home/leon/git/swp-report/iMX6_Platform_SDK/output/mx6dq/lib/libboard_sabre_ai_rev_a.a(board_audio.o)
 .ARM.attributes
                0x00001b61       0x39 /home/leon/git/swp-report/iMX6_Platform_SDK/output/mx6dq/lib/libboard_sabre_ai_rev_a.a(board_buttons.o)
 .ARM.attributes
                0x00001b9a       0x39 /home/leon/git/swp-report/iMX6_Platform_SDK/output/mx6dq/lib/libboard_sabre_ai_rev_a.a(board_camera.o)
 .ARM.attributes
                0x00001bd3       0x39 /home/leon/git/swp-report/iMX6_Platform_SDK/output/mx6dq/lib/libboard_sabre_ai_rev_a.a(board_display.o)
 .ARM.attributes
                0x00001c0c       0x39 /home/leon/git/swp-report/iMX6_Platform_SDK/output/mx6dq/lib/libboard_sabre_ai_rev_a.a(board_hdmi.o)
 .ARM.attributes
                0x00001c45       0x39 /home/leon/git/swp-report/iMX6_Platform_SDK/output/mx6dq/lib/libboard_sabre_ai_rev_a.a(board_i2c.o)
 .ARM.attributes
                0x00001c7e       0x39 /home/leon/git/swp-report/iMX6_Platform_SDK/output/mx6dq/lib/libboard_sabre_ai_rev_a.a(board_io_expanders.o)
 .ARM.attributes
                0x00001cb7       0x39 /home/leon/git/swp-report/iMX6_Platform_SDK/output/mx6dq/lib/libboard_sabre_ai_rev_a.a(board_mipi.o)
 .ARM.attributes
                0x00001cf0       0x39 /home/leon/git/swp-report/iMX6_Platform_SDK/output/mx6dq/lib/libboard_sabre_ai_rev_a.a(board_network.o)
 .ARM.attributes
                0x00001d29       0x39 /home/leon/git/swp-report/iMX6_Platform_SDK/output/mx6dq/lib/libboard_sabre_ai_rev_a.a(board_sata.o)
 .ARM.attributes
                0x00001d62       0x39 /home/leon/git/swp-report/iMX6_Platform_SDK/output/mx6dq/lib/libboard_sabre_ai_rev_a.a(board_usb.o)
 .ARM.attributes
                0x00001d9b       0x39 /home/leon/git/swp-report/iMX6_Platform_SDK/output/mx6dq/lib/libboard_sabre_ai_rev_a.a(board_usdhc.o)
 .ARM.attributes
                0x00001dd4       0x39 /home/leon/git/swp-report/iMX6_Platform_SDK/output/mx6dq/lib/libboard_sabre_ai_rev_a.a(hardware_modules.o)
 .ARM.attributes
                0x00001e0d       0x39 /home/leon/git/swp-report/iMX6_Platform_SDK/output/mx6dq/lib/libboard_sabre_ai_rev_a.a(dcd.o)
 .ARM.attributes
                0x00001e46       0x39 /home/leon/git/swp-report/iMX6_Platform_SDK/output/mx6dq/lib/libboard_sabre_ai_rev_a.a(audmux_iomux_config.o)
 .ARM.attributes
                0x00001e7f       0x39 /home/leon/git/swp-report/iMX6_Platform_SDK/output/mx6dq/lib/libboard_sabre_ai_rev_a.a(ecspi_iomux_config.o)
 .ARM.attributes
                0x00001eb8       0x39 /home/leon/git/swp-report/iMX6_Platform_SDK/output/mx6dq/lib/libboard_sabre_ai_rev_a.a(eim_iomux_config.o)
 .ARM.attributes
                0x00001ef1       0x39 /home/leon/git/swp-report/iMX6_Platform_SDK/output/mx6dq/lib/libboard_sabre_ai_rev_a.a(enet_iomux_config.o)
 .ARM.attributes
                0x00001f2a       0x39 /home/leon/git/swp-report/iMX6_Platform_SDK/output/mx6dq/lib/libboard_sabre_ai_rev_a.a(esai_iomux_config.o)
 .ARM.attributes
                0x00001f63       0x39 /home/leon/git/swp-report/iMX6_Platform_SDK/output/mx6dq/lib/libboard_sabre_ai_rev_a.a(i2c3_iomux_config.o)
 .ARM.attributes
                0x00001f9c       0x39 /home/leon/git/swp-report/iMX6_Platform_SDK/output/mx6dq/lib/libboard_sabre_ai_rev_a.a(i2c_iomux_config.o)
 .ARM.attributes
                0x00001fd5       0x39 /home/leon/git/swp-report/iMX6_Platform_SDK/output/mx6dq/lib/libboard_sabre_ai_rev_a.a(iomux_config.o)
 .ARM.attributes
                0x0000200e       0x39 /home/leon/git/swp-report/iMX6_Platform_SDK/output/mx6dq/lib/libboard_sabre_ai_rev_a.a(ipu1_iomux_config.o)
 .ARM.attributes
                0x00002047       0x39 /home/leon/git/swp-report/iMX6_Platform_SDK/output/mx6dq/lib/libboard_sabre_ai_rev_a.a(ipu_iomux_config.o)
 .ARM.attributes
                0x00002080       0x39 /home/leon/git/swp-report/iMX6_Platform_SDK/output/mx6dq/lib/libboard_sabre_ai_rev_a.a(mlb_iomux_config.o)
 .ARM.attributes
                0x000020b9       0x39 /home/leon/git/swp-report/iMX6_Platform_SDK/output/mx6dq/lib/libboard_sabre_ai_rev_a.a(mmdc_iomux_config.o)
 .ARM.attributes
                0x000020f2       0x39 /home/leon/git/swp-report/iMX6_Platform_SDK/output/mx6dq/lib/libboard_sabre_ai_rev_a.a(pwm3_iomux_config.o)
 .ARM.attributes
                0x0000212b       0x39 /home/leon/git/swp-report/iMX6_Platform_SDK/output/mx6dq/lib/libboard_sabre_ai_rev_a.a(pwm4_iomux_config.o)
 .ARM.attributes
                0x00002164       0x39 /home/leon/git/swp-report/iMX6_Platform_SDK/output/mx6dq/lib/libboard_sabre_ai_rev_a.a(sjc_iomux_config.o)
 .ARM.attributes
                0x0000219d       0x39 /home/leon/git/swp-report/iMX6_Platform_SDK/output/mx6dq/lib/libboard_sabre_ai_rev_a.a(spdif_iomux_config.o)
 .ARM.attributes
                0x000021d6       0x39 /home/leon/git/swp-report/iMX6_Platform_SDK/output/mx6dq/lib/libboard_sabre_ai_rev_a.a(uart2_iomux_config.o)
 .ARM.attributes
                0x0000220f       0x39 /home/leon/git/swp-report/iMX6_Platform_SDK/output/mx6dq/lib/libboard_sabre_ai_rev_a.a(uart3_iomux_config.o)
 .ARM.attributes
                0x00002248       0x39 /home/leon/git/swp-report/iMX6_Platform_SDK/output/mx6dq/lib/libboard_sabre_ai_rev_a.a(uart4_iomux_config.o)
 .ARM.attributes
                0x00002281       0x39 /home/leon/git/swp-report/iMX6_Platform_SDK/output/mx6dq/lib/libboard_sabre_ai_rev_a.a(uart_iomux_config.o)
 .ARM.attributes
                0x000022ba       0x39 /home/leon/git/swp-report/iMX6_Platform_SDK/output/mx6dq/lib/libboard_sabre_ai_rev_a.a(usdhc1_iomux_config.o)
 .ARM.attributes
                0x000022f3       0x39 /home/leon/git/swp-report/iMX6_Platform_SDK/output/mx6dq/lib/libboard_sabre_ai_rev_a.a(usdhc3_iomux_config.o)
 .ARM.attributes
                0x0000232c       0x39 /home/leon/git/swp-report/iMX6_Platform_SDK/output/mx6dq/lib/libboard_sabre_ai_rev_a.a(usdhc_iomux_config.o)
 .ARM.attributes
                0x00002365       0x39 /home/leon/git/swp-report/iMX6_Platform_SDK/output/mx6dq/lib/libboard_sabre_ai_rev_a.a(wdog1_iomux_config.o)
 .ARM.attributes
                0x0000239e       0x39 /home/leon/git/swp-report/iMX6_Platform_SDK/output/mx6dq/lib/libboard_sabre_ai_rev_a.a(ccm_iomux_config.o)
 .ARM.attributes
                0x000023d7       0x39 /home/leon/git/swp-report/iMX6_Platform_SDK/output/mx6dq/lib/libboard_sabre_ai_rev_a.a(ecspi1_iomux_config.o)
 .ARM.attributes
                0x00002410       0x39 /home/leon/git/swp-report/iMX6_Platform_SDK/output/mx6dq/lib/libboard_sabre_ai_rev_a.a(flexcan1_iomux_config.o)
 .ARM.attributes
                0x00002449       0x39 /home/leon/git/swp-report/iMX6_Platform_SDK/output/mx6dq/lib/libboard_sabre_ai_rev_a.a(flexcan2_iomux_config.o)
 .ARM.attributes
                0x00002482       0x39 /home/leon/git/swp-report/iMX6_Platform_SDK/output/mx6dq/lib/libboard_sabre_ai_rev_a.a(gpio1_iomux_config.o)
 .ARM.attributes
                0x000024bb       0x39 /home/leon/git/swp-report/iMX6_Platform_SDK/output/mx6dq/lib/libboard_sabre_ai_rev_a.a(gpio2_iomux_config.o)
 .ARM.attributes
                0x000024f4       0x39 /home/leon/git/swp-report/iMX6_Platform_SDK/output/mx6dq/lib/libboard_sabre_ai_rev_a.a(gpio4_iomux_config.o)
 .ARM.attributes
                0x0000252d       0x39 /home/leon/git/swp-report/iMX6_Platform_SDK/output/mx6dq/lib/libboard_sabre_ai_rev_a.a(gpio5_iomux_config.o)
 .ARM.attributes
                0x00002566       0x39 /home/leon/git/swp-report/iMX6_Platform_SDK/output/mx6dq/lib/libboard_sabre_ai_rev_a.a(gpio6_iomux_config.o)
 .ARM.attributes
                0x0000259f       0x39 /home/leon/git/swp-report/iMX6_Platform_SDK/output/mx6dq/lib/libboard_sabre_ai_rev_a.a(gpmi_iomux_config.o)
 .ARM.attributes
                0x000025d8       0x39 /home/leon/git/swp-report/iMX6_Platform_SDK/output/mx6dq/lib/libboard_sabre_ai_rev_a.a(i2c2_iomux_config.o)
 .ARM.attributes
                0x00002611       0x30 /home/leon/riotboard/arm-2012.09/bin/../arm-none-eabi/lib//libc.a(lib_a-assert.o)
 .ARM.attributes
                0x00002641       0x30 /home/leon/riotboard/arm-2012.09/bin/../arm-none-eabi/lib//libc.a(lib_a-bzero.o)
 .ARM.attributes
                0x00002671       0x30 /home/leon/riotboard/arm-2012.09/bin/../arm-none-eabi/lib//libc.a(lib_a-fiprintf.o)
 .ARM.attributes
                0x000026a1       0x30 /home/leon/riotboard/arm-2012.09/bin/../arm-none-eabi/lib//libc.a(lib_a-fputc.o)
 .ARM.attributes
                0x000026d1       0x30 /home/leon/riotboard/arm-2012.09/bin/../arm-none-eabi/lib//libc.a(lib_a-impure.o)
 .ARM.attributes
                0x00002701       0x30 /home/leon/riotboard/arm-2012.09/bin/../arm-none-eabi/lib//libc.a(lib_a-init.o)
 .ARM.attributes
                0x00002731       0x30 /home/leon/riotboard/arm-2012.09/bin/../arm-none-eabi/lib//libc.a(lib_a-malloc.o)
 .ARM.attributes
                0x00002761       0x30 /home/leon/riotboard/arm-2012.09/bin/../arm-none-eabi/lib//libc.a(lib_a-mallocr.o)
 .ARM.attributes
                0x00002791       0x30 /home/leon/riotboard/arm-2012.09/bin/../arm-none-eabi/lib//libc.a(lib_a-memcpy.o)
 .ARM.attributes
                0x000027c1       0x30 /home/leon/riotboard/arm-2012.09/bin/../arm-none-eabi/lib//libc.a(lib_a-memset.o)
 .ARM.attributes
                0x000027f1       0x30 /home/leon/riotboard/arm-2012.09/bin/../arm-none-eabi/lib//libc.a(lib_a-mlock.o)
 .ARM.attributes
                0x00002821       0x30 /home/leon/riotboard/arm-2012.09/bin/../arm-none-eabi/lib//libc.a(lib_a-printf.o)
 .ARM.attributes
                0x00002851       0x30 /home/leon/riotboard/arm-2012.09/bin/../arm-none-eabi/lib//libc.a(lib_a-putc.o)
 .ARM.attributes
                0x00002881       0x30 /home/leon/riotboard/arm-2012.09/bin/../arm-none-eabi/lib//libc.a(lib_a-realloc.o)
 .ARM.attributes
                0x000028b1       0x30 /home/leon/riotboard/arm-2012.09/bin/../arm-none-eabi/lib//libc.a(lib_a-reallocr.o)
 .ARM.attributes
                0x000028e1       0x30 /home/leon/riotboard/arm-2012.09/bin/../arm-none-eabi/lib//libc.a(lib_a-rget.o)
 .ARM.attributes
                0x00002911       0x30 /home/leon/riotboard/arm-2012.09/bin/../arm-none-eabi/lib//libc.a(lib_a-sbrkr.o)
 .ARM.attributes
                0x00002941       0x30 /home/leon/riotboard/arm-2012.09/bin/../arm-none-eabi/lib//libc.a(lib_a-sprintf.o)
 .ARM.attributes
                0x00002971       0x30 /home/leon/riotboard/arm-2012.09/bin/../arm-none-eabi/lib//libc.a(lib_a-strcat.o)
 .ARM.attributes
                0x000029a1       0x30 /home/leon/riotboard/arm-2012.09/bin/../arm-none-eabi/lib//libc.a(lib_a-strcmp.o)
 .ARM.attributes
                0x000029d1       0x30 /home/leon/riotboard/arm-2012.09/bin/../arm-none-eabi/lib//libc.a(lib_a-strcpy.o)
 .ARM.attributes
                0x00002a01       0x30 /home/leon/riotboard/arm-2012.09/bin/../arm-none-eabi/lib//libc.a(lib_a-strlen.o)
 .ARM.attributes
                0x00002a31       0x30 /home/leon/riotboard/arm-2012.09/bin/../arm-none-eabi/lib//libc.a(lib_a-strncasecmp.o)
 .ARM.attributes
                0x00002a61       0x30 /home/leon/riotboard/arm-2012.09/bin/../arm-none-eabi/lib//libc.a(lib_a-strtok.o)
 .ARM.attributes
                0x00002a91       0x30 /home/leon/riotboard/arm-2012.09/bin/../arm-none-eabi/lib//libc.a(lib_a-strtok_r.o)
 .ARM.attributes
                0x00002ac1       0x30 /home/leon/riotboard/arm-2012.09/bin/../arm-none-eabi/lib//libc.a(lib_a-svfprintf.o)
 .ARM.attributes
                0x00002af1       0x30 /home/leon/riotboard/arm-2012.09/bin/../arm-none-eabi/lib//libc.a(lib_a-vfiprintf.o)
 .ARM.attributes
                0x00002b21       0x30 /home/leon/riotboard/arm-2012.09/bin/../arm-none-eabi/lib//libc.a(lib_a-vfprintf.o)
 .ARM.attributes
                0x00002b51       0x30 /home/leon/riotboard/arm-2012.09/bin/../arm-none-eabi/lib//libc.a(lib_a-vprintf.o)
 .ARM.attributes
                0x00002b81       0x30 /home/leon/riotboard/arm-2012.09/bin/../arm-none-eabi/lib//libc.a(lib_a-wbuf.o)
 .ARM.attributes
                0x00002bb1       0x30 /home/leon/riotboard/arm-2012.09/bin/../arm-none-eabi/lib//libc.a(lib_a-wsetup.o)
 .ARM.attributes
                0x00002be1       0x30 /home/leon/riotboard/arm-2012.09/bin/../arm-none-eabi/lib//libc.a(lib_a-abort.o)
 .ARM.attributes
                0x00002c11       0x30 /home/leon/riotboard/arm-2012.09/bin/../arm-none-eabi/lib//libc.a(lib_a-ctype_.o)
 .ARM.attributes
                0x00002c41       0x30 /home/leon/riotboard/arm-2012.09/bin/../arm-none-eabi/lib//libc.a(lib_a-dtoa.o)
 .ARM.attributes
                0x00002c71       0x30 /home/leon/riotboard/arm-2012.09/bin/../arm-none-eabi/lib//libc.a(lib_a-fflush.o)
 .ARM.attributes
                0x00002ca1       0x30 /home/leon/riotboard/arm-2012.09/bin/../arm-none-eabi/lib//libc.a(lib_a-findfp.o)
 .ARM.attributes
                0x00002cd1       0x30 /home/leon/riotboard/arm-2012.09/bin/../arm-none-eabi/lib//libc.a(lib_a-fputwc.o)
 .ARM.attributes
                0x00002d01       0x30 /home/leon/riotboard/arm-2012.09/bin/../arm-none-eabi/lib//libc.a(lib_a-freer.o)
 .ARM.attributes
                0x00002d31       0x30 /home/leon/riotboard/arm-2012.09/bin/../arm-none-eabi/lib//libc.a(lib_a-fvwrite.o)
 .ARM.attributes
                0x00002d61       0x30 /home/leon/riotboard/arm-2012.09/bin/../arm-none-eabi/lib//libc.a(lib_a-fwalk.o)
 .ARM.attributes
                0x00002d91       0x30 /home/leon/riotboard/arm-2012.09/bin/../arm-none-eabi/lib//libc.a(lib_a-locale.o)
 .ARM.attributes
                0x00002dc1       0x30 /home/leon/riotboard/arm-2012.09/bin/../arm-none-eabi/lib//libc.a(lib_a-makebuf.o)
 .ARM.attributes
                0x00002df1       0x30 /home/leon/riotboard/arm-2012.09/bin/../arm-none-eabi/lib//libc.a(lib_a-memchr.o)
 .ARM.attributes
                0x00002e21       0x30 /home/leon/riotboard/arm-2012.09/bin/../arm-none-eabi/lib//libc.a(lib_a-memmove.o)
 .ARM.attributes
                0x00002e51       0x30 /home/leon/riotboard/arm-2012.09/bin/../arm-none-eabi/lib//libc.a(lib_a-mprec.o)
 .ARM.attributes
                0x00002e81       0x30 /home/leon/riotboard/arm-2012.09/bin/../arm-none-eabi/lib//libc.a(lib_a-reent.o)
 .ARM.attributes
                0x00002eb1       0x30 /home/leon/riotboard/arm-2012.09/bin/../arm-none-eabi/lib//libc.a(lib_a-refill.o)
 .ARM.attributes
                0x00002ee1       0x30 /home/leon/riotboard/arm-2012.09/bin/../arm-none-eabi/lib//libc.a(lib_a-s_fpclassify.o)
 .ARM.attributes
                0x00002f11       0x30 /home/leon/riotboard/arm-2012.09/bin/../arm-none-eabi/lib//libc.a(lib_a-signal.o)
 .ARM.attributes
                0x00002f41       0x30 /home/leon/riotboard/arm-2012.09/bin/../arm-none-eabi/lib//libc.a(lib_a-signalr.o)
 .ARM.attributes
                0x00002f71       0x30 /home/leon/riotboard/arm-2012.09/bin/../arm-none-eabi/lib//libc.a(lib_a-stdio.o)
 .ARM.attributes
                0x00002fa1       0x30 /home/leon/riotboard/arm-2012.09/bin/../arm-none-eabi/lib//libc.a(lib_a-svfiprintf.o)
 .ARM.attributes
                0x00002fd1       0x30 /home/leon/riotboard/arm-2012.09/bin/../arm-none-eabi/lib//libc.a(lib_a-wcrtomb.o)
 .ARM.attributes
                0x00003001       0x30 /home/leon/riotboard/arm-2012.09/bin/../arm-none-eabi/lib//libc.a(lib_a-wctomb_r.o)
 .ARM.attributes
                0x00003031       0x30 /home/leon/riotboard/arm-2012.09/bin/../arm-none-eabi/lib//libc.a(lib_a-writer.o)
 .ARM.attributes
                0x00003061       0x30 /home/leon/riotboard/arm-2012.09/bin/../arm-none-eabi/lib//libc.a(lib_a-callocr.o)
 .ARM.attributes
                0x00003091       0x30 /home/leon/riotboard/arm-2012.09/bin/../arm-none-eabi/lib//libc.a(lib_a-closer.o)
 .ARM.attributes
                0x000030c1       0x30 /home/leon/riotboard/arm-2012.09/bin/../arm-none-eabi/lib//libc.a(lib_a-fclose.o)
 .ARM.attributes
                0x000030f1       0x30 /home/leon/riotboard/arm-2012.09/bin/../arm-none-eabi/lib//libc.a(lib_a-fstatr.o)
 .ARM.attributes
                0x00003121       0x30 /home/leon/riotboard/arm-2012.09/bin/../arm-none-eabi/lib//libc.a(lib_a-isattyr.o)
 .ARM.attributes
                0x00003151       0x30 /home/leon/riotboard/arm-2012.09/bin/../arm-none-eabi/lib//libc.a(lib_a-lseekr.o)
 .ARM.attributes
                0x00003181       0x30 /home/leon/riotboard/arm-2012.09/bin/../arm-none-eabi/lib//libc.a(lib_a-readr.o)
 .ARM.attributes
                0x000031b1       0x18 /home/leon/riotboard/arm-2012.09/bin/../lib/gcc/arm-none-eabi/4.7.2//libgcc.a(_udivsi3.o)
 .ARM.attributes
                0x000031c9       0x18 /home/leon/riotboard/arm-2012.09/bin/../lib/gcc/arm-none-eabi/4.7.2//libgcc.a(_divsi3.o)
 .ARM.attributes
                0x000031e1       0x18 /home/leon/riotboard/arm-2012.09/bin/../lib/gcc/arm-none-eabi/4.7.2//libgcc.a(_dvmd_tls.o)
 .ARM.attributes
                0x000031f9       0x18 /home/leon/riotboard/arm-2012.09/bin/../lib/gcc/arm-none-eabi/4.7.2//libgcc.a(_arm_addsubdf3.o)
 .ARM.attributes
                0x00003211       0x18 /home/leon/riotboard/arm-2012.09/bin/../lib/gcc/arm-none-eabi/4.7.2//libgcc.a(_arm_muldivdf3.o)
 .ARM.attributes
                0x00003229       0x18 /home/leon/riotboard/arm-2012.09/bin/../lib/gcc/arm-none-eabi/4.7.2//libgcc.a(_arm_cmpdf2.o)
 .ARM.attributes
                0x00003241       0x18 /home/leon/riotboard/arm-2012.09/bin/../lib/gcc/arm-none-eabi/4.7.2//libgcc.a(_arm_fixdfsi.o)
 .ARM.attributes
                0x00003259       0x18 /home/leon/riotboard/arm-2012.09/bin/../lib/gcc/arm-none-eabi/4.7.2//libgcc.a(_aeabi_uldivmod.o)
 .ARM.attributes
                0x00003271       0x30 /home/leon/riotboard/arm-2012.09/bin/../lib/gcc/arm-none-eabi/4.7.2//libgcc.a(bpabi.o)
 .ARM.attributes
                0x000032a1       0x30 /home/leon/riotboard/arm-2012.09/bin/../lib/gcc/arm-none-eabi/4.7.2//libgcc.a(_divdi3.o)
 .ARM.attributes
                0x000032d1       0x30 /home/leon/riotboard/arm-2012.09/bin/../lib/gcc/arm-none-eabi/4.7.2//libgcc.a(_udivdi3.o)
 .ARM.attributes
                0x00003301       0x18 /home/leon/riotboard/arm-2012.09/bin/../lib/gcc/arm-none-eabi/4.7.2//libgcc.a(_clzsi2.o)
 .ARM.attributes
                0x00003319       0x39 /home/leon/git/swp-report/iMX6_Platform_SDK/output/mx6dq/lib/libsdk.a(runtime_support.o)

.comment        0x00000000       0x30
 .comment       0x00000000       0x30 /home/leon/git/swp-report/iMX6_Platform_SDK/output/mx6dq/obds/sabre_ai_rev_a/obj/apps/common/ivt.o
                                 0x31 (size before relaxing)
 .comment       0x00000000       0x31 /home/leon/git/swp-report/iMX6_Platform_SDK/output/mx6dq/obds/sabre_ai_rev_a/obj/apps/common/platform_init.o
 .comment       0x00000000       0x31 /home/leon/git/swp-report/iMX6_Platform_SDK/output/mx6dq/obds/sabre_ai_rev_a/obj/apps/common/print_clock_info.o
 .comment       0x00000000       0x31 /home/leon/git/swp-report/iMX6_Platform_SDK/output/mx6dq/obds/sabre_ai_rev_a/obj/apps/common/print_version.o
 .comment       0x00000000       0x31 /home/leon/git/swp-report/iMX6_Platform_SDK/output/mx6dq/obds/sabre_ai_rev_a/obj/apps/obds/src/obds.o
 .comment       0x00000000       0x31 /home/leon/git/swp-report/iMX6_Platform_SDK/output/mx6dq/obds/sabre_ai_rev_a/obj/apps/obds/src/obds_utils.o
 .comment       0x00000000       0x31 /home/leon/git/swp-report/iMX6_Platform_SDK/output/mx6dq/obds/sabre_ai_rev_a/obj/apps/obds/src/tests/android_buttons_test.o
 .comment       0x00000000       0x31 /home/leon/git/swp-report/iMX6_Platform_SDK/output/mx6dq/obds/sabre_ai_rev_a/obj/apps/obds/src/tests/audio_esai_test.o
 .comment       0x00000000       0x31 /home/leon/git/swp-report/iMX6_Platform_SDK/output/mx6dq/obds/sabre_ai_rev_a/obj/apps/obds/src/tests/audio_ssi_test.o
 .comment       0x00000000       0x31 /home/leon/git/swp-report/iMX6_Platform_SDK/output/mx6dq/obds/sabre_ai_rev_a/obj/apps/obds/src/tests/ddr_test.o
 .comment       0x00000000       0x31 /home/leon/git/swp-report/iMX6_Platform_SDK/output/mx6dq/obds/sabre_ai_rev_a/obj/apps/obds/src/tests/deserializer_ds90ur124.o
 .comment       0x00000000       0x31 /home/leon/git/swp-report/iMX6_Platform_SDK/output/mx6dq/obds/sabre_ai_rev_a/obj/apps/obds/src/tests/display_test.o
 .comment       0x00000000       0x31 /home/leon/git/swp-report/iMX6_Platform_SDK/output/mx6dq/obds/sabre_ai_rev_a/obj/apps/obds/src/tests/enet_mx6dldq_test.o
 .comment       0x00000000       0x31 /home/leon/git/swp-report/iMX6_Platform_SDK/output/mx6dq/obds/sabre_ai_rev_a/obj/apps/obds/src/tests/flexcan_test.o
 .comment       0x00000000       0x31 /home/leon/git/swp-report/iMX6_Platform_SDK/output/mx6dq/obds/sabre_ai_rev_a/obj/apps/obds/src/tests/fm_tuner_si476x_test.o
 .comment       0x00000000       0x31 /home/leon/git/swp-report/iMX6_Platform_SDK/output/mx6dq/obds/sabre_ai_rev_a/obj/apps/obds/src/tests/gpio_led.o
 .comment       0x00000000       0x31 /home/leon/git/swp-report/iMX6_Platform_SDK/output/mx6dq/obds/sabre_ai_rev_a/obj/apps/obds/src/tests/gps_test.o
 .comment       0x00000000       0x31 /home/leon/git/swp-report/iMX6_Platform_SDK/output/mx6dq/obds/sabre_ai_rev_a/obj/apps/obds/src/tests/i2c_check_light_sensor_isl29023.o
 .comment       0x00000000       0x31 /home/leon/git/swp-report/iMX6_Platform_SDK/output/mx6dq/obds/sabre_ai_rev_a/obj/apps/obds/src/tests/i2c_device_barometer_ppl3115.o
 .comment       0x00000000       0x31 /home/leon/git/swp-report/iMX6_Platform_SDK/output/mx6dq/obds/sabre_ai_rev_a/obj/apps/obds/src/tests/i2c_device_check_cs42888.o
 .comment       0x00000000       0x31 /home/leon/git/swp-report/iMX6_Platform_SDK/output/mx6dq/obds/sabre_ai_rev_a/obj/apps/obds/src/tests/i2c_device_digital_compass_mag3110.o
 .comment       0x00000000       0x31 /home/leon/git/swp-report/iMX6_Platform_SDK/output/mx6dq/obds/sabre_ai_rev_a/obj/apps/obds/src/tests/i2c_device_digital_compass_mag3112.o
 .comment       0x00000000       0x31 /home/leon/git/swp-report/iMX6_Platform_SDK/output/mx6dq/obds/sabre_ai_rev_a/obj/apps/obds/src/tests/i2c_device_id_check_mma8450.o
 .comment       0x00000000       0x31 /home/leon/git/swp-report/iMX6_Platform_SDK/output/mx6dq/obds/sabre_ai_rev_a/obj/apps/obds/src/tests/i2c_device_id_check_mma8451.o
 .comment       0x00000000       0x31 /home/leon/git/swp-report/iMX6_Platform_SDK/output/mx6dq/obds/sabre_ai_rev_a/obj/apps/obds/src/tests/i2c_device_id_check_p1003_tsc.o
 .comment       0x00000000       0x31 /home/leon/git/swp-report/iMX6_Platform_SDK/output/mx6dq/obds/sabre_ai_rev_a/obj/apps/obds/src/tests/i2c_device_temp_sensor_emc1046.o
 .comment       0x00000000       0x31 /home/leon/git/swp-report/iMX6_Platform_SDK/output/mx6dq/obds/sabre_ai_rev_a/obj/apps/obds/src/tests/i2c_device_zigbee_mc1323.o
 .comment       0x00000000       0x31 /home/leon/git/swp-report/iMX6_Platform_SDK/output/mx6dq/obds/sabre_ai_rev_a/obj/apps/obds/src/tests/i2c_eeprom_at24cxx_test.o
 .comment       0x00000000       0x31 /home/leon/git/swp-report/iMX6_Platform_SDK/output/mx6dq/obds/sabre_ai_rev_a/obj/apps/obds/src/tests/imx_spi_nor_test.o
 .comment       0x00000000       0x31 /home/leon/git/swp-report/iMX6_Platform_SDK/output/mx6dq/obds/sabre_ai_rev_a/obj/apps/obds/src/tests/mlb_os81050.o
 .comment       0x00000000       0x31 /home/leon/git/swp-report/iMX6_Platform_SDK/output/mx6dq/obds/sabre_ai_rev_a/obj/apps/obds/src/tests/mmcsd_test.o
 .comment       0x00000000       0x31 /home/leon/git/swp-report/iMX6_Platform_SDK/output/mx6dq/obds/sabre_ai_rev_a/obj/apps/obds/src/tests/pmic_da9053.o
 .comment       0x00000000       0x31 /home/leon/git/swp-report/iMX6_Platform_SDK/output/mx6dq/obds/sabre_ai_rev_a/obj/apps/obds/src/tests/pmic_lt3589.o
 .comment       0x00000000       0x31 /home/leon/git/swp-report/iMX6_Platform_SDK/output/mx6dq/obds/sabre_ai_rev_a/obj/apps/obds/src/tests/pmic_max17135.o
 .comment       0x00000000       0x31 /home/leon/git/swp-report/iMX6_Platform_SDK/output/mx6dq/obds/sabre_ai_rev_a/obj/apps/obds/src/tests/pmic_mc13892.o
 .comment       0x00000000       0x31 /home/leon/git/swp-report/iMX6_Platform_SDK/output/mx6dq/obds/sabre_ai_rev_a/obj/apps/obds/src/tests/program_board_id.o
 .comment       0x00000000       0x31 /home/leon/git/swp-report/iMX6_Platform_SDK/output/mx6dq/obds/sabre_ai_rev_a/obj/apps/obds/src/tests/program_mac_address.o
 .comment       0x00000000       0x31 /home/leon/git/swp-report/iMX6_Platform_SDK/output/mx6dq/obds/sabre_ai_rev_a/obj/apps/obds/src/tests/snvs_srtc_test.o
 .comment       0x00000000       0x31 /home/leon/git/swp-report/iMX6_Platform_SDK/output/mx6dq/obds/sabre_ai_rev_a/obj/apps/obds/src/tests/touch_button_test.o
 .comment       0x00000000       0x31 /home/leon/git/swp-report/iMX6_Platform_SDK/output/mx6dq/obds/sabre_ai_rev_a/obj/apps/obds/src/tests/touch_screen.o
 .comment       0x00000000       0x31 /home/leon/git/swp-report/iMX6_Platform_SDK/output/mx6dq/obds/sabre_ai_rev_a/obj/apps/obds/src/tests/touch_screen_max11801.o
 .comment       0x00000000       0x31 /home/leon/git/swp-report/iMX6_Platform_SDK/output/mx6dq/obds/sabre_ai_rev_a/obj/apps/obds/src/tests/usb_tests_obds.o
 .comment       0x00000000       0x31 /home/leon/git/swp-report/iMX6_Platform_SDK/output/mx6dq/obds/sabre_ai_rev_a/obj/apps/obds/src/tests/video_dec_ARD_MB_reset_button.o
 .comment       0x00000000       0x31 /home/leon/git/swp-report/iMX6_Platform_SDK/output/mx6dq/obds/sabre_ai_rev_a/obj/apps/obds/src/tests/video_dec_ARD_MBrst_from_cpu_expander.o
 .comment       0x00000000       0x31 /home/leon/git/swp-report/iMX6_Platform_SDK/output/mx6dq/obds/sabre_ai_rev_a/obj/apps/obds/src/tests/video_dec_adv7180.o
 .comment       0x00000000       0x31 /home/leon/git/swp-report/iMX6_Platform_SDK/output/mx6dq/obds/sabre_ai_rev_a/obj/apps/obds/src/tests/weim_nor_flash_test.o
 .comment       0x00000000       0x31 /home/leon/git/swp-report/iMX6_Platform_SDK/output/mx6dq/obds/sabre_ai_rev_a/obj/sdk/common/ioexpander/test/max7310_test.o
 .comment       0x00000000       0x31 /home/leon/git/swp-report/iMX6_Platform_SDK/output/mx6dq/obds/sabre_ai_rev_a/obj/sdk/common/pmic/pfuse/pf0100.o
 .comment       0x00000000       0x31 /home/leon/git/swp-report/iMX6_Platform_SDK/output/mx6dq/obds/sabre_ai_rev_a/obj/sdk/drivers/audio/src/snd_card.o
 .comment       0x00000000       0x31 /home/leon/git/swp-report/iMX6_Platform_SDK/output/mx6dq/obds/sabre_ai_rev_a/obj/sdk/drivers/camera/test/adv7180_capture.o
 .comment       0x00000000       0x31 /home/leon/git/swp-report/iMX6_Platform_SDK/output/mx6dq/obds/sabre_ai_rev_a/obj/sdk/drivers/camera/test/camera_test.o
 .comment       0x00000000       0x31 /home/leon/git/swp-report/iMX6_Platform_SDK/output/mx6dq/obds/sabre_ai_rev_a/obj/sdk/drivers/camera/test/csi_test_mode.o
 .comment       0x00000000       0x31 /home/leon/git/swp-report/iMX6_Platform_SDK/output/mx6dq/obds/sabre_ai_rev_a/obj/sdk/drivers/camera/test/sensor_capture.o
 .comment       0x00000000       0x31 /home/leon/git/swp-report/iMX6_Platform_SDK/output/mx6dq/obds/sabre_ai_rev_a/obj/sdk/drivers/hdmi/test/hdmi_test.o
 .comment       0x00000000       0x31 /home/leon/git/swp-report/iMX6_Platform_SDK/output/mx6dq/obds/sabre_ai_rev_a/obj/sdk/drivers/hdmi/test/init_dma_data.o
 .comment       0x00000000       0x31 /home/leon/git/swp-report/iMX6_Platform_SDK/output/mx6dq/obds/sabre_ai_rev_a/obj/sdk/drivers/ipu/test/ips_display.o
 .comment       0x00000000       0x31 /home/leon/git/swp-report/iMX6_Platform_SDK/output/mx6dq/obds/sabre_ai_rev_a/obj/sdk/drivers/ipu/test/ipu_image.o
 .comment       0x00000000       0x31 /home/leon/git/swp-report/iMX6_Platform_SDK/output/mx6dq/obds/sabre_ai_rev_a/obj/sdk/drivers/sata/test/sata_test.o
 .comment       0x00000000       0x31 /home/leon/git/swp-report/iMX6_Platform_SDK/output/mx6dq/obds/sabre_ai_rev_a/obj/sdk/drivers/spi/test/imx_spi_nor_atmel.o
 .comment       0x00000000       0x31 /home/leon/git/swp-report/iMX6_Platform_SDK/output/mx6dq/obds/sabre_ai_rev_a/obj/sdk/drivers/spi/test/spi_nor_numonyx.o
 .comment       0x00000000       0x31 /home/leon/git/swp-report/iMX6_Platform_SDK/output/mx6dq/obds/sabre_ai_rev_a/obj/sdk/drivers/uart/test/uart_test.o
 .comment       0x00000000       0x31 /home/leon/git/swp-report/iMX6_Platform_SDK/output/mx6dq/obds/sabre_ai_rev_a/obj/sdk/drivers/usb/test/usb0_host_test.o
 .comment       0x00000000       0x31 /home/leon/git/swp-report/iMX6_Platform_SDK/output/mx6dq/obds/sabre_ai_rev_a/obj/sdk/drivers/usb/test/usb0_host_testmodes_test.o
 .comment       0x00000000       0x31 /home/leon/git/swp-report/iMX6_Platform_SDK/output/mx6dq/obds/sabre_ai_rev_a/obj/sdk/drivers/usdhc/test/usdhc_test.o
 .comment       0x00000000       0x31 /home/leon/git/swp-report/iMX6_Platform_SDK/output/mx6dq/lib/libsdk.a(max7310.o)
 .comment       0x00000000       0x31 /home/leon/git/swp-report/iMX6_Platform_SDK/output/mx6dq/lib/libsdk.a(ccm_pll.o)
 .comment       0x00000000       0x31 /home/leon/git/swp-report/iMX6_Platform_SDK/output/mx6dq/lib/libsdk.a(gic.o)
 .comment       0x00000000       0x31 /home/leon/git/swp-report/iMX6_Platform_SDK/output/mx6dq/lib/libsdk.a(interrupt.o)
 .comment       0x00000000       0x31 /home/leon/git/swp-report/iMX6_Platform_SDK/output/mx6dq/lib/libsdk.a(mmu.o)
 .comment       0x00000000       0x31 /home/leon/git/swp-report/iMX6_Platform_SDK/output/mx6dq/lib/libsdk.a(menu.o)
 .comment       0x00000000       0x31 /home/leon/git/swp-report/iMX6_Platform_SDK/output/mx6dq/lib/libsdk.a(sdk_version.o)
 .comment       0x00000000       0x31 /home/leon/git/swp-report/iMX6_Platform_SDK/output/mx6dq/lib/libsdk.a(system_util.o)
 .comment       0x00000000       0x31 /home/leon/git/swp-report/iMX6_Platform_SDK/output/mx6dq/lib/libsdk.a(text_color.o)
 .comment       0x00000000       0x31 /home/leon/git/swp-report/iMX6_Platform_SDK/output/mx6dq/lib/libsdk.a(cs42888.o)
 .comment       0x00000000       0x31 /home/leon/git/swp-report/iMX6_Platform_SDK/output/mx6dq/lib/libsdk.a(imx-ssi.o)
 .comment       0x00000000       0x31 /home/leon/git/swp-report/iMX6_Platform_SDK/output/mx6dq/lib/libsdk.a(imx_esai.o)
 .comment       0x00000000       0x31 /home/leon/git/swp-report/iMX6_Platform_SDK/output/mx6dq/lib/libsdk.a(imx_spdif.o)
 .comment       0x00000000       0x31 /home/leon/git/swp-report/iMX6_Platform_SDK/output/mx6dq/lib/libsdk.a(sgtl5000.o)
 .comment       0x00000000       0x31 /home/leon/git/swp-report/iMX6_Platform_SDK/output/mx6dq/lib/libsdk.a(wm8958_dac.o)
 .comment       0x00000000       0x31 /home/leon/git/swp-report/iMX6_Platform_SDK/output/mx6dq/lib/libsdk.a(wm8962.o)
 .comment       0x00000000       0x31 /home/leon/git/swp-report/iMX6_Platform_SDK/output/mx6dq/lib/libsdk.a(board_id.o)
 .comment       0x00000000       0x31 /home/leon/git/swp-report/iMX6_Platform_SDK/output/mx6dq/lib/libsdk.a(smd_sensor.o)
 .comment       0x00000000       0x31 /home/leon/git/swp-report/iMX6_Platform_SDK/output/mx6dq/lib/libsdk.a(enet_drv.o)
 .comment       0x00000000       0x31 /home/leon/git/swp-report/iMX6_Platform_SDK/output/mx6dq/lib/libsdk.a(gpio.o)
 .comment       0x00000000       0x31 /home/leon/git/swp-report/iMX6_Platform_SDK/output/mx6dq/lib/libsdk.a(imx6dq_gpio_map.o)
 .comment       0x00000000       0x31 /home/leon/git/swp-report/iMX6_Platform_SDK/output/mx6dq/lib/libsdk.a(hdmi_tx.o)
 .comment       0x00000000       0x31 /home/leon/git/swp-report/iMX6_Platform_SDK/output/mx6dq/lib/libsdk.a(hdmi_tx_audio.o)
 .comment       0x00000000       0x31 /home/leon/git/swp-report/iMX6_Platform_SDK/output/mx6dq/lib/libsdk.a(hdmi_tx_phy.o)
 .comment       0x00000000       0x31 /home/leon/git/swp-report/iMX6_Platform_SDK/output/mx6dq/lib/libsdk.a(imx_i2c.o)
 .comment       0x00000000       0x31 /home/leon/git/swp-report/iMX6_Platform_SDK/output/mx6dq/lib/libsdk.a(ips_disp_panel.o)
 .comment       0x00000000       0x31 /home/leon/git/swp-report/iMX6_Platform_SDK/output/mx6dq/lib/libsdk.a(ipu_common.o)
 .comment       0x00000000       0x31 /home/leon/git/swp-report/iMX6_Platform_SDK/output/mx6dq/lib/libsdk.a(ipu_csi.o)
 .comment       0x00000000       0x31 /home/leon/git/swp-report/iMX6_Platform_SDK/output/mx6dq/lib/libsdk.a(ipu_dc.o)
 .comment       0x00000000       0x31 /home/leon/git/swp-report/iMX6_Platform_SDK/output/mx6dq/lib/libsdk.a(ipu_di.o)
 .comment       0x00000000       0x31 /home/leon/git/swp-report/iMX6_Platform_SDK/output/mx6dq/lib/libsdk.a(ipu_dmfc.o)
 .comment       0x00000000       0x31 /home/leon/git/swp-report/iMX6_Platform_SDK/output/mx6dq/lib/libsdk.a(ipu_dp.o)
 .comment       0x00000000       0x31 /home/leon/git/swp-report/iMX6_Platform_SDK/output/mx6dq/lib/libsdk.a(ipu_idmac.o)
 .comment       0x00000000       0x31 /home/leon/git/swp-report/iMX6_Platform_SDK/output/mx6dq/lib/libsdk.a(ipu_vdi.o)
 .comment       0x00000000       0x31 /home/leon/git/swp-report/iMX6_Platform_SDK/output/mx6dq/lib/libsdk.a(ldb.o)
 .comment       0x00000000       0x31 /home/leon/git/swp-report/iMX6_Platform_SDK/output/mx6dq/lib/libsdk.a(ocotp.o)
 .comment       0x00000000       0x31 /home/leon/git/swp-report/iMX6_Platform_SDK/output/mx6dq/lib/libsdk.a(sata.o)
 .comment       0x00000000       0x31 /home/leon/git/swp-report/iMX6_Platform_SDK/output/mx6dq/lib/libsdk.a(ecspi.o)
 .comment       0x00000000       0x31 /home/leon/git/swp-report/iMX6_Platform_SDK/output/mx6dq/lib/libsdk.a(timer.o)
 .comment       0x00000000       0x31 /home/leon/git/swp-report/iMX6_Platform_SDK/output/mx6dq/lib/libsdk.a(imx_uart.o)
 .comment       0x00000000       0x31 /home/leon/git/swp-report/iMX6_Platform_SDK/output/mx6dq/lib/libsdk.a(usb_common.o)
 .comment       0x00000000       0x31 /home/leon/git/swp-report/iMX6_Platform_SDK/output/mx6dq/lib/libsdk.a(usbh_drv.o)
 .comment       0x00000000       0x31 /home/leon/git/swp-report/iMX6_Platform_SDK/output/mx6dq/lib/libsdk.a(usdhc.o)
 .comment       0x00000000       0x31 /home/leon/git/swp-report/iMX6_Platform_SDK/output/mx6dq/lib/libsdk.a(usdhc_host.o)
 .comment       0x00000000       0x31 /home/leon/git/swp-report/iMX6_Platform_SDK/output/mx6dq/lib/libsdk.a(usdhc_mmc.o)
 .comment       0x00000000       0x31 /home/leon/git/swp-report/iMX6_Platform_SDK/output/mx6dq/lib/libsdk.a(usdhc_sd.o)
 .comment       0x00000000       0x31 /home/leon/git/swp-report/iMX6_Platform_SDK/output/mx6dq/lib/libsdk.a(adv7180.o)
 .comment       0x00000000       0x31 /home/leon/git/swp-report/iMX6_Platform_SDK/output/mx6dq/lib/libsdk.a(armv7_cache.o)
 .comment       0x00000000       0x31 /home/leon/git/swp-report/iMX6_Platform_SDK/output/mx6dq/lib/libsdk.a(camera_profile.o)
 .comment       0x00000000       0x31 /home/leon/git/swp-report/iMX6_Platform_SDK/output/mx6dq/lib/libsdk.a(hdmi_common.o)
 .comment       0x00000000       0x31 /home/leon/git/swp-report/iMX6_Platform_SDK/output/mx6dq/lib/libsdk.a(ipu_ic.o)
 .comment       0x00000000       0x31 /home/leon/git/swp-report/iMX6_Platform_SDK/output/mx6dq/lib/libsdk.a(epit.o)
 .comment       0x00000000       0x31 /home/leon/git/swp-report/iMX6_Platform_SDK/output/mx6dq/lib/libsdk.a(mx6x_usb.o)
 .comment       0x00000000       0x31 /home/leon/git/swp-report/iMX6_Platform_SDK/output/mx6dq/lib/libsdk.a(abort_handler.o)
 .comment       0x00000000       0x31 /home/leon/git/swp-report/iMX6_Platform_SDK/output/mx6dq/lib/libboard_sabre_ai_rev_a.a(board_audio.o)
 .comment       0x00000000       0x31 /home/leon/git/swp-report/iMX6_Platform_SDK/output/mx6dq/lib/libboard_sabre_ai_rev_a.a(board_buttons.o)
 .comment       0x00000000       0x31 /home/leon/git/swp-report/iMX6_Platform_SDK/output/mx6dq/lib/libboard_sabre_ai_rev_a.a(board_camera.o)
 .comment       0x00000000       0x31 /home/leon/git/swp-report/iMX6_Platform_SDK/output/mx6dq/lib/libboard_sabre_ai_rev_a.a(board_display.o)
 .comment       0x00000000       0x31 /home/leon/git/swp-report/iMX6_Platform_SDK/output/mx6dq/lib/libboard_sabre_ai_rev_a.a(board_hdmi.o)
 .comment       0x00000000       0x31 /home/leon/git/swp-report/iMX6_Platform_SDK/output/mx6dq/lib/libboard_sabre_ai_rev_a.a(board_i2c.o)
 .comment       0x00000000       0x31 /home/leon/git/swp-report/iMX6_Platform_SDK/output/mx6dq/lib/libboard_sabre_ai_rev_a.a(board_io_expanders.o)
 .comment       0x00000000       0x31 /home/leon/git/swp-report/iMX6_Platform_SDK/output/mx6dq/lib/libboard_sabre_ai_rev_a.a(board_mipi.o)
 .comment       0x00000000       0x31 /home/leon/git/swp-report/iMX6_Platform_SDK/output/mx6dq/lib/libboard_sabre_ai_rev_a.a(board_network.o)
 .comment       0x00000000       0x31 /home/leon/git/swp-report/iMX6_Platform_SDK/output/mx6dq/lib/libboard_sabre_ai_rev_a.a(board_sata.o)
 .comment       0x00000000       0x31 /home/leon/git/swp-report/iMX6_Platform_SDK/output/mx6dq/lib/libboard_sabre_ai_rev_a.a(board_usb.o)
 .comment       0x00000000       0x31 /home/leon/git/swp-report/iMX6_Platform_SDK/output/mx6dq/lib/libboard_sabre_ai_rev_a.a(board_usdhc.o)
 .comment       0x00000000       0x31 /home/leon/git/swp-report/iMX6_Platform_SDK/output/mx6dq/lib/libboard_sabre_ai_rev_a.a(hardware_modules.o)
 .comment       0x00000000       0x31 /home/leon/git/swp-report/iMX6_Platform_SDK/output/mx6dq/lib/libboard_sabre_ai_rev_a.a(dcd.o)
 .comment       0x00000000       0x31 /home/leon/git/swp-report/iMX6_Platform_SDK/output/mx6dq/lib/libboard_sabre_ai_rev_a.a(audmux_iomux_config.o)
 .comment       0x00000000       0x31 /home/leon/git/swp-report/iMX6_Platform_SDK/output/mx6dq/lib/libboard_sabre_ai_rev_a.a(ecspi_iomux_config.o)
 .comment       0x00000000       0x31 /home/leon/git/swp-report/iMX6_Platform_SDK/output/mx6dq/lib/libboard_sabre_ai_rev_a.a(eim_iomux_config.o)
 .comment       0x00000000       0x31 /home/leon/git/swp-report/iMX6_Platform_SDK/output/mx6dq/lib/libboard_sabre_ai_rev_a.a(enet_iomux_config.o)
 .comment       0x00000000       0x31 /home/leon/git/swp-report/iMX6_Platform_SDK/output/mx6dq/lib/libboard_sabre_ai_rev_a.a(esai_iomux_config.o)
 .comment       0x00000000       0x31 /home/leon/git/swp-report/iMX6_Platform_SDK/output/mx6dq/lib/libboard_sabre_ai_rev_a.a(i2c3_iomux_config.o)
 .comment       0x00000000       0x31 /home/leon/git/swp-report/iMX6_Platform_SDK/output/mx6dq/lib/libboard_sabre_ai_rev_a.a(i2c_iomux_config.o)
 .comment       0x00000000       0x31 /home/leon/git/swp-report/iMX6_Platform_SDK/output/mx6dq/lib/libboard_sabre_ai_rev_a.a(iomux_config.o)
 .comment       0x00000000       0x31 /home/leon/git/swp-report/iMX6_Platform_SDK/output/mx6dq/lib/libboard_sabre_ai_rev_a.a(ipu1_iomux_config.o)
 .comment       0x00000000       0x31 /home/leon/git/swp-report/iMX6_Platform_SDK/output/mx6dq/lib/libboard_sabre_ai_rev_a.a(ipu_iomux_config.o)
 .comment       0x00000000       0x31 /home/leon/git/swp-report/iMX6_Platform_SDK/output/mx6dq/lib/libboard_sabre_ai_rev_a.a(mlb_iomux_config.o)
 .comment       0x00000000       0x31 /home/leon/git/swp-report/iMX6_Platform_SDK/output/mx6dq/lib/libboard_sabre_ai_rev_a.a(mmdc_iomux_config.o)
 .comment       0x00000000       0x31 /home/leon/git/swp-report/iMX6_Platform_SDK/output/mx6dq/lib/libboard_sabre_ai_rev_a.a(pwm3_iomux_config.o)
 .comment       0x00000000       0x31 /home/leon/git/swp-report/iMX6_Platform_SDK/output/mx6dq/lib/libboard_sabre_ai_rev_a.a(pwm4_iomux_config.o)
 .comment       0x00000000       0x31 /home/leon/git/swp-report/iMX6_Platform_SDK/output/mx6dq/lib/libboard_sabre_ai_rev_a.a(sjc_iomux_config.o)
 .comment       0x00000000       0x31 /home/leon/git/swp-report/iMX6_Platform_SDK/output/mx6dq/lib/libboard_sabre_ai_rev_a.a(spdif_iomux_config.o)
 .comment       0x00000000       0x31 /home/leon/git/swp-report/iMX6_Platform_SDK/output/mx6dq/lib/libboard_sabre_ai_rev_a.a(uart2_iomux_config.o)
 .comment       0x00000000       0x31 /home/leon/git/swp-report/iMX6_Platform_SDK/output/mx6dq/lib/libboard_sabre_ai_rev_a.a(uart3_iomux_config.o)
 .comment       0x00000000       0x31 /home/leon/git/swp-report/iMX6_Platform_SDK/output/mx6dq/lib/libboard_sabre_ai_rev_a.a(uart4_iomux_config.o)
 .comment       0x00000000       0x31 /home/leon/git/swp-report/iMX6_Platform_SDK/output/mx6dq/lib/libboard_sabre_ai_rev_a.a(uart_iomux_config.o)
 .comment       0x00000000       0x31 /home/leon/git/swp-report/iMX6_Platform_SDK/output/mx6dq/lib/libboard_sabre_ai_rev_a.a(usdhc1_iomux_config.o)
 .comment       0x00000000       0x31 /home/leon/git/swp-report/iMX6_Platform_SDK/output/mx6dq/lib/libboard_sabre_ai_rev_a.a(usdhc3_iomux_config.o)
 .comment       0x00000000       0x31 /home/leon/git/swp-report/iMX6_Platform_SDK/output/mx6dq/lib/libboard_sabre_ai_rev_a.a(usdhc_iomux_config.o)
 .comment       0x00000000       0x31 /home/leon/git/swp-report/iMX6_Platform_SDK/output/mx6dq/lib/libboard_sabre_ai_rev_a.a(wdog1_iomux_config.o)
 .comment       0x00000000       0x31 /home/leon/git/swp-report/iMX6_Platform_SDK/output/mx6dq/lib/libboard_sabre_ai_rev_a.a(ccm_iomux_config.o)
 .comment       0x00000000       0x31 /home/leon/git/swp-report/iMX6_Platform_SDK/output/mx6dq/lib/libboard_sabre_ai_rev_a.a(ecspi1_iomux_config.o)
 .comment       0x00000000       0x31 /home/leon/git/swp-report/iMX6_Platform_SDK/output/mx6dq/lib/libboard_sabre_ai_rev_a.a(flexcan1_iomux_config.o)
 .comment       0x00000000       0x31 /home/leon/git/swp-report/iMX6_Platform_SDK/output/mx6dq/lib/libboard_sabre_ai_rev_a.a(flexcan2_iomux_config.o)
 .comment       0x00000000       0x31 /home/leon/git/swp-report/iMX6_Platform_SDK/output/mx6dq/lib/libboard_sabre_ai_rev_a.a(gpio1_iomux_config.o)
 .comment       0x00000000       0x31 /home/leon/git/swp-report/iMX6_Platform_SDK/output/mx6dq/lib/libboard_sabre_ai_rev_a.a(gpio2_iomux_config.o)
 .comment       0x00000000       0x31 /home/leon/git/swp-report/iMX6_Platform_SDK/output/mx6dq/lib/libboard_sabre_ai_rev_a.a(gpio4_iomux_config.o)
 .comment       0x00000000       0x31 /home/leon/git/swp-report/iMX6_Platform_SDK/output/mx6dq/lib/libboard_sabre_ai_rev_a.a(gpio5_iomux_config.o)
 .comment       0x00000000       0x31 /home/leon/git/swp-report/iMX6_Platform_SDK/output/mx6dq/lib/libboard_sabre_ai_rev_a.a(gpio6_iomux_config.o)
 .comment       0x00000000       0x31 /home/leon/git/swp-report/iMX6_Platform_SDK/output/mx6dq/lib/libboard_sabre_ai_rev_a.a(gpmi_iomux_config.o)
 .comment       0x00000000       0x31 /home/leon/git/swp-report/iMX6_Platform_SDK/output/mx6dq/lib/libboard_sabre_ai_rev_a.a(i2c2_iomux_config.o)
 .comment       0x00000000       0x31 /home/leon/git/swp-report/iMX6_Platform_SDK/output/mx6dq/lib/libsdk.a(runtime_support.o)

.debug_info     0x00000000    0x671f1
 .debug_info    0x00000000      0x228 /home/leon/git/swp-report/iMX6_Platform_SDK/output/mx6dq/obds/sabre_ai_rev_a/obj/apps/common/ivt.o
 .debug_info    0x00000228      0x135 /home/leon/git/swp-report/iMX6_Platform_SDK/output/mx6dq/obds/sabre_ai_rev_a/obj/apps/common/platform_init.o
 .debug_info    0x0000035d      0x17b /home/leon/git/swp-report/iMX6_Platform_SDK/output/mx6dq/obds/sabre_ai_rev_a/obj/apps/common/print_clock_info.o
 .debug_info    0x000004d8      0x1bd /home/leon/git/swp-report/iMX6_Platform_SDK/output/mx6dq/obds/sabre_ai_rev_a/obj/apps/common/print_version.o
 .debug_info    0x00000695      0xc69 /home/leon/git/swp-report/iMX6_Platform_SDK/output/mx6dq/obds/sabre_ai_rev_a/obj/apps/obds/src/obds.o
 .debug_info    0x000012fe      0x1be /home/leon/git/swp-report/iMX6_Platform_SDK/output/mx6dq/obds/sabre_ai_rev_a/obj/apps/obds/src/obds_utils.o
 .debug_info    0x000014bc      0xabf /home/leon/git/swp-report/iMX6_Platform_SDK/output/mx6dq/obds/sabre_ai_rev_a/obj/apps/obds/src/tests/android_buttons_test.o
 .debug_info    0x00001f7b      0xf04 /home/leon/git/swp-report/iMX6_Platform_SDK/output/mx6dq/obds/sabre_ai_rev_a/obj/apps/obds/src/tests/audio_esai_test.o
 .debug_info    0x00002e7f      0xf8e /home/leon/git/swp-report/iMX6_Platform_SDK/output/mx6dq/obds/sabre_ai_rev_a/obj/apps/obds/src/tests/audio_ssi_test.o
 .debug_info    0x00003e0d      0x44a /home/leon/git/swp-report/iMX6_Platform_SDK/output/mx6dq/obds/sabre_ai_rev_a/obj/apps/obds/src/tests/ddr_test.o
 .debug_info    0x00004257      0x188 /home/leon/git/swp-report/iMX6_Platform_SDK/output/mx6dq/obds/sabre_ai_rev_a/obj/apps/obds/src/tests/deserializer_ds90ur124.o
 .debug_info    0x000043df     0x1028 /home/leon/git/swp-report/iMX6_Platform_SDK/output/mx6dq/obds/sabre_ai_rev_a/obj/apps/obds/src/tests/display_test.o
 .debug_info    0x00005407     0x1f23 /home/leon/git/swp-report/iMX6_Platform_SDK/output/mx6dq/obds/sabre_ai_rev_a/obj/apps/obds/src/tests/enet_mx6dldq_test.o
 .debug_info    0x0000732a      0x13e /home/leon/git/swp-report/iMX6_Platform_SDK/output/mx6dq/obds/sabre_ai_rev_a/obj/apps/obds/src/tests/flexcan_test.o
 .debug_info    0x00007468      0x29a /home/leon/git/swp-report/iMX6_Platform_SDK/output/mx6dq/obds/sabre_ai_rev_a/obj/apps/obds/src/tests/fm_tuner_si476x_test.o
 .debug_info    0x00007702      0xaa3 /home/leon/git/swp-report/iMX6_Platform_SDK/output/mx6dq/obds/sabre_ai_rev_a/obj/apps/obds/src/tests/gpio_led.o
 .debug_info    0x000081a5      0x18a /home/leon/git/swp-report/iMX6_Platform_SDK/output/mx6dq/obds/sabre_ai_rev_a/obj/apps/obds/src/tests/gps_test.o
 .debug_info    0x0000832f      0xd44 /home/leon/git/swp-report/iMX6_Platform_SDK/output/mx6dq/obds/sabre_ai_rev_a/obj/apps/obds/src/tests/i2c_check_light_sensor_isl29023.o
 .debug_info    0x00009073      0x39a /home/leon/git/swp-report/iMX6_Platform_SDK/output/mx6dq/obds/sabre_ai_rev_a/obj/apps/obds/src/tests/i2c_device_barometer_ppl3115.o
 .debug_info    0x0000940d      0x570 /home/leon/git/swp-report/iMX6_Platform_SDK/output/mx6dq/obds/sabre_ai_rev_a/obj/apps/obds/src/tests/i2c_device_check_cs42888.o
 .debug_info    0x0000997d      0x35c /home/leon/git/swp-report/iMX6_Platform_SDK/output/mx6dq/obds/sabre_ai_rev_a/obj/apps/obds/src/tests/i2c_device_digital_compass_mag3110.o
 .debug_info    0x00009cd9      0x35c /home/leon/git/swp-report/iMX6_Platform_SDK/output/mx6dq/obds/sabre_ai_rev_a/obj/apps/obds/src/tests/i2c_device_digital_compass_mag3112.o
 .debug_info    0x0000a035      0xda7 /home/leon/git/swp-report/iMX6_Platform_SDK/output/mx6dq/obds/sabre_ai_rev_a/obj/apps/obds/src/tests/i2c_device_id_check_mma8450.o
 .debug_info    0x0000addc      0xda7 /home/leon/git/swp-report/iMX6_Platform_SDK/output/mx6dq/obds/sabre_ai_rev_a/obj/apps/obds/src/tests/i2c_device_id_check_mma8451.o
 .debug_info    0x0000bb83      0xdad /home/leon/git/swp-report/iMX6_Platform_SDK/output/mx6dq/obds/sabre_ai_rev_a/obj/apps/obds/src/tests/i2c_device_id_check_p1003_tsc.o
 .debug_info    0x0000c930      0x4c8 /home/leon/git/swp-report/iMX6_Platform_SDK/output/mx6dq/obds/sabre_ai_rev_a/obj/apps/obds/src/tests/i2c_device_temp_sensor_emc1046.o
 .debug_info    0x0000cdf8      0x3aa /home/leon/git/swp-report/iMX6_Platform_SDK/output/mx6dq/obds/sabre_ai_rev_a/obj/apps/obds/src/tests/i2c_device_zigbee_mc1323.o
 .debug_info    0x0000d1a2      0x319 /home/leon/git/swp-report/iMX6_Platform_SDK/output/mx6dq/obds/sabre_ai_rev_a/obj/apps/obds/src/tests/i2c_eeprom_at24cxx_test.o
 .debug_info    0x0000d4bb      0x53e /home/leon/git/swp-report/iMX6_Platform_SDK/output/mx6dq/obds/sabre_ai_rev_a/obj/apps/obds/src/tests/imx_spi_nor_test.o
 .debug_info    0x0000d9f9      0x31e /home/leon/git/swp-report/iMX6_Platform_SDK/output/mx6dq/obds/sabre_ai_rev_a/obj/apps/obds/src/tests/mlb_os81050.o
 .debug_info    0x0000dd17      0x18b /home/leon/git/swp-report/iMX6_Platform_SDK/output/mx6dq/obds/sabre_ai_rev_a/obj/apps/obds/src/tests/mmcsd_test.o
 .debug_info    0x0000dea2      0x2ff /home/leon/git/swp-report/iMX6_Platform_SDK/output/mx6dq/obds/sabre_ai_rev_a/obj/apps/obds/src/tests/pmic_da9053.o
 .debug_info    0x0000e1a1      0xcfe /home/leon/git/swp-report/iMX6_Platform_SDK/output/mx6dq/obds/sabre_ai_rev_a/obj/apps/obds/src/tests/pmic_lt3589.o
 .debug_info    0x0000ee9f      0x317 /home/leon/git/swp-report/iMX6_Platform_SDK/output/mx6dq/obds/sabre_ai_rev_a/obj/apps/obds/src/tests/pmic_max17135.o
 .debug_info    0x0000f1b6      0x239 /home/leon/git/swp-report/iMX6_Platform_SDK/output/mx6dq/obds/sabre_ai_rev_a/obj/apps/obds/src/tests/pmic_mc13892.o
 .debug_info    0x0000f3ef      0x365 /home/leon/git/swp-report/iMX6_Platform_SDK/output/mx6dq/obds/sabre_ai_rev_a/obj/apps/obds/src/tests/program_board_id.o
 .debug_info    0x0000f754      0xc96 /home/leon/git/swp-report/iMX6_Platform_SDK/output/mx6dq/obds/sabre_ai_rev_a/obj/apps/obds/src/tests/program_mac_address.o
 .debug_info    0x000103ea      0x534 /home/leon/git/swp-report/iMX6_Platform_SDK/output/mx6dq/obds/sabre_ai_rev_a/obj/apps/obds/src/tests/snvs_srtc_test.o
 .debug_info    0x0001091e      0xd02 /home/leon/git/swp-report/iMX6_Platform_SDK/output/mx6dq/obds/sabre_ai_rev_a/obj/apps/obds/src/tests/touch_screen.o
 .debug_info    0x00011620      0xefb /home/leon/git/swp-report/iMX6_Platform_SDK/output/mx6dq/obds/sabre_ai_rev_a/obj/apps/obds/src/tests/touch_screen_max11801.o
 .debug_info    0x0001251b      0xdef /home/leon/git/swp-report/iMX6_Platform_SDK/output/mx6dq/obds/sabre_ai_rev_a/obj/apps/obds/src/tests/usb_tests_obds.o
 .debug_info    0x0001330a      0x13e /home/leon/git/swp-report/iMX6_Platform_SDK/output/mx6dq/obds/sabre_ai_rev_a/obj/apps/obds/src/tests/video_dec_ARD_MB_reset_button.o
 .debug_info    0x00013448      0x130 /home/leon/git/swp-report/iMX6_Platform_SDK/output/mx6dq/obds/sabre_ai_rev_a/obj/apps/obds/src/tests/video_dec_ARD_MBrst_from_cpu_expander.o
 .debug_info    0x00013578      0xc6e /home/leon/git/swp-report/iMX6_Platform_SDK/output/mx6dq/obds/sabre_ai_rev_a/obj/apps/obds/src/tests/video_dec_adv7180.o
 .debug_info    0x000141e6      0x1d3 /home/leon/git/swp-report/iMX6_Platform_SDK/output/mx6dq/obds/sabre_ai_rev_a/obj/apps/obds/src/tests/weim_nor_flash_test.o
 .debug_info    0x000143b9      0x296 /home/leon/git/swp-report/iMX6_Platform_SDK/output/mx6dq/obds/sabre_ai_rev_a/obj/sdk/common/ioexpander/test/max7310_test.o
 .debug_info    0x0001464f      0x3f8 /home/leon/git/swp-report/iMX6_Platform_SDK/output/mx6dq/obds/sabre_ai_rev_a/obj/sdk/common/pmic/pfuse/pf0100.o
 .debug_info    0x00014a47      0x7c7 /home/leon/git/swp-report/iMX6_Platform_SDK/output/mx6dq/obds/sabre_ai_rev_a/obj/sdk/drivers/audio/src/snd_card.o
 .debug_info    0x0001520e      0xce7 /home/leon/git/swp-report/iMX6_Platform_SDK/output/mx6dq/obds/sabre_ai_rev_a/obj/sdk/drivers/camera/test/adv7180_capture.o
 .debug_info    0x00015ef5      0xa84 /home/leon/git/swp-report/iMX6_Platform_SDK/output/mx6dq/obds/sabre_ai_rev_a/obj/sdk/drivers/camera/test/camera_test.o
 .debug_info    0x00016979      0xc1b /home/leon/git/swp-report/iMX6_Platform_SDK/output/mx6dq/obds/sabre_ai_rev_a/obj/sdk/drivers/camera/test/csi_test_mode.o
 .debug_info    0x00017594      0xdc2 /home/leon/git/swp-report/iMX6_Platform_SDK/output/mx6dq/obds/sabre_ai_rev_a/obj/sdk/drivers/camera/test/sensor_capture.o
 .debug_info    0x00018356     0x10f1 /home/leon/git/swp-report/iMX6_Platform_SDK/output/mx6dq/obds/sabre_ai_rev_a/obj/sdk/drivers/hdmi/test/hdmi_test.o
 .debug_info    0x00019447      0x37c /home/leon/git/swp-report/iMX6_Platform_SDK/output/mx6dq/obds/sabre_ai_rev_a/obj/sdk/drivers/hdmi/test/init_dma_data.o
 .debug_info    0x000197c3     0x1059 /home/leon/git/swp-report/iMX6_Platform_SDK/output/mx6dq/obds/sabre_ai_rev_a/obj/sdk/drivers/ipu/test/ips_display.o
 .debug_info    0x0001a81c      0x50d /home/leon/git/swp-report/iMX6_Platform_SDK/output/mx6dq/obds/sabre_ai_rev_a/obj/sdk/drivers/ipu/test/ipu_image.o
 .debug_info    0x0001ad29      0xb9f /home/leon/git/swp-report/iMX6_Platform_SDK/output/mx6dq/obds/sabre_ai_rev_a/obj/sdk/drivers/sata/test/sata_test.o
 .debug_info    0x0001b8c8      0x48a /home/leon/git/swp-report/iMX6_Platform_SDK/output/mx6dq/obds/sabre_ai_rev_a/obj/sdk/drivers/spi/test/imx_spi_nor_atmel.o
 .debug_info    0x0001bd52      0x359 /home/leon/git/swp-report/iMX6_Platform_SDK/output/mx6dq/obds/sabre_ai_rev_a/obj/sdk/drivers/spi/test/spi_nor_numonyx.o
 .debug_info    0x0001c0ab      0xad8 /home/leon/git/swp-report/iMX6_Platform_SDK/output/mx6dq/obds/sabre_ai_rev_a/obj/sdk/drivers/uart/test/uart_test.o
 .debug_info    0x0001cb83     0x19b5 /home/leon/git/swp-report/iMX6_Platform_SDK/output/mx6dq/obds/sabre_ai_rev_a/obj/sdk/drivers/usb/test/usb0_host_test.o
 .debug_info    0x0001e538      0x987 /home/leon/git/swp-report/iMX6_Platform_SDK/output/mx6dq/obds/sabre_ai_rev_a/obj/sdk/drivers/usb/test/usb0_host_testmodes_test.o
 .debug_info    0x0001eebf      0xd3f /home/leon/git/swp-report/iMX6_Platform_SDK/output/mx6dq/obds/sabre_ai_rev_a/obj/sdk/drivers/usdhc/test/usdhc_test.o
 .debug_info    0x0001fbfe      0x2ed /home/leon/git/swp-report/iMX6_Platform_SDK/output/mx6dq/lib/libsdk.a(max7310.o)
 .debug_info    0x0001feeb     0x1d6e /home/leon/git/swp-report/iMX6_Platform_SDK/output/mx6dq/lib/libsdk.a(ccm_pll.o)
 .debug_info    0x00021c59      0x7f4 /home/leon/git/swp-report/iMX6_Platform_SDK/output/mx6dq/lib/libsdk.a(gic.o)
 .debug_info    0x0002244d      0x63b /home/leon/git/swp-report/iMX6_Platform_SDK/output/mx6dq/lib/libsdk.a(interrupt.o)
 .debug_info    0x00022a88      0x3e7 /home/leon/git/swp-report/iMX6_Platform_SDK/output/mx6dq/lib/libsdk.a(mmu.o)
 .debug_info    0x00022e6f      0xe7d /home/leon/git/swp-report/iMX6_Platform_SDK/output/mx6dq/lib/libsdk.a(menu.o)
 .debug_info    0x00023cec       0x76 /home/leon/git/swp-report/iMX6_Platform_SDK/output/mx6dq/lib/libsdk.a(sdk_version.o)
 .debug_info    0x00023d62     0x1536 /home/leon/git/swp-report/iMX6_Platform_SDK/output/mx6dq/lib/libsdk.a(system_util.o)
 .debug_info    0x00025298      0x298 /home/leon/git/swp-report/iMX6_Platform_SDK/output/mx6dq/lib/libsdk.a(text_color.o)
 .debug_info    0x00025530      0x690 /home/leon/git/swp-report/iMX6_Platform_SDK/output/mx6dq/lib/libsdk.a(cs42888.o)
 .debug_info    0x00025bc0     0x166b /home/leon/git/swp-report/iMX6_Platform_SDK/output/mx6dq/lib/libsdk.a(imx-ssi.o)
 .debug_info    0x0002722b     0x17cc /home/leon/git/swp-report/iMX6_Platform_SDK/output/mx6dq/lib/libsdk.a(imx_esai.o)
 .debug_info    0x000289f7     0x12c5 /home/leon/git/swp-report/iMX6_Platform_SDK/output/mx6dq/lib/libsdk.a(imx_spdif.o)
 .debug_info    0x00029cbc      0x9ab /home/leon/git/swp-report/iMX6_Platform_SDK/output/mx6dq/lib/libsdk.a(sgtl5000.o)
 .debug_info    0x0002a667      0x776 /home/leon/git/swp-report/iMX6_Platform_SDK/output/mx6dq/lib/libsdk.a(wm8958_dac.o)
 .debug_info    0x0002addd      0x778 /home/leon/git/swp-report/iMX6_Platform_SDK/output/mx6dq/lib/libsdk.a(wm8962.o)
 .debug_info    0x0002b555      0x4fe /home/leon/git/swp-report/iMX6_Platform_SDK/output/mx6dq/lib/libsdk.a(board_id.o)
 .debug_info    0x0002ba53      0x857 /home/leon/git/swp-report/iMX6_Platform_SDK/output/mx6dq/lib/libsdk.a(smd_sensor.o)
 .debug_info    0x0002c2aa     0x21ec /home/leon/git/swp-report/iMX6_Platform_SDK/output/mx6dq/lib/libsdk.a(enet_drv.o)
 .debug_info    0x0002e496      0x871 /home/leon/git/swp-report/iMX6_Platform_SDK/output/mx6dq/lib/libsdk.a(gpio.o)
 .debug_info    0x0002ed07       0x9f /home/leon/git/swp-report/iMX6_Platform_SDK/output/mx6dq/lib/libsdk.a(imx6dq_gpio_map.o)
 .debug_info    0x0002eda6     0x1f32 /home/leon/git/swp-report/iMX6_Platform_SDK/output/mx6dq/lib/libsdk.a(hdmi_tx.o)
 .debug_info    0x00030cd8      0xf27 /home/leon/git/swp-report/iMX6_Platform_SDK/output/mx6dq/lib/libsdk.a(hdmi_tx_audio.o)
 .debug_info    0x00031bff      0xcb3 /home/leon/git/swp-report/iMX6_Platform_SDK/output/mx6dq/lib/libsdk.a(hdmi_tx_phy.o)
 .debug_info    0x000328b2      0xe21 /home/leon/git/swp-report/iMX6_Platform_SDK/output/mx6dq/lib/libsdk.a(imx_i2c.o)
 .debug_info    0x000336d3      0x698 /home/leon/git/swp-report/iMX6_Platform_SDK/output/mx6dq/lib/libsdk.a(ips_disp_panel.o)
 .debug_info    0x00033d6b      0xba2 /home/leon/git/swp-report/iMX6_Platform_SDK/output/mx6dq/lib/libsdk.a(ipu_common.o)
 .debug_info    0x0003490d      0x33a /home/leon/git/swp-report/iMX6_Platform_SDK/output/mx6dq/lib/libsdk.a(ipu_csi.o)
 .debug_info    0x00034c47      0x51a /home/leon/git/swp-report/iMX6_Platform_SDK/output/mx6dq/lib/libsdk.a(ipu_dc.o)
 .debug_info    0x00035161      0x74d /home/leon/git/swp-report/iMX6_Platform_SDK/output/mx6dq/lib/libsdk.a(ipu_di.o)
 .debug_info    0x000358ae      0x1c6 /home/leon/git/swp-report/iMX6_Platform_SDK/output/mx6dq/lib/libsdk.a(ipu_dmfc.o)
 .debug_info    0x00035a74      0x22b /home/leon/git/swp-report/iMX6_Platform_SDK/output/mx6dq/lib/libsdk.a(ipu_dp.o)
 .debug_info    0x00035c9f     0x15fd /home/leon/git/swp-report/iMX6_Platform_SDK/output/mx6dq/lib/libsdk.a(ipu_idmac.o)
 .debug_info    0x0003729c      0x7bd /home/leon/git/swp-report/iMX6_Platform_SDK/output/mx6dq/lib/libsdk.a(ipu_vdi.o)
 .debug_info    0x00037a59      0x45c /home/leon/git/swp-report/iMX6_Platform_SDK/output/mx6dq/lib/libsdk.a(ldb.o)
 .debug_info    0x00037eb5      0x4c9 /home/leon/git/swp-report/iMX6_Platform_SDK/output/mx6dq/lib/libsdk.a(ocotp.o)
 .debug_info    0x0003837e     0x2bdf /home/leon/git/swp-report/iMX6_Platform_SDK/output/mx6dq/lib/libsdk.a(sata.o)
 .debug_info    0x0003af5d      0x70d /home/leon/git/swp-report/iMX6_Platform_SDK/output/mx6dq/lib/libsdk.a(ecspi.o)
 .debug_info    0x0003b66a      0x319 /home/leon/git/swp-report/iMX6_Platform_SDK/output/mx6dq/lib/libsdk.a(timer.o)
 .debug_info    0x0003b983     0x11b6 /home/leon/git/swp-report/iMX6_Platform_SDK/output/mx6dq/lib/libsdk.a(imx_uart.o)
 .debug_info    0x0003cb39     0x130c /home/leon/git/swp-report/iMX6_Platform_SDK/output/mx6dq/lib/libsdk.a(usb_common.o)
 .debug_info    0x0003de45     0x1d3c /home/leon/git/swp-report/iMX6_Platform_SDK/output/mx6dq/lib/libsdk.a(usbh_drv.o)
 .debug_info    0x0003fb81      0xf19 /home/leon/git/swp-report/iMX6_Platform_SDK/output/mx6dq/lib/libsdk.a(usdhc.o)
 .debug_info    0x00040a9a     0x1b51 /home/leon/git/swp-report/iMX6_Platform_SDK/output/mx6dq/lib/libsdk.a(usdhc_host.o)
 .debug_info    0x000425eb      0x9c7 /home/leon/git/swp-report/iMX6_Platform_SDK/output/mx6dq/lib/libsdk.a(usdhc_mmc.o)
 .debug_info    0x00042fb2      0x680 /home/leon/git/swp-report/iMX6_Platform_SDK/output/mx6dq/lib/libsdk.a(usdhc_sd.o)
 .debug_info    0x00043632      0x5b0 /home/leon/git/swp-report/iMX6_Platform_SDK/output/mx6dq/lib/libsdk.a(adv7180.o)
 .debug_info    0x00043be2      0x4cd /home/leon/git/swp-report/iMX6_Platform_SDK/output/mx6dq/lib/libsdk.a(armv7_cache.o)
 .debug_info    0x000440af      0x476 /home/leon/git/swp-report/iMX6_Platform_SDK/output/mx6dq/lib/libsdk.a(camera_profile.o)
 .debug_info    0x00044525      0x34b /home/leon/git/swp-report/iMX6_Platform_SDK/output/mx6dq/lib/libsdk.a(hdmi_common.o)
 .debug_info    0x00044870      0x7df /home/leon/git/swp-report/iMX6_Platform_SDK/output/mx6dq/lib/libsdk.a(ipu_ic.o)
 .debug_info    0x0004504f      0x9b7 /home/leon/git/swp-report/iMX6_Platform_SDK/output/mx6dq/lib/libsdk.a(epit.o)
 .debug_info    0x00045a06      0x5e4 /home/leon/git/swp-report/iMX6_Platform_SDK/output/mx6dq/lib/libsdk.a(mx6x_usb.o)
 .debug_info    0x00045fea      0x234 /home/leon/git/swp-report/iMX6_Platform_SDK/output/mx6dq/lib/libsdk.a(abort_handler.o)
 .debug_info    0x0004621e      0x308 /home/leon/git/swp-report/iMX6_Platform_SDK/output/mx6dq/lib/libboard_sabre_ai_rev_a.a(board_audio.o)
 .debug_info    0x00046526      0x664 /home/leon/git/swp-report/iMX6_Platform_SDK/output/mx6dq/lib/libboard_sabre_ai_rev_a.a(board_buttons.o)
 .debug_info    0x00046b8a     0x19ef /home/leon/git/swp-report/iMX6_Platform_SDK/output/mx6dq/lib/libboard_sabre_ai_rev_a.a(board_camera.o)
 .debug_info    0x00048579      0x612 /home/leon/git/swp-report/iMX6_Platform_SDK/output/mx6dq/lib/libboard_sabre_ai_rev_a.a(board_display.o)
 .debug_info    0x00048b8b      0xc38 /home/leon/git/swp-report/iMX6_Platform_SDK/output/mx6dq/lib/libboard_sabre_ai_rev_a.a(board_hdmi.o)
 .debug_info    0x000497c3      0x1d2 /home/leon/git/swp-report/iMX6_Platform_SDK/output/mx6dq/lib/libboard_sabre_ai_rev_a.a(board_i2c.o)
 .debug_info    0x00049995      0x233 /home/leon/git/swp-report/iMX6_Platform_SDK/output/mx6dq/lib/libboard_sabre_ai_rev_a.a(board_io_expanders.o)
 .debug_info    0x00049bc8      0x54e /home/leon/git/swp-report/iMX6_Platform_SDK/output/mx6dq/lib/libboard_sabre_ai_rev_a.a(board_mipi.o)
 .debug_info    0x0004a116      0x127 /home/leon/git/swp-report/iMX6_Platform_SDK/output/mx6dq/lib/libboard_sabre_ai_rev_a.a(board_network.o)
 .debug_info    0x0004a23d      0x3a8 /home/leon/git/swp-report/iMX6_Platform_SDK/output/mx6dq/lib/libboard_sabre_ai_rev_a.a(board_sata.o)
 .debug_info    0x0004a5e5      0x193 /home/leon/git/swp-report/iMX6_Platform_SDK/output/mx6dq/lib/libboard_sabre_ai_rev_a.a(board_usb.o)
 .debug_info    0x0004a778      0x321 /home/leon/git/swp-report/iMX6_Platform_SDK/output/mx6dq/lib/libboard_sabre_ai_rev_a.a(board_usdhc.o)
 .debug_info    0x0004aa99       0xa1 /home/leon/git/swp-report/iMX6_Platform_SDK/output/mx6dq/lib/libboard_sabre_ai_rev_a.a(hardware_modules.o)
 .debug_info    0x0004ab3a       0xe9 /home/leon/git/swp-report/iMX6_Platform_SDK/output/mx6dq/lib/libboard_sabre_ai_rev_a.a(dcd.o)
 .debug_info    0x0004ac23      0xc53 /home/leon/git/swp-report/iMX6_Platform_SDK/output/mx6dq/lib/libboard_sabre_ai_rev_a.a(audmux_iomux_config.o)
 .debug_info    0x0004b876       0xcf /home/leon/git/swp-report/iMX6_Platform_SDK/output/mx6dq/lib/libboard_sabre_ai_rev_a.a(ecspi_iomux_config.o)
 .debug_info    0x0004b945     0x44ed /home/leon/git/swp-report/iMX6_Platform_SDK/output/mx6dq/lib/libboard_sabre_ai_rev_a.a(eim_iomux_config.o)
 .debug_info    0x0004fe32     0x1c57 /home/leon/git/swp-report/iMX6_Platform_SDK/output/mx6dq/lib/libboard_sabre_ai_rev_a.a(enet_iomux_config.o)
 .debug_info    0x00051a89     0x1467 /home/leon/git/swp-report/iMX6_Platform_SDK/output/mx6dq/lib/libboard_sabre_ai_rev_a.a(esai_iomux_config.o)
 .debug_info    0x00052ef0      0x487 /home/leon/git/swp-report/iMX6_Platform_SDK/output/mx6dq/lib/libboard_sabre_ai_rev_a.a(i2c3_iomux_config.o)
 .debug_info    0x00053377       0xcf /home/leon/git/swp-report/iMX6_Platform_SDK/output/mx6dq/lib/libboard_sabre_ai_rev_a.a(i2c_iomux_config.o)
 .debug_info    0x00053446      0x350 /home/leon/git/swp-report/iMX6_Platform_SDK/output/mx6dq/lib/libboard_sabre_ai_rev_a.a(iomux_config.o)
 .debug_info    0x00053796     0x42bb /home/leon/git/swp-report/iMX6_Platform_SDK/output/mx6dq/lib/libboard_sabre_ai_rev_a.a(ipu1_iomux_config.o)
 .debug_info    0x00057a51       0xcf /home/leon/git/swp-report/iMX6_Platform_SDK/output/mx6dq/lib/libboard_sabre_ai_rev_a.a(ipu_iomux_config.o)
 .debug_info    0x00057b20      0x67b /home/leon/git/swp-report/iMX6_Platform_SDK/output/mx6dq/lib/libboard_sabre_ai_rev_a.a(mlb_iomux_config.o)
 .debug_info    0x0005819b     0x41e3 /home/leon/git/swp-report/iMX6_Platform_SDK/output/mx6dq/lib/libboard_sabre_ai_rev_a.a(mmdc_iomux_config.o)
 .debug_info    0x0005c37e      0x205 /home/leon/git/swp-report/iMX6_Platform_SDK/output/mx6dq/lib/libboard_sabre_ai_rev_a.a(pwm3_iomux_config.o)
 .debug_info    0x0005c583      0x205 /home/leon/git/swp-report/iMX6_Platform_SDK/output/mx6dq/lib/libboard_sabre_ai_rev_a.a(pwm4_iomux_config.o)
 .debug_info    0x0005c788      0x72b /home/leon/git/swp-report/iMX6_Platform_SDK/output/mx6dq/lib/libboard_sabre_ai_rev_a.a(sjc_iomux_config.o)
 .debug_info    0x0005ceb3      0x273 /home/leon/git/swp-report/iMX6_Platform_SDK/output/mx6dq/lib/libboard_sabre_ai_rev_a.a(spdif_iomux_config.o)
 .debug_info    0x0005d126      0x7d3 /home/leon/git/swp-report/iMX6_Platform_SDK/output/mx6dq/lib/libboard_sabre_ai_rev_a.a(uart2_iomux_config.o)
 .debug_info    0x0005d8f9      0x793 /home/leon/git/swp-report/iMX6_Platform_SDK/output/mx6dq/lib/libboard_sabre_ai_rev_a.a(uart3_iomux_config.o)
 .debug_info    0x0005e08c      0x419 /home/leon/git/swp-report/iMX6_Platform_SDK/output/mx6dq/lib/libboard_sabre_ai_rev_a.a(uart4_iomux_config.o)
 .debug_info    0x0005e4a5       0xcf /home/leon/git/swp-report/iMX6_Platform_SDK/output/mx6dq/lib/libboard_sabre_ai_rev_a.a(uart_iomux_config.o)
 .debug_info    0x0005e574     0x1281 /home/leon/git/swp-report/iMX6_Platform_SDK/output/mx6dq/lib/libboard_sabre_ai_rev_a.a(usdhc1_iomux_config.o)
 .debug_info    0x0005f7f5     0x1427 /home/leon/git/swp-report/iMX6_Platform_SDK/output/mx6dq/lib/libboard_sabre_ai_rev_a.a(usdhc3_iomux_config.o)
 .debug_info    0x00060c1c       0xcf /home/leon/git/swp-report/iMX6_Platform_SDK/output/mx6dq/lib/libboard_sabre_ai_rev_a.a(usdhc_iomux_config.o)
 .debug_info    0x00060ceb      0x205 /home/leon/git/swp-report/iMX6_Platform_SDK/output/mx6dq/lib/libboard_sabre_ai_rev_a.a(wdog1_iomux_config.o)
 .debug_info    0x00060ef0      0x205 /home/leon/git/swp-report/iMX6_Platform_SDK/output/mx6dq/lib/libboard_sabre_ai_rev_a.a(ccm_iomux_config.o)
 .debug_info    0x000610f5      0x9d5 /home/leon/git/swp-report/iMX6_Platform_SDK/output/mx6dq/lib/libboard_sabre_ai_rev_a.a(ecspi1_iomux_config.o)
 .debug_info    0x00061aca      0x419 /home/leon/git/swp-report/iMX6_Platform_SDK/output/mx6dq/lib/libboard_sabre_ai_rev_a.a(flexcan1_iomux_config.o)
 .debug_info    0x00061ee3      0x419 /home/leon/git/swp-report/iMX6_Platform_SDK/output/mx6dq/lib/libboard_sabre_ai_rev_a.a(flexcan2_iomux_config.o)
 .debug_info    0x000622fc      0xd0f /home/leon/git/swp-report/iMX6_Platform_SDK/output/mx6dq/lib/libboard_sabre_ai_rev_a.a(gpio1_iomux_config.o)
 .debug_info    0x0006300b      0xb69 /home/leon/git/swp-report/iMX6_Platform_SDK/output/mx6dq/lib/libboard_sabre_ai_rev_a.a(gpio2_iomux_config.o)
 .debug_info    0x00063b74      0x205 /home/leon/git/swp-report/iMX6_Platform_SDK/output/mx6dq/lib/libboard_sabre_ai_rev_a.a(gpio4_iomux_config.o)
 .debug_info    0x00063d79      0x81d /home/leon/git/swp-report/iMX6_Platform_SDK/output/mx6dq/lib/libboard_sabre_ai_rev_a.a(gpio5_iomux_config.o)
 .debug_info    0x00064596      0x38b /home/leon/git/swp-report/iMX6_Platform_SDK/output/mx6dq/lib/libboard_sabre_ai_rev_a.a(gpio6_iomux_config.o)
 .debug_info    0x00064921     0x1c65 /home/leon/git/swp-report/iMX6_Platform_SDK/output/mx6dq/lib/libboard_sabre_ai_rev_a.a(gpmi_iomux_config.o)
 .debug_info    0x00066586      0x467 /home/leon/git/swp-report/iMX6_Platform_SDK/output/mx6dq/lib/libboard_sabre_ai_rev_a.a(i2c2_iomux_config.o)
 .debug_info    0x000669ed      0x804 /home/leon/git/swp-report/iMX6_Platform_SDK/output/mx6dq/lib/libsdk.a(runtime_support.o)

.debug_abbrev   0x00000000     0xdf71
 .debug_abbrev  0x00000000       0xe6 /home/leon/git/swp-report/iMX6_Platform_SDK/output/mx6dq/obds/sabre_ai_rev_a/obj/apps/common/ivt.o
 .debug_abbrev  0x000000e6       0x89 /home/leon/git/swp-report/iMX6_Platform_SDK/output/mx6dq/obds/sabre_ai_rev_a/obj/apps/common/platform_init.o
 .debug_abbrev  0x0000016f       0xa1 /home/leon/git/swp-report/iMX6_Platform_SDK/output/mx6dq/obds/sabre_ai_rev_a/obj/apps/common/print_clock_info.o
 .debug_abbrev  0x00000210       0xcf /home/leon/git/swp-report/iMX6_Platform_SDK/output/mx6dq/obds/sabre_ai_rev_a/obj/apps/common/print_version.o
 .debug_abbrev  0x000002df      0x213 /home/leon/git/swp-report/iMX6_Platform_SDK/output/mx6dq/obds/sabre_ai_rev_a/obj/apps/obds/src/obds.o
 .debug_abbrev  0x000004f2       0x80 /home/leon/git/swp-report/iMX6_Platform_SDK/output/mx6dq/obds/sabre_ai_rev_a/obj/apps/obds/src/obds_utils.o
 .debug_abbrev  0x00000572      0x211 /home/leon/git/swp-report/iMX6_Platform_SDK/output/mx6dq/obds/sabre_ai_rev_a/obj/apps/obds/src/tests/android_buttons_test.o
 .debug_abbrev  0x00000783      0x1d6 /home/leon/git/swp-report/iMX6_Platform_SDK/output/mx6dq/obds/sabre_ai_rev_a/obj/apps/obds/src/tests/audio_esai_test.o
 .debug_abbrev  0x00000959      0x1d2 /home/leon/git/swp-report/iMX6_Platform_SDK/output/mx6dq/obds/sabre_ai_rev_a/obj/apps/obds/src/tests/audio_ssi_test.o
 .debug_abbrev  0x00000b2b      0x18f /home/leon/git/swp-report/iMX6_Platform_SDK/output/mx6dq/obds/sabre_ai_rev_a/obj/apps/obds/src/tests/ddr_test.o
 .debug_abbrev  0x00000cba       0xd9 /home/leon/git/swp-report/iMX6_Platform_SDK/output/mx6dq/obds/sabre_ai_rev_a/obj/apps/obds/src/tests/deserializer_ds90ur124.o
 .debug_abbrev  0x00000d93      0x21c /home/leon/git/swp-report/iMX6_Platform_SDK/output/mx6dq/obds/sabre_ai_rev_a/obj/apps/obds/src/tests/display_test.o
 .debug_abbrev  0x00000faf      0x299 /home/leon/git/swp-report/iMX6_Platform_SDK/output/mx6dq/obds/sabre_ai_rev_a/obj/apps/obds/src/tests/enet_mx6dldq_test.o
 .debug_abbrev  0x00001248       0xad /home/leon/git/swp-report/iMX6_Platform_SDK/output/mx6dq/obds/sabre_ai_rev_a/obj/apps/obds/src/tests/flexcan_test.o
 .debug_abbrev  0x000012f5      0x11c /home/leon/git/swp-report/iMX6_Platform_SDK/output/mx6dq/obds/sabre_ai_rev_a/obj/apps/obds/src/tests/fm_tuner_si476x_test.o
 .debug_abbrev  0x00001411      0x1eb /home/leon/git/swp-report/iMX6_Platform_SDK/output/mx6dq/obds/sabre_ai_rev_a/obj/apps/obds/src/tests/gpio_led.o
 .debug_abbrev  0x000015fc       0x9c /home/leon/git/swp-report/iMX6_Platform_SDK/output/mx6dq/obds/sabre_ai_rev_a/obj/apps/obds/src/tests/gps_test.o
 .debug_abbrev  0x00001698      0x1f0 /home/leon/git/swp-report/iMX6_Platform_SDK/output/mx6dq/obds/sabre_ai_rev_a/obj/apps/obds/src/tests/i2c_check_light_sensor_isl29023.o
 .debug_abbrev  0x00001888      0x13c /home/leon/git/swp-report/iMX6_Platform_SDK/output/mx6dq/obds/sabre_ai_rev_a/obj/apps/obds/src/tests/i2c_device_barometer_ppl3115.o
 .debug_abbrev  0x000019c4      0x12d /home/leon/git/swp-report/iMX6_Platform_SDK/output/mx6dq/obds/sabre_ai_rev_a/obj/apps/obds/src/tests/i2c_device_check_cs42888.o
 .debug_abbrev  0x00001af1      0x115 /home/leon/git/swp-report/iMX6_Platform_SDK/output/mx6dq/obds/sabre_ai_rev_a/obj/apps/obds/src/tests/i2c_device_digital_compass_mag3110.o
 .debug_abbrev  0x00001c06      0x115 /home/leon/git/swp-report/iMX6_Platform_SDK/output/mx6dq/obds/sabre_ai_rev_a/obj/apps/obds/src/tests/i2c_device_digital_compass_mag3112.o
 .debug_abbrev  0x00001d1b      0x1ff /home/leon/git/swp-report/iMX6_Platform_SDK/output/mx6dq/obds/sabre_ai_rev_a/obj/apps/obds/src/tests/i2c_device_id_check_mma8450.o
 .debug_abbrev  0x00001f1a      0x1ff /home/leon/git/swp-report/iMX6_Platform_SDK/output/mx6dq/obds/sabre_ai_rev_a/obj/apps/obds/src/tests/i2c_device_id_check_mma8451.o
 .debug_abbrev  0x00002119      0x1f6 /home/leon/git/swp-report/iMX6_Platform_SDK/output/mx6dq/obds/sabre_ai_rev_a/obj/apps/obds/src/tests/i2c_device_id_check_p1003_tsc.o
 .debug_abbrev  0x0000230f      0x154 /home/leon/git/swp-report/iMX6_Platform_SDK/output/mx6dq/obds/sabre_ai_rev_a/obj/apps/obds/src/tests/i2c_device_temp_sensor_emc1046.o
 .debug_abbrev  0x00002463      0x122 /home/leon/git/swp-report/iMX6_Platform_SDK/output/mx6dq/obds/sabre_ai_rev_a/obj/apps/obds/src/tests/i2c_device_zigbee_mc1323.o
 .debug_abbrev  0x00002585      0x119 /home/leon/git/swp-report/iMX6_Platform_SDK/output/mx6dq/obds/sabre_ai_rev_a/obj/apps/obds/src/tests/i2c_eeprom_at24cxx_test.o
 .debug_abbrev  0x0000269e      0x184 /home/leon/git/swp-report/iMX6_Platform_SDK/output/mx6dq/obds/sabre_ai_rev_a/obj/apps/obds/src/tests/imx_spi_nor_test.o
 .debug_abbrev  0x00002822      0x12d /home/leon/git/swp-report/iMX6_Platform_SDK/output/mx6dq/obds/sabre_ai_rev_a/obj/apps/obds/src/tests/mlb_os81050.o
 .debug_abbrev  0x0000294f       0xbe /home/leon/git/swp-report/iMX6_Platform_SDK/output/mx6dq/obds/sabre_ai_rev_a/obj/apps/obds/src/tests/mmcsd_test.o
 .debug_abbrev  0x00002a0d      0x11b /home/leon/git/swp-report/iMX6_Platform_SDK/output/mx6dq/obds/sabre_ai_rev_a/obj/apps/obds/src/tests/pmic_da9053.o
 .debug_abbrev  0x00002b28      0x251 /home/leon/git/swp-report/iMX6_Platform_SDK/output/mx6dq/obds/sabre_ai_rev_a/obj/apps/obds/src/tests/pmic_lt3589.o
 .debug_abbrev  0x00002d79      0x14b /home/leon/git/swp-report/iMX6_Platform_SDK/output/mx6dq/obds/sabre_ai_rev_a/obj/apps/obds/src/tests/pmic_max17135.o
 .debug_abbrev  0x00002ec4      0x117 /home/leon/git/swp-report/iMX6_Platform_SDK/output/mx6dq/obds/sabre_ai_rev_a/obj/apps/obds/src/tests/pmic_mc13892.o
 .debug_abbrev  0x00002fdb      0x161 /home/leon/git/swp-report/iMX6_Platform_SDK/output/mx6dq/obds/sabre_ai_rev_a/obj/apps/obds/src/tests/program_board_id.o
 .debug_abbrev  0x0000313c      0x265 /home/leon/git/swp-report/iMX6_Platform_SDK/output/mx6dq/obds/sabre_ai_rev_a/obj/apps/obds/src/tests/program_mac_address.o
 .debug_abbrev  0x000033a1      0x12f /home/leon/git/swp-report/iMX6_Platform_SDK/output/mx6dq/obds/sabre_ai_rev_a/obj/apps/obds/src/tests/snvs_srtc_test.o
 .debug_abbrev  0x000034d0      0x21b /home/leon/git/swp-report/iMX6_Platform_SDK/output/mx6dq/obds/sabre_ai_rev_a/obj/apps/obds/src/tests/touch_screen.o
 .debug_abbrev  0x000036eb      0x26c /home/leon/git/swp-report/iMX6_Platform_SDK/output/mx6dq/obds/sabre_ai_rev_a/obj/apps/obds/src/tests/touch_screen_max11801.o
 .debug_abbrev  0x00003957      0x145 /home/leon/git/swp-report/iMX6_Platform_SDK/output/mx6dq/obds/sabre_ai_rev_a/obj/apps/obds/src/tests/usb_tests_obds.o
 .debug_abbrev  0x00003a9c       0xad /home/leon/git/swp-report/iMX6_Platform_SDK/output/mx6dq/obds/sabre_ai_rev_a/obj/apps/obds/src/tests/video_dec_ARD_MB_reset_button.o
 .debug_abbrev  0x00003b49       0xad /home/leon/git/swp-report/iMX6_Platform_SDK/output/mx6dq/obds/sabre_ai_rev_a/obj/apps/obds/src/tests/video_dec_ARD_MBrst_from_cpu_expander.o
 .debug_abbrev  0x00003bf6      0x20c /home/leon/git/swp-report/iMX6_Platform_SDK/output/mx6dq/obds/sabre_ai_rev_a/obj/apps/obds/src/tests/video_dec_adv7180.o
 .debug_abbrev  0x00003e02       0xd4 /home/leon/git/swp-report/iMX6_Platform_SDK/output/mx6dq/obds/sabre_ai_rev_a/obj/apps/obds/src/tests/weim_nor_flash_test.o
 .debug_abbrev  0x00003ed6      0x102 /home/leon/git/swp-report/iMX6_Platform_SDK/output/mx6dq/obds/sabre_ai_rev_a/obj/sdk/common/ioexpander/test/max7310_test.o
 .debug_abbrev  0x00003fd8      0x126 /home/leon/git/swp-report/iMX6_Platform_SDK/output/mx6dq/obds/sabre_ai_rev_a/obj/sdk/common/pmic/pfuse/pf0100.o
 .debug_abbrev  0x000040fe      0x133 /home/leon/git/swp-report/iMX6_Platform_SDK/output/mx6dq/obds/sabre_ai_rev_a/obj/sdk/drivers/audio/src/snd_card.o
 .debug_abbrev  0x00004231      0x1e2 /home/leon/git/swp-report/iMX6_Platform_SDK/output/mx6dq/obds/sabre_ai_rev_a/obj/sdk/drivers/camera/test/adv7180_capture.o
 .debug_abbrev  0x00004413      0x1d4 /home/leon/git/swp-report/iMX6_Platform_SDK/output/mx6dq/obds/sabre_ai_rev_a/obj/sdk/drivers/camera/test/camera_test.o
 .debug_abbrev  0x000045e7      0x1c1 /home/leon/git/swp-report/iMX6_Platform_SDK/output/mx6dq/obds/sabre_ai_rev_a/obj/sdk/drivers/camera/test/csi_test_mode.o
 .debug_abbrev  0x000047a8      0x1cc /home/leon/git/swp-report/iMX6_Platform_SDK/output/mx6dq/obds/sabre_ai_rev_a/obj/sdk/drivers/camera/test/sensor_capture.o
 .debug_abbrev  0x00004974      0x15c /home/leon/git/swp-report/iMX6_Platform_SDK/output/mx6dq/obds/sabre_ai_rev_a/obj/sdk/drivers/hdmi/test/hdmi_test.o
 .debug_abbrev  0x00004ad0      0x117 /home/leon/git/swp-report/iMX6_Platform_SDK/output/mx6dq/obds/sabre_ai_rev_a/obj/sdk/drivers/hdmi/test/init_dma_data.o
 .debug_abbrev  0x00004be7      0x1fe /home/leon/git/swp-report/iMX6_Platform_SDK/output/mx6dq/obds/sabre_ai_rev_a/obj/sdk/drivers/ipu/test/ips_display.o
 .debug_abbrev  0x00004de5      0x10d /home/leon/git/swp-report/iMX6_Platform_SDK/output/mx6dq/obds/sabre_ai_rev_a/obj/sdk/drivers/ipu/test/ipu_image.o
 .debug_abbrev  0x00004ef2      0x227 /home/leon/git/swp-report/iMX6_Platform_SDK/output/mx6dq/obds/sabre_ai_rev_a/obj/sdk/drivers/sata/test/sata_test.o
 .debug_abbrev  0x00005119      0x188 /home/leon/git/swp-report/iMX6_Platform_SDK/output/mx6dq/obds/sabre_ai_rev_a/obj/sdk/drivers/spi/test/imx_spi_nor_atmel.o
 .debug_abbrev  0x000052a1      0x15b /home/leon/git/swp-report/iMX6_Platform_SDK/output/mx6dq/obds/sabre_ai_rev_a/obj/sdk/drivers/spi/test/spi_nor_numonyx.o
 .debug_abbrev  0x000053fc      0x1db /home/leon/git/swp-report/iMX6_Platform_SDK/output/mx6dq/obds/sabre_ai_rev_a/obj/sdk/drivers/uart/test/uart_test.o
 .debug_abbrev  0x000055d7      0x1b7 /home/leon/git/swp-report/iMX6_Platform_SDK/output/mx6dq/obds/sabre_ai_rev_a/obj/sdk/drivers/usb/test/usb0_host_test.o
 .debug_abbrev  0x0000578e      0x129 /home/leon/git/swp-report/iMX6_Platform_SDK/output/mx6dq/obds/sabre_ai_rev_a/obj/sdk/drivers/usb/test/usb0_host_testmodes_test.o
 .debug_abbrev  0x000058b7      0x243 /home/leon/git/swp-report/iMX6_Platform_SDK/output/mx6dq/obds/sabre_ai_rev_a/obj/sdk/drivers/usdhc/test/usdhc_test.o
 .debug_abbrev  0x00005afa       0xf9 /home/leon/git/swp-report/iMX6_Platform_SDK/output/mx6dq/lib/libsdk.a(max7310.o)
 .debug_abbrev  0x00005bf3      0x1b1 /home/leon/git/swp-report/iMX6_Platform_SDK/output/mx6dq/lib/libsdk.a(ccm_pll.o)
 .debug_abbrev  0x00005da4      0x179 /home/leon/git/swp-report/iMX6_Platform_SDK/output/mx6dq/lib/libsdk.a(gic.o)
 .debug_abbrev  0x00005f1d      0x11a /home/leon/git/swp-report/iMX6_Platform_SDK/output/mx6dq/lib/libsdk.a(interrupt.o)
 .debug_abbrev  0x00006037      0x172 /home/leon/git/swp-report/iMX6_Platform_SDK/output/mx6dq/lib/libsdk.a(mmu.o)
 .debug_abbrev  0x000061a9      0x2b3 /home/leon/git/swp-report/iMX6_Platform_SDK/output/mx6dq/lib/libsdk.a(menu.o)
 .debug_abbrev  0x0000645c       0x43 /home/leon/git/swp-report/iMX6_Platform_SDK/output/mx6dq/lib/libsdk.a(sdk_version.o)
 .debug_abbrev  0x0000649f      0x276 /home/leon/git/swp-report/iMX6_Platform_SDK/output/mx6dq/lib/libsdk.a(system_util.o)
 .debug_abbrev  0x00006715       0xd0 /home/leon/git/swp-report/iMX6_Platform_SDK/output/mx6dq/lib/libsdk.a(text_color.o)
 .debug_abbrev  0x000067e5      0x13e /home/leon/git/swp-report/iMX6_Platform_SDK/output/mx6dq/lib/libsdk.a(cs42888.o)
 .debug_abbrev  0x00006923      0x267 /home/leon/git/swp-report/iMX6_Platform_SDK/output/mx6dq/lib/libsdk.a(imx-ssi.o)
 .debug_abbrev  0x00006b8a      0x267 /home/leon/git/swp-report/iMX6_Platform_SDK/output/mx6dq/lib/libsdk.a(imx_esai.o)
 .debug_abbrev  0x00006df1      0x22e /home/leon/git/swp-report/iMX6_Platform_SDK/output/mx6dq/lib/libsdk.a(imx_spdif.o)
 .debug_abbrev  0x0000701f      0x1df /home/leon/git/swp-report/iMX6_Platform_SDK/output/mx6dq/lib/libsdk.a(sgtl5000.o)
 .debug_abbrev  0x000071fe      0x1aa /home/leon/git/swp-report/iMX6_Platform_SDK/output/mx6dq/lib/libsdk.a(wm8958_dac.o)
 .debug_abbrev  0x000073a8      0x1c4 /home/leon/git/swp-report/iMX6_Platform_SDK/output/mx6dq/lib/libsdk.a(wm8962.o)
 .debug_abbrev  0x0000756c      0x13a /home/leon/git/swp-report/iMX6_Platform_SDK/output/mx6dq/lib/libsdk.a(board_id.o)
 .debug_abbrev  0x000076a6      0x19d /home/leon/git/swp-report/iMX6_Platform_SDK/output/mx6dq/lib/libsdk.a(smd_sensor.o)
 .debug_abbrev  0x00007843      0x2d8 /home/leon/git/swp-report/iMX6_Platform_SDK/output/mx6dq/lib/libsdk.a(enet_drv.o)
 .debug_abbrev  0x00007b1b      0x228 /home/leon/git/swp-report/iMX6_Platform_SDK/output/mx6dq/lib/libsdk.a(gpio.o)
 .debug_abbrev  0x00007d43       0x5b /home/leon/git/swp-report/iMX6_Platform_SDK/output/mx6dq/lib/libsdk.a(imx6dq_gpio_map.o)
 .debug_abbrev  0x00007d9e      0x1af /home/leon/git/swp-report/iMX6_Platform_SDK/output/mx6dq/lib/libsdk.a(hdmi_tx.o)
 .debug_abbrev  0x00007f4d      0x1c1 /home/leon/git/swp-report/iMX6_Platform_SDK/output/mx6dq/lib/libsdk.a(hdmi_tx_audio.o)
 .debug_abbrev  0x0000810e      0x180 /home/leon/git/swp-report/iMX6_Platform_SDK/output/mx6dq/lib/libsdk.a(hdmi_tx_phy.o)
 .debug_abbrev  0x0000828e      0x2c9 /home/leon/git/swp-report/iMX6_Platform_SDK/output/mx6dq/lib/libsdk.a(imx_i2c.o)
 .debug_abbrev  0x00008557      0x1ac /home/leon/git/swp-report/iMX6_Platform_SDK/output/mx6dq/lib/libsdk.a(ips_disp_panel.o)
 .debug_abbrev  0x00008703      0x212 /home/leon/git/swp-report/iMX6_Platform_SDK/output/mx6dq/lib/libsdk.a(ipu_common.o)
 .debug_abbrev  0x00008915       0xf9 /home/leon/git/swp-report/iMX6_Platform_SDK/output/mx6dq/lib/libsdk.a(ipu_csi.o)
 .debug_abbrev  0x00008a0e      0x164 /home/leon/git/swp-report/iMX6_Platform_SDK/output/mx6dq/lib/libsdk.a(ipu_dc.o)
 .debug_abbrev  0x00008b72      0x1ac /home/leon/git/swp-report/iMX6_Platform_SDK/output/mx6dq/lib/libsdk.a(ipu_di.o)
 .debug_abbrev  0x00008d1e       0x8e /home/leon/git/swp-report/iMX6_Platform_SDK/output/mx6dq/lib/libsdk.a(ipu_dmfc.o)
 .debug_abbrev  0x00008dac       0xc7 /home/leon/git/swp-report/iMX6_Platform_SDK/output/mx6dq/lib/libsdk.a(ipu_dp.o)
 .debug_abbrev  0x00008e73      0x20c /home/leon/git/swp-report/iMX6_Platform_SDK/output/mx6dq/lib/libsdk.a(ipu_idmac.o)
 .debug_abbrev  0x0000907f      0x161 /home/leon/git/swp-report/iMX6_Platform_SDK/output/mx6dq/lib/libsdk.a(ipu_vdi.o)
 .debug_abbrev  0x000091e0      0x144 /home/leon/git/swp-report/iMX6_Platform_SDK/output/mx6dq/lib/libsdk.a(ldb.o)
 .debug_abbrev  0x00009324      0x1ae /home/leon/git/swp-report/iMX6_Platform_SDK/output/mx6dq/lib/libsdk.a(ocotp.o)
 .debug_abbrev  0x000094d2      0x39f /home/leon/git/swp-report/iMX6_Platform_SDK/output/mx6dq/lib/libsdk.a(sata.o)
 .debug_abbrev  0x00009871      0x1f9 /home/leon/git/swp-report/iMX6_Platform_SDK/output/mx6dq/lib/libsdk.a(ecspi.o)
 .debug_abbrev  0x00009a6a      0x122 /home/leon/git/swp-report/iMX6_Platform_SDK/output/mx6dq/lib/libsdk.a(timer.o)
 .debug_abbrev  0x00009b8c      0x1e3 /home/leon/git/swp-report/iMX6_Platform_SDK/output/mx6dq/lib/libsdk.a(imx_uart.o)
 .debug_abbrev  0x00009d6f      0x223 /home/leon/git/swp-report/iMX6_Platform_SDK/output/mx6dq/lib/libsdk.a(usb_common.o)
 .debug_abbrev  0x00009f92      0x1c8 /home/leon/git/swp-report/iMX6_Platform_SDK/output/mx6dq/lib/libsdk.a(usbh_drv.o)
 .debug_abbrev  0x0000a15a      0x20c /home/leon/git/swp-report/iMX6_Platform_SDK/output/mx6dq/lib/libsdk.a(usdhc.o)
 .debug_abbrev  0x0000a366      0x296 /home/leon/git/swp-report/iMX6_Platform_SDK/output/mx6dq/lib/libsdk.a(usdhc_host.o)
 .debug_abbrev  0x0000a5fc      0x1ac /home/leon/git/swp-report/iMX6_Platform_SDK/output/mx6dq/lib/libsdk.a(usdhc_mmc.o)
 .debug_abbrev  0x0000a7a8      0x143 /home/leon/git/swp-report/iMX6_Platform_SDK/output/mx6dq/lib/libsdk.a(usdhc_sd.o)
 .debug_abbrev  0x0000a8eb      0x1f4 /home/leon/git/swp-report/iMX6_Platform_SDK/output/mx6dq/lib/libsdk.a(adv7180.o)
 .debug_abbrev  0x0000aadf      0x133 /home/leon/git/swp-report/iMX6_Platform_SDK/output/mx6dq/lib/libsdk.a(armv7_cache.o)
 .debug_abbrev  0x0000ac12       0xab /home/leon/git/swp-report/iMX6_Platform_SDK/output/mx6dq/lib/libsdk.a(camera_profile.o)
 .debug_abbrev  0x0000acbd       0xb9 /home/leon/git/swp-report/iMX6_Platform_SDK/output/mx6dq/lib/libsdk.a(hdmi_common.o)
 .debug_abbrev  0x0000ad76      0x171 /home/leon/git/swp-report/iMX6_Platform_SDK/output/mx6dq/lib/libsdk.a(ipu_ic.o)
 .debug_abbrev  0x0000aee7      0x194 /home/leon/git/swp-report/iMX6_Platform_SDK/output/mx6dq/lib/libsdk.a(epit.o)
 .debug_abbrev  0x0000b07b      0x155 /home/leon/git/swp-report/iMX6_Platform_SDK/output/mx6dq/lib/libsdk.a(mx6x_usb.o)
 .debug_abbrev  0x0000b1d0       0xc8 /home/leon/git/swp-report/iMX6_Platform_SDK/output/mx6dq/lib/libsdk.a(abort_handler.o)
 .debug_abbrev  0x0000b298       0xfc /home/leon/git/swp-report/iMX6_Platform_SDK/output/mx6dq/lib/libboard_sabre_ai_rev_a.a(board_audio.o)
 .debug_abbrev  0x0000b394      0x127 /home/leon/git/swp-report/iMX6_Platform_SDK/output/mx6dq/lib/libboard_sabre_ai_rev_a.a(board_buttons.o)
 .debug_abbrev  0x0000b4bb      0x175 /home/leon/git/swp-report/iMX6_Platform_SDK/output/mx6dq/lib/libboard_sabre_ai_rev_a.a(board_camera.o)
 .debug_abbrev  0x0000b630      0x13a /home/leon/git/swp-report/iMX6_Platform_SDK/output/mx6dq/lib/libboard_sabre_ai_rev_a.a(board_display.o)
 .debug_abbrev  0x0000b76a      0x152 /home/leon/git/swp-report/iMX6_Platform_SDK/output/mx6dq/lib/libboard_sabre_ai_rev_a.a(board_hdmi.o)
 .debug_abbrev  0x0000b8bc       0x69 /home/leon/git/swp-report/iMX6_Platform_SDK/output/mx6dq/lib/libboard_sabre_ai_rev_a.a(board_i2c.o)
 .debug_abbrev  0x0000b925       0xc8 /home/leon/git/swp-report/iMX6_Platform_SDK/output/mx6dq/lib/libboard_sabre_ai_rev_a.a(board_io_expanders.o)
 .debug_abbrev  0x0000b9ed      0x12b /home/leon/git/swp-report/iMX6_Platform_SDK/output/mx6dq/lib/libboard_sabre_ai_rev_a.a(board_mipi.o)
 .debug_abbrev  0x0000bb18       0x86 /home/leon/git/swp-report/iMX6_Platform_SDK/output/mx6dq/lib/libboard_sabre_ai_rev_a.a(board_network.o)
 .debug_abbrev  0x0000bb9e      0x10d /home/leon/git/swp-report/iMX6_Platform_SDK/output/mx6dq/lib/libboard_sabre_ai_rev_a.a(board_sata.o)
 .debug_abbrev  0x0000bcab       0xc0 /home/leon/git/swp-report/iMX6_Platform_SDK/output/mx6dq/lib/libboard_sabre_ai_rev_a.a(board_usb.o)
 .debug_abbrev  0x0000bd6b      0x11d /home/leon/git/swp-report/iMX6_Platform_SDK/output/mx6dq/lib/libboard_sabre_ai_rev_a.a(board_usdhc.o)
 .debug_abbrev  0x0000be88       0x44 /home/leon/git/swp-report/iMX6_Platform_SDK/output/mx6dq/lib/libboard_sabre_ai_rev_a.a(hardware_modules.o)
 .debug_abbrev  0x0000becc       0x75 /home/leon/git/swp-report/iMX6_Platform_SDK/output/mx6dq/lib/libboard_sabre_ai_rev_a.a(dcd.o)
 .debug_abbrev  0x0000bf41       0xf1 /home/leon/git/swp-report/iMX6_Platform_SDK/output/mx6dq/lib/libboard_sabre_ai_rev_a.a(audmux_iomux_config.o)
 .debug_abbrev  0x0000c032       0x79 /home/leon/git/swp-report/iMX6_Platform_SDK/output/mx6dq/lib/libboard_sabre_ai_rev_a.a(ecspi_iomux_config.o)
 .debug_abbrev  0x0000c0ab       0xa4 /home/leon/git/swp-report/iMX6_Platform_SDK/output/mx6dq/lib/libboard_sabre_ai_rev_a.a(eim_iomux_config.o)
 .debug_abbrev  0x0000c14f      0x106 /home/leon/git/swp-report/iMX6_Platform_SDK/output/mx6dq/lib/libboard_sabre_ai_rev_a.a(enet_iomux_config.o)
 .debug_abbrev  0x0000c255      0x106 /home/leon/git/swp-report/iMX6_Platform_SDK/output/mx6dq/lib/libboard_sabre_ai_rev_a.a(esai_iomux_config.o)
 .debug_abbrev  0x0000c35b       0xf1 /home/leon/git/swp-report/iMX6_Platform_SDK/output/mx6dq/lib/libboard_sabre_ai_rev_a.a(i2c3_iomux_config.o)
 .debug_abbrev  0x0000c44c       0x79 /home/leon/git/swp-report/iMX6_Platform_SDK/output/mx6dq/lib/libboard_sabre_ai_rev_a.a(i2c_iomux_config.o)
 .debug_abbrev  0x0000c4c5       0x42 /home/leon/git/swp-report/iMX6_Platform_SDK/output/mx6dq/lib/libboard_sabre_ai_rev_a.a(iomux_config.o)
 .debug_abbrev  0x0000c507      0x106 /home/leon/git/swp-report/iMX6_Platform_SDK/output/mx6dq/lib/libboard_sabre_ai_rev_a.a(ipu1_iomux_config.o)
 .debug_abbrev  0x0000c60d       0x79 /home/leon/git/swp-report/iMX6_Platform_SDK/output/mx6dq/lib/libboard_sabre_ai_rev_a.a(ipu_iomux_config.o)
 .debug_abbrev  0x0000c686      0x106 /home/leon/git/swp-report/iMX6_Platform_SDK/output/mx6dq/lib/libboard_sabre_ai_rev_a.a(mlb_iomux_config.o)
 .debug_abbrev  0x0000c78c      0x106 /home/leon/git/swp-report/iMX6_Platform_SDK/output/mx6dq/lib/libboard_sabre_ai_rev_a.a(mmdc_iomux_config.o)
 .debug_abbrev  0x0000c892       0xf1 /home/leon/git/swp-report/iMX6_Platform_SDK/output/mx6dq/lib/libboard_sabre_ai_rev_a.a(pwm3_iomux_config.o)
 .debug_abbrev  0x0000c983       0xf1 /home/leon/git/swp-report/iMX6_Platform_SDK/output/mx6dq/lib/libboard_sabre_ai_rev_a.a(pwm4_iomux_config.o)
 .debug_abbrev  0x0000ca74       0xa4 /home/leon/git/swp-report/iMX6_Platform_SDK/output/mx6dq/lib/libboard_sabre_ai_rev_a.a(sjc_iomux_config.o)
 .debug_abbrev  0x0000cb18       0xf1 /home/leon/git/swp-report/iMX6_Platform_SDK/output/mx6dq/lib/libboard_sabre_ai_rev_a.a(spdif_iomux_config.o)
 .debug_abbrev  0x0000cc09       0xf1 /home/leon/git/swp-report/iMX6_Platform_SDK/output/mx6dq/lib/libboard_sabre_ai_rev_a.a(uart2_iomux_config.o)
 .debug_abbrev  0x0000ccfa      0x106 /home/leon/git/swp-report/iMX6_Platform_SDK/output/mx6dq/lib/libboard_sabre_ai_rev_a.a(uart3_iomux_config.o)
 .debug_abbrev  0x0000ce00       0xf1 /home/leon/git/swp-report/iMX6_Platform_SDK/output/mx6dq/lib/libboard_sabre_ai_rev_a.a(uart4_iomux_config.o)
 .debug_abbrev  0x0000cef1       0x79 /home/leon/git/swp-report/iMX6_Platform_SDK/output/mx6dq/lib/libboard_sabre_ai_rev_a.a(uart_iomux_config.o)
 .debug_abbrev  0x0000cf6a       0xf1 /home/leon/git/swp-report/iMX6_Platform_SDK/output/mx6dq/lib/libboard_sabre_ai_rev_a.a(usdhc1_iomux_config.o)
 .debug_abbrev  0x0000d05b       0xf1 /home/leon/git/swp-report/iMX6_Platform_SDK/output/mx6dq/lib/libboard_sabre_ai_rev_a.a(usdhc3_iomux_config.o)
 .debug_abbrev  0x0000d14c       0x79 /home/leon/git/swp-report/iMX6_Platform_SDK/output/mx6dq/lib/libboard_sabre_ai_rev_a.a(usdhc_iomux_config.o)
 .debug_abbrev  0x0000d1c5       0xf1 /home/leon/git/swp-report/iMX6_Platform_SDK/output/mx6dq/lib/libboard_sabre_ai_rev_a.a(wdog1_iomux_config.o)
 .debug_abbrev  0x0000d2b6       0xf1 /home/leon/git/swp-report/iMX6_Platform_SDK/output/mx6dq/lib/libboard_sabre_ai_rev_a.a(ccm_iomux_config.o)
 .debug_abbrev  0x0000d3a7      0x106 /home/leon/git/swp-report/iMX6_Platform_SDK/output/mx6dq/lib/libboard_sabre_ai_rev_a.a(ecspi1_iomux_config.o)
 .debug_abbrev  0x0000d4ad       0xf1 /home/leon/git/swp-report/iMX6_Platform_SDK/output/mx6dq/lib/libboard_sabre_ai_rev_a.a(flexcan1_iomux_config.o)
 .debug_abbrev  0x0000d59e       0xf1 /home/leon/git/swp-report/iMX6_Platform_SDK/output/mx6dq/lib/libboard_sabre_ai_rev_a.a(flexcan2_iomux_config.o)
 .debug_abbrev  0x0000d68f      0x106 /home/leon/git/swp-report/iMX6_Platform_SDK/output/mx6dq/lib/libboard_sabre_ai_rev_a.a(gpio1_iomux_config.o)
 .debug_abbrev  0x0000d795      0x106 /home/leon/git/swp-report/iMX6_Platform_SDK/output/mx6dq/lib/libboard_sabre_ai_rev_a.a(gpio2_iomux_config.o)
 .debug_abbrev  0x0000d89b       0xf1 /home/leon/git/swp-report/iMX6_Platform_SDK/output/mx6dq/lib/libboard_sabre_ai_rev_a.a(gpio4_iomux_config.o)
 .debug_abbrev  0x0000d98c      0x106 /home/leon/git/swp-report/iMX6_Platform_SDK/output/mx6dq/lib/libboard_sabre_ai_rev_a.a(gpio5_iomux_config.o)
 .debug_abbrev  0x0000da92      0x106 /home/leon/git/swp-report/iMX6_Platform_SDK/output/mx6dq/lib/libboard_sabre_ai_rev_a.a(gpio6_iomux_config.o)
 .debug_abbrev  0x0000db98       0xf1 /home/leon/git/swp-report/iMX6_Platform_SDK/output/mx6dq/lib/libboard_sabre_ai_rev_a.a(gpmi_iomux_config.o)
 .debug_abbrev  0x0000dc89      0x106 /home/leon/git/swp-report/iMX6_Platform_SDK/output/mx6dq/lib/libboard_sabre_ai_rev_a.a(i2c2_iomux_config.o)
 .debug_abbrev  0x0000dd8f      0x1e2 /home/leon/git/swp-report/iMX6_Platform_SDK/output/mx6dq/lib/libsdk.a(runtime_support.o)

.debug_aranges  0x00000000     0x14a8
 .debug_aranges
                0x00000000       0x18 /home/leon/git/swp-report/iMX6_Platform_SDK/output/mx6dq/obds/sabre_ai_rev_a/obj/apps/common/ivt.o
 .debug_aranges
                0x00000018       0x20 /home/leon/git/swp-report/iMX6_Platform_SDK/output/mx6dq/obds/sabre_ai_rev_a/obj/apps/common/platform_init.o
 .debug_aranges
                0x00000038       0x20 /home/leon/git/swp-report/iMX6_Platform_SDK/output/mx6dq/obds/sabre_ai_rev_a/obj/apps/common/print_clock_info.o
 .debug_aranges
                0x00000058       0x20 /home/leon/git/swp-report/iMX6_Platform_SDK/output/mx6dq/obds/sabre_ai_rev_a/obj/apps/common/print_version.o
 .debug_aranges
                0x00000078       0x20 /home/leon/git/swp-report/iMX6_Platform_SDK/output/mx6dq/obds/sabre_ai_rev_a/obj/apps/obds/src/obds.o
 .debug_aranges
                0x00000098       0x20 /home/leon/git/swp-report/iMX6_Platform_SDK/output/mx6dq/obds/sabre_ai_rev_a/obj/apps/obds/src/obds_utils.o
 .debug_aranges
                0x000000b8       0x20 /home/leon/git/swp-report/iMX6_Platform_SDK/output/mx6dq/obds/sabre_ai_rev_a/obj/apps/obds/src/tests/android_buttons_test.o
 .debug_aranges
                0x000000d8       0x20 /home/leon/git/swp-report/iMX6_Platform_SDK/output/mx6dq/obds/sabre_ai_rev_a/obj/apps/obds/src/tests/audio_esai_test.o
 .debug_aranges
                0x000000f8       0x20 /home/leon/git/swp-report/iMX6_Platform_SDK/output/mx6dq/obds/sabre_ai_rev_a/obj/apps/obds/src/tests/audio_ssi_test.o
 .debug_aranges
                0x00000118       0x20 /home/leon/git/swp-report/iMX6_Platform_SDK/output/mx6dq/obds/sabre_ai_rev_a/obj/apps/obds/src/tests/ddr_test.o
 .debug_aranges
                0x00000138       0x20 /home/leon/git/swp-report/iMX6_Platform_SDK/output/mx6dq/obds/sabre_ai_rev_a/obj/apps/obds/src/tests/deserializer_ds90ur124.o
 .debug_aranges
                0x00000158       0x20 /home/leon/git/swp-report/iMX6_Platform_SDK/output/mx6dq/obds/sabre_ai_rev_a/obj/apps/obds/src/tests/display_test.o
 .debug_aranges
                0x00000178       0x20 /home/leon/git/swp-report/iMX6_Platform_SDK/output/mx6dq/obds/sabre_ai_rev_a/obj/apps/obds/src/tests/enet_mx6dldq_test.o
 .debug_aranges
                0x00000198       0x20 /home/leon/git/swp-report/iMX6_Platform_SDK/output/mx6dq/obds/sabre_ai_rev_a/obj/apps/obds/src/tests/flexcan_test.o
 .debug_aranges
                0x000001b8       0x20 /home/leon/git/swp-report/iMX6_Platform_SDK/output/mx6dq/obds/sabre_ai_rev_a/obj/apps/obds/src/tests/fm_tuner_si476x_test.o
 .debug_aranges
                0x000001d8       0x20 /home/leon/git/swp-report/iMX6_Platform_SDK/output/mx6dq/obds/sabre_ai_rev_a/obj/apps/obds/src/tests/gpio_led.o
 .debug_aranges
                0x000001f8       0x20 /home/leon/git/swp-report/iMX6_Platform_SDK/output/mx6dq/obds/sabre_ai_rev_a/obj/apps/obds/src/tests/gps_test.o
 .debug_aranges
                0x00000218       0x20 /home/leon/git/swp-report/iMX6_Platform_SDK/output/mx6dq/obds/sabre_ai_rev_a/obj/apps/obds/src/tests/i2c_check_light_sensor_isl29023.o
 .debug_aranges
                0x00000238       0x20 /home/leon/git/swp-report/iMX6_Platform_SDK/output/mx6dq/obds/sabre_ai_rev_a/obj/apps/obds/src/tests/i2c_device_barometer_ppl3115.o
 .debug_aranges
                0x00000258       0x20 /home/leon/git/swp-report/iMX6_Platform_SDK/output/mx6dq/obds/sabre_ai_rev_a/obj/apps/obds/src/tests/i2c_device_check_cs42888.o
 .debug_aranges
                0x00000278       0x20 /home/leon/git/swp-report/iMX6_Platform_SDK/output/mx6dq/obds/sabre_ai_rev_a/obj/apps/obds/src/tests/i2c_device_digital_compass_mag3110.o
 .debug_aranges
                0x00000298       0x20 /home/leon/git/swp-report/iMX6_Platform_SDK/output/mx6dq/obds/sabre_ai_rev_a/obj/apps/obds/src/tests/i2c_device_digital_compass_mag3112.o
 .debug_aranges
                0x000002b8       0x20 /home/leon/git/swp-report/iMX6_Platform_SDK/output/mx6dq/obds/sabre_ai_rev_a/obj/apps/obds/src/tests/i2c_device_id_check_mma8450.o
 .debug_aranges
                0x000002d8       0x20 /home/leon/git/swp-report/iMX6_Platform_SDK/output/mx6dq/obds/sabre_ai_rev_a/obj/apps/obds/src/tests/i2c_device_id_check_mma8451.o
 .debug_aranges
                0x000002f8       0x20 /home/leon/git/swp-report/iMX6_Platform_SDK/output/mx6dq/obds/sabre_ai_rev_a/obj/apps/obds/src/tests/i2c_device_id_check_p1003_tsc.o
 .debug_aranges
                0x00000318       0x20 /home/leon/git/swp-report/iMX6_Platform_SDK/output/mx6dq/obds/sabre_ai_rev_a/obj/apps/obds/src/tests/i2c_device_temp_sensor_emc1046.o
 .debug_aranges
                0x00000338       0x20 /home/leon/git/swp-report/iMX6_Platform_SDK/output/mx6dq/obds/sabre_ai_rev_a/obj/apps/obds/src/tests/i2c_device_zigbee_mc1323.o
 .debug_aranges
                0x00000358       0x20 /home/leon/git/swp-report/iMX6_Platform_SDK/output/mx6dq/obds/sabre_ai_rev_a/obj/apps/obds/src/tests/i2c_eeprom_at24cxx_test.o
 .debug_aranges
                0x00000378       0x20 /home/leon/git/swp-report/iMX6_Platform_SDK/output/mx6dq/obds/sabre_ai_rev_a/obj/apps/obds/src/tests/imx_spi_nor_test.o
 .debug_aranges
                0x00000398       0x20 /home/leon/git/swp-report/iMX6_Platform_SDK/output/mx6dq/obds/sabre_ai_rev_a/obj/apps/obds/src/tests/mlb_os81050.o
 .debug_aranges
                0x000003b8       0x20 /home/leon/git/swp-report/iMX6_Platform_SDK/output/mx6dq/obds/sabre_ai_rev_a/obj/apps/obds/src/tests/mmcsd_test.o
 .debug_aranges
                0x000003d8       0x20 /home/leon/git/swp-report/iMX6_Platform_SDK/output/mx6dq/obds/sabre_ai_rev_a/obj/apps/obds/src/tests/pmic_da9053.o
 .debug_aranges
                0x000003f8       0x20 /home/leon/git/swp-report/iMX6_Platform_SDK/output/mx6dq/obds/sabre_ai_rev_a/obj/apps/obds/src/tests/pmic_lt3589.o
 .debug_aranges
                0x00000418       0x20 /home/leon/git/swp-report/iMX6_Platform_SDK/output/mx6dq/obds/sabre_ai_rev_a/obj/apps/obds/src/tests/pmic_max17135.o
 .debug_aranges
                0x00000438       0x20 /home/leon/git/swp-report/iMX6_Platform_SDK/output/mx6dq/obds/sabre_ai_rev_a/obj/apps/obds/src/tests/pmic_mc13892.o
 .debug_aranges
                0x00000458       0x20 /home/leon/git/swp-report/iMX6_Platform_SDK/output/mx6dq/obds/sabre_ai_rev_a/obj/apps/obds/src/tests/program_board_id.o
 .debug_aranges
                0x00000478       0x20 /home/leon/git/swp-report/iMX6_Platform_SDK/output/mx6dq/obds/sabre_ai_rev_a/obj/apps/obds/src/tests/program_mac_address.o
 .debug_aranges
                0x00000498       0x20 /home/leon/git/swp-report/iMX6_Platform_SDK/output/mx6dq/obds/sabre_ai_rev_a/obj/apps/obds/src/tests/snvs_srtc_test.o
 .debug_aranges
                0x000004b8       0x20 /home/leon/git/swp-report/iMX6_Platform_SDK/output/mx6dq/obds/sabre_ai_rev_a/obj/apps/obds/src/tests/touch_screen.o
 .debug_aranges
                0x000004d8       0x20 /home/leon/git/swp-report/iMX6_Platform_SDK/output/mx6dq/obds/sabre_ai_rev_a/obj/apps/obds/src/tests/touch_screen_max11801.o
 .debug_aranges
                0x000004f8       0x20 /home/leon/git/swp-report/iMX6_Platform_SDK/output/mx6dq/obds/sabre_ai_rev_a/obj/apps/obds/src/tests/usb_tests_obds.o
 .debug_aranges
                0x00000518       0x20 /home/leon/git/swp-report/iMX6_Platform_SDK/output/mx6dq/obds/sabre_ai_rev_a/obj/apps/obds/src/tests/video_dec_ARD_MB_reset_button.o
 .debug_aranges
                0x00000538       0x20 /home/leon/git/swp-report/iMX6_Platform_SDK/output/mx6dq/obds/sabre_ai_rev_a/obj/apps/obds/src/tests/video_dec_ARD_MBrst_from_cpu_expander.o
 .debug_aranges
                0x00000558       0x20 /home/leon/git/swp-report/iMX6_Platform_SDK/output/mx6dq/obds/sabre_ai_rev_a/obj/apps/obds/src/tests/video_dec_adv7180.o
 .debug_aranges
                0x00000578       0x20 /home/leon/git/swp-report/iMX6_Platform_SDK/output/mx6dq/obds/sabre_ai_rev_a/obj/apps/obds/src/tests/weim_nor_flash_test.o
 .debug_aranges
                0x00000598       0x20 /home/leon/git/swp-report/iMX6_Platform_SDK/output/mx6dq/obds/sabre_ai_rev_a/obj/sdk/common/ioexpander/test/max7310_test.o
 .debug_aranges
                0x000005b8       0x20 /home/leon/git/swp-report/iMX6_Platform_SDK/output/mx6dq/obds/sabre_ai_rev_a/obj/sdk/common/pmic/pfuse/pf0100.o
 .debug_aranges
                0x000005d8       0x20 /home/leon/git/swp-report/iMX6_Platform_SDK/output/mx6dq/obds/sabre_ai_rev_a/obj/sdk/drivers/audio/src/snd_card.o
 .debug_aranges
                0x000005f8       0x20 /home/leon/git/swp-report/iMX6_Platform_SDK/output/mx6dq/obds/sabre_ai_rev_a/obj/sdk/drivers/camera/test/adv7180_capture.o
 .debug_aranges
                0x00000618       0x20 /home/leon/git/swp-report/iMX6_Platform_SDK/output/mx6dq/obds/sabre_ai_rev_a/obj/sdk/drivers/camera/test/camera_test.o
 .debug_aranges
                0x00000638       0x20 /home/leon/git/swp-report/iMX6_Platform_SDK/output/mx6dq/obds/sabre_ai_rev_a/obj/sdk/drivers/camera/test/csi_test_mode.o
 .debug_aranges
                0x00000658       0x20 /home/leon/git/swp-report/iMX6_Platform_SDK/output/mx6dq/obds/sabre_ai_rev_a/obj/sdk/drivers/camera/test/sensor_capture.o
 .debug_aranges
                0x00000678       0x20 /home/leon/git/swp-report/iMX6_Platform_SDK/output/mx6dq/obds/sabre_ai_rev_a/obj/sdk/drivers/hdmi/test/hdmi_test.o
 .debug_aranges
                0x00000698       0x20 /home/leon/git/swp-report/iMX6_Platform_SDK/output/mx6dq/obds/sabre_ai_rev_a/obj/sdk/drivers/hdmi/test/init_dma_data.o
 .debug_aranges
                0x000006b8       0x20 /home/leon/git/swp-report/iMX6_Platform_SDK/output/mx6dq/obds/sabre_ai_rev_a/obj/sdk/drivers/ipu/test/ips_display.o
 .debug_aranges
                0x000006d8       0x20 /home/leon/git/swp-report/iMX6_Platform_SDK/output/mx6dq/obds/sabre_ai_rev_a/obj/sdk/drivers/ipu/test/ipu_image.o
 .debug_aranges
                0x000006f8       0x20 /home/leon/git/swp-report/iMX6_Platform_SDK/output/mx6dq/obds/sabre_ai_rev_a/obj/sdk/drivers/sata/test/sata_test.o
 .debug_aranges
                0x00000718       0x20 /home/leon/git/swp-report/iMX6_Platform_SDK/output/mx6dq/obds/sabre_ai_rev_a/obj/sdk/drivers/spi/test/imx_spi_nor_atmel.o
 .debug_aranges
                0x00000738       0x20 /home/leon/git/swp-report/iMX6_Platform_SDK/output/mx6dq/obds/sabre_ai_rev_a/obj/sdk/drivers/spi/test/spi_nor_numonyx.o
 .debug_aranges
                0x00000758       0x20 /home/leon/git/swp-report/iMX6_Platform_SDK/output/mx6dq/obds/sabre_ai_rev_a/obj/sdk/drivers/uart/test/uart_test.o
 .debug_aranges
                0x00000778       0x20 /home/leon/git/swp-report/iMX6_Platform_SDK/output/mx6dq/obds/sabre_ai_rev_a/obj/sdk/drivers/usb/test/usb0_host_test.o
 .debug_aranges
                0x00000798       0x20 /home/leon/git/swp-report/iMX6_Platform_SDK/output/mx6dq/obds/sabre_ai_rev_a/obj/sdk/drivers/usb/test/usb0_host_testmodes_test.o
 .debug_aranges
                0x000007b8       0x20 /home/leon/git/swp-report/iMX6_Platform_SDK/output/mx6dq/obds/sabre_ai_rev_a/obj/sdk/drivers/usdhc/test/usdhc_test.o
 .debug_aranges
                0x000007d8       0x20 /home/leon/git/swp-report/iMX6_Platform_SDK/output/mx6dq/lib/libsdk.a(max7310.o)
 .debug_aranges
                0x000007f8       0x20 /home/leon/git/swp-report/iMX6_Platform_SDK/output/mx6dq/lib/libsdk.a(ccm_pll.o)
 .debug_aranges
                0x00000818       0x20 /home/leon/git/swp-report/iMX6_Platform_SDK/output/mx6dq/lib/libsdk.a(gic.o)
 .debug_aranges
                0x00000838       0x20 /home/leon/git/swp-report/iMX6_Platform_SDK/output/mx6dq/lib/libsdk.a(interrupt.o)
 .debug_aranges
                0x00000858       0x20 /home/leon/git/swp-report/iMX6_Platform_SDK/output/mx6dq/lib/libsdk.a(mmu.o)
 .debug_aranges
                0x00000878       0x20 /home/leon/git/swp-report/iMX6_Platform_SDK/output/mx6dq/lib/libsdk.a(menu.o)
 .debug_aranges
                0x00000898       0x18 /home/leon/git/swp-report/iMX6_Platform_SDK/output/mx6dq/lib/libsdk.a(sdk_version.o)
 .debug_aranges
                0x000008b0       0x20 /home/leon/git/swp-report/iMX6_Platform_SDK/output/mx6dq/lib/libsdk.a(system_util.o)
 .debug_aranges
                0x000008d0       0x20 /home/leon/git/swp-report/iMX6_Platform_SDK/output/mx6dq/lib/libsdk.a(text_color.o)
 .debug_aranges
                0x000008f0       0x20 /home/leon/git/swp-report/iMX6_Platform_SDK/output/mx6dq/lib/libsdk.a(cs42888.o)
 .debug_aranges
                0x00000910       0x20 /home/leon/git/swp-report/iMX6_Platform_SDK/output/mx6dq/lib/libsdk.a(imx-ssi.o)
 .debug_aranges
                0x00000930       0x20 /home/leon/git/swp-report/iMX6_Platform_SDK/output/mx6dq/lib/libsdk.a(imx_esai.o)
 .debug_aranges
                0x00000950       0x20 /home/leon/git/swp-report/iMX6_Platform_SDK/output/mx6dq/lib/libsdk.a(imx_spdif.o)
 .debug_aranges
                0x00000970       0x20 /home/leon/git/swp-report/iMX6_Platform_SDK/output/mx6dq/lib/libsdk.a(sgtl5000.o)
 .debug_aranges
                0x00000990       0x20 /home/leon/git/swp-report/iMX6_Platform_SDK/output/mx6dq/lib/libsdk.a(wm8958_dac.o)
 .debug_aranges
                0x000009b0       0x20 /home/leon/git/swp-report/iMX6_Platform_SDK/output/mx6dq/lib/libsdk.a(wm8962.o)
 .debug_aranges
                0x000009d0       0x20 /home/leon/git/swp-report/iMX6_Platform_SDK/output/mx6dq/lib/libsdk.a(board_id.o)
 .debug_aranges
                0x000009f0       0x20 /home/leon/git/swp-report/iMX6_Platform_SDK/output/mx6dq/lib/libsdk.a(smd_sensor.o)
 .debug_aranges
                0x00000a10       0x20 /home/leon/git/swp-report/iMX6_Platform_SDK/output/mx6dq/lib/libsdk.a(enet_drv.o)
 .debug_aranges
                0x00000a30       0x20 /home/leon/git/swp-report/iMX6_Platform_SDK/output/mx6dq/lib/libsdk.a(gpio.o)
 .debug_aranges
                0x00000a50       0x18 /home/leon/git/swp-report/iMX6_Platform_SDK/output/mx6dq/lib/libsdk.a(imx6dq_gpio_map.o)
 .debug_aranges
                0x00000a68       0x20 /home/leon/git/swp-report/iMX6_Platform_SDK/output/mx6dq/lib/libsdk.a(hdmi_tx.o)
 .debug_aranges
                0x00000a88       0x20 /home/leon/git/swp-report/iMX6_Platform_SDK/output/mx6dq/lib/libsdk.a(hdmi_tx_audio.o)
 .debug_aranges
                0x00000aa8       0x20 /home/leon/git/swp-report/iMX6_Platform_SDK/output/mx6dq/lib/libsdk.a(hdmi_tx_phy.o)
 .debug_aranges
                0x00000ac8       0x20 /home/leon/git/swp-report/iMX6_Platform_SDK/output/mx6dq/lib/libsdk.a(imx_i2c.o)
 .debug_aranges
                0x00000ae8       0x20 /home/leon/git/swp-report/iMX6_Platform_SDK/output/mx6dq/lib/libsdk.a(ips_disp_panel.o)
 .debug_aranges
                0x00000b08       0x20 /home/leon/git/swp-report/iMX6_Platform_SDK/output/mx6dq/lib/libsdk.a(ipu_common.o)
 .debug_aranges
                0x00000b28       0x20 /home/leon/git/swp-report/iMX6_Platform_SDK/output/mx6dq/lib/libsdk.a(ipu_csi.o)
 .debug_aranges
                0x00000b48       0x20 /home/leon/git/swp-report/iMX6_Platform_SDK/output/mx6dq/lib/libsdk.a(ipu_dc.o)
 .debug_aranges
                0x00000b68       0x20 /home/leon/git/swp-report/iMX6_Platform_SDK/output/mx6dq/lib/libsdk.a(ipu_di.o)
 .debug_aranges
                0x00000b88       0x20 /home/leon/git/swp-report/iMX6_Platform_SDK/output/mx6dq/lib/libsdk.a(ipu_dmfc.o)
 .debug_aranges
                0x00000ba8       0x20 /home/leon/git/swp-report/iMX6_Platform_SDK/output/mx6dq/lib/libsdk.a(ipu_dp.o)
 .debug_aranges
                0x00000bc8       0x20 /home/leon/git/swp-report/iMX6_Platform_SDK/output/mx6dq/lib/libsdk.a(ipu_idmac.o)
 .debug_aranges
                0x00000be8       0x20 /home/leon/git/swp-report/iMX6_Platform_SDK/output/mx6dq/lib/libsdk.a(ipu_vdi.o)
 .debug_aranges
                0x00000c08       0x20 /home/leon/git/swp-report/iMX6_Platform_SDK/output/mx6dq/lib/libsdk.a(ldb.o)
 .debug_aranges
                0x00000c28       0x20 /home/leon/git/swp-report/iMX6_Platform_SDK/output/mx6dq/lib/libsdk.a(ocotp.o)
 .debug_aranges
                0x00000c48       0x20 /home/leon/git/swp-report/iMX6_Platform_SDK/output/mx6dq/lib/libsdk.a(sata.o)
 .debug_aranges
                0x00000c68       0x20 /home/leon/git/swp-report/iMX6_Platform_SDK/output/mx6dq/lib/libsdk.a(ecspi.o)
 .debug_aranges
                0x00000c88       0x20 /home/leon/git/swp-report/iMX6_Platform_SDK/output/mx6dq/lib/libsdk.a(timer.o)
 .debug_aranges
                0x00000ca8       0x20 /home/leon/git/swp-report/iMX6_Platform_SDK/output/mx6dq/lib/libsdk.a(imx_uart.o)
 .debug_aranges
                0x00000cc8       0x20 /home/leon/git/swp-report/iMX6_Platform_SDK/output/mx6dq/lib/libsdk.a(usb_common.o)
 .debug_aranges
                0x00000ce8       0x20 /home/leon/git/swp-report/iMX6_Platform_SDK/output/mx6dq/lib/libsdk.a(usbh_drv.o)
 .debug_aranges
                0x00000d08       0x20 /home/leon/git/swp-report/iMX6_Platform_SDK/output/mx6dq/lib/libsdk.a(usdhc.o)
 .debug_aranges
                0x00000d28       0x20 /home/leon/git/swp-report/iMX6_Platform_SDK/output/mx6dq/lib/libsdk.a(usdhc_host.o)
 .debug_aranges
                0x00000d48       0x20 /home/leon/git/swp-report/iMX6_Platform_SDK/output/mx6dq/lib/libsdk.a(usdhc_mmc.o)
 .debug_aranges
                0x00000d68       0x20 /home/leon/git/swp-report/iMX6_Platform_SDK/output/mx6dq/lib/libsdk.a(usdhc_sd.o)
 .debug_aranges
                0x00000d88       0x20 /home/leon/git/swp-report/iMX6_Platform_SDK/output/mx6dq/lib/libsdk.a(adv7180.o)
 .debug_aranges
                0x00000da8       0x20 /home/leon/git/swp-report/iMX6_Platform_SDK/output/mx6dq/lib/libsdk.a(armv7_cache.o)
 .debug_aranges
                0x00000dc8       0x18 /home/leon/git/swp-report/iMX6_Platform_SDK/output/mx6dq/lib/libsdk.a(camera_profile.o)
 .debug_aranges
                0x00000de0       0x20 /home/leon/git/swp-report/iMX6_Platform_SDK/output/mx6dq/lib/libsdk.a(hdmi_common.o)
 .debug_aranges
                0x00000e00       0x20 /home/leon/git/swp-report/iMX6_Platform_SDK/output/mx6dq/lib/libsdk.a(ipu_ic.o)
 .debug_aranges
                0x00000e20       0x20 /home/leon/git/swp-report/iMX6_Platform_SDK/output/mx6dq/lib/libsdk.a(epit.o)
 .debug_aranges
                0x00000e40       0x20 /home/leon/git/swp-report/iMX6_Platform_SDK/output/mx6dq/lib/libsdk.a(mx6x_usb.o)
 .debug_aranges
                0x00000e60       0x20 /home/leon/git/swp-report/iMX6_Platform_SDK/output/mx6dq/lib/libsdk.a(abort_handler.o)
 .debug_aranges
                0x00000e80       0x20 /home/leon/git/swp-report/iMX6_Platform_SDK/output/mx6dq/lib/libboard_sabre_ai_rev_a.a(board_audio.o)
 .debug_aranges
                0x00000ea0       0x20 /home/leon/git/swp-report/iMX6_Platform_SDK/output/mx6dq/lib/libboard_sabre_ai_rev_a.a(board_buttons.o)
 .debug_aranges
                0x00000ec0       0x20 /home/leon/git/swp-report/iMX6_Platform_SDK/output/mx6dq/lib/libboard_sabre_ai_rev_a.a(board_camera.o)
 .debug_aranges
                0x00000ee0       0x20 /home/leon/git/swp-report/iMX6_Platform_SDK/output/mx6dq/lib/libboard_sabre_ai_rev_a.a(board_display.o)
 .debug_aranges
                0x00000f00       0x20 /home/leon/git/swp-report/iMX6_Platform_SDK/output/mx6dq/lib/libboard_sabre_ai_rev_a.a(board_hdmi.o)
 .debug_aranges
                0x00000f20       0x18 /home/leon/git/swp-report/iMX6_Platform_SDK/output/mx6dq/lib/libboard_sabre_ai_rev_a.a(board_i2c.o)
 .debug_aranges
                0x00000f38       0x20 /home/leon/git/swp-report/iMX6_Platform_SDK/output/mx6dq/lib/libboard_sabre_ai_rev_a.a(board_io_expanders.o)
 .debug_aranges
                0x00000f58       0x20 /home/leon/git/swp-report/iMX6_Platform_SDK/output/mx6dq/lib/libboard_sabre_ai_rev_a.a(board_mipi.o)
 .debug_aranges
                0x00000f78       0x20 /home/leon/git/swp-report/iMX6_Platform_SDK/output/mx6dq/lib/libboard_sabre_ai_rev_a.a(board_network.o)
 .debug_aranges
                0x00000f98       0x20 /home/leon/git/swp-report/iMX6_Platform_SDK/output/mx6dq/lib/libboard_sabre_ai_rev_a.a(board_sata.o)
 .debug_aranges
                0x00000fb8       0x20 /home/leon/git/swp-report/iMX6_Platform_SDK/output/mx6dq/lib/libboard_sabre_ai_rev_a.a(board_usb.o)
 .debug_aranges
                0x00000fd8       0x20 /home/leon/git/swp-report/iMX6_Platform_SDK/output/mx6dq/lib/libboard_sabre_ai_rev_a.a(board_usdhc.o)
 .debug_aranges
                0x00000ff8       0x18 /home/leon/git/swp-report/iMX6_Platform_SDK/output/mx6dq/lib/libboard_sabre_ai_rev_a.a(hardware_modules.o)
 .debug_aranges
                0x00001010       0x18 /home/leon/git/swp-report/iMX6_Platform_SDK/output/mx6dq/lib/libboard_sabre_ai_rev_a.a(dcd.o)
 .debug_aranges
                0x00001028       0x20 /home/leon/git/swp-report/iMX6_Platform_SDK/output/mx6dq/lib/libboard_sabre_ai_rev_a.a(audmux_iomux_config.o)
 .debug_aranges
                0x00001048       0x20 /home/leon/git/swp-report/iMX6_Platform_SDK/output/mx6dq/lib/libboard_sabre_ai_rev_a.a(ecspi_iomux_config.o)
 .debug_aranges
                0x00001068       0x20 /home/leon/git/swp-report/iMX6_Platform_SDK/output/mx6dq/lib/libboard_sabre_ai_rev_a.a(eim_iomux_config.o)
 .debug_aranges
                0x00001088       0x20 /home/leon/git/swp-report/iMX6_Platform_SDK/output/mx6dq/lib/libboard_sabre_ai_rev_a.a(enet_iomux_config.o)
 .debug_aranges
                0x000010a8       0x20 /home/leon/git/swp-report/iMX6_Platform_SDK/output/mx6dq/lib/libboard_sabre_ai_rev_a.a(esai_iomux_config.o)
 .debug_aranges
                0x000010c8       0x20 /home/leon/git/swp-report/iMX6_Platform_SDK/output/mx6dq/lib/libboard_sabre_ai_rev_a.a(i2c3_iomux_config.o)
 .debug_aranges
                0x000010e8       0x20 /home/leon/git/swp-report/iMX6_Platform_SDK/output/mx6dq/lib/libboard_sabre_ai_rev_a.a(i2c_iomux_config.o)
 .debug_aranges
                0x00001108       0x20 /home/leon/git/swp-report/iMX6_Platform_SDK/output/mx6dq/lib/libboard_sabre_ai_rev_a.a(iomux_config.o)
 .debug_aranges
                0x00001128       0x20 /home/leon/git/swp-report/iMX6_Platform_SDK/output/mx6dq/lib/libboard_sabre_ai_rev_a.a(ipu1_iomux_config.o)
 .debug_aranges
                0x00001148       0x20 /home/leon/git/swp-report/iMX6_Platform_SDK/output/mx6dq/lib/libboard_sabre_ai_rev_a.a(ipu_iomux_config.o)
 .debug_aranges
                0x00001168       0x20 /home/leon/git/swp-report/iMX6_Platform_SDK/output/mx6dq/lib/libboard_sabre_ai_rev_a.a(mlb_iomux_config.o)
 .debug_aranges
                0x00001188       0x20 /home/leon/git/swp-report/iMX6_Platform_SDK/output/mx6dq/lib/libboard_sabre_ai_rev_a.a(mmdc_iomux_config.o)
 .debug_aranges
                0x000011a8       0x20 /home/leon/git/swp-report/iMX6_Platform_SDK/output/mx6dq/lib/libboard_sabre_ai_rev_a.a(pwm3_iomux_config.o)
 .debug_aranges
                0x000011c8       0x20 /home/leon/git/swp-report/iMX6_Platform_SDK/output/mx6dq/lib/libboard_sabre_ai_rev_a.a(pwm4_iomux_config.o)
 .debug_aranges
                0x000011e8       0x20 /home/leon/git/swp-report/iMX6_Platform_SDK/output/mx6dq/lib/libboard_sabre_ai_rev_a.a(sjc_iomux_config.o)
 .debug_aranges
                0x00001208       0x20 /home/leon/git/swp-report/iMX6_Platform_SDK/output/mx6dq/lib/libboard_sabre_ai_rev_a.a(spdif_iomux_config.o)
 .debug_aranges
                0x00001228       0x20 /home/leon/git/swp-report/iMX6_Platform_SDK/output/mx6dq/lib/libboard_sabre_ai_rev_a.a(uart2_iomux_config.o)
 .debug_aranges
                0x00001248       0x20 /home/leon/git/swp-report/iMX6_Platform_SDK/output/mx6dq/lib/libboard_sabre_ai_rev_a.a(uart3_iomux_config.o)
 .debug_aranges
                0x00001268       0x20 /home/leon/git/swp-report/iMX6_Platform_SDK/output/mx6dq/lib/libboard_sabre_ai_rev_a.a(uart4_iomux_config.o)
 .debug_aranges
                0x00001288       0x20 /home/leon/git/swp-report/iMX6_Platform_SDK/output/mx6dq/lib/libboard_sabre_ai_rev_a.a(uart_iomux_config.o)
 .debug_aranges
                0x000012a8       0x20 /home/leon/git/swp-report/iMX6_Platform_SDK/output/mx6dq/lib/libboard_sabre_ai_rev_a.a(usdhc1_iomux_config.o)
 .debug_aranges
                0x000012c8       0x20 /home/leon/git/swp-report/iMX6_Platform_SDK/output/mx6dq/lib/libboard_sabre_ai_rev_a.a(usdhc3_iomux_config.o)
 .debug_aranges
                0x000012e8       0x20 /home/leon/git/swp-report/iMX6_Platform_SDK/output/mx6dq/lib/libboard_sabre_ai_rev_a.a(usdhc_iomux_config.o)
 .debug_aranges
                0x00001308       0x20 /home/leon/git/swp-report/iMX6_Platform_SDK/output/mx6dq/lib/libboard_sabre_ai_rev_a.a(wdog1_iomux_config.o)
 .debug_aranges
                0x00001328       0x20 /home/leon/git/swp-report/iMX6_Platform_SDK/output/mx6dq/lib/libboard_sabre_ai_rev_a.a(ccm_iomux_config.o)
 .debug_aranges
                0x00001348       0x20 /home/leon/git/swp-report/iMX6_Platform_SDK/output/mx6dq/lib/libboard_sabre_ai_rev_a.a(ecspi1_iomux_config.o)
 .debug_aranges
                0x00001368       0x20 /home/leon/git/swp-report/iMX6_Platform_SDK/output/mx6dq/lib/libboard_sabre_ai_rev_a.a(flexcan1_iomux_config.o)
 .debug_aranges
                0x00001388       0x20 /home/leon/git/swp-report/iMX6_Platform_SDK/output/mx6dq/lib/libboard_sabre_ai_rev_a.a(flexcan2_iomux_config.o)
 .debug_aranges
                0x000013a8       0x20 /home/leon/git/swp-report/iMX6_Platform_SDK/output/mx6dq/lib/libboard_sabre_ai_rev_a.a(gpio1_iomux_config.o)
 .debug_aranges
                0x000013c8       0x20 /home/leon/git/swp-report/iMX6_Platform_SDK/output/mx6dq/lib/libboard_sabre_ai_rev_a.a(gpio2_iomux_config.o)
 .debug_aranges
                0x000013e8       0x20 /home/leon/git/swp-report/iMX6_Platform_SDK/output/mx6dq/lib/libboard_sabre_ai_rev_a.a(gpio4_iomux_config.o)
 .debug_aranges
                0x00001408       0x20 /home/leon/git/swp-report/iMX6_Platform_SDK/output/mx6dq/lib/libboard_sabre_ai_rev_a.a(gpio5_iomux_config.o)
 .debug_aranges
                0x00001428       0x20 /home/leon/git/swp-report/iMX6_Platform_SDK/output/mx6dq/lib/libboard_sabre_ai_rev_a.a(gpio6_iomux_config.o)
 .debug_aranges
                0x00001448       0x20 /home/leon/git/swp-report/iMX6_Platform_SDK/output/mx6dq/lib/libboard_sabre_ai_rev_a.a(gpmi_iomux_config.o)
 .debug_aranges
                0x00001468       0x20 /home/leon/git/swp-report/iMX6_Platform_SDK/output/mx6dq/lib/libboard_sabre_ai_rev_a.a(i2c2_iomux_config.o)
 .debug_aranges
                0x00001488       0x20 /home/leon/git/swp-report/iMX6_Platform_SDK/output/mx6dq/lib/libsdk.a(runtime_support.o)

.debug_line     0x00000000    0x1c4f7
 .debug_line    0x00000000      0x103 /home/leon/git/swp-report/iMX6_Platform_SDK/output/mx6dq/obds/sabre_ai_rev_a/obj/apps/common/ivt.o
 .debug_line    0x00000103      0x17e /home/leon/git/swp-report/iMX6_Platform_SDK/output/mx6dq/obds/sabre_ai_rev_a/obj/apps/common/platform_init.o
 .debug_line    0x00000281      0x171 /home/leon/git/swp-report/iMX6_Platform_SDK/output/mx6dq/obds/sabre_ai_rev_a/obj/apps/common/print_clock_info.o
 .debug_line    0x000003f2      0x17f /home/leon/git/swp-report/iMX6_Platform_SDK/output/mx6dq/obds/sabre_ai_rev_a/obj/apps/common/print_version.o
 .debug_line    0x00000571      0x348 /home/leon/git/swp-report/iMX6_Platform_SDK/output/mx6dq/obds/sabre_ai_rev_a/obj/apps/obds/src/obds.o
 .debug_line    0x000008b9       0xfa /home/leon/git/swp-report/iMX6_Platform_SDK/output/mx6dq/obds/sabre_ai_rev_a/obj/apps/obds/src/obds_utils.o
 .debug_line    0x000009b3      0x231 /home/leon/git/swp-report/iMX6_Platform_SDK/output/mx6dq/obds/sabre_ai_rev_a/obj/apps/obds/src/tests/android_buttons_test.o
 .debug_line    0x00000be4      0x2b6 /home/leon/git/swp-report/iMX6_Platform_SDK/output/mx6dq/obds/sabre_ai_rev_a/obj/apps/obds/src/tests/audio_esai_test.o
 .debug_line    0x00000e9a      0x2f7 /home/leon/git/swp-report/iMX6_Platform_SDK/output/mx6dq/obds/sabre_ai_rev_a/obj/apps/obds/src/tests/audio_ssi_test.o
 .debug_line    0x00001191      0x272 /home/leon/git/swp-report/iMX6_Platform_SDK/output/mx6dq/obds/sabre_ai_rev_a/obj/apps/obds/src/tests/ddr_test.o
 .debug_line    0x00001403      0x225 /home/leon/git/swp-report/iMX6_Platform_SDK/output/mx6dq/obds/sabre_ai_rev_a/obj/apps/obds/src/tests/deserializer_ds90ur124.o
 .debug_line    0x00001628      0x2ea /home/leon/git/swp-report/iMX6_Platform_SDK/output/mx6dq/obds/sabre_ai_rev_a/obj/apps/obds/src/tests/display_test.o
 .debug_line    0x00001912      0x2d8 /home/leon/git/swp-report/iMX6_Platform_SDK/output/mx6dq/obds/sabre_ai_rev_a/obj/apps/obds/src/tests/enet_mx6dldq_test.o
 .debug_line    0x00001bea       0xd4 /home/leon/git/swp-report/iMX6_Platform_SDK/output/mx6dq/obds/sabre_ai_rev_a/obj/apps/obds/src/tests/flexcan_test.o
 .debug_line    0x00001cbe      0x23e /home/leon/git/swp-report/iMX6_Platform_SDK/output/mx6dq/obds/sabre_ai_rev_a/obj/apps/obds/src/tests/fm_tuner_si476x_test.o
 .debug_line    0x00001efc      0x21c /home/leon/git/swp-report/iMX6_Platform_SDK/output/mx6dq/obds/sabre_ai_rev_a/obj/apps/obds/src/tests/gpio_led.o
 .debug_line    0x00002118      0x1c9 /home/leon/git/swp-report/iMX6_Platform_SDK/output/mx6dq/obds/sabre_ai_rev_a/obj/apps/obds/src/tests/gps_test.o
 .debug_line    0x000022e1      0x2d7 /home/leon/git/swp-report/iMX6_Platform_SDK/output/mx6dq/obds/sabre_ai_rev_a/obj/apps/obds/src/tests/i2c_check_light_sensor_isl29023.o
 .debug_line    0x000025b8      0x1f3 /home/leon/git/swp-report/iMX6_Platform_SDK/output/mx6dq/obds/sabre_ai_rev_a/obj/apps/obds/src/tests/i2c_device_barometer_ppl3115.o
 .debug_line    0x000027ab      0x1cf /home/leon/git/swp-report/iMX6_Platform_SDK/output/mx6dq/obds/sabre_ai_rev_a/obj/apps/obds/src/tests/i2c_device_check_cs42888.o
 .debug_line    0x0000297a      0x1ea /home/leon/git/swp-report/iMX6_Platform_SDK/output/mx6dq/obds/sabre_ai_rev_a/obj/apps/obds/src/tests/i2c_device_digital_compass_mag3110.o
 .debug_line    0x00002b64      0x1ea /home/leon/git/swp-report/iMX6_Platform_SDK/output/mx6dq/obds/sabre_ai_rev_a/obj/apps/obds/src/tests/i2c_device_digital_compass_mag3112.o
 .debug_line    0x00002d4e      0x3c1 /home/leon/git/swp-report/iMX6_Platform_SDK/output/mx6dq/obds/sabre_ai_rev_a/obj/apps/obds/src/tests/i2c_device_id_check_mma8450.o
 .debug_line    0x0000310f      0x3c3 /home/leon/git/swp-report/iMX6_Platform_SDK/output/mx6dq/obds/sabre_ai_rev_a/obj/apps/obds/src/tests/i2c_device_id_check_mma8451.o
 .debug_line    0x000034d2      0x314 /home/leon/git/swp-report/iMX6_Platform_SDK/output/mx6dq/obds/sabre_ai_rev_a/obj/apps/obds/src/tests/i2c_device_id_check_p1003_tsc.o
 .debug_line    0x000037e6      0x254 /home/leon/git/swp-report/iMX6_Platform_SDK/output/mx6dq/obds/sabre_ai_rev_a/obj/apps/obds/src/tests/i2c_device_temp_sensor_emc1046.o
 .debug_line    0x00003a3a      0x201 /home/leon/git/swp-report/iMX6_Platform_SDK/output/mx6dq/obds/sabre_ai_rev_a/obj/apps/obds/src/tests/i2c_device_zigbee_mc1323.o
 .debug_line    0x00003c3b      0x24a /home/leon/git/swp-report/iMX6_Platform_SDK/output/mx6dq/obds/sabre_ai_rev_a/obj/apps/obds/src/tests/i2c_eeprom_at24cxx_test.o
 .debug_line    0x00003e85      0x2e8 /home/leon/git/swp-report/iMX6_Platform_SDK/output/mx6dq/obds/sabre_ai_rev_a/obj/apps/obds/src/tests/imx_spi_nor_test.o
 .debug_line    0x0000416d      0x250 /home/leon/git/swp-report/iMX6_Platform_SDK/output/mx6dq/obds/sabre_ai_rev_a/obj/apps/obds/src/tests/mlb_os81050.o
 .debug_line    0x000043bd      0x166 /home/leon/git/swp-report/iMX6_Platform_SDK/output/mx6dq/obds/sabre_ai_rev_a/obj/apps/obds/src/tests/mmcsd_test.o
 .debug_line    0x00004523      0x217 /home/leon/git/swp-report/iMX6_Platform_SDK/output/mx6dq/obds/sabre_ai_rev_a/obj/apps/obds/src/tests/pmic_da9053.o
 .debug_line    0x0000473a      0x3fe /home/leon/git/swp-report/iMX6_Platform_SDK/output/mx6dq/obds/sabre_ai_rev_a/obj/apps/obds/src/tests/pmic_lt3589.o
 .debug_line    0x00004b38      0x1e2 /home/leon/git/swp-report/iMX6_Platform_SDK/output/mx6dq/obds/sabre_ai_rev_a/obj/apps/obds/src/tests/pmic_max17135.o
 .debug_line    0x00004d1a       0xff /home/leon/git/swp-report/iMX6_Platform_SDK/output/mx6dq/obds/sabre_ai_rev_a/obj/apps/obds/src/tests/pmic_mc13892.o
 .debug_line    0x00004e19      0x269 /home/leon/git/swp-report/iMX6_Platform_SDK/output/mx6dq/obds/sabre_ai_rev_a/obj/apps/obds/src/tests/program_board_id.o
 .debug_line    0x00005082      0x34d /home/leon/git/swp-report/iMX6_Platform_SDK/output/mx6dq/obds/sabre_ai_rev_a/obj/apps/obds/src/tests/program_mac_address.o
 .debug_line    0x000053cf      0x1a9 /home/leon/git/swp-report/iMX6_Platform_SDK/output/mx6dq/obds/sabre_ai_rev_a/obj/apps/obds/src/tests/snvs_srtc_test.o
 .debug_line    0x00005578        0x0 /home/leon/git/swp-report/iMX6_Platform_SDK/output/mx6dq/obds/sabre_ai_rev_a/obj/apps/obds/src/tests/touch_button_test.o
 .debug_line    0x00005578      0x2d3 /home/leon/git/swp-report/iMX6_Platform_SDK/output/mx6dq/obds/sabre_ai_rev_a/obj/apps/obds/src/tests/touch_screen.o
 .debug_line    0x0000584b      0x37b /home/leon/git/swp-report/iMX6_Platform_SDK/output/mx6dq/obds/sabre_ai_rev_a/obj/apps/obds/src/tests/touch_screen_max11801.o
 .debug_line    0x00005bc6      0x25d /home/leon/git/swp-report/iMX6_Platform_SDK/output/mx6dq/obds/sabre_ai_rev_a/obj/apps/obds/src/tests/usb_tests_obds.o
 .debug_line    0x00005e23       0xef /home/leon/git/swp-report/iMX6_Platform_SDK/output/mx6dq/obds/sabre_ai_rev_a/obj/apps/obds/src/tests/video_dec_ARD_MB_reset_button.o
 .debug_line    0x00005f12       0xeb /home/leon/git/swp-report/iMX6_Platform_SDK/output/mx6dq/obds/sabre_ai_rev_a/obj/apps/obds/src/tests/video_dec_ARD_MBrst_from_cpu_expander.o
 .debug_line    0x00005ffd      0x28f /home/leon/git/swp-report/iMX6_Platform_SDK/output/mx6dq/obds/sabre_ai_rev_a/obj/apps/obds/src/tests/video_dec_adv7180.o
 .debug_line    0x0000628c      0x167 /home/leon/git/swp-report/iMX6_Platform_SDK/output/mx6dq/obds/sabre_ai_rev_a/obj/apps/obds/src/tests/weim_nor_flash_test.o
 .debug_line    0x000063f3      0x1ef /home/leon/git/swp-report/iMX6_Platform_SDK/output/mx6dq/obds/sabre_ai_rev_a/obj/sdk/common/ioexpander/test/max7310_test.o
 .debug_line    0x000065e2      0x1f4 /home/leon/git/swp-report/iMX6_Platform_SDK/output/mx6dq/obds/sabre_ai_rev_a/obj/sdk/common/pmic/pfuse/pf0100.o
 .debug_line    0x000067d6      0x1b1 /home/leon/git/swp-report/iMX6_Platform_SDK/output/mx6dq/obds/sabre_ai_rev_a/obj/sdk/drivers/audio/src/snd_card.o
 .debug_line    0x00006987      0x2a3 /home/leon/git/swp-report/iMX6_Platform_SDK/output/mx6dq/obds/sabre_ai_rev_a/obj/sdk/drivers/camera/test/adv7180_capture.o
 .debug_line    0x00006c2a      0x1e3 /home/leon/git/swp-report/iMX6_Platform_SDK/output/mx6dq/obds/sabre_ai_rev_a/obj/sdk/drivers/camera/test/camera_test.o
 .debug_line    0x00006e0d      0x28d /home/leon/git/swp-report/iMX6_Platform_SDK/output/mx6dq/obds/sabre_ai_rev_a/obj/sdk/drivers/camera/test/csi_test_mode.o
 .debug_line    0x0000709a      0x28c /home/leon/git/swp-report/iMX6_Platform_SDK/output/mx6dq/obds/sabre_ai_rev_a/obj/sdk/drivers/camera/test/sensor_capture.o
 .debug_line    0x00007326      0x291 /home/leon/git/swp-report/iMX6_Platform_SDK/output/mx6dq/obds/sabre_ai_rev_a/obj/sdk/drivers/hdmi/test/hdmi_test.o
 .debug_line    0x000075b7      0x157 /home/leon/git/swp-report/iMX6_Platform_SDK/output/mx6dq/obds/sabre_ai_rev_a/obj/sdk/drivers/hdmi/test/init_dma_data.o
 .debug_line    0x0000770e      0x4a1 /home/leon/git/swp-report/iMX6_Platform_SDK/output/mx6dq/obds/sabre_ai_rev_a/obj/sdk/drivers/ipu/test/ips_display.o
 .debug_line    0x00007baf      0x1e5 /home/leon/git/swp-report/iMX6_Platform_SDK/output/mx6dq/obds/sabre_ai_rev_a/obj/sdk/drivers/ipu/test/ipu_image.o
 .debug_line    0x00007d94      0x242 /home/leon/git/swp-report/iMX6_Platform_SDK/output/mx6dq/obds/sabre_ai_rev_a/obj/sdk/drivers/sata/test/sata_test.o
 .debug_line    0x00007fd6      0x2d9 /home/leon/git/swp-report/iMX6_Platform_SDK/output/mx6dq/obds/sabre_ai_rev_a/obj/sdk/drivers/spi/test/imx_spi_nor_atmel.o
 .debug_line    0x000082af      0x22d /home/leon/git/swp-report/iMX6_Platform_SDK/output/mx6dq/obds/sabre_ai_rev_a/obj/sdk/drivers/spi/test/spi_nor_numonyx.o
 .debug_line    0x000084dc      0x217 /home/leon/git/swp-report/iMX6_Platform_SDK/output/mx6dq/obds/sabre_ai_rev_a/obj/sdk/drivers/uart/test/uart_test.o
 .debug_line    0x000086f3     0x10df /home/leon/git/swp-report/iMX6_Platform_SDK/output/mx6dq/obds/sabre_ai_rev_a/obj/sdk/drivers/usb/test/usb0_host_test.o
 .debug_line    0x000097d2      0x4c8 /home/leon/git/swp-report/iMX6_Platform_SDK/output/mx6dq/obds/sabre_ai_rev_a/obj/sdk/drivers/usb/test/usb0_host_testmodes_test.o
 .debug_line    0x00009c9a      0x395 /home/leon/git/swp-report/iMX6_Platform_SDK/output/mx6dq/obds/sabre_ai_rev_a/obj/sdk/drivers/usdhc/test/usdhc_test.o
 .debug_line    0x0000a02f      0x194 /home/leon/git/swp-report/iMX6_Platform_SDK/output/mx6dq/lib/libsdk.a(max7310.o)
 .debug_line    0x0000a1c3      0x272 /home/leon/git/swp-report/iMX6_Platform_SDK/output/mx6dq/lib/libsdk.a(ccm_pll.o)
 .debug_line    0x0000a435      0x165 /home/leon/git/swp-report/iMX6_Platform_SDK/output/mx6dq/lib/libsdk.a(gic.o)
 .debug_line    0x0000a59a      0x180 /home/leon/git/swp-report/iMX6_Platform_SDK/output/mx6dq/lib/libsdk.a(interrupt.o)
 .debug_line    0x0000a71a      0x188 /home/leon/git/swp-report/iMX6_Platform_SDK/output/mx6dq/lib/libsdk.a(mmu.o)
 .debug_line    0x0000a8a2      0x2e0 /home/leon/git/swp-report/iMX6_Platform_SDK/output/mx6dq/lib/libsdk.a(menu.o)
 .debug_line    0x0000ab82       0x6a /home/leon/git/swp-report/iMX6_Platform_SDK/output/mx6dq/lib/libsdk.a(sdk_version.o)
 .debug_line    0x0000abec      0x365 /home/leon/git/swp-report/iMX6_Platform_SDK/output/mx6dq/lib/libsdk.a(system_util.o)
 .debug_line    0x0000af51       0xf0 /home/leon/git/swp-report/iMX6_Platform_SDK/output/mx6dq/lib/libsdk.a(text_color.o)
 .debug_line    0x0000b041      0x23c /home/leon/git/swp-report/iMX6_Platform_SDK/output/mx6dq/lib/libsdk.a(cs42888.o)
 .debug_line    0x0000b27d     0x11d2 /home/leon/git/swp-report/iMX6_Platform_SDK/output/mx6dq/lib/libsdk.a(imx-ssi.o)
 .debug_line    0x0000c44f      0x2d2 /home/leon/git/swp-report/iMX6_Platform_SDK/output/mx6dq/lib/libsdk.a(imx_esai.o)
 .debug_line    0x0000c721      0x227 /home/leon/git/swp-report/iMX6_Platform_SDK/output/mx6dq/lib/libsdk.a(imx_spdif.o)
 .debug_line    0x0000c948      0x42f /home/leon/git/swp-report/iMX6_Platform_SDK/output/mx6dq/lib/libsdk.a(sgtl5000.o)
 .debug_line    0x0000cd77      0x335 /home/leon/git/swp-report/iMX6_Platform_SDK/output/mx6dq/lib/libsdk.a(wm8958_dac.o)
 .debug_line    0x0000d0ac      0x2ee /home/leon/git/swp-report/iMX6_Platform_SDK/output/mx6dq/lib/libsdk.a(wm8962.o)
 .debug_line    0x0000d39a      0x278 /home/leon/git/swp-report/iMX6_Platform_SDK/output/mx6dq/lib/libsdk.a(board_id.o)
 .debug_line    0x0000d612      0x262 /home/leon/git/swp-report/iMX6_Platform_SDK/output/mx6dq/lib/libsdk.a(smd_sensor.o)
 .debug_line    0x0000d874      0x379 /home/leon/git/swp-report/iMX6_Platform_SDK/output/mx6dq/lib/libsdk.a(enet_drv.o)
 .debug_line    0x0000dbed      0x7ba /home/leon/git/swp-report/iMX6_Platform_SDK/output/mx6dq/lib/libsdk.a(gpio.o)
 .debug_line    0x0000e3a7       0xcf /home/leon/git/swp-report/iMX6_Platform_SDK/output/mx6dq/lib/libsdk.a(imx6dq_gpio_map.o)
 .debug_line    0x0000e476      0x2ca /home/leon/git/swp-report/iMX6_Platform_SDK/output/mx6dq/lib/libsdk.a(hdmi_tx.o)
 .debug_line    0x0000e740      0x2cb /home/leon/git/swp-report/iMX6_Platform_SDK/output/mx6dq/lib/libsdk.a(hdmi_tx_audio.o)
 .debug_line    0x0000ea0b      0x2ea /home/leon/git/swp-report/iMX6_Platform_SDK/output/mx6dq/lib/libsdk.a(hdmi_tx_phy.o)
 .debug_line    0x0000ecf5      0x892 /home/leon/git/swp-report/iMX6_Platform_SDK/output/mx6dq/lib/libsdk.a(imx_i2c.o)
 .debug_line    0x0000f587      0x22d /home/leon/git/swp-report/iMX6_Platform_SDK/output/mx6dq/lib/libsdk.a(ips_disp_panel.o)
 .debug_line    0x0000f7b4      0x33d /home/leon/git/swp-report/iMX6_Platform_SDK/output/mx6dq/lib/libsdk.a(ipu_common.o)
 .debug_line    0x0000faf1      0x1d0 /home/leon/git/swp-report/iMX6_Platform_SDK/output/mx6dq/lib/libsdk.a(ipu_csi.o)
 .debug_line    0x0000fcc1      0x317 /home/leon/git/swp-report/iMX6_Platform_SDK/output/mx6dq/lib/libsdk.a(ipu_dc.o)
 .debug_line    0x0000ffd8      0x24d /home/leon/git/swp-report/iMX6_Platform_SDK/output/mx6dq/lib/libsdk.a(ipu_di.o)
 .debug_line    0x00010225      0x14b /home/leon/git/swp-report/iMX6_Platform_SDK/output/mx6dq/lib/libsdk.a(ipu_dmfc.o)
 .debug_line    0x00010370      0x188 /home/leon/git/swp-report/iMX6_Platform_SDK/output/mx6dq/lib/libsdk.a(ipu_dp.o)
 .debug_line    0x000104f8      0xc78 /home/leon/git/swp-report/iMX6_Platform_SDK/output/mx6dq/lib/libsdk.a(ipu_idmac.o)
 .debug_line    0x00011170      0x18e /home/leon/git/swp-report/iMX6_Platform_SDK/output/mx6dq/lib/libsdk.a(ipu_vdi.o)
 .debug_line    0x000112fe      0x1de /home/leon/git/swp-report/iMX6_Platform_SDK/output/mx6dq/lib/libsdk.a(ldb.o)
 .debug_line    0x000114dc      0x1ad /home/leon/git/swp-report/iMX6_Platform_SDK/output/mx6dq/lib/libsdk.a(ocotp.o)
 .debug_line    0x00011689      0x5e3 /home/leon/git/swp-report/iMX6_Platform_SDK/output/mx6dq/lib/libsdk.a(sata.o)
 .debug_line    0x00011c6c      0x97c /home/leon/git/swp-report/iMX6_Platform_SDK/output/mx6dq/lib/libsdk.a(ecspi.o)
 .debug_line    0x000125e8      0x200 /home/leon/git/swp-report/iMX6_Platform_SDK/output/mx6dq/lib/libsdk.a(timer.o)
 .debug_line    0x000127e8     0x12ca /home/leon/git/swp-report/iMX6_Platform_SDK/output/mx6dq/lib/libsdk.a(imx_uart.o)
 .debug_line    0x00013ab2      0x2a8 /home/leon/git/swp-report/iMX6_Platform_SDK/output/mx6dq/lib/libsdk.a(usb_common.o)
 .debug_line    0x00013d5a     0x1252 /home/leon/git/swp-report/iMX6_Platform_SDK/output/mx6dq/lib/libsdk.a(usbh_drv.o)
 .debug_line    0x00014fac      0x37f /home/leon/git/swp-report/iMX6_Platform_SDK/output/mx6dq/lib/libsdk.a(usdhc.o)
 .debug_line    0x0001532b     0x14a4 /home/leon/git/swp-report/iMX6_Platform_SDK/output/mx6dq/lib/libsdk.a(usdhc_host.o)
 .debug_line    0x000167cf      0x348 /home/leon/git/swp-report/iMX6_Platform_SDK/output/mx6dq/lib/libsdk.a(usdhc_mmc.o)
 .debug_line    0x00016b17      0x202 /home/leon/git/swp-report/iMX6_Platform_SDK/output/mx6dq/lib/libsdk.a(usdhc_sd.o)
 .debug_line    0x00016d19      0x292 /home/leon/git/swp-report/iMX6_Platform_SDK/output/mx6dq/lib/libsdk.a(adv7180.o)
 .debug_line    0x00016fab      0x1aa /home/leon/git/swp-report/iMX6_Platform_SDK/output/mx6dq/lib/libsdk.a(armv7_cache.o)
 .debug_line    0x00017155      0x11f /home/leon/git/swp-report/iMX6_Platform_SDK/output/mx6dq/lib/libsdk.a(camera_profile.o)
 .debug_line    0x00017274      0x59e /home/leon/git/swp-report/iMX6_Platform_SDK/output/mx6dq/lib/libsdk.a(hdmi_common.o)
 .debug_line    0x00017812      0x309 /home/leon/git/swp-report/iMX6_Platform_SDK/output/mx6dq/lib/libsdk.a(ipu_ic.o)
 .debug_line    0x00017b1b      0x57f /home/leon/git/swp-report/iMX6_Platform_SDK/output/mx6dq/lib/libsdk.a(epit.o)
 .debug_line    0x0001809a      0x270 /home/leon/git/swp-report/iMX6_Platform_SDK/output/mx6dq/lib/libsdk.a(mx6x_usb.o)
 .debug_line    0x0001830a      0x24a /home/leon/git/swp-report/iMX6_Platform_SDK/output/mx6dq/lib/libsdk.a(abort_handler.o)
 .debug_line    0x00018554      0x131 /home/leon/git/swp-report/iMX6_Platform_SDK/output/mx6dq/lib/libboard_sabre_ai_rev_a.a(board_audio.o)
 .debug_line    0x00018685      0x136 /home/leon/git/swp-report/iMX6_Platform_SDK/output/mx6dq/lib/libboard_sabre_ai_rev_a.a(board_buttons.o)
 .debug_line    0x000187bb      0x240 /home/leon/git/swp-report/iMX6_Platform_SDK/output/mx6dq/lib/libboard_sabre_ai_rev_a.a(board_camera.o)
 .debug_line    0x000189fb      0x17b /home/leon/git/swp-report/iMX6_Platform_SDK/output/mx6dq/lib/libboard_sabre_ai_rev_a.a(board_display.o)
 .debug_line    0x00018b76      0x172 /home/leon/git/swp-report/iMX6_Platform_SDK/output/mx6dq/lib/libboard_sabre_ai_rev_a.a(board_hdmi.o)
 .debug_line    0x00018ce8      0x10a /home/leon/git/swp-report/iMX6_Platform_SDK/output/mx6dq/lib/libboard_sabre_ai_rev_a.a(board_i2c.o)
 .debug_line    0x00018df2      0x17e /home/leon/git/swp-report/iMX6_Platform_SDK/output/mx6dq/lib/libboard_sabre_ai_rev_a.a(board_io_expanders.o)
 .debug_line    0x00018f70      0x11f /home/leon/git/swp-report/iMX6_Platform_SDK/output/mx6dq/lib/libboard_sabre_ai_rev_a.a(board_mipi.o)
 .debug_line    0x0001908f       0xd2 /home/leon/git/swp-report/iMX6_Platform_SDK/output/mx6dq/lib/libboard_sabre_ai_rev_a.a(board_network.o)
 .debug_line    0x00019161      0x1ee /home/leon/git/swp-report/iMX6_Platform_SDK/output/mx6dq/lib/libboard_sabre_ai_rev_a.a(board_sata.o)
 .debug_line    0x0001934f       0xd8 /home/leon/git/swp-report/iMX6_Platform_SDK/output/mx6dq/lib/libboard_sabre_ai_rev_a.a(board_usb.o)
 .debug_line    0x00019427      0x1cb /home/leon/git/swp-report/iMX6_Platform_SDK/output/mx6dq/lib/libboard_sabre_ai_rev_a.a(board_usdhc.o)
 .debug_line    0x000195f2       0xc8 /home/leon/git/swp-report/iMX6_Platform_SDK/output/mx6dq/lib/libboard_sabre_ai_rev_a.a(hardware_modules.o)
 .debug_line    0x000196ba      0x10c /home/leon/git/swp-report/iMX6_Platform_SDK/output/mx6dq/lib/libboard_sabre_ai_rev_a.a(dcd.o)
 .debug_line    0x000197c6      0x12a /home/leon/git/swp-report/iMX6_Platform_SDK/output/mx6dq/lib/libboard_sabre_ai_rev_a.a(audmux_iomux_config.o)
 .debug_line    0x000198f0       0x9a /home/leon/git/swp-report/iMX6_Platform_SDK/output/mx6dq/lib/libboard_sabre_ai_rev_a.a(ecspi_iomux_config.o)
 .debug_line    0x0001998a      0x202 /home/leon/git/swp-report/iMX6_Platform_SDK/output/mx6dq/lib/libboard_sabre_ai_rev_a.a(eim_iomux_config.o)
 .debug_line    0x00019b8c      0x198 /home/leon/git/swp-report/iMX6_Platform_SDK/output/mx6dq/lib/libboard_sabre_ai_rev_a.a(enet_iomux_config.o)
 .debug_line    0x00019d24      0x14d /home/leon/git/swp-report/iMX6_Platform_SDK/output/mx6dq/lib/libboard_sabre_ai_rev_a.a(esai_iomux_config.o)
 .debug_line    0x00019e71      0x105 /home/leon/git/swp-report/iMX6_Platform_SDK/output/mx6dq/lib/libboard_sabre_ai_rev_a.a(i2c3_iomux_config.o)
 .debug_line    0x00019f76       0x95 /home/leon/git/swp-report/iMX6_Platform_SDK/output/mx6dq/lib/libboard_sabre_ai_rev_a.a(i2c_iomux_config.o)
 .debug_line    0x0001a00b       0xf1 /home/leon/git/swp-report/iMX6_Platform_SDK/output/mx6dq/lib/libboard_sabre_ai_rev_a.a(iomux_config.o)
 .debug_line    0x0001a0fc      0x1f1 /home/leon/git/swp-report/iMX6_Platform_SDK/output/mx6dq/lib/libboard_sabre_ai_rev_a.a(ipu1_iomux_config.o)
 .debug_line    0x0001a2ed       0x94 /home/leon/git/swp-report/iMX6_Platform_SDK/output/mx6dq/lib/libboard_sabre_ai_rev_a.a(ipu_iomux_config.o)
 .debug_line    0x0001a381      0x10d /home/leon/git/swp-report/iMX6_Platform_SDK/output/mx6dq/lib/libboard_sabre_ai_rev_a.a(mlb_iomux_config.o)
 .debug_line    0x0001a48e      0x685 /home/leon/git/swp-report/iMX6_Platform_SDK/output/mx6dq/lib/libboard_sabre_ai_rev_a.a(mmdc_iomux_config.o)
 .debug_line    0x0001ab13       0xfb /home/leon/git/swp-report/iMX6_Platform_SDK/output/mx6dq/lib/libboard_sabre_ai_rev_a.a(pwm3_iomux_config.o)
 .debug_line    0x0001ac0e       0xfb /home/leon/git/swp-report/iMX6_Platform_SDK/output/mx6dq/lib/libboard_sabre_ai_rev_a.a(pwm4_iomux_config.o)
 .debug_line    0x0001ad09      0x104 /home/leon/git/swp-report/iMX6_Platform_SDK/output/mx6dq/lib/libboard_sabre_ai_rev_a.a(sjc_iomux_config.o)
 .debug_line    0x0001ae0d       0xfd /home/leon/git/swp-report/iMX6_Platform_SDK/output/mx6dq/lib/libboard_sabre_ai_rev_a.a(spdif_iomux_config.o)
 .debug_line    0x0001af0a      0x118 /home/leon/git/swp-report/iMX6_Platform_SDK/output/mx6dq/lib/libboard_sabre_ai_rev_a.a(uart2_iomux_config.o)
 .debug_line    0x0001b022      0x118 /home/leon/git/swp-report/iMX6_Platform_SDK/output/mx6dq/lib/libboard_sabre_ai_rev_a.a(uart3_iomux_config.o)
 .debug_line    0x0001b13a      0x106 /home/leon/git/swp-report/iMX6_Platform_SDK/output/mx6dq/lib/libboard_sabre_ai_rev_a.a(uart4_iomux_config.o)
 .debug_line    0x0001b240       0x99 /home/leon/git/swp-report/iMX6_Platform_SDK/output/mx6dq/lib/libboard_sabre_ai_rev_a.a(uart_iomux_config.o)
 .debug_line    0x0001b2d9      0x139 /home/leon/git/swp-report/iMX6_Platform_SDK/output/mx6dq/lib/libboard_sabre_ai_rev_a.a(usdhc1_iomux_config.o)
 .debug_line    0x0001b412      0x13f /home/leon/git/swp-report/iMX6_Platform_SDK/output/mx6dq/lib/libboard_sabre_ai_rev_a.a(usdhc3_iomux_config.o)
 .debug_line    0x0001b551       0x99 /home/leon/git/swp-report/iMX6_Platform_SDK/output/mx6dq/lib/libboard_sabre_ai_rev_a.a(usdhc_iomux_config.o)
 .debug_line    0x0001b5ea       0xfc /home/leon/git/swp-report/iMX6_Platform_SDK/output/mx6dq/lib/libboard_sabre_ai_rev_a.a(wdog1_iomux_config.o)
 .debug_line    0x0001b6e6       0xf8 /home/leon/git/swp-report/iMX6_Platform_SDK/output/mx6dq/lib/libboard_sabre_ai_rev_a.a(ccm_iomux_config.o)
 .debug_line    0x0001b7de      0x11f /home/leon/git/swp-report/iMX6_Platform_SDK/output/mx6dq/lib/libboard_sabre_ai_rev_a.a(ecspi1_iomux_config.o)
 .debug_line    0x0001b8fd      0x108 /home/leon/git/swp-report/iMX6_Platform_SDK/output/mx6dq/lib/libboard_sabre_ai_rev_a.a(flexcan1_iomux_config.o)
 .debug_line    0x0001ba05      0x108 /home/leon/git/swp-report/iMX6_Platform_SDK/output/mx6dq/lib/libboard_sabre_ai_rev_a.a(flexcan2_iomux_config.o)
 .debug_line    0x0001bb0d      0x124 /home/leon/git/swp-report/iMX6_Platform_SDK/output/mx6dq/lib/libboard_sabre_ai_rev_a.a(gpio1_iomux_config.o)
 .debug_line    0x0001bc31      0x120 /home/leon/git/swp-report/iMX6_Platform_SDK/output/mx6dq/lib/libboard_sabre_ai_rev_a.a(gpio2_iomux_config.o)
 .debug_line    0x0001bd51       0xfc /home/leon/git/swp-report/iMX6_Platform_SDK/output/mx6dq/lib/libboard_sabre_ai_rev_a.a(gpio4_iomux_config.o)
 .debug_line    0x0001be4d      0x114 /home/leon/git/swp-report/iMX6_Platform_SDK/output/mx6dq/lib/libboard_sabre_ai_rev_a.a(gpio5_iomux_config.o)
 .debug_line    0x0001bf61      0x102 /home/leon/git/swp-report/iMX6_Platform_SDK/output/mx6dq/lib/libboard_sabre_ai_rev_a.a(gpio6_iomux_config.o)
 .debug_line    0x0001c063      0x15b /home/leon/git/swp-report/iMX6_Platform_SDK/output/mx6dq/lib/libboard_sabre_ai_rev_a.a(gpmi_iomux_config.o)
 .debug_line    0x0001c1be      0x105 /home/leon/git/swp-report/iMX6_Platform_SDK/output/mx6dq/lib/libboard_sabre_ai_rev_a.a(i2c2_iomux_config.o)
 .debug_line    0x0001c2c3      0x234 /home/leon/git/swp-report/iMX6_Platform_SDK/output/mx6dq/lib/libsdk.a(runtime_support.o)

.debug_str      0x00000000    0x268b2
 .debug_str     0x00000000      0x150 /home/leon/git/swp-report/iMX6_Platform_SDK/output/mx6dq/obds/sabre_ai_rev_a/obj/apps/common/ivt.o
                                0x1ad (size before relaxing)
 .debug_str     0x00000150      0x146 /home/leon/git/swp-report/iMX6_Platform_SDK/output/mx6dq/obds/sabre_ai_rev_a/obj/apps/common/platform_init.o
                                0x1f5 (size before relaxing)
 .debug_str     0x00000296      0x170 /home/leon/git/swp-report/iMX6_Platform_SDK/output/mx6dq/obds/sabre_ai_rev_a/obj/apps/common/print_clock_info.o
                                0x277 (size before relaxing)
 .debug_str     0x00000406      0x11a /home/leon/git/swp-report/iMX6_Platform_SDK/output/mx6dq/obds/sabre_ai_rev_a/obj/apps/common/print_version.o
                                0x20c (size before relaxing)
 .debug_str     0x00000520      0x8b4 /home/leon/git/swp-report/iMX6_Platform_SDK/output/mx6dq/obds/sabre_ai_rev_a/obj/apps/obds/src/obds.o
                                0xaec (size before relaxing)
 .debug_str     0x00000dd4       0xd4 /home/leon/git/swp-report/iMX6_Platform_SDK/output/mx6dq/obds/sabre_ai_rev_a/obj/apps/obds/src/obds_utils.o
                                0x1bc (size before relaxing)
 .debug_str     0x00000ea8      0x4d6 /home/leon/git/swp-report/iMX6_Platform_SDK/output/mx6dq/obds/sabre_ai_rev_a/obj/apps/obds/src/tests/android_buttons_test.o
                                0x67c (size before relaxing)
 .debug_str     0x0000137e      0x3d6 /home/leon/git/swp-report/iMX6_Platform_SDK/output/mx6dq/obds/sabre_ai_rev_a/obj/apps/obds/src/tests/audio_esai_test.o
                                0x98c (size before relaxing)
 .debug_str     0x00001754       0xdb /home/leon/git/swp-report/iMX6_Platform_SDK/output/mx6dq/obds/sabre_ai_rev_a/obj/apps/obds/src/tests/audio_ssi_test.o
                                0x9d5 (size before relaxing)
 .debug_str     0x0000182f      0x1bb /home/leon/git/swp-report/iMX6_Platform_SDK/output/mx6dq/obds/sabre_ai_rev_a/obj/apps/obds/src/tests/ddr_test.o
                                0x357 (size before relaxing)
 .debug_str     0x000019ea       0xc4 /home/leon/git/swp-report/iMX6_Platform_SDK/output/mx6dq/obds/sabre_ai_rev_a/obj/apps/obds/src/tests/deserializer_ds90ur124.o
                                0x290 (size before relaxing)
 .debug_str     0x00001aae      0x50a /home/leon/git/swp-report/iMX6_Platform_SDK/output/mx6dq/obds/sabre_ai_rev_a/obj/apps/obds/src/tests/display_test.o
                                0xb45 (size before relaxing)
 .debug_str     0x00001fb8      0xe76 /home/leon/git/swp-report/iMX6_Platform_SDK/output/mx6dq/obds/sabre_ai_rev_a/obj/apps/obds/src/tests/enet_mx6dldq_test.o
                               0x10d8 (size before relaxing)
 .debug_str     0x00002e2e       0x6c /home/leon/git/swp-report/iMX6_Platform_SDK/output/mx6dq/obds/sabre_ai_rev_a/obj/apps/obds/src/tests/flexcan_test.o
                                0x1f1 (size before relaxing)
 .debug_str     0x00002e9a      0x12d /home/leon/git/swp-report/iMX6_Platform_SDK/output/mx6dq/obds/sabre_ai_rev_a/obj/apps/obds/src/tests/fm_tuner_si476x_test.o
                                0x2fd (size before relaxing)
 .debug_str     0x00002fc7       0xf9 /home/leon/git/swp-report/iMX6_Platform_SDK/output/mx6dq/obds/sabre_ai_rev_a/obj/apps/obds/src/tests/gpio_led.o
                                0x65d (size before relaxing)
 .debug_str     0x000030c0       0x72 /home/leon/git/swp-report/iMX6_Platform_SDK/output/mx6dq/obds/sabre_ai_rev_a/obj/apps/obds/src/tests/gps_test.o
                                0x28e (size before relaxing)
 .debug_str     0x00003132      0x1bb /home/leon/git/swp-report/iMX6_Platform_SDK/output/mx6dq/obds/sabre_ai_rev_a/obj/apps/obds/src/tests/i2c_check_light_sensor_isl29023.o
                                0x7e4 (size before relaxing)
 .debug_str     0x000032ed       0xd8 /home/leon/git/swp-report/iMX6_Platform_SDK/output/mx6dq/obds/sabre_ai_rev_a/obj/apps/obds/src/tests/i2c_device_barometer_ppl3115.o
                                0x3d3 (size before relaxing)
 .debug_str     0x000033c5       0x74 /home/leon/git/swp-report/iMX6_Platform_SDK/output/mx6dq/obds/sabre_ai_rev_a/obj/apps/obds/src/tests/i2c_device_check_cs42888.o
                                0x582 (size before relaxing)
 .debug_str     0x00003439       0xa8 /home/leon/git/swp-report/iMX6_Platform_SDK/output/mx6dq/obds/sabre_ai_rev_a/obj/apps/obds/src/tests/i2c_device_digital_compass_mag3110.o
                                0x3c4 (size before relaxing)
 .debug_str     0x000034e1       0xb4 /home/leon/git/swp-report/iMX6_Platform_SDK/output/mx6dq/obds/sabre_ai_rev_a/obj/apps/obds/src/tests/i2c_device_digital_compass_mag3112.o
                                0x3c4 (size before relaxing)
 .debug_str     0x00003595      0x139 /home/leon/git/swp-report/iMX6_Platform_SDK/output/mx6dq/obds/sabre_ai_rev_a/obj/apps/obds/src/tests/i2c_device_id_check_mma8450.o
                                0x7fb (size before relaxing)
 .debug_str     0x000036ce       0xd5 /home/leon/git/swp-report/iMX6_Platform_SDK/output/mx6dq/obds/sabre_ai_rev_a/obj/apps/obds/src/tests/i2c_device_id_check_mma8451.o
                                0x7fb (size before relaxing)
 .debug_str     0x000037a3      0x11f /home/leon/git/swp-report/iMX6_Platform_SDK/output/mx6dq/obds/sabre_ai_rev_a/obj/apps/obds/src/tests/i2c_device_id_check_p1003_tsc.o
                                0x781 (size before relaxing)
 .debug_str     0x000038c2      0x1c5 /home/leon/git/swp-report/iMX6_Platform_SDK/output/mx6dq/obds/sabre_ai_rev_a/obj/apps/obds/src/tests/i2c_device_temp_sensor_emc1046.o
                                0x4ca (size before relaxing)
 .debug_str     0x00003a87       0xba /home/leon/git/swp-report/iMX6_Platform_SDK/output/mx6dq/obds/sabre_ai_rev_a/obj/apps/obds/src/tests/i2c_device_zigbee_mc1323.o
                                0x3c6 (size before relaxing)
 .debug_str     0x00003b41       0xb7 /home/leon/git/swp-report/iMX6_Platform_SDK/output/mx6dq/obds/sabre_ai_rev_a/obj/apps/obds/src/tests/i2c_eeprom_at24cxx_test.o
                                0x30f (size before relaxing)
 .debug_str     0x00003bf8      0x214 /home/leon/git/swp-report/iMX6_Platform_SDK/output/mx6dq/obds/sabre_ai_rev_a/obj/apps/obds/src/tests/imx_spi_nor_test.o
                                0x449 (size before relaxing)
 .debug_str     0x00003e0c       0xef /home/leon/git/swp-report/iMX6_Platform_SDK/output/mx6dq/obds/sabre_ai_rev_a/obj/apps/obds/src/tests/mlb_os81050.o
                                0x32f (size before relaxing)
 .debug_str     0x00003efb       0xa1 /home/leon/git/swp-report/iMX6_Platform_SDK/output/mx6dq/obds/sabre_ai_rev_a/obj/apps/obds/src/tests/mmcsd_test.o
                                0x23e (size before relaxing)
 .debug_str     0x00003f9c       0xae /home/leon/git/swp-report/iMX6_Platform_SDK/output/mx6dq/obds/sabre_ai_rev_a/obj/apps/obds/src/tests/pmic_da9053.o
                                0x2ff (size before relaxing)
 .debug_str     0x0000404a      0x115 /home/leon/git/swp-report/iMX6_Platform_SDK/output/mx6dq/obds/sabre_ai_rev_a/obj/apps/obds/src/tests/pmic_lt3589.o
                                0x72d (size before relaxing)
 .debug_str     0x0000415f       0xe8 /home/leon/git/swp-report/iMX6_Platform_SDK/output/mx6dq/obds/sabre_ai_rev_a/obj/apps/obds/src/tests/pmic_max17135.o
                                0x336 (size before relaxing)
 .debug_str     0x00004247       0xda /home/leon/git/swp-report/iMX6_Platform_SDK/output/mx6dq/obds/sabre_ai_rev_a/obj/apps/obds/src/tests/pmic_mc13892.o
                                0x255 (size before relaxing)
 .debug_str     0x00004321       0xad /home/leon/git/swp-report/iMX6_Platform_SDK/output/mx6dq/obds/sabre_ai_rev_a/obj/apps/obds/src/tests/program_board_id.o
                                0x36f (size before relaxing)
 .debug_str     0x000043ce      0x180 /home/leon/git/swp-report/iMX6_Platform_SDK/output/mx6dq/obds/sabre_ai_rev_a/obj/apps/obds/src/tests/program_mac_address.o
                                0x764 (size before relaxing)
 .debug_str     0x0000454e      0x285 /home/leon/git/swp-report/iMX6_Platform_SDK/output/mx6dq/obds/sabre_ai_rev_a/obj/apps/obds/src/tests/snvs_srtc_test.o
                                0x46a (size before relaxing)
 .debug_str     0x000047d3       0xdc /home/leon/git/swp-report/iMX6_Platform_SDK/output/mx6dq/obds/sabre_ai_rev_a/obj/apps/obds/src/tests/touch_screen.o
                                0x70c (size before relaxing)
 .debug_str     0x000048af      0x137 /home/leon/git/swp-report/iMX6_Platform_SDK/output/mx6dq/obds/sabre_ai_rev_a/obj/apps/obds/src/tests/touch_screen_max11801.o
                                0x855 (size before relaxing)
 .debug_str     0x000049e6      0x5fc /home/leon/git/swp-report/iMX6_Platform_SDK/output/mx6dq/obds/sabre_ai_rev_a/obj/apps/obds/src/tests/usb_tests_obds.o
                                0x7cd (size before relaxing)
 .debug_str     0x00004fe2       0x72 /home/leon/git/swp-report/iMX6_Platform_SDK/output/mx6dq/obds/sabre_ai_rev_a/obj/apps/obds/src/tests/video_dec_ARD_MB_reset_button.o
                                0x212 (size before relaxing)
 .debug_str     0x00005054       0x83 /home/leon/git/swp-report/iMX6_Platform_SDK/output/mx6dq/obds/sabre_ai_rev_a/obj/apps/obds/src/tests/video_dec_ARD_MBrst_from_cpu_expander.o
                                0x21d (size before relaxing)
 .debug_str     0x000050d7      0x12b /home/leon/git/swp-report/iMX6_Platform_SDK/output/mx6dq/obds/sabre_ai_rev_a/obj/apps/obds/src/tests/video_dec_adv7180.o
                                0x753 (size before relaxing)
 .debug_str     0x00005202       0xae /home/leon/git/swp-report/iMX6_Platform_SDK/output/mx6dq/obds/sabre_ai_rev_a/obj/apps/obds/src/tests/weim_nor_flash_test.o
                                0x250 (size before relaxing)
 .debug_str     0x000052b0       0xe7 /home/leon/git/swp-report/iMX6_Platform_SDK/output/mx6dq/obds/sabre_ai_rev_a/obj/sdk/common/ioexpander/test/max7310_test.o
                                0x303 (size before relaxing)
 .debug_str     0x00005397      0x172 /home/leon/git/swp-report/iMX6_Platform_SDK/output/mx6dq/obds/sabre_ai_rev_a/obj/sdk/common/pmic/pfuse/pf0100.o
                                0x3ab (size before relaxing)
 .debug_str     0x00005509      0x19e /home/leon/git/swp-report/iMX6_Platform_SDK/output/mx6dq/obds/sabre_ai_rev_a/obj/sdk/drivers/audio/src/snd_card.o
                                0x5fb (size before relaxing)
 .debug_str     0x000056a7      0x1f8 /home/leon/git/swp-report/iMX6_Platform_SDK/output/mx6dq/obds/sabre_ai_rev_a/obj/sdk/drivers/camera/test/adv7180_capture.o
                                0x826 (size before relaxing)
 .debug_str     0x0000589f       0xac /home/leon/git/swp-report/iMX6_Platform_SDK/output/mx6dq/obds/sabre_ai_rev_a/obj/sdk/drivers/camera/test/camera_test.o
                                0x5f7 (size before relaxing)
 .debug_str     0x0000594b       0x62 /home/leon/git/swp-report/iMX6_Platform_SDK/output/mx6dq/obds/sabre_ai_rev_a/obj/sdk/drivers/camera/test/csi_test_mode.o
                                0x784 (size before relaxing)
 .debug_str     0x000059ad      0x145 /home/leon/git/swp-report/iMX6_Platform_SDK/output/mx6dq/obds/sabre_ai_rev_a/obj/sdk/drivers/camera/test/sensor_capture.o
                                0x8a3 (size before relaxing)
 .debug_str     0x00005af2     0x12e5 /home/leon/git/swp-report/iMX6_Platform_SDK/output/mx6dq/obds/sabre_ai_rev_a/obj/sdk/drivers/hdmi/test/hdmi_test.o
                               0x1613 (size before relaxing)
 .debug_str     0x00006dd7      0x13f /home/leon/git/swp-report/iMX6_Platform_SDK/output/mx6dq/obds/sabre_ai_rev_a/obj/sdk/drivers/hdmi/test/init_dma_data.o
                                0x2b0 (size before relaxing)
 .debug_str     0x00006f16      0x239 /home/leon/git/swp-report/iMX6_Platform_SDK/output/mx6dq/obds/sabre_ai_rev_a/obj/sdk/drivers/ipu/test/ips_display.o
                                0x92c (size before relaxing)
 .debug_str     0x0000714f      0x108 /home/leon/git/swp-report/iMX6_Platform_SDK/output/mx6dq/obds/sabre_ai_rev_a/obj/sdk/drivers/ipu/test/ipu_image.o
                                0x33d (size before relaxing)
 .debug_str     0x00007257      0x19c /home/leon/git/swp-report/iMX6_Platform_SDK/output/mx6dq/obds/sabre_ai_rev_a/obj/sdk/drivers/sata/test/sata_test.o
                                0x6d6 (size before relaxing)
 .debug_str     0x000073f3      0x1c2 /home/leon/git/swp-report/iMX6_Platform_SDK/output/mx6dq/obds/sabre_ai_rev_a/obj/sdk/drivers/spi/test/imx_spi_nor_atmel.o
                                0x31f (size before relaxing)
 .debug_str     0x000075b5      0x115 /home/leon/git/swp-report/iMX6_Platform_SDK/output/mx6dq/obds/sabre_ai_rev_a/obj/sdk/drivers/spi/test/spi_nor_numonyx.o
                                0x2af (size before relaxing)
 .debug_str     0x000076ca       0xfc /home/leon/git/swp-report/iMX6_Platform_SDK/output/mx6dq/obds/sabre_ai_rev_a/obj/sdk/drivers/uart/test/uart_test.o
                                0x6aa (size before relaxing)
 .debug_str     0x000077c6      0x3bd /home/leon/git/swp-report/iMX6_Platform_SDK/output/mx6dq/obds/sabre_ai_rev_a/obj/sdk/drivers/usb/test/usb0_host_test.o
                                0xa0b (size before relaxing)
 .debug_str     0x00007b83       0x84 /home/leon/git/swp-report/iMX6_Platform_SDK/output/mx6dq/obds/sabre_ai_rev_a/obj/sdk/drivers/usb/test/usb0_host_testmodes_test.o
                                0x370 (size before relaxing)
 .debug_str     0x00007c07      0x1aa /home/leon/git/swp-report/iMX6_Platform_SDK/output/mx6dq/obds/sabre_ai_rev_a/obj/sdk/drivers/usdhc/test/usdhc_test.o
                                0x6cf (size before relaxing)
 .debug_str     0x00007db1       0xfd /home/leon/git/swp-report/iMX6_Platform_SDK/output/mx6dq/lib/libsdk.a(max7310.o)
                                0x2ab (size before relaxing)
 .debug_str     0x00007eae      0xe8e /home/leon/git/swp-report/iMX6_Platform_SDK/output/mx6dq/lib/libsdk.a(ccm_pll.o)
                               0x10fc (size before relaxing)
 .debug_str     0x00008d3c      0x495 /home/leon/git/swp-report/iMX6_Platform_SDK/output/mx6dq/lib/libsdk.a(gic.o)
                                0x5f2 (size before relaxing)
 .debug_str     0x000091d1       0xd7 /home/leon/git/swp-report/iMX6_Platform_SDK/output/mx6dq/lib/libsdk.a(interrupt.o)
                                0xc85 (size before relaxing)
 .debug_str     0x000092a8      0x256 /home/leon/git/swp-report/iMX6_Platform_SDK/output/mx6dq/lib/libsdk.a(mmu.o)
                                0x35e (size before relaxing)
 .debug_str     0x000094fe      0x227 /home/leon/git/swp-report/iMX6_Platform_SDK/output/mx6dq/lib/libsdk.a(menu.o)
                                0x85d (size before relaxing)
 .debug_str     0x00009725       0x4a /home/leon/git/swp-report/iMX6_Platform_SDK/output/mx6dq/lib/libsdk.a(sdk_version.o)
                                 0x82 (size before relaxing)
 .debug_str     0x0000976f      0x10f /home/leon/git/swp-report/iMX6_Platform_SDK/output/mx6dq/lib/libsdk.a(system_util.o)
                                0x7ac (size before relaxing)
 .debug_str     0x0000987e      0x14a /home/leon/git/swp-report/iMX6_Platform_SDK/output/mx6dq/lib/libsdk.a(text_color.o)
                                0x305 (size before relaxing)
 .debug_str     0x000099c8       0xed /home/leon/git/swp-report/iMX6_Platform_SDK/output/mx6dq/lib/libsdk.a(cs42888.o)
                                0x59a (size before relaxing)
 .debug_str     0x00009ab5      0x9af /home/leon/git/swp-report/iMX6_Platform_SDK/output/mx6dq/lib/libsdk.a(imx-ssi.o)
                                0xe07 (size before relaxing)
 .debug_str     0x0000a464      0x7af /home/leon/git/swp-report/iMX6_Platform_SDK/output/mx6dq/lib/libsdk.a(imx_esai.o)
                                0xc28 (size before relaxing)
 .debug_str     0x0000ac13      0x81f /home/leon/git/swp-report/iMX6_Platform_SDK/output/mx6dq/lib/libsdk.a(imx_spdif.o)
                                0xcb0 (size before relaxing)
 .debug_str     0x0000b432      0x17a /home/leon/git/swp-report/iMX6_Platform_SDK/output/mx6dq/lib/libsdk.a(sgtl5000.o)
                                0x675 (size before relaxing)
 .debug_str     0x0000b5ac      0x171 /home/leon/git/swp-report/iMX6_Platform_SDK/output/mx6dq/lib/libsdk.a(wm8958_dac.o)
                                0x623 (size before relaxing)
 .debug_str     0x0000b71d      0x124 /home/leon/git/swp-report/iMX6_Platform_SDK/output/mx6dq/lib/libsdk.a(wm8962.o)
                                0x5d6 (size before relaxing)
 .debug_str     0x0000b841      0x204 /home/leon/git/swp-report/iMX6_Platform_SDK/output/mx6dq/lib/libsdk.a(board_id.o)
                                0x3d2 (size before relaxing)
 .debug_str     0x0000ba45      0x260 /home/leon/git/swp-report/iMX6_Platform_SDK/output/mx6dq/lib/libsdk.a(smd_sensor.o)
                                0x524 (size before relaxing)
 .debug_str     0x0000bca5      0x2ba /home/leon/git/swp-report/iMX6_Platform_SDK/output/mx6dq/lib/libsdk.a(enet_drv.o)
                               0x1153 (size before relaxing)
 .debug_str     0x0000bf5f      0x36d /home/leon/git/swp-report/iMX6_Platform_SDK/output/mx6dq/lib/libsdk.a(gpio.o)
                                0x48b (size before relaxing)
 .debug_str     0x0000c2cc       0x53 /home/leon/git/swp-report/iMX6_Platform_SDK/output/mx6dq/lib/libsdk.a(imx6dq_gpio_map.o)
                                0x10a (size before relaxing)
 .debug_str     0x0000c31f     0x1b0d /home/leon/git/swp-report/iMX6_Platform_SDK/output/mx6dq/lib/libsdk.a(hdmi_tx.o)
                               0x1f9b (size before relaxing)
 .debug_str     0x0000de2c      0xb79 /home/leon/git/swp-report/iMX6_Platform_SDK/output/mx6dq/lib/libsdk.a(hdmi_tx_audio.o)
                                0xd5b (size before relaxing)
 .debug_str     0x0000e9a5      0x8d9 /home/leon/git/swp-report/iMX6_Platform_SDK/output/mx6dq/lib/libsdk.a(hdmi_tx_phy.o)
                                0xa56 (size before relaxing)
 .debug_str     0x0000f27e      0x2ee /home/leon/git/swp-report/iMX6_Platform_SDK/output/mx6dq/lib/libsdk.a(imx_i2c.o)
                               0x1099 (size before relaxing)
 .debug_str     0x0000f56c      0x3e3 /home/leon/git/swp-report/iMX6_Platform_SDK/output/mx6dq/lib/libsdk.a(ips_disp_panel.o)
                                0x66a (size before relaxing)
 .debug_str     0x0000f94f      0x4eb /home/leon/git/swp-report/iMX6_Platform_SDK/output/mx6dq/lib/libsdk.a(ipu_common.o)
                                0xa48 (size before relaxing)
 .debug_str     0x0000fe3a      0x238 /home/leon/git/swp-report/iMX6_Platform_SDK/output/mx6dq/lib/libsdk.a(ipu_csi.o)
                                0x430 (size before relaxing)
 .debug_str     0x00010072      0x22e /home/leon/git/swp-report/iMX6_Platform_SDK/output/mx6dq/lib/libsdk.a(ipu_dc.o)
                                0x442 (size before relaxing)
 .debug_str     0x000102a0      0x29f /home/leon/git/swp-report/iMX6_Platform_SDK/output/mx6dq/lib/libsdk.a(ipu_di.o)
                                0x4f1 (size before relaxing)
 .debug_str     0x0001053f       0x70 /home/leon/git/swp-report/iMX6_Platform_SDK/output/mx6dq/lib/libsdk.a(ipu_dmfc.o)
                                0x399 (size before relaxing)
 .debug_str     0x000105af       0x9e /home/leon/git/swp-report/iMX6_Platform_SDK/output/mx6dq/lib/libsdk.a(ipu_dp.o)
                                0x1e2 (size before relaxing)
 .debug_str     0x0001064d      0x37f /home/leon/git/swp-report/iMX6_Platform_SDK/output/mx6dq/lib/libsdk.a(ipu_idmac.o)
                                0x88f (size before relaxing)
 .debug_str     0x000109cc      0x2f8 /home/leon/git/swp-report/iMX6_Platform_SDK/output/mx6dq/lib/libsdk.a(ipu_vdi.o)
                                0x942 (size before relaxing)
 .debug_str     0x00010cc4      0x1a4 /home/leon/git/swp-report/iMX6_Platform_SDK/output/mx6dq/lib/libsdk.a(ldb.o)
                                0x42f (size before relaxing)
 .debug_str     0x00010e68      0x2df /home/leon/git/swp-report/iMX6_Platform_SDK/output/mx6dq/lib/libsdk.a(ocotp.o)
                                0x3d6 (size before relaxing)
 .debug_str     0x00011147     0x1495 /home/leon/git/swp-report/iMX6_Platform_SDK/output/mx6dq/lib/libsdk.a(sata.o)
                               0x175b (size before relaxing)
 .debug_str     0x000125dc      0x2e1 /home/leon/git/swp-report/iMX6_Platform_SDK/output/mx6dq/lib/libsdk.a(ecspi.o)
                                0x4a7 (size before relaxing)
 .debug_str     0x000128bd      0x2bd /home/leon/git/swp-report/iMX6_Platform_SDK/output/mx6dq/lib/libsdk.a(timer.o)
                                0x3f8 (size before relaxing)
 .debug_str     0x00012b7a      0x549 /home/leon/git/swp-report/iMX6_Platform_SDK/output/mx6dq/lib/libsdk.a(imx_uart.o)
                               0x12ee (size before relaxing)
 .debug_str     0x000130c3       0xca /home/leon/git/swp-report/iMX6_Platform_SDK/output/mx6dq/lib/libsdk.a(usb_common.o)
                                0x79d (size before relaxing)
 .debug_str     0x0001318d      0x581 /home/leon/git/swp-report/iMX6_Platform_SDK/output/mx6dq/lib/libsdk.a(usbh_drv.o)
                                0xaab (size before relaxing)
 .debug_str     0x0001370e      0x556 /home/leon/git/swp-report/iMX6_Platform_SDK/output/mx6dq/lib/libsdk.a(usdhc.o)
                               0x1201 (size before relaxing)
 .debug_str     0x00013c64      0xb3c /home/leon/git/swp-report/iMX6_Platform_SDK/output/mx6dq/lib/libsdk.a(usdhc_host.o)
                                0xfad (size before relaxing)
 .debug_str     0x000147a0      0x224 /home/leon/git/swp-report/iMX6_Platform_SDK/output/mx6dq/lib/libsdk.a(usdhc_mmc.o)
                                0x72e (size before relaxing)
 .debug_str     0x000149c4       0xae /home/leon/git/swp-report/iMX6_Platform_SDK/output/mx6dq/lib/libsdk.a(usdhc_sd.o)
                                0x58d (size before relaxing)
 .debug_str     0x00014a72      0x18d /home/leon/git/swp-report/iMX6_Platform_SDK/output/mx6dq/lib/libsdk.a(adv7180.o)
                                0x45a (size before relaxing)
 .debug_str     0x00014bff      0x1f1 /home/leon/git/swp-report/iMX6_Platform_SDK/output/mx6dq/lib/libsdk.a(armv7_cache.o)
                                0x2aa (size before relaxing)
 .debug_str     0x00014df0      0x1c6 /home/leon/git/swp-report/iMX6_Platform_SDK/output/mx6dq/lib/libsdk.a(camera_profile.o)
                                0x4be (size before relaxing)
 .debug_str     0x00014fb6       0xbd /home/leon/git/swp-report/iMX6_Platform_SDK/output/mx6dq/lib/libsdk.a(hdmi_common.o)
                                0x39d (size before relaxing)
 .debug_str     0x00015073      0x2ba /home/leon/git/swp-report/iMX6_Platform_SDK/output/mx6dq/lib/libsdk.a(ipu_ic.o)
                                0x581 (size before relaxing)
 .debug_str     0x0001532d      0x27c /home/leon/git/swp-report/iMX6_Platform_SDK/output/mx6dq/lib/libsdk.a(epit.o)
                                0xf06 (size before relaxing)
 .debug_str     0x000155a9      0x1b0 /home/leon/git/swp-report/iMX6_Platform_SDK/output/mx6dq/lib/libsdk.a(mx6x_usb.o)
                                0x3df (size before relaxing)
 .debug_str     0x00015759       0xbc /home/leon/git/swp-report/iMX6_Platform_SDK/output/mx6dq/lib/libsdk.a(abort_handler.o)
                                0x1a1 (size before relaxing)
 .debug_str     0x00015815      0x1c1 /home/leon/git/swp-report/iMX6_Platform_SDK/output/mx6dq/lib/libboard_sabre_ai_rev_a.a(board_audio.o)
                                0x33d (size before relaxing)
 .debug_str     0x000159d6      0x2bc /home/leon/git/swp-report/iMX6_Platform_SDK/output/mx6dq/lib/libboard_sabre_ai_rev_a.a(board_buttons.o)
                                0x41c (size before relaxing)
 .debug_str     0x00015c92      0xea7 /home/leon/git/swp-report/iMX6_Platform_SDK/output/mx6dq/lib/libboard_sabre_ai_rev_a.a(board_camera.o)
                               0x1183 (size before relaxing)
 .debug_str     0x00016b39      0x132 /home/leon/git/swp-report/iMX6_Platform_SDK/output/mx6dq/lib/libboard_sabre_ai_rev_a.a(board_display.o)
                                0x517 (size before relaxing)
 .debug_str     0x00016c6b      0x5ff /home/leon/git/swp-report/iMX6_Platform_SDK/output/mx6dq/lib/libboard_sabre_ai_rev_a.a(board_hdmi.o)
                                0x96e (size before relaxing)
 .debug_str     0x0001726a       0x5a /home/leon/git/swp-report/iMX6_Platform_SDK/output/mx6dq/lib/libboard_sabre_ai_rev_a.a(board_i2c.o)
                                0x29f (size before relaxing)
 .debug_str     0x000172c4       0x82 /home/leon/git/swp-report/iMX6_Platform_SDK/output/mx6dq/lib/libboard_sabre_ai_rev_a.a(board_io_expanders.o)
                                0x297 (size before relaxing)
 .debug_str     0x00017346      0x108 /home/leon/git/swp-report/iMX6_Platform_SDK/output/mx6dq/lib/libboard_sabre_ai_rev_a.a(board_mipi.o)
                                0x49f (size before relaxing)
 .debug_str     0x0001744e       0xa1 /home/leon/git/swp-report/iMX6_Platform_SDK/output/mx6dq/lib/libboard_sabre_ai_rev_a.a(board_network.o)
                                0x1d5 (size before relaxing)
 .debug_str     0x000174ef      0x162 /home/leon/git/swp-report/iMX6_Platform_SDK/output/mx6dq/lib/libboard_sabre_ai_rev_a.a(board_sata.o)
                                0x3d5 (size before relaxing)
 .debug_str     0x00017651       0x70 /home/leon/git/swp-report/iMX6_Platform_SDK/output/mx6dq/lib/libboard_sabre_ai_rev_a.a(board_usb.o)
                                0x1da (size before relaxing)
 .debug_str     0x000176c1       0x83 /home/leon/git/swp-report/iMX6_Platform_SDK/output/mx6dq/lib/libboard_sabre_ai_rev_a.a(board_usdhc.o)
                                0x292 (size before relaxing)
 .debug_str     0x00017744       0x4c /home/leon/git/swp-report/iMX6_Platform_SDK/output/mx6dq/lib/libboard_sabre_ai_rev_a.a(hardware_modules.o)
                                0x152 (size before relaxing)
 .debug_str     0x00017790       0xae /home/leon/git/swp-report/iMX6_Platform_SDK/output/mx6dq/lib/libboard_sabre_ai_rev_a.a(dcd.o)
                                0x15d (size before relaxing)
 .debug_str     0x0001783e      0x8d9 /home/leon/git/swp-report/iMX6_Platform_SDK/output/mx6dq/lib/libboard_sabre_ai_rev_a.a(audmux_iomux_config.o)
                                0x95c (size before relaxing)
 .debug_str     0x00018117       0xc2 /home/leon/git/swp-report/iMX6_Platform_SDK/output/mx6dq/lib/libboard_sabre_ai_rev_a.a(ecspi_iomux_config.o)
                                0x178 (size before relaxing)
 .debug_str     0x000181d9     0x29cd /home/leon/git/swp-report/iMX6_Platform_SDK/output/mx6dq/lib/libboard_sabre_ai_rev_a.a(eim_iomux_config.o)
                               0x2ac4 (size before relaxing)
 .debug_str     0x0001aba6     0x1356 /home/leon/git/swp-report/iMX6_Platform_SDK/output/mx6dq/lib/libboard_sabre_ai_rev_a.a(enet_iomux_config.o)
                               0x13ed (size before relaxing)
 .debug_str     0x0001befc      0xe83 /home/leon/git/swp-report/iMX6_Platform_SDK/output/mx6dq/lib/libboard_sabre_ai_rev_a.a(esai_iomux_config.o)
                                0xf06 (size before relaxing)
 .debug_str     0x0001cd7f      0x23d /home/leon/git/swp-report/iMX6_Platform_SDK/output/mx6dq/lib/libboard_sabre_ai_rev_a.a(i2c3_iomux_config.o)
                                0x39c (size before relaxing)
 .debug_str     0x0001cfbc       0x71 /home/leon/git/swp-report/iMX6_Platform_SDK/output/mx6dq/lib/libboard_sabre_ai_rev_a.a(i2c_iomux_config.o)
                                0x174 (size before relaxing)
 .debug_str     0x0001d02d      0x2f4 /home/leon/git/swp-report/iMX6_Platform_SDK/output/mx6dq/lib/libboard_sabre_ai_rev_a.a(iomux_config.o)
                                0x31e (size before relaxing)
 .debug_str     0x0001d321     0x1a31 /home/leon/git/swp-report/iMX6_Platform_SDK/output/mx6dq/lib/libboard_sabre_ai_rev_a.a(ipu1_iomux_config.o)
                               0x2a2a (size before relaxing)
 .debug_str     0x0001ed52       0x71 /home/leon/git/swp-report/iMX6_Platform_SDK/output/mx6dq/lib/libboard_sabre_ai_rev_a.a(ipu_iomux_config.o)
                                0x174 (size before relaxing)
 .debug_str     0x0001edc3      0x4b2 /home/leon/git/swp-report/iMX6_Platform_SDK/output/mx6dq/lib/libboard_sabre_ai_rev_a.a(mlb_iomux_config.o)
                                0x535 (size before relaxing)
 .debug_str     0x0001f275     0x21a1 /home/leon/git/swp-report/iMX6_Platform_SDK/output/mx6dq/lib/libboard_sabre_ai_rev_a.a(mmdc_iomux_config.o)
                               0x2214 (size before relaxing)
 .debug_str     0x00021416      0x161 /home/leon/git/swp-report/iMX6_Platform_SDK/output/mx6dq/lib/libboard_sabre_ai_rev_a.a(pwm3_iomux_config.o)
                                0x1de (size before relaxing)
 .debug_str     0x00021577      0x161 /home/leon/git/swp-report/iMX6_Platform_SDK/output/mx6dq/lib/libboard_sabre_ai_rev_a.a(pwm4_iomux_config.o)
                                0x1de (size before relaxing)
 .debug_str     0x000216d8      0x32f /home/leon/git/swp-report/iMX6_Platform_SDK/output/mx6dq/lib/libboard_sabre_ai_rev_a.a(sjc_iomux_config.o)
                                0x39e (size before relaxing)
 .debug_str     0x00021a07       0xf8 /home/leon/git/swp-report/iMX6_Platform_SDK/output/mx6dq/lib/libboard_sabre_ai_rev_a.a(spdif_iomux_config.o)
                                0x263 (size before relaxing)
 .debug_str     0x00021aff      0x51b /home/leon/git/swp-report/iMX6_Platform_SDK/output/mx6dq/lib/libboard_sabre_ai_rev_a.a(uart2_iomux_config.o)
                                0x59e (size before relaxing)
 .debug_str     0x0002201a      0x3bc /home/leon/git/swp-report/iMX6_Platform_SDK/output/mx6dq/lib/libboard_sabre_ai_rev_a.a(uart3_iomux_config.o)
                                0x5a4 (size before relaxing)
 .debug_str     0x000223d6      0x2d1 /home/leon/git/swp-report/iMX6_Platform_SDK/output/mx6dq/lib/libboard_sabre_ai_rev_a.a(uart4_iomux_config.o)
                                0x354 (size before relaxing)
 .debug_str     0x000226a7       0x73 /home/leon/git/swp-report/iMX6_Platform_SDK/output/mx6dq/lib/libboard_sabre_ai_rev_a.a(uart_iomux_config.o)
                                0x176 (size before relaxing)
 .debug_str     0x0002271a      0x8db /home/leon/git/swp-report/iMX6_Platform_SDK/output/mx6dq/lib/libboard_sabre_ai_rev_a.a(usdhc1_iomux_config.o)
                                0xb34 (size before relaxing)
 .debug_str     0x00022ff5      0xb75 /home/leon/git/swp-report/iMX6_Platform_SDK/output/mx6dq/lib/libboard_sabre_ai_rev_a.a(usdhc3_iomux_config.o)
                                0xbf2 (size before relaxing)
 .debug_str     0x00023b6a       0x75 /home/leon/git/swp-report/iMX6_Platform_SDK/output/mx6dq/lib/libboard_sabre_ai_rev_a.a(usdhc_iomux_config.o)
                                0x178 (size before relaxing)
 .debug_str     0x00023bdf       0x75 /home/leon/git/swp-report/iMX6_Platform_SDK/output/mx6dq/lib/libboard_sabre_ai_rev_a.a(wdog1_iomux_config.o)
                                0x1ce (size before relaxing)
 .debug_str     0x00023c54       0x71 /home/leon/git/swp-report/iMX6_Platform_SDK/output/mx6dq/lib/libboard_sabre_ai_rev_a.a(ccm_iomux_config.o)
                                0x1ca (size before relaxing)
 .debug_str     0x00023cc5      0x341 /home/leon/git/swp-report/iMX6_Platform_SDK/output/mx6dq/lib/libboard_sabre_ai_rev_a.a(ecspi1_iomux_config.o)
                                0x794 (size before relaxing)
 .debug_str     0x00024006      0x1da /home/leon/git/swp-report/iMX6_Platform_SDK/output/mx6dq/lib/libboard_sabre_ai_rev_a.a(flexcan1_iomux_config.o)
                                0x345 (size before relaxing)
 .debug_str     0x000241e0      0x2c2 /home/leon/git/swp-report/iMX6_Platform_SDK/output/mx6dq/lib/libboard_sabre_ai_rev_a.a(flexcan2_iomux_config.o)
                                0x345 (size before relaxing)
 .debug_str     0x000244a2      0x6eb /home/leon/git/swp-report/iMX6_Platform_SDK/output/mx6dq/lib/libboard_sabre_ai_rev_a.a(gpio1_iomux_config.o)
                                0x850 (size before relaxing)
 .debug_str     0x00024b8d      0x5d9 /home/leon/git/swp-report/iMX6_Platform_SDK/output/mx6dq/lib/libboard_sabre_ai_rev_a.a(gpio2_iomux_config.o)
                                0x744 (size before relaxing)
 .debug_str     0x00025166      0x15d /home/leon/git/swp-report/iMX6_Platform_SDK/output/mx6dq/lib/libboard_sabre_ai_rev_a.a(gpio4_iomux_config.o)
                                0x1da (size before relaxing)
 .debug_str     0x000252c3      0x475 /home/leon/git/swp-report/iMX6_Platform_SDK/output/mx6dq/lib/libboard_sabre_ai_rev_a.a(gpio5_iomux_config.o)
                                0x5f2 (size before relaxing)
 .debug_str     0x00025738      0x251 /home/leon/git/swp-report/iMX6_Platform_SDK/output/mx6dq/lib/libboard_sabre_ai_rev_a.a(gpio6_iomux_config.o)
                                0x2ce (size before relaxing)
 .debug_str     0x00025989      0xae3 /home/leon/git/swp-report/iMX6_Platform_SDK/output/mx6dq/lib/libboard_sabre_ai_rev_a.a(gpmi_iomux_config.o)
                               0x110c (size before relaxing)
 .debug_str     0x0002646c      0x243 /home/leon/git/swp-report/iMX6_Platform_SDK/output/mx6dq/lib/libboard_sabre_ai_rev_a.a(i2c2_iomux_config.o)
                                0x3ae (size before relaxing)
 .debug_str     0x000266af      0x203 /home/leon/git/swp-report/iMX6_Platform_SDK/output/mx6dq/lib/libsdk.a(runtime_support.o)
                                0x3ac (size before relaxing)

.debug_loc      0x00000000     0x981c
 .debug_loc     0x00000000       0x2c /home/leon/git/swp-report/iMX6_Platform_SDK/output/mx6dq/obds/sabre_ai_rev_a/obj/apps/common/platform_init.o
 .debug_loc     0x0000002c       0x58 /home/leon/git/swp-report/iMX6_Platform_SDK/output/mx6dq/obds/sabre_ai_rev_a/obj/apps/common/print_clock_info.o
 .debug_loc     0x00000084       0x2c /home/leon/git/swp-report/iMX6_Platform_SDK/output/mx6dq/obds/sabre_ai_rev_a/obj/apps/common/print_version.o
 .debug_loc     0x000000b0      0x210 /home/leon/git/swp-report/iMX6_Platform_SDK/output/mx6dq/obds/sabre_ai_rev_a/obj/apps/obds/src/obds.o
 .debug_loc     0x000002c0       0x2c /home/leon/git/swp-report/iMX6_Platform_SDK/output/mx6dq/obds/sabre_ai_rev_a/obj/apps/obds/src/obds_utils.o
 .debug_loc     0x000002ec       0xb0 /home/leon/git/swp-report/iMX6_Platform_SDK/output/mx6dq/obds/sabre_ai_rev_a/obj/apps/obds/src/tests/android_buttons_test.o
 .debug_loc     0x0000039c       0x2c /home/leon/git/swp-report/iMX6_Platform_SDK/output/mx6dq/obds/sabre_ai_rev_a/obj/apps/obds/src/tests/audio_esai_test.o
 .debug_loc     0x000003c8       0x58 /home/leon/git/swp-report/iMX6_Platform_SDK/output/mx6dq/obds/sabre_ai_rev_a/obj/apps/obds/src/tests/audio_ssi_test.o
 .debug_loc     0x00000420       0x58 /home/leon/git/swp-report/iMX6_Platform_SDK/output/mx6dq/obds/sabre_ai_rev_a/obj/apps/obds/src/tests/ddr_test.o
 .debug_loc     0x00000478       0xb0 /home/leon/git/swp-report/iMX6_Platform_SDK/output/mx6dq/obds/sabre_ai_rev_a/obj/apps/obds/src/tests/deserializer_ds90ur124.o
 .debug_loc     0x00000528       0xb0 /home/leon/git/swp-report/iMX6_Platform_SDK/output/mx6dq/obds/sabre_ai_rev_a/obj/apps/obds/src/tests/display_test.o
 .debug_loc     0x000005d8      0x108 /home/leon/git/swp-report/iMX6_Platform_SDK/output/mx6dq/obds/sabre_ai_rev_a/obj/apps/obds/src/tests/enet_mx6dldq_test.o
 .debug_loc     0x000006e0       0x2c /home/leon/git/swp-report/iMX6_Platform_SDK/output/mx6dq/obds/sabre_ai_rev_a/obj/apps/obds/src/tests/flexcan_test.o
 .debug_loc     0x0000070c       0x84 /home/leon/git/swp-report/iMX6_Platform_SDK/output/mx6dq/obds/sabre_ai_rev_a/obj/apps/obds/src/tests/fm_tuner_si476x_test.o
 .debug_loc     0x00000790       0x2c /home/leon/git/swp-report/iMX6_Platform_SDK/output/mx6dq/obds/sabre_ai_rev_a/obj/apps/obds/src/tests/gpio_led.o
 .debug_loc     0x000007bc       0x2c /home/leon/git/swp-report/iMX6_Platform_SDK/output/mx6dq/obds/sabre_ai_rev_a/obj/apps/obds/src/tests/gps_test.o
 .debug_loc     0x000007e8      0x108 /home/leon/git/swp-report/iMX6_Platform_SDK/output/mx6dq/obds/sabre_ai_rev_a/obj/apps/obds/src/tests/i2c_check_light_sensor_isl29023.o
 .debug_loc     0x000008f0       0xb0 /home/leon/git/swp-report/iMX6_Platform_SDK/output/mx6dq/obds/sabre_ai_rev_a/obj/apps/obds/src/tests/i2c_device_barometer_ppl3115.o
 .debug_loc     0x000009a0       0x2c /home/leon/git/swp-report/iMX6_Platform_SDK/output/mx6dq/obds/sabre_ai_rev_a/obj/apps/obds/src/tests/i2c_device_check_cs42888.o
 .debug_loc     0x000009cc       0x58 /home/leon/git/swp-report/iMX6_Platform_SDK/output/mx6dq/obds/sabre_ai_rev_a/obj/apps/obds/src/tests/i2c_device_digital_compass_mag3110.o
 .debug_loc     0x00000a24       0x58 /home/leon/git/swp-report/iMX6_Platform_SDK/output/mx6dq/obds/sabre_ai_rev_a/obj/apps/obds/src/tests/i2c_device_digital_compass_mag3112.o
 .debug_loc     0x00000a7c      0x108 /home/leon/git/swp-report/iMX6_Platform_SDK/output/mx6dq/obds/sabre_ai_rev_a/obj/apps/obds/src/tests/i2c_device_id_check_mma8450.o
 .debug_loc     0x00000b84      0x108 /home/leon/git/swp-report/iMX6_Platform_SDK/output/mx6dq/obds/sabre_ai_rev_a/obj/apps/obds/src/tests/i2c_device_id_check_mma8451.o
 .debug_loc     0x00000c8c       0xdc /home/leon/git/swp-report/iMX6_Platform_SDK/output/mx6dq/obds/sabre_ai_rev_a/obj/apps/obds/src/tests/i2c_device_id_check_p1003_tsc.o
 .debug_loc     0x00000d68      0x134 /home/leon/git/swp-report/iMX6_Platform_SDK/output/mx6dq/obds/sabre_ai_rev_a/obj/apps/obds/src/tests/i2c_device_temp_sensor_emc1046.o
 .debug_loc     0x00000e9c       0xb0 /home/leon/git/swp-report/iMX6_Platform_SDK/output/mx6dq/obds/sabre_ai_rev_a/obj/apps/obds/src/tests/i2c_device_zigbee_mc1323.o
 .debug_loc     0x00000f4c       0x84 /home/leon/git/swp-report/iMX6_Platform_SDK/output/mx6dq/obds/sabre_ai_rev_a/obj/apps/obds/src/tests/i2c_eeprom_at24cxx_test.o
 .debug_loc     0x00000fd0       0xdc /home/leon/git/swp-report/iMX6_Platform_SDK/output/mx6dq/obds/sabre_ai_rev_a/obj/apps/obds/src/tests/imx_spi_nor_test.o
 .debug_loc     0x000010ac       0xdc /home/leon/git/swp-report/iMX6_Platform_SDK/output/mx6dq/obds/sabre_ai_rev_a/obj/apps/obds/src/tests/mlb_os81050.o
 .debug_loc     0x00001188       0x2c /home/leon/git/swp-report/iMX6_Platform_SDK/output/mx6dq/obds/sabre_ai_rev_a/obj/apps/obds/src/tests/mmcsd_test.o
 .debug_loc     0x000011b4       0xb0 /home/leon/git/swp-report/iMX6_Platform_SDK/output/mx6dq/obds/sabre_ai_rev_a/obj/apps/obds/src/tests/pmic_da9053.o
 .debug_loc     0x00001264      0x160 /home/leon/git/swp-report/iMX6_Platform_SDK/output/mx6dq/obds/sabre_ai_rev_a/obj/apps/obds/src/tests/pmic_lt3589.o
 .debug_loc     0x000013c4       0xb0 /home/leon/git/swp-report/iMX6_Platform_SDK/output/mx6dq/obds/sabre_ai_rev_a/obj/apps/obds/src/tests/pmic_max17135.o
 .debug_loc     0x00001474      0x108 /home/leon/git/swp-report/iMX6_Platform_SDK/output/mx6dq/obds/sabre_ai_rev_a/obj/apps/obds/src/tests/pmic_mc13892.o
 .debug_loc     0x0000157c       0x84 /home/leon/git/swp-report/iMX6_Platform_SDK/output/mx6dq/obds/sabre_ai_rev_a/obj/apps/obds/src/tests/program_board_id.o
 .debug_loc     0x00001600       0xdc /home/leon/git/swp-report/iMX6_Platform_SDK/output/mx6dq/obds/sabre_ai_rev_a/obj/apps/obds/src/tests/program_mac_address.o
 .debug_loc     0x000016dc       0x2c /home/leon/git/swp-report/iMX6_Platform_SDK/output/mx6dq/obds/sabre_ai_rev_a/obj/apps/obds/src/tests/snvs_srtc_test.o
 .debug_loc     0x00001708      0x134 /home/leon/git/swp-report/iMX6_Platform_SDK/output/mx6dq/obds/sabre_ai_rev_a/obj/apps/obds/src/tests/touch_screen.o
 .debug_loc     0x0000183c      0x18c /home/leon/git/swp-report/iMX6_Platform_SDK/output/mx6dq/obds/sabre_ai_rev_a/obj/apps/obds/src/tests/touch_screen_max11801.o
 .debug_loc     0x000019c8       0x84 /home/leon/git/swp-report/iMX6_Platform_SDK/output/mx6dq/obds/sabre_ai_rev_a/obj/apps/obds/src/tests/usb_tests_obds.o
 .debug_loc     0x00001a4c       0x2c /home/leon/git/swp-report/iMX6_Platform_SDK/output/mx6dq/obds/sabre_ai_rev_a/obj/apps/obds/src/tests/video_dec_ARD_MB_reset_button.o
 .debug_loc     0x00001a78       0x2c /home/leon/git/swp-report/iMX6_Platform_SDK/output/mx6dq/obds/sabre_ai_rev_a/obj/apps/obds/src/tests/video_dec_ARD_MBrst_from_cpu_expander.o
 .debug_loc     0x00001aa4      0x134 /home/leon/git/swp-report/iMX6_Platform_SDK/output/mx6dq/obds/sabre_ai_rev_a/obj/apps/obds/src/tests/video_dec_adv7180.o
 .debug_loc     0x00001bd8       0xb0 /home/leon/git/swp-report/iMX6_Platform_SDK/output/mx6dq/obds/sabre_ai_rev_a/obj/apps/obds/src/tests/weim_nor_flash_test.o
 .debug_loc     0x00001c88       0x2c /home/leon/git/swp-report/iMX6_Platform_SDK/output/mx6dq/obds/sabre_ai_rev_a/obj/sdk/common/ioexpander/test/max7310_test.o
 .debug_loc     0x00001cb4      0x18c /home/leon/git/swp-report/iMX6_Platform_SDK/output/mx6dq/obds/sabre_ai_rev_a/obj/sdk/common/pmic/pfuse/pf0100.o
 .debug_loc     0x00001e40      0x108 /home/leon/git/swp-report/iMX6_Platform_SDK/output/mx6dq/obds/sabre_ai_rev_a/obj/sdk/drivers/audio/src/snd_card.o
 .debug_loc     0x00001f48       0x2c /home/leon/git/swp-report/iMX6_Platform_SDK/output/mx6dq/obds/sabre_ai_rev_a/obj/sdk/drivers/camera/test/adv7180_capture.o
 .debug_loc     0x00001f74       0x2c /home/leon/git/swp-report/iMX6_Platform_SDK/output/mx6dq/obds/sabre_ai_rev_a/obj/sdk/drivers/camera/test/camera_test.o
 .debug_loc     0x00001fa0       0x2c /home/leon/git/swp-report/iMX6_Platform_SDK/output/mx6dq/obds/sabre_ai_rev_a/obj/sdk/drivers/camera/test/csi_test_mode.o
 .debug_loc     0x00001fcc       0x2c /home/leon/git/swp-report/iMX6_Platform_SDK/output/mx6dq/obds/sabre_ai_rev_a/obj/sdk/drivers/camera/test/sensor_capture.o
 .debug_loc     0x00001ff8       0xdc /home/leon/git/swp-report/iMX6_Platform_SDK/output/mx6dq/obds/sabre_ai_rev_a/obj/sdk/drivers/hdmi/test/hdmi_test.o
 .debug_loc     0x000020d4       0x2c /home/leon/git/swp-report/iMX6_Platform_SDK/output/mx6dq/obds/sabre_ai_rev_a/obj/sdk/drivers/hdmi/test/init_dma_data.o
 .debug_loc     0x00002100      0x134 /home/leon/git/swp-report/iMX6_Platform_SDK/output/mx6dq/obds/sabre_ai_rev_a/obj/sdk/drivers/ipu/test/ips_display.o
 .debug_loc     0x00002234       0xdc /home/leon/git/swp-report/iMX6_Platform_SDK/output/mx6dq/obds/sabre_ai_rev_a/obj/sdk/drivers/ipu/test/ipu_image.o
 .debug_loc     0x00002310       0x58 /home/leon/git/swp-report/iMX6_Platform_SDK/output/mx6dq/obds/sabre_ai_rev_a/obj/sdk/drivers/sata/test/sata_test.o
 .debug_loc     0x00002368      0x134 /home/leon/git/swp-report/iMX6_Platform_SDK/output/mx6dq/obds/sabre_ai_rev_a/obj/sdk/drivers/spi/test/imx_spi_nor_atmel.o
 .debug_loc     0x0000249c      0x160 /home/leon/git/swp-report/iMX6_Platform_SDK/output/mx6dq/obds/sabre_ai_rev_a/obj/sdk/drivers/spi/test/spi_nor_numonyx.o
 .debug_loc     0x000025fc       0x58 /home/leon/git/swp-report/iMX6_Platform_SDK/output/mx6dq/obds/sabre_ai_rev_a/obj/sdk/drivers/uart/test/uart_test.o
 .debug_loc     0x00002654      0x160 /home/leon/git/swp-report/iMX6_Platform_SDK/output/mx6dq/obds/sabre_ai_rev_a/obj/sdk/drivers/usb/test/usb0_host_test.o
 .debug_loc     0x000027b4       0x2c /home/leon/git/swp-report/iMX6_Platform_SDK/output/mx6dq/obds/sabre_ai_rev_a/obj/sdk/drivers/usb/test/usb0_host_testmodes_test.o
 .debug_loc     0x000027e0      0x1e4 /home/leon/git/swp-report/iMX6_Platform_SDK/output/mx6dq/obds/sabre_ai_rev_a/obj/sdk/drivers/usdhc/test/usdhc_test.o
 .debug_loc     0x000029c4       0xb0 /home/leon/git/swp-report/iMX6_Platform_SDK/output/mx6dq/lib/libsdk.a(max7310.o)
 .debug_loc     0x00002a74      0x18c /home/leon/git/swp-report/iMX6_Platform_SDK/output/mx6dq/lib/libsdk.a(ccm_pll.o)
 .debug_loc     0x00002c00      0x2ec /home/leon/git/swp-report/iMX6_Platform_SDK/output/mx6dq/lib/libsdk.a(gic.o)
 .debug_loc     0x00002eec       0xdc /home/leon/git/swp-report/iMX6_Platform_SDK/output/mx6dq/lib/libsdk.a(interrupt.o)
 .debug_loc     0x00002fc8       0xdc /home/leon/git/swp-report/iMX6_Platform_SDK/output/mx6dq/lib/libsdk.a(mmu.o)
 .debug_loc     0x000030a4      0x1e4 /home/leon/git/swp-report/iMX6_Platform_SDK/output/mx6dq/lib/libsdk.a(menu.o)
 .debug_loc     0x00003288      0x108 /home/leon/git/swp-report/iMX6_Platform_SDK/output/mx6dq/lib/libsdk.a(system_util.o)
 .debug_loc     0x00003390       0x58 /home/leon/git/swp-report/iMX6_Platform_SDK/output/mx6dq/lib/libsdk.a(text_color.o)
 .debug_loc     0x000033e8      0x134 /home/leon/git/swp-report/iMX6_Platform_SDK/output/mx6dq/lib/libsdk.a(cs42888.o)
 .debug_loc     0x0000351c      0x1e4 /home/leon/git/swp-report/iMX6_Platform_SDK/output/mx6dq/lib/libsdk.a(imx-ssi.o)
 .debug_loc     0x00003700      0x210 /home/leon/git/swp-report/iMX6_Platform_SDK/output/mx6dq/lib/libsdk.a(imx_esai.o)
 .debug_loc     0x00003910      0x160 /home/leon/git/swp-report/iMX6_Platform_SDK/output/mx6dq/lib/libsdk.a(imx_spdif.o)
 .debug_loc     0x00003a70      0x23c /home/leon/git/swp-report/iMX6_Platform_SDK/output/mx6dq/lib/libsdk.a(sgtl5000.o)
 .debug_loc     0x00003cac      0x18c /home/leon/git/swp-report/iMX6_Platform_SDK/output/mx6dq/lib/libsdk.a(wm8958_dac.o)
 .debug_loc     0x00003e38      0x1b8 /home/leon/git/swp-report/iMX6_Platform_SDK/output/mx6dq/lib/libsdk.a(wm8962.o)
 .debug_loc     0x00003ff0      0x134 /home/leon/git/swp-report/iMX6_Platform_SDK/output/mx6dq/lib/libsdk.a(board_id.o)
 .debug_loc     0x00004124      0x1b8 /home/leon/git/swp-report/iMX6_Platform_SDK/output/mx6dq/lib/libsdk.a(smd_sensor.o)
 .debug_loc     0x000042dc      0x344 /home/leon/git/swp-report/iMX6_Platform_SDK/output/mx6dq/lib/libsdk.a(enet_drv.o)
 .debug_loc     0x00004620      0x1e4 /home/leon/git/swp-report/iMX6_Platform_SDK/output/mx6dq/lib/libsdk.a(gpio.o)
 .debug_loc     0x00004804      0x1b8 /home/leon/git/swp-report/iMX6_Platform_SDK/output/mx6dq/lib/libsdk.a(hdmi_tx.o)
 .debug_loc     0x000049bc      0x39c /home/leon/git/swp-report/iMX6_Platform_SDK/output/mx6dq/lib/libsdk.a(hdmi_tx_audio.o)
 .debug_loc     0x00004d58      0x39c /home/leon/git/swp-report/iMX6_Platform_SDK/output/mx6dq/lib/libsdk.a(hdmi_tx_phy.o)
 .debug_loc     0x000050f4      0x268 /home/leon/git/swp-report/iMX6_Platform_SDK/output/mx6dq/lib/libsdk.a(imx_i2c.o)
 .debug_loc     0x0000535c      0x2ec /home/leon/git/swp-report/iMX6_Platform_SDK/output/mx6dq/lib/libsdk.a(ips_disp_panel.o)
 .debug_loc     0x00005648      0x268 /home/leon/git/swp-report/iMX6_Platform_SDK/output/mx6dq/lib/libsdk.a(ipu_common.o)
 .debug_loc     0x000058b0      0x108 /home/leon/git/swp-report/iMX6_Platform_SDK/output/mx6dq/lib/libsdk.a(ipu_csi.o)
 .debug_loc     0x000059b8      0x108 /home/leon/git/swp-report/iMX6_Platform_SDK/output/mx6dq/lib/libsdk.a(ipu_dc.o)
 .debug_loc     0x00005ac0      0x134 /home/leon/git/swp-report/iMX6_Platform_SDK/output/mx6dq/lib/libsdk.a(ipu_di.o)
 .debug_loc     0x00005bf4       0x58 /home/leon/git/swp-report/iMX6_Platform_SDK/output/mx6dq/lib/libsdk.a(ipu_dmfc.o)
 .debug_loc     0x00005c4c       0x84 /home/leon/git/swp-report/iMX6_Platform_SDK/output/mx6dq/lib/libsdk.a(ipu_dp.o)
 .debug_loc     0x00005cd0      0x2ec /home/leon/git/swp-report/iMX6_Platform_SDK/output/mx6dq/lib/libsdk.a(ipu_idmac.o)
 .debug_loc     0x00005fbc      0x160 /home/leon/git/swp-report/iMX6_Platform_SDK/output/mx6dq/lib/libsdk.a(ipu_vdi.o)
 .debug_loc     0x0000611c       0x84 /home/leon/git/swp-report/iMX6_Platform_SDK/output/mx6dq/lib/libsdk.a(ldb.o)
 .debug_loc     0x000061a0      0x134 /home/leon/git/swp-report/iMX6_Platform_SDK/output/mx6dq/lib/libsdk.a(ocotp.o)
 .debug_loc     0x000062d4      0x4a4 /home/leon/git/swp-report/iMX6_Platform_SDK/output/mx6dq/lib/libsdk.a(sata.o)
 .debug_loc     0x00006778      0x134 /home/leon/git/swp-report/iMX6_Platform_SDK/output/mx6dq/lib/libsdk.a(ecspi.o)
 .debug_loc     0x000068ac       0xb0 /home/leon/git/swp-report/iMX6_Platform_SDK/output/mx6dq/lib/libsdk.a(timer.o)
 .debug_loc     0x0000695c      0x134 /home/leon/git/swp-report/iMX6_Platform_SDK/output/mx6dq/lib/libsdk.a(imx_uart.o)
 .debug_loc     0x00006a90       0x84 /home/leon/git/swp-report/iMX6_Platform_SDK/output/mx6dq/lib/libsdk.a(usb_common.o)
 .debug_loc     0x00006b14      0x160 /home/leon/git/swp-report/iMX6_Platform_SDK/output/mx6dq/lib/libsdk.a(usbh_drv.o)
 .debug_loc     0x00006c74      0x318 /home/leon/git/swp-report/iMX6_Platform_SDK/output/mx6dq/lib/libsdk.a(usdhc.o)
 .debug_loc     0x00006f8c      0x44c /home/leon/git/swp-report/iMX6_Platform_SDK/output/mx6dq/lib/libsdk.a(usdhc_host.o)
 .debug_loc     0x000073d8      0x23c /home/leon/git/swp-report/iMX6_Platform_SDK/output/mx6dq/lib/libsdk.a(usdhc_mmc.o)
 .debug_loc     0x00007614       0xb0 /home/leon/git/swp-report/iMX6_Platform_SDK/output/mx6dq/lib/libsdk.a(usdhc_sd.o)
 .debug_loc     0x000076c4      0x1e4 /home/leon/git/swp-report/iMX6_Platform_SDK/output/mx6dq/lib/libsdk.a(adv7180.o)
 .debug_loc     0x000078a8      0x2c0 /home/leon/git/swp-report/iMX6_Platform_SDK/output/mx6dq/lib/libsdk.a(armv7_cache.o)
 .debug_loc     0x00007b68       0xdc /home/leon/git/swp-report/iMX6_Platform_SDK/output/mx6dq/lib/libsdk.a(hdmi_common.o)
 .debug_loc     0x00007c44      0x18c /home/leon/git/swp-report/iMX6_Platform_SDK/output/mx6dq/lib/libsdk.a(ipu_ic.o)
 .debug_loc     0x00007dd0      0x160 /home/leon/git/swp-report/iMX6_Platform_SDK/output/mx6dq/lib/libsdk.a(epit.o)
 .debug_loc     0x00007f30       0x58 /home/leon/git/swp-report/iMX6_Platform_SDK/output/mx6dq/lib/libsdk.a(mx6x_usb.o)
 .debug_loc     0x00007f88       0x2c /home/leon/git/swp-report/iMX6_Platform_SDK/output/mx6dq/lib/libsdk.a(abort_handler.o)
 .debug_loc     0x00007fb4      0x134 /home/leon/git/swp-report/iMX6_Platform_SDK/output/mx6dq/lib/libboard_sabre_ai_rev_a.a(board_audio.o)
 .debug_loc     0x000080e8       0x2c /home/leon/git/swp-report/iMX6_Platform_SDK/output/mx6dq/lib/libboard_sabre_ai_rev_a.a(board_buttons.o)
 .debug_loc     0x00008114      0x108 /home/leon/git/swp-report/iMX6_Platform_SDK/output/mx6dq/lib/libboard_sabre_ai_rev_a.a(board_camera.o)
 .debug_loc     0x0000821c      0x134 /home/leon/git/swp-report/iMX6_Platform_SDK/output/mx6dq/lib/libboard_sabre_ai_rev_a.a(board_display.o)
 .debug_loc     0x00008350      0x108 /home/leon/git/swp-report/iMX6_Platform_SDK/output/mx6dq/lib/libboard_sabre_ai_rev_a.a(board_hdmi.o)
 .debug_loc     0x00008458       0x58 /home/leon/git/swp-report/iMX6_Platform_SDK/output/mx6dq/lib/libboard_sabre_ai_rev_a.a(board_io_expanders.o)
 .debug_loc     0x000084b0       0xdc /home/leon/git/swp-report/iMX6_Platform_SDK/output/mx6dq/lib/libboard_sabre_ai_rev_a.a(board_mipi.o)
 .debug_loc     0x0000858c       0xdc /home/leon/git/swp-report/iMX6_Platform_SDK/output/mx6dq/lib/libboard_sabre_ai_rev_a.a(board_network.o)
 .debug_loc     0x00008668      0x108 /home/leon/git/swp-report/iMX6_Platform_SDK/output/mx6dq/lib/libboard_sabre_ai_rev_a.a(board_sata.o)
 .debug_loc     0x00008770       0x84 /home/leon/git/swp-report/iMX6_Platform_SDK/output/mx6dq/lib/libboard_sabre_ai_rev_a.a(board_usb.o)
 .debug_loc     0x000087f4       0x84 /home/leon/git/swp-report/iMX6_Platform_SDK/output/mx6dq/lib/libboard_sabre_ai_rev_a.a(board_usdhc.o)
 .debug_loc     0x00008878       0x2c /home/leon/git/swp-report/iMX6_Platform_SDK/output/mx6dq/lib/libboard_sabre_ai_rev_a.a(audmux_iomux_config.o)
 .debug_loc     0x000088a4       0x2c /home/leon/git/swp-report/iMX6_Platform_SDK/output/mx6dq/lib/libboard_sabre_ai_rev_a.a(ecspi_iomux_config.o)
 .debug_loc     0x000088d0       0x2c /home/leon/git/swp-report/iMX6_Platform_SDK/output/mx6dq/lib/libboard_sabre_ai_rev_a.a(eim_iomux_config.o)
 .debug_loc     0x000088fc       0x2c /home/leon/git/swp-report/iMX6_Platform_SDK/output/mx6dq/lib/libboard_sabre_ai_rev_a.a(enet_iomux_config.o)
 .debug_loc     0x00008928       0x2c /home/leon/git/swp-report/iMX6_Platform_SDK/output/mx6dq/lib/libboard_sabre_ai_rev_a.a(esai_iomux_config.o)
 .debug_loc     0x00008954       0x2c /home/leon/git/swp-report/iMX6_Platform_SDK/output/mx6dq/lib/libboard_sabre_ai_rev_a.a(i2c3_iomux_config.o)
 .debug_loc     0x00008980       0x2c /home/leon/git/swp-report/iMX6_Platform_SDK/output/mx6dq/lib/libboard_sabre_ai_rev_a.a(i2c_iomux_config.o)
 .debug_loc     0x000089ac      0x65c /home/leon/git/swp-report/iMX6_Platform_SDK/output/mx6dq/lib/libboard_sabre_ai_rev_a.a(iomux_config.o)
 .debug_loc     0x00009008       0x2c /home/leon/git/swp-report/iMX6_Platform_SDK/output/mx6dq/lib/libboard_sabre_ai_rev_a.a(ipu1_iomux_config.o)
 .debug_loc     0x00009034       0x2c /home/leon/git/swp-report/iMX6_Platform_SDK/output/mx6dq/lib/libboard_sabre_ai_rev_a.a(ipu_iomux_config.o)
 .debug_loc     0x00009060       0x2c /home/leon/git/swp-report/iMX6_Platform_SDK/output/mx6dq/lib/libboard_sabre_ai_rev_a.a(mlb_iomux_config.o)
 .debug_loc     0x0000908c       0x2c /home/leon/git/swp-report/iMX6_Platform_SDK/output/mx6dq/lib/libboard_sabre_ai_rev_a.a(mmdc_iomux_config.o)
 .debug_loc     0x000090b8       0x2c /home/leon/git/swp-report/iMX6_Platform_SDK/output/mx6dq/lib/libboard_sabre_ai_rev_a.a(pwm3_iomux_config.o)
 .debug_loc     0x000090e4       0x2c /home/leon/git/swp-report/iMX6_Platform_SDK/output/mx6dq/lib/libboard_sabre_ai_rev_a.a(pwm4_iomux_config.o)
 .debug_loc     0x00009110       0x2c /home/leon/git/swp-report/iMX6_Platform_SDK/output/mx6dq/lib/libboard_sabre_ai_rev_a.a(sjc_iomux_config.o)
 .debug_loc     0x0000913c       0x2c /home/leon/git/swp-report/iMX6_Platform_SDK/output/mx6dq/lib/libboard_sabre_ai_rev_a.a(spdif_iomux_config.o)
 .debug_loc     0x00009168       0x2c /home/leon/git/swp-report/iMX6_Platform_SDK/output/mx6dq/lib/libboard_sabre_ai_rev_a.a(uart2_iomux_config.o)
 .debug_loc     0x00009194       0x2c /home/leon/git/swp-report/iMX6_Platform_SDK/output/mx6dq/lib/libboard_sabre_ai_rev_a.a(uart3_iomux_config.o)
 .debug_loc     0x000091c0       0x2c /home/leon/git/swp-report/iMX6_Platform_SDK/output/mx6dq/lib/libboard_sabre_ai_rev_a.a(uart4_iomux_config.o)
 .debug_loc     0x000091ec       0x2c /home/leon/git/swp-report/iMX6_Platform_SDK/output/mx6dq/lib/libboard_sabre_ai_rev_a.a(uart_iomux_config.o)
 .debug_loc     0x00009218       0x2c /home/leon/git/swp-report/iMX6_Platform_SDK/output/mx6dq/lib/libboard_sabre_ai_rev_a.a(usdhc1_iomux_config.o)
 .debug_loc     0x00009244       0x2c /home/leon/git/swp-report/iMX6_Platform_SDK/output/mx6dq/lib/libboard_sabre_ai_rev_a.a(usdhc3_iomux_config.o)
 .debug_loc     0x00009270       0x2c /home/leon/git/swp-report/iMX6_Platform_SDK/output/mx6dq/lib/libboard_sabre_ai_rev_a.a(usdhc_iomux_config.o)
 .debug_loc     0x0000929c       0x2c /home/leon/git/swp-report/iMX6_Platform_SDK/output/mx6dq/lib/libboard_sabre_ai_rev_a.a(wdog1_iomux_config.o)
 .debug_loc     0x000092c8       0x2c /home/leon/git/swp-report/iMX6_Platform_SDK/output/mx6dq/lib/libboard_sabre_ai_rev_a.a(ccm_iomux_config.o)
 .debug_loc     0x000092f4       0x2c /home/leon/git/swp-report/iMX6_Platform_SDK/output/mx6dq/lib/libboard_sabre_ai_rev_a.a(ecspi1_iomux_config.o)
 .debug_loc     0x00009320       0x2c /home/leon/git/swp-report/iMX6_Platform_SDK/output/mx6dq/lib/libboard_sabre_ai_rev_a.a(flexcan1_iomux_config.o)
 .debug_loc     0x0000934c       0x2c /home/leon/git/swp-report/iMX6_Platform_SDK/output/mx6dq/lib/libboard_sabre_ai_rev_a.a(flexcan2_iomux_config.o)
 .debug_loc     0x00009378       0x2c /home/leon/git/swp-report/iMX6_Platform_SDK/output/mx6dq/lib/libboard_sabre_ai_rev_a.a(gpio1_iomux_config.o)
 .debug_loc     0x000093a4       0x2c /home/leon/git/swp-report/iMX6_Platform_SDK/output/mx6dq/lib/libboard_sabre_ai_rev_a.a(gpio2_iomux_config.o)
 .debug_loc     0x000093d0       0x2c /home/leon/git/swp-report/iMX6_Platform_SDK/output/mx6dq/lib/libboard_sabre_ai_rev_a.a(gpio4_iomux_config.o)
 .debug_loc     0x000093fc       0x2c /home/leon/git/swp-report/iMX6_Platform_SDK/output/mx6dq/lib/libboard_sabre_ai_rev_a.a(gpio5_iomux_config.o)
 .debug_loc     0x00009428       0x2c /home/leon/git/swp-report/iMX6_Platform_SDK/output/mx6dq/lib/libboard_sabre_ai_rev_a.a(gpio6_iomux_config.o)
 .debug_loc     0x00009454       0x2c /home/leon/git/swp-report/iMX6_Platform_SDK/output/mx6dq/lib/libboard_sabre_ai_rev_a.a(gpmi_iomux_config.o)
 .debug_loc     0x00009480       0x2c /home/leon/git/swp-report/iMX6_Platform_SDK/output/mx6dq/lib/libboard_sabre_ai_rev_a.a(i2c2_iomux_config.o)
 .debug_loc     0x000094ac      0x370 /home/leon/git/swp-report/iMX6_Platform_SDK/output/mx6dq/lib/libsdk.a(runtime_support.o)

.debug_frame    0x00000000     0x8c1c
 .debug_frame   0x00000000       0x30 /home/leon/git/swp-report/iMX6_Platform_SDK/output/mx6dq/obds/sabre_ai_rev_a/obj/apps/common/platform_init.o
 .debug_frame   0x00000030       0x50 /home/leon/git/swp-report/iMX6_Platform_SDK/output/mx6dq/obds/sabre_ai_rev_a/obj/apps/common/print_clock_info.o
 .debug_frame   0x00000080       0x30 /home/leon/git/swp-report/iMX6_Platform_SDK/output/mx6dq/obds/sabre_ai_rev_a/obj/apps/common/print_version.o
 .debug_frame   0x000000b0      0x198 /home/leon/git/swp-report/iMX6_Platform_SDK/output/mx6dq/obds/sabre_ai_rev_a/obj/apps/obds/src/obds.o
 .debug_frame   0x00000248       0x30 /home/leon/git/swp-report/iMX6_Platform_SDK/output/mx6dq/obds/sabre_ai_rev_a/obj/apps/obds/src/obds_utils.o
 .debug_frame   0x00000278       0x90 /home/leon/git/swp-report/iMX6_Platform_SDK/output/mx6dq/obds/sabre_ai_rev_a/obj/apps/obds/src/tests/android_buttons_test.o
 .debug_frame   0x00000308       0x30 /home/leon/git/swp-report/iMX6_Platform_SDK/output/mx6dq/obds/sabre_ai_rev_a/obj/apps/obds/src/tests/audio_esai_test.o
 .debug_frame   0x00000338       0x50 /home/leon/git/swp-report/iMX6_Platform_SDK/output/mx6dq/obds/sabre_ai_rev_a/obj/apps/obds/src/tests/audio_ssi_test.o
 .debug_frame   0x00000388       0x50 /home/leon/git/swp-report/iMX6_Platform_SDK/output/mx6dq/obds/sabre_ai_rev_a/obj/apps/obds/src/tests/ddr_test.o
 .debug_frame   0x000003d8       0x90 /home/leon/git/swp-report/iMX6_Platform_SDK/output/mx6dq/obds/sabre_ai_rev_a/obj/apps/obds/src/tests/deserializer_ds90ur124.o
 .debug_frame   0x00000468       0x90 /home/leon/git/swp-report/iMX6_Platform_SDK/output/mx6dq/obds/sabre_ai_rev_a/obj/apps/obds/src/tests/display_test.o
 .debug_frame   0x000004f8       0xd8 /home/leon/git/swp-report/iMX6_Platform_SDK/output/mx6dq/obds/sabre_ai_rev_a/obj/apps/obds/src/tests/enet_mx6dldq_test.o
 .debug_frame   0x000005d0       0x30 /home/leon/git/swp-report/iMX6_Platform_SDK/output/mx6dq/obds/sabre_ai_rev_a/obj/apps/obds/src/tests/flexcan_test.o
 .debug_frame   0x00000600       0x70 /home/leon/git/swp-report/iMX6_Platform_SDK/output/mx6dq/obds/sabre_ai_rev_a/obj/apps/obds/src/tests/fm_tuner_si476x_test.o
 .debug_frame   0x00000670       0x30 /home/leon/git/swp-report/iMX6_Platform_SDK/output/mx6dq/obds/sabre_ai_rev_a/obj/apps/obds/src/tests/gpio_led.o
 .debug_frame   0x000006a0       0x30 /home/leon/git/swp-report/iMX6_Platform_SDK/output/mx6dq/obds/sabre_ai_rev_a/obj/apps/obds/src/tests/gps_test.o
 .debug_frame   0x000006d0       0xd0 /home/leon/git/swp-report/iMX6_Platform_SDK/output/mx6dq/obds/sabre_ai_rev_a/obj/apps/obds/src/tests/i2c_check_light_sensor_isl29023.o
 .debug_frame   0x000007a0       0x90 /home/leon/git/swp-report/iMX6_Platform_SDK/output/mx6dq/obds/sabre_ai_rev_a/obj/apps/obds/src/tests/i2c_device_barometer_ppl3115.o
 .debug_frame   0x00000830       0x30 /home/leon/git/swp-report/iMX6_Platform_SDK/output/mx6dq/obds/sabre_ai_rev_a/obj/apps/obds/src/tests/i2c_device_check_cs42888.o
 .debug_frame   0x00000860       0x50 /home/leon/git/swp-report/iMX6_Platform_SDK/output/mx6dq/obds/sabre_ai_rev_a/obj/apps/obds/src/tests/i2c_device_digital_compass_mag3110.o
 .debug_frame   0x000008b0       0x50 /home/leon/git/swp-report/iMX6_Platform_SDK/output/mx6dq/obds/sabre_ai_rev_a/obj/apps/obds/src/tests/i2c_device_digital_compass_mag3112.o
 .debug_frame   0x00000900       0xd0 /home/leon/git/swp-report/iMX6_Platform_SDK/output/mx6dq/obds/sabre_ai_rev_a/obj/apps/obds/src/tests/i2c_device_id_check_mma8450.o
 .debug_frame   0x000009d0       0xd0 /home/leon/git/swp-report/iMX6_Platform_SDK/output/mx6dq/obds/sabre_ai_rev_a/obj/apps/obds/src/tests/i2c_device_id_check_mma8451.o
 .debug_frame   0x00000aa0       0xb0 /home/leon/git/swp-report/iMX6_Platform_SDK/output/mx6dq/obds/sabre_ai_rev_a/obj/apps/obds/src/tests/i2c_device_id_check_p1003_tsc.o
 .debug_frame   0x00000b50       0xf0 /home/leon/git/swp-report/iMX6_Platform_SDK/output/mx6dq/obds/sabre_ai_rev_a/obj/apps/obds/src/tests/i2c_device_temp_sensor_emc1046.o
 .debug_frame   0x00000c40       0x90 /home/leon/git/swp-report/iMX6_Platform_SDK/output/mx6dq/obds/sabre_ai_rev_a/obj/apps/obds/src/tests/i2c_device_zigbee_mc1323.o
 .debug_frame   0x00000cd0       0x70 /home/leon/git/swp-report/iMX6_Platform_SDK/output/mx6dq/obds/sabre_ai_rev_a/obj/apps/obds/src/tests/i2c_eeprom_at24cxx_test.o
 .debug_frame   0x00000d40       0xb0 /home/leon/git/swp-report/iMX6_Platform_SDK/output/mx6dq/obds/sabre_ai_rev_a/obj/apps/obds/src/tests/imx_spi_nor_test.o
 .debug_frame   0x00000df0       0xb0 /home/leon/git/swp-report/iMX6_Platform_SDK/output/mx6dq/obds/sabre_ai_rev_a/obj/apps/obds/src/tests/mlb_os81050.o
 .debug_frame   0x00000ea0       0x30 /home/leon/git/swp-report/iMX6_Platform_SDK/output/mx6dq/obds/sabre_ai_rev_a/obj/apps/obds/src/tests/mmcsd_test.o
 .debug_frame   0x00000ed0       0x90 /home/leon/git/swp-report/iMX6_Platform_SDK/output/mx6dq/obds/sabre_ai_rev_a/obj/apps/obds/src/tests/pmic_da9053.o
 .debug_frame   0x00000f60      0x110 /home/leon/git/swp-report/iMX6_Platform_SDK/output/mx6dq/obds/sabre_ai_rev_a/obj/apps/obds/src/tests/pmic_lt3589.o
 .debug_frame   0x00001070       0x90 /home/leon/git/swp-report/iMX6_Platform_SDK/output/mx6dq/obds/sabre_ai_rev_a/obj/apps/obds/src/tests/pmic_max17135.o
 .debug_frame   0x00001100       0xd0 /home/leon/git/swp-report/iMX6_Platform_SDK/output/mx6dq/obds/sabre_ai_rev_a/obj/apps/obds/src/tests/pmic_mc13892.o
 .debug_frame   0x000011d0       0x78 /home/leon/git/swp-report/iMX6_Platform_SDK/output/mx6dq/obds/sabre_ai_rev_a/obj/apps/obds/src/tests/program_board_id.o
 .debug_frame   0x00001248       0xb8 /home/leon/git/swp-report/iMX6_Platform_SDK/output/mx6dq/obds/sabre_ai_rev_a/obj/apps/obds/src/tests/program_mac_address.o
 .debug_frame   0x00001300       0x30 /home/leon/git/swp-report/iMX6_Platform_SDK/output/mx6dq/obds/sabre_ai_rev_a/obj/apps/obds/src/tests/snvs_srtc_test.o
 .debug_frame   0x00001330       0xf0 /home/leon/git/swp-report/iMX6_Platform_SDK/output/mx6dq/obds/sabre_ai_rev_a/obj/apps/obds/src/tests/touch_screen.o
 .debug_frame   0x00001420      0x130 /home/leon/git/swp-report/iMX6_Platform_SDK/output/mx6dq/obds/sabre_ai_rev_a/obj/apps/obds/src/tests/touch_screen_max11801.o
 .debug_frame   0x00001550       0x70 /home/leon/git/swp-report/iMX6_Platform_SDK/output/mx6dq/obds/sabre_ai_rev_a/obj/apps/obds/src/tests/usb_tests_obds.o
 .debug_frame   0x000015c0       0x30 /home/leon/git/swp-report/iMX6_Platform_SDK/output/mx6dq/obds/sabre_ai_rev_a/obj/apps/obds/src/tests/video_dec_ARD_MB_reset_button.o
 .debug_frame   0x000015f0       0x30 /home/leon/git/swp-report/iMX6_Platform_SDK/output/mx6dq/obds/sabre_ai_rev_a/obj/apps/obds/src/tests/video_dec_ARD_MBrst_from_cpu_expander.o
 .debug_frame   0x00001620       0xf0 /home/leon/git/swp-report/iMX6_Platform_SDK/output/mx6dq/obds/sabre_ai_rev_a/obj/apps/obds/src/tests/video_dec_adv7180.o
 .debug_frame   0x00001710       0x90 /home/leon/git/swp-report/iMX6_Platform_SDK/output/mx6dq/obds/sabre_ai_rev_a/obj/apps/obds/src/tests/weim_nor_flash_test.o
 .debug_frame   0x000017a0       0x30 /home/leon/git/swp-report/iMX6_Platform_SDK/output/mx6dq/obds/sabre_ai_rev_a/obj/sdk/common/ioexpander/test/max7310_test.o
 .debug_frame   0x000017d0      0x130 /home/leon/git/swp-report/iMX6_Platform_SDK/output/mx6dq/obds/sabre_ai_rev_a/obj/sdk/common/pmic/pfuse/pf0100.o
 .debug_frame   0x00001900       0xd0 /home/leon/git/swp-report/iMX6_Platform_SDK/output/mx6dq/obds/sabre_ai_rev_a/obj/sdk/drivers/audio/src/snd_card.o
 .debug_frame   0x000019d0       0x30 /home/leon/git/swp-report/iMX6_Platform_SDK/output/mx6dq/obds/sabre_ai_rev_a/obj/sdk/drivers/camera/test/adv7180_capture.o
 .debug_frame   0x00001a00       0x30 /home/leon/git/swp-report/iMX6_Platform_SDK/output/mx6dq/obds/sabre_ai_rev_a/obj/sdk/drivers/camera/test/camera_test.o
 .debug_frame   0x00001a30       0x30 /home/leon/git/swp-report/iMX6_Platform_SDK/output/mx6dq/obds/sabre_ai_rev_a/obj/sdk/drivers/camera/test/csi_test_mode.o
 .debug_frame   0x00001a60       0x30 /home/leon/git/swp-report/iMX6_Platform_SDK/output/mx6dq/obds/sabre_ai_rev_a/obj/sdk/drivers/camera/test/sensor_capture.o
 .debug_frame   0x00001a90       0xb0 /home/leon/git/swp-report/iMX6_Platform_SDK/output/mx6dq/obds/sabre_ai_rev_a/obj/sdk/drivers/hdmi/test/hdmi_test.o
 .debug_frame   0x00001b40       0x34 /home/leon/git/swp-report/iMX6_Platform_SDK/output/mx6dq/obds/sabre_ai_rev_a/obj/sdk/drivers/hdmi/test/init_dma_data.o
 .debug_frame   0x00001b74       0xf0 /home/leon/git/swp-report/iMX6_Platform_SDK/output/mx6dq/obds/sabre_ai_rev_a/obj/sdk/drivers/ipu/test/ips_display.o
 .debug_frame   0x00001c64       0xb0 /home/leon/git/swp-report/iMX6_Platform_SDK/output/mx6dq/obds/sabre_ai_rev_a/obj/sdk/drivers/ipu/test/ipu_image.o
 .debug_frame   0x00001d14       0x50 /home/leon/git/swp-report/iMX6_Platform_SDK/output/mx6dq/obds/sabre_ai_rev_a/obj/sdk/drivers/sata/test/sata_test.o
 .debug_frame   0x00001d64       0xf0 /home/leon/git/swp-report/iMX6_Platform_SDK/output/mx6dq/obds/sabre_ai_rev_a/obj/sdk/drivers/spi/test/imx_spi_nor_atmel.o
 .debug_frame   0x00001e54      0x110 /home/leon/git/swp-report/iMX6_Platform_SDK/output/mx6dq/obds/sabre_ai_rev_a/obj/sdk/drivers/spi/test/spi_nor_numonyx.o
 .debug_frame   0x00001f64       0x50 /home/leon/git/swp-report/iMX6_Platform_SDK/output/mx6dq/obds/sabre_ai_rev_a/obj/sdk/drivers/uart/test/uart_test.o
 .debug_frame   0x00001fb4      0x110 /home/leon/git/swp-report/iMX6_Platform_SDK/output/mx6dq/obds/sabre_ai_rev_a/obj/sdk/drivers/usb/test/usb0_host_test.o
 .debug_frame   0x000020c4       0x30 /home/leon/git/swp-report/iMX6_Platform_SDK/output/mx6dq/obds/sabre_ai_rev_a/obj/sdk/drivers/usb/test/usb0_host_testmodes_test.o
 .debug_frame   0x000020f4      0x170 /home/leon/git/swp-report/iMX6_Platform_SDK/output/mx6dq/obds/sabre_ai_rev_a/obj/sdk/drivers/usdhc/test/usdhc_test.o
 .debug_frame   0x00002264       0x90 /home/leon/git/swp-report/iMX6_Platform_SDK/output/mx6dq/lib/libsdk.a(max7310.o)
 .debug_frame   0x000022f4      0x130 /home/leon/git/swp-report/iMX6_Platform_SDK/output/mx6dq/lib/libsdk.a(ccm_pll.o)
 .debug_frame   0x00002424      0x230 /home/leon/git/swp-report/iMX6_Platform_SDK/output/mx6dq/lib/libsdk.a(gic.o)
 .debug_frame   0x00002654       0xb8 /home/leon/git/swp-report/iMX6_Platform_SDK/output/mx6dq/lib/libsdk.a(interrupt.o)
 .debug_frame   0x0000270c       0xb0 /home/leon/git/swp-report/iMX6_Platform_SDK/output/mx6dq/lib/libsdk.a(mmu.o)
 .debug_frame   0x000027bc      0x170 /home/leon/git/swp-report/iMX6_Platform_SDK/output/mx6dq/lib/libsdk.a(menu.o)
 .debug_frame   0x0000292c       0xe0 /home/leon/git/swp-report/iMX6_Platform_SDK/output/mx6dq/lib/libsdk.a(system_util.o)
 .debug_frame   0x00002a0c       0x54 /home/leon/git/swp-report/iMX6_Platform_SDK/output/mx6dq/lib/libsdk.a(text_color.o)
 .debug_frame   0x00002a60       0xf0 /home/leon/git/swp-report/iMX6_Platform_SDK/output/mx6dq/lib/libsdk.a(cs42888.o)
 .debug_frame   0x00002b50      0x170 /home/leon/git/swp-report/iMX6_Platform_SDK/output/mx6dq/lib/libsdk.a(imx-ssi.o)
 .debug_frame   0x00002cc0      0x190 /home/leon/git/swp-report/iMX6_Platform_SDK/output/mx6dq/lib/libsdk.a(imx_esai.o)
 .debug_frame   0x00002e50      0x110 /home/leon/git/swp-report/iMX6_Platform_SDK/output/mx6dq/lib/libsdk.a(imx_spdif.o)
 .debug_frame   0x00002f60      0x1b8 /home/leon/git/swp-report/iMX6_Platform_SDK/output/mx6dq/lib/libsdk.a(sgtl5000.o)
 .debug_frame   0x00003118      0x130 /home/leon/git/swp-report/iMX6_Platform_SDK/output/mx6dq/lib/libsdk.a(wm8958_dac.o)
 .debug_frame   0x00003248      0x150 /home/leon/git/swp-report/iMX6_Platform_SDK/output/mx6dq/lib/libsdk.a(wm8962.o)
 .debug_frame   0x00003398       0xf0 /home/leon/git/swp-report/iMX6_Platform_SDK/output/mx6dq/lib/libsdk.a(board_id.o)
 .debug_frame   0x00003488      0x150 /home/leon/git/swp-report/iMX6_Platform_SDK/output/mx6dq/lib/libsdk.a(smd_sensor.o)
 .debug_frame   0x000035d8      0x270 /home/leon/git/swp-report/iMX6_Platform_SDK/output/mx6dq/lib/libsdk.a(enet_drv.o)
 .debug_frame   0x00003848      0x178 /home/leon/git/swp-report/iMX6_Platform_SDK/output/mx6dq/lib/libsdk.a(gpio.o)
 .debug_frame   0x000039c0      0x150 /home/leon/git/swp-report/iMX6_Platform_SDK/output/mx6dq/lib/libsdk.a(hdmi_tx.o)
 .debug_frame   0x00003b10      0x2b0 /home/leon/git/swp-report/iMX6_Platform_SDK/output/mx6dq/lib/libsdk.a(hdmi_tx_audio.o)
 .debug_frame   0x00003dc0      0x2b0 /home/leon/git/swp-report/iMX6_Platform_SDK/output/mx6dq/lib/libsdk.a(hdmi_tx_phy.o)
 .debug_frame   0x00004070      0x1d8 /home/leon/git/swp-report/iMX6_Platform_SDK/output/mx6dq/lib/libsdk.a(imx_i2c.o)
 .debug_frame   0x00004248      0x230 /home/leon/git/swp-report/iMX6_Platform_SDK/output/mx6dq/lib/libsdk.a(ips_disp_panel.o)
 .debug_frame   0x00004478      0x1d0 /home/leon/git/swp-report/iMX6_Platform_SDK/output/mx6dq/lib/libsdk.a(ipu_common.o)
 .debug_frame   0x00004648       0xd0 /home/leon/git/swp-report/iMX6_Platform_SDK/output/mx6dq/lib/libsdk.a(ipu_csi.o)
 .debug_frame   0x00004718       0xd0 /home/leon/git/swp-report/iMX6_Platform_SDK/output/mx6dq/lib/libsdk.a(ipu_dc.o)
 .debug_frame   0x000047e8       0xf4 /home/leon/git/swp-report/iMX6_Platform_SDK/output/mx6dq/lib/libsdk.a(ipu_di.o)
 .debug_frame   0x000048dc       0x50 /home/leon/git/swp-report/iMX6_Platform_SDK/output/mx6dq/lib/libsdk.a(ipu_dmfc.o)
 .debug_frame   0x0000492c       0x70 /home/leon/git/swp-report/iMX6_Platform_SDK/output/mx6dq/lib/libsdk.a(ipu_dp.o)
 .debug_frame   0x0000499c      0x230 /home/leon/git/swp-report/iMX6_Platform_SDK/output/mx6dq/lib/libsdk.a(ipu_idmac.o)
 .debug_frame   0x00004bcc      0x110 /home/leon/git/swp-report/iMX6_Platform_SDK/output/mx6dq/lib/libsdk.a(ipu_vdi.o)
 .debug_frame   0x00004cdc       0x70 /home/leon/git/swp-report/iMX6_Platform_SDK/output/mx6dq/lib/libsdk.a(ldb.o)
 .debug_frame   0x00004d4c       0xf0 /home/leon/git/swp-report/iMX6_Platform_SDK/output/mx6dq/lib/libsdk.a(ocotp.o)
 .debug_frame   0x00004e3c      0x37c /home/leon/git/swp-report/iMX6_Platform_SDK/output/mx6dq/lib/libsdk.a(sata.o)
 .debug_frame   0x000051b8       0xf0 /home/leon/git/swp-report/iMX6_Platform_SDK/output/mx6dq/lib/libsdk.a(ecspi.o)
 .debug_frame   0x000052a8       0x94 /home/leon/git/swp-report/iMX6_Platform_SDK/output/mx6dq/lib/libsdk.a(timer.o)
 .debug_frame   0x0000533c       0xf0 /home/leon/git/swp-report/iMX6_Platform_SDK/output/mx6dq/lib/libsdk.a(imx_uart.o)
 .debug_frame   0x0000542c       0x70 /home/leon/git/swp-report/iMX6_Platform_SDK/output/mx6dq/lib/libsdk.a(usb_common.o)
 .debug_frame   0x0000549c      0x110 /home/leon/git/swp-report/iMX6_Platform_SDK/output/mx6dq/lib/libsdk.a(usbh_drv.o)
 .debug_frame   0x000055ac      0x250 /home/leon/git/swp-report/iMX6_Platform_SDK/output/mx6dq/lib/libsdk.a(usdhc.o)
 .debug_frame   0x000057fc      0x330 /home/leon/git/swp-report/iMX6_Platform_SDK/output/mx6dq/lib/libsdk.a(usdhc_host.o)
 .debug_frame   0x00005b2c      0x1b0 /home/leon/git/swp-report/iMX6_Platform_SDK/output/mx6dq/lib/libsdk.a(usdhc_mmc.o)
 .debug_frame   0x00005cdc       0x90 /home/leon/git/swp-report/iMX6_Platform_SDK/output/mx6dq/lib/libsdk.a(usdhc_sd.o)
 .debug_frame   0x00005d6c      0x170 /home/leon/git/swp-report/iMX6_Platform_SDK/output/mx6dq/lib/libsdk.a(adv7180.o)
 .debug_frame   0x00005edc      0x210 /home/leon/git/swp-report/iMX6_Platform_SDK/output/mx6dq/lib/libsdk.a(armv7_cache.o)
 .debug_frame   0x000060ec       0xb0 /home/leon/git/swp-report/iMX6_Platform_SDK/output/mx6dq/lib/libsdk.a(hdmi_common.o)
 .debug_frame   0x0000619c      0x130 /home/leon/git/swp-report/iMX6_Platform_SDK/output/mx6dq/lib/libsdk.a(ipu_ic.o)
 .debug_frame   0x000062cc      0x110 /home/leon/git/swp-report/iMX6_Platform_SDK/output/mx6dq/lib/libsdk.a(epit.o)
 .debug_frame   0x000063dc       0x50 /home/leon/git/swp-report/iMX6_Platform_SDK/output/mx6dq/lib/libsdk.a(mx6x_usb.o)
 .debug_frame   0x0000642c       0x38 /home/leon/git/swp-report/iMX6_Platform_SDK/output/mx6dq/lib/libsdk.a(abort_handler.o)
 .debug_frame   0x00006464       0xf0 /home/leon/git/swp-report/iMX6_Platform_SDK/output/mx6dq/lib/libboard_sabre_ai_rev_a.a(board_audio.o)
 .debug_frame   0x00006554       0x30 /home/leon/git/swp-report/iMX6_Platform_SDK/output/mx6dq/lib/libboard_sabre_ai_rev_a.a(board_buttons.o)
 .debug_frame   0x00006584       0xd0 /home/leon/git/swp-report/iMX6_Platform_SDK/output/mx6dq/lib/libboard_sabre_ai_rev_a.a(board_camera.o)
 .debug_frame   0x00006654       0xf0 /home/leon/git/swp-report/iMX6_Platform_SDK/output/mx6dq/lib/libboard_sabre_ai_rev_a.a(board_display.o)
 .debug_frame   0x00006744       0xd0 /home/leon/git/swp-report/iMX6_Platform_SDK/output/mx6dq/lib/libboard_sabre_ai_rev_a.a(board_hdmi.o)
 .debug_frame   0x00006814       0x50 /home/leon/git/swp-report/iMX6_Platform_SDK/output/mx6dq/lib/libboard_sabre_ai_rev_a.a(board_io_expanders.o)
 .debug_frame   0x00006864       0xb0 /home/leon/git/swp-report/iMX6_Platform_SDK/output/mx6dq/lib/libboard_sabre_ai_rev_a.a(board_mipi.o)
 .debug_frame   0x00006914       0xb0 /home/leon/git/swp-report/iMX6_Platform_SDK/output/mx6dq/lib/libboard_sabre_ai_rev_a.a(board_network.o)
 .debug_frame   0x000069c4       0xd0 /home/leon/git/swp-report/iMX6_Platform_SDK/output/mx6dq/lib/libboard_sabre_ai_rev_a.a(board_sata.o)
 .debug_frame   0x00006a94       0x70 /home/leon/git/swp-report/iMX6_Platform_SDK/output/mx6dq/lib/libboard_sabre_ai_rev_a.a(board_usb.o)
 .debug_frame   0x00006b04       0x70 /home/leon/git/swp-report/iMX6_Platform_SDK/output/mx6dq/lib/libboard_sabre_ai_rev_a.a(board_usdhc.o)
 .debug_frame   0x00006b74       0x30 /home/leon/git/swp-report/iMX6_Platform_SDK/output/mx6dq/lib/libboard_sabre_ai_rev_a.a(audmux_iomux_config.o)
 .debug_frame   0x00006ba4       0x30 /home/leon/git/swp-report/iMX6_Platform_SDK/output/mx6dq/lib/libboard_sabre_ai_rev_a.a(ecspi_iomux_config.o)
 .debug_frame   0x00006bd4       0x30 /home/leon/git/swp-report/iMX6_Platform_SDK/output/mx6dq/lib/libboard_sabre_ai_rev_a.a(eim_iomux_config.o)
 .debug_frame   0x00006c04       0x30 /home/leon/git/swp-report/iMX6_Platform_SDK/output/mx6dq/lib/libboard_sabre_ai_rev_a.a(enet_iomux_config.o)
 .debug_frame   0x00006c34       0x30 /home/leon/git/swp-report/iMX6_Platform_SDK/output/mx6dq/lib/libboard_sabre_ai_rev_a.a(esai_iomux_config.o)
 .debug_frame   0x00006c64       0x30 /home/leon/git/swp-report/iMX6_Platform_SDK/output/mx6dq/lib/libboard_sabre_ai_rev_a.a(i2c3_iomux_config.o)
 .debug_frame   0x00006c94       0x30 /home/leon/git/swp-report/iMX6_Platform_SDK/output/mx6dq/lib/libboard_sabre_ai_rev_a.a(i2c_iomux_config.o)
 .debug_frame   0x00006cc4      0x4b0 /home/leon/git/swp-report/iMX6_Platform_SDK/output/mx6dq/lib/libboard_sabre_ai_rev_a.a(iomux_config.o)
 .debug_frame   0x00007174       0x30 /home/leon/git/swp-report/iMX6_Platform_SDK/output/mx6dq/lib/libboard_sabre_ai_rev_a.a(ipu1_iomux_config.o)
 .debug_frame   0x000071a4       0x30 /home/leon/git/swp-report/iMX6_Platform_SDK/output/mx6dq/lib/libboard_sabre_ai_rev_a.a(ipu_iomux_config.o)
 .debug_frame   0x000071d4       0x30 /home/leon/git/swp-report/iMX6_Platform_SDK/output/mx6dq/lib/libboard_sabre_ai_rev_a.a(mlb_iomux_config.o)
 .debug_frame   0x00007204       0x30 /home/leon/git/swp-report/iMX6_Platform_SDK/output/mx6dq/lib/libboard_sabre_ai_rev_a.a(mmdc_iomux_config.o)
 .debug_frame   0x00007234       0x30 /home/leon/git/swp-report/iMX6_Platform_SDK/output/mx6dq/lib/libboard_sabre_ai_rev_a.a(pwm3_iomux_config.o)
 .debug_frame   0x00007264       0x30 /home/leon/git/swp-report/iMX6_Platform_SDK/output/mx6dq/lib/libboard_sabre_ai_rev_a.a(pwm4_iomux_config.o)
 .debug_frame   0x00007294       0x30 /home/leon/git/swp-report/iMX6_Platform_SDK/output/mx6dq/lib/libboard_sabre_ai_rev_a.a(sjc_iomux_config.o)
 .debug_frame   0x000072c4       0x30 /home/leon/git/swp-report/iMX6_Platform_SDK/output/mx6dq/lib/libboard_sabre_ai_rev_a.a(spdif_iomux_config.o)
 .debug_frame   0x000072f4       0x30 /home/leon/git/swp-report/iMX6_Platform_SDK/output/mx6dq/lib/libboard_sabre_ai_rev_a.a(uart2_iomux_config.o)
 .debug_frame   0x00007324       0x30 /home/leon/git/swp-report/iMX6_Platform_SDK/output/mx6dq/lib/libboard_sabre_ai_rev_a.a(uart3_iomux_config.o)
 .debug_frame   0x00007354       0x30 /home/leon/git/swp-report/iMX6_Platform_SDK/output/mx6dq/lib/libboard_sabre_ai_rev_a.a(uart4_iomux_config.o)
 .debug_frame   0x00007384       0x30 /home/leon/git/swp-report/iMX6_Platform_SDK/output/mx6dq/lib/libboard_sabre_ai_rev_a.a(uart_iomux_config.o)
 .debug_frame   0x000073b4       0x30 /home/leon/git/swp-report/iMX6_Platform_SDK/output/mx6dq/lib/libboard_sabre_ai_rev_a.a(usdhc1_iomux_config.o)
 .debug_frame   0x000073e4       0x30 /home/leon/git/swp-report/iMX6_Platform_SDK/output/mx6dq/lib/libboard_sabre_ai_rev_a.a(usdhc3_iomux_config.o)
 .debug_frame   0x00007414       0x30 /home/leon/git/swp-report/iMX6_Platform_SDK/output/mx6dq/lib/libboard_sabre_ai_rev_a.a(usdhc_iomux_config.o)
 .debug_frame   0x00007444       0x30 /home/leon/git/swp-report/iMX6_Platform_SDK/output/mx6dq/lib/libboard_sabre_ai_rev_a.a(wdog1_iomux_config.o)
 .debug_frame   0x00007474       0x30 /home/leon/git/swp-report/iMX6_Platform_SDK/output/mx6dq/lib/libboard_sabre_ai_rev_a.a(ccm_iomux_config.o)
 .debug_frame   0x000074a4       0x30 /home/leon/git/swp-report/iMX6_Platform_SDK/output/mx6dq/lib/libboard_sabre_ai_rev_a.a(ecspi1_iomux_config.o)
 .debug_frame   0x000074d4       0x30 /home/leon/git/swp-report/iMX6_Platform_SDK/output/mx6dq/lib/libboard_sabre_ai_rev_a.a(flexcan1_iomux_config.o)
 .debug_frame   0x00007504       0x30 /home/leon/git/swp-report/iMX6_Platform_SDK/output/mx6dq/lib/libboard_sabre_ai_rev_a.a(flexcan2_iomux_config.o)
 .debug_frame   0x00007534       0x30 /home/leon/git/swp-report/iMX6_Platform_SDK/output/mx6dq/lib/libboard_sabre_ai_rev_a.a(gpio1_iomux_config.o)
 .debug_frame   0x00007564       0x30 /home/leon/git/swp-report/iMX6_Platform_SDK/output/mx6dq/lib/libboard_sabre_ai_rev_a.a(gpio2_iomux_config.o)
 .debug_frame   0x00007594       0x30 /home/leon/git/swp-report/iMX6_Platform_SDK/output/mx6dq/lib/libboard_sabre_ai_rev_a.a(gpio4_iomux_config.o)
 .debug_frame   0x000075c4       0x30 /home/leon/git/swp-report/iMX6_Platform_SDK/output/mx6dq/lib/libboard_sabre_ai_rev_a.a(gpio5_iomux_config.o)
 .debug_frame   0x000075f4       0x30 /home/leon/git/swp-report/iMX6_Platform_SDK/output/mx6dq/lib/libboard_sabre_ai_rev_a.a(gpio6_iomux_config.o)
 .debug_frame   0x00007624       0x30 /home/leon/git/swp-report/iMX6_Platform_SDK/output/mx6dq/lib/libboard_sabre_ai_rev_a.a(gpmi_iomux_config.o)
 .debug_frame   0x00007654       0x30 /home/leon/git/swp-report/iMX6_Platform_SDK/output/mx6dq/lib/libboard_sabre_ai_rev_a.a(i2c2_iomux_config.o)
 .debug_frame   0x00007684       0x40 /home/leon/riotboard/arm-2012.09/bin/../arm-none-eabi/lib//libc.a(lib_a-assert.o)
 .debug_frame   0x000076c4       0x20 /home/leon/riotboard/arm-2012.09/bin/../arm-none-eabi/lib//libc.a(lib_a-bzero.o)
 .debug_frame   0x000076e4       0x54 /home/leon/riotboard/arm-2012.09/bin/../arm-none-eabi/lib//libc.a(lib_a-fiprintf.o)
 .debug_frame   0x00007738       0x48 /home/leon/riotboard/arm-2012.09/bin/../arm-none-eabi/lib//libc.a(lib_a-fputc.o)
 .debug_frame   0x00007780       0x2c /home/leon/riotboard/arm-2012.09/bin/../arm-none-eabi/lib//libc.a(lib_a-init.o)
 .debug_frame   0x000077ac       0x40 /home/leon/riotboard/arm-2012.09/bin/../arm-none-eabi/lib//libc.a(lib_a-malloc.o)
 .debug_frame   0x000077ec       0x38 /home/leon/riotboard/arm-2012.09/bin/../arm-none-eabi/lib//libc.a(lib_a-mallocr.o)
 .debug_frame   0x00007824       0x30 /home/leon/riotboard/arm-2012.09/bin/../arm-none-eabi/lib//libc.a(lib_a-memcpy.o)
 .debug_frame   0x00007854       0x28 /home/leon/riotboard/arm-2012.09/bin/../arm-none-eabi/lib//libc.a(lib_a-memset.o)
 .debug_frame   0x0000787c       0x30 /home/leon/riotboard/arm-2012.09/bin/../arm-none-eabi/lib//libc.a(lib_a-mlock.o)
 .debug_frame   0x000078ac       0x58 /home/leon/riotboard/arm-2012.09/bin/../arm-none-eabi/lib//libc.a(lib_a-printf.o)
 .debug_frame   0x00007904       0x48 /home/leon/riotboard/arm-2012.09/bin/../arm-none-eabi/lib//libc.a(lib_a-putc.o)
 .debug_frame   0x0000794c       0x28 /home/leon/riotboard/arm-2012.09/bin/../arm-none-eabi/lib//libc.a(lib_a-realloc.o)
 .debug_frame   0x00007974       0x38 /home/leon/riotboard/arm-2012.09/bin/../arm-none-eabi/lib//libc.a(lib_a-reallocr.o)
 .debug_frame   0x000079ac       0x3c /home/leon/riotboard/arm-2012.09/bin/../arm-none-eabi/lib//libc.a(lib_a-rget.o)
 .debug_frame   0x000079e8       0x2c /home/leon/riotboard/arm-2012.09/bin/../arm-none-eabi/lib//libc.a(lib_a-sbrkr.o)
 .debug_frame   0x00007a14       0x5c /home/leon/riotboard/arm-2012.09/bin/../arm-none-eabi/lib//libc.a(lib_a-sprintf.o)
 .debug_frame   0x00007a70       0x2c /home/leon/riotboard/arm-2012.09/bin/../arm-none-eabi/lib//libc.a(lib_a-strcat.o)
 .debug_frame   0x00007a9c       0x30 /home/leon/riotboard/arm-2012.09/bin/../arm-none-eabi/lib//libc.a(lib_a-strcmp.o)
 .debug_frame   0x00007acc       0x20 /home/leon/riotboard/arm-2012.09/bin/../arm-none-eabi/lib//libc.a(lib_a-strcpy.o)
 .debug_frame   0x00007aec       0x20 /home/leon/riotboard/arm-2012.09/bin/../arm-none-eabi/lib//libc.a(lib_a-strlen.o)
 .debug_frame   0x00007b0c       0x28 /home/leon/riotboard/arm-2012.09/bin/../arm-none-eabi/lib//libc.a(lib_a-strncasecmp.o)
 .debug_frame   0x00007b34       0x28 /home/leon/riotboard/arm-2012.09/bin/../arm-none-eabi/lib//libc.a(lib_a-strtok.o)
 .debug_frame   0x00007b5c       0x3c /home/leon/riotboard/arm-2012.09/bin/../arm-none-eabi/lib//libc.a(lib_a-strtok_r.o)
 .debug_frame   0x00007b98       0x3c /home/leon/riotboard/arm-2012.09/bin/../arm-none-eabi/lib//libc.a(lib_a-svfprintf.o)
 .debug_frame   0x00007bd4       0x7c /home/leon/riotboard/arm-2012.09/bin/../arm-none-eabi/lib//libc.a(lib_a-vfiprintf.o)
 .debug_frame   0x00007c50       0x58 /home/leon/riotboard/arm-2012.09/bin/../arm-none-eabi/lib//libc.a(lib_a-vfprintf.o)
 .debug_frame   0x00007ca8       0x40 /home/leon/riotboard/arm-2012.09/bin/../arm-none-eabi/lib//libc.a(lib_a-vprintf.o)
 .debug_frame   0x00007ce8       0x3c /home/leon/riotboard/arm-2012.09/bin/../arm-none-eabi/lib//libc.a(lib_a-wbuf.o)
 .debug_frame   0x00007d24       0x2c /home/leon/riotboard/arm-2012.09/bin/../arm-none-eabi/lib//libc.a(lib_a-wsetup.o)
 .debug_frame   0x00007d50       0x28 /home/leon/riotboard/arm-2012.09/bin/../arm-none-eabi/lib//libc.a(lib_a-abort.o)
 .debug_frame   0x00007d78       0x64 /home/leon/riotboard/arm-2012.09/bin/../arm-none-eabi/lib//libc.a(lib_a-dtoa.o)
 .debug_frame   0x00007ddc       0x48 /home/leon/riotboard/arm-2012.09/bin/../arm-none-eabi/lib//libc.a(lib_a-fflush.o)
 .debug_frame   0x00007e24      0x134 /home/leon/riotboard/arm-2012.09/bin/../arm-none-eabi/lib//libc.a(lib_a-findfp.o)
 .debug_frame   0x00007f58       0x50 /home/leon/riotboard/arm-2012.09/bin/../arm-none-eabi/lib//libc.a(lib_a-fputwc.o)
 .debug_frame   0x00007fa8       0x50 /home/leon/riotboard/arm-2012.09/bin/../arm-none-eabi/lib//libc.a(lib_a-freer.o)
 .debug_frame   0x00007ff8       0x38 /home/leon/riotboard/arm-2012.09/bin/../arm-none-eabi/lib//libc.a(lib_a-fvwrite.o)
 .debug_frame   0x00008030       0x54 /home/leon/riotboard/arm-2012.09/bin/../arm-none-eabi/lib//libc.a(lib_a-fwalk.o)
 .debug_frame   0x00008084       0x98 /home/leon/riotboard/arm-2012.09/bin/../arm-none-eabi/lib//libc.a(lib_a-locale.o)
 .debug_frame   0x0000811c       0x30 /home/leon/riotboard/arm-2012.09/bin/../arm-none-eabi/lib//libc.a(lib_a-makebuf.o)
 .debug_frame   0x0000814c       0x2c /home/leon/riotboard/arm-2012.09/bin/../arm-none-eabi/lib//libc.a(lib_a-memchr.o)
 .debug_frame   0x00008178       0x2c /home/leon/riotboard/arm-2012.09/bin/../arm-none-eabi/lib//libc.a(lib_a-memmove.o)
 .debug_frame   0x000081a4      0x220 /home/leon/riotboard/arm-2012.09/bin/../arm-none-eabi/lib//libc.a(lib_a-mprec.o)
 .debug_frame   0x000083c4       0x68 /home/leon/riotboard/arm-2012.09/bin/../arm-none-eabi/lib//libc.a(lib_a-reent.o)
 .debug_frame   0x0000842c       0x44 /home/leon/riotboard/arm-2012.09/bin/../arm-none-eabi/lib//libc.a(lib_a-refill.o)
 .debug_frame   0x00008470       0x20 /home/leon/riotboard/arm-2012.09/bin/../arm-none-eabi/lib//libc.a(lib_a-s_fpclassify.o)
 .debug_frame   0x00008490       0xc0 /home/leon/riotboard/arm-2012.09/bin/../arm-none-eabi/lib//libc.a(lib_a-signal.o)
 .debug_frame   0x00008550       0x44 /home/leon/riotboard/arm-2012.09/bin/../arm-none-eabi/lib//libc.a(lib_a-signalr.o)
 .debug_frame   0x00008594       0x88 /home/leon/riotboard/arm-2012.09/bin/../arm-none-eabi/lib//libc.a(lib_a-stdio.o)
 .debug_frame   0x0000861c       0x64 /home/leon/riotboard/arm-2012.09/bin/../arm-none-eabi/lib//libc.a(lib_a-svfiprintf.o)
 .debug_frame   0x00008680       0x58 /home/leon/riotboard/arm-2012.09/bin/../arm-none-eabi/lib//libc.a(lib_a-wcrtomb.o)
 .debug_frame   0x000086d8       0x44 /home/leon/riotboard/arm-2012.09/bin/../arm-none-eabi/lib//libc.a(lib_a-wctomb_r.o)
 .debug_frame   0x0000871c       0x2c /home/leon/riotboard/arm-2012.09/bin/../arm-none-eabi/lib//libc.a(lib_a-writer.o)
 .debug_frame   0x00008748       0x28 /home/leon/riotboard/arm-2012.09/bin/../arm-none-eabi/lib//libc.a(lib_a-callocr.o)
 .debug_frame   0x00008770       0x2c /home/leon/riotboard/arm-2012.09/bin/../arm-none-eabi/lib//libc.a(lib_a-closer.o)
 .debug_frame   0x0000879c       0x3c /home/leon/riotboard/arm-2012.09/bin/../arm-none-eabi/lib//libc.a(lib_a-fclose.o)
 .debug_frame   0x000087d8       0x2c /home/leon/riotboard/arm-2012.09/bin/../arm-none-eabi/lib//libc.a(lib_a-fstatr.o)
 .debug_frame   0x00008804       0x2c /home/leon/riotboard/arm-2012.09/bin/../arm-none-eabi/lib//libc.a(lib_a-isattyr.o)
 .debug_frame   0x00008830       0x2c /home/leon/riotboard/arm-2012.09/bin/../arm-none-eabi/lib//libc.a(lib_a-lseekr.o)
 .debug_frame   0x0000885c       0x2c /home/leon/riotboard/arm-2012.09/bin/../arm-none-eabi/lib//libc.a(lib_a-readr.o)
 .debug_frame   0x00008888       0x20 /home/leon/riotboard/arm-2012.09/bin/../lib/gcc/arm-none-eabi/4.7.2//libgcc.a(_udivsi3.o)
 .debug_frame   0x000088a8       0x20 /home/leon/riotboard/arm-2012.09/bin/../lib/gcc/arm-none-eabi/4.7.2//libgcc.a(_divsi3.o)
 .debug_frame   0x000088c8       0x54 /home/leon/riotboard/arm-2012.09/bin/../lib/gcc/arm-none-eabi/4.7.2//libgcc.a(bpabi.o)
 .debug_frame   0x0000891c       0x38 /home/leon/riotboard/arm-2012.09/bin/../lib/gcc/arm-none-eabi/4.7.2//libgcc.a(_divdi3.o)
 .debug_frame   0x00008954       0x38 /home/leon/riotboard/arm-2012.09/bin/../lib/gcc/arm-none-eabi/4.7.2//libgcc.a(_udivdi3.o)
 .debug_frame   0x0000898c      0x290 /home/leon/git/swp-report/iMX6_Platform_SDK/output/mx6dq/lib/libsdk.a(runtime_support.o)

.debug_ranges   0x00000000       0x60
 .debug_ranges  0x00000000       0x18 /home/leon/git/swp-report/iMX6_Platform_SDK/output/mx6dq/obds/sabre_ai_rev_a/obj/sdk/drivers/sata/test/sata_test.o
 .debug_ranges  0x00000018       0x30 /home/leon/git/swp-report/iMX6_Platform_SDK/output/mx6dq/lib/libsdk.a(menu.o)
 .debug_ranges  0x00000048       0x18 /home/leon/git/swp-report/iMX6_Platform_SDK/output/mx6dq/lib/libsdk.a(system_util.o)

Cross Reference Table

Symbol                                            File
AT45DB321D_id                                     /home/leon/git/swp-report/iMX6_Platform_SDK/output/mx6dq/obds/sabre_ai_rev_a/obj/apps/obds/src/tests/imx_spi_nor_test.o
Audio_ChannelCount                                /home/leon/git/swp-report/iMX6_Platform_SDK/output/mx6dq/lib/libsdk.a(hdmi_tx_audio.o)
CPU_Tests                                         /home/leon/git/swp-report/iMX6_Platform_SDK/output/mx6dq/obds/sabre_ai_rev_a/obj/apps/obds/src/obds.o
DA9053_Read                                       /home/leon/git/swp-report/iMX6_Platform_SDK/output/mx6dq/obds/sabre_ai_rev_a/obj/apps/obds/src/tests/touch_screen.o
DA9053_Write                                      /home/leon/git/swp-report/iMX6_Platform_SDK/output/mx6dq/obds/sabre_ai_rev_a/obj/apps/obds/src/tests/touch_screen.o
Delay4Reload                                      /home/leon/git/swp-report/iMX6_Platform_SDK/output/mx6dq/lib/libsdk.a(ocotp.o)
Display_Test                                      /home/leon/git/swp-report/iMX6_Platform_SDK/output/mx6dq/obds/sabre_ai_rev_a/obj/apps/obds/src/obds.o
IRQ_HDLR                                          /home/leon/git/swp-report/iMX6_Platform_SDK/output/mx6dq/lib/libsdk.a(interrupt.o)
                                                  /home/leon/git/swp-report/iMX6_Platform_SDK/output/mx6dq/lib/libsdk.a(vectors.o)
KSZ9021RN_test_main                               /home/leon/git/swp-report/iMX6_Platform_SDK/output/mx6dq/obds/sabre_ai_rev_a/obj/apps/obds/src/tests/enet_mx6dldq_test.o
                                                  /home/leon/git/swp-report/iMX6_Platform_SDK/output/mx6dq/obds/sabre_ai_rev_a/obj/apps/obds/src/obds.o
M25P32_id                                         /home/leon/git/swp-report/iMX6_Platform_SDK/output/mx6dq/obds/sabre_ai_rev_a/obj/apps/obds/src/tests/imx_spi_nor_test.o
MainBoard_Tests                                   /home/leon/git/swp-report/iMX6_Platform_SDK/output/mx6dq/obds/sabre_ai_rev_a/obj/apps/obds/src/obds.o
MenuList_All_Tests                                /home/leon/git/swp-report/iMX6_Platform_SDK/output/mx6dq/obds/sabre_ai_rev_a/obj/apps/obds/src/obds.o
Menu_Commands                                     /home/leon/git/swp-report/iMX6_Platform_SDK/output/mx6dq/obds/sabre_ai_rev_a/obj/apps/obds/src/obds.o
PLL1_OUTPUT                                       /home/leon/git/swp-report/iMX6_Platform_SDK/output/mx6dq/lib/libsdk.a(ccm_pll.o)
PLL2_OUTPUT                                       /home/leon/git/swp-report/iMX6_Platform_SDK/output/mx6dq/lib/libsdk.a(ccm_pll.o)
PLL3_OUTPUT                                       /home/leon/git/swp-report/iMX6_Platform_SDK/output/mx6dq/lib/libsdk.a(ccm_pll.o)
PLL4_OUTPUT                                       /home/leon/git/swp-report/iMX6_Platform_SDK/output/mx6dq/lib/libsdk.a(ccm_pll.o)
PLL5_OUTPUT                                       /home/leon/git/swp-report/iMX6_Platform_SDK/output/mx6dq/lib/libsdk.a(ccm_pll.o)
SDHC_UHSI_mode                                    /home/leon/git/swp-report/iMX6_Platform_SDK/output/mx6dq/obds/sabre_ai_rev_a/obj/apps/obds/src/tests/mmcsd_test.o
SGTL5000PowerUp_and_clockinit                     /home/leon/git/swp-report/iMX6_Platform_SDK/output/mx6dq/lib/libboard_sabre_ai_rev_a.a(board_audio.o)
                                                  /home/leon/git/swp-report/iMX6_Platform_SDK/output/mx6dq/lib/libsdk.a(sgtl5000.o)
WM8958_DAC_configure                              /home/leon/git/swp-report/iMX6_Platform_SDK/output/mx6dq/lib/libsdk.a(wm8958_dac.o)
WM8958_DAC_deinit                                 /home/leon/git/swp-report/iMX6_Platform_SDK/output/mx6dq/lib/libsdk.a(wm8958_dac.o)
WM8958_DAC_init                                   /home/leon/git/swp-report/iMX6_Platform_SDK/output/mx6dq/lib/libsdk.a(wm8958_dac.o)
WM8958_dump                                       /home/leon/git/swp-report/iMX6_Platform_SDK/output/mx6dq/lib/libsdk.a(wm8958_dac.o)
WM8962_DAC_configure                              /home/leon/git/swp-report/iMX6_Platform_SDK/output/mx6dq/lib/libsdk.a(wm8962.o)
WM8962_DAC_deinit                                 /home/leon/git/swp-report/iMX6_Platform_SDK/output/mx6dq/lib/libsdk.a(wm8962.o)
WM8962_DAC_init                                   /home/leon/git/swp-report/iMX6_Platform_SDK/output/mx6dq/lib/libsdk.a(wm8962.o)
WM8962_dump                                       /home/leon/git/swp-report/iMX6_Platform_SDK/output/mx6dq/lib/libsdk.a(wm8962.o)
_Balloc                                           /home/leon/riotboard/arm-2012.09/bin/../arm-none-eabi/lib//libc.a(lib_a-mprec.o)
                                                  /home/leon/riotboard/arm-2012.09/bin/../arm-none-eabi/lib//libc.a(lib_a-dtoa.o)
_Bfree                                            /home/leon/riotboard/arm-2012.09/bin/../arm-none-eabi/lib//libc.a(lib_a-mprec.o)
                                                  /home/leon/riotboard/arm-2012.09/bin/../arm-none-eabi/lib//libc.a(lib_a-dtoa.o)
_ITM_deregisterTMCloneTable                       /home/leon/riotboard/arm-2012.09/bin/../lib/gcc/arm-none-eabi/4.7.2//crtbegin.o
_ITM_registerTMCloneTable                         /home/leon/riotboard/arm-2012.09/bin/../lib/gcc/arm-none-eabi/4.7.2//crtbegin.o
_Jv_RegisterClasses                               /home/leon/riotboard/arm-2012.09/bin/../lib/gcc/arm-none-eabi/4.7.2//crtbegin.o
_PathLocale                                       /home/leon/riotboard/arm-2012.09/bin/../arm-none-eabi/lib//libc.a(lib_a-locale.o)
__TMC_END__                                       /home/leon/riotboard/arm-2012.09/bin/../lib/gcc/arm-none-eabi/4.7.2//crtend.o
                                                  /home/leon/riotboard/arm-2012.09/bin/../lib/gcc/arm-none-eabi/4.7.2//crtbegin.o
__adddf3                                          /home/leon/riotboard/arm-2012.09/bin/../lib/gcc/arm-none-eabi/4.7.2//libgcc.a(_arm_addsubdf3.o)
__aeabi_cdcmpeq                                   /home/leon/riotboard/arm-2012.09/bin/../lib/gcc/arm-none-eabi/4.7.2//libgcc.a(_arm_cmpdf2.o)
__aeabi_cdcmple                                   /home/leon/riotboard/arm-2012.09/bin/../lib/gcc/arm-none-eabi/4.7.2//libgcc.a(_arm_cmpdf2.o)
__aeabi_cdrcmple                                  /home/leon/riotboard/arm-2012.09/bin/../lib/gcc/arm-none-eabi/4.7.2//libgcc.a(_arm_cmpdf2.o)
__aeabi_d2iz                                      /home/leon/riotboard/arm-2012.09/bin/../lib/gcc/arm-none-eabi/4.7.2//libgcc.a(_arm_fixdfsi.o)
                                                  /home/leon/riotboard/arm-2012.09/bin/../arm-none-eabi/lib//libc.a(lib_a-dtoa.o)
__aeabi_dadd                                      /home/leon/riotboard/arm-2012.09/bin/../lib/gcc/arm-none-eabi/4.7.2//libgcc.a(_arm_addsubdf3.o)
                                                  /home/leon/riotboard/arm-2012.09/bin/../arm-none-eabi/lib//libc.a(lib_a-dtoa.o)
__aeabi_dcmpeq                                    /home/leon/riotboard/arm-2012.09/bin/../lib/gcc/arm-none-eabi/4.7.2//libgcc.a(_arm_cmpdf2.o)
                                                  /home/leon/riotboard/arm-2012.09/bin/../arm-none-eabi/lib//libc.a(lib_a-dtoa.o)
                                                  /home/leon/riotboard/arm-2012.09/bin/../arm-none-eabi/lib//libc.a(lib_a-vfprintf.o)
                                                  /home/leon/riotboard/arm-2012.09/bin/../arm-none-eabi/lib//libc.a(lib_a-svfprintf.o)
__aeabi_dcmpge                                    /home/leon/riotboard/arm-2012.09/bin/../lib/gcc/arm-none-eabi/4.7.2//libgcc.a(_arm_cmpdf2.o)
                                                  /home/leon/riotboard/arm-2012.09/bin/../arm-none-eabi/lib//libc.a(lib_a-dtoa.o)
__aeabi_dcmpgt                                    /home/leon/riotboard/arm-2012.09/bin/../lib/gcc/arm-none-eabi/4.7.2//libgcc.a(_arm_cmpdf2.o)
                                                  /home/leon/riotboard/arm-2012.09/bin/../arm-none-eabi/lib//libc.a(lib_a-dtoa.o)
__aeabi_dcmple                                    /home/leon/riotboard/arm-2012.09/bin/../lib/gcc/arm-none-eabi/4.7.2//libgcc.a(_arm_cmpdf2.o)
__aeabi_dcmplt                                    /home/leon/riotboard/arm-2012.09/bin/../lib/gcc/arm-none-eabi/4.7.2//libgcc.a(_arm_cmpdf2.o)
                                                  /home/leon/riotboard/arm-2012.09/bin/../arm-none-eabi/lib//libc.a(lib_a-dtoa.o)
                                                  /home/leon/riotboard/arm-2012.09/bin/../arm-none-eabi/lib//libc.a(lib_a-vfprintf.o)
                                                  /home/leon/riotboard/arm-2012.09/bin/../arm-none-eabi/lib//libc.a(lib_a-svfprintf.o)
__aeabi_ddiv                                      /home/leon/riotboard/arm-2012.09/bin/../lib/gcc/arm-none-eabi/4.7.2//libgcc.a(_arm_muldivdf3.o)
                                                  /home/leon/riotboard/arm-2012.09/bin/../arm-none-eabi/lib//libc.a(lib_a-mprec.o)
                                                  /home/leon/riotboard/arm-2012.09/bin/../arm-none-eabi/lib//libc.a(lib_a-dtoa.o)
__aeabi_dmul                                      /home/leon/riotboard/arm-2012.09/bin/../lib/gcc/arm-none-eabi/4.7.2//libgcc.a(_arm_muldivdf3.o)
                                                  /home/leon/riotboard/arm-2012.09/bin/../arm-none-eabi/lib//libc.a(lib_a-mprec.o)
                                                  /home/leon/riotboard/arm-2012.09/bin/../arm-none-eabi/lib//libc.a(lib_a-dtoa.o)
__aeabi_drsub                                     /home/leon/riotboard/arm-2012.09/bin/../lib/gcc/arm-none-eabi/4.7.2//libgcc.a(_arm_addsubdf3.o)
__aeabi_dsub                                      /home/leon/riotboard/arm-2012.09/bin/../lib/gcc/arm-none-eabi/4.7.2//libgcc.a(_arm_addsubdf3.o)
                                                  /home/leon/riotboard/arm-2012.09/bin/../arm-none-eabi/lib//libc.a(lib_a-dtoa.o)
__aeabi_f2d                                       /home/leon/riotboard/arm-2012.09/bin/../lib/gcc/arm-none-eabi/4.7.2//libgcc.a(_arm_addsubdf3.o)
__aeabi_i2d                                       /home/leon/riotboard/arm-2012.09/bin/../lib/gcc/arm-none-eabi/4.7.2//libgcc.a(_arm_addsubdf3.o)
                                                  /home/leon/riotboard/arm-2012.09/bin/../arm-none-eabi/lib//libc.a(lib_a-dtoa.o)
__aeabi_idiv                                      /home/leon/riotboard/arm-2012.09/bin/../lib/gcc/arm-none-eabi/4.7.2//libgcc.a(_divsi3.o)
                                                  /home/leon/git/swp-report/iMX6_Platform_SDK/output/mx6dq/lib/libsdk.a(ipu_ic.o)
                                                  /home/leon/git/swp-report/iMX6_Platform_SDK/output/mx6dq/lib/libsdk.a(usdhc_host.o)
                                                  /home/leon/git/swp-report/iMX6_Platform_SDK/output/mx6dq/lib/libsdk.a(ipu_common.o)
__aeabi_idiv0                                     /home/leon/riotboard/arm-2012.09/bin/../lib/gcc/arm-none-eabi/4.7.2//libgcc.a(_dvmd_tls.o)
                                                  /home/leon/riotboard/arm-2012.09/bin/../lib/gcc/arm-none-eabi/4.7.2//libgcc.a(_divsi3.o)
                                                  /home/leon/riotboard/arm-2012.09/bin/../lib/gcc/arm-none-eabi/4.7.2//libgcc.a(_udivsi3.o)
__aeabi_idivmod                                   /home/leon/riotboard/arm-2012.09/bin/../lib/gcc/arm-none-eabi/4.7.2//libgcc.a(_divsi3.o)
                                                  /home/leon/git/swp-report/iMX6_Platform_SDK/output/mx6dq/lib/libsdk.a(usdhc_host.o)
                                                  /home/leon/git/swp-report/iMX6_Platform_SDK/output/mx6dq/lib/libsdk.a(ipu_common.o)
__aeabi_l2d                                       /home/leon/riotboard/arm-2012.09/bin/../lib/gcc/arm-none-eabi/4.7.2//libgcc.a(_arm_addsubdf3.o)
__aeabi_ldiv0                                     /home/leon/riotboard/arm-2012.09/bin/../lib/gcc/arm-none-eabi/4.7.2//libgcc.a(_dvmd_tls.o)
                                                  /home/leon/riotboard/arm-2012.09/bin/../lib/gcc/arm-none-eabi/4.7.2//libgcc.a(_aeabi_uldivmod.o)
__aeabi_ui2d                                      /home/leon/riotboard/arm-2012.09/bin/../lib/gcc/arm-none-eabi/4.7.2//libgcc.a(_arm_addsubdf3.o)
                                                  /home/leon/riotboard/arm-2012.09/bin/../arm-none-eabi/lib//libc.a(lib_a-dtoa.o)
__aeabi_uidiv                                     /home/leon/riotboard/arm-2012.09/bin/../lib/gcc/arm-none-eabi/4.7.2//libgcc.a(_udivsi3.o)
                                                  /home/leon/riotboard/arm-2012.09/bin/../lib/gcc/arm-none-eabi/4.7.2//libgcc.a(_udivdi3.o)
                                                  /home/leon/riotboard/arm-2012.09/bin/../lib/gcc/arm-none-eabi/4.7.2//libgcc.a(_divdi3.o)
                                                  /home/leon/riotboard/arm-2012.09/bin/../arm-none-eabi/lib//libc.a(lib_a-dtoa.o)
                                                  /home/leon/git/swp-report/iMX6_Platform_SDK/output/mx6dq/lib/libsdk.a(sata.o)
                                                  /home/leon/git/swp-report/iMX6_Platform_SDK/output/mx6dq/lib/libsdk.a(imx_i2c.o)
                                                  /home/leon/git/swp-report/iMX6_Platform_SDK/output/mx6dq/lib/libsdk.a(imx-ssi.o)
                                                  /home/leon/git/swp-report/iMX6_Platform_SDK/output/mx6dq/lib/libsdk.a(ccm_pll.o)
                                                  /home/leon/git/swp-report/iMX6_Platform_SDK/output/mx6dq/obds/sabre_ai_rev_a/obj/sdk/drivers/spi/test/imx_spi_nor_atmel.o
__aeabi_uidivmod                                  /home/leon/riotboard/arm-2012.09/bin/../lib/gcc/arm-none-eabi/4.7.2//libgcc.a(_udivsi3.o)
                                                  /home/leon/riotboard/arm-2012.09/bin/../lib/gcc/arm-none-eabi/4.7.2//libgcc.a(_udivdi3.o)
                                                  /home/leon/riotboard/arm-2012.09/bin/../lib/gcc/arm-none-eabi/4.7.2//libgcc.a(_divdi3.o)
                                                  /home/leon/git/swp-report/iMX6_Platform_SDK/output/mx6dq/lib/libsdk.a(sata.o)
                                                  /home/leon/git/swp-report/iMX6_Platform_SDK/output/mx6dq/obds/sabre_ai_rev_a/obj/sdk/drivers/spi/test/imx_spi_nor_atmel.o
__aeabi_ul2d                                      /home/leon/riotboard/arm-2012.09/bin/../lib/gcc/arm-none-eabi/4.7.2//libgcc.a(_arm_addsubdf3.o)
__aeabi_uldivmod                                  /home/leon/riotboard/arm-2012.09/bin/../lib/gcc/arm-none-eabi/4.7.2//libgcc.a(_aeabi_uldivmod.o)
                                                  /home/leon/git/swp-report/iMX6_Platform_SDK/output/mx6dq/lib/libsdk.a(runtime_support.o)
                                                  /home/leon/riotboard/arm-2012.09/bin/../arm-none-eabi/lib//libc.a(lib_a-svfiprintf.o)
                                                  /home/leon/riotboard/arm-2012.09/bin/../arm-none-eabi/lib//libc.a(lib_a-vfprintf.o)
                                                  /home/leon/riotboard/arm-2012.09/bin/../arm-none-eabi/lib//libc.a(lib_a-vfiprintf.o)
                                                  /home/leon/riotboard/arm-2012.09/bin/../arm-none-eabi/lib//libc.a(lib_a-svfprintf.o)
                                                  /home/leon/git/swp-report/iMX6_Platform_SDK/output/mx6dq/lib/libsdk.a(timer.o)
__any_on                                          /home/leon/riotboard/arm-2012.09/bin/../arm-none-eabi/lib//libc.a(lib_a-mprec.o)
__ascii_wctomb                                    /home/leon/riotboard/arm-2012.09/bin/../arm-none-eabi/lib//libc.a(lib_a-wctomb_r.o)
__assert                                          /home/leon/riotboard/arm-2012.09/bin/../arm-none-eabi/lib//libc.a(lib_a-assert.o)
__assert_func                                     /home/leon/riotboard/arm-2012.09/bin/../arm-none-eabi/lib//libc.a(lib_a-assert.o)
                                                  /home/leon/git/swp-report/iMX6_Platform_SDK/output/mx6dq/lib/libboard_sabre_ai_rev_a.a(usdhc_iomux_config.o)
                                                  /home/leon/git/swp-report/iMX6_Platform_SDK/output/mx6dq/lib/libboard_sabre_ai_rev_a.a(uart_iomux_config.o)
                                                  /home/leon/git/swp-report/iMX6_Platform_SDK/output/mx6dq/lib/libboard_sabre_ai_rev_a.a(ipu_iomux_config.o)
                                                  /home/leon/git/swp-report/iMX6_Platform_SDK/output/mx6dq/lib/libboard_sabre_ai_rev_a.a(i2c_iomux_config.o)
                                                  /home/leon/git/swp-report/iMX6_Platform_SDK/output/mx6dq/lib/libboard_sabre_ai_rev_a.a(ecspi_iomux_config.o)
                                                  /home/leon/git/swp-report/iMX6_Platform_SDK/output/mx6dq/lib/libsdk.a(gic.o)
__b2d                                             /home/leon/riotboard/arm-2012.09/bin/../arm-none-eabi/lib//libc.a(lib_a-mprec.o)
__bss_end__                                       /home/leon/git/swp-report/iMX6_Platform_SDK/output/mx6dq/lib/libsdk.a(startup.o)
__bss_start__                                     /home/leon/git/swp-report/iMX6_Platform_SDK/output/mx6dq/lib/libsdk.a(startup.o)
__clzsi2                                          /home/leon/riotboard/arm-2012.09/bin/../lib/gcc/arm-none-eabi/4.7.2//libgcc.a(_clzsi2.o)
                                                  /home/leon/riotboard/arm-2012.09/bin/../lib/gcc/arm-none-eabi/4.7.2//libgcc.a(_udivdi3.o)
                                                  /home/leon/riotboard/arm-2012.09/bin/../lib/gcc/arm-none-eabi/4.7.2//libgcc.a(_divdi3.o)
__cmpdf2                                          /home/leon/riotboard/arm-2012.09/bin/../lib/gcc/arm-none-eabi/4.7.2//libgcc.a(_arm_cmpdf2.o)
__copybits                                        /home/leon/riotboard/arm-2012.09/bin/../arm-none-eabi/lib//libc.a(lib_a-mprec.o)
__ctype_ptr__                                     /home/leon/riotboard/arm-2012.09/bin/../arm-none-eabi/lib//libc.a(lib_a-ctype_.o)
                                                  /home/leon/riotboard/arm-2012.09/bin/../arm-none-eabi/lib//libc.a(lib_a-strncasecmp.o)
__d2b                                             /home/leon/riotboard/arm-2012.09/bin/../arm-none-eabi/lib//libc.a(lib_a-mprec.o)
                                                  /home/leon/riotboard/arm-2012.09/bin/../arm-none-eabi/lib//libc.a(lib_a-dtoa.o)
__deregister_frame_info                           /home/leon/riotboard/arm-2012.09/bin/../lib/gcc/arm-none-eabi/4.7.2//crtbegin.o
__divdf3                                          /home/leon/riotboard/arm-2012.09/bin/../lib/gcc/arm-none-eabi/4.7.2//libgcc.a(_arm_muldivdf3.o)
__divdi3                                          /home/leon/riotboard/arm-2012.09/bin/../lib/gcc/arm-none-eabi/4.7.2//libgcc.a(_divdi3.o)
                                                  /home/leon/riotboard/arm-2012.09/bin/../lib/gcc/arm-none-eabi/4.7.2//libgcc.a(bpabi.o)
__divsi3                                          /home/leon/riotboard/arm-2012.09/bin/../lib/gcc/arm-none-eabi/4.7.2//libgcc.a(_divsi3.o)
__dso_handle                                      /home/leon/riotboard/arm-2012.09/bin/../lib/gcc/arm-none-eabi/4.7.2//crtbegin.o
__env                                             /home/leon/git/swp-report/iMX6_Platform_SDK/output/mx6dq/lib/libsdk.a(runtime_support.o)
__eqdf2                                           /home/leon/riotboard/arm-2012.09/bin/../lib/gcc/arm-none-eabi/4.7.2//libgcc.a(_arm_cmpdf2.o)
__extendsfdf2                                     /home/leon/riotboard/arm-2012.09/bin/../lib/gcc/arm-none-eabi/4.7.2//libgcc.a(_arm_addsubdf3.o)
__fixdfsi                                         /home/leon/riotboard/arm-2012.09/bin/../lib/gcc/arm-none-eabi/4.7.2//libgcc.a(_arm_fixdfsi.o)
__floatdidf                                       /home/leon/riotboard/arm-2012.09/bin/../lib/gcc/arm-none-eabi/4.7.2//libgcc.a(_arm_addsubdf3.o)
__floatsidf                                       /home/leon/riotboard/arm-2012.09/bin/../lib/gcc/arm-none-eabi/4.7.2//libgcc.a(_arm_addsubdf3.o)
__floatundidf                                     /home/leon/riotboard/arm-2012.09/bin/../lib/gcc/arm-none-eabi/4.7.2//libgcc.a(_arm_addsubdf3.o)
__floatunsidf                                     /home/leon/riotboard/arm-2012.09/bin/../lib/gcc/arm-none-eabi/4.7.2//libgcc.a(_arm_addsubdf3.o)
__fp_lock_all                                     /home/leon/riotboard/arm-2012.09/bin/../arm-none-eabi/lib//libc.a(lib_a-findfp.o)
__fp_unlock_all                                   /home/leon/riotboard/arm-2012.09/bin/../arm-none-eabi/lib//libc.a(lib_a-findfp.o)
__fpclassifyd                                     /home/leon/riotboard/arm-2012.09/bin/../arm-none-eabi/lib//libc.a(lib_a-s_fpclassify.o)
                                                  /home/leon/riotboard/arm-2012.09/bin/../arm-none-eabi/lib//libc.a(lib_a-vfprintf.o)
                                                  /home/leon/riotboard/arm-2012.09/bin/../arm-none-eabi/lib//libc.a(lib_a-svfprintf.o)
__gedf2                                           /home/leon/riotboard/arm-2012.09/bin/../lib/gcc/arm-none-eabi/4.7.2//libgcc.a(_arm_cmpdf2.o)
__gnu_ldivmod_helper                              /home/leon/riotboard/arm-2012.09/bin/../lib/gcc/arm-none-eabi/4.7.2//libgcc.a(bpabi.o)
__gnu_uldivmod_helper                             /home/leon/riotboard/arm-2012.09/bin/../lib/gcc/arm-none-eabi/4.7.2//libgcc.a(bpabi.o)
                                                  /home/leon/riotboard/arm-2012.09/bin/../lib/gcc/arm-none-eabi/4.7.2//libgcc.a(_aeabi_uldivmod.o)
__gtdf2                                           /home/leon/riotboard/arm-2012.09/bin/../lib/gcc/arm-none-eabi/4.7.2//libgcc.a(_arm_cmpdf2.o)
__hab_data                                        /home/leon/git/swp-report/iMX6_Platform_SDK/output/mx6dq/obds/sabre_ai_rev_a/obj/apps/common/ivt.o
__hi0bits                                         /home/leon/riotboard/arm-2012.09/bin/../arm-none-eabi/lib//libc.a(lib_a-mprec.o)
                                                  /home/leon/riotboard/arm-2012.09/bin/../arm-none-eabi/lib//libc.a(lib_a-dtoa.o)
__i2b                                             /home/leon/riotboard/arm-2012.09/bin/../arm-none-eabi/lib//libc.a(lib_a-mprec.o)
                                                  /home/leon/riotboard/arm-2012.09/bin/../arm-none-eabi/lib//libc.a(lib_a-dtoa.o)
__init_array_end                                  /home/leon/riotboard/arm-2012.09/bin/../arm-none-eabi/lib//libc.a(lib_a-init.o)
__init_array_start                                /home/leon/riotboard/arm-2012.09/bin/../arm-none-eabi/lib//libc.a(lib_a-init.o)
__l1_page_table_start                             /home/leon/git/swp-report/iMX6_Platform_SDK/output/mx6dq/lib/libsdk.a(mmu.o)
__ledf2                                           /home/leon/riotboard/arm-2012.09/bin/../lib/gcc/arm-none-eabi/4.7.2//libgcc.a(_arm_cmpdf2.o)
__libc_init_array                                 /home/leon/riotboard/arm-2012.09/bin/../arm-none-eabi/lib//libc.a(lib_a-init.o)
                                                  /home/leon/git/swp-report/iMX6_Platform_SDK/output/mx6dq/lib/libsdk.a(startup.o)
__lo0bits                                         /home/leon/riotboard/arm-2012.09/bin/../arm-none-eabi/lib//libc.a(lib_a-mprec.o)
__locale_charset                                  /home/leon/riotboard/arm-2012.09/bin/../arm-none-eabi/lib//libc.a(lib_a-locale.o)
                                                  /home/leon/riotboard/arm-2012.09/bin/../arm-none-eabi/lib//libc.a(lib_a-wctomb_r.o)
                                                  /home/leon/riotboard/arm-2012.09/bin/../arm-none-eabi/lib//libc.a(lib_a-wcrtomb.o)
__locale_cjk_lang                                 /home/leon/riotboard/arm-2012.09/bin/../arm-none-eabi/lib//libc.a(lib_a-locale.o)
__locale_mb_cur_max                               /home/leon/riotboard/arm-2012.09/bin/../arm-none-eabi/lib//libc.a(lib_a-locale.o)
                                                  /home/leon/riotboard/arm-2012.09/bin/../arm-none-eabi/lib//libc.a(lib_a-fputwc.o)
__locale_msgcharset                               /home/leon/riotboard/arm-2012.09/bin/../arm-none-eabi/lib//libc.a(lib_a-locale.o)
__lshift                                          /home/leon/riotboard/arm-2012.09/bin/../arm-none-eabi/lib//libc.a(lib_a-mprec.o)
                                                  /home/leon/riotboard/arm-2012.09/bin/../arm-none-eabi/lib//libc.a(lib_a-dtoa.o)
__ltdf2                                           /home/leon/riotboard/arm-2012.09/bin/../lib/gcc/arm-none-eabi/4.7.2//libgcc.a(_arm_cmpdf2.o)
__malloc_av_                                      /home/leon/riotboard/arm-2012.09/bin/../arm-none-eabi/lib//libc.a(lib_a-mallocr.o)
                                                  /home/leon/riotboard/arm-2012.09/bin/../arm-none-eabi/lib//libc.a(lib_a-freer.o)
                                                  /home/leon/riotboard/arm-2012.09/bin/../arm-none-eabi/lib//libc.a(lib_a-reallocr.o)
__malloc_current_mallinfo                         /home/leon/riotboard/arm-2012.09/bin/../arm-none-eabi/lib//libc.a(lib_a-mallocr.o)
                                                  /home/leon/riotboard/arm-2012.09/bin/../arm-none-eabi/lib//libc.a(lib_a-freer.o)
__malloc_lock                                     /home/leon/riotboard/arm-2012.09/bin/../arm-none-eabi/lib//libc.a(lib_a-mlock.o)
                                                  /home/leon/riotboard/arm-2012.09/bin/../arm-none-eabi/lib//libc.a(lib_a-freer.o)
                                                  /home/leon/riotboard/arm-2012.09/bin/../arm-none-eabi/lib//libc.a(lib_a-reallocr.o)
                                                  /home/leon/riotboard/arm-2012.09/bin/../arm-none-eabi/lib//libc.a(lib_a-mallocr.o)
__malloc_max_sbrked_mem                           /home/leon/riotboard/arm-2012.09/bin/../arm-none-eabi/lib//libc.a(lib_a-mallocr.o)
__malloc_max_total_mem                            /home/leon/riotboard/arm-2012.09/bin/../arm-none-eabi/lib//libc.a(lib_a-mallocr.o)
__malloc_sbrk_base                                /home/leon/riotboard/arm-2012.09/bin/../arm-none-eabi/lib//libc.a(lib_a-mallocr.o)
                                                  /home/leon/riotboard/arm-2012.09/bin/../arm-none-eabi/lib//libc.a(lib_a-freer.o)
__malloc_top_pad                                  /home/leon/riotboard/arm-2012.09/bin/../arm-none-eabi/lib//libc.a(lib_a-mallocr.o)
                                                  /home/leon/riotboard/arm-2012.09/bin/../arm-none-eabi/lib//libc.a(lib_a-freer.o)
__malloc_trim_threshold                           /home/leon/riotboard/arm-2012.09/bin/../arm-none-eabi/lib//libc.a(lib_a-mallocr.o)
                                                  /home/leon/riotboard/arm-2012.09/bin/../arm-none-eabi/lib//libc.a(lib_a-freer.o)
__malloc_unlock                                   /home/leon/riotboard/arm-2012.09/bin/../arm-none-eabi/lib//libc.a(lib_a-mlock.o)
                                                  /home/leon/riotboard/arm-2012.09/bin/../arm-none-eabi/lib//libc.a(lib_a-freer.o)
                                                  /home/leon/riotboard/arm-2012.09/bin/../arm-none-eabi/lib//libc.a(lib_a-reallocr.o)
                                                  /home/leon/riotboard/arm-2012.09/bin/../arm-none-eabi/lib//libc.a(lib_a-mallocr.o)
__mb_cur_max                                      /home/leon/riotboard/arm-2012.09/bin/../arm-none-eabi/lib//libc.a(lib_a-locale.o)
__mcmp                                            /home/leon/riotboard/arm-2012.09/bin/../arm-none-eabi/lib//libc.a(lib_a-mprec.o)
                                                  /home/leon/riotboard/arm-2012.09/bin/../arm-none-eabi/lib//libc.a(lib_a-dtoa.o)
__mdiff                                           /home/leon/riotboard/arm-2012.09/bin/../arm-none-eabi/lib//libc.a(lib_a-mprec.o)
                                                  /home/leon/riotboard/arm-2012.09/bin/../arm-none-eabi/lib//libc.a(lib_a-dtoa.o)
__mlocale_changed                                 /home/leon/riotboard/arm-2012.09/bin/../arm-none-eabi/lib//libc.a(lib_a-locale.o)
__mprec_bigtens                                   /home/leon/riotboard/arm-2012.09/bin/../arm-none-eabi/lib//libc.a(lib_a-mprec.o)
                                                  /home/leon/riotboard/arm-2012.09/bin/../arm-none-eabi/lib//libc.a(lib_a-dtoa.o)
__mprec_tens                                      /home/leon/riotboard/arm-2012.09/bin/../arm-none-eabi/lib//libc.a(lib_a-mprec.o)
                                                  /home/leon/riotboard/arm-2012.09/bin/../arm-none-eabi/lib//libc.a(lib_a-dtoa.o)
__mprec_tinytens                                  /home/leon/riotboard/arm-2012.09/bin/../arm-none-eabi/lib//libc.a(lib_a-mprec.o)
__muldf3                                          /home/leon/riotboard/arm-2012.09/bin/../lib/gcc/arm-none-eabi/4.7.2//libgcc.a(_arm_muldivdf3.o)
__multadd                                         /home/leon/riotboard/arm-2012.09/bin/../arm-none-eabi/lib//libc.a(lib_a-mprec.o)
                                                  /home/leon/riotboard/arm-2012.09/bin/../arm-none-eabi/lib//libc.a(lib_a-dtoa.o)
__multiply                                        /home/leon/riotboard/arm-2012.09/bin/../arm-none-eabi/lib//libc.a(lib_a-mprec.o)
                                                  /home/leon/riotboard/arm-2012.09/bin/../arm-none-eabi/lib//libc.a(lib_a-dtoa.o)
__nedf2                                           /home/leon/riotboard/arm-2012.09/bin/../lib/gcc/arm-none-eabi/4.7.2//libgcc.a(_arm_cmpdf2.o)
__nlocale_changed                                 /home/leon/riotboard/arm-2012.09/bin/../arm-none-eabi/lib//libc.a(lib_a-locale.o)
__pow5mult                                        /home/leon/riotboard/arm-2012.09/bin/../arm-none-eabi/lib//libc.a(lib_a-mprec.o)
                                                  /home/leon/riotboard/arm-2012.09/bin/../arm-none-eabi/lib//libc.a(lib_a-dtoa.o)
__preinit_array_end                               /home/leon/riotboard/arm-2012.09/bin/../arm-none-eabi/lib//libc.a(lib_a-init.o)
__preinit_array_start                             /home/leon/riotboard/arm-2012.09/bin/../arm-none-eabi/lib//libc.a(lib_a-init.o)
__ram_vectors_end                                 /home/leon/git/swp-report/iMX6_Platform_SDK/output/mx6dq/lib/libsdk.a(startup.o)
__ram_vectors_start                               /home/leon/git/swp-report/iMX6_Platform_SDK/output/mx6dq/lib/libsdk.a(startup.o)
__ratio                                           /home/leon/riotboard/arm-2012.09/bin/../arm-none-eabi/lib//libc.a(lib_a-mprec.o)
__register_frame_info                             /home/leon/riotboard/arm-2012.09/bin/../lib/gcc/arm-none-eabi/4.7.2//crtbegin.o
__s2b                                             /home/leon/riotboard/arm-2012.09/bin/../arm-none-eabi/lib//libc.a(lib_a-mprec.o)
__sclose                                          /home/leon/riotboard/arm-2012.09/bin/../arm-none-eabi/lib//libc.a(lib_a-stdio.o)
                                                  /home/leon/riotboard/arm-2012.09/bin/../arm-none-eabi/lib//libc.a(lib_a-findfp.o)
__seofread                                        /home/leon/riotboard/arm-2012.09/bin/../arm-none-eabi/lib//libc.a(lib_a-stdio.o)
__sfmoreglue                                      /home/leon/riotboard/arm-2012.09/bin/../arm-none-eabi/lib//libc.a(lib_a-findfp.o)
__sfp                                             /home/leon/riotboard/arm-2012.09/bin/../arm-none-eabi/lib//libc.a(lib_a-findfp.o)
__sfp_lock_acquire                                /home/leon/riotboard/arm-2012.09/bin/../arm-none-eabi/lib//libc.a(lib_a-findfp.o)
                                                  /home/leon/riotboard/arm-2012.09/bin/../arm-none-eabi/lib//libc.a(lib_a-fclose.o)
                                                  /home/leon/riotboard/arm-2012.09/bin/../arm-none-eabi/lib//libc.a(lib_a-fwalk.o)
__sfp_lock_release                                /home/leon/riotboard/arm-2012.09/bin/../arm-none-eabi/lib//libc.a(lib_a-findfp.o)
                                                  /home/leon/riotboard/arm-2012.09/bin/../arm-none-eabi/lib//libc.a(lib_a-fclose.o)
                                                  /home/leon/riotboard/arm-2012.09/bin/../arm-none-eabi/lib//libc.a(lib_a-fwalk.o)
__sfvwrite_r                                      /home/leon/riotboard/arm-2012.09/bin/../arm-none-eabi/lib//libc.a(lib_a-fvwrite.o)
                                                  /home/leon/riotboard/arm-2012.09/bin/../arm-none-eabi/lib//libc.a(lib_a-vfiprintf.o)
__sigtramp                                        /home/leon/riotboard/arm-2012.09/bin/../arm-none-eabi/lib//libc.a(lib_a-signal.o)
__sigtramp_r                                      /home/leon/riotboard/arm-2012.09/bin/../arm-none-eabi/lib//libc.a(lib_a-signal.o)
__sinit                                           /home/leon/riotboard/arm-2012.09/bin/../arm-none-eabi/lib//libc.a(lib_a-findfp.o)
                                                  /home/leon/riotboard/arm-2012.09/bin/../arm-none-eabi/lib//libc.a(lib_a-fclose.o)
                                                  /home/leon/riotboard/arm-2012.09/bin/../arm-none-eabi/lib//libc.a(lib_a-refill.o)
                                                  /home/leon/riotboard/arm-2012.09/bin/../arm-none-eabi/lib//libc.a(lib_a-fputwc.o)
                                                  /home/leon/riotboard/arm-2012.09/bin/../arm-none-eabi/lib//libc.a(lib_a-fflush.o)
                                                  /home/leon/riotboard/arm-2012.09/bin/../arm-none-eabi/lib//libc.a(lib_a-wsetup.o)
                                                  /home/leon/riotboard/arm-2012.09/bin/../arm-none-eabi/lib//libc.a(lib_a-wbuf.o)
                                                  /home/leon/riotboard/arm-2012.09/bin/../arm-none-eabi/lib//libc.a(lib_a-vfprintf.o)
                                                  /home/leon/riotboard/arm-2012.09/bin/../arm-none-eabi/lib//libc.a(lib_a-vfiprintf.o)
                                                  /home/leon/riotboard/arm-2012.09/bin/../arm-none-eabi/lib//libc.a(lib_a-rget.o)
                                                  /home/leon/riotboard/arm-2012.09/bin/../arm-none-eabi/lib//libc.a(lib_a-putc.o)
                                                  /home/leon/riotboard/arm-2012.09/bin/../arm-none-eabi/lib//libc.a(lib_a-fputc.o)
__sinit_lock_acquire                              /home/leon/riotboard/arm-2012.09/bin/../arm-none-eabi/lib//libc.a(lib_a-findfp.o)
__sinit_lock_release                              /home/leon/riotboard/arm-2012.09/bin/../arm-none-eabi/lib//libc.a(lib_a-findfp.o)
__smakebuf_r                                      /home/leon/riotboard/arm-2012.09/bin/../arm-none-eabi/lib//libc.a(lib_a-makebuf.o)
                                                  /home/leon/riotboard/arm-2012.09/bin/../arm-none-eabi/lib//libc.a(lib_a-refill.o)
                                                  /home/leon/riotboard/arm-2012.09/bin/../arm-none-eabi/lib//libc.a(lib_a-wsetup.o)
__sprint_r                                        /home/leon/riotboard/arm-2012.09/bin/../arm-none-eabi/lib//libc.a(lib_a-vfiprintf.o)
                                                  /home/leon/riotboard/arm-2012.09/bin/../arm-none-eabi/lib//libc.a(lib_a-vfprintf.o)
__sread                                           /home/leon/riotboard/arm-2012.09/bin/../arm-none-eabi/lib//libc.a(lib_a-stdio.o)
                                                  /home/leon/riotboard/arm-2012.09/bin/../arm-none-eabi/lib//libc.a(lib_a-findfp.o)
__srefill_r                                       /home/leon/riotboard/arm-2012.09/bin/../arm-none-eabi/lib//libc.a(lib_a-refill.o)
                                                  /home/leon/riotboard/arm-2012.09/bin/../arm-none-eabi/lib//libc.a(lib_a-rget.o)
__srget                                           /home/leon/riotboard/arm-2012.09/bin/../arm-none-eabi/lib//libc.a(lib_a-rget.o)
__srget_r                                         /home/leon/riotboard/arm-2012.09/bin/../arm-none-eabi/lib//libc.a(lib_a-rget.o)
                                                  /home/leon/git/swp-report/iMX6_Platform_SDK/output/mx6dq/lib/libsdk.a(usb_common.o)
                                                  /home/leon/git/swp-report/iMX6_Platform_SDK/output/mx6dq/lib/libsdk.a(system_util.o)
                                                  /home/leon/git/swp-report/iMX6_Platform_SDK/output/mx6dq/lib/libsdk.a(menu.o)
                                                  /home/leon/git/swp-report/iMX6_Platform_SDK/output/mx6dq/obds/sabre_ai_rev_a/obj/sdk/drivers/usdhc/test/usdhc_test.o
                                                  /home/leon/git/swp-report/iMX6_Platform_SDK/output/mx6dq/obds/sabre_ai_rev_a/obj/sdk/drivers/uart/test/uart_test.o
                                                  /home/leon/git/swp-report/iMX6_Platform_SDK/output/mx6dq/obds/sabre_ai_rev_a/obj/sdk/drivers/sata/test/sata_test.o
                                                  /home/leon/git/swp-report/iMX6_Platform_SDK/output/mx6dq/obds/sabre_ai_rev_a/obj/sdk/drivers/ipu/test/ips_display.o
                                                  /home/leon/git/swp-report/iMX6_Platform_SDK/output/mx6dq/obds/sabre_ai_rev_a/obj/sdk/drivers/camera/test/sensor_capture.o
                                                  /home/leon/git/swp-report/iMX6_Platform_SDK/output/mx6dq/obds/sabre_ai_rev_a/obj/sdk/drivers/camera/test/csi_test_mode.o
                                                  /home/leon/git/swp-report/iMX6_Platform_SDK/output/mx6dq/obds/sabre_ai_rev_a/obj/sdk/drivers/camera/test/camera_test.o
                                                  /home/leon/git/swp-report/iMX6_Platform_SDK/output/mx6dq/obds/sabre_ai_rev_a/obj/sdk/drivers/camera/test/adv7180_capture.o
                                                  /home/leon/git/swp-report/iMX6_Platform_SDK/output/mx6dq/obds/sabre_ai_rev_a/obj/apps/obds/src/tests/video_dec_adv7180.o
                                                  /home/leon/git/swp-report/iMX6_Platform_SDK/output/mx6dq/obds/sabre_ai_rev_a/obj/apps/obds/src/tests/touch_screen_max11801.o
                                                  /home/leon/git/swp-report/iMX6_Platform_SDK/output/mx6dq/obds/sabre_ai_rev_a/obj/apps/obds/src/tests/touch_screen.o
                                                  /home/leon/git/swp-report/iMX6_Platform_SDK/output/mx6dq/obds/sabre_ai_rev_a/obj/apps/obds/src/tests/program_mac_address.o
                                                  /home/leon/git/swp-report/iMX6_Platform_SDK/output/mx6dq/obds/sabre_ai_rev_a/obj/apps/obds/src/tests/pmic_lt3589.o
                                                  /home/leon/git/swp-report/iMX6_Platform_SDK/output/mx6dq/obds/sabre_ai_rev_a/obj/apps/obds/src/tests/i2c_device_id_check_p1003_tsc.o
                                                  /home/leon/git/swp-report/iMX6_Platform_SDK/output/mx6dq/obds/sabre_ai_rev_a/obj/apps/obds/src/tests/i2c_device_id_check_mma8451.o
                                                  /home/leon/git/swp-report/iMX6_Platform_SDK/output/mx6dq/obds/sabre_ai_rev_a/obj/apps/obds/src/tests/i2c_device_id_check_mma8450.o
                                                  /home/leon/git/swp-report/iMX6_Platform_SDK/output/mx6dq/obds/sabre_ai_rev_a/obj/apps/obds/src/tests/i2c_check_light_sensor_isl29023.o
                                                  /home/leon/git/swp-report/iMX6_Platform_SDK/output/mx6dq/obds/sabre_ai_rev_a/obj/apps/obds/src/tests/gpio_led.o
                                                  /home/leon/git/swp-report/iMX6_Platform_SDK/output/mx6dq/obds/sabre_ai_rev_a/obj/apps/obds/src/tests/display_test.o
                                                  /home/leon/git/swp-report/iMX6_Platform_SDK/output/mx6dq/obds/sabre_ai_rev_a/obj/apps/obds/src/tests/audio_ssi_test.o
                                                  /home/leon/git/swp-report/iMX6_Platform_SDK/output/mx6dq/obds/sabre_ai_rev_a/obj/apps/obds/src/tests/audio_esai_test.o
                                                  /home/leon/git/swp-report/iMX6_Platform_SDK/output/mx6dq/obds/sabre_ai_rev_a/obj/apps/obds/src/tests/android_buttons_test.o
__sseek                                           /home/leon/riotboard/arm-2012.09/bin/../arm-none-eabi/lib//libc.a(lib_a-stdio.o)
                                                  /home/leon/riotboard/arm-2012.09/bin/../arm-none-eabi/lib//libc.a(lib_a-makebuf.o)
                                                  /home/leon/riotboard/arm-2012.09/bin/../arm-none-eabi/lib//libc.a(lib_a-findfp.o)
__ssprint_r                                       /home/leon/riotboard/arm-2012.09/bin/../arm-none-eabi/lib//libc.a(lib_a-svfiprintf.o)
                                                  /home/leon/riotboard/arm-2012.09/bin/../arm-none-eabi/lib//libc.a(lib_a-svfprintf.o)
__stacks_start                                    /home/leon/git/swp-report/iMX6_Platform_SDK/output/mx6dq/lib/libsdk.a(startup.o)
__start_boot_data                                 /home/leon/git/swp-report/iMX6_Platform_SDK/output/mx6dq/obds/sabre_ai_rev_a/obj/apps/common/ivt.o
__strtok_r                                        /home/leon/riotboard/arm-2012.09/bin/../arm-none-eabi/lib//libc.a(lib_a-strtok_r.o)
                                                  /home/leon/riotboard/arm-2012.09/bin/../arm-none-eabi/lib//libc.a(lib_a-strtok.o)
__subdf3                                          /home/leon/riotboard/arm-2012.09/bin/../lib/gcc/arm-none-eabi/4.7.2//libgcc.a(_arm_addsubdf3.o)
__swbuf                                           /home/leon/riotboard/arm-2012.09/bin/../arm-none-eabi/lib//libc.a(lib_a-wbuf.o)
__swbuf_r                                         /home/leon/riotboard/arm-2012.09/bin/../arm-none-eabi/lib//libc.a(lib_a-wbuf.o)
                                                  /home/leon/riotboard/arm-2012.09/bin/../arm-none-eabi/lib//libc.a(lib_a-fputwc.o)
                                                  /home/leon/riotboard/arm-2012.09/bin/../arm-none-eabi/lib//libc.a(lib_a-putc.o)
__swrite                                          /home/leon/riotboard/arm-2012.09/bin/../arm-none-eabi/lib//libc.a(lib_a-stdio.o)
                                                  /home/leon/riotboard/arm-2012.09/bin/../arm-none-eabi/lib//libc.a(lib_a-findfp.o)
__swsetup_r                                       /home/leon/riotboard/arm-2012.09/bin/../arm-none-eabi/lib//libc.a(lib_a-wsetup.o)
                                                  /home/leon/riotboard/arm-2012.09/bin/../arm-none-eabi/lib//libc.a(lib_a-fvwrite.o)
                                                  /home/leon/riotboard/arm-2012.09/bin/../arm-none-eabi/lib//libc.a(lib_a-wbuf.o)
                                                  /home/leon/riotboard/arm-2012.09/bin/../arm-none-eabi/lib//libc.a(lib_a-vfprintf.o)
                                                  /home/leon/riotboard/arm-2012.09/bin/../arm-none-eabi/lib//libc.a(lib_a-vfiprintf.o)
__udivdi3                                         /home/leon/riotboard/arm-2012.09/bin/../lib/gcc/arm-none-eabi/4.7.2//libgcc.a(_udivdi3.o)
                                                  /home/leon/riotboard/arm-2012.09/bin/../lib/gcc/arm-none-eabi/4.7.2//libgcc.a(bpabi.o)
__udivsi3                                         /home/leon/riotboard/arm-2012.09/bin/../lib/gcc/arm-none-eabi/4.7.2//libgcc.a(_udivsi3.o)
__ulp                                             /home/leon/riotboard/arm-2012.09/bin/../arm-none-eabi/lib//libc.a(lib_a-mprec.o)
__wctomb                                          /home/leon/riotboard/arm-2012.09/bin/../arm-none-eabi/lib//libc.a(lib_a-wctomb_r.o)
                                                  /home/leon/riotboard/arm-2012.09/bin/../arm-none-eabi/lib//libc.a(lib_a-wcrtomb.o)
_calloc_r                                         /home/leon/riotboard/arm-2012.09/bin/../arm-none-eabi/lib//libc.a(lib_a-callocr.o)
                                                  /home/leon/riotboard/arm-2012.09/bin/../arm-none-eabi/lib//libc.a(lib_a-mprec.o)
_cleanup                                          /home/leon/riotboard/arm-2012.09/bin/../arm-none-eabi/lib//libc.a(lib_a-findfp.o)
_cleanup_r                                        /home/leon/riotboard/arm-2012.09/bin/../arm-none-eabi/lib//libc.a(lib_a-findfp.o)
                                                  /home/leon/riotboard/arm-2012.09/bin/../arm-none-eabi/lib//libc.a(lib_a-makebuf.o)
_close                                            /home/leon/git/swp-report/iMX6_Platform_SDK/output/mx6dq/lib/libsdk.a(runtime_support.o)
                                                  /home/leon/riotboard/arm-2012.09/bin/../arm-none-eabi/lib//libc.a(lib_a-closer.o)
_close_r                                          /home/leon/riotboard/arm-2012.09/bin/../arm-none-eabi/lib//libc.a(lib_a-closer.o)
                                                  /home/leon/riotboard/arm-2012.09/bin/../arm-none-eabi/lib//libc.a(lib_a-stdio.o)
_ctype_                                           /home/leon/riotboard/arm-2012.09/bin/../arm-none-eabi/lib//libc.a(lib_a-ctype_.o)
_dtoa_r                                           /home/leon/riotboard/arm-2012.09/bin/../arm-none-eabi/lib//libc.a(lib_a-dtoa.o)
                                                  /home/leon/riotboard/arm-2012.09/bin/../arm-none-eabi/lib//libc.a(lib_a-vfprintf.o)
                                                  /home/leon/riotboard/arm-2012.09/bin/../arm-none-eabi/lib//libc.a(lib_a-svfprintf.o)
_execve                                           /home/leon/git/swp-report/iMX6_Platform_SDK/output/mx6dq/lib/libsdk.a(runtime_support.o)
_exit                                             /home/leon/git/swp-report/iMX6_Platform_SDK/output/mx6dq/lib/libsdk.a(runtime_support.o)
                                                  /home/leon/riotboard/arm-2012.09/bin/../arm-none-eabi/lib//libc.a(lib_a-abort.o)
_fclose_r                                         /home/leon/riotboard/arm-2012.09/bin/../arm-none-eabi/lib//libc.a(lib_a-fclose.o)
_fflush_r                                         /home/leon/riotboard/arm-2012.09/bin/../arm-none-eabi/lib//libc.a(lib_a-fflush.o)
                                                  /home/leon/riotboard/arm-2012.09/bin/../arm-none-eabi/lib//libc.a(lib_a-fclose.o)
                                                  /home/leon/riotboard/arm-2012.09/bin/../arm-none-eabi/lib//libc.a(lib_a-refill.o)
                                                  /home/leon/riotboard/arm-2012.09/bin/../arm-none-eabi/lib//libc.a(lib_a-fvwrite.o)
                                                  /home/leon/riotboard/arm-2012.09/bin/../arm-none-eabi/lib//libc.a(lib_a-wbuf.o)
                                                  /home/leon/riotboard/arm-2012.09/bin/../arm-none-eabi/lib//libc.a(lib_a-vfprintf.o)
                                                  /home/leon/riotboard/arm-2012.09/bin/../arm-none-eabi/lib//libc.a(lib_a-vfiprintf.o)
_fini                                             /home/leon/riotboard/arm-2012.09/bin/../lib/gcc/arm-none-eabi/4.7.2//crti.o
_fiprintf_r                                       /home/leon/riotboard/arm-2012.09/bin/../arm-none-eabi/lib//libc.a(lib_a-fiprintf.o)
_fork                                             /home/leon/git/swp-report/iMX6_Platform_SDK/output/mx6dq/lib/libsdk.a(runtime_support.o)
_fputc_r                                          /home/leon/riotboard/arm-2012.09/bin/../arm-none-eabi/lib//libc.a(lib_a-fputc.o)
_fputwc_r                                         /home/leon/riotboard/arm-2012.09/bin/../arm-none-eabi/lib//libc.a(lib_a-fputwc.o)
                                                  /home/leon/riotboard/arm-2012.09/bin/../arm-none-eabi/lib//libc.a(lib_a-vfiprintf.o)
_free_r                                           /home/leon/riotboard/arm-2012.09/bin/../arm-none-eabi/lib//libc.a(lib_a-freer.o)
                                                  /home/leon/riotboard/arm-2012.09/bin/../arm-none-eabi/lib//libc.a(lib_a-fclose.o)
                                                  /home/leon/riotboard/arm-2012.09/bin/../arm-none-eabi/lib//libc.a(lib_a-svfiprintf.o)
                                                  /home/leon/riotboard/arm-2012.09/bin/../arm-none-eabi/lib//libc.a(lib_a-refill.o)
                                                  /home/leon/riotboard/arm-2012.09/bin/../arm-none-eabi/lib//libc.a(lib_a-reent.o)
                                                  /home/leon/riotboard/arm-2012.09/bin/../arm-none-eabi/lib//libc.a(lib_a-fvwrite.o)
                                                  /home/leon/riotboard/arm-2012.09/bin/../arm-none-eabi/lib//libc.a(lib_a-fflush.o)
                                                  /home/leon/riotboard/arm-2012.09/bin/../arm-none-eabi/lib//libc.a(lib_a-wsetup.o)
                                                  /home/leon/riotboard/arm-2012.09/bin/../arm-none-eabi/lib//libc.a(lib_a-reallocr.o)
                                                  /home/leon/riotboard/arm-2012.09/bin/../arm-none-eabi/lib//libc.a(lib_a-mallocr.o)
                                                  /home/leon/riotboard/arm-2012.09/bin/../arm-none-eabi/lib//libc.a(lib_a-malloc.o)
_fstat                                            /home/leon/git/swp-report/iMX6_Platform_SDK/output/mx6dq/lib/libsdk.a(runtime_support.o)
                                                  /home/leon/riotboard/arm-2012.09/bin/../arm-none-eabi/lib//libc.a(lib_a-fstatr.o)
_fstat_r                                          /home/leon/riotboard/arm-2012.09/bin/../arm-none-eabi/lib//libc.a(lib_a-fstatr.o)
                                                  /home/leon/riotboard/arm-2012.09/bin/../arm-none-eabi/lib//libc.a(lib_a-makebuf.o)
_fwalk                                            /home/leon/riotboard/arm-2012.09/bin/../arm-none-eabi/lib//libc.a(lib_a-fwalk.o)
                                                  /home/leon/riotboard/arm-2012.09/bin/../arm-none-eabi/lib//libc.a(lib_a-refill.o)
                                                  /home/leon/riotboard/arm-2012.09/bin/../arm-none-eabi/lib//libc.a(lib_a-findfp.o)
_fwalk_reent                                      /home/leon/riotboard/arm-2012.09/bin/../arm-none-eabi/lib//libc.a(lib_a-fwalk.o)
                                                  /home/leon/riotboard/arm-2012.09/bin/../arm-none-eabi/lib//libc.a(lib_a-fflush.o)
_getpid                                           /home/leon/git/swp-report/iMX6_Platform_SDK/output/mx6dq/lib/libsdk.a(runtime_support.o)
                                                  /home/leon/riotboard/arm-2012.09/bin/../arm-none-eabi/lib//libc.a(lib_a-signalr.o)
_getpid_r                                         /home/leon/riotboard/arm-2012.09/bin/../arm-none-eabi/lib//libc.a(lib_a-signalr.o)
                                                  /home/leon/riotboard/arm-2012.09/bin/../arm-none-eabi/lib//libc.a(lib_a-signal.o)
_gettimeofday                                     /home/leon/git/swp-report/iMX6_Platform_SDK/output/mx6dq/lib/libsdk.a(runtime_support.o)
_global_impure_ptr                                /home/leon/riotboard/arm-2012.09/bin/../arm-none-eabi/lib//libc.a(lib_a-impure.o)
                                                  /home/leon/riotboard/arm-2012.09/bin/../arm-none-eabi/lib//libc.a(lib_a-refill.o)
                                                  /home/leon/riotboard/arm-2012.09/bin/../arm-none-eabi/lib//libc.a(lib_a-findfp.o)
                                                  /home/leon/riotboard/arm-2012.09/bin/../arm-none-eabi/lib//libc.a(lib_a-fflush.o)
_image_size                                       /home/leon/git/swp-report/iMX6_Platform_SDK/output/mx6dq/obds/sabre_ai_rev_a/obj/apps/common/ivt.o
_impure_ptr                                       /home/leon/riotboard/arm-2012.09/bin/../arm-none-eabi/lib//libc.a(lib_a-impure.o)
                                                  /home/leon/riotboard/arm-2012.09/bin/../arm-none-eabi/lib//libc.a(lib_a-fclose.o)
                                                  /home/leon/riotboard/arm-2012.09/bin/../arm-none-eabi/lib//libc.a(lib_a-wcrtomb.o)
                                                  /home/leon/riotboard/arm-2012.09/bin/../arm-none-eabi/lib//libc.a(lib_a-signal.o)
                                                  /home/leon/riotboard/arm-2012.09/bin/../arm-none-eabi/lib//libc.a(lib_a-reent.o)
                                                  /home/leon/riotboard/arm-2012.09/bin/../arm-none-eabi/lib//libc.a(lib_a-locale.o)
                                                  /home/leon/riotboard/arm-2012.09/bin/../arm-none-eabi/lib//libc.a(lib_a-fputwc.o)
                                                  /home/leon/riotboard/arm-2012.09/bin/../arm-none-eabi/lib//libc.a(lib_a-findfp.o)
                                                  /home/leon/riotboard/arm-2012.09/bin/../arm-none-eabi/lib//libc.a(lib_a-fflush.o)
                                                  /home/leon/riotboard/arm-2012.09/bin/../arm-none-eabi/lib//libc.a(lib_a-wsetup.o)
                                                  /home/leon/riotboard/arm-2012.09/bin/../arm-none-eabi/lib//libc.a(lib_a-wbuf.o)
                                                  /home/leon/riotboard/arm-2012.09/bin/../arm-none-eabi/lib//libc.a(lib_a-vprintf.o)
                                                  /home/leon/riotboard/arm-2012.09/bin/../arm-none-eabi/lib//libc.a(lib_a-vfprintf.o)
                                                  /home/leon/riotboard/arm-2012.09/bin/../arm-none-eabi/lib//libc.a(lib_a-vfiprintf.o)
                                                  /home/leon/riotboard/arm-2012.09/bin/../arm-none-eabi/lib//libc.a(lib_a-strtok.o)
                                                  /home/leon/riotboard/arm-2012.09/bin/../arm-none-eabi/lib//libc.a(lib_a-sprintf.o)
                                                  /home/leon/riotboard/arm-2012.09/bin/../arm-none-eabi/lib//libc.a(lib_a-rget.o)
                                                  /home/leon/riotboard/arm-2012.09/bin/../arm-none-eabi/lib//libc.a(lib_a-realloc.o)
                                                  /home/leon/riotboard/arm-2012.09/bin/../arm-none-eabi/lib//libc.a(lib_a-putc.o)
                                                  /home/leon/riotboard/arm-2012.09/bin/../arm-none-eabi/lib//libc.a(lib_a-printf.o)
                                                  /home/leon/riotboard/arm-2012.09/bin/../arm-none-eabi/lib//libc.a(lib_a-malloc.o)
                                                  /home/leon/riotboard/arm-2012.09/bin/../arm-none-eabi/lib//libc.a(lib_a-fputc.o)
                                                  /home/leon/riotboard/arm-2012.09/bin/../arm-none-eabi/lib//libc.a(lib_a-fiprintf.o)
                                                  /home/leon/riotboard/arm-2012.09/bin/../arm-none-eabi/lib//libc.a(lib_a-assert.o)
                                                  /home/leon/git/swp-report/iMX6_Platform_SDK/output/mx6dq/lib/libsdk.a(usb_common.o)
                                                  /home/leon/git/swp-report/iMX6_Platform_SDK/output/mx6dq/lib/libsdk.a(system_util.o)
                                                  /home/leon/git/swp-report/iMX6_Platform_SDK/output/mx6dq/lib/libsdk.a(menu.o)
                                                  /home/leon/git/swp-report/iMX6_Platform_SDK/output/mx6dq/obds/sabre_ai_rev_a/obj/sdk/drivers/usdhc/test/usdhc_test.o
                                                  /home/leon/git/swp-report/iMX6_Platform_SDK/output/mx6dq/obds/sabre_ai_rev_a/obj/sdk/drivers/uart/test/uart_test.o
                                                  /home/leon/git/swp-report/iMX6_Platform_SDK/output/mx6dq/obds/sabre_ai_rev_a/obj/sdk/drivers/sata/test/sata_test.o
                                                  /home/leon/git/swp-report/iMX6_Platform_SDK/output/mx6dq/obds/sabre_ai_rev_a/obj/sdk/drivers/ipu/test/ips_display.o
                                                  /home/leon/git/swp-report/iMX6_Platform_SDK/output/mx6dq/obds/sabre_ai_rev_a/obj/sdk/drivers/camera/test/sensor_capture.o
                                                  /home/leon/git/swp-report/iMX6_Platform_SDK/output/mx6dq/obds/sabre_ai_rev_a/obj/sdk/drivers/camera/test/csi_test_mode.o
                                                  /home/leon/git/swp-report/iMX6_Platform_SDK/output/mx6dq/obds/sabre_ai_rev_a/obj/sdk/drivers/camera/test/camera_test.o
                                                  /home/leon/git/swp-report/iMX6_Platform_SDK/output/mx6dq/obds/sabre_ai_rev_a/obj/sdk/drivers/camera/test/adv7180_capture.o
                                                  /home/leon/git/swp-report/iMX6_Platform_SDK/output/mx6dq/obds/sabre_ai_rev_a/obj/apps/obds/src/tests/video_dec_adv7180.o
                                                  /home/leon/git/swp-report/iMX6_Platform_SDK/output/mx6dq/obds/sabre_ai_rev_a/obj/apps/obds/src/tests/touch_screen_max11801.o
                                                  /home/leon/git/swp-report/iMX6_Platform_SDK/output/mx6dq/obds/sabre_ai_rev_a/obj/apps/obds/src/tests/touch_screen.o
                                                  /home/leon/git/swp-report/iMX6_Platform_SDK/output/mx6dq/obds/sabre_ai_rev_a/obj/apps/obds/src/tests/program_mac_address.o
                                                  /home/leon/git/swp-report/iMX6_Platform_SDK/output/mx6dq/obds/sabre_ai_rev_a/obj/apps/obds/src/tests/pmic_lt3589.o
                                                  /home/leon/git/swp-report/iMX6_Platform_SDK/output/mx6dq/obds/sabre_ai_rev_a/obj/apps/obds/src/tests/i2c_device_id_check_p1003_tsc.o
                                                  /home/leon/git/swp-report/iMX6_Platform_SDK/output/mx6dq/obds/sabre_ai_rev_a/obj/apps/obds/src/tests/i2c_device_id_check_mma8451.o
                                                  /home/leon/git/swp-report/iMX6_Platform_SDK/output/mx6dq/obds/sabre_ai_rev_a/obj/apps/obds/src/tests/i2c_device_id_check_mma8450.o
                                                  /home/leon/git/swp-report/iMX6_Platform_SDK/output/mx6dq/obds/sabre_ai_rev_a/obj/apps/obds/src/tests/i2c_check_light_sensor_isl29023.o
                                                  /home/leon/git/swp-report/iMX6_Platform_SDK/output/mx6dq/obds/sabre_ai_rev_a/obj/apps/obds/src/tests/gpio_led.o
                                                  /home/leon/git/swp-report/iMX6_Platform_SDK/output/mx6dq/obds/sabre_ai_rev_a/obj/apps/obds/src/tests/display_test.o
                                                  /home/leon/git/swp-report/iMX6_Platform_SDK/output/mx6dq/obds/sabre_ai_rev_a/obj/apps/obds/src/tests/audio_ssi_test.o
                                                  /home/leon/git/swp-report/iMX6_Platform_SDK/output/mx6dq/obds/sabre_ai_rev_a/obj/apps/obds/src/tests/audio_esai_test.o
                                                  /home/leon/git/swp-report/iMX6_Platform_SDK/output/mx6dq/obds/sabre_ai_rev_a/obj/apps/obds/src/tests/android_buttons_test.o
_init                                             /home/leon/riotboard/arm-2012.09/bin/../lib/gcc/arm-none-eabi/4.7.2//crti.o
                                                  /home/leon/riotboard/arm-2012.09/bin/../arm-none-eabi/lib//libc.a(lib_a-init.o)
_init_signal                                      /home/leon/riotboard/arm-2012.09/bin/../arm-none-eabi/lib//libc.a(lib_a-signal.o)
_init_signal_r                                    /home/leon/riotboard/arm-2012.09/bin/../arm-none-eabi/lib//libc.a(lib_a-signal.o)
_isatty                                           /home/leon/git/swp-report/iMX6_Platform_SDK/output/mx6dq/lib/libsdk.a(runtime_support.o)
                                                  /home/leon/riotboard/arm-2012.09/bin/../arm-none-eabi/lib//libc.a(lib_a-isattyr.o)
_isatty_r                                         /home/leon/riotboard/arm-2012.09/bin/../arm-none-eabi/lib//libc.a(lib_a-isattyr.o)
                                                  /home/leon/riotboard/arm-2012.09/bin/../arm-none-eabi/lib//libc.a(lib_a-makebuf.o)
_kill                                             /home/leon/git/swp-report/iMX6_Platform_SDK/output/mx6dq/lib/libsdk.a(runtime_support.o)
                                                  /home/leon/riotboard/arm-2012.09/bin/../arm-none-eabi/lib//libc.a(lib_a-signalr.o)
_kill_r                                           /home/leon/riotboard/arm-2012.09/bin/../arm-none-eabi/lib//libc.a(lib_a-signalr.o)
                                                  /home/leon/riotboard/arm-2012.09/bin/../arm-none-eabi/lib//libc.a(lib_a-signal.o)
_link                                             /home/leon/git/swp-report/iMX6_Platform_SDK/output/mx6dq/lib/libsdk.a(runtime_support.o)
_localeconv_r                                     /home/leon/riotboard/arm-2012.09/bin/../arm-none-eabi/lib//libc.a(lib_a-locale.o)
                                                  /home/leon/riotboard/arm-2012.09/bin/../arm-none-eabi/lib//libc.a(lib_a-vfprintf.o)
                                                  /home/leon/riotboard/arm-2012.09/bin/../arm-none-eabi/lib//libc.a(lib_a-svfprintf.o)
_lseek                                            /home/leon/git/swp-report/iMX6_Platform_SDK/output/mx6dq/lib/libsdk.a(runtime_support.o)
                                                  /home/leon/riotboard/arm-2012.09/bin/../arm-none-eabi/lib//libc.a(lib_a-lseekr.o)
_lseek_r                                          /home/leon/riotboard/arm-2012.09/bin/../arm-none-eabi/lib//libc.a(lib_a-lseekr.o)
                                                  /home/leon/riotboard/arm-2012.09/bin/../arm-none-eabi/lib//libc.a(lib_a-stdio.o)
_malloc_r                                         /home/leon/riotboard/arm-2012.09/bin/../arm-none-eabi/lib//libc.a(lib_a-mallocr.o)
                                                  /home/leon/riotboard/arm-2012.09/bin/../arm-none-eabi/lib//libc.a(lib_a-callocr.o)
                                                  /home/leon/riotboard/arm-2012.09/bin/../arm-none-eabi/lib//libc.a(lib_a-svfiprintf.o)
                                                  /home/leon/riotboard/arm-2012.09/bin/../arm-none-eabi/lib//libc.a(lib_a-signal.o)
                                                  /home/leon/riotboard/arm-2012.09/bin/../arm-none-eabi/lib//libc.a(lib_a-makebuf.o)
                                                  /home/leon/riotboard/arm-2012.09/bin/../arm-none-eabi/lib//libc.a(lib_a-fvwrite.o)
                                                  /home/leon/riotboard/arm-2012.09/bin/../arm-none-eabi/lib//libc.a(lib_a-findfp.o)
                                                  /home/leon/riotboard/arm-2012.09/bin/../arm-none-eabi/lib//libc.a(lib_a-svfprintf.o)
                                                  /home/leon/riotboard/arm-2012.09/bin/../arm-none-eabi/lib//libc.a(lib_a-reallocr.o)
                                                  /home/leon/riotboard/arm-2012.09/bin/../arm-none-eabi/lib//libc.a(lib_a-malloc.o)
_malloc_trim_r                                    /home/leon/riotboard/arm-2012.09/bin/../arm-none-eabi/lib//libc.a(lib_a-freer.o)
_mprec_log10                                      /home/leon/riotboard/arm-2012.09/bin/../arm-none-eabi/lib//libc.a(lib_a-mprec.o)
_open                                             /home/leon/git/swp-report/iMX6_Platform_SDK/output/mx6dq/lib/libsdk.a(runtime_support.o)
_printf_r                                         /home/leon/riotboard/arm-2012.09/bin/../arm-none-eabi/lib//libc.a(lib_a-printf.o)
_putc_r                                           /home/leon/riotboard/arm-2012.09/bin/../arm-none-eabi/lib//libc.a(lib_a-putc.o)
                                                  /home/leon/riotboard/arm-2012.09/bin/../arm-none-eabi/lib//libc.a(lib_a-fputc.o)
_raise_r                                          /home/leon/riotboard/arm-2012.09/bin/../arm-none-eabi/lib//libc.a(lib_a-signal.o)
_raw_puts                                         /home/leon/git/swp-report/iMX6_Platform_SDK/output/mx6dq/lib/libsdk.a(runtime_support.o)
_read                                             /home/leon/git/swp-report/iMX6_Platform_SDK/output/mx6dq/lib/libsdk.a(runtime_support.o)
                                                  /home/leon/riotboard/arm-2012.09/bin/../arm-none-eabi/lib//libc.a(lib_a-readr.o)
_read_r                                           /home/leon/riotboard/arm-2012.09/bin/../arm-none-eabi/lib//libc.a(lib_a-readr.o)
                                                  /home/leon/riotboard/arm-2012.09/bin/../arm-none-eabi/lib//libc.a(lib_a-stdio.o)
_realloc_r                                        /home/leon/riotboard/arm-2012.09/bin/../arm-none-eabi/lib//libc.a(lib_a-reallocr.o)
                                                  /home/leon/riotboard/arm-2012.09/bin/../arm-none-eabi/lib//libc.a(lib_a-svfiprintf.o)
                                                  /home/leon/riotboard/arm-2012.09/bin/../arm-none-eabi/lib//libc.a(lib_a-fvwrite.o)
                                                  /home/leon/riotboard/arm-2012.09/bin/../arm-none-eabi/lib//libc.a(lib_a-realloc.o)
_reclaim_reent                                    /home/leon/riotboard/arm-2012.09/bin/../arm-none-eabi/lib//libc.a(lib_a-reent.o)
_sbrk                                             /home/leon/git/swp-report/iMX6_Platform_SDK/output/mx6dq/lib/libsdk.a(runtime_support.o)
                                                  /home/leon/riotboard/arm-2012.09/bin/../arm-none-eabi/lib//libc.a(lib_a-sbrkr.o)
_sbrk_r                                           /home/leon/riotboard/arm-2012.09/bin/../arm-none-eabi/lib//libc.a(lib_a-sbrkr.o)
                                                  /home/leon/riotboard/arm-2012.09/bin/../arm-none-eabi/lib//libc.a(lib_a-freer.o)
                                                  /home/leon/riotboard/arm-2012.09/bin/../arm-none-eabi/lib//libc.a(lib_a-mallocr.o)
_setlocale_r                                      /home/leon/riotboard/arm-2012.09/bin/../arm-none-eabi/lib//libc.a(lib_a-locale.o)
_signal_r                                         /home/leon/riotboard/arm-2012.09/bin/../arm-none-eabi/lib//libc.a(lib_a-signal.o)
_sprintf_r                                        /home/leon/riotboard/arm-2012.09/bin/../arm-none-eabi/lib//libc.a(lib_a-sprintf.o)
_start                                            /home/leon/git/swp-report/iMX6_Platform_SDK/output/mx6dq/lib/libsdk.a(startup.o)
                                                  /home/leon/git/swp-report/iMX6_Platform_SDK/output/mx6dq/lib/libsdk.a(vectors.o)
                                                  /home/leon/git/swp-report/iMX6_Platform_SDK/output/mx6dq/obds/sabre_ai_rev_a/obj/apps/common/ivt.o
_start_image_add                                  /home/leon/git/swp-report/iMX6_Platform_SDK/output/mx6dq/obds/sabre_ai_rev_a/obj/apps/common/ivt.o
_stat                                             /home/leon/git/swp-report/iMX6_Platform_SDK/output/mx6dq/lib/libsdk.a(runtime_support.o)
_svfiprintf_r                                     /home/leon/riotboard/arm-2012.09/bin/../arm-none-eabi/lib//libc.a(lib_a-svfiprintf.o)
_svfprintf_r                                      /home/leon/riotboard/arm-2012.09/bin/../arm-none-eabi/lib//libc.a(lib_a-svfprintf.o)
                                                  /home/leon/riotboard/arm-2012.09/bin/../arm-none-eabi/lib//libc.a(lib_a-sprintf.o)
_sys_exit                                         /home/leon/git/swp-report/iMX6_Platform_SDK/output/mx6dq/lib/libsdk.a(system_util.o)
                                                  /home/leon/git/swp-report/iMX6_Platform_SDK/output/mx6dq/lib/libsdk.a(runtime_support.o)
                                                  /home/leon/git/swp-report/iMX6_Platform_SDK/output/mx6dq/lib/libsdk.a(startup.o)
_times                                            /home/leon/git/swp-report/iMX6_Platform_SDK/output/mx6dq/lib/libsdk.a(runtime_support.o)
_unlink                                           /home/leon/git/swp-report/iMX6_Platform_SDK/output/mx6dq/lib/libsdk.a(runtime_support.o)
_vfiprintf_r                                      /home/leon/riotboard/arm-2012.09/bin/../arm-none-eabi/lib//libc.a(lib_a-vfiprintf.o)
                                                  /home/leon/riotboard/arm-2012.09/bin/../arm-none-eabi/lib//libc.a(lib_a-fiprintf.o)
_vfprintf_r                                       /home/leon/riotboard/arm-2012.09/bin/../arm-none-eabi/lib//libc.a(lib_a-vfprintf.o)
                                                  /home/leon/riotboard/arm-2012.09/bin/../arm-none-eabi/lib//libc.a(lib_a-vprintf.o)
                                                  /home/leon/riotboard/arm-2012.09/bin/../arm-none-eabi/lib//libc.a(lib_a-printf.o)
_vprintf_r                                        /home/leon/riotboard/arm-2012.09/bin/../arm-none-eabi/lib//libc.a(lib_a-vprintf.o)
_wait                                             /home/leon/git/swp-report/iMX6_Platform_SDK/output/mx6dq/lib/libsdk.a(runtime_support.o)
_wcrtomb_r                                        /home/leon/riotboard/arm-2012.09/bin/../arm-none-eabi/lib//libc.a(lib_a-wcrtomb.o)
                                                  /home/leon/riotboard/arm-2012.09/bin/../arm-none-eabi/lib//libc.a(lib_a-fputwc.o)
_wctomb_r                                         /home/leon/riotboard/arm-2012.09/bin/../arm-none-eabi/lib//libc.a(lib_a-wctomb_r.o)
_wrapup_reent                                     /home/leon/riotboard/arm-2012.09/bin/../arm-none-eabi/lib//libc.a(lib_a-reent.o)
_write                                            /home/leon/git/swp-report/iMX6_Platform_SDK/output/mx6dq/lib/libsdk.a(runtime_support.o)
                                                  /home/leon/riotboard/arm-2012.09/bin/../arm-none-eabi/lib//libc.a(lib_a-writer.o)
_write_r                                          /home/leon/riotboard/arm-2012.09/bin/../arm-none-eabi/lib//libc.a(lib_a-writer.o)
                                                  /home/leon/riotboard/arm-2012.09/bin/../arm-none-eabi/lib//libc.a(lib_a-stdio.o)
abort                                             /home/leon/riotboard/arm-2012.09/bin/../arm-none-eabi/lib//libc.a(lib_a-abort.o)
                                                  /home/leon/git/swp-report/iMX6_Platform_SDK/output/mx6dq/lib/libsdk.a(runtime_support.o)
                                                  /home/leon/riotboard/arm-2012.09/bin/../arm-none-eabi/lib//libc.a(lib_a-assert.o)
adv7180_capture                                   /home/leon/git/swp-report/iMX6_Platform_SDK/output/mx6dq/obds/sabre_ai_rev_a/obj/sdk/drivers/camera/test/adv7180_capture.o
                                                  /home/leon/git/swp-report/iMX6_Platform_SDK/output/mx6dq/obds/sabre_ai_rev_a/obj/sdk/drivers/camera/test/camera_test.o
adv7180_get_std                                   /home/leon/git/swp-report/iMX6_Platform_SDK/output/mx6dq/lib/libsdk.a(adv7180.o)
                                                  /home/leon/git/swp-report/iMX6_Platform_SDK/output/mx6dq/obds/sabre_ai_rev_a/obj/sdk/drivers/camera/test/adv7180_capture.o
adv7180_i2c_device_id_check                       /home/leon/git/swp-report/iMX6_Platform_SDK/output/mx6dq/obds/sabre_ai_rev_a/obj/apps/obds/src/tests/video_dec_adv7180.o
adv7180_i2c_init_obds                             /home/leon/git/swp-report/iMX6_Platform_SDK/output/mx6dq/obds/sabre_ai_rev_a/obj/apps/obds/src/tests/video_dec_adv7180.o
                                                  /home/leon/git/swp-report/iMX6_Platform_SDK/output/mx6dq/obds/sabre_ai_rev_a/obj/apps/obds/src/tests/video_dec_ARD_MBrst_from_cpu_expander.o
                                                  /home/leon/git/swp-report/iMX6_Platform_SDK/output/mx6dq/obds/sabre_ai_rev_a/obj/apps/obds/src/tests/video_dec_ARD_MB_reset_button.o
                                                  /home/leon/git/swp-report/iMX6_Platform_SDK/output/mx6dq/obds/sabre_ai_rev_a/obj/apps/obds/src/tests/deserializer_ds90ur124.o
adv7180_init                                      /home/leon/git/swp-report/iMX6_Platform_SDK/output/mx6dq/lib/libsdk.a(adv7180.o)
                                                  /home/leon/git/swp-report/iMX6_Platform_SDK/output/mx6dq/obds/sabre_ai_rev_a/obj/sdk/drivers/camera/test/adv7180_capture.o
adv7180_is_interlaced_mode                        /home/leon/git/swp-report/iMX6_Platform_SDK/output/mx6dq/lib/libsdk.a(adv7180.o)
                                                  /home/leon/git/swp-report/iMX6_Platform_SDK/output/mx6dq/obds/sabre_ai_rev_a/obj/sdk/drivers/camera/test/adv7180_capture.o
adv7180_reg_read                                  /home/leon/git/swp-report/iMX6_Platform_SDK/output/mx6dq/obds/sabre_ai_rev_a/obj/apps/obds/src/tests/video_dec_adv7180.o
                                                  /home/leon/git/swp-report/iMX6_Platform_SDK/output/mx6dq/obds/sabre_ai_rev_a/obj/apps/obds/src/tests/video_dec_ARD_MBrst_from_cpu_expander.o
                                                  /home/leon/git/swp-report/iMX6_Platform_SDK/output/mx6dq/obds/sabre_ai_rev_a/obj/apps/obds/src/tests/video_dec_ARD_MB_reset_button.o
adv7180_reg_write                                 /home/leon/git/swp-report/iMX6_Platform_SDK/output/mx6dq/obds/sabre_ai_rev_a/obj/apps/obds/src/tests/video_dec_adv7180.o
                                                  /home/leon/git/swp-report/iMX6_Platform_SDK/output/mx6dq/obds/sabre_ai_rev_a/obj/apps/obds/src/tests/video_dec_ARD_MBrst_from_cpu_expander.o
                                                  /home/leon/git/swp-report/iMX6_Platform_SDK/output/mx6dq/obds/sabre_ai_rev_a/obj/apps/obds/src/tests/video_dec_ARD_MB_reset_button.o
adv7180_set_gpio_output                           /home/leon/git/swp-report/iMX6_Platform_SDK/output/mx6dq/obds/sabre_ai_rev_a/obj/apps/obds/src/tests/video_dec_adv7180.o
                                                  /home/leon/git/swp-report/iMX6_Platform_SDK/output/mx6dq/obds/sabre_ai_rev_a/obj/apps/obds/src/tests/video_dec_ARD_MB_reset_button.o
                                                  /home/leon/git/swp-report/iMX6_Platform_SDK/output/mx6dq/obds/sabre_ai_rev_a/obj/apps/obds/src/tests/deserializer_ds90ur124.o
adv7180_set_tristate_output                       /home/leon/git/swp-report/iMX6_Platform_SDK/output/mx6dq/obds/sabre_ai_rev_a/obj/apps/obds/src/tests/video_dec_adv7180.o
                                                  /home/leon/git/swp-report/iMX6_Platform_SDK/output/mx6dq/obds/sabre_ai_rev_a/obj/apps/obds/src/tests/deserializer_ds90ur124.o
adv7180_test_main                                 /home/leon/git/swp-report/iMX6_Platform_SDK/output/mx6dq/obds/sabre_ai_rev_a/obj/apps/obds/src/tests/video_dec_adv7180.o
                                                  /home/leon/git/swp-report/iMX6_Platform_SDK/output/mx6dq/obds/sabre_ai_rev_a/obj/apps/obds/src/obds.o
adv7180_work_mode                                 /home/leon/git/swp-report/iMX6_Platform_SDK/output/mx6dq/lib/libsdk.a(adv7180.o)
android_buttons_iomux_config                      /home/leon/git/swp-report/iMX6_Platform_SDK/output/mx6dq/lib/libboard_sabre_ai_rev_a.a(board_buttons.o)
                                                  /home/leon/git/swp-report/iMX6_Platform_SDK/output/mx6dq/obds/sabre_ai_rev_a/obj/apps/obds/src/tests/android_buttons_test.o
android_buttons_test                              /home/leon/git/swp-report/iMX6_Platform_SDK/output/mx6dq/obds/sabre_ai_rev_a/obj/apps/obds/src/tests/android_buttons_test.o
                                                  /home/leon/git/swp-report/iMX6_Platform_SDK/output/mx6dq/obds/sabre_ai_rev_a/obj/apps/obds/src/obds.o
ar8031_test_main                                  /home/leon/git/swp-report/iMX6_Platform_SDK/output/mx6dq/obds/sabre_ai_rev_a/obj/apps/obds/src/tests/enet_mx6dldq_test.o
ard_mb_expander_reset_test                        /home/leon/git/swp-report/iMX6_Platform_SDK/output/mx6dq/obds/sabre_ai_rev_a/obj/apps/obds/src/tests/video_dec_ARD_MBrst_from_cpu_expander.o
                                                  /home/leon/git/swp-report/iMX6_Platform_SDK/output/mx6dq/obds/sabre_ai_rev_a/obj/apps/obds/src/obds.o
ard_mb_reset_test                                 /home/leon/git/swp-report/iMX6_Platform_SDK/output/mx6dq/obds/sabre_ai_rev_a/obj/apps/obds/src/tests/video_dec_ARD_MB_reset_button.o
                                                  /home/leon/git/swp-report/iMX6_Platform_SDK/output/mx6dq/obds/sabre_ai_rev_a/obj/apps/obds/src/obds.o
arm_branch_prediction_disable                     /home/leon/git/swp-report/iMX6_Platform_SDK/output/mx6dq/lib/libsdk.a(cortexA9.o)
arm_branch_prediction_enable                      /home/leon/git/swp-report/iMX6_Platform_SDK/output/mx6dq/lib/libsdk.a(cortexA9.o)
arm_branch_target_cache_invalidate                /home/leon/git/swp-report/iMX6_Platform_SDK/output/mx6dq/lib/libsdk.a(cortexA9.o)
arm_branch_target_cache_invalidate_is             /home/leon/git/swp-report/iMX6_Platform_SDK/output/mx6dq/lib/libsdk.a(cortexA9.o)
arm_dcache_disable                                /home/leon/git/swp-report/iMX6_Platform_SDK/output/mx6dq/lib/libsdk.a(armv7_cache.o)
arm_dcache_enable                                 /home/leon/git/swp-report/iMX6_Platform_SDK/output/mx6dq/lib/libsdk.a(armv7_cache.o)
arm_dcache_flush                                  /home/leon/git/swp-report/iMX6_Platform_SDK/output/mx6dq/lib/libsdk.a(armv7_cache.o)
arm_dcache_flush_line                             /home/leon/git/swp-report/iMX6_Platform_SDK/output/mx6dq/lib/libsdk.a(armv7_cache.o)
arm_dcache_flush_mlines                           /home/leon/git/swp-report/iMX6_Platform_SDK/output/mx6dq/lib/libsdk.a(armv7_cache.o)
                                                  /home/leon/git/swp-report/iMX6_Platform_SDK/output/mx6dq/lib/libsdk.a(usdhc.o)
arm_dcache_invalidate                             /home/leon/git/swp-report/iMX6_Platform_SDK/output/mx6dq/lib/libsdk.a(armv7_cache.o)
arm_dcache_invalidate_line                        /home/leon/git/swp-report/iMX6_Platform_SDK/output/mx6dq/lib/libsdk.a(armv7_cache.o)
arm_dcache_invalidate_mlines                      /home/leon/git/swp-report/iMX6_Platform_SDK/output/mx6dq/lib/libsdk.a(armv7_cache.o)
                                                  /home/leon/git/swp-report/iMX6_Platform_SDK/output/mx6dq/lib/libsdk.a(usdhc.o)
arm_dcache_state_query                            /home/leon/git/swp-report/iMX6_Platform_SDK/output/mx6dq/lib/libsdk.a(armv7_cache.o)
                                                  /home/leon/git/swp-report/iMX6_Platform_SDK/output/mx6dq/lib/libsdk.a(usdhc.o)
arm_icache_disable                                /home/leon/git/swp-report/iMX6_Platform_SDK/output/mx6dq/lib/libsdk.a(armv7_cache.o)
arm_icache_enable                                 /home/leon/git/swp-report/iMX6_Platform_SDK/output/mx6dq/lib/libsdk.a(armv7_cache.o)
arm_icache_invalidate                             /home/leon/git/swp-report/iMX6_Platform_SDK/output/mx6dq/lib/libsdk.a(armv7_cache.o)
arm_icache_invalidate_is                          /home/leon/git/swp-report/iMX6_Platform_SDK/output/mx6dq/lib/libsdk.a(armv7_cache.o)
arm_icache_invalidate_line                        /home/leon/git/swp-report/iMX6_Platform_SDK/output/mx6dq/lib/libsdk.a(armv7_cache.o)
arm_icache_invalidate_mlines                      /home/leon/git/swp-report/iMX6_Platform_SDK/output/mx6dq/lib/libsdk.a(armv7_cache.o)
arm_icache_state_query                            /home/leon/git/swp-report/iMX6_Platform_SDK/output/mx6dq/lib/libsdk.a(armv7_cache.o)
arm_iomux_config                                  /home/leon/git/swp-report/iMX6_Platform_SDK/output/mx6dq/lib/libboard_sabre_ai_rev_a.a(iomux_config.o)
arm_set_interrupt_state                           /home/leon/git/swp-report/iMX6_Platform_SDK/output/mx6dq/lib/libsdk.a(cortexA9.o)
                                                  /home/leon/git/swp-report/iMX6_Platform_SDK/output/mx6dq/obds/sabre_ai_rev_a/obj/apps/common/platform_init.o
arm_unified_tlb_invalidate                        /home/leon/git/swp-report/iMX6_Platform_SDK/output/mx6dq/lib/libsdk.a(cortexA9.o)
                                                  /home/leon/git/swp-report/iMX6_Platform_SDK/output/mx6dq/lib/libsdk.a(mmu.o)
arm_unified_tlb_invalidate_is                     /home/leon/git/swp-report/iMX6_Platform_SDK/output/mx6dq/lib/libsdk.a(cortexA9.o)
asrc_iomux_config                                 /home/leon/git/swp-report/iMX6_Platform_SDK/output/mx6dq/lib/libboard_sabre_ai_rev_a.a(iomux_config.o)
audio_ComputeCTS                                  /home/leon/git/swp-report/iMX6_Platform_SDK/output/mx6dq/lib/libsdk.a(hdmi_tx_audio.o)
audio_ComputeN                                    /home/leon/git/swp-report/iMX6_Platform_SDK/output/mx6dq/lib/libsdk.a(hdmi_tx_audio.o)
audio_Configure                                   /home/leon/git/swp-report/iMX6_Platform_SDK/output/mx6dq/lib/libsdk.a(hdmi_tx_audio.o)
                                                  /home/leon/git/swp-report/iMX6_Platform_SDK/output/mx6dq/obds/sabre_ai_rev_a/obj/sdk/drivers/hdmi/test/hdmi_test.o
audio_Configure_DMA                               /home/leon/git/swp-report/iMX6_Platform_SDK/output/mx6dq/lib/libsdk.a(hdmi_tx_audio.o)
                                                  /home/leon/git/swp-report/iMX6_Platform_SDK/output/mx6dq/obds/sabre_ai_rev_a/obj/sdk/drivers/hdmi/test/hdmi_test.o
audio_DMA_BurstMode                               /home/leon/git/swp-report/iMX6_Platform_SDK/output/mx6dq/lib/libsdk.a(hdmi_tx_audio.o)
audio_DMA_IncrType                                /home/leon/git/swp-report/iMX6_Platform_SDK/output/mx6dq/lib/libsdk.a(hdmi_tx_audio.o)
audio_DMA_InterruptMask                           /home/leon/git/swp-report/iMX6_Platform_SDK/output/mx6dq/lib/libsdk.a(hdmi_tx_audio.o)
audio_DMA_InterruptPolarity                       /home/leon/git/swp-report/iMX6_Platform_SDK/output/mx6dq/lib/libsdk.a(hdmi_tx_audio.o)
audio_DMA_LockEnable                              /home/leon/git/swp-report/iMX6_Platform_SDK/output/mx6dq/lib/libsdk.a(hdmi_tx_audio.o)
audio_DMA_ResetFIFO                               /home/leon/git/swp-report/iMX6_Platform_SDK/output/mx6dq/lib/libsdk.a(hdmi_tx_audio.o)
audio_DMA_SetCONF1                                /home/leon/git/swp-report/iMX6_Platform_SDK/output/mx6dq/lib/libsdk.a(hdmi_tx_audio.o)
audio_DMA_Start                                   /home/leon/git/swp-report/iMX6_Platform_SDK/output/mx6dq/lib/libsdk.a(hdmi_tx_audio.o)
audio_DMA_StartAddr                               /home/leon/git/swp-report/iMX6_Platform_SDK/output/mx6dq/lib/libsdk.a(hdmi_tx_audio.o)
audio_DMA_StopAddr                                /home/leon/git/swp-report/iMX6_Platform_SDK/output/mx6dq/lib/libsdk.a(hdmi_tx_audio.o)
audio_DMA_Threshold                               /home/leon/git/swp-report/iMX6_Platform_SDK/output/mx6dq/lib/libsdk.a(hdmi_tx_audio.o)
audio_PacketLayout                                /home/leon/git/swp-report/iMX6_Platform_SDK/output/mx6dq/lib/libsdk.a(hdmi_tx_audio.o)
audio_clk_CTS                                     /home/leon/git/swp-report/iMX6_Platform_SDK/output/mx6dq/lib/libsdk.a(hdmi_tx_audio.o)
audio_clk_N                                       /home/leon/git/swp-report/iMX6_Platform_SDK/output/mx6dq/lib/libsdk.a(hdmi_tx_audio.o)
audio_clock_config                                /home/leon/git/swp-report/iMX6_Platform_SDK/output/mx6dq/lib/libboard_sabre_ai_rev_a.a(board_audio.o)
                                                  /home/leon/git/swp-report/iMX6_Platform_SDK/output/mx6dq/obds/sabre_ai_rev_a/obj/apps/obds/src/tests/audio_ssi_test.o
audio_codec_power_on                              /home/leon/git/swp-report/iMX6_Platform_SDK/output/mx6dq/lib/libboard_sabre_ai_rev_a.a(board_audio.o)
                                                  /home/leon/git/swp-report/iMX6_Platform_SDK/output/mx6dq/lib/libsdk.a(smd_sensor.o)
                                                  /home/leon/git/swp-report/iMX6_Platform_SDK/output/mx6dq/obds/sabre_ai_rev_a/obj/apps/obds/src/tests/audio_ssi_test.o
audio_info_config                                 /home/leon/git/swp-report/iMX6_Platform_SDK/output/mx6dq/lib/libsdk.a(hdmi_tx_audio.o)
audio_record_buf                                  /home/leon/git/swp-report/iMX6_Platform_SDK/output/mx6dq/obds/sabre_ai_rev_a/obj/apps/obds/src/tests/audio_ssi_test.o
audio_test_init                                   /home/leon/git/swp-report/iMX6_Platform_SDK/output/mx6dq/obds/sabre_ai_rev_a/obj/apps/obds/src/tests/audio_ssi_test.o
audmux_iomux_config                               /home/leon/git/swp-report/iMX6_Platform_SDK/output/mx6dq/lib/libboard_sabre_ai_rev_a.a(audmux_iomux_config.o)
                                                  /home/leon/git/swp-report/iMX6_Platform_SDK/output/mx6dq/lib/libboard_sabre_ai_rev_a.a(iomux_config.o)
                                                  /home/leon/git/swp-report/iMX6_Platform_SDK/output/mx6dq/lib/libsdk.a(imx-ssi.o)
auto_run_enable                                   /home/leon/git/swp-report/iMX6_Platform_SDK/output/mx6dq/obds/sabre_ai_rev_a/obj/apps/obds/src/obds.o
                                                  /home/leon/git/swp-report/iMX6_Platform_SDK/output/mx6dq/obds/sabre_ai_rev_a/obj/apps/obds/src/tests/mlb_os81050.o
                                                  /home/leon/git/swp-report/iMX6_Platform_SDK/output/mx6dq/obds/sabre_ai_rev_a/obj/apps/obds/src/tests/i2c_eeprom_at24cxx_test.o
                                                  /home/leon/git/swp-report/iMX6_Platform_SDK/output/mx6dq/obds/sabre_ai_rev_a/obj/apps/obds/src/tests/gps_test.o
                                                  /home/leon/git/swp-report/iMX6_Platform_SDK/output/mx6dq/obds/sabre_ai_rev_a/obj/apps/obds/src/tests/fm_tuner_si476x_test.o
                                                  /home/leon/git/swp-report/iMX6_Platform_SDK/output/mx6dq/obds/sabre_ai_rev_a/obj/apps/obds/src/tests/deserializer_ds90ur124.o
bd                                                /home/leon/git/swp-report/iMX6_Platform_SDK/output/mx6dq/obds/sabre_ai_rev_a/obj/apps/common/ivt.o
board_description                                 /home/leon/git/swp-report/iMX6_Platform_SDK/output/mx6dq/lib/libsdk.a(board_id.o)
board_ioexpander_init                             /home/leon/git/swp-report/iMX6_Platform_SDK/output/mx6dq/lib/libboard_sabre_ai_rev_a.a(board_io_expanders.o)
                                                  /home/leon/git/swp-report/iMX6_Platform_SDK/output/mx6dq/obds/sabre_ai_rev_a/obj/apps/common/platform_init.o
board_ioexpander_iomux_config                     /home/leon/git/swp-report/iMX6_Platform_SDK/output/mx6dq/lib/libboard_sabre_ai_rev_a.a(board_io_expanders.o)
                                                  /home/leon/git/swp-report/iMX6_Platform_SDK/output/mx6dq/lib/libboard_sabre_ai_rev_a.a(board_usb.o)
                                                  /home/leon/git/swp-report/iMX6_Platform_SDK/output/mx6dq/lib/libboard_sabre_ai_rev_a.a(board_sata.o)
                                                  /home/leon/git/swp-report/iMX6_Platform_SDK/output/mx6dq/lib/libboard_sabre_ai_rev_a.a(board_mipi.o)
                                                  /home/leon/git/swp-report/iMX6_Platform_SDK/output/mx6dq/lib/libboard_sabre_ai_rev_a.a(board_display.o)
                                                  /home/leon/git/swp-report/iMX6_Platform_SDK/output/mx6dq/obds/sabre_ai_rev_a/obj/sdk/common/ioexpander/test/max7310_test.o
                                                  /home/leon/git/swp-report/iMX6_Platform_SDK/output/mx6dq/obds/sabre_ai_rev_a/obj/apps/obds/src/tests/video_dec_ARD_MBrst_from_cpu_expander.o
                                                  /home/leon/git/swp-report/iMX6_Platform_SDK/output/mx6dq/obds/sabre_ai_rev_a/obj/apps/obds/src/tests/mlb_os81050.o
                                                  /home/leon/git/swp-report/iMX6_Platform_SDK/output/mx6dq/obds/sabre_ai_rev_a/obj/apps/obds/src/tests/fm_tuner_si476x_test.o
board_name                                        /home/leon/git/swp-report/iMX6_Platform_SDK/output/mx6dq/lib/libsdk.a(board_id.o)
                                                  /home/leon/git/swp-report/iMX6_Platform_SDK/output/mx6dq/obds/sabre_ai_rev_a/obj/apps/obds/src/tests/program_board_id.o
                                                  /home/leon/git/swp-report/iMX6_Platform_SDK/output/mx6dq/obds/sabre_ai_rev_a/obj/apps/obds/src/obds.o
                                                  /home/leon/git/swp-report/iMX6_Platform_SDK/output/mx6dq/obds/sabre_ai_rev_a/obj/apps/common/print_version.o
board_revision                                    /home/leon/git/swp-report/iMX6_Platform_SDK/output/mx6dq/lib/libsdk.a(board_id.o)
                                                  /home/leon/git/swp-report/iMX6_Platform_SDK/output/mx6dq/obds/sabre_ai_rev_a/obj/apps/obds/src/tests/program_board_id.o
                                                  /home/leon/git/swp-report/iMX6_Platform_SDK/output/mx6dq/obds/sabre_ai_rev_a/obj/apps/obds/src/obds.o
                                                  /home/leon/git/swp-report/iMX6_Platform_SDK/output/mx6dq/obds/sabre_ai_rev_a/obj/apps/common/print_version.o
buf                                               /home/leon/git/swp-report/iMX6_Platform_SDK/output/mx6dq/obds/sabre_ai_rev_a/obj/apps/obds/src/tests/i2c_device_zigbee_mc1323.o
bzero                                             /home/leon/riotboard/arm-2012.09/bin/../arm-none-eabi/lib//libc.a(lib_a-bzero.o)
                                                  /home/leon/git/swp-report/iMX6_Platform_SDK/output/mx6dq/lib/libsdk.a(mmu.o)
camera_ipu1_iomux_config                          /home/leon/git/swp-report/iMX6_Platform_SDK/output/mx6dq/lib/libboard_sabre_ai_rev_a.a(board_camera.o)
camera_power_on                                   /home/leon/git/swp-report/iMX6_Platform_SDK/output/mx6dq/lib/libboard_sabre_ai_rev_a.a(board_camera.o)
                                                  /home/leon/git/swp-report/iMX6_Platform_SDK/output/mx6dq/lib/libsdk.a(smd_sensor.o)
camera_strobeflash_off                            /home/leon/git/swp-report/iMX6_Platform_SDK/output/mx6dq/lib/libsdk.a(smd_sensor.o)
camera_strobeflash_on                             /home/leon/git/swp-report/iMX6_Platform_SDK/output/mx6dq/lib/libsdk.a(smd_sensor.o)
camera_test                                       /home/leon/git/swp-report/iMX6_Platform_SDK/output/mx6dq/obds/sabre_ai_rev_a/obj/sdk/drivers/camera/test/camera_test.o
card_cmd_config                                   /home/leon/git/swp-report/iMX6_Platform_SDK/output/mx6dq/lib/libsdk.a(usdhc.o)
                                                  /home/leon/git/swp-report/iMX6_Platform_SDK/output/mx6dq/lib/libsdk.a(usdhc_sd.o)
                                                  /home/leon/git/swp-report/iMX6_Platform_SDK/output/mx6dq/lib/libsdk.a(usdhc_mmc.o)
card_data_read                                    /home/leon/git/swp-report/iMX6_Platform_SDK/output/mx6dq/lib/libsdk.a(usdhc.o)
                                                  /home/leon/git/swp-report/iMX6_Platform_SDK/output/mx6dq/obds/sabre_ai_rev_a/obj/sdk/drivers/usdhc/test/usdhc_test.o
card_data_write                                   /home/leon/git/swp-report/iMX6_Platform_SDK/output/mx6dq/lib/libsdk.a(usdhc.o)
                                                  /home/leon/git/swp-report/iMX6_Platform_SDK/output/mx6dq/obds/sabre_ai_rev_a/obj/sdk/drivers/usdhc/test/usdhc_test.o
card_detect_test_en                               /home/leon/git/swp-report/iMX6_Platform_SDK/output/mx6dq/lib/libsdk.a(usdhc.o)
                                                  /home/leon/git/swp-report/iMX6_Platform_SDK/output/mx6dq/obds/sabre_ai_rev_a/obj/apps/obds/src/tests/mmcsd_test.o
card_emmc_init                                    /home/leon/git/swp-report/iMX6_Platform_SDK/output/mx6dq/lib/libsdk.a(usdhc.o)
                                                  /home/leon/git/swp-report/iMX6_Platform_SDK/output/mx6dq/obds/sabre_ai_rev_a/obj/sdk/drivers/usdhc/test/usdhc_test.o
card_enter_trans                                  /home/leon/git/swp-report/iMX6_Platform_SDK/output/mx6dq/lib/libsdk.a(usdhc.o)
                                                  /home/leon/git/swp-report/iMX6_Platform_SDK/output/mx6dq/lib/libsdk.a(usdhc_sd.o)
                                                  /home/leon/git/swp-report/iMX6_Platform_SDK/output/mx6dq/lib/libsdk.a(usdhc_mmc.o)
card_get_cid                                      /home/leon/git/swp-report/iMX6_Platform_SDK/output/mx6dq/lib/libsdk.a(usdhc.o)
                                                  /home/leon/git/swp-report/iMX6_Platform_SDK/output/mx6dq/lib/libsdk.a(usdhc_sd.o)
                                                  /home/leon/git/swp-report/iMX6_Platform_SDK/output/mx6dq/lib/libsdk.a(usdhc_mmc.o)
card_get_port                                     /home/leon/git/swp-report/iMX6_Platform_SDK/output/mx6dq/lib/libsdk.a(usdhc.o)
                                                  /home/leon/git/swp-report/iMX6_Platform_SDK/output/mx6dq/lib/libsdk.a(usdhc_sd.o)
                                                  /home/leon/git/swp-report/iMX6_Platform_SDK/output/mx6dq/lib/libsdk.a(usdhc_mmc.o)
                                                  /home/leon/git/swp-report/iMX6_Platform_SDK/output/mx6dq/lib/libsdk.a(usdhc_host.o)
card_init                                         /home/leon/git/swp-report/iMX6_Platform_SDK/output/mx6dq/lib/libsdk.a(usdhc.o)
                                                  /home/leon/git/swp-report/iMX6_Platform_SDK/output/mx6dq/obds/sabre_ai_rev_a/obj/sdk/drivers/usdhc/test/usdhc_test.o
card_set_blklen                                   /home/leon/git/swp-report/iMX6_Platform_SDK/output/mx6dq/lib/libsdk.a(usdhc.o)
card_trans_status                                 /home/leon/git/swp-report/iMX6_Platform_SDK/output/mx6dq/lib/libsdk.a(usdhc.o)
                                                  /home/leon/git/swp-report/iMX6_Platform_SDK/output/mx6dq/lib/libsdk.a(usdhc_mmc.o)
card_wait_xfer_done                               /home/leon/git/swp-report/iMX6_Platform_SDK/output/mx6dq/lib/libsdk.a(usdhc.o)
card_xfer_result                                  /home/leon/git/swp-report/iMX6_Platform_SDK/output/mx6dq/lib/libsdk.a(usdhc.o)
                                                  /home/leon/git/swp-report/iMX6_Platform_SDK/output/mx6dq/obds/sabre_ai_rev_a/obj/sdk/drivers/usdhc/test/usdhc_test.o
ccm_ccgr_config                                   /home/leon/git/swp-report/iMX6_Platform_SDK/output/mx6dq/lib/libsdk.a(ccm_pll.o)
ccm_enter_low_power                               /home/leon/git/swp-report/iMX6_Platform_SDK/output/mx6dq/lib/libsdk.a(ccm_pll.o)
ccm_init                                          /home/leon/git/swp-report/iMX6_Platform_SDK/output/mx6dq/lib/libsdk.a(ccm_pll.o)
                                                  /home/leon/git/swp-report/iMX6_Platform_SDK/output/mx6dq/obds/sabre_ai_rev_a/obj/apps/common/platform_init.o
ccm_iomux_config                                  /home/leon/git/swp-report/iMX6_Platform_SDK/output/mx6dq/lib/libboard_sabre_ai_rev_a.a(ccm_iomux_config.o)
                                                  /home/leon/git/swp-report/iMX6_Platform_SDK/output/mx6dq/lib/libboard_sabre_ai_rev_a.a(iomux_config.o)
ccm_set_lpm_wakeup_source                         /home/leon/git/swp-report/iMX6_Platform_SDK/output/mx6dq/lib/libsdk.a(ccm_pll.o)
check_android_button_status                       /home/leon/git/swp-report/iMX6_Platform_SDK/output/mx6dq/obds/sabre_ai_rev_a/obj/apps/obds/src/tests/android_buttons_test.o
chip_name                                         /home/leon/git/swp-report/iMX6_Platform_SDK/output/mx6dq/lib/libsdk.a(board_id.o)
                                                  /home/leon/git/swp-report/iMX6_Platform_SDK/output/mx6dq/obds/sabre_ai_rev_a/obj/apps/obds/src/tests/program_board_id.o
                                                  /home/leon/git/swp-report/iMX6_Platform_SDK/output/mx6dq/obds/sabre_ai_rev_a/obj/apps/obds/src/obds.o
                                                  /home/leon/git/swp-report/iMX6_Platform_SDK/output/mx6dq/obds/sabre_ai_rev_a/obj/apps/common/print_version.o
chip_revision                                     /home/leon/git/swp-report/iMX6_Platform_SDK/output/mx6dq/lib/libsdk.a(board_id.o)
                                                  /home/leon/git/swp-report/iMX6_Platform_SDK/output/mx6dq/obds/sabre_ai_rev_a/obj/apps/obds/src/tests/program_board_id.o
                                                  /home/leon/git/swp-report/iMX6_Platform_SDK/output/mx6dq/obds/sabre_ai_rev_a/obj/apps/obds/src/obds.o
                                                  /home/leon/git/swp-report/iMX6_Platform_SDK/output/mx6dq/obds/sabre_ai_rev_a/obj/apps/common/print_version.o
cleanup_glue                                      /home/leon/riotboard/arm-2012.09/bin/../arm-none-eabi/lib//libc.a(lib_a-reent.o)
clock_gating_config                               /home/leon/git/swp-report/iMX6_Platform_SDK/output/mx6dq/lib/libsdk.a(ccm_pll.o)
                                                  /home/leon/git/swp-report/iMX6_Platform_SDK/output/mx6dq/lib/libboard_sabre_ai_rev_a.a(board_sata.o)
                                                  /home/leon/git/swp-report/iMX6_Platform_SDK/output/mx6dq/lib/libboard_sabre_ai_rev_a.a(board_audio.o)
                                                  /home/leon/git/swp-report/iMX6_Platform_SDK/output/mx6dq/lib/libsdk.a(epit.o)
                                                  /home/leon/git/swp-report/iMX6_Platform_SDK/output/mx6dq/lib/libsdk.a(imx_uart.o)
                                                  /home/leon/git/swp-report/iMX6_Platform_SDK/output/mx6dq/lib/libsdk.a(ecspi.o)
                                                  /home/leon/git/swp-report/iMX6_Platform_SDK/output/mx6dq/lib/libsdk.a(imx_i2c.o)
cmdhdr                                            /home/leon/git/swp-report/iMX6_Platform_SDK/output/mx6dq/lib/libsdk.a(sata.o)
cmdtbl                                            /home/leon/git/swp-report/iMX6_Platform_SDK/output/mx6dq/lib/libsdk.a(sata.o)
common_abort_handler                              /home/leon/git/swp-report/iMX6_Platform_SDK/output/mx6dq/lib/libsdk.a(arm_abort.o)
configure_android_button                          /home/leon/git/swp-report/iMX6_Platform_SDK/output/mx6dq/obds/sabre_ai_rev_a/obj/apps/obds/src/tests/android_buttons_test.o
cpu_get_current                                   /home/leon/git/swp-report/iMX6_Platform_SDK/output/mx6dq/lib/libsdk.a(cortexA9.o)
cs42888                                           /home/leon/git/swp-report/iMX6_Platform_SDK/output/mx6dq/lib/libsdk.a(cs42888.o)
                                                  /home/leon/git/swp-report/iMX6_Platform_SDK/output/mx6dq/obds/sabre_ai_rev_a/obj/sdk/drivers/audio/src/snd_card.o
cs42888_config                                    /home/leon/git/swp-report/iMX6_Platform_SDK/output/mx6dq/lib/libsdk.a(cs42888.o)
cs42888_deinit                                    /home/leon/git/swp-report/iMX6_Platform_SDK/output/mx6dq/lib/libsdk.a(cs42888.o)
                                                  /home/leon/git/swp-report/iMX6_Platform_SDK/output/mx6dq/obds/sabre_ai_rev_a/obj/apps/obds/src/tests/i2c_device_check_cs42888.o
cs42888_dev_info                                  /home/leon/git/swp-report/iMX6_Platform_SDK/output/mx6dq/lib/libsdk.a(cs42888.o)
                                                  /home/leon/git/swp-report/iMX6_Platform_SDK/output/mx6dq/obds/sabre_ai_rev_a/obj/apps/obds/src/tests/i2c_device_check_cs42888.o
cs42888_i2c_req                                   /home/leon/git/swp-report/iMX6_Platform_SDK/output/mx6dq/lib/libsdk.a(cs42888.o)
cs42888_init                                      /home/leon/git/swp-report/iMX6_Platform_SDK/output/mx6dq/lib/libsdk.a(cs42888.o)
                                                  /home/leon/git/swp-report/iMX6_Platform_SDK/output/mx6dq/obds/sabre_ai_rev_a/obj/apps/obds/src/tests/i2c_device_check_cs42888.o
cs42888_ops                                       /home/leon/git/swp-report/iMX6_Platform_SDK/output/mx6dq/lib/libsdk.a(cs42888.o)
csi_dma_band_mode                                 /home/leon/git/swp-report/iMX6_Platform_SDK/output/mx6dq/lib/libsdk.a(ipu_common.o)
                                                  /home/leon/git/swp-report/iMX6_Platform_SDK/output/mx6dq/obds/sabre_ai_rev_a/obj/sdk/drivers/camera/test/csi_test_mode.o
                                                  /home/leon/git/swp-report/iMX6_Platform_SDK/output/mx6dq/obds/sabre_ai_rev_a/obj/sdk/drivers/camera/test/camera_test.o
csi_port0_iomux_config                            /home/leon/git/swp-report/iMX6_Platform_SDK/output/mx6dq/lib/libboard_sabre_ai_rev_a.a(board_camera.o)
                                                  /home/leon/git/swp-report/iMX6_Platform_SDK/output/mx6dq/lib/libsdk.a(adv7180.o)
                                                  /home/leon/git/swp-report/iMX6_Platform_SDK/output/mx6dq/lib/libsdk.a(smd_sensor.o)
                                                  /home/leon/git/swp-report/iMX6_Platform_SDK/output/mx6dq/obds/sabre_ai_rev_a/obj/apps/obds/src/tests/deserializer_ds90ur124.o
csi_test_mode                                     /home/leon/git/swp-report/iMX6_Platform_SDK/output/mx6dq/obds/sabre_ai_rev_a/obj/sdk/drivers/camera/test/csi_test_mode.o
                                                  /home/leon/git/swp-report/iMX6_Platform_SDK/output/mx6dq/obds/sabre_ai_rev_a/obj/sdk/drivers/camera/test/camera_test.o
csi_vdi_direct_path                               /home/leon/git/swp-report/iMX6_Platform_SDK/output/mx6dq/lib/libsdk.a(ipu_common.o)
                                                  /home/leon/git/swp-report/iMX6_Platform_SDK/output/mx6dq/lib/libsdk.a(ipu_idmac.o)
                                                  /home/leon/git/swp-report/iMX6_Platform_SDK/output/mx6dq/lib/libsdk.a(ipu_csi.o)
                                                  /home/leon/git/swp-report/iMX6_Platform_SDK/output/mx6dq/obds/sabre_ai_rev_a/obj/sdk/drivers/camera/test/adv7180_capture.o
da9053_i2c_reg                                    /home/leon/git/swp-report/iMX6_Platform_SDK/output/mx6dq/obds/sabre_ai_rev_a/obj/apps/obds/src/tests/pmic_da9053.o
data_abort_handler                                /home/leon/git/swp-report/iMX6_Platform_SDK/output/mx6dq/lib/libsdk.a(arm_abort.o)
                                                  /home/leon/git/swp-report/iMX6_Platform_SDK/output/mx6dq/lib/libsdk.a(vectors.o)
dcic1_iomux_config                                /home/leon/git/swp-report/iMX6_Platform_SDK/output/mx6dq/lib/libboard_sabre_ai_rev_a.a(iomux_config.o)
dcic2_iomux_config                                /home/leon/git/swp-report/iMX6_Platform_SDK/output/mx6dq/lib/libboard_sabre_ai_rev_a.a(iomux_config.o)
ddr_test                                          /home/leon/git/swp-report/iMX6_Platform_SDK/output/mx6dq/obds/sabre_ai_rev_a/obj/apps/obds/src/tests/ddr_test.o
                                                  /home/leon/git/swp-report/iMX6_Platform_SDK/output/mx6dq/obds/sabre_ai_rev_a/obj/apps/obds/src/obds.o
default_interrupt_routine                         /home/leon/git/swp-report/iMX6_Platform_SDK/output/mx6dq/lib/libsdk.a(interrupt.o)
deserializer_io_config                            /home/leon/git/swp-report/iMX6_Platform_SDK/output/mx6dq/obds/sabre_ai_rev_a/obj/apps/obds/src/tests/deserializer_ds90ur124.o
dev_spi_nor                                       /home/leon/git/swp-report/iMX6_Platform_SDK/output/mx6dq/obds/sabre_ai_rev_a/obj/apps/obds/src/tests/imx_spi_nor_test.o
                                                  /home/leon/git/swp-report/iMX6_Platform_SDK/output/mx6dq/obds/sabre_ai_rev_a/obj/sdk/drivers/spi/test/spi_nor_numonyx.o
                                                  /home/leon/git/swp-report/iMX6_Platform_SDK/output/mx6dq/obds/sabre_ai_rev_a/obj/sdk/drivers/spi/test/imx_spi_nor_atmel.o
device_id_check_mc13892                           /home/leon/git/swp-report/iMX6_Platform_SDK/output/mx6dq/obds/sabre_ai_rev_a/obj/apps/obds/src/tests/pmic_mc13892.o
disable_L1_cache                                  /home/leon/git/swp-report/iMX6_Platform_SDK/output/mx6dq/lib/libsdk.a(cortexA9.o)
disable_interrupt                                 /home/leon/git/swp-report/iMX6_Platform_SDK/output/mx6dq/lib/libsdk.a(interrupt.o)
                                                  /home/leon/git/swp-report/iMX6_Platform_SDK/output/mx6dq/lib/libsdk.a(epit.o)
                                                  /home/leon/git/swp-report/iMX6_Platform_SDK/output/mx6dq/lib/libsdk.a(usdhc.o)
                                                  /home/leon/git/swp-report/iMX6_Platform_SDK/output/mx6dq/lib/libsdk.a(imx_uart.o)
                                                  /home/leon/git/swp-report/iMX6_Platform_SDK/output/mx6dq/lib/libsdk.a(imx_i2c.o)
                                                  /home/leon/git/swp-report/iMX6_Platform_SDK/output/mx6dq/obds/sabre_ai_rev_a/obj/sdk/drivers/hdmi/test/hdmi_test.o
disable_para_panel                                /home/leon/git/swp-report/iMX6_Platform_SDK/output/mx6dq/lib/libboard_sabre_ai_rev_a.a(board_display.o)
disable_strict_align_check                        /home/leon/git/swp-report/iMX6_Platform_SDK/output/mx6dq/lib/libsdk.a(cortexA9.o)
                                                  /home/leon/git/swp-report/iMX6_Platform_SDK/output/mx6dq/obds/sabre_ai_rev_a/obj/apps/common/platform_init.o
disp_dev_list                                     /home/leon/git/swp-report/iMX6_Platform_SDK/output/mx6dq/lib/libsdk.a(ips_disp_panel.o)
ds90ur124_init                                    /home/leon/git/swp-report/iMX6_Platform_SDK/output/mx6dq/obds/sabre_ai_rev_a/obj/apps/obds/src/tests/deserializer_ds90ur124.o
ds90ur124_receive_cnx_test                        /home/leon/git/swp-report/iMX6_Platform_SDK/output/mx6dq/obds/sabre_ai_rev_a/obj/apps/obds/src/tests/deserializer_ds90ur124.o
ds90ur124_test_enable                             /home/leon/git/swp-report/iMX6_Platform_SDK/output/mx6dq/obds/sabre_ai_rev_a/obj/apps/obds/src/tests/deserializer_ds90ur124.o
ds90ur124_test_main                               /home/leon/git/swp-report/iMX6_Platform_SDK/output/mx6dq/obds/sabre_ai_rev_a/obj/apps/obds/src/tests/deserializer_ds90ur124.o
dump_regs                                         /home/leon/git/swp-report/iMX6_Platform_SDK/output/mx6dq/lib/libsdk.a(abort_handler.o)
                                                  /home/leon/git/swp-report/iMX6_Platform_SDK/output/mx6dq/lib/libsdk.a(arm_abort.o)
ecspi1_iomux_config                               /home/leon/git/swp-report/iMX6_Platform_SDK/output/mx6dq/lib/libboard_sabre_ai_rev_a.a(ecspi1_iomux_config.o)
                                                  /home/leon/git/swp-report/iMX6_Platform_SDK/output/mx6dq/lib/libboard_sabre_ai_rev_a.a(iomux_config.o)
                                                  /home/leon/git/swp-report/iMX6_Platform_SDK/output/mx6dq/lib/libboard_sabre_ai_rev_a.a(ecspi_iomux_config.o)
ecspi2_iomux_config                               /home/leon/git/swp-report/iMX6_Platform_SDK/output/mx6dq/lib/libboard_sabre_ai_rev_a.a(iomux_config.o)
                                                  /home/leon/git/swp-report/iMX6_Platform_SDK/output/mx6dq/lib/libboard_sabre_ai_rev_a.a(ecspi_iomux_config.o)
ecspi3_iomux_config                               /home/leon/git/swp-report/iMX6_Platform_SDK/output/mx6dq/lib/libboard_sabre_ai_rev_a.a(iomux_config.o)
                                                  /home/leon/git/swp-report/iMX6_Platform_SDK/output/mx6dq/lib/libboard_sabre_ai_rev_a.a(ecspi_iomux_config.o)
ecspi4_iomux_config                               /home/leon/git/swp-report/iMX6_Platform_SDK/output/mx6dq/lib/libboard_sabre_ai_rev_a.a(iomux_config.o)
                                                  /home/leon/git/swp-report/iMX6_Platform_SDK/output/mx6dq/lib/libboard_sabre_ai_rev_a.a(ecspi_iomux_config.o)
ecspi5_iomux_config                               /home/leon/git/swp-report/iMX6_Platform_SDK/output/mx6dq/lib/libboard_sabre_ai_rev_a.a(iomux_config.o)
                                                  /home/leon/git/swp-report/iMX6_Platform_SDK/output/mx6dq/lib/libboard_sabre_ai_rev_a.a(ecspi_iomux_config.o)
ecspi_close                                       /home/leon/git/swp-report/iMX6_Platform_SDK/output/mx6dq/lib/libsdk.a(ecspi.o)
ecspi_configure                                   /home/leon/git/swp-report/iMX6_Platform_SDK/output/mx6dq/lib/libsdk.a(ecspi.o)
ecspi_iomux_config                                /home/leon/git/swp-report/iMX6_Platform_SDK/output/mx6dq/lib/libboard_sabre_ai_rev_a.a(ecspi_iomux_config.o)
                                                  /home/leon/git/swp-report/iMX6_Platform_SDK/output/mx6dq/lib/libsdk.a(ecspi.o)
ecspi_open                                        /home/leon/git/swp-report/iMX6_Platform_SDK/output/mx6dq/lib/libsdk.a(ecspi.o)
                                                  /home/leon/git/swp-report/iMX6_Platform_SDK/output/mx6dq/obds/sabre_ai_rev_a/obj/apps/obds/src/tests/imx_spi_nor_test.o
ecspi_xfer                                        /home/leon/git/swp-report/iMX6_Platform_SDK/output/mx6dq/lib/libsdk.a(ecspi.o)
                                                  /home/leon/git/swp-report/iMX6_Platform_SDK/output/mx6dq/obds/sabre_ai_rev_a/obj/sdk/drivers/spi/test/spi_nor_numonyx.o
                                                  /home/leon/git/swp-report/iMX6_Platform_SDK/output/mx6dq/obds/sabre_ai_rev_a/obj/sdk/drivers/spi/test/imx_spi_nor_atmel.o
eeprom_test_enable                                /home/leon/git/swp-report/iMX6_Platform_SDK/output/mx6dq/obds/sabre_ai_rev_a/obj/apps/obds/src/tests/i2c_eeprom_at24cxx_test.o
eim_iomux_config                                  /home/leon/git/swp-report/iMX6_Platform_SDK/output/mx6dq/lib/libboard_sabre_ai_rev_a.a(eim_iomux_config.o)
                                                  /home/leon/git/swp-report/iMX6_Platform_SDK/output/mx6dq/lib/libboard_sabre_ai_rev_a.a(iomux_config.o)
                                                  /home/leon/git/swp-report/iMX6_Platform_SDK/output/mx6dq/obds/sabre_ai_rev_a/obj/apps/obds/src/tests/weim_nor_flash_test.o
eim_nor_flash_test                                /home/leon/git/swp-report/iMX6_Platform_SDK/output/mx6dq/obds/sabre_ai_rev_a/obj/apps/obds/src/tests/weim_nor_flash_test.o
                                                  /home/leon/git/swp-report/iMX6_Platform_SDK/output/mx6dq/obds/sabre_ai_rev_a/obj/apps/obds/src/obds.o
emmc_init                                         /home/leon/git/swp-report/iMX6_Platform_SDK/output/mx6dq/lib/libsdk.a(usdhc_mmc.o)
                                                  /home/leon/git/swp-report/iMX6_Platform_SDK/output/mx6dq/lib/libsdk.a(usdhc.o)
emmc_print_cfg_info                               /home/leon/git/swp-report/iMX6_Platform_SDK/output/mx6dq/lib/libsdk.a(usdhc_mmc.o)
                                                  /home/leon/git/swp-report/iMX6_Platform_SDK/output/mx6dq/obds/sabre_ai_rev_a/obj/sdk/drivers/usdhc/test/usdhc_test.o
emuerateDevice                                    /home/leon/git/swp-report/iMX6_Platform_SDK/output/mx6dq/obds/sabre_ai_rev_a/obj/sdk/drivers/usb/test/usb0_host_test.o
enable_extrn_100mhz_clk                           /home/leon/git/swp-report/iMX6_Platform_SDK/output/mx6dq/lib/libboard_sabre_ai_rev_a.a(board_sata.o)
enable_interrupt                                  /home/leon/git/swp-report/iMX6_Platform_SDK/output/mx6dq/lib/libsdk.a(interrupt.o)
                                                  /home/leon/git/swp-report/iMX6_Platform_SDK/output/mx6dq/lib/libsdk.a(epit.o)
                                                  /home/leon/git/swp-report/iMX6_Platform_SDK/output/mx6dq/lib/libsdk.a(usdhc.o)
                                                  /home/leon/git/swp-report/iMX6_Platform_SDK/output/mx6dq/lib/libsdk.a(imx_uart.o)
                                                  /home/leon/git/swp-report/iMX6_Platform_SDK/output/mx6dq/lib/libsdk.a(ipu_common.o)
                                                  /home/leon/git/swp-report/iMX6_Platform_SDK/output/mx6dq/lib/libsdk.a(imx_i2c.o)
                                                  /home/leon/git/swp-report/iMX6_Platform_SDK/output/mx6dq/obds/sabre_ai_rev_a/obj/sdk/drivers/hdmi/test/hdmi_test.o
enable_neon_fpu                                   /home/leon/git/swp-report/iMX6_Platform_SDK/output/mx6dq/lib/libsdk.a(cortexA9.o)
                                                  /home/leon/git/swp-report/iMX6_Platform_SDK/output/mx6dq/obds/sabre_ai_rev_a/obj/apps/common/platform_init.o
enet_iomux_config                                 /home/leon/git/swp-report/iMX6_Platform_SDK/output/mx6dq/lib/libboard_sabre_ai_rev_a.a(enet_iomux_config.o)
                                                  /home/leon/git/swp-report/iMX6_Platform_SDK/output/mx6dq/lib/libboard_sabre_ai_rev_a.a(iomux_config.o)
                                                  /home/leon/git/swp-report/iMX6_Platform_SDK/output/mx6dq/lib/libboard_sabre_ai_rev_a.a(board_network.o)
enet_phy_rework_ar8031                            /home/leon/git/swp-report/iMX6_Platform_SDK/output/mx6dq/lib/libsdk.a(enet_drv.o)
enet_phy_rework_ksz9021                           /home/leon/git/swp-report/iMX6_Platform_SDK/output/mx6dq/lib/libsdk.a(enet_drv.o)
enet_test_main                                    /home/leon/git/swp-report/iMX6_Platform_SDK/output/mx6dq/obds/sabre_ai_rev_a/obj/apps/obds/src/tests/enet_mx6dldq_test.o
environ                                           /home/leon/git/swp-report/iMX6_Platform_SDK/output/mx6dq/lib/libsdk.a(runtime_support.o)
epdc_clock_setting                                /home/leon/git/swp-report/iMX6_Platform_SDK/output/mx6dq/lib/libboard_sabre_ai_rev_a.a(board_display.o)
epdc_power_supply                                 /home/leon/git/swp-report/iMX6_Platform_SDK/output/mx6dq/lib/libboard_sabre_ai_rev_a.a(board_display.o)
epit1_iomux_config                                /home/leon/git/swp-report/iMX6_Platform_SDK/output/mx6dq/lib/libboard_sabre_ai_rev_a.a(iomux_config.o)
epit2_iomux_config                                /home/leon/git/swp-report/iMX6_Platform_SDK/output/mx6dq/lib/libboard_sabre_ai_rev_a.a(iomux_config.o)
epit_counter_disable                              /home/leon/git/swp-report/iMX6_Platform_SDK/output/mx6dq/lib/libsdk.a(epit.o)
                                                  /home/leon/git/swp-report/iMX6_Platform_SDK/output/mx6dq/lib/libsdk.a(timer.o)
epit_counter_enable                               /home/leon/git/swp-report/iMX6_Platform_SDK/output/mx6dq/lib/libsdk.a(epit.o)
                                                  /home/leon/git/swp-report/iMX6_Platform_SDK/output/mx6dq/lib/libsdk.a(timer.o)
epit_get_compare_event                            /home/leon/git/swp-report/iMX6_Platform_SDK/output/mx6dq/lib/libsdk.a(epit.o)
                                                  /home/leon/git/swp-report/iMX6_Platform_SDK/output/mx6dq/lib/libsdk.a(timer.o)
epit_get_counter_value                            /home/leon/git/swp-report/iMX6_Platform_SDK/output/mx6dq/lib/libsdk.a(epit.o)
epit_init                                         /home/leon/git/swp-report/iMX6_Platform_SDK/output/mx6dq/lib/libsdk.a(epit.o)
                                                  /home/leon/git/swp-report/iMX6_Platform_SDK/output/mx6dq/lib/libsdk.a(timer.o)
epit_reload_counter                               /home/leon/git/swp-report/iMX6_Platform_SDK/output/mx6dq/lib/libsdk.a(epit.o)
epit_set_compare_event                            /home/leon/git/swp-report/iMX6_Platform_SDK/output/mx6dq/lib/libsdk.a(epit.o)
epit_setup_interrupt                              /home/leon/git/swp-report/iMX6_Platform_SDK/output/mx6dq/lib/libsdk.a(epit.o)
errno                                             /home/leon/git/swp-report/iMX6_Platform_SDK/output/mx6dq/lib/libsdk.a(runtime_support.o)
                                                  /home/leon/riotboard/arm-2012.09/bin/../arm-none-eabi/lib//libc.a(lib_a-readr.o)
                                                  /home/leon/riotboard/arm-2012.09/bin/../arm-none-eabi/lib//libc.a(lib_a-lseekr.o)
                                                  /home/leon/riotboard/arm-2012.09/bin/../arm-none-eabi/lib//libc.a(lib_a-isattyr.o)
                                                  /home/leon/riotboard/arm-2012.09/bin/../arm-none-eabi/lib//libc.a(lib_a-fstatr.o)
                                                  /home/leon/riotboard/arm-2012.09/bin/../arm-none-eabi/lib//libc.a(lib_a-closer.o)
                                                  /home/leon/riotboard/arm-2012.09/bin/../arm-none-eabi/lib//libc.a(lib_a-writer.o)
                                                  /home/leon/riotboard/arm-2012.09/bin/../arm-none-eabi/lib//libc.a(lib_a-signalr.o)
                                                  /home/leon/riotboard/arm-2012.09/bin/../arm-none-eabi/lib//libc.a(lib_a-reent.o)
                                                  /home/leon/riotboard/arm-2012.09/bin/../arm-none-eabi/lib//libc.a(lib_a-sbrkr.o)
esai_clk_sel_gate_on                              /home/leon/git/swp-report/iMX6_Platform_SDK/output/mx6dq/lib/libboard_sabre_ai_rev_a.a(board_audio.o)
                                                  /home/leon/git/swp-report/iMX6_Platform_SDK/output/mx6dq/lib/libsdk.a(imx_esai.o)
esai_codec_power_on                               /home/leon/git/swp-report/iMX6_Platform_SDK/output/mx6dq/lib/libboard_sabre_ai_rev_a.a(board_audio.o)
                                                  /home/leon/git/swp-report/iMX6_Platform_SDK/output/mx6dq/lib/libsdk.a(cs42888.o)
esai_config                                       /home/leon/git/swp-report/iMX6_Platform_SDK/output/mx6dq/lib/libsdk.a(imx_esai.o)
esai_deinit                                       /home/leon/git/swp-report/iMX6_Platform_SDK/output/mx6dq/lib/libsdk.a(imx_esai.o)
esai_init                                         /home/leon/git/swp-report/iMX6_Platform_SDK/output/mx6dq/lib/libsdk.a(imx_esai.o)
esai_iomux_config                                 /home/leon/git/swp-report/iMX6_Platform_SDK/output/mx6dq/lib/libboard_sabre_ai_rev_a.a(esai_iomux_config.o)
                                                  /home/leon/git/swp-report/iMX6_Platform_SDK/output/mx6dq/lib/libboard_sabre_ai_rev_a.a(iomux_config.o)
                                                  /home/leon/git/swp-report/iMX6_Platform_SDK/output/mx6dq/lib/libsdk.a(imx_esai.o)
esai_test                                         /home/leon/git/swp-report/iMX6_Platform_SDK/output/mx6dq/obds/sabre_ai_rev_a/obj/apps/obds/src/tests/audio_esai_test.o
                                                  /home/leon/git/swp-report/iMX6_Platform_SDK/output/mx6dq/obds/sabre_ai_rev_a/obj/apps/obds/src/obds.o
esai_write_fifo                                   /home/leon/git/swp-report/iMX6_Platform_SDK/output/mx6dq/lib/libsdk.a(imx_esai.o)
exception_handler                                 /home/leon/git/swp-report/iMX6_Platform_SDK/output/mx6dq/lib/libsdk.a(vectors.o)
ext_hdmi_transmitter_power_on                     /home/leon/git/swp-report/iMX6_Platform_SDK/output/mx6dq/lib/libboard_sabre_ai_rev_a.a(board_hdmi.o)
                                                  /home/leon/git/swp-report/iMX6_Platform_SDK/output/mx6dq/lib/libsdk.a(ips_disp_panel.o)
fclose                                            /home/leon/riotboard/arm-2012.09/bin/../arm-none-eabi/lib//libc.a(lib_a-fclose.o)
                                                  /home/leon/riotboard/arm-2012.09/bin/../arm-none-eabi/lib//libc.a(lib_a-findfp.o)
fflush                                            /home/leon/riotboard/arm-2012.09/bin/../arm-none-eabi/lib//libc.a(lib_a-fflush.o)
                                                  /home/leon/riotboard/arm-2012.09/bin/../arm-none-eabi/lib//libc.a(lib_a-refill.o)
fiprintf                                          /home/leon/riotboard/arm-2012.09/bin/../arm-none-eabi/lib//libc.a(lib_a-fiprintf.o)
                                                  /home/leon/riotboard/arm-2012.09/bin/../arm-none-eabi/lib//libc.a(lib_a-assert.o)
flexcan1_iomux_config                             /home/leon/git/swp-report/iMX6_Platform_SDK/output/mx6dq/lib/libboard_sabre_ai_rev_a.a(flexcan1_iomux_config.o)
                                                  /home/leon/git/swp-report/iMX6_Platform_SDK/output/mx6dq/lib/libboard_sabre_ai_rev_a.a(iomux_config.o)
flexcan2_iomux_config                             /home/leon/git/swp-report/iMX6_Platform_SDK/output/mx6dq/lib/libboard_sabre_ai_rev_a.a(flexcan2_iomux_config.o)
                                                  /home/leon/git/swp-report/iMX6_Platform_SDK/output/mx6dq/lib/libboard_sabre_ai_rev_a.a(iomux_config.o)
flexcan_test                                      /home/leon/git/swp-report/iMX6_Platform_SDK/output/mx6dq/obds/sabre_ai_rev_a/obj/apps/obds/src/tests/flexcan_test.o
                                                  /home/leon/git/swp-report/iMX6_Platform_SDK/output/mx6dq/obds/sabre_ai_rev_a/obj/apps/obds/src/obds.o
fputc                                             /home/leon/riotboard/arm-2012.09/bin/../arm-none-eabi/lib//libc.a(lib_a-fputc.o)
                                                  /home/leon/git/swp-report/iMX6_Platform_SDK/output/mx6dq/lib/libsdk.a(system_util.o)
                                                  /home/leon/git/swp-report/iMX6_Platform_SDK/output/mx6dq/lib/libsdk.a(menu.o)
                                                  /home/leon/git/swp-report/iMX6_Platform_SDK/output/mx6dq/obds/sabre_ai_rev_a/obj/apps/obds/src/tests/program_mac_address.o
fputwc                                            /home/leon/riotboard/arm-2012.09/bin/../arm-none-eabi/lib//libc.a(lib_a-fputwc.o)
frame_list                                        /home/leon/git/swp-report/iMX6_Platform_SDK/output/mx6dq/obds/sabre_ai_rev_a/obj/sdk/drivers/usb/test/usb0_host_test.o
free                                              /home/leon/riotboard/arm-2012.09/bin/../arm-none-eabi/lib//libc.a(lib_a-malloc.o)
                                                  /home/leon/git/swp-report/iMX6_Platform_SDK/output/mx6dq/lib/libsdk.a(usbh_drv.o)
                                                  /home/leon/git/swp-report/iMX6_Platform_SDK/output/mx6dq/obds/sabre_ai_rev_a/obj/sdk/drivers/usb/test/usb0_host_test.o
                                                  /home/leon/git/swp-report/iMX6_Platform_SDK/output/mx6dq/obds/sabre_ai_rev_a/obj/apps/obds/src/tests/usb_tests_obds.o
                                                  /home/leon/git/swp-report/iMX6_Platform_SDK/output/mx6dq/obds/sabre_ai_rev_a/obj/apps/obds/src/obds.o
free_memory_end                                   /home/leon/git/swp-report/iMX6_Platform_SDK/output/mx6dq/lib/libsdk.a(runtime_support.o)
free_memory_start                                 /home/leon/git/swp-report/iMX6_Platform_SDK/output/mx6dq/lib/libsdk.a(runtime_support.o)
free_test_results                                 /home/leon/git/swp-report/iMX6_Platform_SDK/output/mx6dq/obds/sabre_ai_rev_a/obj/apps/obds/src/obds.o
gAudio_sample                                     /home/leon/git/swp-report/iMX6_Platform_SDK/output/mx6dq/obds/sabre_ai_rev_a/obj/sdk/drivers/hdmi/test/init_dma_data.o
gImage_foretext                                   /home/leon/git/swp-report/iMX6_Platform_SDK/output/mx6dq/obds/sabre_ai_rev_a/obj/sdk/drivers/ipu/test/ipu_image.o
gImage_fsl                                        /home/leon/git/swp-report/iMX6_Platform_SDK/output/mx6dq/obds/sabre_ai_rev_a/obj/apps/obds/src/tests/display_test.o
g_KSZ9021RN_test_name                             /home/leon/git/swp-report/iMX6_Platform_SDK/output/mx6dq/obds/sabre_ai_rev_a/obj/apps/obds/src/tests/enet_mx6dldq_test.o
                                                  /home/leon/git/swp-report/iMX6_Platform_SDK/output/mx6dq/obds/sabre_ai_rev_a/obj/apps/obds/src/obds.o
g_TextAttributeBlink                              /home/leon/git/swp-report/iMX6_Platform_SDK/output/mx6dq/lib/libsdk.a(text_color.o)
g_TextAttributeBold                               /home/leon/git/swp-report/iMX6_Platform_SDK/output/mx6dq/lib/libsdk.a(text_color.o)
                                                  /home/leon/git/swp-report/iMX6_Platform_SDK/output/mx6dq/lib/libsdk.a(system_util.o)
                                                  /home/leon/git/swp-report/iMX6_Platform_SDK/output/mx6dq/lib/libsdk.a(menu.o)
                                                  /home/leon/git/swp-report/iMX6_Platform_SDK/output/mx6dq/obds/sabre_ai_rev_a/obj/apps/obds/src/tests/program_mac_address.o
                                                  /home/leon/git/swp-report/iMX6_Platform_SDK/output/mx6dq/obds/sabre_ai_rev_a/obj/apps/obds/src/tests/program_board_id.o
                                                  /home/leon/git/swp-report/iMX6_Platform_SDK/output/mx6dq/obds/sabre_ai_rev_a/obj/apps/obds/src/obds.o
g_TextAttributeDefault                            /home/leon/git/swp-report/iMX6_Platform_SDK/output/mx6dq/lib/libsdk.a(text_color.o)
                                                  /home/leon/git/swp-report/iMX6_Platform_SDK/output/mx6dq/lib/libsdk.a(menu.o)
                                                  /home/leon/git/swp-report/iMX6_Platform_SDK/output/mx6dq/obds/sabre_ai_rev_a/obj/apps/obds/src/tests/snvs_srtc_test.o
                                                  /home/leon/git/swp-report/iMX6_Platform_SDK/output/mx6dq/obds/sabre_ai_rev_a/obj/apps/obds/src/obds.o
g_TextAttributeDim                                /home/leon/git/swp-report/iMX6_Platform_SDK/output/mx6dq/lib/libsdk.a(text_color.o)
                                                  /home/leon/git/swp-report/iMX6_Platform_SDK/output/mx6dq/obds/sabre_ai_rev_a/obj/apps/obds/src/obds.o
g_TextAttributeHidden                             /home/leon/git/swp-report/iMX6_Platform_SDK/output/mx6dq/lib/libsdk.a(text_color.o)
g_TextAttributeReverse                            /home/leon/git/swp-report/iMX6_Platform_SDK/output/mx6dq/lib/libsdk.a(text_color.o)
g_TextAttributeUnderline                          /home/leon/git/swp-report/iMX6_Platform_SDK/output/mx6dq/lib/libsdk.a(text_color.o)
g_TextColorBlack                                  /home/leon/git/swp-report/iMX6_Platform_SDK/output/mx6dq/lib/libsdk.a(text_color.o)
g_TextColorBlue                                   /home/leon/git/swp-report/iMX6_Platform_SDK/output/mx6dq/lib/libsdk.a(text_color.o)
                                                  /home/leon/git/swp-report/iMX6_Platform_SDK/output/mx6dq/lib/libsdk.a(menu.o)
g_TextColorCyan                                   /home/leon/git/swp-report/iMX6_Platform_SDK/output/mx6dq/lib/libsdk.a(text_color.o)
g_TextColorGray                                   /home/leon/git/swp-report/iMX6_Platform_SDK/output/mx6dq/lib/libsdk.a(text_color.o)
                                                  /home/leon/git/swp-report/iMX6_Platform_SDK/output/mx6dq/obds/sabre_ai_rev_a/obj/apps/obds/src/obds.o
g_TextColorGreen                                  /home/leon/git/swp-report/iMX6_Platform_SDK/output/mx6dq/lib/libsdk.a(text_color.o)
                                                  /home/leon/git/swp-report/iMX6_Platform_SDK/output/mx6dq/obds/sabre_ai_rev_a/obj/apps/obds/src/obds.o
g_TextColorLightBlue                              /home/leon/git/swp-report/iMX6_Platform_SDK/output/mx6dq/lib/libsdk.a(text_color.o)
g_TextColorMagenta                                /home/leon/git/swp-report/iMX6_Platform_SDK/output/mx6dq/lib/libsdk.a(text_color.o)
                                                  /home/leon/git/swp-report/iMX6_Platform_SDK/output/mx6dq/lib/libsdk.a(menu.o)
g_TextColorOrange                                 /home/leon/git/swp-report/iMX6_Platform_SDK/output/mx6dq/lib/libsdk.a(text_color.o)
g_TextColorPurple                                 /home/leon/git/swp-report/iMX6_Platform_SDK/output/mx6dq/lib/libsdk.a(text_color.o)
g_TextColorRed                                    /home/leon/git/swp-report/iMX6_Platform_SDK/output/mx6dq/lib/libsdk.a(text_color.o)
                                                  /home/leon/git/swp-report/iMX6_Platform_SDK/output/mx6dq/lib/libsdk.a(system_util.o)
                                                  /home/leon/git/swp-report/iMX6_Platform_SDK/output/mx6dq/lib/libsdk.a(menu.o)
                                                  /home/leon/git/swp-report/iMX6_Platform_SDK/output/mx6dq/obds/sabre_ai_rev_a/obj/apps/obds/src/tests/program_mac_address.o
                                                  /home/leon/git/swp-report/iMX6_Platform_SDK/output/mx6dq/obds/sabre_ai_rev_a/obj/apps/obds/src/tests/program_board_id.o
                                                  /home/leon/git/swp-report/iMX6_Platform_SDK/output/mx6dq/obds/sabre_ai_rev_a/obj/apps/obds/src/obds.o
g_TextColorWhite                                  /home/leon/git/swp-report/iMX6_Platform_SDK/output/mx6dq/lib/libsdk.a(text_color.o)
g_TextColorYellow                                 /home/leon/git/swp-report/iMX6_Platform_SDK/output/mx6dq/lib/libsdk.a(text_color.o)
                                                  /home/leon/git/swp-report/iMX6_Platform_SDK/output/mx6dq/lib/libsdk.a(menu.o)
                                                  /home/leon/git/swp-report/iMX6_Platform_SDK/output/mx6dq/obds/sabre_ai_rev_a/obj/apps/obds/src/tests/snvs_srtc_test.o
                                                  /home/leon/git/swp-report/iMX6_Platform_SDK/output/mx6dq/obds/sabre_ai_rev_a/obj/apps/obds/src/obds.o
g_adv7180_i2c_device                              /home/leon/git/swp-report/iMX6_Platform_SDK/output/mx6dq/lib/libboard_sabre_ai_rev_a.a(board_i2c.o)
                                                  /home/leon/git/swp-report/iMX6_Platform_SDK/output/mx6dq/lib/libsdk.a(adv7180.o)
                                                  /home/leon/git/swp-report/iMX6_Platform_SDK/output/mx6dq/obds/sabre_ai_rev_a/obj/apps/obds/src/tests/video_dec_adv7180.o
g_android_buttons_test_name                       /home/leon/git/swp-report/iMX6_Platform_SDK/output/mx6dq/obds/sabre_ai_rev_a/obj/apps/obds/src/tests/android_buttons_test.o
                                                  /home/leon/git/swp-report/iMX6_Platform_SDK/output/mx6dq/obds/sabre_ai_rev_a/obj/apps/obds/src/obds.o
g_ar8031_test_name                                /home/leon/git/swp-report/iMX6_Platform_SDK/output/mx6dq/obds/sabre_ai_rev_a/obj/apps/obds/src/tests/enet_mx6dldq_test.o
g_ard_main_board_reset_button_test                /home/leon/git/swp-report/iMX6_Platform_SDK/output/mx6dq/obds/sabre_ai_rev_a/obj/apps/obds/src/tests/video_dec_ARD_MB_reset_button.o
                                                  /home/leon/git/swp-report/iMX6_Platform_SDK/output/mx6dq/obds/sabre_ai_rev_a/obj/apps/obds/src/obds.o
g_ard_mb_expander_reset_test_name                 /home/leon/git/swp-report/iMX6_Platform_SDK/output/mx6dq/obds/sabre_ai_rev_a/obj/apps/obds/src/tests/video_dec_ARD_MBrst_from_cpu_expander.o
                                                  /home/leon/git/swp-report/iMX6_Platform_SDK/output/mx6dq/obds/sabre_ai_rev_a/obj/apps/obds/src/obds.o
g_at24cx_i2c_device                               /home/leon/git/swp-report/iMX6_Platform_SDK/output/mx6dq/lib/libboard_sabre_ai_rev_a.a(board_i2c.o)
                                                  /home/leon/git/swp-report/iMX6_Platform_SDK/output/mx6dq/obds/sabre_ai_rev_a/obj/apps/obds/src/tests/i2c_eeprom_at24cxx_test.o
g_audio_esai_test_name                            /home/leon/git/swp-report/iMX6_Platform_SDK/output/mx6dq/obds/sabre_ai_rev_a/obj/apps/obds/src/tests/audio_esai_test.o
                                                  /home/leon/git/swp-report/iMX6_Platform_SDK/output/mx6dq/obds/sabre_ai_rev_a/obj/apps/obds/src/obds.o
g_audio_ssi_test_name                             /home/leon/git/swp-report/iMX6_Platform_SDK/output/mx6dq/obds/sabre_ai_rev_a/obj/apps/obds/src/tests/audio_ssi_test.o
g_camera_i2c_port                                 /home/leon/git/swp-report/iMX6_Platform_SDK/output/mx6dq/lib/libboard_sabre_ai_rev_a.a(board_camera.o)
                                                  /home/leon/git/swp-report/iMX6_Platform_SDK/output/mx6dq/lib/libsdk.a(smd_sensor.o)
g_camera_modes                                    /home/leon/git/swp-report/iMX6_Platform_SDK/output/mx6dq/lib/libsdk.a(camera_profile.o)
g_camera_profiles                                 /home/leon/git/swp-report/iMX6_Platform_SDK/output/mx6dq/lib/libsdk.a(camera_profile.o)
                                                  /home/leon/git/swp-report/iMX6_Platform_SDK/output/mx6dq/lib/libsdk.a(smd_sensor.o)
g_camera_test_name                                /home/leon/git/swp-report/iMX6_Platform_SDK/output/mx6dq/obds/sabre_ai_rev_a/obj/sdk/drivers/camera/test/camera_test.o
g_cs42888_i2c_device                              /home/leon/git/swp-report/iMX6_Platform_SDK/output/mx6dq/lib/libboard_sabre_ai_rev_a.a(board_i2c.o)
                                                  /home/leon/git/swp-report/iMX6_Platform_SDK/output/mx6dq/lib/libsdk.a(cs42888.o)
g_cs42888_i2c_device_id_test_name                 /home/leon/git/swp-report/iMX6_Platform_SDK/output/mx6dq/obds/sabre_ai_rev_a/obj/apps/obds/src/tests/i2c_device_check_cs42888.o
                                                  /home/leon/git/swp-report/iMX6_Platform_SDK/output/mx6dq/obds/sabre_ai_rev_a/obj/apps/obds/src/obds.o
g_ddr_test_name                                   /home/leon/git/swp-report/iMX6_Platform_SDK/output/mx6dq/obds/sabre_ai_rev_a/obj/apps/obds/src/tests/ddr_test.o
                                                  /home/leon/git/swp-report/iMX6_Platform_SDK/output/mx6dq/obds/sabre_ai_rev_a/obj/apps/obds/src/obds.o
g_debug_uart_port                                 /home/leon/git/swp-report/iMX6_Platform_SDK/output/mx6dq/lib/libboard_sabre_ai_rev_a.a(hardware_modules.o)
                                                  /home/leon/git/swp-report/iMX6_Platform_SDK/output/mx6dq/lib/libsdk.a(runtime_support.o)
                                                  /home/leon/git/swp-report/iMX6_Platform_SDK/output/mx6dq/lib/libsdk.a(system_util.o)
                                                  /home/leon/git/swp-report/iMX6_Platform_SDK/output/mx6dq/obds/sabre_ai_rev_a/obj/sdk/drivers/camera/test/csi_test_mode.o
                                                  /home/leon/git/swp-report/iMX6_Platform_SDK/output/mx6dq/obds/sabre_ai_rev_a/obj/apps/common/print_clock_info.o
                                                  /home/leon/git/swp-report/iMX6_Platform_SDK/output/mx6dq/obds/sabre_ai_rev_a/obj/apps/common/platform_init.o
g_eim_NOR_flash_test_name                         /home/leon/git/swp-report/iMX6_Platform_SDK/output/mx6dq/obds/sabre_ai_rev_a/obj/apps/obds/src/tests/weim_nor_flash_test.o
                                                  /home/leon/git/swp-report/iMX6_Platform_SDK/output/mx6dq/obds/sabre_ai_rev_a/obj/apps/obds/src/obds.o
g_emc1046_i2c_device_id_test_name                 /home/leon/git/swp-report/iMX6_Platform_SDK/output/mx6dq/obds/sabre_ai_rev_a/obj/apps/obds/src/tests/i2c_device_temp_sensor_emc1046.o
g_flexcan_test_name                               /home/leon/git/swp-report/iMX6_Platform_SDK/output/mx6dq/obds/sabre_ai_rev_a/obj/apps/obds/src/tests/flexcan_test.o
                                                  /home/leon/git/swp-report/iMX6_Platform_SDK/output/mx6dq/obds/sabre_ai_rev_a/obj/apps/obds/src/obds.o
g_gpio_led_test_name                              /home/leon/git/swp-report/iMX6_Platform_SDK/output/mx6dq/obds/sabre_ai_rev_a/obj/apps/obds/src/tests/gpio_led.o
                                                  /home/leon/git/swp-report/iMX6_Platform_SDK/output/mx6dq/obds/sabre_ai_rev_a/obj/apps/obds/src/obds.o
g_hs_tsc_p1003_i2c_device_id_test_name            /home/leon/git/swp-report/iMX6_Platform_SDK/output/mx6dq/obds/sabre_ai_rev_a/obj/apps/obds/src/tests/i2c_device_id_check_p1003_tsc.o
                                                  /home/leon/git/swp-report/iMX6_Platform_SDK/output/mx6dq/obds/sabre_ai_rev_a/obj/apps/obds/src/obds.o
g_interrupt_handlers                              /home/leon/git/swp-report/iMX6_Platform_SDK/output/mx6dq/lib/libsdk.a(interrupt.o)
g_ipu_display_tests_name                          /home/leon/git/swp-report/iMX6_Platform_SDK/output/mx6dq/obds/sabre_ai_rev_a/obj/apps/obds/src/tests/display_test.o
                                                  /home/leon/git/swp-report/iMX6_Platform_SDK/output/mx6dq/obds/sabre_ai_rev_a/obj/apps/obds/src/obds.o
g_isl29023_i2c_device_id_test_name                /home/leon/git/swp-report/iMX6_Platform_SDK/output/mx6dq/obds/sabre_ai_rev_a/obj/apps/obds/src/tests/i2c_check_light_sensor_isl29023.o
                                                  /home/leon/git/swp-report/iMX6_Platform_SDK/output/mx6dq/obds/sabre_ai_rev_a/obj/apps/obds/src/obds.o
g_mag3110_i2c_device_id_test_name                 /home/leon/git/swp-report/iMX6_Platform_SDK/output/mx6dq/obds/sabre_ai_rev_a/obj/apps/obds/src/tests/i2c_device_digital_compass_mag3110.o
                                                  /home/leon/git/swp-report/iMX6_Platform_SDK/output/mx6dq/obds/sabre_ai_rev_a/obj/apps/obds/src/obds.o
g_mag3112_i2c_device_id_test_name                 /home/leon/git/swp-report/iMX6_Platform_SDK/output/mx6dq/obds/sabre_ai_rev_a/obj/apps/obds/src/tests/i2c_device_digital_compass_mag3112.o
g_max17135_i2c_device_id_test_name                /home/leon/git/swp-report/iMX6_Platform_SDK/output/mx6dq/obds/sabre_ai_rev_a/obj/apps/obds/src/tests/pmic_max17135.o
g_max7310_i2c_device_id_test_name                 /home/leon/git/swp-report/iMX6_Platform_SDK/output/mx6dq/obds/sabre_ai_rev_a/obj/sdk/common/ioexpander/test/max7310_test.o
                                                  /home/leon/git/swp-report/iMX6_Platform_SDK/output/mx6dq/obds/sabre_ai_rev_a/obj/apps/obds/src/obds.o
g_microsecondTimerMultiple                        /home/leon/git/swp-report/iMX6_Platform_SDK/output/mx6dq/lib/libsdk.a(timer.o)
g_mma8450_i2c_device_id_test_name                 /home/leon/git/swp-report/iMX6_Platform_SDK/output/mx6dq/obds/sabre_ai_rev_a/obj/apps/obds/src/tests/i2c_device_id_check_mma8450.o
g_mma8451_i2c_device                              /home/leon/git/swp-report/iMX6_Platform_SDK/output/mx6dq/lib/libboard_sabre_ai_rev_a.a(board_i2c.o)
g_mma8451_i2c_device_id_test_name                 /home/leon/git/swp-report/iMX6_Platform_SDK/output/mx6dq/obds/sabre_ai_rev_a/obj/apps/obds/src/tests/i2c_device_id_check_mma8451.o
                                                  /home/leon/git/swp-report/iMX6_Platform_SDK/output/mx6dq/obds/sabre_ai_rev_a/obj/apps/obds/src/obds.o
g_mmcsd_test_name                                 /home/leon/git/swp-report/iMX6_Platform_SDK/output/mx6dq/obds/sabre_ai_rev_a/obj/apps/obds/src/tests/mmcsd_test.o
                                                  /home/leon/git/swp-report/iMX6_Platform_SDK/output/mx6dq/obds/sabre_ai_rev_a/obj/apps/obds/src/obds.o
g_mt9p111_af_firmware                             /home/leon/git/swp-report/iMX6_Platform_SDK/output/mx6dq/lib/libsdk.a(camera_profile.o)
g_mt9p111_af_ready                                /home/leon/git/swp-report/iMX6_Platform_SDK/output/mx6dq/lib/libsdk.a(camera_profile.o)
g_mt9p111_af_trigger                              /home/leon/git/swp-report/iMX6_Platform_SDK/output/mx6dq/lib/libsdk.a(camera_profile.o)
g_mt9p111_mode_vga_640_480_30fps                  /home/leon/git/swp-report/iMX6_Platform_SDK/output/mx6dq/lib/libsdk.a(camera_profile.o)
g_mt9p111_sensor_detection                        /home/leon/git/swp-report/iMX6_Platform_SDK/output/mx6dq/lib/libsdk.a(camera_profile.o)
g_os81050_i2c_device                              /home/leon/git/swp-report/iMX6_Platform_SDK/output/mx6dq/lib/libboard_sabre_ai_rev_a.a(board_i2c.o)
                                                  /home/leon/git/swp-report/iMX6_Platform_SDK/output/mx6dq/obds/sabre_ai_rev_a/obj/apps/obds/src/tests/mlb_os81050.o
g_ov3640_mode_vga_640_480_30fps                   /home/leon/git/swp-report/iMX6_Platform_SDK/output/mx6dq/lib/libsdk.a(camera_profile.o)
g_ov3640_sensor_detection                         /home/leon/git/swp-report/iMX6_Platform_SDK/output/mx6dq/lib/libsdk.a(camera_profile.o)
g_ov5640_mode_vga_640_480_30fps                   /home/leon/git/swp-report/iMX6_Platform_SDK/output/mx6dq/lib/libsdk.a(camera_profile.o)
g_ov5640_sensor_detection                         /home/leon/git/swp-report/iMX6_Platform_SDK/output/mx6dq/lib/libsdk.a(camera_profile.o)
g_ov5642_af_firmware                              /home/leon/git/swp-report/iMX6_Platform_SDK/output/mx6dq/lib/libsdk.a(camera_profile.o)
g_ov5642_af_ready                                 /home/leon/git/swp-report/iMX6_Platform_SDK/output/mx6dq/lib/libsdk.a(camera_profile.o)
g_ov5642_af_trigger                               /home/leon/git/swp-report/iMX6_Platform_SDK/output/mx6dq/lib/libsdk.a(camera_profile.o)
g_ov5642_mode_vga_640_480_30fps                   /home/leon/git/swp-report/iMX6_Platform_SDK/output/mx6dq/lib/libsdk.a(camera_profile.o)
g_ov5642_sensor_detection                         /home/leon/git/swp-report/iMX6_Platform_SDK/output/mx6dq/lib/libsdk.a(camera_profile.o)
g_p1003_tsc_i2c_device                            /home/leon/git/swp-report/iMX6_Platform_SDK/output/mx6dq/lib/libboard_sabre_ai_rev_a.a(board_i2c.o)
                                                  /home/leon/git/swp-report/iMX6_Platform_SDK/output/mx6dq/obds/sabre_ai_rev_a/obj/apps/obds/src/tests/i2c_device_id_check_p1003_tsc.o
g_pmic_da9053_i2c_device                          /home/leon/git/swp-report/iMX6_Platform_SDK/output/mx6dq/lib/libboard_sabre_ai_rev_a.a(board_i2c.o)
                                                  /home/leon/git/swp-report/iMX6_Platform_SDK/output/mx6dq/obds/sabre_ai_rev_a/obj/apps/obds/src/tests/touch_screen.o
                                                  /home/leon/git/swp-report/iMX6_Platform_SDK/output/mx6dq/obds/sabre_ai_rev_a/obj/apps/obds/src/tests/pmic_da9053.o
g_pmic_ltc3589_i2c_device                         /home/leon/git/swp-report/iMX6_Platform_SDK/output/mx6dq/lib/libboard_sabre_ai_rev_a.a(board_i2c.o)
                                                  /home/leon/git/swp-report/iMX6_Platform_SDK/output/mx6dq/obds/sabre_ai_rev_a/obj/apps/obds/src/tests/pmic_lt3589.o
g_pmic_max17135_i2c_device                        /home/leon/git/swp-report/iMX6_Platform_SDK/output/mx6dq/lib/libboard_sabre_ai_rev_a.a(board_i2c.o)
                                                  /home/leon/git/swp-report/iMX6_Platform_SDK/output/mx6dq/obds/sabre_ai_rev_a/obj/apps/obds/src/tests/pmic_max17135.o
g_pmic_pf0100_i2c_device                          /home/leon/git/swp-report/iMX6_Platform_SDK/output/mx6dq/lib/libboard_sabre_ai_rev_a.a(board_i2c.o)
                                                  /home/leon/git/swp-report/iMX6_Platform_SDK/output/mx6dq/obds/sabre_ai_rev_a/obj/sdk/common/pmic/pfuse/pf0100.o
g_pmic_pf0100_i2c_device_id_test_name             /home/leon/git/swp-report/iMX6_Platform_SDK/output/mx6dq/obds/sabre_ai_rev_a/obj/sdk/common/pmic/pfuse/pf0100.o
                                                  /home/leon/git/swp-report/iMX6_Platform_SDK/output/mx6dq/obds/sabre_ai_rev_a/obj/apps/obds/src/obds.o
g_ppl3115_i2c_device_id_test_name                 /home/leon/git/swp-report/iMX6_Platform_SDK/output/mx6dq/obds/sabre_ai_rev_a/obj/apps/obds/src/tests/i2c_device_barometer_ppl3115.o
g_program_board_id_test_name                      /home/leon/git/swp-report/iMX6_Platform_SDK/output/mx6dq/obds/sabre_ai_rev_a/obj/apps/obds/src/tests/program_board_id.o
                                                  /home/leon/git/swp-report/iMX6_Platform_SDK/output/mx6dq/obds/sabre_ai_rev_a/obj/apps/obds/src/obds.o
g_program_mac_address_test_name                   /home/leon/git/swp-report/iMX6_Platform_SDK/output/mx6dq/obds/sabre_ai_rev_a/obj/apps/obds/src/tests/program_mac_address.o
                                                  /home/leon/git/swp-report/iMX6_Platform_SDK/output/mx6dq/obds/sabre_ai_rev_a/obj/apps/obds/src/obds.o
g_sata_test_name                                  /home/leon/git/swp-report/iMX6_Platform_SDK/output/mx6dq/obds/sabre_ai_rev_a/obj/sdk/drivers/sata/test/sata_test.o
                                                  /home/leon/git/swp-report/iMX6_Platform_SDK/output/mx6dq/obds/sabre_ai_rev_a/obj/apps/obds/src/obds.o
g_sgtl5000_i2c_device                             /home/leon/git/swp-report/iMX6_Platform_SDK/output/mx6dq/lib/libboard_sabre_ai_rev_a.a(board_i2c.o)
                                                  /home/leon/git/swp-report/iMX6_Platform_SDK/output/mx6dq/lib/libsdk.a(sgtl5000.o)
g_si476x_i2c_device                               /home/leon/git/swp-report/iMX6_Platform_SDK/output/mx6dq/lib/libboard_sabre_ai_rev_a.a(board_i2c.o)
                                                  /home/leon/git/swp-report/iMX6_Platform_SDK/output/mx6dq/obds/sabre_ai_rev_a/obj/apps/obds/src/tests/fm_tuner_si476x_test.o
g_snvs_srtc_test_name                             /home/leon/git/swp-report/iMX6_Platform_SDK/output/mx6dq/obds/sabre_ai_rev_a/obj/apps/obds/src/tests/snvs_srtc_test.o
                                                  /home/leon/git/swp-report/iMX6_Platform_SDK/output/mx6dq/obds/sabre_ai_rev_a/obj/apps/obds/src/obds.o
g_spi_nor_test_name                               /home/leon/git/swp-report/iMX6_Platform_SDK/output/mx6dq/obds/sabre_ai_rev_a/obj/apps/obds/src/tests/imx_spi_nor_test.o
                                                  /home/leon/git/swp-report/iMX6_Platform_SDK/output/mx6dq/obds/sabre_ai_rev_a/obj/apps/obds/src/obds.o
g_system_timer_port                               /home/leon/git/swp-report/iMX6_Platform_SDK/output/mx6dq/lib/libboard_sabre_ai_rev_a.a(hardware_modules.o)
                                                  /home/leon/git/swp-report/iMX6_Platform_SDK/output/mx6dq/lib/libsdk.a(timer.o)
g_uart_test_name                                  /home/leon/git/swp-report/iMX6_Platform_SDK/output/mx6dq/obds/sabre_ai_rev_a/obj/sdk/drivers/uart/test/uart_test.o
                                                  /home/leon/git/swp-report/iMX6_Platform_SDK/output/mx6dq/obds/sabre_ai_rev_a/obj/apps/obds/src/obds.o
g_usb_host1_dev_enum_test_name                    /home/leon/git/swp-report/iMX6_Platform_SDK/output/mx6dq/obds/sabre_ai_rev_a/obj/apps/obds/src/tests/usb_tests_obds.o
                                                  /home/leon/git/swp-report/iMX6_Platform_SDK/output/mx6dq/obds/sabre_ai_rev_a/obj/apps/obds/src/obds.o
g_usb_otg_dev_enum_test_name                      /home/leon/git/swp-report/iMX6_Platform_SDK/output/mx6dq/obds/sabre_ai_rev_a/obj/apps/obds/src/tests/usb_tests_obds.o
                                                  /home/leon/git/swp-report/iMX6_Platform_SDK/output/mx6dq/obds/sabre_ai_rev_a/obj/apps/obds/src/obds.o
g_vectNum                                         /home/leon/git/swp-report/iMX6_Platform_SDK/output/mx6dq/lib/libsdk.a(interrupt.o)
g_video_dec_test_name                             /home/leon/git/swp-report/iMX6_Platform_SDK/output/mx6dq/obds/sabre_ai_rev_a/obj/apps/obds/src/tests/video_dec_adv7180.o
                                                  /home/leon/git/swp-report/iMX6_Platform_SDK/output/mx6dq/obds/sabre_ai_rev_a/obj/apps/obds/src/obds.o
g_wm8958_i2c_device                               /home/leon/git/swp-report/iMX6_Platform_SDK/output/mx6dq/lib/libboard_sabre_ai_rev_a.a(board_i2c.o)
                                                  /home/leon/git/swp-report/iMX6_Platform_SDK/output/mx6dq/lib/libsdk.a(wm8958_dac.o)
g_wm8962_i2c_device                               /home/leon/git/swp-report/iMX6_Platform_SDK/output/mx6dq/lib/libboard_sabre_ai_rev_a.a(board_i2c.o)
                                                  /home/leon/git/swp-report/iMX6_Platform_SDK/output/mx6dq/lib/libsdk.a(wm8962.o)
get_arm_private_peripheral_base                   /home/leon/git/swp-report/iMX6_Platform_SDK/output/mx6dq/lib/libsdk.a(cortexA9.o)
                                                  /home/leon/git/swp-report/iMX6_Platform_SDK/output/mx6dq/lib/libsdk.a(gic.o)
get_board_id                                      /home/leon/git/swp-report/iMX6_Platform_SDK/output/mx6dq/lib/libsdk.a(board_id.o)
                                                  /home/leon/git/swp-report/iMX6_Platform_SDK/output/mx6dq/obds/sabre_ai_rev_a/obj/apps/obds/src/tests/program_board_id.o
                                                  /home/leon/git/swp-report/iMX6_Platform_SDK/output/mx6dq/obds/sabre_ai_rev_a/obj/apps/obds/src/obds.o
                                                  /home/leon/git/swp-report/iMX6_Platform_SDK/output/mx6dq/obds/sabre_ai_rev_a/obj/apps/common/print_version.o
get_color_supported                               /home/leon/git/swp-report/iMX6_Platform_SDK/output/mx6dq/lib/libsdk.a(text_color.o)
get_ddr_density                                   /home/leon/git/swp-report/iMX6_Platform_SDK/output/mx6dq/obds/sabre_ai_rev_a/obj/apps/obds/src/tests/ddr_test.o
get_input_hex                                     /home/leon/git/swp-report/iMX6_Platform_SDK/output/mx6dq/lib/libsdk.a(system_util.o)
get_main_clock                                    /home/leon/git/swp-report/iMX6_Platform_SDK/output/mx6dq/lib/libsdk.a(ccm_pll.o)
                                                  /home/leon/git/swp-report/iMX6_Platform_SDK/output/mx6dq/lib/libsdk.a(timer.o)
                                                  /home/leon/git/swp-report/iMX6_Platform_SDK/output/mx6dq/lib/libsdk.a(imx_i2c.o)
                                                  /home/leon/git/swp-report/iMX6_Platform_SDK/output/mx6dq/lib/libsdk.a(enet_drv.o)
                                                  /home/leon/git/swp-report/iMX6_Platform_SDK/output/mx6dq/obds/sabre_ai_rev_a/obj/apps/common/print_clock_info.o
get_menu_item                                     /home/leon/git/swp-report/iMX6_Platform_SDK/output/mx6dq/lib/libsdk.a(usb_common.o)
                                                  /home/leon/git/swp-report/iMX6_Platform_SDK/output/mx6dq/obds/sabre_ai_rev_a/obj/sdk/drivers/usb/test/usb0_host_testmodes_test.o
get_panel_by_id                                   /home/leon/git/swp-report/iMX6_Platform_SDK/output/mx6dq/lib/libsdk.a(ips_disp_panel.o)
                                                  /home/leon/git/swp-report/iMX6_Platform_SDK/output/mx6dq/obds/sabre_ai_rev_a/obj/apps/obds/src/tests/display_test.o
get_peri_clock                                    /home/leon/git/swp-report/iMX6_Platform_SDK/output/mx6dq/lib/libsdk.a(ccm_pll.o)
                                                  /home/leon/git/swp-report/iMX6_Platform_SDK/output/mx6dq/lib/libsdk.a(imx_uart.o)
                                                  /home/leon/git/swp-report/iMX6_Platform_SDK/output/mx6dq/obds/sabre_ai_rev_a/obj/apps/common/print_clock_info.o
gic_cpu_enable                                    /home/leon/git/swp-report/iMX6_Platform_SDK/output/mx6dq/lib/libsdk.a(gic.o)
gic_enable                                        /home/leon/git/swp-report/iMX6_Platform_SDK/output/mx6dq/lib/libsdk.a(gic.o)
gic_enable_irq                                    /home/leon/git/swp-report/iMX6_Platform_SDK/output/mx6dq/lib/libsdk.a(gic.o)
                                                  /home/leon/git/swp-report/iMX6_Platform_SDK/output/mx6dq/lib/libsdk.a(interrupt.o)
gic_init                                          /home/leon/git/swp-report/iMX6_Platform_SDK/output/mx6dq/lib/libsdk.a(gic.o)
                                                  /home/leon/git/swp-report/iMX6_Platform_SDK/output/mx6dq/obds/sabre_ai_rev_a/obj/apps/common/platform_init.o
gic_init_cpu                                      /home/leon/git/swp-report/iMX6_Platform_SDK/output/mx6dq/lib/libsdk.a(gic.o)
gic_read_irq_ack                                  /home/leon/git/swp-report/iMX6_Platform_SDK/output/mx6dq/lib/libsdk.a(gic.o)
                                                  /home/leon/git/swp-report/iMX6_Platform_SDK/output/mx6dq/lib/libsdk.a(interrupt.o)
gic_send_sgi                                      /home/leon/git/swp-report/iMX6_Platform_SDK/output/mx6dq/lib/libsdk.a(gic.o)
gic_set_cpu_priority_mask                         /home/leon/git/swp-report/iMX6_Platform_SDK/output/mx6dq/lib/libsdk.a(gic.o)
gic_set_cpu_target                                /home/leon/git/swp-report/iMX6_Platform_SDK/output/mx6dq/lib/libsdk.a(gic.o)
                                                  /home/leon/git/swp-report/iMX6_Platform_SDK/output/mx6dq/lib/libsdk.a(interrupt.o)
gic_set_irq_priority                              /home/leon/git/swp-report/iMX6_Platform_SDK/output/mx6dq/lib/libsdk.a(gic.o)
                                                  /home/leon/git/swp-report/iMX6_Platform_SDK/output/mx6dq/lib/libsdk.a(interrupt.o)
gic_set_irq_security                              /home/leon/git/swp-report/iMX6_Platform_SDK/output/mx6dq/lib/libsdk.a(gic.o)
                                                  /home/leon/git/swp-report/iMX6_Platform_SDK/output/mx6dq/lib/libsdk.a(interrupt.o)
gic_write_end_of_irq                              /home/leon/git/swp-report/iMX6_Platform_SDK/output/mx6dq/lib/libsdk.a(gic.o)
                                                  /home/leon/git/swp-report/iMX6_Platform_SDK/output/mx6dq/lib/libsdk.a(interrupt.o)
gpio1_iomux_config                                /home/leon/git/swp-report/iMX6_Platform_SDK/output/mx6dq/lib/libboard_sabre_ai_rev_a.a(gpio1_iomux_config.o)
                                                  /home/leon/git/swp-report/iMX6_Platform_SDK/output/mx6dq/lib/libboard_sabre_ai_rev_a.a(iomux_config.o)
gpio2_iomux_config                                /home/leon/git/swp-report/iMX6_Platform_SDK/output/mx6dq/lib/libboard_sabre_ai_rev_a.a(gpio2_iomux_config.o)
                                                  /home/leon/git/swp-report/iMX6_Platform_SDK/output/mx6dq/lib/libboard_sabre_ai_rev_a.a(iomux_config.o)
gpio3_iomux_config                                /home/leon/git/swp-report/iMX6_Platform_SDK/output/mx6dq/lib/libboard_sabre_ai_rev_a.a(iomux_config.o)
gpio4_iomux_config                                /home/leon/git/swp-report/iMX6_Platform_SDK/output/mx6dq/lib/libboard_sabre_ai_rev_a.a(gpio4_iomux_config.o)
                                                  /home/leon/git/swp-report/iMX6_Platform_SDK/output/mx6dq/lib/libboard_sabre_ai_rev_a.a(iomux_config.o)
gpio5_iomux_config                                /home/leon/git/swp-report/iMX6_Platform_SDK/output/mx6dq/lib/libboard_sabre_ai_rev_a.a(gpio5_iomux_config.o)
                                                  /home/leon/git/swp-report/iMX6_Platform_SDK/output/mx6dq/lib/libboard_sabre_ai_rev_a.a(iomux_config.o)
gpio6_iomux_config                                /home/leon/git/swp-report/iMX6_Platform_SDK/output/mx6dq/lib/libboard_sabre_ai_rev_a.a(gpio6_iomux_config.o)
                                                  /home/leon/git/swp-report/iMX6_Platform_SDK/output/mx6dq/lib/libboard_sabre_ai_rev_a.a(iomux_config.o)
gpio7_iomux_config                                /home/leon/git/swp-report/iMX6_Platform_SDK/output/mx6dq/lib/libboard_sabre_ai_rev_a.a(iomux_config.o)
gpio_clear_interrupt                              /home/leon/git/swp-report/iMX6_Platform_SDK/output/mx6dq/lib/libsdk.a(gpio.o)
                                                  /home/leon/git/swp-report/iMX6_Platform_SDK/output/mx6dq/obds/sabre_ai_rev_a/obj/apps/obds/src/tests/android_buttons_test.o
gpio_get_direction                                /home/leon/git/swp-report/iMX6_Platform_SDK/output/mx6dq/lib/libsdk.a(gpio.o)
gpio_get_interrupt_status                         /home/leon/git/swp-report/iMX6_Platform_SDK/output/mx6dq/lib/libsdk.a(gpio.o)
                                                  /home/leon/git/swp-report/iMX6_Platform_SDK/output/mx6dq/obds/sabre_ai_rev_a/obj/apps/obds/src/tests/android_buttons_test.o
gpio_get_level                                    /home/leon/git/swp-report/iMX6_Platform_SDK/output/mx6dq/lib/libsdk.a(gpio.o)
                                                  /home/leon/git/swp-report/iMX6_Platform_SDK/output/mx6dq/lib/libboard_sabre_ai_rev_a.a(board_usdhc.o)
                                                  /home/leon/git/swp-report/iMX6_Platform_SDK/output/mx6dq/obds/sabre_ai_rev_a/obj/apps/obds/src/tests/touch_screen_max11801.o
                                                  /home/leon/git/swp-report/iMX6_Platform_SDK/output/mx6dq/obds/sabre_ai_rev_a/obj/apps/obds/src/tests/deserializer_ds90ur124.o
gpio_get_port_count                               /home/leon/git/swp-report/iMX6_Platform_SDK/output/mx6dq/lib/libsdk.a(gpio.o)
gpio_led_test                                     /home/leon/git/swp-report/iMX6_Platform_SDK/output/mx6dq/obds/sabre_ai_rev_a/obj/apps/obds/src/tests/gpio_led.o
                                                  /home/leon/git/swp-report/iMX6_Platform_SDK/output/mx6dq/obds/sabre_ai_rev_a/obj/apps/obds/src/obds.o
gpio_set_direction                                /home/leon/git/swp-report/iMX6_Platform_SDK/output/mx6dq/lib/libsdk.a(gpio.o)
                                                  /home/leon/git/swp-report/iMX6_Platform_SDK/output/mx6dq/lib/libboard_sabre_ai_rev_a.a(board_usdhc.o)
                                                  /home/leon/git/swp-report/iMX6_Platform_SDK/output/mx6dq/lib/libboard_sabre_ai_rev_a.a(board_network.o)
                                                  /home/leon/git/swp-report/iMX6_Platform_SDK/output/mx6dq/lib/libboard_sabre_ai_rev_a.a(board_io_expanders.o)
                                                  /home/leon/git/swp-report/iMX6_Platform_SDK/output/mx6dq/lib/libboard_sabre_ai_rev_a.a(board_display.o)
                                                  /home/leon/git/swp-report/iMX6_Platform_SDK/output/mx6dq/lib/libboard_sabre_ai_rev_a.a(board_camera.o)
                                                  /home/leon/git/swp-report/iMX6_Platform_SDK/output/mx6dq/obds/sabre_ai_rev_a/obj/apps/obds/src/tests/imx_spi_nor_test.o
                                                  /home/leon/git/swp-report/iMX6_Platform_SDK/output/mx6dq/obds/sabre_ai_rev_a/obj/apps/obds/src/tests/gpio_led.o
                                                  /home/leon/git/swp-report/iMX6_Platform_SDK/output/mx6dq/obds/sabre_ai_rev_a/obj/apps/obds/src/tests/deserializer_ds90ur124.o
                                                  /home/leon/git/swp-report/iMX6_Platform_SDK/output/mx6dq/obds/sabre_ai_rev_a/obj/apps/obds/src/tests/android_buttons_test.o
gpio_set_gpio                                     /home/leon/git/swp-report/iMX6_Platform_SDK/output/mx6dq/lib/libsdk.a(gpio.o)
                                                  /home/leon/git/swp-report/iMX6_Platform_SDK/output/mx6dq/lib/libboard_sabre_ai_rev_a.a(board_usdhc.o)
                                                  /home/leon/git/swp-report/iMX6_Platform_SDK/output/mx6dq/lib/libboard_sabre_ai_rev_a.a(board_network.o)
                                                  /home/leon/git/swp-report/iMX6_Platform_SDK/output/mx6dq/lib/libboard_sabre_ai_rev_a.a(board_io_expanders.o)
                                                  /home/leon/git/swp-report/iMX6_Platform_SDK/output/mx6dq/lib/libboard_sabre_ai_rev_a.a(board_display.o)
                                                  /home/leon/git/swp-report/iMX6_Platform_SDK/output/mx6dq/lib/libboard_sabre_ai_rev_a.a(board_buttons.o)
gpio_set_interrupt_config                         /home/leon/git/swp-report/iMX6_Platform_SDK/output/mx6dq/lib/libsdk.a(gpio.o)
                                                  /home/leon/git/swp-report/iMX6_Platform_SDK/output/mx6dq/obds/sabre_ai_rev_a/obj/apps/obds/src/tests/android_buttons_test.o
gpio_set_interrupt_mask                           /home/leon/git/swp-report/iMX6_Platform_SDK/output/mx6dq/lib/libsdk.a(gpio.o)
                                                  /home/leon/git/swp-report/iMX6_Platform_SDK/output/mx6dq/obds/sabre_ai_rev_a/obj/apps/obds/src/tests/android_buttons_test.o
gpio_set_level                                    /home/leon/git/swp-report/iMX6_Platform_SDK/output/mx6dq/lib/libsdk.a(gpio.o)
                                                  /home/leon/git/swp-report/iMX6_Platform_SDK/output/mx6dq/lib/libboard_sabre_ai_rev_a.a(board_io_expanders.o)
                                                  /home/leon/git/swp-report/iMX6_Platform_SDK/output/mx6dq/lib/libboard_sabre_ai_rev_a.a(board_display.o)
                                                  /home/leon/git/swp-report/iMX6_Platform_SDK/output/mx6dq/lib/libboard_sabre_ai_rev_a.a(board_camera.o)
                                                  /home/leon/git/swp-report/iMX6_Platform_SDK/output/mx6dq/obds/sabre_ai_rev_a/obj/apps/obds/src/tests/imx_spi_nor_test.o
                                                  /home/leon/git/swp-report/iMX6_Platform_SDK/output/mx6dq/obds/sabre_ai_rev_a/obj/apps/obds/src/tests/gpio_led.o
gpmi_iomux_config                                 /home/leon/git/swp-report/iMX6_Platform_SDK/output/mx6dq/lib/libboard_sabre_ai_rev_a.a(gpmi_iomux_config.o)
                                                  /home/leon/git/swp-report/iMX6_Platform_SDK/output/mx6dq/lib/libboard_sabre_ai_rev_a.a(iomux_config.o)
gps_test                                          /home/leon/git/swp-report/iMX6_Platform_SDK/output/mx6dq/obds/sabre_ai_rev_a/obj/apps/obds/src/tests/gps_test.o
gps_test_enable                                   /home/leon/git/swp-report/iMX6_Platform_SDK/output/mx6dq/obds/sabre_ai_rev_a/obj/apps/obds/src/tests/gps_test.o
gpt_iomux_config                                  /home/leon/git/swp-report/iMX6_Platform_SDK/output/mx6dq/lib/libboard_sabre_ai_rev_a.a(iomux_config.o)
gpu_clock_config                                  /home/leon/git/swp-report/iMX6_Platform_SDK/output/mx6dq/lib/libsdk.a(ccm_pll.o)
hal_delay_us                                      /home/leon/git/swp-report/iMX6_Platform_SDK/output/mx6dq/lib/libsdk.a(timer.o)
                                                  /home/leon/git/swp-report/iMX6_Platform_SDK/output/mx6dq/lib/libboard_sabre_ai_rev_a.a(board_sata.o)
                                                  /home/leon/git/swp-report/iMX6_Platform_SDK/output/mx6dq/lib/libboard_sabre_ai_rev_a.a(board_mipi.o)
                                                  /home/leon/git/swp-report/iMX6_Platform_SDK/output/mx6dq/lib/libboard_sabre_ai_rev_a.a(board_camera.o)
                                                  /home/leon/git/swp-report/iMX6_Platform_SDK/output/mx6dq/lib/libsdk.a(adv7180.o)
                                                  /home/leon/git/swp-report/iMX6_Platform_SDK/output/mx6dq/lib/libsdk.a(usdhc_sd.o)
                                                  /home/leon/git/swp-report/iMX6_Platform_SDK/output/mx6dq/lib/libsdk.a(usdhc_mmc.o)
                                                  /home/leon/git/swp-report/iMX6_Platform_SDK/output/mx6dq/lib/libsdk.a(usdhc_host.o)
                                                  /home/leon/git/swp-report/iMX6_Platform_SDK/output/mx6dq/lib/libsdk.a(ecspi.o)
                                                  /home/leon/git/swp-report/iMX6_Platform_SDK/output/mx6dq/lib/libsdk.a(sata.o)
                                                  /home/leon/git/swp-report/iMX6_Platform_SDK/output/mx6dq/lib/libsdk.a(ipu_common.o)
                                                  /home/leon/git/swp-report/iMX6_Platform_SDK/output/mx6dq/lib/libsdk.a(hdmi_tx_phy.o)
                                                  /home/leon/git/swp-report/iMX6_Platform_SDK/output/mx6dq/lib/libsdk.a(enet_drv.o)
                                                  /home/leon/git/swp-report/iMX6_Platform_SDK/output/mx6dq/lib/libsdk.a(smd_sensor.o)
                                                  /home/leon/git/swp-report/iMX6_Platform_SDK/output/mx6dq/lib/libsdk.a(wm8962.o)
                                                  /home/leon/git/swp-report/iMX6_Platform_SDK/output/mx6dq/lib/libsdk.a(wm8958_dac.o)
                                                  /home/leon/git/swp-report/iMX6_Platform_SDK/output/mx6dq/lib/libsdk.a(sgtl5000.o)
                                                  /home/leon/git/swp-report/iMX6_Platform_SDK/output/mx6dq/lib/libsdk.a(cs42888.o)
                                                  /home/leon/git/swp-report/iMX6_Platform_SDK/output/mx6dq/obds/sabre_ai_rev_a/obj/sdk/drivers/spi/test/spi_nor_numonyx.o
                                                  /home/leon/git/swp-report/iMX6_Platform_SDK/output/mx6dq/obds/sabre_ai_rev_a/obj/sdk/drivers/hdmi/test/hdmi_test.o
                                                  /home/leon/git/swp-report/iMX6_Platform_SDK/output/mx6dq/obds/sabre_ai_rev_a/obj/sdk/drivers/camera/test/csi_test_mode.o
                                                  /home/leon/git/swp-report/iMX6_Platform_SDK/output/mx6dq/obds/sabre_ai_rev_a/obj/apps/obds/src/tests/video_dec_adv7180.o
                                                  /home/leon/git/swp-report/iMX6_Platform_SDK/output/mx6dq/obds/sabre_ai_rev_a/obj/apps/obds/src/tests/video_dec_ARD_MBrst_from_cpu_expander.o
                                                  /home/leon/git/swp-report/iMX6_Platform_SDK/output/mx6dq/obds/sabre_ai_rev_a/obj/apps/obds/src/tests/video_dec_ARD_MB_reset_button.o
                                                  /home/leon/git/swp-report/iMX6_Platform_SDK/output/mx6dq/obds/sabre_ai_rev_a/obj/apps/obds/src/tests/touch_screen_max11801.o
                                                  /home/leon/git/swp-report/iMX6_Platform_SDK/output/mx6dq/obds/sabre_ai_rev_a/obj/apps/obds/src/tests/touch_screen.o
                                                  /home/leon/git/swp-report/iMX6_Platform_SDK/output/mx6dq/obds/sabre_ai_rev_a/obj/apps/obds/src/tests/snvs_srtc_test.o
                                                  /home/leon/git/swp-report/iMX6_Platform_SDK/output/mx6dq/obds/sabre_ai_rev_a/obj/apps/obds/src/tests/mlb_os81050.o
                                                  /home/leon/git/swp-report/iMX6_Platform_SDK/output/mx6dq/obds/sabre_ai_rev_a/obj/apps/obds/src/tests/i2c_device_temp_sensor_emc1046.o
                                                  /home/leon/git/swp-report/iMX6_Platform_SDK/output/mx6dq/obds/sabre_ai_rev_a/obj/apps/obds/src/tests/i2c_device_id_check_p1003_tsc.o
                                                  /home/leon/git/swp-report/iMX6_Platform_SDK/output/mx6dq/obds/sabre_ai_rev_a/obj/apps/obds/src/tests/i2c_device_id_check_mma8451.o
                                                  /home/leon/git/swp-report/iMX6_Platform_SDK/output/mx6dq/obds/sabre_ai_rev_a/obj/apps/obds/src/tests/i2c_check_light_sensor_isl29023.o
                                                  /home/leon/git/swp-report/iMX6_Platform_SDK/output/mx6dq/obds/sabre_ai_rev_a/obj/apps/obds/src/tests/gpio_led.o
                                                  /home/leon/git/swp-report/iMX6_Platform_SDK/output/mx6dq/obds/sabre_ai_rev_a/obj/apps/obds/src/tests/fm_tuner_si476x_test.o
                                                  /home/leon/git/swp-report/iMX6_Platform_SDK/output/mx6dq/obds/sabre_ai_rev_a/obj/apps/obds/src/tests/enet_mx6dldq_test.o
hdd_ident                                         /home/leon/git/swp-report/iMX6_Platform_SDK/output/mx6dq/lib/libsdk.a(sata.o)
hdmi_1080P60_video_output                         /home/leon/git/swp-report/iMX6_Platform_SDK/output/mx6dq/obds/sabre_ai_rev_a/obj/sdk/drivers/hdmi/test/hdmi_test.o
hdmi_720P60_video_output                          /home/leon/git/swp-report/iMX6_Platform_SDK/output/mx6dq/obds/sabre_ai_rev_a/obj/sdk/drivers/hdmi/test/hdmi_test.o
hdmi_720p_init                                    /home/leon/git/swp-report/iMX6_Platform_SDK/output/mx6dq/obds/sabre_ai_rev_a/obj/apps/obds/src/tests/display_test.o
hdmi_audio_mute                                   /home/leon/git/swp-report/iMX6_Platform_SDK/output/mx6dq/lib/libsdk.a(hdmi_tx_audio.o)
                                                  /home/leon/git/swp-report/iMX6_Platform_SDK/output/mx6dq/obds/sabre_ai_rev_a/obj/sdk/drivers/hdmi/test/hdmi_test.o
                                                  /home/leon/git/swp-report/iMX6_Platform_SDK/output/mx6dq/obds/sabre_ai_rev_a/obj/apps/obds/src/tests/display_test.o
hdmi_av_frame_composer                            /home/leon/git/swp-report/iMX6_Platform_SDK/output/mx6dq/lib/libsdk.a(hdmi_tx.o)
                                                  /home/leon/git/swp-report/iMX6_Platform_SDK/output/mx6dq/obds/sabre_ai_rev_a/obj/sdk/drivers/hdmi/test/hdmi_test.o
                                                  /home/leon/git/swp-report/iMX6_Platform_SDK/output/mx6dq/obds/sabre_ai_rev_a/obj/apps/obds/src/tests/display_test.o
hdmi_clock_set                                    /home/leon/git/swp-report/iMX6_Platform_SDK/output/mx6dq/lib/libboard_sabre_ai_rev_a.a(board_hdmi.o)
                                                  /home/leon/git/swp-report/iMX6_Platform_SDK/output/mx6dq/lib/libsdk.a(ips_disp_panel.o)
hdmi_config_force_video                           /home/leon/git/swp-report/iMX6_Platform_SDK/output/mx6dq/lib/libsdk.a(hdmi_tx.o)
hdmi_config_forced_pixels                         /home/leon/git/swp-report/iMX6_Platform_SDK/output/mx6dq/lib/libsdk.a(hdmi_tx.o)
hdmi_config_input_source                          /home/leon/git/swp-report/iMX6_Platform_SDK/output/mx6dq/lib/libsdk.a(hdmi_tx.o)
                                                  /home/leon/git/swp-report/iMX6_Platform_SDK/output/mx6dq/obds/sabre_ai_rev_a/obj/sdk/drivers/hdmi/test/hdmi_test.o
                                                  /home/leon/git/swp-report/iMX6_Platform_SDK/output/mx6dq/obds/sabre_ai_rev_a/obj/apps/obds/src/tests/display_test.o
hdmi_iomux_config                                 /home/leon/git/swp-report/iMX6_Platform_SDK/output/mx6dq/lib/libboard_sabre_ai_rev_a.a(iomux_config.o)
hdmi_pgm_iomux                                    /home/leon/git/swp-report/iMX6_Platform_SDK/output/mx6dq/lib/libboard_sabre_ai_rev_a.a(board_hdmi.o)
                                                  /home/leon/git/swp-report/iMX6_Platform_SDK/output/mx6dq/lib/libsdk.a(ips_disp_panel.o)
hdmi_phy_init                                     /home/leon/git/swp-report/iMX6_Platform_SDK/output/mx6dq/lib/libsdk.a(hdmi_tx_phy.o)
                                                  /home/leon/git/swp-report/iMX6_Platform_SDK/output/mx6dq/obds/sabre_ai_rev_a/obj/sdk/drivers/hdmi/test/hdmi_test.o
                                                  /home/leon/git/swp-report/iMX6_Platform_SDK/output/mx6dq/obds/sabre_ai_rev_a/obj/apps/obds/src/tests/display_test.o
hdmi_phy_int_mask                                 /home/leon/git/swp-report/iMX6_Platform_SDK/output/mx6dq/lib/libsdk.a(hdmi_tx_phy.o)
hdmi_set_video_mode                               /home/leon/git/swp-report/iMX6_Platform_SDK/output/mx6dq/lib/libsdk.a(hdmi_common.o)
                                                  /home/leon/git/swp-report/iMX6_Platform_SDK/output/mx6dq/lib/libsdk.a(hdmi_tx.o)
hdmi_test                                         /home/leon/git/swp-report/iMX6_Platform_SDK/output/mx6dq/obds/sabre_ai_rev_a/obj/sdk/drivers/hdmi/test/hdmi_test.o
hdmi_tx_ISR                                       /home/leon/git/swp-report/iMX6_Platform_SDK/output/mx6dq/obds/sabre_ai_rev_a/obj/sdk/drivers/hdmi/test/hdmi_test.o
hdmi_tx_cec_pgm_iomux                             /home/leon/git/swp-report/iMX6_Platform_SDK/output/mx6dq/lib/libboard_sabre_ai_rev_a.a(board_hdmi.o)
hdmi_tx_ddc_pgm_iomux                             /home/leon/git/swp-report/iMX6_Platform_SDK/output/mx6dq/lib/libboard_sabre_ai_rev_a.a(board_hdmi.o)
hdmi_tx_hdcp_config                               /home/leon/git/swp-report/iMX6_Platform_SDK/output/mx6dq/lib/libsdk.a(hdmi_tx.o)
                                                  /home/leon/git/swp-report/iMX6_Platform_SDK/output/mx6dq/obds/sabre_ai_rev_a/obj/sdk/drivers/hdmi/test/hdmi_test.o
                                                  /home/leon/git/swp-report/iMX6_Platform_SDK/output/mx6dq/obds/sabre_ai_rev_a/obj/apps/obds/src/tests/display_test.o
hdmi_tx_phydtb_pgm_iomux                          /home/leon/git/swp-report/iMX6_Platform_SDK/output/mx6dq/lib/libboard_sabre_ai_rev_a.a(board_hdmi.o)
hdmi_video_csc                                    /home/leon/git/swp-report/iMX6_Platform_SDK/output/mx6dq/lib/libsdk.a(hdmi_tx.o)
                                                  /home/leon/git/swp-report/iMX6_Platform_SDK/output/mx6dq/obds/sabre_ai_rev_a/obj/sdk/drivers/hdmi/test/hdmi_test.o
                                                  /home/leon/git/swp-report/iMX6_Platform_SDK/output/mx6dq/obds/sabre_ai_rev_a/obj/apps/obds/src/tests/display_test.o
hdmi_video_packetize                              /home/leon/git/swp-report/iMX6_Platform_SDK/output/mx6dq/lib/libsdk.a(hdmi_tx.o)
                                                  /home/leon/git/swp-report/iMX6_Platform_SDK/output/mx6dq/obds/sabre_ai_rev_a/obj/sdk/drivers/hdmi/test/hdmi_test.o
                                                  /home/leon/git/swp-report/iMX6_Platform_SDK/output/mx6dq/obds/sabre_ai_rev_a/obj/apps/obds/src/tests/display_test.o
hdmi_video_sample                                 /home/leon/git/swp-report/iMX6_Platform_SDK/output/mx6dq/lib/libsdk.a(hdmi_tx.o)
                                                  /home/leon/git/swp-report/iMX6_Platform_SDK/output/mx6dq/obds/sabre_ai_rev_a/obj/sdk/drivers/hdmi/test/hdmi_test.o
                                                  /home/leon/git/swp-report/iMX6_Platform_SDK/output/mx6dq/obds/sabre_ai_rev_a/obj/apps/obds/src/tests/display_test.o
host_cfg_block                                    /home/leon/git/swp-report/iMX6_Platform_SDK/output/mx6dq/lib/libsdk.a(usdhc_host.o)
                                                  /home/leon/git/swp-report/iMX6_Platform_SDK/output/mx6dq/lib/libsdk.a(usdhc_mmc.o)
                                                  /home/leon/git/swp-report/iMX6_Platform_SDK/output/mx6dq/lib/libsdk.a(usdhc.o)
host_cfg_clock                                    /home/leon/git/swp-report/iMX6_Platform_SDK/output/mx6dq/lib/libsdk.a(usdhc_host.o)
                                                  /home/leon/git/swp-report/iMX6_Platform_SDK/output/mx6dq/lib/libsdk.a(usdhc_sd.o)
                                                  /home/leon/git/swp-report/iMX6_Platform_SDK/output/mx6dq/lib/libsdk.a(usdhc_mmc.o)
                                                  /home/leon/git/swp-report/iMX6_Platform_SDK/output/mx6dq/lib/libsdk.a(usdhc.o)
host_clear_fifo                                   /home/leon/git/swp-report/iMX6_Platform_SDK/output/mx6dq/lib/libsdk.a(usdhc_host.o)
                                                  /home/leon/git/swp-report/iMX6_Platform_SDK/output/mx6dq/lib/libsdk.a(usdhc.o)
host_data_read                                    /home/leon/git/swp-report/iMX6_Platform_SDK/output/mx6dq/lib/libsdk.a(usdhc_host.o)
                                                  /home/leon/git/swp-report/iMX6_Platform_SDK/output/mx6dq/lib/libsdk.a(usdhc_mmc.o)
                                                  /home/leon/git/swp-report/iMX6_Platform_SDK/output/mx6dq/lib/libsdk.a(usdhc.o)
host_data_write                                   /home/leon/git/swp-report/iMX6_Platform_SDK/output/mx6dq/lib/libsdk.a(usdhc_host.o)
                                                  /home/leon/git/swp-report/iMX6_Platform_SDK/output/mx6dq/lib/libsdk.a(usdhc.o)
host_init                                         /home/leon/git/swp-report/iMX6_Platform_SDK/output/mx6dq/lib/libsdk.a(usdhc_host.o)
                                                  /home/leon/git/swp-report/iMX6_Platform_SDK/output/mx6dq/lib/libsdk.a(usdhc.o)
host_init_active                                  /home/leon/git/swp-report/iMX6_Platform_SDK/output/mx6dq/lib/libsdk.a(usdhc_host.o)
                                                  /home/leon/git/swp-report/iMX6_Platform_SDK/output/mx6dq/lib/libsdk.a(usdhc.o)
host_read_response                                /home/leon/git/swp-report/iMX6_Platform_SDK/output/mx6dq/lib/libsdk.a(usdhc_host.o)
                                                  /home/leon/git/swp-report/iMX6_Platform_SDK/output/mx6dq/lib/libsdk.a(usdhc_sd.o)
                                                  /home/leon/git/swp-report/iMX6_Platform_SDK/output/mx6dq/lib/libsdk.a(usdhc_mmc.o)
                                                  /home/leon/git/swp-report/iMX6_Platform_SDK/output/mx6dq/lib/libsdk.a(usdhc.o)
host_reset                                        /home/leon/git/swp-report/iMX6_Platform_SDK/output/mx6dq/lib/libsdk.a(usdhc_host.o)
                                                  /home/leon/git/swp-report/iMX6_Platform_SDK/output/mx6dq/lib/libsdk.a(usdhc.o)
host_send_cmd                                     /home/leon/git/swp-report/iMX6_Platform_SDK/output/mx6dq/lib/libsdk.a(usdhc_host.o)
                                                  /home/leon/git/swp-report/iMX6_Platform_SDK/output/mx6dq/lib/libsdk.a(usdhc_sd.o)
                                                  /home/leon/git/swp-report/iMX6_Platform_SDK/output/mx6dq/lib/libsdk.a(usdhc_mmc.o)
                                                  /home/leon/git/swp-report/iMX6_Platform_SDK/output/mx6dq/lib/libsdk.a(usdhc.o)
host_set_bus_width                                /home/leon/git/swp-report/iMX6_Platform_SDK/output/mx6dq/lib/libsdk.a(usdhc_host.o)
                                                  /home/leon/git/swp-report/iMX6_Platform_SDK/output/mx6dq/lib/libsdk.a(usdhc_sd.o)
                                                  /home/leon/git/swp-report/iMX6_Platform_SDK/output/mx6dq/lib/libsdk.a(usdhc_mmc.o)
host_setup_adma                                   /home/leon/git/swp-report/iMX6_Platform_SDK/output/mx6dq/lib/libsdk.a(usdhc_host.o)
                                                  /home/leon/git/swp-report/iMX6_Platform_SDK/output/mx6dq/lib/libsdk.a(usdhc.o)
i2c1_iomux_config                                 /home/leon/git/swp-report/iMX6_Platform_SDK/output/mx6dq/lib/libboard_sabre_ai_rev_a.a(iomux_config.o)
                                                  /home/leon/git/swp-report/iMX6_Platform_SDK/output/mx6dq/lib/libboard_sabre_ai_rev_a.a(i2c_iomux_config.o)
i2c2_iomux_config                                 /home/leon/git/swp-report/iMX6_Platform_SDK/output/mx6dq/lib/libboard_sabre_ai_rev_a.a(i2c2_iomux_config.o)
                                                  /home/leon/git/swp-report/iMX6_Platform_SDK/output/mx6dq/lib/libboard_sabre_ai_rev_a.a(iomux_config.o)
                                                  /home/leon/git/swp-report/iMX6_Platform_SDK/output/mx6dq/lib/libboard_sabre_ai_rev_a.a(i2c_iomux_config.o)
i2c3_iomux_config                                 /home/leon/git/swp-report/iMX6_Platform_SDK/output/mx6dq/lib/libboard_sabre_ai_rev_a.a(i2c3_iomux_config.o)
                                                  /home/leon/git/swp-report/iMX6_Platform_SDK/output/mx6dq/lib/libboard_sabre_ai_rev_a.a(iomux_config.o)
                                                  /home/leon/git/swp-report/iMX6_Platform_SDK/output/mx6dq/lib/libboard_sabre_ai_rev_a.a(i2c_iomux_config.o)
                                                  /home/leon/git/swp-report/iMX6_Platform_SDK/output/mx6dq/lib/libboard_sabre_ai_rev_a.a(board_io_expanders.o)
i2c_device_check_cs42888                          /home/leon/git/swp-report/iMX6_Platform_SDK/output/mx6dq/obds/sabre_ai_rev_a/obj/apps/obds/src/tests/i2c_device_check_cs42888.o
                                                  /home/leon/git/swp-report/iMX6_Platform_SDK/output/mx6dq/obds/sabre_ai_rev_a/obj/apps/obds/src/obds.o
i2c_device_check_max11801                         /home/leon/git/swp-report/iMX6_Platform_SDK/output/mx6dq/obds/sabre_ai_rev_a/obj/apps/obds/src/tests/touch_screen_max11801.o
i2c_device_check_max11801_AUX                     /home/leon/git/swp-report/iMX6_Platform_SDK/output/mx6dq/obds/sabre_ai_rev_a/obj/apps/obds/src/tests/touch_screen_max11801.o
i2c_device_emc1046_test                           /home/leon/git/swp-report/iMX6_Platform_SDK/output/mx6dq/obds/sabre_ai_rev_a/obj/apps/obds/src/tests/i2c_device_temp_sensor_emc1046.o
i2c_device_id_check_DA9053                        /home/leon/git/swp-report/iMX6_Platform_SDK/output/mx6dq/obds/sabre_ai_rev_a/obj/apps/obds/src/tests/pmic_da9053.o
i2c_device_id_check_MAX17135                      /home/leon/git/swp-report/iMX6_Platform_SDK/output/mx6dq/obds/sabre_ai_rev_a/obj/apps/obds/src/tests/pmic_max17135.o
i2c_device_id_check_MMA8450                       /home/leon/git/swp-report/iMX6_Platform_SDK/output/mx6dq/obds/sabre_ai_rev_a/obj/apps/obds/src/tests/i2c_device_id_check_mma8450.o
i2c_device_id_check_MMA8451                       /home/leon/git/swp-report/iMX6_Platform_SDK/output/mx6dq/obds/sabre_ai_rev_a/obj/apps/obds/src/tests/i2c_device_id_check_mma8451.o
                                                  /home/leon/git/swp-report/iMX6_Platform_SDK/output/mx6dq/obds/sabre_ai_rev_a/obj/apps/obds/src/obds.o
i2c_device_id_check_emc1046                       /home/leon/git/swp-report/iMX6_Platform_SDK/output/mx6dq/obds/sabre_ai_rev_a/obj/apps/obds/src/tests/i2c_device_temp_sensor_emc1046.o
i2c_device_id_check_isl29023                      /home/leon/git/swp-report/iMX6_Platform_SDK/output/mx6dq/obds/sabre_ai_rev_a/obj/apps/obds/src/tests/i2c_check_light_sensor_isl29023.o
                                                  /home/leon/git/swp-report/iMX6_Platform_SDK/output/mx6dq/obds/sabre_ai_rev_a/obj/apps/obds/src/obds.o
i2c_device_id_check_mag3110                       /home/leon/git/swp-report/iMX6_Platform_SDK/output/mx6dq/obds/sabre_ai_rev_a/obj/apps/obds/src/tests/i2c_device_digital_compass_mag3110.o
                                                  /home/leon/git/swp-report/iMX6_Platform_SDK/output/mx6dq/obds/sabre_ai_rev_a/obj/apps/obds/src/obds.o
i2c_device_id_check_mag3112                       /home/leon/git/swp-report/iMX6_Platform_SDK/output/mx6dq/obds/sabre_ai_rev_a/obj/apps/obds/src/tests/i2c_device_digital_compass_mag3112.o
i2c_device_id_check_mc1323                        /home/leon/git/swp-report/iMX6_Platform_SDK/output/mx6dq/obds/sabre_ai_rev_a/obj/apps/obds/src/tests/i2c_device_zigbee_mc1323.o
i2c_device_id_check_p1003                         /home/leon/git/swp-report/iMX6_Platform_SDK/output/mx6dq/obds/sabre_ai_rev_a/obj/apps/obds/src/tests/i2c_device_id_check_p1003_tsc.o
                                                  /home/leon/git/swp-report/iMX6_Platform_SDK/output/mx6dq/obds/sabre_ai_rev_a/obj/apps/obds/src/obds.o
i2c_device_id_check_ppl3115                       /home/leon/git/swp-report/iMX6_Platform_SDK/output/mx6dq/obds/sabre_ai_rev_a/obj/apps/obds/src/tests/i2c_device_barometer_ppl3115.o
i2c_device_mc1323_test                            /home/leon/git/swp-report/iMX6_Platform_SDK/output/mx6dq/obds/sabre_ai_rev_a/obj/apps/obds/src/tests/i2c_device_zigbee_mc1323.o
i2c_device_ppl3115_test                           /home/leon/git/swp-report/iMX6_Platform_SDK/output/mx6dq/obds/sabre_ai_rev_a/obj/apps/obds/src/tests/i2c_device_barometer_ppl3115.o
i2c_get_request_instance                          /home/leon/git/swp-report/iMX6_Platform_SDK/output/mx6dq/lib/libsdk.a(imx_i2c.o)
i2c_init                                          /home/leon/git/swp-report/iMX6_Platform_SDK/output/mx6dq/lib/libsdk.a(imx_i2c.o)
                                                  /home/leon/git/swp-report/iMX6_Platform_SDK/output/mx6dq/lib/libsdk.a(adv7180.o)
                                                  /home/leon/git/swp-report/iMX6_Platform_SDK/output/mx6dq/lib/libsdk.a(smd_sensor.o)
                                                  /home/leon/git/swp-report/iMX6_Platform_SDK/output/mx6dq/lib/libsdk.a(wm8962.o)
                                                  /home/leon/git/swp-report/iMX6_Platform_SDK/output/mx6dq/lib/libsdk.a(wm8958_dac.o)
                                                  /home/leon/git/swp-report/iMX6_Platform_SDK/output/mx6dq/lib/libsdk.a(sgtl5000.o)
                                                  /home/leon/git/swp-report/iMX6_Platform_SDK/output/mx6dq/lib/libsdk.a(cs42888.o)
                                                  /home/leon/git/swp-report/iMX6_Platform_SDK/output/mx6dq/lib/libsdk.a(max7310.o)
                                                  /home/leon/git/swp-report/iMX6_Platform_SDK/output/mx6dq/obds/sabre_ai_rev_a/obj/sdk/common/pmic/pfuse/pf0100.o
                                                  /home/leon/git/swp-report/iMX6_Platform_SDK/output/mx6dq/obds/sabre_ai_rev_a/obj/apps/obds/src/tests/video_dec_adv7180.o
                                                  /home/leon/git/swp-report/iMX6_Platform_SDK/output/mx6dq/obds/sabre_ai_rev_a/obj/apps/obds/src/tests/touch_screen_max11801.o
                                                  /home/leon/git/swp-report/iMX6_Platform_SDK/output/mx6dq/obds/sabre_ai_rev_a/obj/apps/obds/src/tests/touch_screen.o
                                                  /home/leon/git/swp-report/iMX6_Platform_SDK/output/mx6dq/obds/sabre_ai_rev_a/obj/apps/obds/src/tests/pmic_max17135.o
                                                  /home/leon/git/swp-report/iMX6_Platform_SDK/output/mx6dq/obds/sabre_ai_rev_a/obj/apps/obds/src/tests/pmic_lt3589.o
                                                  /home/leon/git/swp-report/iMX6_Platform_SDK/output/mx6dq/obds/sabre_ai_rev_a/obj/apps/obds/src/tests/pmic_da9053.o
                                                  /home/leon/git/swp-report/iMX6_Platform_SDK/output/mx6dq/obds/sabre_ai_rev_a/obj/apps/obds/src/tests/mlb_os81050.o
                                                  /home/leon/git/swp-report/iMX6_Platform_SDK/output/mx6dq/obds/sabre_ai_rev_a/obj/apps/obds/src/tests/i2c_eeprom_at24cxx_test.o
                                                  /home/leon/git/swp-report/iMX6_Platform_SDK/output/mx6dq/obds/sabre_ai_rev_a/obj/apps/obds/src/tests/i2c_device_zigbee_mc1323.o
                                                  /home/leon/git/swp-report/iMX6_Platform_SDK/output/mx6dq/obds/sabre_ai_rev_a/obj/apps/obds/src/tests/i2c_device_temp_sensor_emc1046.o
                                                  /home/leon/git/swp-report/iMX6_Platform_SDK/output/mx6dq/obds/sabre_ai_rev_a/obj/apps/obds/src/tests/i2c_device_id_check_p1003_tsc.o
                                                  /home/leon/git/swp-report/iMX6_Platform_SDK/output/mx6dq/obds/sabre_ai_rev_a/obj/apps/obds/src/tests/i2c_device_id_check_mma8451.o
                                                  /home/leon/git/swp-report/iMX6_Platform_SDK/output/mx6dq/obds/sabre_ai_rev_a/obj/apps/obds/src/tests/i2c_device_id_check_mma8450.o
                                                  /home/leon/git/swp-report/iMX6_Platform_SDK/output/mx6dq/obds/sabre_ai_rev_a/obj/apps/obds/src/tests/i2c_device_digital_compass_mag3112.o
                                                  /home/leon/git/swp-report/iMX6_Platform_SDK/output/mx6dq/obds/sabre_ai_rev_a/obj/apps/obds/src/tests/i2c_device_digital_compass_mag3110.o
                                                  /home/leon/git/swp-report/iMX6_Platform_SDK/output/mx6dq/obds/sabre_ai_rev_a/obj/apps/obds/src/tests/i2c_device_barometer_ppl3115.o
                                                  /home/leon/git/swp-report/iMX6_Platform_SDK/output/mx6dq/obds/sabre_ai_rev_a/obj/apps/obds/src/tests/i2c_check_light_sensor_isl29023.o
                                                  /home/leon/git/swp-report/iMX6_Platform_SDK/output/mx6dq/obds/sabre_ai_rev_a/obj/apps/obds/src/tests/fm_tuner_si476x_test.o
i2c_iomux_config                                  /home/leon/git/swp-report/iMX6_Platform_SDK/output/mx6dq/lib/libboard_sabre_ai_rev_a.a(i2c_iomux_config.o)
                                                  /home/leon/git/swp-report/iMX6_Platform_SDK/output/mx6dq/lib/libsdk.a(imx_i2c.o)
i2c_read                                          /home/leon/git/swp-report/iMX6_Platform_SDK/output/mx6dq/lib/libsdk.a(imx_i2c.o)
                                                  /home/leon/git/swp-report/iMX6_Platform_SDK/output/mx6dq/lib/libsdk.a(sgtl5000.o)
                                                  /home/leon/git/swp-report/iMX6_Platform_SDK/output/mx6dq/lib/libsdk.a(cs42888.o)
                                                  /home/leon/git/swp-report/iMX6_Platform_SDK/output/mx6dq/lib/libsdk.a(max7310.o)
i2c_setup_interrupt                               /home/leon/git/swp-report/iMX6_Platform_SDK/output/mx6dq/lib/libsdk.a(imx_i2c.o)
i2c_write                                         /home/leon/git/swp-report/iMX6_Platform_SDK/output/mx6dq/lib/libsdk.a(imx_i2c.o)
                                                  /home/leon/git/swp-report/iMX6_Platform_SDK/output/mx6dq/lib/libsdk.a(sgtl5000.o)
                                                  /home/leon/git/swp-report/iMX6_Platform_SDK/output/mx6dq/lib/libsdk.a(cs42888.o)
                                                  /home/leon/git/swp-report/iMX6_Platform_SDK/output/mx6dq/lib/libsdk.a(max7310.o)
i2c_xfer                                          /home/leon/git/swp-report/iMX6_Platform_SDK/output/mx6dq/lib/libsdk.a(imx_i2c.o)
                                                  /home/leon/git/swp-report/iMX6_Platform_SDK/output/mx6dq/lib/libsdk.a(adv7180.o)
                                                  /home/leon/git/swp-report/iMX6_Platform_SDK/output/mx6dq/lib/libsdk.a(smd_sensor.o)
                                                  /home/leon/git/swp-report/iMX6_Platform_SDK/output/mx6dq/lib/libsdk.a(wm8962.o)
                                                  /home/leon/git/swp-report/iMX6_Platform_SDK/output/mx6dq/lib/libsdk.a(wm8958_dac.o)
                                                  /home/leon/git/swp-report/iMX6_Platform_SDK/output/mx6dq/obds/sabre_ai_rev_a/obj/sdk/common/pmic/pfuse/pf0100.o
                                                  /home/leon/git/swp-report/iMX6_Platform_SDK/output/mx6dq/obds/sabre_ai_rev_a/obj/apps/obds/src/tests/video_dec_adv7180.o
                                                  /home/leon/git/swp-report/iMX6_Platform_SDK/output/mx6dq/obds/sabre_ai_rev_a/obj/apps/obds/src/tests/touch_screen_max11801.o
                                                  /home/leon/git/swp-report/iMX6_Platform_SDK/output/mx6dq/obds/sabre_ai_rev_a/obj/apps/obds/src/tests/touch_screen.o
                                                  /home/leon/git/swp-report/iMX6_Platform_SDK/output/mx6dq/obds/sabre_ai_rev_a/obj/apps/obds/src/tests/pmic_max17135.o
                                                  /home/leon/git/swp-report/iMX6_Platform_SDK/output/mx6dq/obds/sabre_ai_rev_a/obj/apps/obds/src/tests/pmic_lt3589.o
                                                  /home/leon/git/swp-report/iMX6_Platform_SDK/output/mx6dq/obds/sabre_ai_rev_a/obj/apps/obds/src/tests/pmic_da9053.o
                                                  /home/leon/git/swp-report/iMX6_Platform_SDK/output/mx6dq/obds/sabre_ai_rev_a/obj/apps/obds/src/tests/mlb_os81050.o
                                                  /home/leon/git/swp-report/iMX6_Platform_SDK/output/mx6dq/obds/sabre_ai_rev_a/obj/apps/obds/src/tests/i2c_eeprom_at24cxx_test.o
                                                  /home/leon/git/swp-report/iMX6_Platform_SDK/output/mx6dq/obds/sabre_ai_rev_a/obj/apps/obds/src/tests/i2c_device_zigbee_mc1323.o
                                                  /home/leon/git/swp-report/iMX6_Platform_SDK/output/mx6dq/obds/sabre_ai_rev_a/obj/apps/obds/src/tests/i2c_device_temp_sensor_emc1046.o
                                                  /home/leon/git/swp-report/iMX6_Platform_SDK/output/mx6dq/obds/sabre_ai_rev_a/obj/apps/obds/src/tests/i2c_device_id_check_p1003_tsc.o
                                                  /home/leon/git/swp-report/iMX6_Platform_SDK/output/mx6dq/obds/sabre_ai_rev_a/obj/apps/obds/src/tests/i2c_device_id_check_mma8451.o
                                                  /home/leon/git/swp-report/iMX6_Platform_SDK/output/mx6dq/obds/sabre_ai_rev_a/obj/apps/obds/src/tests/i2c_device_id_check_mma8450.o
                                                  /home/leon/git/swp-report/iMX6_Platform_SDK/output/mx6dq/obds/sabre_ai_rev_a/obj/apps/obds/src/tests/i2c_device_digital_compass_mag3112.o
                                                  /home/leon/git/swp-report/iMX6_Platform_SDK/output/mx6dq/obds/sabre_ai_rev_a/obj/apps/obds/src/tests/i2c_device_digital_compass_mag3110.o
                                                  /home/leon/git/swp-report/iMX6_Platform_SDK/output/mx6dq/obds/sabre_ai_rev_a/obj/apps/obds/src/tests/i2c_device_barometer_ppl3115.o
                                                  /home/leon/git/swp-report/iMX6_Platform_SDK/output/mx6dq/obds/sabre_ai_rev_a/obj/apps/obds/src/tests/i2c_check_light_sensor_isl29023.o
                                                  /home/leon/git/swp-report/iMX6_Platform_SDK/output/mx6dq/obds/sabre_ai_rev_a/obj/apps/obds/src/tests/fm_tuner_si476x_test.o
i2s_audio_test                                    /home/leon/git/swp-report/iMX6_Platform_SDK/output/mx6dq/obds/sabre_ai_rev_a/obj/apps/obds/src/tests/audio_ssi_test.o
ident                                             /home/leon/git/swp-report/iMX6_Platform_SDK/output/mx6dq/lib/libsdk.a(sata.o)
imx_KSZ9021RN_reset                               /home/leon/git/swp-report/iMX6_Platform_SDK/output/mx6dq/lib/libboard_sabre_ai_rev_a.a(board_network.o)
                                                  /home/leon/git/swp-report/iMX6_Platform_SDK/output/mx6dq/obds/sabre_ai_rev_a/obj/apps/obds/src/tests/enet_mx6dldq_test.o
imx_ar8031_iomux                                  /home/leon/git/swp-report/iMX6_Platform_SDK/output/mx6dq/lib/libboard_sabre_ai_rev_a.a(board_network.o)
imx_ar8031_reset                                  /home/leon/git/swp-report/iMX6_Platform_SDK/output/mx6dq/lib/libboard_sabre_ai_rev_a.a(board_network.o)
                                                  /home/leon/git/swp-report/iMX6_Platform_SDK/output/mx6dq/obds/sabre_ai_rev_a/obj/apps/obds/src/tests/enet_mx6dldq_test.o
imx_enet_get_phy_status                           /home/leon/git/swp-report/iMX6_Platform_SDK/output/mx6dq/lib/libsdk.a(enet_drv.o)
imx_enet_init                                     /home/leon/git/swp-report/iMX6_Platform_SDK/output/mx6dq/lib/libsdk.a(enet_drv.o)
                                                  /home/leon/git/swp-report/iMX6_Platform_SDK/output/mx6dq/obds/sabre_ai_rev_a/obj/apps/obds/src/tests/enet_mx6dldq_test.o
imx_enet_iomux                                    /home/leon/git/swp-report/iMX6_Platform_SDK/output/mx6dq/lib/libboard_sabre_ai_rev_a.a(board_network.o)
                                                  /home/leon/git/swp-report/iMX6_Platform_SDK/output/mx6dq/obds/sabre_ai_rev_a/obj/apps/obds/src/tests/enet_mx6dldq_test.o
imx_enet_isolate_phy                              /home/leon/git/swp-report/iMX6_Platform_SDK/output/mx6dq/lib/libsdk.a(enet_drv.o)
imx_enet_mii_read                                 /home/leon/git/swp-report/iMX6_Platform_SDK/output/mx6dq/lib/libsdk.a(enet_drv.o)
imx_enet_mii_type                                 /home/leon/git/swp-report/iMX6_Platform_SDK/output/mx6dq/lib/libsdk.a(enet_drv.o)
                                                  /home/leon/git/swp-report/iMX6_Platform_SDK/output/mx6dq/obds/sabre_ai_rev_a/obj/apps/obds/src/tests/enet_mx6dldq_test.o
imx_enet_mii_write                                /home/leon/git/swp-report/iMX6_Platform_SDK/output/mx6dq/lib/libsdk.a(enet_drv.o)
imx_enet_phy_enable_external_loopback             /home/leon/git/swp-report/iMX6_Platform_SDK/output/mx6dq/lib/libsdk.a(enet_drv.o)
imx_enet_phy_init                                 /home/leon/git/swp-report/iMX6_Platform_SDK/output/mx6dq/lib/libsdk.a(enet_drv.o)
                                                  /home/leon/git/swp-report/iMX6_Platform_SDK/output/mx6dq/obds/sabre_ai_rev_a/obj/apps/obds/src/tests/enet_mx6dldq_test.o
imx_enet_phy_reset                                /home/leon/git/swp-report/iMX6_Platform_SDK/output/mx6dq/lib/libboard_sabre_ai_rev_a.a(board_network.o)
imx_enet_poll                                     /home/leon/git/swp-report/iMX6_Platform_SDK/output/mx6dq/lib/libsdk.a(enet_drv.o)
                                                  /home/leon/git/swp-report/iMX6_Platform_SDK/output/mx6dq/obds/sabre_ai_rev_a/obj/apps/obds/src/tests/enet_mx6dldq_test.o
imx_enet_recv                                     /home/leon/git/swp-report/iMX6_Platform_SDK/output/mx6dq/lib/libsdk.a(enet_drv.o)
                                                  /home/leon/git/swp-report/iMX6_Platform_SDK/output/mx6dq/obds/sabre_ai_rev_a/obj/apps/obds/src/tests/enet_mx6dldq_test.o
imx_enet_send                                     /home/leon/git/swp-report/iMX6_Platform_SDK/output/mx6dq/lib/libsdk.a(enet_drv.o)
                                                  /home/leon/git/swp-report/iMX6_Platform_SDK/output/mx6dq/obds/sabre_ai_rev_a/obj/apps/obds/src/tests/enet_mx6dldq_test.o
imx_enet_start                                    /home/leon/git/swp-report/iMX6_Platform_SDK/output/mx6dq/lib/libsdk.a(enet_drv.o)
                                                  /home/leon/git/swp-report/iMX6_Platform_SDK/output/mx6dq/obds/sabre_ai_rev_a/obj/apps/obds/src/tests/enet_mx6dldq_test.o
imx_enet_stop                                     /home/leon/git/swp-report/iMX6_Platform_SDK/output/mx6dq/lib/libsdk.a(enet_drv.o)
                                                  /home/leon/git/swp-report/iMX6_Platform_SDK/output/mx6dq/obds/sabre_ai_rev_a/obj/apps/obds/src/tests/enet_mx6dldq_test.o
imx_enet_unisolate_phy                            /home/leon/git/swp-report/iMX6_Platform_SDK/output/mx6dq/lib/libsdk.a(enet_drv.o)
imx_esai_1                                        /home/leon/git/swp-report/iMX6_Platform_SDK/output/mx6dq/lib/libsdk.a(imx_esai.o)
                                                  /home/leon/git/swp-report/iMX6_Platform_SDK/output/mx6dq/obds/sabre_ai_rev_a/obj/sdk/drivers/audio/src/snd_card.o
imx_spdif                                         /home/leon/git/swp-report/iMX6_Platform_SDK/output/mx6dq/lib/libsdk.a(imx_spdif.o)
                                                  /home/leon/git/swp-report/iMX6_Platform_SDK/output/mx6dq/obds/sabre_ai_rev_a/obj/sdk/drivers/audio/src/snd_card.o
imx_ssi_1                                         /home/leon/git/swp-report/iMX6_Platform_SDK/output/mx6dq/lib/libsdk.a(imx-ssi.o)
imx_ssi_2                                         /home/leon/git/swp-report/iMX6_Platform_SDK/output/mx6dq/lib/libsdk.a(imx-ssi.o)
                                                  /home/leon/git/swp-report/iMX6_Platform_SDK/output/mx6dq/obds/sabre_ai_rev_a/obj/sdk/drivers/audio/src/snd_card.o
imx_ssi_3                                         /home/leon/git/swp-report/iMX6_Platform_SDK/output/mx6dq/lib/libsdk.a(imx-ssi.o)
init_android_buttons                              /home/leon/git/swp-report/iMX6_Platform_SDK/output/mx6dq/obds/sabre_ai_rev_a/obj/apps/obds/src/tests/android_buttons_test.o
init_dma_data                                     /home/leon/git/swp-report/iMX6_Platform_SDK/output/mx6dq/obds/sabre_ai_rev_a/obj/sdk/drivers/hdmi/test/init_dma_data.o
                                                  /home/leon/git/swp-report/iMX6_Platform_SDK/output/mx6dq/obds/sabre_ai_rev_a/obj/sdk/drivers/hdmi/test/hdmi_test.o
init_hdmi_interrupt                               /home/leon/git/swp-report/iMX6_Platform_SDK/output/mx6dq/obds/sabre_ai_rev_a/obj/sdk/drivers/hdmi/test/hdmi_test.o
input_dcd                                         /home/leon/git/swp-report/iMX6_Platform_SDK/output/mx6dq/lib/libboard_sabre_ai_rev_a.a(dcd.o)
input_dcd_hdr                                     /home/leon/git/swp-report/iMX6_Platform_SDK/output/mx6dq/lib/libboard_sabre_ai_rev_a.a(dcd.o)
                                                  /home/leon/git/swp-report/iMX6_Platform_SDK/output/mx6dq/obds/sabre_ai_rev_a/obj/apps/common/ivt.o
input_dcd_wrt_cmd                                 /home/leon/git/swp-report/iMX6_Platform_SDK/output/mx6dq/lib/libboard_sabre_ai_rev_a.a(dcd.o)
input_ivt                                         /home/leon/git/swp-report/iMX6_Platform_SDK/output/mx6dq/obds/sabre_ai_rev_a/obj/apps/common/ivt.o
instance                                          /home/leon/git/swp-report/iMX6_Platform_SDK/output/mx6dq/obds/sabre_ai_rev_a/obj/apps/obds/src/tests/mmcsd_test.o
iomux_config                                      /home/leon/git/swp-report/iMX6_Platform_SDK/output/mx6dq/lib/libboard_sabre_ai_rev_a.a(iomux_config.o)
ips_deinterlace_proc                              /home/leon/git/swp-report/iMX6_Platform_SDK/output/mx6dq/lib/libsdk.a(ipu_vdi.o)
                                                  /home/leon/git/swp-report/iMX6_Platform_SDK/output/mx6dq/lib/libsdk.a(ipu_common.o)
ips_display_test                                  /home/leon/git/swp-report/iMX6_Platform_SDK/output/mx6dq/obds/sabre_ai_rev_a/obj/sdk/drivers/ipu/test/ips_display.o
ips_ext_hdmi_transmitter_1080P60_stream           /home/leon/git/swp-report/iMX6_Platform_SDK/output/mx6dq/obds/sabre_ai_rev_a/obj/sdk/drivers/ipu/test/ips_display.o
ips_hannstar_xga_yuv_stream                       /home/leon/git/swp-report/iMX6_Platform_SDK/output/mx6dq/obds/sabre_ai_rev_a/obj/sdk/drivers/ipu/test/ips_display.o
ips_hdmi_1080P60_stream                           /home/leon/git/swp-report/iMX6_Platform_SDK/output/mx6dq/obds/sabre_ai_rev_a/obj/sdk/drivers/ipu/test/ips_display.o
                                                  /home/leon/git/swp-report/iMX6_Platform_SDK/output/mx6dq/obds/sabre_ai_rev_a/obj/sdk/drivers/hdmi/test/hdmi_test.o
ips_hdmi_720P60_stream                            /home/leon/git/swp-report/iMX6_Platform_SDK/output/mx6dq/obds/sabre_ai_rev_a/obj/sdk/drivers/ipu/test/ips_display.o
                                                  /home/leon/git/swp-report/iMX6_Platform_SDK/output/mx6dq/obds/sabre_ai_rev_a/obj/sdk/drivers/hdmi/test/hdmi_test.o
ips_hdmi_stream                                   /home/leon/git/swp-report/iMX6_Platform_SDK/output/mx6dq/obds/sabre_ai_rev_a/obj/sdk/drivers/ipu/test/ips_display.o
                                                  /home/leon/git/swp-report/iMX6_Platform_SDK/output/mx6dq/obds/sabre_ai_rev_a/obj/sdk/drivers/hdmi/test/hdmi_test.o
ips_mipi_wvga_rgb_stream                          /home/leon/git/swp-report/iMX6_Platform_SDK/output/mx6dq/obds/sabre_ai_rev_a/obj/sdk/drivers/ipu/test/ips_display.o
ipu1_ch0_eobnd_isr                                /home/leon/git/swp-report/iMX6_Platform_SDK/output/mx6dq/lib/libsdk.a(ipu_common.o)
ipu1_iomux_config                                 /home/leon/git/swp-report/iMX6_Platform_SDK/output/mx6dq/lib/libboard_sabre_ai_rev_a.a(ipu1_iomux_config.o)
                                                  /home/leon/git/swp-report/iMX6_Platform_SDK/output/mx6dq/lib/libboard_sabre_ai_rev_a.a(ipu_iomux_config.o)
                                                  /home/leon/git/swp-report/iMX6_Platform_SDK/output/mx6dq/lib/libboard_sabre_ai_rev_a.a(iomux_config.o)
                                                  /home/leon/git/swp-report/iMX6_Platform_SDK/output/mx6dq/lib/libboard_sabre_ai_rev_a.a(board_hdmi.o)
                                                  /home/leon/git/swp-report/iMX6_Platform_SDK/output/mx6dq/lib/libsdk.a(ips_disp_panel.o)
                                                  /home/leon/git/swp-report/iMX6_Platform_SDK/output/mx6dq/obds/sabre_ai_rev_a/obj/sdk/drivers/camera/test/sensor_capture.o
                                                  /home/leon/git/swp-report/iMX6_Platform_SDK/output/mx6dq/obds/sabre_ai_rev_a/obj/sdk/drivers/camera/test/csi_test_mode.o
                                                  /home/leon/git/swp-report/iMX6_Platform_SDK/output/mx6dq/obds/sabre_ai_rev_a/obj/sdk/drivers/camera/test/adv7180_capture.o
ipu2_iomux_config                                 /home/leon/git/swp-report/iMX6_Platform_SDK/output/mx6dq/lib/libboard_sabre_ai_rev_a.a(iomux_config.o)
                                                  /home/leon/git/swp-report/iMX6_Platform_SDK/output/mx6dq/lib/libboard_sabre_ai_rev_a.a(ipu_iomux_config.o)
ipu_capture_disp_link                             /home/leon/git/swp-report/iMX6_Platform_SDK/output/mx6dq/lib/libsdk.a(ipu_csi.o)
                                                  /home/leon/git/swp-report/iMX6_Platform_SDK/output/mx6dq/lib/libsdk.a(ipu_common.o)
ipu_capture_setup                                 /home/leon/git/swp-report/iMX6_Platform_SDK/output/mx6dq/lib/libsdk.a(ipu_common.o)
                                                  /home/leon/git/swp-report/iMX6_Platform_SDK/output/mx6dq/obds/sabre_ai_rev_a/obj/sdk/drivers/camera/test/sensor_capture.o
                                                  /home/leon/git/swp-report/iMX6_Platform_SDK/output/mx6dq/obds/sabre_ai_rev_a/obj/sdk/drivers/camera/test/csi_test_mode.o
                                                  /home/leon/git/swp-report/iMX6_Platform_SDK/output/mx6dq/obds/sabre_ai_rev_a/obj/sdk/drivers/camera/test/adv7180_capture.o
ipu_capture_streamoff                             /home/leon/git/swp-report/iMX6_Platform_SDK/output/mx6dq/lib/libsdk.a(ipu_common.o)
                                                  /home/leon/git/swp-report/iMX6_Platform_SDK/output/mx6dq/obds/sabre_ai_rev_a/obj/sdk/drivers/camera/test/sensor_capture.o
                                                  /home/leon/git/swp-report/iMX6_Platform_SDK/output/mx6dq/obds/sabre_ai_rev_a/obj/sdk/drivers/camera/test/csi_test_mode.o
ipu_ch0_eobnd_interrupt_register                  /home/leon/git/swp-report/iMX6_Platform_SDK/output/mx6dq/lib/libsdk.a(ipu_common.o)
ipu_channel_buf_not_ready                         /home/leon/git/swp-report/iMX6_Platform_SDK/output/mx6dq/lib/libsdk.a(ipu_idmac.o)
ipu_channel_buf_ready                             /home/leon/git/swp-report/iMX6_Platform_SDK/output/mx6dq/lib/libsdk.a(ipu_idmac.o)
                                                  /home/leon/git/swp-report/iMX6_Platform_SDK/output/mx6dq/lib/libsdk.a(ipu_vdi.o)
                                                  /home/leon/git/swp-report/iMX6_Platform_SDK/output/mx6dq/lib/libsdk.a(ipu_common.o)
ipu_cpmem_mod_field                               /home/leon/git/swp-report/iMX6_Platform_SDK/output/mx6dq/lib/libsdk.a(ipu_idmac.o)
                                                  /home/leon/git/swp-report/iMX6_Platform_SDK/output/mx6dq/obds/sabre_ai_rev_a/obj/sdk/drivers/ipu/test/ips_display.o
ipu_cpmem_read_field                              /home/leon/git/swp-report/iMX6_Platform_SDK/output/mx6dq/lib/libsdk.a(ipu_idmac.o)
ipu_cpmem_set_field                               /home/leon/git/swp-report/iMX6_Platform_SDK/output/mx6dq/lib/libsdk.a(ipu_idmac.o)
                                                  /home/leon/git/swp-report/iMX6_Platform_SDK/output/mx6dq/lib/libsdk.a(ipu_common.o)
ipu_csi_config                                    /home/leon/git/swp-report/iMX6_Platform_SDK/output/mx6dq/lib/libsdk.a(ipu_csi.o)
                                                  /home/leon/git/swp-report/iMX6_Platform_SDK/output/mx6dq/lib/libsdk.a(ipu_common.o)
ipu_csi_test_mode_color                           /home/leon/git/swp-report/iMX6_Platform_SDK/output/mx6dq/lib/libsdk.a(ipu_csi.o)
                                                  /home/leon/git/swp-report/iMX6_Platform_SDK/output/mx6dq/obds/sabre_ai_rev_a/obj/sdk/drivers/camera/test/csi_test_mode.o
ipu_dc_config                                     /home/leon/git/swp-report/iMX6_Platform_SDK/output/mx6dq/lib/libsdk.a(ipu_dc.o)
                                                  /home/leon/git/swp-report/iMX6_Platform_SDK/output/mx6dq/lib/libsdk.a(ipu_common.o)
ipu_dc_display_config                             /home/leon/git/swp-report/iMX6_Platform_SDK/output/mx6dq/lib/libsdk.a(ipu_dc.o)
ipu_dc_map                                        /home/leon/git/swp-report/iMX6_Platform_SDK/output/mx6dq/lib/libsdk.a(ipu_dc.o)
ipu_dc_microcode_config                           /home/leon/git/swp-report/iMX6_Platform_SDK/output/mx6dq/lib/libsdk.a(ipu_dc.o)
ipu_dc_microcode_event                            /home/leon/git/swp-report/iMX6_Platform_SDK/output/mx6dq/lib/libsdk.a(ipu_dc.o)
ipu_dc_write_channel_config                       /home/leon/git/swp-report/iMX6_Platform_SDK/output/mx6dq/lib/libsdk.a(ipu_dc.o)
ipu_deinterlace_3_fields                          /home/leon/git/swp-report/iMX6_Platform_SDK/output/mx6dq/lib/libsdk.a(ipu_vdi.o)
ipu_deinterlace_idmac_config                      /home/leon/git/swp-report/iMX6_Platform_SDK/output/mx6dq/lib/libsdk.a(ipu_idmac.o)
                                                  /home/leon/git/swp-report/iMX6_Platform_SDK/output/mx6dq/lib/libsdk.a(ipu_vdi.o)
ipu_di_bsclk_gen                                  /home/leon/git/swp-report/iMX6_Platform_SDK/output/mx6dq/lib/libsdk.a(ipu_di.o)
ipu_di_config                                     /home/leon/git/swp-report/iMX6_Platform_SDK/output/mx6dq/lib/libsdk.a(ipu_di.o)
                                                  /home/leon/git/swp-report/iMX6_Platform_SDK/output/mx6dq/lib/libsdk.a(ipu_common.o)
ipu_di_interface_set                              /home/leon/git/swp-report/iMX6_Platform_SDK/output/mx6dq/lib/libsdk.a(ipu_di.o)
ipu_di_pointer_config                             /home/leon/git/swp-report/iMX6_Platform_SDK/output/mx6dq/lib/libsdk.a(ipu_di.o)
ipu_di_screen_set                                 /home/leon/git/swp-report/iMX6_Platform_SDK/output/mx6dq/lib/libsdk.a(ipu_di.o)
ipu_di_sync_config                                /home/leon/git/swp-report/iMX6_Platform_SDK/output/mx6dq/lib/libsdk.a(ipu_di.o)
ipu_di_waveform_config                            /home/leon/git/swp-report/iMX6_Platform_SDK/output/mx6dq/lib/libsdk.a(ipu_di.o)
ipu_disable_csi                                   /home/leon/git/swp-report/iMX6_Platform_SDK/output/mx6dq/lib/libsdk.a(ipu_csi.o)
                                                  /home/leon/git/swp-report/iMX6_Platform_SDK/output/mx6dq/lib/libsdk.a(ipu_common.o)
ipu_disable_display                               /home/leon/git/swp-report/iMX6_Platform_SDK/output/mx6dq/lib/libsdk.a(ipu_common.o)
ipu_disable_smfc                                  /home/leon/git/swp-report/iMX6_Platform_SDK/output/mx6dq/lib/libsdk.a(ipu_csi.o)
                                                  /home/leon/git/swp-report/iMX6_Platform_SDK/output/mx6dq/lib/libsdk.a(ipu_common.o)
ipu_disp_bg_idmac_config                          /home/leon/git/swp-report/iMX6_Platform_SDK/output/mx6dq/lib/libsdk.a(ipu_idmac.o)
                                                  /home/leon/git/swp-report/iMX6_Platform_SDK/output/mx6dq/lib/libsdk.a(ipu_common.o)
ipu_disp_fg_idmac_config                          /home/leon/git/swp-report/iMX6_Platform_SDK/output/mx6dq/lib/libsdk.a(ipu_idmac.o)
                                                  /home/leon/git/swp-report/iMX6_Platform_SDK/output/mx6dq/lib/libsdk.a(ipu_common.o)
ipu_display_panel                                 /home/leon/git/swp-report/iMX6_Platform_SDK/output/mx6dq/obds/sabre_ai_rev_a/obj/apps/obds/src/tests/display_test.o
                                                  /home/leon/git/swp-report/iMX6_Platform_SDK/output/mx6dq/obds/sabre_ai_rev_a/obj/apps/obds/src/obds.o
ipu_display_setup                                 /home/leon/git/swp-report/iMX6_Platform_SDK/output/mx6dq/lib/libsdk.a(ipu_common.o)
                                                  /home/leon/git/swp-report/iMX6_Platform_SDK/output/mx6dq/obds/sabre_ai_rev_a/obj/sdk/drivers/ipu/test/ips_display.o
                                                  /home/leon/git/swp-report/iMX6_Platform_SDK/output/mx6dq/obds/sabre_ai_rev_a/obj/apps/obds/src/tests/display_test.o
ipu_display_test_main                             /home/leon/git/swp-report/iMX6_Platform_SDK/output/mx6dq/obds/sabre_ai_rev_a/obj/apps/obds/src/tests/display_test.o
                                                  /home/leon/git/swp-report/iMX6_Platform_SDK/output/mx6dq/obds/sabre_ai_rev_a/obj/apps/obds/src/obds.o
ipu_dma_update_buffer                             /home/leon/git/swp-report/iMX6_Platform_SDK/output/mx6dq/lib/libsdk.a(ipu_idmac.o)
ipu_dmfc_alloc                                    /home/leon/git/swp-report/iMX6_Platform_SDK/output/mx6dq/lib/libsdk.a(ipu_dmfc.o)
                                                  /home/leon/git/swp-report/iMX6_Platform_SDK/output/mx6dq/obds/sabre_ai_rev_a/obj/sdk/drivers/ipu/test/ips_display.o
ipu_dmfc_config                                   /home/leon/git/swp-report/iMX6_Platform_SDK/output/mx6dq/lib/libsdk.a(ipu_dmfc.o)
                                                  /home/leon/git/swp-report/iMX6_Platform_SDK/output/mx6dq/lib/libsdk.a(ipu_common.o)
ipu_dp_config                                     /home/leon/git/swp-report/iMX6_Platform_SDK/output/mx6dq/lib/libsdk.a(ipu_dp.o)
                                                  /home/leon/git/swp-report/iMX6_Platform_SDK/output/mx6dq/lib/libsdk.a(ipu_common.o)
ipu_dp_csc_config                                 /home/leon/git/swp-report/iMX6_Platform_SDK/output/mx6dq/lib/libsdk.a(ipu_dp.o)
ipu_dp_fg_config                                  /home/leon/git/swp-report/iMX6_Platform_SDK/output/mx6dq/lib/libsdk.a(ipu_dp.o)
ipu_dual_display_setup                            /home/leon/git/swp-report/iMX6_Platform_SDK/output/mx6dq/lib/libsdk.a(ipu_common.o)
ipu_enable_display                                /home/leon/git/swp-report/iMX6_Platform_SDK/output/mx6dq/lib/libsdk.a(ipu_common.o)
                                                  /home/leon/git/swp-report/iMX6_Platform_SDK/output/mx6dq/obds/sabre_ai_rev_a/obj/sdk/drivers/ipu/test/ips_display.o
                                                  /home/leon/git/swp-report/iMX6_Platform_SDK/output/mx6dq/obds/sabre_ai_rev_a/obj/sdk/drivers/camera/test/sensor_capture.o
                                                  /home/leon/git/swp-report/iMX6_Platform_SDK/output/mx6dq/obds/sabre_ai_rev_a/obj/sdk/drivers/camera/test/csi_test_mode.o
                                                  /home/leon/git/swp-report/iMX6_Platform_SDK/output/mx6dq/obds/sabre_ai_rev_a/obj/sdk/drivers/camera/test/adv7180_capture.o
                                                  /home/leon/git/swp-report/iMX6_Platform_SDK/output/mx6dq/obds/sabre_ai_rev_a/obj/apps/obds/src/tests/display_test.o
ipu_general_idmac_config                          /home/leon/git/swp-report/iMX6_Platform_SDK/output/mx6dq/lib/libsdk.a(ipu_idmac.o)
                                                  /home/leon/git/swp-report/iMX6_Platform_SDK/output/mx6dq/lib/libsdk.a(ipu_common.o)
ipu_hsp_clk_config                                /home/leon/git/swp-report/iMX6_Platform_SDK/output/mx6dq/lib/libsdk.a(ccm_pll.o)
ipu_ic_calc_resize_coeffs                         /home/leon/git/swp-report/iMX6_Platform_SDK/output/mx6dq/lib/libsdk.a(ipu_ic.o)
ipu_ic_combine_config                             /home/leon/git/swp-report/iMX6_Platform_SDK/output/mx6dq/lib/libsdk.a(ipu_ic.o)
ipu_ic_config_resize_rate                         /home/leon/git/swp-report/iMX6_Platform_SDK/output/mx6dq/lib/libsdk.a(ipu_ic.o)
ipu_ic_csc_config                                 /home/leon/git/swp-report/iMX6_Platform_SDK/output/mx6dq/lib/libsdk.a(ipu_ic.o)
ipu_ic_deinterlace_config                         /home/leon/git/swp-report/iMX6_Platform_SDK/output/mx6dq/lib/libsdk.a(ipu_ic.o)
                                                  /home/leon/git/swp-report/iMX6_Platform_SDK/output/mx6dq/lib/libsdk.a(ipu_vdi.o)
ipu_ic_enable                                     /home/leon/git/swp-report/iMX6_Platform_SDK/output/mx6dq/lib/libsdk.a(ipu_ic.o)
                                                  /home/leon/git/swp-report/iMX6_Platform_SDK/output/mx6dq/lib/libsdk.a(ipu_vdi.o)
ipu_ic_resize_config                              /home/leon/git/swp-report/iMX6_Platform_SDK/output/mx6dq/lib/libsdk.a(ipu_ic.o)
ipu_ic_rotation_config                            /home/leon/git/swp-report/iMX6_Platform_SDK/output/mx6dq/lib/libsdk.a(ipu_ic.o)
ipu_ic_task_enable                                /home/leon/git/swp-report/iMX6_Platform_SDK/output/mx6dq/lib/libsdk.a(ipu_ic.o)
                                                  /home/leon/git/swp-report/iMX6_Platform_SDK/output/mx6dq/lib/libsdk.a(ipu_vdi.o)
ipu_idma_pixel_format_config                      /home/leon/git/swp-report/iMX6_Platform_SDK/output/mx6dq/lib/libsdk.a(ipu_idmac.o)
ipu_idmac_chan_cur_buff                           /home/leon/git/swp-report/iMX6_Platform_SDK/output/mx6dq/lib/libsdk.a(ipu_idmac.o)
ipu_idmac_channel_busy                            /home/leon/git/swp-report/iMX6_Platform_SDK/output/mx6dq/lib/libsdk.a(ipu_idmac.o)
                                                  /home/leon/git/swp-report/iMX6_Platform_SDK/output/mx6dq/lib/libsdk.a(ipu_vdi.o)
ipu_idmac_channel_enable                          /home/leon/git/swp-report/iMX6_Platform_SDK/output/mx6dq/lib/libsdk.a(ipu_idmac.o)
                                                  /home/leon/git/swp-report/iMX6_Platform_SDK/output/mx6dq/lib/libsdk.a(ipu_common.o)
ipu_idmac_channel_mode_sel                        /home/leon/git/swp-report/iMX6_Platform_SDK/output/mx6dq/lib/libsdk.a(ipu_idmac.o)
ipu_iomux_config                                  /home/leon/git/swp-report/iMX6_Platform_SDK/output/mx6dq/lib/libboard_sabre_ai_rev_a.a(ipu_iomux_config.o)
                                                  /home/leon/git/swp-report/iMX6_Platform_SDK/output/mx6dq/obds/sabre_ai_rev_a/obj/apps/obds/src/tests/display_test.o
ipu_mipi_csi2_setup                               /home/leon/git/swp-report/iMX6_Platform_SDK/output/mx6dq/lib/libsdk.a(ipu_common.o)
ipu_read                                          /home/leon/git/swp-report/iMX6_Platform_SDK/output/mx6dq/lib/libsdk.a(ipu_common.o)
                                                  /home/leon/git/swp-report/iMX6_Platform_SDK/output/mx6dq/lib/libsdk.a(ipu_vdi.o)
ipu_resize_idmac_config                           /home/leon/git/swp-report/iMX6_Platform_SDK/output/mx6dq/lib/libsdk.a(ipu_idmac.o)
ipu_rotate_idmac_config                           /home/leon/git/swp-report/iMX6_Platform_SDK/output/mx6dq/lib/libsdk.a(ipu_idmac.o)
ipu_smfc_fifo_allocate                            /home/leon/git/swp-report/iMX6_Platform_SDK/output/mx6dq/lib/libsdk.a(ipu_csi.o)
                                                  /home/leon/git/swp-report/iMX6_Platform_SDK/output/mx6dq/lib/libsdk.a(ipu_common.o)
ipu_sw_reset                                      /home/leon/git/swp-report/iMX6_Platform_SDK/output/mx6dq/lib/libsdk.a(ipu_common.o)
                                                  /home/leon/git/swp-report/iMX6_Platform_SDK/output/mx6dq/obds/sabre_ai_rev_a/obj/sdk/drivers/ipu/test/ips_display.o
                                                  /home/leon/git/swp-report/iMX6_Platform_SDK/output/mx6dq/obds/sabre_ai_rev_a/obj/sdk/drivers/camera/test/sensor_capture.o
                                                  /home/leon/git/swp-report/iMX6_Platform_SDK/output/mx6dq/obds/sabre_ai_rev_a/obj/sdk/drivers/camera/test/csi_test_mode.o
                                                  /home/leon/git/swp-report/iMX6_Platform_SDK/output/mx6dq/obds/sabre_ai_rev_a/obj/sdk/drivers/camera/test/adv7180_capture.o
                                                  /home/leon/git/swp-report/iMX6_Platform_SDK/output/mx6dq/obds/sabre_ai_rev_a/obj/apps/obds/src/tests/display_test.o
ipu_vdi_init                                      /home/leon/git/swp-report/iMX6_Platform_SDK/output/mx6dq/lib/libsdk.a(ipu_vdi.o)
ipu_vdi_set_motion                                /home/leon/git/swp-report/iMX6_Platform_SDK/output/mx6dq/lib/libsdk.a(ipu_vdi.o)
ipu_vdi_set_top_field_man                         /home/leon/git/swp-report/iMX6_Platform_SDK/output/mx6dq/lib/libsdk.a(ipu_vdi.o)
ipu_vdi_uninit                                    /home/leon/git/swp-report/iMX6_Platform_SDK/output/mx6dq/lib/libsdk.a(ipu_vdi.o)
ipu_write                                         /home/leon/git/swp-report/iMX6_Platform_SDK/output/mx6dq/lib/libsdk.a(ipu_common.o)
                                                  /home/leon/git/swp-report/iMX6_Platform_SDK/output/mx6dq/lib/libsdk.a(ipu_vdi.o)
ipu_write_field                                   /home/leon/git/swp-report/iMX6_Platform_SDK/output/mx6dq/lib/libsdk.a(ipu_common.o)
                                                  /home/leon/git/swp-report/iMX6_Platform_SDK/output/mx6dq/lib/libsdk.a(ipu_ic.o)
                                                  /home/leon/git/swp-report/iMX6_Platform_SDK/output/mx6dq/lib/libsdk.a(ipu_vdi.o)
                                                  /home/leon/git/swp-report/iMX6_Platform_SDK/output/mx6dq/lib/libsdk.a(ipu_idmac.o)
                                                  /home/leon/git/swp-report/iMX6_Platform_SDK/output/mx6dq/lib/libsdk.a(ipu_dp.o)
                                                  /home/leon/git/swp-report/iMX6_Platform_SDK/output/mx6dq/lib/libsdk.a(ipu_dmfc.o)
                                                  /home/leon/git/swp-report/iMX6_Platform_SDK/output/mx6dq/lib/libsdk.a(ipu_di.o)
                                                  /home/leon/git/swp-report/iMX6_Platform_SDK/output/mx6dq/lib/libsdk.a(ipu_dc.o)
                                                  /home/leon/git/swp-report/iMX6_Platform_SDK/output/mx6dq/lib/libsdk.a(ipu_csi.o)
isColorSpaceConversion                            /home/leon/git/swp-report/iMX6_Platform_SDK/output/mx6dq/lib/libsdk.a(hdmi_common.o)
                                                  /home/leon/git/swp-report/iMX6_Platform_SDK/output/mx6dq/lib/libsdk.a(hdmi_tx.o)
isColorSpaceDecimation                            /home/leon/git/swp-report/iMX6_Platform_SDK/output/mx6dq/lib/libsdk.a(hdmi_common.o)
                                                  /home/leon/git/swp-report/iMX6_Platform_SDK/output/mx6dq/lib/libsdk.a(hdmi_tx.o)
isColorSpaceInterpolation                         /home/leon/git/swp-report/iMX6_Platform_SDK/output/mx6dq/lib/libsdk.a(hdmi_common.o)
                                                  /home/leon/git/swp-report/iMX6_Platform_SDK/output/mx6dq/lib/libsdk.a(hdmi_tx.o)
isPixelRepetition                                 /home/leon/git/swp-report/iMX6_Platform_SDK/output/mx6dq/lib/libsdk.a(hdmi_common.o)
is_color_supported                                /home/leon/git/swp-report/iMX6_Platform_SDK/output/mx6dq/lib/libsdk.a(text_color.o)
is_input_char                                     /home/leon/git/swp-report/iMX6_Platform_SDK/output/mx6dq/lib/libsdk.a(system_util.o)
                                                  /home/leon/git/swp-report/iMX6_Platform_SDK/output/mx6dq/obds/sabre_ai_rev_a/obj/sdk/drivers/camera/test/sensor_capture.o
                                                  /home/leon/git/swp-report/iMX6_Platform_SDK/output/mx6dq/obds/sabre_ai_rev_a/obj/apps/obds/src/tests/program_mac_address.o
                                                  /home/leon/git/swp-report/iMX6_Platform_SDK/output/mx6dq/obds/sabre_ai_rev_a/obj/apps/obds/src/tests/program_board_id.o
                                                  /home/leon/git/swp-report/iMX6_Platform_SDK/output/mx6dq/obds/sabre_ai_rev_a/obj/apps/obds/src/tests/pmic_da9053.o
                                                  /home/leon/git/swp-report/iMX6_Platform_SDK/output/mx6dq/obds/sabre_ai_rev_a/obj/apps/obds/src/tests/mmcsd_test.o
                                                  /home/leon/git/swp-report/iMX6_Platform_SDK/output/mx6dq/obds/sabre_ai_rev_a/obj/apps/obds/src/tests/mlb_os81050.o
                                                  /home/leon/git/swp-report/iMX6_Platform_SDK/output/mx6dq/obds/sabre_ai_rev_a/obj/apps/obds/src/tests/imx_spi_nor_test.o
                                                  /home/leon/git/swp-report/iMX6_Platform_SDK/output/mx6dq/obds/sabre_ai_rev_a/obj/apps/obds/src/tests/i2c_eeprom_at24cxx_test.o
                                                  /home/leon/git/swp-report/iMX6_Platform_SDK/output/mx6dq/obds/sabre_ai_rev_a/obj/apps/obds/src/tests/gps_test.o
                                                  /home/leon/git/swp-report/iMX6_Platform_SDK/output/mx6dq/obds/sabre_ai_rev_a/obj/apps/obds/src/tests/fm_tuner_si476x_test.o
                                                  /home/leon/git/swp-report/iMX6_Platform_SDK/output/mx6dq/obds/sabre_ai_rev_a/obj/apps/obds/src/tests/flexcan_test.o
                                                  /home/leon/git/swp-report/iMX6_Platform_SDK/output/mx6dq/obds/sabre_ai_rev_a/obj/apps/obds/src/tests/enet_mx6dldq_test.o
                                                  /home/leon/git/swp-report/iMX6_Platform_SDK/output/mx6dq/obds/sabre_ai_rev_a/obj/apps/obds/src/tests/display_test.o
                                                  /home/leon/git/swp-report/iMX6_Platform_SDK/output/mx6dq/obds/sabre_ai_rev_a/obj/apps/obds/src/tests/deserializer_ds90ur124.o
                                                  /home/leon/git/swp-report/iMX6_Platform_SDK/output/mx6dq/obds/sabre_ai_rev_a/obj/apps/obds/src/tests/audio_ssi_test.o
                                                  /home/leon/git/swp-report/iMX6_Platform_SDK/output/mx6dq/obds/sabre_ai_rev_a/obj/apps/obds/src/tests/android_buttons_test.o
                                                  /home/leon/git/swp-report/iMX6_Platform_SDK/output/mx6dq/obds/sabre_ai_rev_a/obj/apps/obds/src/obds.o
jump_to_sdp                                       /home/leon/git/swp-report/iMX6_Platform_SDK/output/mx6dq/lib/libsdk.a(system_util.o)
k_gpio_mux_registers                              /home/leon/git/swp-report/iMX6_Platform_SDK/output/mx6dq/lib/libsdk.a(imx6dq_gpio_map.o)
                                                  /home/leon/git/swp-report/iMX6_Platform_SDK/output/mx6dq/lib/libsdk.a(gpio.o)
k_sdk_copyright                                   /home/leon/git/swp-report/iMX6_Platform_SDK/output/mx6dq/lib/libsdk.a(sdk_version.o)
                                                  /home/leon/git/swp-report/iMX6_Platform_SDK/output/mx6dq/obds/sabre_ai_rev_a/obj/apps/common/print_version.o
k_sdk_version                                     /home/leon/git/swp-report/iMX6_Platform_SDK/output/mx6dq/lib/libsdk.a(sdk_version.o)
                                                  /home/leon/git/swp-report/iMX6_Platform_SDK/output/mx6dq/obds/sabre_ai_rev_a/obj/apps/common/print_version.o
kpp_iomux_config                                  /home/leon/git/swp-report/iMX6_Platform_SDK/output/mx6dq/lib/libboard_sabre_ai_rev_a.a(iomux_config.o)
ldb_clock_config                                  /home/leon/git/swp-report/iMX6_Platform_SDK/output/mx6dq/lib/libboard_sabre_ai_rev_a.a(board_display.o)
                                                  /home/leon/git/swp-report/iMX6_Platform_SDK/output/mx6dq/lib/libsdk.a(ips_disp_panel.o)
ldb_config                                        /home/leon/git/swp-report/iMX6_Platform_SDK/output/mx6dq/lib/libsdk.a(ldb.o)
                                                  /home/leon/git/swp-report/iMX6_Platform_SDK/output/mx6dq/lib/libsdk.a(ips_disp_panel.o)
ldb_iomux_config                                  /home/leon/git/swp-report/iMX6_Platform_SDK/output/mx6dq/lib/libboard_sabre_ai_rev_a.a(iomux_config.o)
                                                  /home/leon/git/swp-report/iMX6_Platform_SDK/output/mx6dq/lib/libsdk.a(ips_disp_panel.o)
ldb_set_vs_polarity                               /home/leon/git/swp-report/iMX6_Platform_SDK/output/mx6dq/lib/libsdk.a(ldb.o)
list_panel                                        /home/leon/git/swp-report/iMX6_Platform_SDK/output/mx6dq/lib/libsdk.a(ips_disp_panel.o)
                                                  /home/leon/git/swp-report/iMX6_Platform_SDK/output/mx6dq/obds/sabre_ai_rev_a/obj/apps/obds/src/tests/display_test.o
load_centralized_image                            /home/leon/git/swp-report/iMX6_Platform_SDK/output/mx6dq/obds/sabre_ai_rev_a/obj/sdk/drivers/ipu/test/ipu_image.o
                                                  /home/leon/git/swp-report/iMX6_Platform_SDK/output/mx6dq/obds/sabre_ai_rev_a/obj/sdk/drivers/ipu/test/ips_display.o
                                                  /home/leon/git/swp-report/iMX6_Platform_SDK/output/mx6dq/obds/sabre_ai_rev_a/obj/apps/obds/src/tests/display_test.o
load_foreground_image                             /home/leon/git/swp-report/iMX6_Platform_SDK/output/mx6dq/obds/sabre_ai_rev_a/obj/sdk/drivers/ipu/test/ipu_image.o
load_horiz_image                                  /home/leon/git/swp-report/iMX6_Platform_SDK/output/mx6dq/obds/sabre_ai_rev_a/obj/sdk/drivers/ipu/test/ipu_image.o
load_vert_image                                   /home/leon/git/swp-report/iMX6_Platform_SDK/output/mx6dq/obds/sabre_ai_rev_a/obj/sdk/drivers/ipu/test/ipu_image.o
localeconv                                        /home/leon/riotboard/arm-2012.09/bin/../arm-none-eabi/lib//libc.a(lib_a-locale.o)
ltc3589_backlight_en                              /home/leon/git/swp-report/iMX6_Platform_SDK/output/mx6dq/obds/sabre_ai_rev_a/obj/apps/obds/src/tests/pmic_lt3589.o
ltc3589_camera_power_on                           /home/leon/git/swp-report/iMX6_Platform_SDK/output/mx6dq/obds/sabre_ai_rev_a/obj/apps/obds/src/tests/pmic_lt3589.o
ltc3589_eval                                      /home/leon/git/swp-report/iMX6_Platform_SDK/output/mx6dq/obds/sabre_ai_rev_a/obj/apps/obds/src/tests/pmic_lt3589.o
ltc3589_i2c_device_id_check                       /home/leon/git/swp-report/iMX6_Platform_SDK/output/mx6dq/obds/sabre_ai_rev_a/obj/apps/obds/src/tests/pmic_lt3589.o
ltc3589_reg_read                                  /home/leon/git/swp-report/iMX6_Platform_SDK/output/mx6dq/obds/sabre_ai_rev_a/obj/apps/obds/src/tests/pmic_lt3589.o
ltc3589_reg_write                                 /home/leon/git/swp-report/iMX6_Platform_SDK/output/mx6dq/obds/sabre_ai_rev_a/obj/apps/obds/src/tests/pmic_lt3589.o
lvds_power_on                                     /home/leon/git/swp-report/iMX6_Platform_SDK/output/mx6dq/lib/libboard_sabre_ai_rev_a.a(board_display.o)
                                                  /home/leon/git/swp-report/iMX6_Platform_SDK/output/mx6dq/lib/libsdk.a(ips_disp_panel.o)
m29w256gl_auto_dev_id                             /home/leon/git/swp-report/iMX6_Platform_SDK/output/mx6dq/obds/sabre_ai_rev_a/obj/apps/obds/src/tests/weim_nor_flash_test.o
m29w256gl_auto_manu_id                            /home/leon/git/swp-report/iMX6_Platform_SDK/output/mx6dq/obds/sabre_ai_rev_a/obj/apps/obds/src/tests/weim_nor_flash_test.o
mac_address_str                                   /home/leon/git/swp-report/iMX6_Platform_SDK/output/mx6dq/obds/sabre_ai_rev_a/obj/apps/obds/src/tests/program_mac_address.o
mag3110_reg_read                                  /home/leon/git/swp-report/iMX6_Platform_SDK/output/mx6dq/obds/sabre_ai_rev_a/obj/apps/obds/src/tests/i2c_device_digital_compass_mag3110.o
mag3112_reg_read                                  /home/leon/git/swp-report/iMX6_Platform_SDK/output/mx6dq/obds/sabre_ai_rev_a/obj/apps/obds/src/tests/i2c_device_digital_compass_mag3112.o
main                                              /home/leon/git/swp-report/iMX6_Platform_SDK/output/mx6dq/obds/sabre_ai_rev_a/obj/apps/obds/src/obds.o
                                                  /home/leon/git/swp-report/iMX6_Platform_SDK/output/mx6dq/lib/libsdk.a(startup.o)
main_menuitems                                    /home/leon/git/swp-report/iMX6_Platform_SDK/output/mx6dq/obds/sabre_ai_rev_a/obj/apps/obds/src/obds.o
malloc                                            /home/leon/riotboard/arm-2012.09/bin/../arm-none-eabi/lib//libc.a(lib_a-malloc.o)
                                                  /home/leon/git/swp-report/iMX6_Platform_SDK/output/mx6dq/lib/libsdk.a(usbh_drv.o)
                                                  /home/leon/git/swp-report/iMX6_Platform_SDK/output/mx6dq/lib/libsdk.a(system_util.o)
                                                  /home/leon/git/swp-report/iMX6_Platform_SDK/output/mx6dq/obds/sabre_ai_rev_a/obj/sdk/drivers/usb/test/usb0_host_test.o
                                                  /home/leon/git/swp-report/iMX6_Platform_SDK/output/mx6dq/obds/sabre_ai_rev_a/obj/apps/obds/src/tests/usb_tests_obds.o
                                                  /home/leon/git/swp-report/iMX6_Platform_SDK/output/mx6dq/obds/sabre_ai_rev_a/obj/apps/obds/src/obds.o
max11801_reg_read_multi                           /home/leon/git/swp-report/iMX6_Platform_SDK/output/mx6dq/obds/sabre_ai_rev_a/obj/apps/obds/src/tests/touch_screen_max11801.o
max11801_reg_read_single                          /home/leon/git/swp-report/iMX6_Platform_SDK/output/mx6dq/obds/sabre_ai_rev_a/obj/apps/obds/src/tests/touch_screen_max11801.o
max11801_reg_write                                /home/leon/git/swp-report/iMX6_Platform_SDK/output/mx6dq/obds/sabre_ai_rev_a/obj/apps/obds/src/tests/touch_screen_max11801.o
max11801_ts_test                                  /home/leon/git/swp-report/iMX6_Platform_SDK/output/mx6dq/obds/sabre_ai_rev_a/obj/apps/obds/src/tests/touch_screen_max11801.o
max17135_reg_read                                 /home/leon/git/swp-report/iMX6_Platform_SDK/output/mx6dq/obds/sabre_ai_rev_a/obj/apps/obds/src/tests/pmic_max17135.o
max17135_reg_write                                /home/leon/git/swp-report/iMX6_Platform_SDK/output/mx6dq/obds/sabre_ai_rev_a/obj/apps/obds/src/tests/pmic_max17135.o
max7310_i2c_device_id_check                       /home/leon/git/swp-report/iMX6_Platform_SDK/output/mx6dq/obds/sabre_ai_rev_a/obj/sdk/common/ioexpander/test/max7310_test.o
                                                  /home/leon/git/swp-report/iMX6_Platform_SDK/output/mx6dq/obds/sabre_ai_rev_a/obj/apps/obds/src/obds.o
max7310_i2c_req_array                             /home/leon/git/swp-report/iMX6_Platform_SDK/output/mx6dq/lib/libboard_sabre_ai_rev_a.a(board_io_expanders.o)
                                                  /home/leon/git/swp-report/iMX6_Platform_SDK/output/mx6dq/lib/libsdk.a(max7310.o)
                                                  /home/leon/git/swp-report/iMX6_Platform_SDK/output/mx6dq/obds/sabre_ai_rev_a/obj/sdk/common/ioexpander/test/max7310_test.o
max7310_init                                      /home/leon/git/swp-report/iMX6_Platform_SDK/output/mx6dq/lib/libsdk.a(max7310.o)
                                                  /home/leon/git/swp-report/iMX6_Platform_SDK/output/mx6dq/lib/libboard_sabre_ai_rev_a.a(board_io_expanders.o)
max7310_reg_read                                  /home/leon/git/swp-report/iMX6_Platform_SDK/output/mx6dq/lib/libsdk.a(max7310.o)
                                                  /home/leon/git/swp-report/iMX6_Platform_SDK/output/mx6dq/obds/sabre_ai_rev_a/obj/sdk/common/ioexpander/test/max7310_test.o
max7310_reg_write                                 /home/leon/git/swp-report/iMX6_Platform_SDK/output/mx6dq/lib/libsdk.a(max7310.o)
max7310_set_gpio_output                           /home/leon/git/swp-report/iMX6_Platform_SDK/output/mx6dq/lib/libsdk.a(max7310.o)
                                                  /home/leon/git/swp-report/iMX6_Platform_SDK/output/mx6dq/lib/libboard_sabre_ai_rev_a.a(board_usb.o)
                                                  /home/leon/git/swp-report/iMX6_Platform_SDK/output/mx6dq/lib/libboard_sabre_ai_rev_a.a(board_sata.o)
                                                  /home/leon/git/swp-report/iMX6_Platform_SDK/output/mx6dq/lib/libboard_sabre_ai_rev_a.a(board_network.o)
                                                  /home/leon/git/swp-report/iMX6_Platform_SDK/output/mx6dq/lib/libboard_sabre_ai_rev_a.a(board_mipi.o)
                                                  /home/leon/git/swp-report/iMX6_Platform_SDK/output/mx6dq/lib/libboard_sabre_ai_rev_a.a(board_display.o)
                                                  /home/leon/git/swp-report/iMX6_Platform_SDK/output/mx6dq/lib/libsdk.a(adv7180.o)
                                                  /home/leon/git/swp-report/iMX6_Platform_SDK/output/mx6dq/obds/sabre_ai_rev_a/obj/apps/obds/src/tests/video_dec_adv7180.o
                                                  /home/leon/git/swp-report/iMX6_Platform_SDK/output/mx6dq/obds/sabre_ai_rev_a/obj/apps/obds/src/tests/video_dec_ARD_MBrst_from_cpu_expander.o
                                                  /home/leon/git/swp-report/iMX6_Platform_SDK/output/mx6dq/obds/sabre_ai_rev_a/obj/apps/obds/src/tests/mlb_os81050.o
                                                  /home/leon/git/swp-report/iMX6_Platform_SDK/output/mx6dq/obds/sabre_ai_rev_a/obj/apps/obds/src/tests/fm_tuner_si476x_test.o
mc13892_i2c_reg                                   /home/leon/git/swp-report/iMX6_Platform_SDK/output/mx6dq/obds/sabre_ai_rev_a/obj/apps/obds/src/tests/pmic_mc13892.o
memchr                                            /home/leon/riotboard/arm-2012.09/bin/../arm-none-eabi/lib//libc.a(lib_a-memchr.o)
                                                  /home/leon/riotboard/arm-2012.09/bin/../arm-none-eabi/lib//libc.a(lib_a-svfiprintf.o)
                                                  /home/leon/riotboard/arm-2012.09/bin/../arm-none-eabi/lib//libc.a(lib_a-fvwrite.o)
                                                  /home/leon/riotboard/arm-2012.09/bin/../arm-none-eabi/lib//libc.a(lib_a-vfprintf.o)
                                                  /home/leon/riotboard/arm-2012.09/bin/../arm-none-eabi/lib//libc.a(lib_a-vfiprintf.o)
                                                  /home/leon/riotboard/arm-2012.09/bin/../arm-none-eabi/lib//libc.a(lib_a-svfprintf.o)
memcpy                                            /home/leon/riotboard/arm-2012.09/bin/../arm-none-eabi/lib//libc.a(lib_a-memcpy.o)
                                                  /home/leon/riotboard/arm-2012.09/bin/../arm-none-eabi/lib//libc.a(lib_a-svfiprintf.o)
                                                  /home/leon/riotboard/arm-2012.09/bin/../arm-none-eabi/lib//libc.a(lib_a-mprec.o)
                                                  /home/leon/riotboard/arm-2012.09/bin/../arm-none-eabi/lib//libc.a(lib_a-fvwrite.o)
                                                  /home/leon/riotboard/arm-2012.09/bin/../arm-none-eabi/lib//libc.a(lib_a-dtoa.o)
                                                  /home/leon/git/swp-report/iMX6_Platform_SDK/output/mx6dq/lib/libsdk.a(sata.o)
                                                  /home/leon/git/swp-report/iMX6_Platform_SDK/output/mx6dq/lib/libsdk.a(ipu_common.o)
                                                  /home/leon/git/swp-report/iMX6_Platform_SDK/output/mx6dq/lib/libsdk.a(enet_drv.o)
                                                  /home/leon/git/swp-report/iMX6_Platform_SDK/output/mx6dq/lib/libsdk.a(menu.o)
                                                  /home/leon/git/swp-report/iMX6_Platform_SDK/output/mx6dq/obds/sabre_ai_rev_a/obj/sdk/drivers/spi/test/imx_spi_nor_atmel.o
                                                  /home/leon/git/swp-report/iMX6_Platform_SDK/output/mx6dq/obds/sabre_ai_rev_a/obj/sdk/drivers/ipu/test/ipu_image.o
                                                  /home/leon/git/swp-report/iMX6_Platform_SDK/output/mx6dq/obds/sabre_ai_rev_a/obj/apps/obds/src/tests/touch_screen_max11801.o
                                                  /home/leon/git/swp-report/iMX6_Platform_SDK/output/mx6dq/obds/sabre_ai_rev_a/obj/apps/obds/src/tests/i2c_device_id_check_p1003_tsc.o
memmove                                           /home/leon/riotboard/arm-2012.09/bin/../arm-none-eabi/lib//libc.a(lib_a-memmove.o)
                                                  /home/leon/riotboard/arm-2012.09/bin/../arm-none-eabi/lib//libc.a(lib_a-svfiprintf.o)
                                                  /home/leon/riotboard/arm-2012.09/bin/../arm-none-eabi/lib//libc.a(lib_a-fvwrite.o)
                                                  /home/leon/riotboard/arm-2012.09/bin/../arm-none-eabi/lib//libc.a(lib_a-reallocr.o)
memset                                            /home/leon/riotboard/arm-2012.09/bin/../arm-none-eabi/lib//libc.a(lib_a-memset.o)
                                                  /home/leon/riotboard/arm-2012.09/bin/../arm-none-eabi/lib//libc.a(lib_a-callocr.o)
                                                  /home/leon/riotboard/arm-2012.09/bin/../arm-none-eabi/lib//libc.a(lib_a-findfp.o)
                                                  /home/leon/git/swp-report/iMX6_Platform_SDK/output/mx6dq/lib/libsdk.a(sata.o)
                                                  /home/leon/git/swp-report/iMX6_Platform_SDK/output/mx6dq/lib/libsdk.a(ipu_vdi.o)
                                                  /home/leon/git/swp-report/iMX6_Platform_SDK/output/mx6dq/lib/libsdk.a(ipu_idmac.o)
                                                  /home/leon/git/swp-report/iMX6_Platform_SDK/output/mx6dq/lib/libsdk.a(ipu_di.o)
                                                  /home/leon/git/swp-report/iMX6_Platform_SDK/output/mx6dq/lib/libsdk.a(ipu_common.o)
                                                  /home/leon/git/swp-report/iMX6_Platform_SDK/output/mx6dq/lib/libsdk.a(board_id.o)
                                                  /home/leon/git/swp-report/iMX6_Platform_SDK/output/mx6dq/lib/libsdk.a(imx_spdif.o)
                                                  /home/leon/git/swp-report/iMX6_Platform_SDK/output/mx6dq/lib/libsdk.a(menu.o)
                                                  /home/leon/git/swp-report/iMX6_Platform_SDK/output/mx6dq/obds/sabre_ai_rev_a/obj/sdk/drivers/usdhc/test/usdhc_test.o
                                                  /home/leon/git/swp-report/iMX6_Platform_SDK/output/mx6dq/obds/sabre_ai_rev_a/obj/sdk/drivers/spi/test/spi_nor_numonyx.o
                                                  /home/leon/git/swp-report/iMX6_Platform_SDK/output/mx6dq/obds/sabre_ai_rev_a/obj/sdk/drivers/sata/test/sata_test.o
                                                  /home/leon/git/swp-report/iMX6_Platform_SDK/output/mx6dq/obds/sabre_ai_rev_a/obj/sdk/drivers/ipu/test/ipu_image.o
                                                  /home/leon/git/swp-report/iMX6_Platform_SDK/output/mx6dq/obds/sabre_ai_rev_a/obj/sdk/drivers/ipu/test/ips_display.o
                                                  /home/leon/git/swp-report/iMX6_Platform_SDK/output/mx6dq/obds/sabre_ai_rev_a/obj/sdk/drivers/hdmi/test/hdmi_test.o
                                                  /home/leon/git/swp-report/iMX6_Platform_SDK/output/mx6dq/obds/sabre_ai_rev_a/obj/apps/obds/src/tests/usb_tests_obds.o
                                                  /home/leon/git/swp-report/iMX6_Platform_SDK/output/mx6dq/obds/sabre_ai_rev_a/obj/apps/obds/src/tests/imx_spi_nor_test.o
                                                  /home/leon/git/swp-report/iMX6_Platform_SDK/output/mx6dq/obds/sabre_ai_rev_a/obj/apps/obds/src/tests/display_test.o
                                                  /home/leon/git/swp-report/iMX6_Platform_SDK/output/mx6dq/obds/sabre_ai_rev_a/obj/apps/obds/src/obds.o
                                                  /home/leon/git/swp-report/iMX6_Platform_SDK/output/mx6dq/obds/sabre_ai_rev_a/obj/apps/common/print_version.o
menu_append_menuitems                             /home/leon/git/swp-report/iMX6_Platform_SDK/output/mx6dq/lib/libsdk.a(menu.o)
                                                  /home/leon/git/swp-report/iMX6_Platform_SDK/output/mx6dq/obds/sabre_ai_rev_a/obj/apps/obds/src/obds.o
menu_get_indent                                   /home/leon/git/swp-report/iMX6_Platform_SDK/output/mx6dq/lib/libsdk.a(menu.o)
                                                  /home/leon/git/swp-report/iMX6_Platform_SDK/output/mx6dq/lib/libsdk.a(usdhc.o)
                                                  /home/leon/git/swp-report/iMX6_Platform_SDK/output/mx6dq/obds/sabre_ai_rev_a/obj/sdk/drivers/usdhc/test/usdhc_test.o
                                                  /home/leon/git/swp-report/iMX6_Platform_SDK/output/mx6dq/obds/sabre_ai_rev_a/obj/sdk/drivers/uart/test/uart_test.o
                                                  /home/leon/git/swp-report/iMX6_Platform_SDK/output/mx6dq/obds/sabre_ai_rev_a/obj/sdk/common/pmic/pfuse/pf0100.o
                                                  /home/leon/git/swp-report/iMX6_Platform_SDK/output/mx6dq/obds/sabre_ai_rev_a/obj/apps/obds/src/tests/weim_nor_flash_test.o
                                                  /home/leon/git/swp-report/iMX6_Platform_SDK/output/mx6dq/obds/sabre_ai_rev_a/obj/apps/obds/src/tests/video_dec_adv7180.o
                                                  /home/leon/git/swp-report/iMX6_Platform_SDK/output/mx6dq/obds/sabre_ai_rev_a/obj/apps/obds/src/tests/video_dec_ARD_MBrst_from_cpu_expander.o
                                                  /home/leon/git/swp-report/iMX6_Platform_SDK/output/mx6dq/obds/sabre_ai_rev_a/obj/apps/obds/src/tests/video_dec_ARD_MB_reset_button.o
                                                  /home/leon/git/swp-report/iMX6_Platform_SDK/output/mx6dq/obds/sabre_ai_rev_a/obj/apps/obds/src/tests/touch_screen.o
                                                  /home/leon/git/swp-report/iMX6_Platform_SDK/output/mx6dq/obds/sabre_ai_rev_a/obj/apps/obds/src/tests/snvs_srtc_test.o
                                                  /home/leon/git/swp-report/iMX6_Platform_SDK/output/mx6dq/obds/sabre_ai_rev_a/obj/apps/obds/src/tests/program_mac_address.o
                                                  /home/leon/git/swp-report/iMX6_Platform_SDK/output/mx6dq/obds/sabre_ai_rev_a/obj/apps/obds/src/tests/program_board_id.o
                                                  /home/leon/git/swp-report/iMX6_Platform_SDK/output/mx6dq/obds/sabre_ai_rev_a/obj/apps/obds/src/tests/pmic_mc13892.o
                                                  /home/leon/git/swp-report/iMX6_Platform_SDK/output/mx6dq/obds/sabre_ai_rev_a/obj/apps/obds/src/tests/pmic_max17135.o
                                                  /home/leon/git/swp-report/iMX6_Platform_SDK/output/mx6dq/obds/sabre_ai_rev_a/obj/apps/obds/src/tests/mmcsd_test.o
                                                  /home/leon/git/swp-report/iMX6_Platform_SDK/output/mx6dq/obds/sabre_ai_rev_a/obj/apps/obds/src/tests/imx_spi_nor_test.o
                                                  /home/leon/git/swp-report/iMX6_Platform_SDK/output/mx6dq/obds/sabre_ai_rev_a/obj/apps/obds/src/tests/i2c_device_zigbee_mc1323.o
                                                  /home/leon/git/swp-report/iMX6_Platform_SDK/output/mx6dq/obds/sabre_ai_rev_a/obj/apps/obds/src/tests/i2c_device_id_check_p1003_tsc.o
                                                  /home/leon/git/swp-report/iMX6_Platform_SDK/output/mx6dq/obds/sabre_ai_rev_a/obj/apps/obds/src/tests/i2c_device_id_check_mma8451.o
                                                  /home/leon/git/swp-report/iMX6_Platform_SDK/output/mx6dq/obds/sabre_ai_rev_a/obj/apps/obds/src/tests/i2c_device_id_check_mma8450.o
                                                  /home/leon/git/swp-report/iMX6_Platform_SDK/output/mx6dq/obds/sabre_ai_rev_a/obj/apps/obds/src/tests/i2c_device_digital_compass_mag3112.o
                                                  /home/leon/git/swp-report/iMX6_Platform_SDK/output/mx6dq/obds/sabre_ai_rev_a/obj/apps/obds/src/tests/i2c_device_digital_compass_mag3110.o
                                                  /home/leon/git/swp-report/iMX6_Platform_SDK/output/mx6dq/obds/sabre_ai_rev_a/obj/apps/obds/src/tests/i2c_check_light_sensor_isl29023.o
                                                  /home/leon/git/swp-report/iMX6_Platform_SDK/output/mx6dq/obds/sabre_ai_rev_a/obj/apps/obds/src/tests/gpio_led.o
                                                  /home/leon/git/swp-report/iMX6_Platform_SDK/output/mx6dq/obds/sabre_ai_rev_a/obj/apps/obds/src/tests/flexcan_test.o
                                                  /home/leon/git/swp-report/iMX6_Platform_SDK/output/mx6dq/obds/sabre_ai_rev_a/obj/apps/obds/src/tests/enet_mx6dldq_test.o
                                                  /home/leon/git/swp-report/iMX6_Platform_SDK/output/mx6dq/obds/sabre_ai_rev_a/obj/apps/obds/src/tests/audio_ssi_test.o
                                                  /home/leon/git/swp-report/iMX6_Platform_SDK/output/mx6dq/obds/sabre_ai_rev_a/obj/apps/obds/src/tests/audio_esai_test.o
                                                  /home/leon/git/swp-report/iMX6_Platform_SDK/output/mx6dq/obds/sabre_ai_rev_a/obj/apps/obds/src/tests/android_buttons_test.o
                                                  /home/leon/git/swp-report/iMX6_Platform_SDK/output/mx6dq/obds/sabre_ai_rev_a/obj/apps/obds/src/obds.o
menu_present                                      /home/leon/git/swp-report/iMX6_Platform_SDK/output/mx6dq/lib/libsdk.a(menu.o)
                                                  /home/leon/git/swp-report/iMX6_Platform_SDK/output/mx6dq/obds/sabre_ai_rev_a/obj/apps/obds/src/obds.o
menu_print_menuitem                               /home/leon/git/swp-report/iMX6_Platform_SDK/output/mx6dq/lib/libsdk.a(menu.o)
menuitem_cmd_exitmenu                             /home/leon/git/swp-report/iMX6_Platform_SDK/output/mx6dq/lib/libsdk.a(menu.o)
                                                  /home/leon/git/swp-report/iMX6_Platform_SDK/output/mx6dq/obds/sabre_ai_rev_a/obj/apps/obds/src/obds.o
menuitem_cmd_showmenu                             /home/leon/git/swp-report/iMX6_Platform_SDK/output/mx6dq/lib/libsdk.a(menu.o)
                                                  /home/leon/git/swp-report/iMX6_Platform_SDK/output/mx6dq/obds/sabre_ai_rev_a/obj/apps/obds/src/obds.o
mipi_backlight_en                                 /home/leon/git/swp-report/iMX6_Platform_SDK/output/mx6dq/lib/libboard_sabre_ai_rev_a.a(board_mipi.o)
                                                  /home/leon/git/swp-report/iMX6_Platform_SDK/output/mx6dq/lib/libsdk.a(ips_disp_panel.o)
mipi_cam_power_on                                 /home/leon/git/swp-report/iMX6_Platform_SDK/output/mx6dq/lib/libboard_sabre_ai_rev_a.a(board_mipi.o)
mipi_clock_set                                    /home/leon/git/swp-report/iMX6_Platform_SDK/output/mx6dq/lib/libboard_sabre_ai_rev_a.a(board_mipi.o)
                                                  /home/leon/git/swp-report/iMX6_Platform_SDK/output/mx6dq/lib/libsdk.a(ips_disp_panel.o)
mipi_csi2_clock_set                               /home/leon/git/swp-report/iMX6_Platform_SDK/output/mx6dq/lib/libboard_sabre_ai_rev_a.a(board_mipi.o)
mipi_csi_iomux_config                             /home/leon/git/swp-report/iMX6_Platform_SDK/output/mx6dq/lib/libboard_sabre_ai_rev_a.a(iomux_config.o)
mipi_display_reset                                /home/leon/git/swp-report/iMX6_Platform_SDK/output/mx6dq/lib/libboard_sabre_ai_rev_a.a(board_mipi.o)
                                                  /home/leon/git/swp-report/iMX6_Platform_SDK/output/mx6dq/lib/libsdk.a(ips_disp_panel.o)
mipi_dsi_iomux_config                             /home/leon/git/swp-report/iMX6_Platform_SDK/output/mx6dq/lib/libboard_sabre_ai_rev_a.a(iomux_config.o)
mipi_hsi_iomux_config                             /home/leon/git/swp-report/iMX6_Platform_SDK/output/mx6dq/lib/libboard_sabre_ai_rev_a.a(iomux_config.o)
mlb_io_config                                     /home/leon/git/swp-report/iMX6_Platform_SDK/output/mx6dq/obds/sabre_ai_rev_a/obj/apps/obds/src/tests/mlb_os81050.o
mlb_iomux_config                                  /home/leon/git/swp-report/iMX6_Platform_SDK/output/mx6dq/lib/libboard_sabre_ai_rev_a.a(mlb_iomux_config.o)
                                                  /home/leon/git/swp-report/iMX6_Platform_SDK/output/mx6dq/lib/libboard_sabre_ai_rev_a.a(iomux_config.o)
mlb_os81050_test_enable                           /home/leon/git/swp-report/iMX6_Platform_SDK/output/mx6dq/obds/sabre_ai_rev_a/obj/apps/obds/src/tests/mlb_os81050.o
mma8450_get_accel                                 /home/leon/git/swp-report/iMX6_Platform_SDK/output/mx6dq/obds/sabre_ai_rev_a/obj/apps/obds/src/tests/i2c_device_id_check_mma8450.o
mma8450_set_config                                /home/leon/git/swp-report/iMX6_Platform_SDK/output/mx6dq/obds/sabre_ai_rev_a/obj/apps/obds/src/tests/i2c_device_id_check_mma8450.o
mma8450_show_accel                                /home/leon/git/swp-report/iMX6_Platform_SDK/output/mx6dq/obds/sabre_ai_rev_a/obj/apps/obds/src/tests/i2c_device_id_check_mma8450.o
mma8451_get_accel                                 /home/leon/git/swp-report/iMX6_Platform_SDK/output/mx6dq/obds/sabre_ai_rev_a/obj/apps/obds/src/tests/i2c_device_id_check_mma8451.o
mma8451_set_config                                /home/leon/git/swp-report/iMX6_Platform_SDK/output/mx6dq/obds/sabre_ai_rev_a/obj/apps/obds/src/tests/i2c_device_id_check_mma8451.o
mma8451_show_accel                                /home/leon/git/swp-report/iMX6_Platform_SDK/output/mx6dq/obds/sabre_ai_rev_a/obj/apps/obds/src/tests/i2c_device_id_check_mma8451.o
mmc_init                                          /home/leon/git/swp-report/iMX6_Platform_SDK/output/mx6dq/lib/libsdk.a(usdhc_mmc.o)
                                                  /home/leon/git/swp-report/iMX6_Platform_SDK/output/mx6dq/lib/libsdk.a(usdhc.o)
mmc_sd_test                                       /home/leon/git/swp-report/iMX6_Platform_SDK/output/mx6dq/obds/sabre_ai_rev_a/obj/sdk/drivers/usdhc/test/usdhc_test.o
                                                  /home/leon/git/swp-report/iMX6_Platform_SDK/output/mx6dq/obds/sabre_ai_rev_a/obj/apps/obds/src/tests/mmcsd_test.o
mmc_set_boot_ack                                  /home/leon/git/swp-report/iMX6_Platform_SDK/output/mx6dq/lib/libsdk.a(usdhc_mmc.o)
                                                  /home/leon/git/swp-report/iMX6_Platform_SDK/output/mx6dq/obds/sabre_ai_rev_a/obj/sdk/drivers/usdhc/test/usdhc_test.o
mmc_set_boot_bus_width                            /home/leon/git/swp-report/iMX6_Platform_SDK/output/mx6dq/lib/libsdk.a(usdhc_mmc.o)
                                                  /home/leon/git/swp-report/iMX6_Platform_SDK/output/mx6dq/obds/sabre_ai_rev_a/obj/sdk/drivers/usdhc/test/usdhc_test.o
mmc_set_boot_partition                            /home/leon/git/swp-report/iMX6_Platform_SDK/output/mx6dq/lib/libsdk.a(usdhc_mmc.o)
                                                  /home/leon/git/swp-report/iMX6_Platform_SDK/output/mx6dq/obds/sabre_ai_rev_a/obj/sdk/drivers/usdhc/test/usdhc_test.o
mmc_voltage_validation                            /home/leon/git/swp-report/iMX6_Platform_SDK/output/mx6dq/lib/libsdk.a(usdhc_mmc.o)
                                                  /home/leon/git/swp-report/iMX6_Platform_SDK/output/mx6dq/lib/libsdk.a(usdhc.o)
mmcsd_bus_width                                   /home/leon/git/swp-report/iMX6_Platform_SDK/output/mx6dq/obds/sabre_ai_rev_a/obj/apps/obds/src/tests/mmcsd_test.o
mmcsd_test                                        /home/leon/git/swp-report/iMX6_Platform_SDK/output/mx6dq/obds/sabre_ai_rev_a/obj/apps/obds/src/tests/mmcsd_test.o
                                                  /home/leon/git/swp-report/iMX6_Platform_SDK/output/mx6dq/obds/sabre_ai_rev_a/obj/apps/obds/src/obds.o
mmdc_iomux_config                                 /home/leon/git/swp-report/iMX6_Platform_SDK/output/mx6dq/lib/libboard_sabre_ai_rev_a.a(mmdc_iomux_config.o)
                                                  /home/leon/git/swp-report/iMX6_Platform_SDK/output/mx6dq/lib/libboard_sabre_ai_rev_a.a(iomux_config.o)
mmu_disable                                       /home/leon/git/swp-report/iMX6_Platform_SDK/output/mx6dq/lib/libsdk.a(mmu.o)
mmu_enable                                        /home/leon/git/swp-report/iMX6_Platform_SDK/output/mx6dq/lib/libsdk.a(mmu.o)
mmu_init                                          /home/leon/git/swp-report/iMX6_Platform_SDK/output/mx6dq/lib/libsdk.a(mmu.o)
                                                  /home/leon/git/swp-report/iMX6_Platform_SDK/output/mx6dq/obds/sabre_ai_rev_a/obj/apps/common/platform_init.o
mmu_map_l1_range                                  /home/leon/git/swp-report/iMX6_Platform_SDK/output/mx6dq/lib/libsdk.a(mmu.o)
mmu_virtual_to_physical                           /home/leon/git/swp-report/iMX6_Platform_SDK/output/mx6dq/lib/libsdk.a(mmu.o)
mybkpt                                            /home/leon/git/swp-report/iMX6_Platform_SDK/output/mx6dq/lib/libsdk.a(system_util.o)
need_csc                                          /home/leon/git/swp-report/iMX6_Platform_SDK/output/mx6dq/lib/libsdk.a(ipu_common.o)
num_of_panels                                     /home/leon/git/swp-report/iMX6_Platform_SDK/output/mx6dq/lib/libsdk.a(ips_disp_panel.o)
obds_tests                                        /home/leon/git/swp-report/iMX6_Platform_SDK/output/mx6dq/obds/sabre_ai_rev_a/obj/apps/obds/src/obds.o
ocotp_fuse_blow_row                               /home/leon/git/swp-report/iMX6_Platform_SDK/output/mx6dq/lib/libsdk.a(ocotp.o)
                                                  /home/leon/git/swp-report/iMX6_Platform_SDK/output/mx6dq/obds/sabre_ai_rev_a/obj/apps/obds/src/tests/program_mac_address.o
                                                  /home/leon/git/swp-report/iMX6_Platform_SDK/output/mx6dq/obds/sabre_ai_rev_a/obj/apps/obds/src/tests/program_board_id.o
ocotp_reload_otp_shadow_registers                 /home/leon/git/swp-report/iMX6_Platform_SDK/output/mx6dq/lib/libsdk.a(ocotp.o)
                                                  /home/leon/git/swp-report/iMX6_Platform_SDK/output/mx6dq/obds/sabre_ai_rev_a/obj/apps/obds/src/tests/program_mac_address.o
                                                  /home/leon/git/swp-report/iMX6_Platform_SDK/output/mx6dq/obds/sabre_ai_rev_a/obj/apps/obds/src/tests/program_board_id.o
ocotp_sense_fuse                                  /home/leon/git/swp-report/iMX6_Platform_SDK/output/mx6dq/lib/libsdk.a(ocotp.o)
                                                  /home/leon/git/swp-report/iMX6_Platform_SDK/output/mx6dq/obds/sabre_ai_rev_a/obj/apps/obds/src/tests/program_mac_address.o
                                                  /home/leon/git/swp-report/iMX6_Platform_SDK/output/mx6dq/obds/sabre_ai_rev_a/obj/apps/obds/src/tests/program_board_id.o
os81050_get_message                               /home/leon/git/swp-report/iMX6_Platform_SDK/output/mx6dq/obds/sabre_ai_rev_a/obj/apps/obds/src/tests/mlb_os81050.o
os81050_i2c_init                                  /home/leon/git/swp-report/iMX6_Platform_SDK/output/mx6dq/obds/sabre_ai_rev_a/obj/apps/obds/src/tests/mlb_os81050.o
os81050_read_status                               /home/leon/git/swp-report/iMX6_Platform_SDK/output/mx6dq/obds/sabre_ai_rev_a/obj/apps/obds/src/tests/mlb_os81050.o
os81050_test_main                                 /home/leon/git/swp-report/iMX6_Platform_SDK/output/mx6dq/obds/sabre_ai_rev_a/obj/apps/obds/src/tests/mlb_os81050.o
ov5642_strobe_on                                  /home/leon/git/swp-report/iMX6_Platform_SDK/output/mx6dq/lib/libsdk.a(smd_sensor.o)
p1003_get_touch                                   /home/leon/git/swp-report/iMX6_Platform_SDK/output/mx6dq/obds/sabre_ai_rev_a/obj/apps/obds/src/tests/i2c_device_id_check_p1003_tsc.o
p1003_show_touch                                  /home/leon/git/swp-report/iMX6_Platform_SDK/output/mx6dq/obds/sabre_ai_rev_a/obj/apps/obds/src/tests/i2c_device_id_check_p1003_tsc.o
p1003_version_reg_read                            /home/leon/git/swp-report/iMX6_Platform_SDK/output/mx6dq/obds/sabre_ai_rev_a/obj/apps/obds/src/tests/i2c_device_id_check_p1003_tsc.o
p1003_version_reg_write                           /home/leon/git/swp-report/iMX6_Platform_SDK/output/mx6dq/obds/sabre_ai_rev_a/obj/apps/obds/src/tests/i2c_device_id_check_p1003_tsc.o
panel_name                                        /home/leon/git/swp-report/iMX6_Platform_SDK/output/mx6dq/obds/sabre_ai_rev_a/obj/apps/obds/src/tests/display_test.o
pcie_iomux_config                                 /home/leon/git/swp-report/iMX6_Platform_SDK/output/mx6dq/lib/libboard_sabre_ai_rev_a.a(iomux_config.o)
pcm_music                                         /home/leon/git/swp-report/iMX6_Platform_SDK/output/mx6dq/obds/sabre_ai_rev_a/obj/apps/obds/src/tests/audio_ssi_test.o
                                                  /home/leon/git/swp-report/iMX6_Platform_SDK/output/mx6dq/obds/sabre_ai_rev_a/obj/apps/obds/src/tests/audio_esai_test.o
pcm_para                                          /home/leon/git/swp-report/iMX6_Platform_SDK/output/mx6dq/obds/sabre_ai_rev_a/obj/apps/obds/src/tests/audio_ssi_test.o
pcm_record                                        /home/leon/git/swp-report/iMX6_Platform_SDK/output/mx6dq/obds/sabre_ai_rev_a/obj/apps/obds/src/tests/audio_ssi_test.o
pen_status                                        /home/leon/git/swp-report/iMX6_Platform_SDK/output/mx6dq/obds/sabre_ai_rev_a/obj/apps/obds/src/tests/touch_screen.o
pf0100_enable_vgen1_1v2                           /home/leon/git/swp-report/iMX6_Platform_SDK/output/mx6dq/obds/sabre_ai_rev_a/obj/sdk/common/pmic/pfuse/pf0100.o
pf0100_enable_vgen2_1v5                           /home/leon/git/swp-report/iMX6_Platform_SDK/output/mx6dq/obds/sabre_ai_rev_a/obj/sdk/common/pmic/pfuse/pf0100.o
pf0100_enable_vgen3_1v8                           /home/leon/git/swp-report/iMX6_Platform_SDK/output/mx6dq/obds/sabre_ai_rev_a/obj/sdk/common/pmic/pfuse/pf0100.o
pf0100_enable_vgen4_1v8                           /home/leon/git/swp-report/iMX6_Platform_SDK/output/mx6dq/obds/sabre_ai_rev_a/obj/sdk/common/pmic/pfuse/pf0100.o
pf0100_enable_vgen4_2v5                           /home/leon/git/swp-report/iMX6_Platform_SDK/output/mx6dq/obds/sabre_ai_rev_a/obj/sdk/common/pmic/pfuse/pf0100.o
pf0100_enable_vgen6_2v8                           /home/leon/git/swp-report/iMX6_Platform_SDK/output/mx6dq/obds/sabre_ai_rev_a/obj/sdk/common/pmic/pfuse/pf0100.o
pf0100_i2c_device_id_check                        /home/leon/git/swp-report/iMX6_Platform_SDK/output/mx6dq/obds/sabre_ai_rev_a/obj/sdk/common/pmic/pfuse/pf0100.o
                                                  /home/leon/git/swp-report/iMX6_Platform_SDK/output/mx6dq/obds/sabre_ai_rev_a/obj/apps/obds/src/obds.o
pf0100_reg_read                                   /home/leon/git/swp-report/iMX6_Platform_SDK/output/mx6dq/obds/sabre_ai_rev_a/obj/sdk/common/pmic/pfuse/pf0100.o
pf0100_reg_write                                  /home/leon/git/swp-report/iMX6_Platform_SDK/output/mx6dq/obds/sabre_ai_rev_a/obj/sdk/common/pmic/pfuse/pf0100.o
platform_init                                     /home/leon/git/swp-report/iMX6_Platform_SDK/output/mx6dq/obds/sabre_ai_rev_a/obj/apps/common/platform_init.o
                                                  /home/leon/git/swp-report/iMX6_Platform_SDK/output/mx6dq/obds/sabre_ai_rev_a/obj/apps/obds/src/obds.o
pmic_da9053_test                                  /home/leon/git/swp-report/iMX6_Platform_SDK/output/mx6dq/obds/sabre_ai_rev_a/obj/apps/obds/src/tests/pmic_da9053.o
pmic_lt3589_test                                  /home/leon/git/swp-report/iMX6_Platform_SDK/output/mx6dq/obds/sabre_ai_rev_a/obj/apps/obds/src/tests/pmic_lt3589.o
pmic_mc13892_reg                                  /home/leon/git/swp-report/iMX6_Platform_SDK/output/mx6dq/obds/sabre_ai_rev_a/obj/apps/obds/src/tests/pmic_mc13892.o
pmic_mc13892_test                                 /home/leon/git/swp-report/iMX6_Platform_SDK/output/mx6dq/obds/sabre_ai_rev_a/obj/apps/obds/src/tests/pmic_mc13892.o
pmic_open_vgen1                                   /home/leon/git/swp-report/iMX6_Platform_SDK/output/mx6dq/obds/sabre_ai_rev_a/obj/apps/obds/src/tests/pmic_mc13892.o
pmic_open_vsd                                     /home/leon/git/swp-report/iMX6_Platform_SDK/output/mx6dq/obds/sabre_ai_rev_a/obj/apps/obds/src/tests/pmic_mc13892.o
pmic_open_vusb                                    /home/leon/git/swp-report/iMX6_Platform_SDK/output/mx6dq/obds/sabre_ai_rev_a/obj/apps/obds/src/tests/pmic_mc13892.o
pmu_iomux_config                                  /home/leon/git/swp-report/iMX6_Platform_SDK/output/mx6dq/lib/libboard_sabre_ai_rev_a.a(iomux_config.o)
preamble_filter_set                               /home/leon/git/swp-report/iMX6_Platform_SDK/output/mx6dq/lib/libsdk.a(hdmi_tx.o)
prefetch_abort_handler                            /home/leon/git/swp-report/iMX6_Platform_SDK/output/mx6dq/lib/libsdk.a(arm_abort.o)
                                                  /home/leon/git/swp-report/iMX6_Platform_SDK/output/mx6dq/lib/libsdk.a(vectors.o)
print_identify_data                               /home/leon/git/swp-report/iMX6_Platform_SDK/output/mx6dq/lib/libsdk.a(sata.o)
print_test_failed                                 /home/leon/git/swp-report/iMX6_Platform_SDK/output/mx6dq/obds/sabre_ai_rev_a/obj/apps/obds/src/obds.o
print_test_not_implemented                        /home/leon/git/swp-report/iMX6_Platform_SDK/output/mx6dq/obds/sabre_ai_rev_a/obj/apps/obds/src/obds.o
print_test_passed                                 /home/leon/git/swp-report/iMX6_Platform_SDK/output/mx6dq/obds/sabre_ai_rev_a/obj/apps/obds/src/obds.o
print_test_skipped                                /home/leon/git/swp-report/iMX6_Platform_SDK/output/mx6dq/obds/sabre_ai_rev_a/obj/apps/obds/src/obds.o
print_version                                     /home/leon/git/swp-report/iMX6_Platform_SDK/output/mx6dq/obds/sabre_ai_rev_a/obj/apps/common/print_version.o
                                                  /home/leon/git/swp-report/iMX6_Platform_SDK/output/mx6dq/obds/sabre_ai_rev_a/obj/apps/obds/src/obds.o
printf                                            /home/leon/riotboard/arm-2012.09/bin/../arm-none-eabi/lib//libc.a(lib_a-printf.o)
                                                  /home/leon/git/swp-report/iMX6_Platform_SDK/output/mx6dq/lib/libboard_sabre_ai_rev_a.a(board_hdmi.o)
                                                  /home/leon/git/swp-report/iMX6_Platform_SDK/output/mx6dq/lib/libboard_sabre_ai_rev_a.a(board_display.o)
                                                  /home/leon/git/swp-report/iMX6_Platform_SDK/output/mx6dq/lib/libsdk.a(abort_handler.o)
                                                  /home/leon/git/swp-report/iMX6_Platform_SDK/output/mx6dq/lib/libsdk.a(ipu_ic.o)
                                                  /home/leon/git/swp-report/iMX6_Platform_SDK/output/mx6dq/lib/libsdk.a(hdmi_common.o)
                                                  /home/leon/git/swp-report/iMX6_Platform_SDK/output/mx6dq/lib/libsdk.a(adv7180.o)
                                                  /home/leon/git/swp-report/iMX6_Platform_SDK/output/mx6dq/lib/libsdk.a(usdhc_sd.o)
                                                  /home/leon/git/swp-report/iMX6_Platform_SDK/output/mx6dq/lib/libsdk.a(usdhc_mmc.o)
                                                  /home/leon/git/swp-report/iMX6_Platform_SDK/output/mx6dq/lib/libsdk.a(usdhc_host.o)
                                                  /home/leon/git/swp-report/iMX6_Platform_SDK/output/mx6dq/lib/libsdk.a(usdhc.o)
                                                  /home/leon/git/swp-report/iMX6_Platform_SDK/output/mx6dq/lib/libsdk.a(usbh_drv.o)
                                                  /home/leon/git/swp-report/iMX6_Platform_SDK/output/mx6dq/lib/libsdk.a(usb_common.o)
                                                  /home/leon/git/swp-report/iMX6_Platform_SDK/output/mx6dq/lib/libsdk.a(ecspi.o)
                                                  /home/leon/git/swp-report/iMX6_Platform_SDK/output/mx6dq/lib/libsdk.a(sata.o)
                                                  /home/leon/git/swp-report/iMX6_Platform_SDK/output/mx6dq/lib/libsdk.a(ldb.o)
                                                  /home/leon/git/swp-report/iMX6_Platform_SDK/output/mx6dq/lib/libsdk.a(ipu_idmac.o)
                                                  /home/leon/git/swp-report/iMX6_Platform_SDK/output/mx6dq/lib/libsdk.a(ipu_di.o)
                                                  /home/leon/git/swp-report/iMX6_Platform_SDK/output/mx6dq/lib/libsdk.a(ipu_dc.o)
                                                  /home/leon/git/swp-report/iMX6_Platform_SDK/output/mx6dq/lib/libsdk.a(ipu_csi.o)
                                                  /home/leon/git/swp-report/iMX6_Platform_SDK/output/mx6dq/lib/libsdk.a(ipu_common.o)
                                                  /home/leon/git/swp-report/iMX6_Platform_SDK/output/mx6dq/lib/libsdk.a(ips_disp_panel.o)
                                                  /home/leon/git/swp-report/iMX6_Platform_SDK/output/mx6dq/lib/libsdk.a(hdmi_tx_phy.o)
                                                  /home/leon/git/swp-report/iMX6_Platform_SDK/output/mx6dq/lib/libsdk.a(hdmi_tx_audio.o)
                                                  /home/leon/git/swp-report/iMX6_Platform_SDK/output/mx6dq/lib/libsdk.a(hdmi_tx.o)
                                                  /home/leon/git/swp-report/iMX6_Platform_SDK/output/mx6dq/lib/libsdk.a(gpio.o)
                                                  /home/leon/git/swp-report/iMX6_Platform_SDK/output/mx6dq/lib/libsdk.a(enet_drv.o)
                                                  /home/leon/git/swp-report/iMX6_Platform_SDK/output/mx6dq/lib/libsdk.a(smd_sensor.o)
                                                  /home/leon/git/swp-report/iMX6_Platform_SDK/output/mx6dq/lib/libsdk.a(board_id.o)
                                                  /home/leon/git/swp-report/iMX6_Platform_SDK/output/mx6dq/lib/libsdk.a(wm8962.o)
                                                  /home/leon/git/swp-report/iMX6_Platform_SDK/output/mx6dq/lib/libsdk.a(wm8958_dac.o)
                                                  /home/leon/git/swp-report/iMX6_Platform_SDK/output/mx6dq/lib/libsdk.a(sgtl5000.o)
                                                  /home/leon/git/swp-report/iMX6_Platform_SDK/output/mx6dq/lib/libsdk.a(imx_spdif.o)
                                                  /home/leon/git/swp-report/iMX6_Platform_SDK/output/mx6dq/lib/libsdk.a(imx_esai.o)
                                                  /home/leon/git/swp-report/iMX6_Platform_SDK/output/mx6dq/lib/libsdk.a(imx-ssi.o)
                                                  /home/leon/git/swp-report/iMX6_Platform_SDK/output/mx6dq/lib/libsdk.a(cs42888.o)
                                                  /home/leon/git/swp-report/iMX6_Platform_SDK/output/mx6dq/lib/libsdk.a(text_color.o)
                                                  /home/leon/git/swp-report/iMX6_Platform_SDK/output/mx6dq/lib/libsdk.a(system_util.o)
                                                  /home/leon/git/swp-report/iMX6_Platform_SDK/output/mx6dq/lib/libsdk.a(menu.o)
                                                  /home/leon/git/swp-report/iMX6_Platform_SDK/output/mx6dq/lib/libsdk.a(interrupt.o)
                                                  /home/leon/git/swp-report/iMX6_Platform_SDK/output/mx6dq/obds/sabre_ai_rev_a/obj/sdk/drivers/usdhc/test/usdhc_test.o
                                                  /home/leon/git/swp-report/iMX6_Platform_SDK/output/mx6dq/obds/sabre_ai_rev_a/obj/sdk/drivers/usb/test/usb0_host_testmodes_test.o
                                                  /home/leon/git/swp-report/iMX6_Platform_SDK/output/mx6dq/obds/sabre_ai_rev_a/obj/sdk/drivers/usb/test/usb0_host_test.o
                                                  /home/leon/git/swp-report/iMX6_Platform_SDK/output/mx6dq/obds/sabre_ai_rev_a/obj/sdk/drivers/uart/test/uart_test.o
                                                  /home/leon/git/swp-report/iMX6_Platform_SDK/output/mx6dq/obds/sabre_ai_rev_a/obj/sdk/drivers/spi/test/spi_nor_numonyx.o
                                                  /home/leon/git/swp-report/iMX6_Platform_SDK/output/mx6dq/obds/sabre_ai_rev_a/obj/sdk/drivers/spi/test/imx_spi_nor_atmel.o
                                                  /home/leon/git/swp-report/iMX6_Platform_SDK/output/mx6dq/obds/sabre_ai_rev_a/obj/sdk/drivers/sata/test/sata_test.o
                                                  /home/leon/git/swp-report/iMX6_Platform_SDK/output/mx6dq/obds/sabre_ai_rev_a/obj/sdk/drivers/ipu/test/ips_display.o
                                                  /home/leon/git/swp-report/iMX6_Platform_SDK/output/mx6dq/obds/sabre_ai_rev_a/obj/sdk/drivers/hdmi/test/init_dma_data.o
                                                  /home/leon/git/swp-report/iMX6_Platform_SDK/output/mx6dq/obds/sabre_ai_rev_a/obj/sdk/drivers/hdmi/test/hdmi_test.o
                                                  /home/leon/git/swp-report/iMX6_Platform_SDK/output/mx6dq/obds/sabre_ai_rev_a/obj/sdk/drivers/camera/test/sensor_capture.o
                                                  /home/leon/git/swp-report/iMX6_Platform_SDK/output/mx6dq/obds/sabre_ai_rev_a/obj/sdk/drivers/camera/test/csi_test_mode.o
                                                  /home/leon/git/swp-report/iMX6_Platform_SDK/output/mx6dq/obds/sabre_ai_rev_a/obj/sdk/drivers/camera/test/camera_test.o
                                                  /home/leon/git/swp-report/iMX6_Platform_SDK/output/mx6dq/obds/sabre_ai_rev_a/obj/sdk/drivers/camera/test/adv7180_capture.o
                                                  /home/leon/git/swp-report/iMX6_Platform_SDK/output/mx6dq/obds/sabre_ai_rev_a/obj/sdk/drivers/audio/src/snd_card.o
                                                  /home/leon/git/swp-report/iMX6_Platform_SDK/output/mx6dq/obds/sabre_ai_rev_a/obj/sdk/common/pmic/pfuse/pf0100.o
                                                  /home/leon/git/swp-report/iMX6_Platform_SDK/output/mx6dq/obds/sabre_ai_rev_a/obj/sdk/common/ioexpander/test/max7310_test.o
                                                  /home/leon/git/swp-report/iMX6_Platform_SDK/output/mx6dq/obds/sabre_ai_rev_a/obj/apps/obds/src/tests/weim_nor_flash_test.o
                                                  /home/leon/git/swp-report/iMX6_Platform_SDK/output/mx6dq/obds/sabre_ai_rev_a/obj/apps/obds/src/tests/video_dec_adv7180.o
                                                  /home/leon/git/swp-report/iMX6_Platform_SDK/output/mx6dq/obds/sabre_ai_rev_a/obj/apps/obds/src/tests/video_dec_ARD_MBrst_from_cpu_expander.o
                                                  /home/leon/git/swp-report/iMX6_Platform_SDK/output/mx6dq/obds/sabre_ai_rev_a/obj/apps/obds/src/tests/video_dec_ARD_MB_reset_button.o
                                                  /home/leon/git/swp-report/iMX6_Platform_SDK/output/mx6dq/obds/sabre_ai_rev_a/obj/apps/obds/src/tests/usb_tests_obds.o
                                                  /home/leon/git/swp-report/iMX6_Platform_SDK/output/mx6dq/obds/sabre_ai_rev_a/obj/apps/obds/src/tests/touch_screen_max11801.o
                                                  /home/leon/git/swp-report/iMX6_Platform_SDK/output/mx6dq/obds/sabre_ai_rev_a/obj/apps/obds/src/tests/touch_screen.o
                                                  /home/leon/git/swp-report/iMX6_Platform_SDK/output/mx6dq/obds/sabre_ai_rev_a/obj/apps/obds/src/tests/snvs_srtc_test.o
                                                  /home/leon/git/swp-report/iMX6_Platform_SDK/output/mx6dq/obds/sabre_ai_rev_a/obj/apps/obds/src/tests/program_mac_address.o
                                                  /home/leon/git/swp-report/iMX6_Platform_SDK/output/mx6dq/obds/sabre_ai_rev_a/obj/apps/obds/src/tests/program_board_id.o
                                                  /home/leon/git/swp-report/iMX6_Platform_SDK/output/mx6dq/obds/sabre_ai_rev_a/obj/apps/obds/src/tests/pmic_mc13892.o
                                                  /home/leon/git/swp-report/iMX6_Platform_SDK/output/mx6dq/obds/sabre_ai_rev_a/obj/apps/obds/src/tests/pmic_max17135.o
                                                  /home/leon/git/swp-report/iMX6_Platform_SDK/output/mx6dq/obds/sabre_ai_rev_a/obj/apps/obds/src/tests/pmic_lt3589.o
                                                  /home/leon/git/swp-report/iMX6_Platform_SDK/output/mx6dq/obds/sabre_ai_rev_a/obj/apps/obds/src/tests/pmic_da9053.o
                                                  /home/leon/git/swp-report/iMX6_Platform_SDK/output/mx6dq/obds/sabre_ai_rev_a/obj/apps/obds/src/tests/mmcsd_test.o
                                                  /home/leon/git/swp-report/iMX6_Platform_SDK/output/mx6dq/obds/sabre_ai_rev_a/obj/apps/obds/src/tests/mlb_os81050.o
                                                  /home/leon/git/swp-report/iMX6_Platform_SDK/output/mx6dq/obds/sabre_ai_rev_a/obj/apps/obds/src/tests/imx_spi_nor_test.o
                                                  /home/leon/git/swp-report/iMX6_Platform_SDK/output/mx6dq/obds/sabre_ai_rev_a/obj/apps/obds/src/tests/i2c_eeprom_at24cxx_test.o
                                                  /home/leon/git/swp-report/iMX6_Platform_SDK/output/mx6dq/obds/sabre_ai_rev_a/obj/apps/obds/src/tests/i2c_device_zigbee_mc1323.o
                                                  /home/leon/git/swp-report/iMX6_Platform_SDK/output/mx6dq/obds/sabre_ai_rev_a/obj/apps/obds/src/tests/i2c_device_temp_sensor_emc1046.o
                                                  /home/leon/git/swp-report/iMX6_Platform_SDK/output/mx6dq/obds/sabre_ai_rev_a/obj/apps/obds/src/tests/i2c_device_id_check_p1003_tsc.o
                                                  /home/leon/git/swp-report/iMX6_Platform_SDK/output/mx6dq/obds/sabre_ai_rev_a/obj/apps/obds/src/tests/i2c_device_id_check_mma8451.o
                                                  /home/leon/git/swp-report/iMX6_Platform_SDK/output/mx6dq/obds/sabre_ai_rev_a/obj/apps/obds/src/tests/i2c_device_id_check_mma8450.o
                                                  /home/leon/git/swp-report/iMX6_Platform_SDK/output/mx6dq/obds/sabre_ai_rev_a/obj/apps/obds/src/tests/i2c_device_digital_compass_mag3112.o
                                                  /home/leon/git/swp-report/iMX6_Platform_SDK/output/mx6dq/obds/sabre_ai_rev_a/obj/apps/obds/src/tests/i2c_device_digital_compass_mag3110.o
                                                  /home/leon/git/swp-report/iMX6_Platform_SDK/output/mx6dq/obds/sabre_ai_rev_a/obj/apps/obds/src/tests/i2c_device_check_cs42888.o
                                                  /home/leon/git/swp-report/iMX6_Platform_SDK/output/mx6dq/obds/sabre_ai_rev_a/obj/apps/obds/src/tests/i2c_device_barometer_ppl3115.o
                                                  /home/leon/git/swp-report/iMX6_Platform_SDK/output/mx6dq/obds/sabre_ai_rev_a/obj/apps/obds/src/tests/i2c_check_light_sensor_isl29023.o
                                                  /home/leon/git/swp-report/iMX6_Platform_SDK/output/mx6dq/obds/sabre_ai_rev_a/obj/apps/obds/src/tests/gps_test.o
                                                  /home/leon/git/swp-report/iMX6_Platform_SDK/output/mx6dq/obds/sabre_ai_rev_a/obj/apps/obds/src/tests/gpio_led.o
                                                  /home/leon/git/swp-report/iMX6_Platform_SDK/output/mx6dq/obds/sabre_ai_rev_a/obj/apps/obds/src/tests/fm_tuner_si476x_test.o
                                                  /home/leon/git/swp-report/iMX6_Platform_SDK/output/mx6dq/obds/sabre_ai_rev_a/obj/apps/obds/src/tests/flexcan_test.o
                                                  /home/leon/git/swp-report/iMX6_Platform_SDK/output/mx6dq/obds/sabre_ai_rev_a/obj/apps/obds/src/tests/enet_mx6dldq_test.o
                                                  /home/leon/git/swp-report/iMX6_Platform_SDK/output/mx6dq/obds/sabre_ai_rev_a/obj/apps/obds/src/tests/display_test.o
                                                  /home/leon/git/swp-report/iMX6_Platform_SDK/output/mx6dq/obds/sabre_ai_rev_a/obj/apps/obds/src/tests/deserializer_ds90ur124.o
                                                  /home/leon/git/swp-report/iMX6_Platform_SDK/output/mx6dq/obds/sabre_ai_rev_a/obj/apps/obds/src/tests/audio_ssi_test.o
                                                  /home/leon/git/swp-report/iMX6_Platform_SDK/output/mx6dq/obds/sabre_ai_rev_a/obj/apps/obds/src/tests/audio_esai_test.o
                                                  /home/leon/git/swp-report/iMX6_Platform_SDK/output/mx6dq/obds/sabre_ai_rev_a/obj/apps/obds/src/tests/android_buttons_test.o
                                                  /home/leon/git/swp-report/iMX6_Platform_SDK/output/mx6dq/obds/sabre_ai_rev_a/obj/apps/obds/src/obds_utils.o
                                                  /home/leon/git/swp-report/iMX6_Platform_SDK/output/mx6dq/obds/sabre_ai_rev_a/obj/apps/obds/src/obds.o
                                                  /home/leon/git/swp-report/iMX6_Platform_SDK/output/mx6dq/obds/sabre_ai_rev_a/obj/apps/common/print_version.o
                                                  /home/leon/git/swp-report/iMX6_Platform_SDK/output/mx6dq/obds/sabre_ai_rev_a/obj/apps/common/print_clock_info.o
printf_buffer                                     /home/leon/git/swp-report/iMX6_Platform_SDK/output/mx6dq/lib/libsdk.a(sata.o)
printf_color                                      /home/leon/git/swp-report/iMX6_Platform_SDK/output/mx6dq/lib/libsdk.a(text_color.o)
                                                  /home/leon/git/swp-report/iMX6_Platform_SDK/output/mx6dq/lib/libsdk.a(system_util.o)
                                                  /home/leon/git/swp-report/iMX6_Platform_SDK/output/mx6dq/lib/libsdk.a(menu.o)
                                                  /home/leon/git/swp-report/iMX6_Platform_SDK/output/mx6dq/obds/sabre_ai_rev_a/obj/apps/obds/src/tests/program_mac_address.o
                                                  /home/leon/git/swp-report/iMX6_Platform_SDK/output/mx6dq/obds/sabre_ai_rev_a/obj/apps/obds/src/tests/program_board_id.o
                                                  /home/leon/git/swp-report/iMX6_Platform_SDK/output/mx6dq/obds/sabre_ai_rev_a/obj/apps/obds/src/obds.o
printf_hook                                       /home/leon/git/swp-report/iMX6_Platform_SDK/output/mx6dq/obds/sabre_ai_rev_a/obj/apps/obds/src/obds.o
program_board_id                                  /home/leon/git/swp-report/iMX6_Platform_SDK/output/mx6dq/obds/sabre_ai_rev_a/obj/apps/obds/src/tests/program_board_id.o
                                                  /home/leon/git/swp-report/iMX6_Platform_SDK/output/mx6dq/obds/sabre_ai_rev_a/obj/apps/obds/src/obds.o
program_board_id_fuses                            /home/leon/git/swp-report/iMX6_Platform_SDK/output/mx6dq/obds/sabre_ai_rev_a/obj/apps/obds/src/tests/program_board_id.o
program_mac_address                               /home/leon/git/swp-report/iMX6_Platform_SDK/output/mx6dq/obds/sabre_ai_rev_a/obj/apps/obds/src/tests/program_mac_address.o
                                                  /home/leon/git/swp-report/iMX6_Platform_SDK/output/mx6dq/obds/sabre_ai_rev_a/obj/apps/obds/src/obds.o
program_mac_address_fuses                         /home/leon/git/swp-report/iMX6_Platform_SDK/output/mx6dq/obds/sabre_ai_rev_a/obj/apps/obds/src/tests/program_mac_address.o
prompt_run_test                                   /home/leon/git/swp-report/iMX6_Platform_SDK/output/mx6dq/obds/sabre_ai_rev_a/obj/apps/obds/src/obds.o
                                                  /home/leon/git/swp-report/iMX6_Platform_SDK/output/mx6dq/obds/sabre_ai_rev_a/obj/apps/obds/src/tests/touch_screen.o
                                                  /home/leon/git/swp-report/iMX6_Platform_SDK/output/mx6dq/obds/sabre_ai_rev_a/obj/apps/obds/src/tests/pmic_mc13892.o
                                                  /home/leon/git/swp-report/iMX6_Platform_SDK/output/mx6dq/obds/sabre_ai_rev_a/obj/apps/obds/src/tests/pmic_lt3589.o
                                                  /home/leon/git/swp-report/iMX6_Platform_SDK/output/mx6dq/obds/sabre_ai_rev_a/obj/apps/obds/src/tests/pmic_da9053.o
                                                  /home/leon/git/swp-report/iMX6_Platform_SDK/output/mx6dq/obds/sabre_ai_rev_a/obj/apps/obds/src/tests/i2c_device_zigbee_mc1323.o
putc                                              /home/leon/riotboard/arm-2012.09/bin/../arm-none-eabi/lib//libc.a(lib_a-putc.o)
pwm1_iomux_config                                 /home/leon/git/swp-report/iMX6_Platform_SDK/output/mx6dq/lib/libboard_sabre_ai_rev_a.a(iomux_config.o)
pwm2_iomux_config                                 /home/leon/git/swp-report/iMX6_Platform_SDK/output/mx6dq/lib/libboard_sabre_ai_rev_a.a(iomux_config.o)
pwm3_iomux_config                                 /home/leon/git/swp-report/iMX6_Platform_SDK/output/mx6dq/lib/libboard_sabre_ai_rev_a.a(pwm3_iomux_config.o)
                                                  /home/leon/git/swp-report/iMX6_Platform_SDK/output/mx6dq/lib/libboard_sabre_ai_rev_a.a(iomux_config.o)
pwm4_iomux_config                                 /home/leon/git/swp-report/iMX6_Platform_SDK/output/mx6dq/lib/libboard_sabre_ai_rev_a.a(pwm4_iomux_config.o)
                                                  /home/leon/git/swp-report/iMX6_Platform_SDK/output/mx6dq/lib/libboard_sabre_ai_rev_a.a(iomux_config.o)
raise                                             /home/leon/riotboard/arm-2012.09/bin/../arm-none-eabi/lib//libc.a(lib_a-signal.o)
                                                  /home/leon/riotboard/arm-2012.09/bin/../arm-none-eabi/lib//libc.a(lib_a-abort.o)
read_input_string                                 /home/leon/git/swp-report/iMX6_Platform_SDK/output/mx6dq/lib/libsdk.a(system_util.o)
read_int                                          /home/leon/git/swp-report/iMX6_Platform_SDK/output/mx6dq/lib/libsdk.a(system_util.o)
read_mac_otp_registers                            /home/leon/git/swp-report/iMX6_Platform_SDK/output/mx6dq/obds/sabre_ai_rev_a/obj/apps/obds/src/tests/program_mac_address.o
read_usdhc_adma_mode                              /home/leon/git/swp-report/iMX6_Platform_SDK/output/mx6dq/lib/libsdk.a(usdhc.o)
                                                  /home/leon/git/swp-report/iMX6_Platform_SDK/output/mx6dq/lib/libsdk.a(usdhc_host.o)
read_usdhc_intr_mode                              /home/leon/git/swp-report/iMX6_Platform_SDK/output/mx6dq/lib/libsdk.a(usdhc.o)
                                                  /home/leon/git/swp-report/iMX6_Platform_SDK/output/mx6dq/lib/libsdk.a(usdhc_host.o)
                                                  /home/leon/git/swp-report/iMX6_Platform_SDK/output/mx6dq/obds/sabre_ai_rev_a/obj/sdk/drivers/usdhc/test/usdhc_test.o
realloc                                           /home/leon/riotboard/arm-2012.09/bin/../arm-none-eabi/lib//libc.a(lib_a-realloc.o)
                                                  /home/leon/git/swp-report/iMX6_Platform_SDK/output/mx6dq/lib/libsdk.a(system_util.o)
register_interrupt_routine                        /home/leon/git/swp-report/iMX6_Platform_SDK/output/mx6dq/lib/libsdk.a(interrupt.o)
                                                  /home/leon/git/swp-report/iMX6_Platform_SDK/output/mx6dq/lib/libsdk.a(epit.o)
                                                  /home/leon/git/swp-report/iMX6_Platform_SDK/output/mx6dq/lib/libsdk.a(usdhc.o)
                                                  /home/leon/git/swp-report/iMX6_Platform_SDK/output/mx6dq/lib/libsdk.a(imx_uart.o)
                                                  /home/leon/git/swp-report/iMX6_Platform_SDK/output/mx6dq/lib/libsdk.a(ipu_common.o)
                                                  /home/leon/git/swp-report/iMX6_Platform_SDK/output/mx6dq/lib/libsdk.a(imx_i2c.o)
                                                  /home/leon/git/swp-report/iMX6_Platform_SDK/output/mx6dq/obds/sabre_ai_rev_a/obj/sdk/drivers/hdmi/test/hdmi_test.o
report_test_results                               /home/leon/git/swp-report/iMX6_Platform_SDK/output/mx6dq/obds/sabre_ai_rev_a/obj/apps/obds/src/obds.o
reset_usb_hub                                     /home/leon/git/swp-report/iMX6_Platform_SDK/output/mx6dq/lib/libboard_sabre_ai_rev_a.a(board_usb.o)
run_all_tests                                     /home/leon/git/swp-report/iMX6_Platform_SDK/output/mx6dq/obds/sabre_ai_rev_a/obj/apps/obds/src/obds.o
run_test                                          /home/leon/git/swp-report/iMX6_Platform_SDK/output/mx6dq/obds/sabre_ai_rev_a/obj/apps/obds/src/obds.o
sata_clock_disable                                /home/leon/git/swp-report/iMX6_Platform_SDK/output/mx6dq/lib/libboard_sabre_ai_rev_a.a(board_sata.o)
                                                  /home/leon/git/swp-report/iMX6_Platform_SDK/output/mx6dq/obds/sabre_ai_rev_a/obj/sdk/drivers/sata/test/sata_test.o
sata_clock_enable                                 /home/leon/git/swp-report/iMX6_Platform_SDK/output/mx6dq/lib/libboard_sabre_ai_rev_a.a(board_sata.o)
                                                  /home/leon/git/swp-report/iMX6_Platform_SDK/output/mx6dq/lib/libsdk.a(sata.o)
sata_deinit                                       /home/leon/git/swp-report/iMX6_Platform_SDK/output/mx6dq/lib/libsdk.a(sata.o)
sata_disk_read_sector                             /home/leon/git/swp-report/iMX6_Platform_SDK/output/mx6dq/lib/libsdk.a(sata.o)
                                                  /home/leon/git/swp-report/iMX6_Platform_SDK/output/mx6dq/obds/sabre_ai_rev_a/obj/sdk/drivers/sata/test/sata_test.o
sata_disk_write_sector                            /home/leon/git/swp-report/iMX6_Platform_SDK/output/mx6dq/lib/libsdk.a(sata.o)
                                                  /home/leon/git/swp-report/iMX6_Platform_SDK/output/mx6dq/obds/sabre_ai_rev_a/obj/sdk/drivers/sata/test/sata_test.o
sata_dma_read_sector                              /home/leon/git/swp-report/iMX6_Platform_SDK/output/mx6dq/lib/libsdk.a(sata.o)
sata_dma_write_sector                             /home/leon/git/swp-report/iMX6_Platform_SDK/output/mx6dq/lib/libsdk.a(sata.o)
sata_get_phy_src_clk                              /home/leon/git/swp-report/iMX6_Platform_SDK/output/mx6dq/lib/libboard_sabre_ai_rev_a.a(board_sata.o)
                                                  /home/leon/git/swp-report/iMX6_Platform_SDK/output/mx6dq/lib/libsdk.a(sata.o)
sata_identify                                     /home/leon/git/swp-report/iMX6_Platform_SDK/output/mx6dq/lib/libsdk.a(sata.o)
                                                  /home/leon/git/swp-report/iMX6_Platform_SDK/output/mx6dq/obds/sabre_ai_rev_a/obj/sdk/drivers/sata/test/sata_test.o
sata_init                                         /home/leon/git/swp-report/iMX6_Platform_SDK/output/mx6dq/lib/libsdk.a(sata.o)
                                                  /home/leon/git/swp-report/iMX6_Platform_SDK/output/mx6dq/obds/sabre_ai_rev_a/obj/sdk/drivers/sata/test/sata_test.o
sata_phy_iomux_config                             /home/leon/git/swp-report/iMX6_Platform_SDK/output/mx6dq/lib/libboard_sabre_ai_rev_a.a(iomux_config.o)
sata_pio_read_sector                              /home/leon/git/swp-report/iMX6_Platform_SDK/output/mx6dq/lib/libsdk.a(sata.o)
sata_pio_write_sector                             /home/leon/git/swp-report/iMX6_Platform_SDK/output/mx6dq/lib/libsdk.a(sata.o)
sata_power_off                                    /home/leon/git/swp-report/iMX6_Platform_SDK/output/mx6dq/lib/libboard_sabre_ai_rev_a.a(board_sata.o)
                                                  /home/leon/git/swp-report/iMX6_Platform_SDK/output/mx6dq/obds/sabre_ai_rev_a/obj/sdk/drivers/sata/test/sata_test.o
sata_power_on                                     /home/leon/git/swp-report/iMX6_Platform_SDK/output/mx6dq/lib/libboard_sabre_ai_rev_a.a(board_sata.o)
                                                  /home/leon/git/swp-report/iMX6_Platform_SDK/output/mx6dq/lib/libsdk.a(sata.o)
sata_test                                         /home/leon/git/swp-report/iMX6_Platform_SDK/output/mx6dq/obds/sabre_ai_rev_a/obj/sdk/drivers/sata/test/sata_test.o
                                                  /home/leon/git/swp-report/iMX6_Platform_SDK/output/mx6dq/obds/sabre_ai_rev_a/obj/apps/obds/src/obds.o
scu_disable_maintenance_broadcast                 /home/leon/git/swp-report/iMX6_Platform_SDK/output/mx6dq/lib/libsdk.a(cortexA9.o)
scu_enable                                        /home/leon/git/swp-report/iMX6_Platform_SDK/output/mx6dq/lib/libsdk.a(cortexA9.o)
scu_enable_maintenance_broadcast                  /home/leon/git/swp-report/iMX6_Platform_SDK/output/mx6dq/lib/libsdk.a(cortexA9.o)
scu_get_cpus_in_smp                               /home/leon/git/swp-report/iMX6_Platform_SDK/output/mx6dq/lib/libsdk.a(cortexA9.o)
scu_join_smp                                      /home/leon/git/swp-report/iMX6_Platform_SDK/output/mx6dq/lib/libsdk.a(cortexA9.o)
scu_leave_smp                                     /home/leon/git/swp-report/iMX6_Platform_SDK/output/mx6dq/lib/libsdk.a(cortexA9.o)
scu_secure_invalidate                             /home/leon/git/swp-report/iMX6_Platform_SDK/output/mx6dq/lib/libsdk.a(cortexA9.o)
sd_if_cmd_arg                                     /home/leon/git/swp-report/iMX6_Platform_SDK/output/mx6dq/lib/libsdk.a(usdhc_sd.o)
sd_init                                           /home/leon/git/swp-report/iMX6_Platform_SDK/output/mx6dq/lib/libsdk.a(usdhc_sd.o)
                                                  /home/leon/git/swp-report/iMX6_Platform_SDK/output/mx6dq/lib/libsdk.a(usdhc.o)
sd_ocr_value                                      /home/leon/git/swp-report/iMX6_Platform_SDK/output/mx6dq/lib/libsdk.a(usdhc_sd.o)
sd_voltage_validation                             /home/leon/git/swp-report/iMX6_Platform_SDK/output/mx6dq/lib/libsdk.a(usdhc_sd.o)
                                                  /home/leon/git/swp-report/iMX6_Platform_SDK/output/mx6dq/lib/libsdk.a(usdhc.o)
sdma_iomux_config                                 /home/leon/git/swp-report/iMX6_Platform_SDK/output/mx6dq/lib/libboard_sabre_ai_rev_a.a(iomux_config.o)
search_panel                                      /home/leon/git/swp-report/iMX6_Platform_SDK/output/mx6dq/lib/libsdk.a(ips_disp_panel.o)
                                                  /home/leon/git/swp-report/iMX6_Platform_SDK/output/mx6dq/obds/sabre_ai_rev_a/obj/sdk/drivers/ipu/test/ips_display.o
                                                  /home/leon/git/swp-report/iMX6_Platform_SDK/output/mx6dq/obds/sabre_ai_rev_a/obj/sdk/drivers/camera/test/sensor_capture.o
                                                  /home/leon/git/swp-report/iMX6_Platform_SDK/output/mx6dq/obds/sabre_ai_rev_a/obj/sdk/drivers/camera/test/csi_test_mode.o
                                                  /home/leon/git/swp-report/iMX6_Platform_SDK/output/mx6dq/obds/sabre_ai_rev_a/obj/sdk/drivers/camera/test/adv7180_capture.o
                                                  /home/leon/git/swp-report/iMX6_Platform_SDK/output/mx6dq/obds/sabre_ai_rev_a/obj/apps/obds/src/tests/display_test.o
select_tests                                      /home/leon/git/swp-report/iMX6_Platform_SDK/output/mx6dq/obds/sabre_ai_rev_a/obj/apps/obds/src/obds.o
sensor_af_trigger                                 /home/leon/git/swp-report/iMX6_Platform_SDK/output/mx6dq/lib/libsdk.a(smd_sensor.o)
                                                  /home/leon/git/swp-report/iMX6_Platform_SDK/output/mx6dq/obds/sabre_ai_rev_a/obj/sdk/drivers/camera/test/sensor_capture.o
sensor_autofocus_init                             /home/leon/git/swp-report/iMX6_Platform_SDK/output/mx6dq/lib/libsdk.a(smd_sensor.o)
                                                  /home/leon/git/swp-report/iMX6_Platform_SDK/output/mx6dq/obds/sabre_ai_rev_a/obj/sdk/drivers/camera/test/sensor_capture.o
sensor_capture                                    /home/leon/git/swp-report/iMX6_Platform_SDK/output/mx6dq/obds/sabre_ai_rev_a/obj/sdk/drivers/camera/test/sensor_capture.o
sensor_clock_setting                              /home/leon/git/swp-report/iMX6_Platform_SDK/output/mx6dq/lib/libboard_sabre_ai_rev_a.a(board_camera.o)
                                                  /home/leon/git/swp-report/iMX6_Platform_SDK/output/mx6dq/lib/libsdk.a(smd_sensor.o)
sensor_config                                     /home/leon/git/swp-report/iMX6_Platform_SDK/output/mx6dq/lib/libsdk.a(smd_sensor.o)
                                                  /home/leon/git/swp-report/iMX6_Platform_SDK/output/mx6dq/obds/sabre_ai_rev_a/obj/sdk/drivers/camera/test/sensor_capture.o
sensor_init                                       /home/leon/git/swp-report/iMX6_Platform_SDK/output/mx6dq/lib/libsdk.a(smd_sensor.o)
sensor_reset                                      /home/leon/git/swp-report/iMX6_Platform_SDK/output/mx6dq/lib/libboard_sabre_ai_rev_a.a(board_camera.o)
                                                  /home/leon/git/swp-report/iMX6_Platform_SDK/output/mx6dq/lib/libsdk.a(smd_sensor.o)
sensor_search                                     /home/leon/git/swp-report/iMX6_Platform_SDK/output/mx6dq/lib/libsdk.a(smd_sensor.o)
                                                  /home/leon/git/swp-report/iMX6_Platform_SDK/output/mx6dq/obds/sabre_ai_rev_a/obj/sdk/drivers/camera/test/sensor_capture.o
sensor_standby                                    /home/leon/git/swp-report/iMX6_Platform_SDK/output/mx6dq/lib/libboard_sabre_ai_rev_a.a(board_camera.o)
                                                  /home/leon/git/swp-report/iMX6_Platform_SDK/output/mx6dq/obds/sabre_ai_rev_a/obj/sdk/drivers/camera/test/sensor_capture.o
set_background_margin                             /home/leon/git/swp-report/iMX6_Platform_SDK/output/mx6dq/obds/sabre_ai_rev_a/obj/sdk/drivers/ipu/test/ipu_image.o
set_card_access_mode                              /home/leon/git/swp-report/iMX6_Platform_SDK/output/mx6dq/lib/libsdk.a(usdhc.o)
                                                  /home/leon/git/swp-report/iMX6_Platform_SDK/output/mx6dq/obds/sabre_ai_rev_a/obj/sdk/drivers/usdhc/test/usdhc_test.o
setlocale                                         /home/leon/riotboard/arm-2012.09/bin/../arm-none-eabi/lib//libc.a(lib_a-locale.o)
sgtl5000                                          /home/leon/git/swp-report/iMX6_Platform_SDK/output/mx6dq/lib/libsdk.a(sgtl5000.o)
                                                  /home/leon/git/swp-report/iMX6_Platform_SDK/output/mx6dq/obds/sabre_ai_rev_a/obj/sdk/drivers/audio/src/snd_card.o
sgtl5000_deinit                                   /home/leon/git/swp-report/iMX6_Platform_SDK/output/mx6dq/lib/libsdk.a(sgtl5000.o)
sgtl5000_i2c_req                                  /home/leon/git/swp-report/iMX6_Platform_SDK/output/mx6dq/lib/libsdk.a(sgtl5000.o)
sgtl5000_i2s_config                               /home/leon/git/swp-report/iMX6_Platform_SDK/output/mx6dq/lib/libsdk.a(sgtl5000.o)
sgtl5000_init                                     /home/leon/git/swp-report/iMX6_Platform_SDK/output/mx6dq/lib/libsdk.a(sgtl5000.o)
sgtl5000_ops                                      /home/leon/git/swp-report/iMX6_Platform_SDK/output/mx6dq/lib/libsdk.a(sgtl5000.o)
show_board_id                                     /home/leon/git/swp-report/iMX6_Platform_SDK/output/mx6dq/lib/libsdk.a(board_id.o)
                                                  /home/leon/git/swp-report/iMX6_Platform_SDK/output/mx6dq/obds/sabre_ai_rev_a/obj/apps/obds/src/tests/program_board_id.o
show_boot_switch_info                             /home/leon/git/swp-report/iMX6_Platform_SDK/output/mx6dq/obds/sabre_ai_rev_a/obj/apps/obds/src/obds_utils.o
                                                  /home/leon/git/swp-report/iMX6_Platform_SDK/output/mx6dq/obds/sabre_ai_rev_a/obj/apps/obds/src/obds.o
show_ddr_config                                   /home/leon/git/swp-report/iMX6_Platform_SDK/output/mx6dq/obds/sabre_ai_rev_a/obj/apps/common/print_clock_info.o
                                                  /home/leon/git/swp-report/iMX6_Platform_SDK/output/mx6dq/obds/sabre_ai_rev_a/obj/apps/obds/src/obds.o
show_freq                                         /home/leon/git/swp-report/iMX6_Platform_SDK/output/mx6dq/obds/sabre_ai_rev_a/obj/apps/common/print_clock_info.o
                                                  /home/leon/git/swp-report/iMX6_Platform_SDK/output/mx6dq/obds/sabre_ai_rev_a/obj/apps/obds/src/obds.o
si476x_i2c_req                                    /home/leon/git/swp-report/iMX6_Platform_SDK/output/mx6dq/obds/sabre_ai_rev_a/obj/apps/obds/src/tests/fm_tuner_si476x_test.o
si476x_test_enable                                /home/leon/git/swp-report/iMX6_Platform_SDK/output/mx6dq/obds/sabre_ai_rev_a/obj/apps/obds/src/tests/fm_tuner_si476x_test.o
si476x_test_main                                  /home/leon/git/swp-report/iMX6_Platform_SDK/output/mx6dq/obds/sabre_ai_rev_a/obj/apps/obds/src/tests/fm_tuner_si476x_test.o
signal                                            /home/leon/riotboard/arm-2012.09/bin/../arm-none-eabi/lib//libc.a(lib_a-signal.o)
sil9024_hdmi_power_on1                            /home/leon/git/swp-report/iMX6_Platform_SDK/output/mx6dq/obds/sabre_ai_rev_a/obj/apps/obds/src/tests/pmic_lt3589.o
sjc_iomux_config                                  /home/leon/git/swp-report/iMX6_Platform_SDK/output/mx6dq/lib/libboard_sabre_ai_rev_a.a(sjc_iomux_config.o)
                                                  /home/leon/git/swp-report/iMX6_Platform_SDK/output/mx6dq/lib/libboard_sabre_ai_rev_a.a(iomux_config.o)
snd_card                                          /home/leon/git/swp-report/iMX6_Platform_SDK/output/mx6dq/obds/sabre_ai_rev_a/obj/apps/obds/src/tests/audio_ssi_test.o
                                                  /home/leon/git/swp-report/iMX6_Platform_SDK/output/mx6dq/obds/sabre_ai_rev_a/obj/apps/obds/src/tests/i2c_device_check_cs42888.o
                                                  /home/leon/git/swp-report/iMX6_Platform_SDK/output/mx6dq/obds/sabre_ai_rev_a/obj/apps/obds/src/tests/audio_esai_test.o
snd_card_esai                                     /home/leon/git/swp-report/iMX6_Platform_SDK/output/mx6dq/obds/sabre_ai_rev_a/obj/sdk/drivers/audio/src/snd_card.o
                                                  /home/leon/git/swp-report/iMX6_Platform_SDK/output/mx6dq/obds/sabre_ai_rev_a/obj/apps/obds/src/tests/i2c_device_check_cs42888.o
                                                  /home/leon/git/swp-report/iMX6_Platform_SDK/output/mx6dq/obds/sabre_ai_rev_a/obj/apps/obds/src/tests/audio_esai_test.o
snd_card_spdif                                    /home/leon/git/swp-report/iMX6_Platform_SDK/output/mx6dq/obds/sabre_ai_rev_a/obj/sdk/drivers/audio/src/snd_card.o
snd_card_ssi_sgtl5000                             /home/leon/git/swp-report/iMX6_Platform_SDK/output/mx6dq/obds/sabre_ai_rev_a/obj/sdk/drivers/audio/src/snd_card.o
                                                  /home/leon/git/swp-report/iMX6_Platform_SDK/output/mx6dq/obds/sabre_ai_rev_a/obj/apps/obds/src/tests/audio_ssi_test.o
snd_card_ssi_wm8958                               /home/leon/git/swp-report/iMX6_Platform_SDK/output/mx6dq/obds/sabre_ai_rev_a/obj/sdk/drivers/audio/src/snd_card.o
snd_card_ssi_wm8962                               /home/leon/git/swp-report/iMX6_Platform_SDK/output/mx6dq/obds/sabre_ai_rev_a/obj/sdk/drivers/audio/src/snd_card.o
snvs_iomux_config                                 /home/leon/git/swp-report/iMX6_Platform_SDK/output/mx6dq/lib/libboard_sabre_ai_rev_a.a(iomux_config.o)
snvs_srtc_test                                    /home/leon/git/swp-report/iMX6_Platform_SDK/output/mx6dq/obds/sabre_ai_rev_a/obj/apps/obds/src/tests/snvs_srtc_test.o
                                                  /home/leon/git/swp-report/iMX6_Platform_SDK/output/mx6dq/obds/sabre_ai_rev_a/obj/apps/obds/src/obds.o
soc_sbmr1                                         /home/leon/git/swp-report/iMX6_Platform_SDK/output/mx6dq/obds/sabre_ai_rev_a/obj/apps/obds/src/obds_utils.o
soc_sbmr2                                         /home/leon/git/swp-report/iMX6_Platform_SDK/output/mx6dq/obds/sabre_ai_rev_a/obj/apps/obds/src/obds_utils.o
spdif_clk_cfg                                     /home/leon/git/swp-report/iMX6_Platform_SDK/output/mx6dq/lib/libboard_sabre_ai_rev_a.a(board_audio.o)
                                                  /home/leon/git/swp-report/iMX6_Platform_SDK/output/mx6dq/lib/libsdk.a(imx_spdif.o)
spdif_config                                      /home/leon/git/swp-report/iMX6_Platform_SDK/output/mx6dq/lib/libsdk.a(imx_spdif.o)
spdif_deinit                                      /home/leon/git/swp-report/iMX6_Platform_SDK/output/mx6dq/lib/libsdk.a(imx_spdif.o)
spdif_get_tx_clk_freq                             /home/leon/git/swp-report/iMX6_Platform_SDK/output/mx6dq/lib/libboard_sabre_ai_rev_a.a(board_audio.o)
                                                  /home/leon/git/swp-report/iMX6_Platform_SDK/output/mx6dq/lib/libsdk.a(imx_spdif.o)
spdif_init                                        /home/leon/git/swp-report/iMX6_Platform_SDK/output/mx6dq/lib/libsdk.a(imx_spdif.o)
spdif_iomux_config                                /home/leon/git/swp-report/iMX6_Platform_SDK/output/mx6dq/lib/libboard_sabre_ai_rev_a.a(spdif_iomux_config.o)
                                                  /home/leon/git/swp-report/iMX6_Platform_SDK/output/mx6dq/lib/libboard_sabre_ai_rev_a.a(iomux_config.o)
                                                  /home/leon/git/swp-report/iMX6_Platform_SDK/output/mx6dq/lib/libsdk.a(imx_spdif.o)
spdif_write_fifo                                  /home/leon/git/swp-report/iMX6_Platform_SDK/output/mx6dq/lib/libsdk.a(imx_spdif.o)
spi_nor_erase                                     /home/leon/git/swp-report/iMX6_Platform_SDK/output/mx6dq/obds/sabre_ai_rev_a/obj/apps/obds/src/tests/imx_spi_nor_test.o
spi_nor_erase_atmel                               /home/leon/git/swp-report/iMX6_Platform_SDK/output/mx6dq/obds/sabre_ai_rev_a/obj/sdk/drivers/spi/test/imx_spi_nor_atmel.o
                                                  /home/leon/git/swp-report/iMX6_Platform_SDK/output/mx6dq/obds/sabre_ai_rev_a/obj/apps/obds/src/tests/imx_spi_nor_test.o
spi_nor_erase_numonyx                             /home/leon/git/swp-report/iMX6_Platform_SDK/output/mx6dq/obds/sabre_ai_rev_a/obj/sdk/drivers/spi/test/spi_nor_numonyx.o
                                                  /home/leon/git/swp-report/iMX6_Platform_SDK/output/mx6dq/obds/sabre_ai_rev_a/obj/apps/obds/src/tests/imx_spi_nor_test.o
spi_nor_flash_type                                /home/leon/git/swp-report/iMX6_Platform_SDK/output/mx6dq/obds/sabre_ai_rev_a/obj/apps/obds/src/tests/imx_spi_nor_test.o
spi_nor_query                                     /home/leon/git/swp-report/iMX6_Platform_SDK/output/mx6dq/obds/sabre_ai_rev_a/obj/apps/obds/src/tests/imx_spi_nor_test.o
spi_nor_query_atmel                               /home/leon/git/swp-report/iMX6_Platform_SDK/output/mx6dq/obds/sabre_ai_rev_a/obj/sdk/drivers/spi/test/imx_spi_nor_atmel.o
                                                  /home/leon/git/swp-report/iMX6_Platform_SDK/output/mx6dq/obds/sabre_ai_rev_a/obj/apps/obds/src/tests/imx_spi_nor_test.o
spi_nor_query_numonyx                             /home/leon/git/swp-report/iMX6_Platform_SDK/output/mx6dq/obds/sabre_ai_rev_a/obj/sdk/drivers/spi/test/spi_nor_numonyx.o
                                                  /home/leon/git/swp-report/iMX6_Platform_SDK/output/mx6dq/obds/sabre_ai_rev_a/obj/apps/obds/src/tests/imx_spi_nor_test.o
spi_nor_read                                      /home/leon/git/swp-report/iMX6_Platform_SDK/output/mx6dq/obds/sabre_ai_rev_a/obj/apps/obds/src/tests/imx_spi_nor_test.o
spi_nor_read_atmel                                /home/leon/git/swp-report/iMX6_Platform_SDK/output/mx6dq/obds/sabre_ai_rev_a/obj/sdk/drivers/spi/test/imx_spi_nor_atmel.o
                                                  /home/leon/git/swp-report/iMX6_Platform_SDK/output/mx6dq/obds/sabre_ai_rev_a/obj/apps/obds/src/tests/imx_spi_nor_test.o
spi_nor_read_numonyx                              /home/leon/git/swp-report/iMX6_Platform_SDK/output/mx6dq/obds/sabre_ai_rev_a/obj/sdk/drivers/spi/test/spi_nor_numonyx.o
                                                  /home/leon/git/swp-report/iMX6_Platform_SDK/output/mx6dq/obds/sabre_ai_rev_a/obj/apps/obds/src/tests/imx_spi_nor_test.o
spi_nor_rx_buf                                    /home/leon/git/swp-report/iMX6_Platform_SDK/output/mx6dq/obds/sabre_ai_rev_a/obj/apps/obds/src/tests/imx_spi_nor_test.o
spi_nor_test                                      /home/leon/git/swp-report/iMX6_Platform_SDK/output/mx6dq/obds/sabre_ai_rev_a/obj/apps/obds/src/tests/imx_spi_nor_test.o
                                                  /home/leon/git/swp-report/iMX6_Platform_SDK/output/mx6dq/obds/sabre_ai_rev_a/obj/apps/obds/src/obds.o
spi_nor_tx_buf                                    /home/leon/git/swp-report/iMX6_Platform_SDK/output/mx6dq/obds/sabre_ai_rev_a/obj/apps/obds/src/tests/imx_spi_nor_test.o
spi_nor_write                                     /home/leon/git/swp-report/iMX6_Platform_SDK/output/mx6dq/obds/sabre_ai_rev_a/obj/apps/obds/src/tests/imx_spi_nor_test.o
spi_nor_write_atmel                               /home/leon/git/swp-report/iMX6_Platform_SDK/output/mx6dq/obds/sabre_ai_rev_a/obj/sdk/drivers/spi/test/imx_spi_nor_atmel.o
                                                  /home/leon/git/swp-report/iMX6_Platform_SDK/output/mx6dq/obds/sabre_ai_rev_a/obj/apps/obds/src/tests/imx_spi_nor_test.o
spi_nor_write_numonyx                             /home/leon/git/swp-report/iMX6_Platform_SDK/output/mx6dq/obds/sabre_ai_rev_a/obj/sdk/drivers/spi/test/spi_nor_numonyx.o
                                                  /home/leon/git/swp-report/iMX6_Platform_SDK/output/mx6dq/obds/sabre_ai_rev_a/obj/apps/obds/src/tests/imx_spi_nor_test.o
sprintf                                           /home/leon/riotboard/arm-2012.09/bin/../arm-none-eabi/lib//libc.a(lib_a-sprintf.o)
                                                  /home/leon/git/swp-report/iMX6_Platform_SDK/output/mx6dq/lib/libsdk.a(board_id.o)
                                                  /home/leon/git/swp-report/iMX6_Platform_SDK/output/mx6dq/obds/sabre_ai_rev_a/obj/apps/obds/src/tests/program_mac_address.o
                                                  /home/leon/git/swp-report/iMX6_Platform_SDK/output/mx6dq/obds/sabre_ai_rev_a/obj/apps/obds/src/obds.o
src_iomux_config                                  /home/leon/git/swp-report/iMX6_Platform_SDK/output/mx6dq/lib/libboard_sabre_ai_rev_a.a(iomux_config.o)
ssi_config                                        /home/leon/git/swp-report/iMX6_Platform_SDK/output/mx6dq/lib/libsdk.a(imx-ssi.o)
ssi_deinit                                        /home/leon/git/swp-report/iMX6_Platform_SDK/output/mx6dq/lib/libsdk.a(imx-ssi.o)
ssi_init                                          /home/leon/git/swp-report/iMX6_Platform_SDK/output/mx6dq/lib/libsdk.a(imx-ssi.o)
ssi_read_fifo                                     /home/leon/git/swp-report/iMX6_Platform_SDK/output/mx6dq/lib/libsdk.a(imx-ssi.o)
ssi_write_fifo                                    /home/leon/git/swp-report/iMX6_Platform_SDK/output/mx6dq/lib/libsdk.a(imx-ssi.o)
strcat                                            /home/leon/riotboard/arm-2012.09/bin/../arm-none-eabi/lib//libc.a(lib_a-strcat.o)
                                                  /home/leon/git/swp-report/iMX6_Platform_SDK/output/mx6dq/obds/sabre_ai_rev_a/obj/apps/obds/src/obds.o
strcmp                                            /home/leon/riotboard/arm-2012.09/bin/../arm-none-eabi/lib//libc.a(lib_a-strcmp.o)
                                                  /home/leon/riotboard/arm-2012.09/bin/../arm-none-eabi/lib//libc.a(lib_a-locale.o)
                                                  /home/leon/git/swp-report/iMX6_Platform_SDK/output/mx6dq/lib/libboard_sabre_ai_rev_a.a(board_display.o)
                                                  /home/leon/git/swp-report/iMX6_Platform_SDK/output/mx6dq/lib/libsdk.a(ipu_ic.o)
                                                  /home/leon/git/swp-report/iMX6_Platform_SDK/output/mx6dq/lib/libsdk.a(ips_disp_panel.o)
                                                  /home/leon/git/swp-report/iMX6_Platform_SDK/output/mx6dq/obds/sabre_ai_rev_a/obj/apps/obds/src/obds.o
strcpy                                            /home/leon/riotboard/arm-2012.09/bin/../arm-none-eabi/lib//libc.a(lib_a-strcpy.o)
                                                  /home/leon/riotboard/arm-2012.09/bin/../arm-none-eabi/lib//libc.a(lib_a-strcat.o)
                                                  /home/leon/git/swp-report/iMX6_Platform_SDK/output/mx6dq/obds/sabre_ai_rev_a/obj/apps/obds/src/obds.o
strlen                                            /home/leon/riotboard/arm-2012.09/bin/../arm-none-eabi/lib//libc.a(lib_a-strlen.o)
                                                  /home/leon/git/swp-report/iMX6_Platform_SDK/output/mx6dq/lib/libsdk.a(runtime_support.o)
                                                  /home/leon/riotboard/arm-2012.09/bin/../arm-none-eabi/lib//libc.a(lib_a-svfiprintf.o)
                                                  /home/leon/riotboard/arm-2012.09/bin/../arm-none-eabi/lib//libc.a(lib_a-vfprintf.o)
                                                  /home/leon/riotboard/arm-2012.09/bin/../arm-none-eabi/lib//libc.a(lib_a-vfiprintf.o)
                                                  /home/leon/riotboard/arm-2012.09/bin/../arm-none-eabi/lib//libc.a(lib_a-svfprintf.o)
                                                  /home/leon/git/swp-report/iMX6_Platform_SDK/output/mx6dq/lib/libsdk.a(menu.o)
strncasecmp                                       /home/leon/riotboard/arm-2012.09/bin/../arm-none-eabi/lib//libc.a(lib_a-strncasecmp.o)
                                                  /home/leon/git/swp-report/iMX6_Platform_SDK/output/mx6dq/lib/libsdk.a(menu.o)
strtok                                            /home/leon/riotboard/arm-2012.09/bin/../arm-none-eabi/lib//libc.a(lib_a-strtok.o)
                                                  /home/leon/git/swp-report/iMX6_Platform_SDK/output/mx6dq/obds/sabre_ai_rev_a/obj/apps/obds/src/obds.o
strtok_r                                          /home/leon/riotboard/arm-2012.09/bin/../arm-none-eabi/lib//libc.a(lib_a-strtok_r.o)
swap32                                            /home/leon/git/swp-report/iMX6_Platform_SDK/output/mx6dq/lib/libsdk.a(usb_common.o)
system_time_init                                  /home/leon/git/swp-report/iMX6_Platform_SDK/output/mx6dq/lib/libsdk.a(timer.o)
                                                  /home/leon/git/swp-report/iMX6_Platform_SDK/output/mx6dq/obds/sabre_ai_rev_a/obj/apps/common/platform_init.o
tftlcd_backlight_en                               /home/leon/git/swp-report/iMX6_Platform_SDK/output/mx6dq/lib/libboard_sabre_ai_rev_a.a(board_display.o)
                                                  /home/leon/git/swp-report/iMX6_Platform_SDK/output/mx6dq/lib/libsdk.a(ips_disp_panel.o)
tftlcd_reset                                      /home/leon/git/swp-report/iMX6_Platform_SDK/output/mx6dq/lib/libboard_sabre_ai_rev_a.a(board_display.o)
                                                  /home/leon/git/swp-report/iMX6_Platform_SDK/output/mx6dq/lib/libsdk.a(ips_disp_panel.o)
time_get_microseconds                             /home/leon/git/swp-report/iMX6_Platform_SDK/output/mx6dq/lib/libsdk.a(timer.o)
                                                  /home/leon/git/swp-report/iMX6_Platform_SDK/output/mx6dq/lib/libsdk.a(runtime_support.o)
top_of_stacks                                     /home/leon/git/swp-report/iMX6_Platform_SDK/output/mx6dq/lib/libsdk.a(startup.o)
total_tests                                       /home/leon/git/swp-report/iMX6_Platform_SDK/output/mx6dq/obds/sabre_ai_rev_a/obj/apps/obds/src/obds.o
touch_detect                                      /home/leon/git/swp-report/iMX6_Platform_SDK/output/mx6dq/obds/sabre_ai_rev_a/obj/apps/obds/src/tests/touch_screen.o
touch_get_xy_value                                /home/leon/git/swp-report/iMX6_Platform_SDK/output/mx6dq/obds/sabre_ai_rev_a/obj/apps/obds/src/tests/touch_screen.o
touch_init                                        /home/leon/git/swp-report/iMX6_Platform_SDK/output/mx6dq/obds/sabre_ai_rev_a/obj/apps/obds/src/tests/touch_screen.o
touch_screen_prompt                               /home/leon/git/swp-report/iMX6_Platform_SDK/output/mx6dq/obds/sabre_ai_rev_a/obj/apps/obds/src/tests/touch_screen.o
touch_screen_test                                 /home/leon/git/swp-report/iMX6_Platform_SDK/output/mx6dq/obds/sabre_ai_rev_a/obj/apps/obds/src/tests/touch_screen.o
uart1_iomux_config                                /home/leon/git/swp-report/iMX6_Platform_SDK/output/mx6dq/lib/libboard_sabre_ai_rev_a.a(iomux_config.o)
                                                  /home/leon/git/swp-report/iMX6_Platform_SDK/output/mx6dq/lib/libboard_sabre_ai_rev_a.a(uart_iomux_config.o)
uart2_iomux_config                                /home/leon/git/swp-report/iMX6_Platform_SDK/output/mx6dq/lib/libboard_sabre_ai_rev_a.a(uart2_iomux_config.o)
                                                  /home/leon/git/swp-report/iMX6_Platform_SDK/output/mx6dq/lib/libboard_sabre_ai_rev_a.a(uart_iomux_config.o)
                                                  /home/leon/git/swp-report/iMX6_Platform_SDK/output/mx6dq/lib/libboard_sabre_ai_rev_a.a(iomux_config.o)
                                                  /home/leon/git/swp-report/iMX6_Platform_SDK/output/mx6dq/obds/sabre_ai_rev_a/obj/apps/obds/src/tests/gps_test.o
uart3_iomux_config                                /home/leon/git/swp-report/iMX6_Platform_SDK/output/mx6dq/lib/libboard_sabre_ai_rev_a.a(uart3_iomux_config.o)
                                                  /home/leon/git/swp-report/iMX6_Platform_SDK/output/mx6dq/lib/libboard_sabre_ai_rev_a.a(uart_iomux_config.o)
                                                  /home/leon/git/swp-report/iMX6_Platform_SDK/output/mx6dq/lib/libboard_sabre_ai_rev_a.a(iomux_config.o)
uart4_iomux_config                                /home/leon/git/swp-report/iMX6_Platform_SDK/output/mx6dq/lib/libboard_sabre_ai_rev_a.a(uart4_iomux_config.o)
                                                  /home/leon/git/swp-report/iMX6_Platform_SDK/output/mx6dq/lib/libboard_sabre_ai_rev_a.a(uart_iomux_config.o)
                                                  /home/leon/git/swp-report/iMX6_Platform_SDK/output/mx6dq/lib/libboard_sabre_ai_rev_a.a(iomux_config.o)
uart5_iomux_config                                /home/leon/git/swp-report/iMX6_Platform_SDK/output/mx6dq/lib/libboard_sabre_ai_rev_a.a(iomux_config.o)
                                                  /home/leon/git/swp-report/iMX6_Platform_SDK/output/mx6dq/lib/libboard_sabre_ai_rev_a.a(uart_iomux_config.o)
uart_get_reffreq                                  /home/leon/git/swp-report/iMX6_Platform_SDK/output/mx6dq/lib/libsdk.a(imx_uart.o)
uart_getchar                                      /home/leon/git/swp-report/iMX6_Platform_SDK/output/mx6dq/lib/libsdk.a(imx_uart.o)
                                                  /home/leon/git/swp-report/iMX6_Platform_SDK/output/mx6dq/lib/libsdk.a(runtime_support.o)
                                                  /home/leon/git/swp-report/iMX6_Platform_SDK/output/mx6dq/lib/libsdk.a(system_util.o)
                                                  /home/leon/git/swp-report/iMX6_Platform_SDK/output/mx6dq/obds/sabre_ai_rev_a/obj/sdk/drivers/uart/test/uart_test.o
                                                  /home/leon/git/swp-report/iMX6_Platform_SDK/output/mx6dq/obds/sabre_ai_rev_a/obj/sdk/drivers/camera/test/csi_test_mode.o
                                                  /home/leon/git/swp-report/iMX6_Platform_SDK/output/mx6dq/obds/sabre_ai_rev_a/obj/apps/common/platform_init.o
uart_init                                         /home/leon/git/swp-report/iMX6_Platform_SDK/output/mx6dq/lib/libsdk.a(imx_uart.o)
                                                  /home/leon/git/swp-report/iMX6_Platform_SDK/output/mx6dq/obds/sabre_ai_rev_a/obj/sdk/drivers/uart/test/uart_test.o
                                                  /home/leon/git/swp-report/iMX6_Platform_SDK/output/mx6dq/obds/sabre_ai_rev_a/obj/apps/obds/src/tests/gps_test.o
                                                  /home/leon/git/swp-report/iMX6_Platform_SDK/output/mx6dq/obds/sabre_ai_rev_a/obj/apps/common/platform_init.o
uart_interrupt_handler                            /home/leon/git/swp-report/iMX6_Platform_SDK/output/mx6dq/obds/sabre_ai_rev_a/obj/sdk/drivers/uart/test/uart_test.o
uart_iomux_config                                 /home/leon/git/swp-report/iMX6_Platform_SDK/output/mx6dq/lib/libboard_sabre_ai_rev_a.a(uart_iomux_config.o)
                                                  /home/leon/git/swp-report/iMX6_Platform_SDK/output/mx6dq/lib/libsdk.a(imx_uart.o)
uart_putchar                                      /home/leon/git/swp-report/iMX6_Platform_SDK/output/mx6dq/lib/libsdk.a(imx_uart.o)
                                                  /home/leon/git/swp-report/iMX6_Platform_SDK/output/mx6dq/lib/libsdk.a(runtime_support.o)
                                                  /home/leon/git/swp-report/iMX6_Platform_SDK/output/mx6dq/obds/sabre_ai_rev_a/obj/sdk/drivers/uart/test/uart_test.o
uart_set_FIFO_mode                                /home/leon/git/swp-report/iMX6_Platform_SDK/output/mx6dq/lib/libsdk.a(imx_uart.o)
                                                  /home/leon/git/swp-report/iMX6_Platform_SDK/output/mx6dq/obds/sabre_ai_rev_a/obj/sdk/drivers/uart/test/uart_test.o
uart_set_loopback_mode                            /home/leon/git/swp-report/iMX6_Platform_SDK/output/mx6dq/lib/libsdk.a(imx_uart.o)
                                                  /home/leon/git/swp-report/iMX6_Platform_SDK/output/mx6dq/obds/sabre_ai_rev_a/obj/sdk/drivers/uart/test/uart_test.o
uart_setup_interrupt                              /home/leon/git/swp-report/iMX6_Platform_SDK/output/mx6dq/lib/libsdk.a(imx_uart.o)
                                                  /home/leon/git/swp-report/iMX6_Platform_SDK/output/mx6dq/obds/sabre_ai_rev_a/obj/sdk/drivers/uart/test/uart_test.o
uart_test                                         /home/leon/git/swp-report/iMX6_Platform_SDK/output/mx6dq/obds/sabre_ai_rev_a/obj/sdk/drivers/uart/test/uart_test.o
                                                  /home/leon/git/swp-report/iMX6_Platform_SDK/output/mx6dq/obds/sabre_ai_rev_a/obj/apps/obds/src/obds.o
update_csc_coeffs                                 /home/leon/git/swp-report/iMX6_Platform_SDK/output/mx6dq/lib/libsdk.a(hdmi_tx.o)
usb0_host_test                                    /home/leon/git/swp-report/iMX6_Platform_SDK/output/mx6dq/obds/sabre_ai_rev_a/obj/sdk/drivers/usb/test/usb0_host_test.o
usb0_host_testmodes_test                          /home/leon/git/swp-report/iMX6_Platform_SDK/output/mx6dq/obds/sabre_ai_rev_a/obj/sdk/drivers/usb/test/usb0_host_testmodes_test.o
usbDisableVbus                                    /home/leon/git/swp-report/iMX6_Platform_SDK/output/mx6dq/lib/libboard_sabre_ai_rev_a.a(board_usb.o)
usbEnableClocks                                   /home/leon/git/swp-report/iMX6_Platform_SDK/output/mx6dq/lib/libsdk.a(mx6x_usb.o)
                                                  /home/leon/git/swp-report/iMX6_Platform_SDK/output/mx6dq/lib/libsdk.a(usbh_drv.o)
usbEnableTransceiver                              /home/leon/git/swp-report/iMX6_Platform_SDK/output/mx6dq/lib/libsdk.a(mx6x_usb.o)
                                                  /home/leon/git/swp-report/iMX6_Platform_SDK/output/mx6dq/lib/libsdk.a(usbh_drv.o)
usbEnableVbus                                     /home/leon/git/swp-report/iMX6_Platform_SDK/output/mx6dq/lib/libboard_sabre_ai_rev_a.a(board_usb.o)
                                                  /home/leon/git/swp-report/iMX6_Platform_SDK/output/mx6dq/lib/libsdk.a(usbh_drv.o)
usb_enum_device                                   /home/leon/git/swp-report/iMX6_Platform_SDK/output/mx6dq/obds/sabre_ai_rev_a/obj/apps/obds/src/tests/usb_tests_obds.o
usb_get_port_speed                                /home/leon/git/swp-report/iMX6_Platform_SDK/output/mx6dq/lib/libsdk.a(usb_common.o)
                                                  /home/leon/git/swp-report/iMX6_Platform_SDK/output/mx6dq/obds/sabre_ai_rev_a/obj/sdk/drivers/usb/test/usb0_host_test.o
                                                  /home/leon/git/swp-report/iMX6_Platform_SDK/output/mx6dq/obds/sabre_ai_rev_a/obj/apps/obds/src/tests/usb_tests_obds.o
usb_iomux_config                                  /home/leon/git/swp-report/iMX6_Platform_SDK/output/mx6dq/lib/libboard_sabre_ai_rev_a.a(iomux_config.o)
usbh_bus_reset                                    /home/leon/git/swp-report/iMX6_Platform_SDK/output/mx6dq/lib/libsdk.a(usbh_drv.o)
                                                  /home/leon/git/swp-report/iMX6_Platform_SDK/output/mx6dq/obds/sabre_ai_rev_a/obj/sdk/drivers/usb/test/usb0_host_test.o
                                                  /home/leon/git/swp-report/iMX6_Platform_SDK/output/mx6dq/obds/sabre_ai_rev_a/obj/apps/obds/src/tests/usb_tests_obds.o
usbh_dev_enum_test                                /home/leon/git/swp-report/iMX6_Platform_SDK/output/mx6dq/obds/sabre_ai_rev_a/obj/apps/obds/src/tests/usb_tests_obds.o
                                                  /home/leon/git/swp-report/iMX6_Platform_SDK/output/mx6dq/obds/sabre_ai_rev_a/obj/apps/obds/src/obds.o
usbh_disable_Periodic_list                        /home/leon/git/swp-report/iMX6_Platform_SDK/output/mx6dq/lib/libsdk.a(usbh_drv.o)
usbh_disable_asynchronous_schedule                /home/leon/git/swp-report/iMX6_Platform_SDK/output/mx6dq/lib/libsdk.a(usbh_drv.o)
                                                  /home/leon/git/swp-report/iMX6_Platform_SDK/output/mx6dq/obds/sabre_ai_rev_a/obj/sdk/drivers/usb/test/usb0_host_test.o
                                                  /home/leon/git/swp-report/iMX6_Platform_SDK/output/mx6dq/obds/sabre_ai_rev_a/obj/apps/obds/src/tests/usb_tests_obds.o
usbh_enable_asynchronous_schedule                 /home/leon/git/swp-report/iMX6_Platform_SDK/output/mx6dq/lib/libsdk.a(usbh_drv.o)
                                                  /home/leon/git/swp-report/iMX6_Platform_SDK/output/mx6dq/obds/sabre_ai_rev_a/obj/sdk/drivers/usb/test/usb0_host_test.o
                                                  /home/leon/git/swp-report/iMX6_Platform_SDK/output/mx6dq/obds/sabre_ai_rev_a/obj/apps/obds/src/tests/usb_tests_obds.o
usbh_get_config_desc                              /home/leon/git/swp-report/iMX6_Platform_SDK/output/mx6dq/obds/sabre_ai_rev_a/obj/sdk/drivers/usb/test/usb0_host_test.o
usbh_get_dev_desc                                 /home/leon/git/swp-report/iMX6_Platform_SDK/output/mx6dq/obds/sabre_ai_rev_a/obj/sdk/drivers/usb/test/usb0_host_test.o
                                                  /home/leon/git/swp-report/iMX6_Platform_SDK/output/mx6dq/obds/sabre_ai_rev_a/obj/apps/obds/src/tests/usb_tests_obds.o
usbh_get_interface_desc                           /home/leon/git/swp-report/iMX6_Platform_SDK/output/mx6dq/obds/sabre_ai_rev_a/obj/sdk/drivers/usb/test/usb0_host_test.o
usbh_get_report_desc                              /home/leon/git/swp-report/iMX6_Platform_SDK/output/mx6dq/obds/sabre_ai_rev_a/obj/sdk/drivers/usb/test/usb0_host_test.o
usbh_init                                         /home/leon/git/swp-report/iMX6_Platform_SDK/output/mx6dq/lib/libsdk.a(usbh_drv.o)
                                                  /home/leon/git/swp-report/iMX6_Platform_SDK/output/mx6dq/obds/sabre_ai_rev_a/obj/sdk/drivers/usb/test/usb0_host_testmodes_test.o
                                                  /home/leon/git/swp-report/iMX6_Platform_SDK/output/mx6dq/obds/sabre_ai_rev_a/obj/sdk/drivers/usb/test/usb0_host_test.o
                                                  /home/leon/git/swp-report/iMX6_Platform_SDK/output/mx6dq/obds/sabre_ai_rev_a/obj/apps/obds/src/tests/usb_tests_obds.o
usbh_periodic_schedule_init                       /home/leon/git/swp-report/iMX6_Platform_SDK/output/mx6dq/lib/libsdk.a(usbh_drv.o)
                                                  /home/leon/git/swp-report/iMX6_Platform_SDK/output/mx6dq/obds/sabre_ai_rev_a/obj/sdk/drivers/usb/test/usb0_host_test.o
usbh_qh_init                                      /home/leon/git/swp-report/iMX6_Platform_SDK/output/mx6dq/lib/libsdk.a(usbh_drv.o)
                                                  /home/leon/git/swp-report/iMX6_Platform_SDK/output/mx6dq/obds/sabre_ai_rev_a/obj/sdk/drivers/usb/test/usb0_host_test.o
                                                  /home/leon/git/swp-report/iMX6_Platform_SDK/output/mx6dq/obds/sabre_ai_rev_a/obj/apps/obds/src/tests/usb_tests_obds.o
usbh_qtd_init                                     /home/leon/git/swp-report/iMX6_Platform_SDK/output/mx6dq/lib/libsdk.a(usbh_drv.o)
                                                  /home/leon/git/swp-report/iMX6_Platform_SDK/output/mx6dq/obds/sabre_ai_rev_a/obj/sdk/drivers/usb/test/usb0_host_test.o
usbh_set_configuration                            /home/leon/git/swp-report/iMX6_Platform_SDK/output/mx6dq/obds/sabre_ai_rev_a/obj/sdk/drivers/usb/test/usb0_host_test.o
usbh_set_device_address                           /home/leon/git/swp-report/iMX6_Platform_SDK/output/mx6dq/obds/sabre_ai_rev_a/obj/sdk/drivers/usb/test/usb0_host_test.o
usbo_dev_enum_test                                /home/leon/git/swp-report/iMX6_Platform_SDK/output/mx6dq/obds/sabre_ai_rev_a/obj/apps/obds/src/tests/usb_tests_obds.o
                                                  /home/leon/git/swp-report/iMX6_Platform_SDK/output/mx6dq/obds/sabre_ai_rev_a/obj/apps/obds/src/obds.o
usdhc1_iomux_config                               /home/leon/git/swp-report/iMX6_Platform_SDK/output/mx6dq/lib/libboard_sabre_ai_rev_a.a(usdhc1_iomux_config.o)
                                                  /home/leon/git/swp-report/iMX6_Platform_SDK/output/mx6dq/lib/libboard_sabre_ai_rev_a.a(usdhc_iomux_config.o)
                                                  /home/leon/git/swp-report/iMX6_Platform_SDK/output/mx6dq/lib/libboard_sabre_ai_rev_a.a(iomux_config.o)
usdhc1_isr                                        /home/leon/git/swp-report/iMX6_Platform_SDK/output/mx6dq/lib/libsdk.a(usdhc_host.o)
                                                  /home/leon/git/swp-report/iMX6_Platform_SDK/output/mx6dq/lib/libsdk.a(usdhc.o)
usdhc2_iomux_config                               /home/leon/git/swp-report/iMX6_Platform_SDK/output/mx6dq/lib/libboard_sabre_ai_rev_a.a(iomux_config.o)
                                                  /home/leon/git/swp-report/iMX6_Platform_SDK/output/mx6dq/lib/libboard_sabre_ai_rev_a.a(usdhc_iomux_config.o)
usdhc2_isr                                        /home/leon/git/swp-report/iMX6_Platform_SDK/output/mx6dq/lib/libsdk.a(usdhc_host.o)
                                                  /home/leon/git/swp-report/iMX6_Platform_SDK/output/mx6dq/lib/libsdk.a(usdhc.o)
usdhc3_iomux_config                               /home/leon/git/swp-report/iMX6_Platform_SDK/output/mx6dq/lib/libboard_sabre_ai_rev_a.a(usdhc3_iomux_config.o)
                                                  /home/leon/git/swp-report/iMX6_Platform_SDK/output/mx6dq/lib/libboard_sabre_ai_rev_a.a(usdhc_iomux_config.o)
                                                  /home/leon/git/swp-report/iMX6_Platform_SDK/output/mx6dq/lib/libboard_sabre_ai_rev_a.a(iomux_config.o)
usdhc3_isr                                        /home/leon/git/swp-report/iMX6_Platform_SDK/output/mx6dq/lib/libsdk.a(usdhc_host.o)
                                                  /home/leon/git/swp-report/iMX6_Platform_SDK/output/mx6dq/lib/libsdk.a(usdhc.o)
usdhc4_iomux_config                               /home/leon/git/swp-report/iMX6_Platform_SDK/output/mx6dq/lib/libboard_sabre_ai_rev_a.a(iomux_config.o)
                                                  /home/leon/git/swp-report/iMX6_Platform_SDK/output/mx6dq/lib/libboard_sabre_ai_rev_a.a(usdhc_iomux_config.o)
usdhc4_isr                                        /home/leon/git/swp-report/iMX6_Platform_SDK/output/mx6dq/lib/libsdk.a(usdhc_host.o)
                                                  /home/leon/git/swp-report/iMX6_Platform_SDK/output/mx6dq/lib/libsdk.a(usdhc.o)
usdhc_card_detected                               /home/leon/git/swp-report/iMX6_Platform_SDK/output/mx6dq/lib/libboard_sabre_ai_rev_a.a(board_usdhc.o)
                                                  /home/leon/git/swp-report/iMX6_Platform_SDK/output/mx6dq/lib/libsdk.a(usdhc.o)
                                                  /home/leon/git/swp-report/iMX6_Platform_SDK/output/mx6dq/obds/sabre_ai_rev_a/obj/apps/obds/src/tests/mmcsd_test.o
usdhc_device                                      /home/leon/git/swp-report/iMX6_Platform_SDK/output/mx6dq/lib/libsdk.a(usdhc.o)
                                                  /home/leon/git/swp-report/iMX6_Platform_SDK/output/mx6dq/lib/libsdk.a(usdhc_sd.o)
                                                  /home/leon/git/swp-report/iMX6_Platform_SDK/output/mx6dq/lib/libsdk.a(usdhc_mmc.o)
                                                  /home/leon/git/swp-report/iMX6_Platform_SDK/output/mx6dq/lib/libsdk.a(usdhc_host.o)
usdhc_gpio_config                                 /home/leon/git/swp-report/iMX6_Platform_SDK/output/mx6dq/lib/libboard_sabre_ai_rev_a.a(board_usdhc.o)
                                                  /home/leon/git/swp-report/iMX6_Platform_SDK/output/mx6dq/lib/libsdk.a(usdhc_host.o)
usdhc_iomux_config                                /home/leon/git/swp-report/iMX6_Platform_SDK/output/mx6dq/lib/libboard_sabre_ai_rev_a.a(usdhc_iomux_config.o)
                                                  /home/leon/git/swp-report/iMX6_Platform_SDK/output/mx6dq/lib/libsdk.a(usdhc_host.o)
usdhc_test                                        /home/leon/git/swp-report/iMX6_Platform_SDK/output/mx6dq/obds/sabre_ai_rev_a/obj/sdk/drivers/usdhc/test/usdhc_test.o
usdhc_write_protected                             /home/leon/git/swp-report/iMX6_Platform_SDK/output/mx6dq/lib/libboard_sabre_ai_rev_a.a(board_usdhc.o)
                                                  /home/leon/git/swp-report/iMX6_Platform_SDK/output/mx6dq/lib/libsdk.a(usdhc.o)
                                                  /home/leon/git/swp-report/iMX6_Platform_SDK/output/mx6dq/obds/sabre_ai_rev_a/obj/apps/obds/src/tests/mmcsd_test.o
vectors                                           /home/leon/git/swp-report/iMX6_Platform_SDK/output/mx6dq/lib/libsdk.a(vectors.o)
                                                  /home/leon/git/swp-report/iMX6_Platform_SDK/output/mx6dq/lib/libsdk.a(startup.o)
vfiprintf                                         /home/leon/riotboard/arm-2012.09/bin/../arm-none-eabi/lib//libc.a(lib_a-vfiprintf.o)
vfprintf                                          /home/leon/riotboard/arm-2012.09/bin/../arm-none-eabi/lib//libc.a(lib_a-vfprintf.o)
video_fmts                                        /home/leon/git/swp-report/iMX6_Platform_SDK/output/mx6dq/lib/libsdk.a(adv7180.o)
                                                  /home/leon/git/swp-report/iMX6_Platform_SDK/output/mx6dq/obds/sabre_ai_rev_a/obj/sdk/drivers/camera/test/adv7180_capture.o
vprintf                                           /home/leon/riotboard/arm-2012.09/bin/../arm-none-eabi/lib//libc.a(lib_a-vprintf.o)
                                                  /home/leon/git/swp-report/iMX6_Platform_SDK/output/mx6dq/lib/libsdk.a(imx_i2c.o)
                                                  /home/leon/git/swp-report/iMX6_Platform_SDK/output/mx6dq/lib/libsdk.a(gpio.o)
                                                  /home/leon/git/swp-report/iMX6_Platform_SDK/output/mx6dq/lib/libsdk.a(sgtl5000.o)
                                                  /home/leon/git/swp-report/iMX6_Platform_SDK/output/mx6dq/lib/libsdk.a(text_color.o)
                                                  /home/leon/git/swp-report/iMX6_Platform_SDK/output/mx6dq/obds/sabre_ai_rev_a/obj/apps/obds/src/tests/program_mac_address.o
                                                  /home/leon/git/swp-report/iMX6_Platform_SDK/output/mx6dq/obds/sabre_ai_rev_a/obj/apps/obds/src/tests/program_board_id.o
                                                  /home/leon/git/swp-report/iMX6_Platform_SDK/output/mx6dq/obds/sabre_ai_rev_a/obj/apps/obds/src/tests/enet_mx6dldq_test.o
                                                  /home/leon/git/swp-report/iMX6_Platform_SDK/output/mx6dq/obds/sabre_ai_rev_a/obj/apps/obds/src/obds.o
wait_convertion_done                              /home/leon/git/swp-report/iMX6_Platform_SDK/output/mx6dq/obds/sabre_ai_rev_a/obj/apps/obds/src/tests/i2c_device_temp_sensor_emc1046.o
wav_data                                          /home/leon/git/swp-report/iMX6_Platform_SDK/output/mx6dq/obds/sabre_ai_rev_a/obj/apps/obds/src/tests/audio_ssi_test.o
wcrtomb                                           /home/leon/riotboard/arm-2012.09/bin/../arm-none-eabi/lib//libc.a(lib_a-wcrtomb.o)
wdog1_iomux_config                                /home/leon/git/swp-report/iMX6_Platform_SDK/output/mx6dq/lib/libboard_sabre_ai_rev_a.a(wdog1_iomux_config.o)
                                                  /home/leon/git/swp-report/iMX6_Platform_SDK/output/mx6dq/lib/libboard_sabre_ai_rev_a.a(iomux_config.o)
wdog2_iomux_config                                /home/leon/git/swp-report/iMX6_Platform_SDK/output/mx6dq/lib/libboard_sabre_ai_rev_a.a(iomux_config.o)
weim_nor_flash_cs_setup                           /home/leon/git/swp-report/iMX6_Platform_SDK/output/mx6dq/obds/sabre_ai_rev_a/obj/apps/obds/src/tests/weim_nor_flash_test.o
wm8958                                            /home/leon/git/swp-report/iMX6_Platform_SDK/output/mx6dq/lib/libsdk.a(wm8958_dac.o)
                                                  /home/leon/git/swp-report/iMX6_Platform_SDK/output/mx6dq/obds/sabre_ai_rev_a/obj/sdk/drivers/audio/src/snd_card.o
wm8958_i2c_req                                    /home/leon/git/swp-report/iMX6_Platform_SDK/output/mx6dq/lib/libsdk.a(wm8958_dac.o)
wm8958_ops                                        /home/leon/git/swp-report/iMX6_Platform_SDK/output/mx6dq/lib/libsdk.a(wm8958_dac.o)
wm8962                                            /home/leon/git/swp-report/iMX6_Platform_SDK/output/mx6dq/lib/libsdk.a(wm8962.o)
                                                  /home/leon/git/swp-report/iMX6_Platform_SDK/output/mx6dq/obds/sabre_ai_rev_a/obj/sdk/drivers/audio/src/snd_card.o
wm8962_i2c_req                                    /home/leon/git/swp-report/iMX6_Platform_SDK/output/mx6dq/lib/libsdk.a(wm8962.o)
wm8962_ops                                        /home/leon/git/swp-report/iMX6_Platform_SDK/output/mx6dq/lib/libsdk.a(wm8962.o)
write_protect_test_en                             /home/leon/git/swp-report/iMX6_Platform_SDK/output/mx6dq/lib/libsdk.a(usdhc.o)
                                                  /home/leon/git/swp-report/iMX6_Platform_SDK/output/mx6dq/obds/sabre_ai_rev_a/obj/apps/obds/src/tests/mmcsd_test.o
xtalosc_iomux_config                              /home/leon/git/swp-report/iMX6_Platform_SDK/output/mx6dq/lib/libboard_sabre_ai_rev_a.a(iomux_config.o)
