Archive member included because of file (symbol)

/home/leon/git/swp-report/iMX6_Platform_SDK/output/mx6dq/lib/libsdk.a(ccm_pll.o)
                              /home/leon/git/swp-report/iMX6_Platform_SDK/output/mx6dq/httpd/sabre_ai_rev_c/obj/apps/common/platform_init.o (ccm_init)
/home/leon/git/swp-report/iMX6_Platform_SDK/output/mx6dq/lib/libsdk.a(cortexA9.o)
                              /home/leon/git/swp-report/iMX6_Platform_SDK/output/mx6dq/httpd/sabre_ai_rev_c/obj/apps/common/platform_init.o (arm_set_interrupt_state)
/home/leon/git/swp-report/iMX6_Platform_SDK/output/mx6dq/lib/libsdk.a(gic.o)
                              /home/leon/git/swp-report/iMX6_Platform_SDK/output/mx6dq/httpd/sabre_ai_rev_c/obj/apps/common/platform_init.o (gic_init)
/home/leon/git/swp-report/iMX6_Platform_SDK/output/mx6dq/lib/libsdk.a(mmu.o)
                              /home/leon/git/swp-report/iMX6_Platform_SDK/output/mx6dq/httpd/sabre_ai_rev_c/obj/apps/common/platform_init.o (mmu_init)
/home/leon/git/swp-report/iMX6_Platform_SDK/output/mx6dq/lib/libsdk.a(startup.o)
                              (_start)
/home/leon/git/swp-report/iMX6_Platform_SDK/output/mx6dq/lib/libsdk.a(vectors.o)
                              /home/leon/git/swp-report/iMX6_Platform_SDK/output/mx6dq/lib/libsdk.a(startup.o) (vectors)
/home/leon/git/swp-report/iMX6_Platform_SDK/output/mx6dq/lib/libsdk.a(system_util.o)
                              /home/leon/git/swp-report/iMX6_Platform_SDK/output/mx6dq/lib/libsdk.a(startup.o) (_sys_exit)
/home/leon/git/swp-report/iMX6_Platform_SDK/output/mx6dq/lib/libsdk.a(text_color.o)
                              /home/leon/git/swp-report/iMX6_Platform_SDK/output/mx6dq/lib/libsdk.a(system_util.o) (g_TextAttributeBold)
/home/leon/git/swp-report/iMX6_Platform_SDK/output/mx6dq/lib/libsdk.a(enet_drv.o)
                              /home/leon/git/swp-report/iMX6_Platform_SDK/output/mx6dq/httpd/sabre_ai_rev_c/obj/apps/httpd/src/httpd_main.o (imx_enet_get_phy_status)
/home/leon/git/swp-report/iMX6_Platform_SDK/output/mx6dq/lib/libsdk.a(timer.o)
                              /home/leon/git/swp-report/iMX6_Platform_SDK/output/mx6dq/httpd/sabre_ai_rev_c/obj/apps/httpd/src/httpd_main.o (hal_delay_us)
/home/leon/git/swp-report/iMX6_Platform_SDK/output/mx6dq/lib/libsdk.a(imx_uart.o)
                              /home/leon/git/swp-report/iMX6_Platform_SDK/output/mx6dq/httpd/sabre_ai_rev_c/obj/apps/common/platform_init.o (uart_getchar)
/home/leon/git/swp-report/iMX6_Platform_SDK/output/mx6dq/lib/libsdk.a(arm_abort.o)
                              /home/leon/git/swp-report/iMX6_Platform_SDK/output/mx6dq/lib/libsdk.a(vectors.o) (data_abort_handler)
/home/leon/git/swp-report/iMX6_Platform_SDK/output/mx6dq/lib/libsdk.a(interrupt.o)
                              /home/leon/git/swp-report/iMX6_Platform_SDK/output/mx6dq/lib/libsdk.a(vectors.o) (IRQ_HDLR)
/home/leon/git/swp-report/iMX6_Platform_SDK/output/mx6dq/lib/libsdk.a(epit.o)
                              /home/leon/git/swp-report/iMX6_Platform_SDK/output/mx6dq/lib/libsdk.a(timer.o) (epit_get_compare_event)
/home/leon/git/swp-report/iMX6_Platform_SDK/output/mx6dq/lib/libsdk.a(abort_handler.o)
                              /home/leon/git/swp-report/iMX6_Platform_SDK/output/mx6dq/lib/libsdk.a(arm_abort.o) (dump_regs)
/home/leon/git/swp-report/iMX6_Platform_SDK/output/mx6dq/lib/libboard_sabre_ai_rev_c.a(board_io_expanders.o)
                              /home/leon/git/swp-report/iMX6_Platform_SDK/output/mx6dq/httpd/sabre_ai_rev_c/obj/apps/common/platform_init.o (board_ioexpander_init)
/home/leon/git/swp-report/iMX6_Platform_SDK/output/mx6dq/lib/libboard_sabre_ai_rev_c.a(hardware_modules.o)
                              /home/leon/git/swp-report/iMX6_Platform_SDK/output/mx6dq/httpd/sabre_ai_rev_c/obj/apps/common/platform_init.o (g_debug_uart_port)
/home/leon/git/swp-report/iMX6_Platform_SDK/output/mx6dq/lib/libboard_sabre_ai_rev_c.a(dcd.o)
                              /home/leon/git/swp-report/iMX6_Platform_SDK/output/mx6dq/httpd/sabre_ai_rev_c/obj/apps/common/ivt.o (input_dcd_hdr)
/home/leon/git/swp-report/iMX6_Platform_SDK/output/mx6dq/lib/libboard_sabre_ai_rev_c.a(i2c3_iomux_config.o)
                              /home/leon/git/swp-report/iMX6_Platform_SDK/output/mx6dq/lib/libboard_sabre_ai_rev_c.a(board_io_expanders.o) (i2c3_iomux_config)
/home/leon/git/swp-report/iMX6_Platform_SDK/output/mx6dq/lib/libboard_sabre_ai_rev_c.a(uart_iomux_config.o)
                              /home/leon/git/swp-report/iMX6_Platform_SDK/output/mx6dq/lib/libsdk.a(imx_uart.o) (uart_iomux_config)
/home/leon/git/swp-report/iMX6_Platform_SDK/output/mx6dq/lib/libboard_sabre_ai_rev_c.a(iomux_config.o)
                              /home/leon/git/swp-report/iMX6_Platform_SDK/output/mx6dq/lib/libboard_sabre_ai_rev_c.a(uart_iomux_config.o) (uart1_iomux_config)
/home/leon/git/swp-report/iMX6_Platform_SDK/output/mx6dq/lib/libboard_sabre_ai_rev_c.a(ipu1_iomux_config.o)
                              /home/leon/git/swp-report/iMX6_Platform_SDK/output/mx6dq/lib/libboard_sabre_ai_rev_c.a(iomux_config.o) (ipu1_iomux_config)
/home/leon/git/swp-report/iMX6_Platform_SDK/output/mx6dq/lib/libboard_sabre_ai_rev_c.a(mlb_iomux_config.o)
                              /home/leon/git/swp-report/iMX6_Platform_SDK/output/mx6dq/lib/libboard_sabre_ai_rev_c.a(iomux_config.o) (mlb_iomux_config)
/home/leon/git/swp-report/iMX6_Platform_SDK/output/mx6dq/lib/libboard_sabre_ai_rev_c.a(mmdc_iomux_config.o)
                              /home/leon/git/swp-report/iMX6_Platform_SDK/output/mx6dq/lib/libboard_sabre_ai_rev_c.a(iomux_config.o) (mmdc_iomux_config)
/home/leon/git/swp-report/iMX6_Platform_SDK/output/mx6dq/lib/libboard_sabre_ai_rev_c.a(pwm3_iomux_config.o)
                              /home/leon/git/swp-report/iMX6_Platform_SDK/output/mx6dq/lib/libboard_sabre_ai_rev_c.a(iomux_config.o) (pwm3_iomux_config)
/home/leon/git/swp-report/iMX6_Platform_SDK/output/mx6dq/lib/libboard_sabre_ai_rev_c.a(pwm4_iomux_config.o)
                              /home/leon/git/swp-report/iMX6_Platform_SDK/output/mx6dq/lib/libboard_sabre_ai_rev_c.a(iomux_config.o) (pwm4_iomux_config)
/home/leon/git/swp-report/iMX6_Platform_SDK/output/mx6dq/lib/libboard_sabre_ai_rev_c.a(sjc_iomux_config.o)
                              /home/leon/git/swp-report/iMX6_Platform_SDK/output/mx6dq/lib/libboard_sabre_ai_rev_c.a(iomux_config.o) (sjc_iomux_config)
/home/leon/git/swp-report/iMX6_Platform_SDK/output/mx6dq/lib/libboard_sabre_ai_rev_c.a(spdif_iomux_config.o)
                              /home/leon/git/swp-report/iMX6_Platform_SDK/output/mx6dq/lib/libboard_sabre_ai_rev_c.a(iomux_config.o) (spdif_iomux_config)
/home/leon/git/swp-report/iMX6_Platform_SDK/output/mx6dq/lib/libboard_sabre_ai_rev_c.a(uart2_iomux_config.o)
                              /home/leon/git/swp-report/iMX6_Platform_SDK/output/mx6dq/lib/libboard_sabre_ai_rev_c.a(uart_iomux_config.o) (uart2_iomux_config)
/home/leon/git/swp-report/iMX6_Platform_SDK/output/mx6dq/lib/libboard_sabre_ai_rev_c.a(uart3_iomux_config.o)
                              /home/leon/git/swp-report/iMX6_Platform_SDK/output/mx6dq/lib/libboard_sabre_ai_rev_c.a(uart_iomux_config.o) (uart3_iomux_config)
/home/leon/git/swp-report/iMX6_Platform_SDK/output/mx6dq/lib/libboard_sabre_ai_rev_c.a(uart4_iomux_config.o)
                              /home/leon/git/swp-report/iMX6_Platform_SDK/output/mx6dq/lib/libboard_sabre_ai_rev_c.a(uart_iomux_config.o) (uart4_iomux_config)
/home/leon/git/swp-report/iMX6_Platform_SDK/output/mx6dq/lib/libboard_sabre_ai_rev_c.a(usdhc1_iomux_config.o)
                              /home/leon/git/swp-report/iMX6_Platform_SDK/output/mx6dq/lib/libboard_sabre_ai_rev_c.a(iomux_config.o) (usdhc1_iomux_config)
/home/leon/git/swp-report/iMX6_Platform_SDK/output/mx6dq/lib/libboard_sabre_ai_rev_c.a(usdhc3_iomux_config.o)
                              /home/leon/git/swp-report/iMX6_Platform_SDK/output/mx6dq/lib/libboard_sabre_ai_rev_c.a(iomux_config.o) (usdhc3_iomux_config)
/home/leon/git/swp-report/iMX6_Platform_SDK/output/mx6dq/lib/libboard_sabre_ai_rev_c.a(wdog1_iomux_config.o)
                              /home/leon/git/swp-report/iMX6_Platform_SDK/output/mx6dq/lib/libboard_sabre_ai_rev_c.a(iomux_config.o) (wdog1_iomux_config)
/home/leon/git/swp-report/iMX6_Platform_SDK/output/mx6dq/lib/libboard_sabre_ai_rev_c.a(audmux_iomux_config.o)
                              /home/leon/git/swp-report/iMX6_Platform_SDK/output/mx6dq/lib/libboard_sabre_ai_rev_c.a(iomux_config.o) (audmux_iomux_config)
/home/leon/git/swp-report/iMX6_Platform_SDK/output/mx6dq/lib/libboard_sabre_ai_rev_c.a(ccm_iomux_config.o)
                              /home/leon/git/swp-report/iMX6_Platform_SDK/output/mx6dq/lib/libboard_sabre_ai_rev_c.a(iomux_config.o) (ccm_iomux_config)
/home/leon/git/swp-report/iMX6_Platform_SDK/output/mx6dq/lib/libboard_sabre_ai_rev_c.a(ecspi1_iomux_config.o)
                              /home/leon/git/swp-report/iMX6_Platform_SDK/output/mx6dq/lib/libboard_sabre_ai_rev_c.a(iomux_config.o) (ecspi1_iomux_config)
/home/leon/git/swp-report/iMX6_Platform_SDK/output/mx6dq/lib/libboard_sabre_ai_rev_c.a(eim_iomux_config.o)
                              /home/leon/git/swp-report/iMX6_Platform_SDK/output/mx6dq/lib/libboard_sabre_ai_rev_c.a(iomux_config.o) (eim_iomux_config)
/home/leon/git/swp-report/iMX6_Platform_SDK/output/mx6dq/lib/libboard_sabre_ai_rev_c.a(enet_iomux_config.o)
                              /home/leon/git/swp-report/iMX6_Platform_SDK/output/mx6dq/lib/libboard_sabre_ai_rev_c.a(iomux_config.o) (enet_iomux_config)
/home/leon/git/swp-report/iMX6_Platform_SDK/output/mx6dq/lib/libboard_sabre_ai_rev_c.a(esai_iomux_config.o)
                              /home/leon/git/swp-report/iMX6_Platform_SDK/output/mx6dq/lib/libboard_sabre_ai_rev_c.a(iomux_config.o) (esai_iomux_config)
/home/leon/git/swp-report/iMX6_Platform_SDK/output/mx6dq/lib/libboard_sabre_ai_rev_c.a(flexcan1_iomux_config.o)
                              /home/leon/git/swp-report/iMX6_Platform_SDK/output/mx6dq/lib/libboard_sabre_ai_rev_c.a(iomux_config.o) (flexcan1_iomux_config)
/home/leon/git/swp-report/iMX6_Platform_SDK/output/mx6dq/lib/libboard_sabre_ai_rev_c.a(flexcan2_iomux_config.o)
                              /home/leon/git/swp-report/iMX6_Platform_SDK/output/mx6dq/lib/libboard_sabre_ai_rev_c.a(iomux_config.o) (flexcan2_iomux_config)
/home/leon/git/swp-report/iMX6_Platform_SDK/output/mx6dq/lib/libboard_sabre_ai_rev_c.a(gpio1_iomux_config.o)
                              /home/leon/git/swp-report/iMX6_Platform_SDK/output/mx6dq/lib/libboard_sabre_ai_rev_c.a(iomux_config.o) (gpio1_iomux_config)
/home/leon/git/swp-report/iMX6_Platform_SDK/output/mx6dq/lib/libboard_sabre_ai_rev_c.a(gpio2_iomux_config.o)
                              /home/leon/git/swp-report/iMX6_Platform_SDK/output/mx6dq/lib/libboard_sabre_ai_rev_c.a(iomux_config.o) (gpio2_iomux_config)
/home/leon/git/swp-report/iMX6_Platform_SDK/output/mx6dq/lib/libboard_sabre_ai_rev_c.a(gpio4_iomux_config.o)
                              /home/leon/git/swp-report/iMX6_Platform_SDK/output/mx6dq/lib/libboard_sabre_ai_rev_c.a(iomux_config.o) (gpio4_iomux_config)
/home/leon/git/swp-report/iMX6_Platform_SDK/output/mx6dq/lib/libboard_sabre_ai_rev_c.a(gpio5_iomux_config.o)
                              /home/leon/git/swp-report/iMX6_Platform_SDK/output/mx6dq/lib/libboard_sabre_ai_rev_c.a(iomux_config.o) (gpio5_iomux_config)
/home/leon/git/swp-report/iMX6_Platform_SDK/output/mx6dq/lib/libboard_sabre_ai_rev_c.a(gpio6_iomux_config.o)
                              /home/leon/git/swp-report/iMX6_Platform_SDK/output/mx6dq/lib/libboard_sabre_ai_rev_c.a(iomux_config.o) (gpio6_iomux_config)
/home/leon/git/swp-report/iMX6_Platform_SDK/output/mx6dq/lib/libboard_sabre_ai_rev_c.a(gpmi_iomux_config.o)
                              /home/leon/git/swp-report/iMX6_Platform_SDK/output/mx6dq/lib/libboard_sabre_ai_rev_c.a(iomux_config.o) (gpmi_iomux_config)
/home/leon/git/swp-report/iMX6_Platform_SDK/output/mx6dq/lib/libboard_sabre_ai_rev_c.a(i2c2_iomux_config.o)
                              /home/leon/git/swp-report/iMX6_Platform_SDK/output/mx6dq/lib/libboard_sabre_ai_rev_c.a(iomux_config.o) (i2c2_iomux_config)
/home/leon/git/swp-report/iMX6_Platform_SDK/output/mx6dq/lib/liblwip.a(dhcp.o)
                              /home/leon/git/swp-report/iMX6_Platform_SDK/output/mx6dq/httpd/sabre_ai_rev_c/obj/apps/httpd/src/httpd_main.o (dhcp_start)
/home/leon/git/swp-report/iMX6_Platform_SDK/output/mx6dq/lib/liblwip.a(dns.o)
                              /home/leon/git/swp-report/iMX6_Platform_SDK/output/mx6dq/httpd/sabre_ai_rev_c/obj/apps/httpd/src/httpd_main.o (dns_init)
/home/leon/git/swp-report/iMX6_Platform_SDK/output/mx6dq/lib/liblwip.a(init.o)
                              /home/leon/git/swp-report/iMX6_Platform_SDK/output/mx6dq/httpd/sabre_ai_rev_c/obj/apps/httpd/src/httpd_main.o (lwip_init)
/home/leon/git/swp-report/iMX6_Platform_SDK/output/mx6dq/lib/liblwip.a(autoip.o)
                              /home/leon/git/swp-report/iMX6_Platform_SDK/output/mx6dq/lib/liblwip.a(dhcp.o) (autoip_start)
/home/leon/git/swp-report/iMX6_Platform_SDK/output/mx6dq/lib/liblwip.a(igmp.o)
                              /home/leon/git/swp-report/iMX6_Platform_SDK/output/mx6dq/lib/liblwip.a(init.o) (igmp_init)
/home/leon/git/swp-report/iMX6_Platform_SDK/output/mx6dq/lib/liblwip.a(ip4.o)
                              /home/leon/git/swp-report/iMX6_Platform_SDK/output/mx6dq/lib/liblwip.a(igmp.o) (ip_output_if_opt)
/home/leon/git/swp-report/iMX6_Platform_SDK/output/mx6dq/lib/liblwip.a(ip4_addr.o)
                              /home/leon/git/swp-report/iMX6_Platform_SDK/output/mx6dq/httpd/sabre_ai_rev_c/obj/lwip/contrib/apps/httpserver_raw/httpd.o (ip_addr_any)
/home/leon/git/swp-report/iMX6_Platform_SDK/output/mx6dq/lib/liblwip.a(memp.o)
                              /home/leon/git/swp-report/iMX6_Platform_SDK/output/mx6dq/lib/liblwip.a(igmp.o) (memp_sizes)
/home/leon/git/swp-report/iMX6_Platform_SDK/output/mx6dq/lib/liblwip.a(netif.o)
                              /home/leon/git/swp-report/iMX6_Platform_SDK/output/mx6dq/lib/liblwip.a(dhcp.o) (netif_list)
/home/leon/git/swp-report/iMX6_Platform_SDK/output/mx6dq/lib/liblwip.a(pbuf.o)
                              /home/leon/git/swp-report/iMX6_Platform_SDK/output/mx6dq/lib/liblwip.a(dhcp.o) (pbuf_alloc)
/home/leon/git/swp-report/iMX6_Platform_SDK/output/mx6dq/lib/liblwip.a(raw.o)
                              /home/leon/git/swp-report/iMX6_Platform_SDK/output/mx6dq/lib/liblwip.a(ip4.o) (raw_input)
/home/leon/git/swp-report/iMX6_Platform_SDK/output/mx6dq/lib/liblwip.a(mib2.o)
                              /home/leon/git/swp-report/iMX6_Platform_SDK/output/mx6dq/lib/liblwip.a(netif.o) (snmp_get_sysuptime)
/home/leon/git/swp-report/iMX6_Platform_SDK/output/mx6dq/lib/liblwip.a(mib_structs.o)
                              /home/leon/git/swp-report/iMX6_Platform_SDK/output/mx6dq/lib/liblwip.a(mib2.o) (snmp_ifindextonetif)
/home/leon/git/swp-report/iMX6_Platform_SDK/output/mx6dq/lib/liblwip.a(msg_in.o)
                              /home/leon/git/swp-report/iMX6_Platform_SDK/output/mx6dq/lib/liblwip.a(init.o) (snmp_init)
/home/leon/git/swp-report/iMX6_Platform_SDK/output/mx6dq/lib/liblwip.a(msg_out.o)
                              /home/leon/git/swp-report/iMX6_Platform_SDK/output/mx6dq/lib/liblwip.a(msg_in.o) (trap_msg)
/home/leon/git/swp-report/iMX6_Platform_SDK/output/mx6dq/lib/liblwip.a(stats.o)
                              /home/leon/git/swp-report/iMX6_Platform_SDK/output/mx6dq/lib/liblwip.a(igmp.o) (lwip_stats)
/home/leon/git/swp-report/iMX6_Platform_SDK/output/mx6dq/lib/liblwip.a(tcp.o)
                              /home/leon/git/swp-report/iMX6_Platform_SDK/output/mx6dq/lib/liblwip.a(netif.o) (tcp_listen_pcbs)
/home/leon/git/swp-report/iMX6_Platform_SDK/output/mx6dq/lib/liblwip.a(tcp_in.o)
                              /home/leon/git/swp-report/iMX6_Platform_SDK/output/mx6dq/lib/liblwip.a(ip4.o) (tcp_input)
/home/leon/git/swp-report/iMX6_Platform_SDK/output/mx6dq/lib/liblwip.a(tcp_out.o)
                              /home/leon/git/swp-report/iMX6_Platform_SDK/output/mx6dq/lib/liblwip.a(tcp.o) (tcp_send_fin)
/home/leon/git/swp-report/iMX6_Platform_SDK/output/mx6dq/lib/liblwip.a(timers.o)
                              /home/leon/git/swp-report/iMX6_Platform_SDK/output/mx6dq/lib/liblwip.a(tcp.o) (tcp_timer_needed)
/home/leon/git/swp-report/iMX6_Platform_SDK/output/mx6dq/lib/liblwip.a(udp.o)
                              /home/leon/git/swp-report/iMX6_Platform_SDK/output/mx6dq/lib/liblwip.a(mib2.o) (udp_pcbs)
/home/leon/git/swp-report/iMX6_Platform_SDK/output/mx6dq/lib/liblwip.a(etharp.o)
                              /home/leon/git/swp-report/iMX6_Platform_SDK/output/mx6dq/lib/liblwip.a(autoip.o) (ethbroadcast)
/home/leon/git/swp-report/iMX6_Platform_SDK/output/mx6dq/lib/liblwip.a(mx6_ethernetif.o)
                              /home/leon/git/swp-report/iMX6_Platform_SDK/output/mx6dq/httpd/sabre_ai_rev_c/obj/apps/httpd/src/httpd_main.o (g_en0)
/home/leon/git/swp-report/iMX6_Platform_SDK/output/mx6dq/lib/liblwip.a(mx6_lwip.o)
                              /home/leon/git/swp-report/iMX6_Platform_SDK/output/mx6dq/httpd/sabre_ai_rev_c/obj/apps/httpd/src/httpd_main.o (mx6_run_lwip)
/home/leon/git/swp-report/iMX6_Platform_SDK/output/mx6dq/lib/liblwip.a(sys_arch.o)
                              /home/leon/git/swp-report/iMX6_Platform_SDK/output/mx6dq/lib/liblwip.a(mib2.o) (sys_now)
/home/leon/git/swp-report/iMX6_Platform_SDK/output/mx6dq/lib/liblwip.a(def.o)
                              /home/leon/git/swp-report/iMX6_Platform_SDK/output/mx6dq/lib/liblwip.a(dns.o) (lwip_htons)
/home/leon/git/swp-report/iMX6_Platform_SDK/output/mx6dq/lib/liblwip.a(inet_chksum.o)
                              /home/leon/git/swp-report/iMX6_Platform_SDK/output/mx6dq/lib/liblwip.a(tcp_in.o) (inet_chksum_pseudo)
/home/leon/git/swp-report/iMX6_Platform_SDK/output/mx6dq/lib/liblwip.a(icmp.o)
                              /home/leon/git/swp-report/iMX6_Platform_SDK/output/mx6dq/lib/liblwip.a(ip4.o) (icmp_input)
/home/leon/git/swp-report/iMX6_Platform_SDK/output/mx6dq/lib/liblwip.a(asn1_dec.o)
                              /home/leon/git/swp-report/iMX6_Platform_SDK/output/mx6dq/lib/liblwip.a(msg_in.o) (snmp_asn1_dec_type)
/home/leon/git/swp-report/iMX6_Platform_SDK/output/mx6dq/lib/liblwip.a(asn1_enc.o)
                              /home/leon/git/swp-report/iMX6_Platform_SDK/output/mx6dq/lib/liblwip.a(msg_out.o) (snmp_asn1_enc_length_cnt)
/home/leon/riotboard/arm-2012.09/bin/../arm-none-eabi/lib//libc.a(lib_a-abort.o)
                              /home/leon/git/swp-report/iMX6_Platform_SDK/output/mx6dq/httpd/sabre_ai_rev_c/obj/lwip/contrib/apps/httpserver_raw/httpd.o (abort)
/home/leon/riotboard/arm-2012.09/bin/../arm-none-eabi/lib//libc.a(lib_a-assert.o)
                              /home/leon/git/swp-report/iMX6_Platform_SDK/output/mx6dq/lib/libsdk.a(gic.o) (__assert_func)
/home/leon/riotboard/arm-2012.09/bin/../arm-none-eabi/lib//libc.a(lib_a-bzero.o)
                              /home/leon/git/swp-report/iMX6_Platform_SDK/output/mx6dq/lib/libsdk.a(mmu.o) (bzero)
/home/leon/riotboard/arm-2012.09/bin/../arm-none-eabi/lib//libc.a(lib_a-fflush.o)
                              /home/leon/git/swp-report/iMX6_Platform_SDK/output/mx6dq/httpd/sabre_ai_rev_c/obj/lwip/contrib/apps/httpserver_raw/httpd.o (fflush)
/home/leon/riotboard/arm-2012.09/bin/../arm-none-eabi/lib//libc.a(lib_a-findfp.o)
                              /home/leon/riotboard/arm-2012.09/bin/../arm-none-eabi/lib//libc.a(lib_a-fflush.o) (__sinit)
/home/leon/riotboard/arm-2012.09/bin/../arm-none-eabi/lib//libc.a(lib_a-fiprintf.o)
                              /home/leon/riotboard/arm-2012.09/bin/../arm-none-eabi/lib//libc.a(lib_a-assert.o) (fiprintf)
/home/leon/riotboard/arm-2012.09/bin/../arm-none-eabi/lib//libc.a(lib_a-fputc.o)
                              /home/leon/git/swp-report/iMX6_Platform_SDK/output/mx6dq/lib/libsdk.a(system_util.o) (fputc)
/home/leon/riotboard/arm-2012.09/bin/../arm-none-eabi/lib//libc.a(lib_a-freer.o)
                              /home/leon/riotboard/arm-2012.09/bin/../arm-none-eabi/lib//libc.a(lib_a-fflush.o) (_free_r)
/home/leon/riotboard/arm-2012.09/bin/../arm-none-eabi/lib//libc.a(lib_a-fwalk.o)
                              /home/leon/riotboard/arm-2012.09/bin/../arm-none-eabi/lib//libc.a(lib_a-findfp.o) (_fwalk)
/home/leon/riotboard/arm-2012.09/bin/../arm-none-eabi/lib//libc.a(lib_a-impure.o)
                              /home/leon/riotboard/arm-2012.09/bin/../arm-none-eabi/lib//libc.a(lib_a-fflush.o) (_global_impure_ptr)
/home/leon/riotboard/arm-2012.09/bin/../arm-none-eabi/lib//libc.a(lib_a-init.o)
                              /home/leon/git/swp-report/iMX6_Platform_SDK/output/mx6dq/lib/libsdk.a(startup.o) (__libc_init_array)
/home/leon/riotboard/arm-2012.09/bin/../arm-none-eabi/lib//libc.a(lib_a-malloc.o)
                              /home/leon/git/swp-report/iMX6_Platform_SDK/output/mx6dq/httpd/sabre_ai_rev_c/obj/lwip/contrib/apps/httpserver_raw/httpd.o (malloc)
/home/leon/riotboard/arm-2012.09/bin/../arm-none-eabi/lib//libc.a(lib_a-mallocr.o)
                              /home/leon/riotboard/arm-2012.09/bin/../arm-none-eabi/lib//libc.a(lib_a-findfp.o) (_malloc_r)
/home/leon/riotboard/arm-2012.09/bin/../arm-none-eabi/lib//libc.a(lib_a-memcmp.o)
                              /home/leon/git/swp-report/iMX6_Platform_SDK/output/mx6dq/lib/liblwip.a(autoip.o) (memcmp)
/home/leon/riotboard/arm-2012.09/bin/../arm-none-eabi/lib//libc.a(lib_a-memcpy.o)
                              /home/leon/git/swp-report/iMX6_Platform_SDK/output/mx6dq/lib/libsdk.a(enet_drv.o) (memcpy)
/home/leon/riotboard/arm-2012.09/bin/../arm-none-eabi/lib//libc.a(lib_a-memset.o)
                              /home/leon/git/swp-report/iMX6_Platform_SDK/output/mx6dq/httpd/sabre_ai_rev_c/obj/lwip/contrib/apps/httpserver_raw/httpd.o (memset)
/home/leon/riotboard/arm-2012.09/bin/../arm-none-eabi/lib//libc.a(lib_a-mlock.o)
                              /home/leon/riotboard/arm-2012.09/bin/../arm-none-eabi/lib//libc.a(lib_a-freer.o) (__malloc_lock)
/home/leon/riotboard/arm-2012.09/bin/../arm-none-eabi/lib//libc.a(lib_a-printf.o)
                              /home/leon/git/swp-report/iMX6_Platform_SDK/output/mx6dq/httpd/sabre_ai_rev_c/obj/apps/httpd/src/httpd_main.o (printf)
/home/leon/riotboard/arm-2012.09/bin/../arm-none-eabi/lib//libc.a(lib_a-putc.o)
                              /home/leon/riotboard/arm-2012.09/bin/../arm-none-eabi/lib//libc.a(lib_a-fputc.o) (_putc_r)
/home/leon/riotboard/arm-2012.09/bin/../arm-none-eabi/lib//libc.a(lib_a-rand.o)
                              /home/leon/git/swp-report/iMX6_Platform_SDK/output/mx6dq/lib/liblwip.a(dhcp.o) (rand)
/home/leon/riotboard/arm-2012.09/bin/../arm-none-eabi/lib//libc.a(lib_a-realloc.o)
                              /home/leon/git/swp-report/iMX6_Platform_SDK/output/mx6dq/lib/libsdk.a(system_util.o) (realloc)
/home/leon/riotboard/arm-2012.09/bin/../arm-none-eabi/lib//libc.a(lib_a-reallocr.o)
                              /home/leon/riotboard/arm-2012.09/bin/../arm-none-eabi/lib//libc.a(lib_a-realloc.o) (_realloc_r)
/home/leon/riotboard/arm-2012.09/bin/../arm-none-eabi/lib//libc.a(lib_a-rget.o)
                              /home/leon/git/swp-report/iMX6_Platform_SDK/output/mx6dq/lib/libsdk.a(system_util.o) (__srget_r)
/home/leon/riotboard/arm-2012.09/bin/../arm-none-eabi/lib//libc.a(lib_a-sbrkr.o)
                              /home/leon/riotboard/arm-2012.09/bin/../arm-none-eabi/lib//libc.a(lib_a-freer.o) (_sbrk_r)
/home/leon/riotboard/arm-2012.09/bin/../arm-none-eabi/lib//libc.a(lib_a-signal.o)
                              /home/leon/riotboard/arm-2012.09/bin/../arm-none-eabi/lib//libc.a(lib_a-abort.o) (raise)
/home/leon/riotboard/arm-2012.09/bin/../arm-none-eabi/lib//libc.a(lib_a-signalr.o)
                              /home/leon/riotboard/arm-2012.09/bin/../arm-none-eabi/lib//libc.a(lib_a-signal.o) (_kill_r)
/home/leon/riotboard/arm-2012.09/bin/../arm-none-eabi/lib//libc.a(lib_a-stdio.o)
                              /home/leon/riotboard/arm-2012.09/bin/../arm-none-eabi/lib//libc.a(lib_a-findfp.o) (__sread)
/home/leon/riotboard/arm-2012.09/bin/../arm-none-eabi/lib//libc.a(lib_a-strchr.o)
                              /home/leon/git/swp-report/iMX6_Platform_SDK/output/mx6dq/httpd/sabre_ai_rev_c/obj/lwip/contrib/apps/httpserver_raw/httpd.o (strchr)
/home/leon/riotboard/arm-2012.09/bin/../arm-none-eabi/lib//libc.a(lib_a-strcmp.o)
                              /home/leon/git/swp-report/iMX6_Platform_SDK/output/mx6dq/httpd/sabre_ai_rev_c/obj/lwip/contrib/apps/httpserver_raw/fs.o (strcmp)
/home/leon/riotboard/arm-2012.09/bin/../arm-none-eabi/lib//libc.a(lib_a-strlen.o)
                              /home/leon/git/swp-report/iMX6_Platform_SDK/output/mx6dq/httpd/sabre_ai_rev_c/obj/lwip/contrib/apps/httpserver_raw/httpd.o (strlen)
/home/leon/riotboard/arm-2012.09/bin/../arm-none-eabi/lib//libc.a(lib_a-strncmp.o)
                              /home/leon/git/swp-report/iMX6_Platform_SDK/output/mx6dq/httpd/sabre_ai_rev_c/obj/lwip/contrib/apps/httpserver_raw/httpd.o (strncmp)
/home/leon/riotboard/arm-2012.09/bin/../arm-none-eabi/lib//libc.a(lib_a-vfiprintf.o)
                              /home/leon/riotboard/arm-2012.09/bin/../arm-none-eabi/lib//libc.a(lib_a-fiprintf.o) (_vfiprintf_r)
/home/leon/riotboard/arm-2012.09/bin/../arm-none-eabi/lib//libc.a(lib_a-vfprintf.o)
                              /home/leon/riotboard/arm-2012.09/bin/../arm-none-eabi/lib//libc.a(lib_a-printf.o) (_vfprintf_r)
/home/leon/riotboard/arm-2012.09/bin/../arm-none-eabi/lib//libc.a(lib_a-vprintf.o)
                              /home/leon/git/swp-report/iMX6_Platform_SDK/output/mx6dq/lib/libsdk.a(text_color.o) (vprintf)
/home/leon/riotboard/arm-2012.09/bin/../arm-none-eabi/lib//libc.a(lib_a-wbuf.o)
                              /home/leon/riotboard/arm-2012.09/bin/../arm-none-eabi/lib//libc.a(lib_a-putc.o) (__swbuf_r)
/home/leon/riotboard/arm-2012.09/bin/../arm-none-eabi/lib//libc.a(lib_a-writer.o)
                              /home/leon/riotboard/arm-2012.09/bin/../arm-none-eabi/lib//libc.a(lib_a-stdio.o) (_write_r)
/home/leon/riotboard/arm-2012.09/bin/../arm-none-eabi/lib//libc.a(lib_a-wsetup.o)
                              /home/leon/riotboard/arm-2012.09/bin/../arm-none-eabi/lib//libc.a(lib_a-vfiprintf.o) (__swsetup_r)
/home/leon/riotboard/arm-2012.09/bin/../arm-none-eabi/lib//libc.a(lib_a-closer.o)
                              /home/leon/riotboard/arm-2012.09/bin/../arm-none-eabi/lib//libc.a(lib_a-stdio.o) (_close_r)
/home/leon/riotboard/arm-2012.09/bin/../arm-none-eabi/lib//libc.a(lib_a-dtoa.o)
                              /home/leon/riotboard/arm-2012.09/bin/../arm-none-eabi/lib//libc.a(lib_a-vfprintf.o) (_dtoa_r)
/home/leon/riotboard/arm-2012.09/bin/../arm-none-eabi/lib//libc.a(lib_a-fclose.o)
                              /home/leon/riotboard/arm-2012.09/bin/../arm-none-eabi/lib//libc.a(lib_a-findfp.o) (fclose)
/home/leon/riotboard/arm-2012.09/bin/../arm-none-eabi/lib//libc.a(lib_a-fputwc.o)
                              /home/leon/riotboard/arm-2012.09/bin/../arm-none-eabi/lib//libc.a(lib_a-vfiprintf.o) (_fputwc_r)
/home/leon/riotboard/arm-2012.09/bin/../arm-none-eabi/lib//libc.a(lib_a-fvwrite.o)
                              /home/leon/riotboard/arm-2012.09/bin/../arm-none-eabi/lib//libc.a(lib_a-vfiprintf.o) (__sfvwrite_r)
/home/leon/riotboard/arm-2012.09/bin/../arm-none-eabi/lib//libc.a(lib_a-locale.o)
                              /home/leon/riotboard/arm-2012.09/bin/../arm-none-eabi/lib//libc.a(lib_a-fputwc.o) (__locale_mb_cur_max)
/home/leon/riotboard/arm-2012.09/bin/../arm-none-eabi/lib//libc.a(lib_a-lseekr.o)
                              /home/leon/riotboard/arm-2012.09/bin/../arm-none-eabi/lib//libc.a(lib_a-stdio.o) (_lseek_r)
/home/leon/riotboard/arm-2012.09/bin/../arm-none-eabi/lib//libc.a(lib_a-makebuf.o)
                              /home/leon/riotboard/arm-2012.09/bin/../arm-none-eabi/lib//libc.a(lib_a-wsetup.o) (__smakebuf_r)
/home/leon/riotboard/arm-2012.09/bin/../arm-none-eabi/lib//libc.a(lib_a-memchr.o)
                              /home/leon/riotboard/arm-2012.09/bin/../arm-none-eabi/lib//libc.a(lib_a-vfiprintf.o) (memchr)
/home/leon/riotboard/arm-2012.09/bin/../arm-none-eabi/lib//libc.a(lib_a-memmove.o)
                              /home/leon/riotboard/arm-2012.09/bin/../arm-none-eabi/lib//libc.a(lib_a-reallocr.o) (memmove)
/home/leon/riotboard/arm-2012.09/bin/../arm-none-eabi/lib//libc.a(lib_a-mprec.o)
                              /home/leon/riotboard/arm-2012.09/bin/../arm-none-eabi/lib//libc.a(lib_a-dtoa.o) (_Balloc)
/home/leon/riotboard/arm-2012.09/bin/../arm-none-eabi/lib//libc.a(lib_a-readr.o)
                              /home/leon/riotboard/arm-2012.09/bin/../arm-none-eabi/lib//libc.a(lib_a-stdio.o) (_read_r)
/home/leon/riotboard/arm-2012.09/bin/../arm-none-eabi/lib//libc.a(lib_a-reent.o)
                              /home/leon/riotboard/arm-2012.09/bin/../arm-none-eabi/lib//libc.a(lib_a-sbrkr.o) (errno)
/home/leon/riotboard/arm-2012.09/bin/../arm-none-eabi/lib//libc.a(lib_a-refill.o)
                              /home/leon/riotboard/arm-2012.09/bin/../arm-none-eabi/lib//libc.a(lib_a-rget.o) (__srefill_r)
/home/leon/riotboard/arm-2012.09/bin/../arm-none-eabi/lib//libc.a(lib_a-s_fpclassify.o)
                              /home/leon/riotboard/arm-2012.09/bin/../arm-none-eabi/lib//libc.a(lib_a-vfprintf.o) (__fpclassifyd)
/home/leon/riotboard/arm-2012.09/bin/../arm-none-eabi/lib//libc.a(lib_a-wcrtomb.o)
                              /home/leon/riotboard/arm-2012.09/bin/../arm-none-eabi/lib//libc.a(lib_a-fputwc.o) (_wcrtomb_r)
/home/leon/riotboard/arm-2012.09/bin/../arm-none-eabi/lib//libc.a(lib_a-wctomb_r.o)
                              /home/leon/riotboard/arm-2012.09/bin/../arm-none-eabi/lib//libc.a(lib_a-wcrtomb.o) (__wctomb)
/home/leon/riotboard/arm-2012.09/bin/../arm-none-eabi/lib//libc.a(lib_a-callocr.o)
                              /home/leon/riotboard/arm-2012.09/bin/../arm-none-eabi/lib//libc.a(lib_a-mprec.o) (_calloc_r)
/home/leon/riotboard/arm-2012.09/bin/../arm-none-eabi/lib//libc.a(lib_a-fstatr.o)
                              /home/leon/riotboard/arm-2012.09/bin/../arm-none-eabi/lib//libc.a(lib_a-makebuf.o) (_fstat_r)
/home/leon/riotboard/arm-2012.09/bin/../arm-none-eabi/lib//libc.a(lib_a-isattyr.o)
                              /home/leon/riotboard/arm-2012.09/bin/../arm-none-eabi/lib//libc.a(lib_a-makebuf.o) (_isatty_r)
/home/leon/riotboard/arm-2012.09/bin/../lib/gcc/arm-none-eabi/4.7.2//libgcc.a(_udivsi3.o)
                              /home/leon/git/swp-report/iMX6_Platform_SDK/output/mx6dq/lib/libsdk.a(ccm_pll.o) (__aeabi_uidiv)
/home/leon/riotboard/arm-2012.09/bin/../lib/gcc/arm-none-eabi/4.7.2//libgcc.a(_divsi3.o)
                              /home/leon/git/swp-report/iMX6_Platform_SDK/output/mx6dq/lib/liblwip.a(tcp_in.o) (__aeabi_idiv)
/home/leon/riotboard/arm-2012.09/bin/../lib/gcc/arm-none-eabi/4.7.2//libgcc.a(_dvmd_tls.o)
                              /home/leon/riotboard/arm-2012.09/bin/../lib/gcc/arm-none-eabi/4.7.2//libgcc.a(_udivsi3.o) (__aeabi_idiv0)
/home/leon/riotboard/arm-2012.09/bin/../lib/gcc/arm-none-eabi/4.7.2//libgcc.a(_arm_addsubdf3.o)
                              /home/leon/riotboard/arm-2012.09/bin/../arm-none-eabi/lib//libc.a(lib_a-dtoa.o) (__aeabi_dsub)
/home/leon/riotboard/arm-2012.09/bin/../lib/gcc/arm-none-eabi/4.7.2//libgcc.a(_arm_muldivdf3.o)
                              /home/leon/riotboard/arm-2012.09/bin/../arm-none-eabi/lib//libc.a(lib_a-dtoa.o) (__aeabi_dmul)
/home/leon/riotboard/arm-2012.09/bin/../lib/gcc/arm-none-eabi/4.7.2//libgcc.a(_arm_cmpdf2.o)
                              /home/leon/riotboard/arm-2012.09/bin/../arm-none-eabi/lib//libc.a(lib_a-vfprintf.o) (__aeabi_dcmpeq)
/home/leon/riotboard/arm-2012.09/bin/../lib/gcc/arm-none-eabi/4.7.2//libgcc.a(_arm_fixdfsi.o)
                              /home/leon/riotboard/arm-2012.09/bin/../arm-none-eabi/lib//libc.a(lib_a-dtoa.o) (__aeabi_d2iz)
/home/leon/riotboard/arm-2012.09/bin/../lib/gcc/arm-none-eabi/4.7.2//libgcc.a(_aeabi_uldivmod.o)
                              /home/leon/git/swp-report/iMX6_Platform_SDK/output/mx6dq/lib/libsdk.a(timer.o) (__aeabi_uldivmod)
/home/leon/riotboard/arm-2012.09/bin/../lib/gcc/arm-none-eabi/4.7.2//libgcc.a(bpabi.o)
                              /home/leon/riotboard/arm-2012.09/bin/../lib/gcc/arm-none-eabi/4.7.2//libgcc.a(_aeabi_uldivmod.o) (__gnu_uldivmod_helper)
/home/leon/riotboard/arm-2012.09/bin/../lib/gcc/arm-none-eabi/4.7.2//libgcc.a(_divdi3.o)
                              /home/leon/riotboard/arm-2012.09/bin/../lib/gcc/arm-none-eabi/4.7.2//libgcc.a(bpabi.o) (__divdi3)
/home/leon/riotboard/arm-2012.09/bin/../lib/gcc/arm-none-eabi/4.7.2//libgcc.a(_udivdi3.o)
                              /home/leon/riotboard/arm-2012.09/bin/../lib/gcc/arm-none-eabi/4.7.2//libgcc.a(bpabi.o) (__udivdi3)
/home/leon/riotboard/arm-2012.09/bin/../lib/gcc/arm-none-eabi/4.7.2//libgcc.a(_clzsi2.o)
                              /home/leon/riotboard/arm-2012.09/bin/../lib/gcc/arm-none-eabi/4.7.2//libgcc.a(_divdi3.o) (__clzsi2)
/home/leon/git/swp-report/iMX6_Platform_SDK/output/mx6dq/lib/libsdk.a(max7310.o)
                              /home/leon/git/swp-report/iMX6_Platform_SDK/output/mx6dq/lib/libboard_sabre_ai_rev_c.a(board_io_expanders.o) (max7310_init)
/home/leon/git/swp-report/iMX6_Platform_SDK/output/mx6dq/lib/libsdk.a(runtime_support.o)
                              /home/leon/riotboard/arm-2012.09/bin/../arm-none-eabi/lib//libc.a(lib_a-isattyr.o) (_isatty)
/home/leon/git/swp-report/iMX6_Platform_SDK/output/mx6dq/lib/libsdk.a(gpio.o)
                              /home/leon/git/swp-report/iMX6_Platform_SDK/output/mx6dq/lib/libboard_sabre_ai_rev_c.a(board_io_expanders.o) (gpio_set_gpio)
/home/leon/git/swp-report/iMX6_Platform_SDK/output/mx6dq/lib/libsdk.a(imx6dq_gpio_map.o)
                              /home/leon/git/swp-report/iMX6_Platform_SDK/output/mx6dq/lib/libsdk.a(gpio.o) (k_gpio_mux_registers)
/home/leon/git/swp-report/iMX6_Platform_SDK/output/mx6dq/lib/libsdk.a(imx_i2c.o)
                              /home/leon/git/swp-report/iMX6_Platform_SDK/output/mx6dq/lib/libsdk.a(max7310.o) (i2c_read)
/home/leon/git/swp-report/iMX6_Platform_SDK/output/mx6dq/lib/libboard_sabre_ai_rev_c.a(board_network.o)
                              /home/leon/git/swp-report/iMX6_Platform_SDK/output/mx6dq/lib/liblwip.a(mx6_ethernetif.o) (imx_enet_iomux)
/home/leon/git/swp-report/iMX6_Platform_SDK/output/mx6dq/lib/libboard_sabre_ai_rev_c.a(i2c_iomux_config.o)
                              /home/leon/git/swp-report/iMX6_Platform_SDK/output/mx6dq/lib/libsdk.a(imx_i2c.o) (i2c_iomux_config)

Allocating common symbols
Common symbol       size              file

errno               0x4               /home/leon/riotboard/arm-2012.09/bin/../arm-none-eabi/lib//libc.a(lib_a-reent.o)

Memory Configuration

Name             Origin             Length             Attributes
OCRAM            0x00900000         0x00040000         xrw
DDR              0x10000000         0x80000000         xrw
*default*        0x00000000         0xffffffff

Linker script and memory map

LOAD /home/leon/riotboard/arm-2012.09/bin/../lib/gcc/arm-none-eabi/4.7.2//crtbegin.o
LOAD /home/leon/riotboard/arm-2012.09/bin/../lib/gcc/arm-none-eabi/4.7.2//crti.o
LOAD /home/leon/riotboard/arm-2012.09/bin/../lib/gcc/arm-none-eabi/4.7.2//crtend.o
LOAD /home/leon/riotboard/arm-2012.09/bin/../lib/gcc/arm-none-eabi/4.7.2//crtn.o

.l1_page_table  0x00900000     0x4000
                0x00900000                __l1_page_table_start = .
                0x00904000                . = (. + 0x4000)
 *fill*         0x00900000     0x4000 

.heap.ocram     0x00904000    0x3bfb8
                0x00904000                __heap_ocram_start = .
                0x0093ffb8                . = (. + 0x3bfb8)
 *fill*         0x00904000    0x3bfb8 
                0x0093ffb8                __heap_ocram_end = .

.ram_vectors    0x0093ffb8       0x48
                0x0093ffb8                __ram_vectors_start = .
                0x00940000                . = (. + 0x48)
 *fill*         0x0093ffb8       0x48 
                0x00940000                __ram_vectors_end = .
                0x10000000                _start_image_add = ORIGIN (DDR)

.ivt            0x10000000      0x420
                0x10000400                . = (. + 0x400)
 *fill*         0x10000000      0x400 
 *(.ivt)
 .ivt           0x10000400       0x20 /home/leon/git/swp-report/iMX6_Platform_SDK/output/mx6dq/httpd/sabre_ai_rev_c/obj/apps/common/ivt.o
                0x10000400                input_ivt

.boot_data      0x10000420        0xc
                0x10000420                __start_boot_data = .
 *(.boot_data)
 .boot_data     0x10000420        0xc /home/leon/git/swp-report/iMX6_Platform_SDK/output/mx6dq/httpd/sabre_ai_rev_c/obj/apps/common/ivt.o
                0x10000420                bd

.dcd_hdr        0x10000430        0x4
                0x10000430                __start_dcd = .
 *(.dcd_hdr)
 .dcd_hdr       0x10000430        0x4 /home/leon/git/swp-report/iMX6_Platform_SDK/output/mx6dq/lib/libboard_sabre_ai_rev_c.a(dcd.o)
                0x10000430                input_dcd_hdr

.dcd_wrt_cmd    0x10000434        0x4
 *(.dcd_wrt_cmd)
 .dcd_wrt_cmd   0x10000434        0x4 /home/leon/git/swp-report/iMX6_Platform_SDK/output/mx6dq/lib/libboard_sabre_ai_rev_c.a(dcd.o)
                0x10000434                input_dcd_wrt_cmd

.dcd_data       0x10000438      0x298
 *(.dcd_data)
 .dcd_data      0x10000438      0x298 /home/leon/git/swp-report/iMX6_Platform_SDK/output/mx6dq/lib/libboard_sabre_ai_rev_c.a(dcd.o)
                0x10000438                input_dcd

.text           0x100006d0    0x468d8
 CREATE_OBJECT_SYMBOLS
 *(.startup)
 .startup       0x100006d0      0x138 /home/leon/git/swp-report/iMX6_Platform_SDK/output/mx6dq/lib/libsdk.a(startup.o)
                0x100006d0                _start
 *(.text .text.* .gnu.linkonce.t.*)
 .text          0x10000808      0x128 /home/leon/riotboard/arm-2012.09/bin/../lib/gcc/arm-none-eabi/4.7.2//crtbegin.o
 .text          0x10000930        0x0 /home/leon/riotboard/arm-2012.09/bin/../lib/gcc/arm-none-eabi/4.7.2//crti.o
 .text          0x10000930        0x0 /home/leon/riotboard/arm-2012.09/bin/../lib/gcc/arm-none-eabi/4.7.2//crtend.o
 .text          0x10000930        0x0 /home/leon/riotboard/arm-2012.09/bin/../lib/gcc/arm-none-eabi/4.7.2//crtn.o
 .text          0x10000930        0x0 /home/leon/git/swp-report/iMX6_Platform_SDK/output/mx6dq/httpd/sabre_ai_rev_c/obj/apps/common/ivt.o
 .text          0x10000930       0x98 /home/leon/git/swp-report/iMX6_Platform_SDK/output/mx6dq/httpd/sabre_ai_rev_c/obj/apps/common/platform_init.o
                0x10000930                platform_init
 .text          0x100009c8      0x25c /home/leon/git/swp-report/iMX6_Platform_SDK/output/mx6dq/httpd/sabre_ai_rev_c/obj/apps/httpd/src/httpd_main.o
                0x100009c8                netif_status_callback
                0x10000a54                netif_link_status_callback
                0x10000ac0                init_lwip
                0x10000c00                main
 .text          0x10000c24      0x138 /home/leon/git/swp-report/iMX6_Platform_SDK/output/mx6dq/httpd/sabre_ai_rev_c/obj/lwip/contrib/apps/httpserver_raw/fs.o
                0x10000c24                fs_open
                0x10000d0c                fs_close
                0x10000d28                fs_bytes_left
 .text          0x10000d5c     0x17a0 /home/leon/git/swp-report/iMX6_Platform_SDK/output/mx6dq/httpd/sabre_ai_rev_c/obj/lwip/contrib/apps/httpserver_raw/httpd.o
                0x10002430                httpd_init
                0x1000244c                http_set_cgi_handlers
 .text          0x100024fc      0xcdc /home/leon/git/swp-report/iMX6_Platform_SDK/output/mx6dq/lib/libsdk.a(ccm_pll.o)
                0x100024fc                ccm_init
                0x10002620                get_main_clock
                0x100028b0                get_peri_clock
                0x10002a60                ccm_ccgr_config
                0x10002ac8                clock_gating_config
                0x10002f48                ccm_set_lpm_wakeup_source
                0x1000303c                ccm_enter_low_power
                0x100030ac                ipu_hsp_clk_config
                0x100030cc                gpu_clock_config
 .text          0x100031d8      0x164 /home/leon/git/swp-report/iMX6_Platform_SDK/output/mx6dq/lib/libsdk.a(cortexA9.o)
                0x100031d8                arm_set_interrupt_state
                0x100031fc                cpu_get_current
                0x10003208                enable_neon_fpu
                0x10003224                disable_strict_align_check
                0x10003238                disable_L1_cache
                0x10003258                get_arm_private_peripheral_base
                0x10003260                arm_unified_tlb_invalidate
                0x10003270                arm_unified_tlb_invalidate_is
                0x10003280                arm_branch_prediction_enable
                0x10003290                arm_branch_prediction_disable
                0x100032a0                arm_branch_target_cache_invalidate
                0x100032ac                arm_branch_target_cache_invalidate_is
                0x100032b8                scu_enable
                0x100032cc                scu_join_smp
                0x100032dc                scu_leave_smp
                0x100032ec                scu_get_cpus_in_smp
                0x10003300                scu_enable_maintenance_broadcast
                0x10003310                scu_disable_maintenance_broadcast
                0x10003320                scu_secure_invalidate
 .text          0x1000333c      0x5e0 /home/leon/git/swp-report/iMX6_Platform_SDK/output/mx6dq/lib/libsdk.a(gic.o)
                0x10003420                gic_enable
                0x10003480                gic_set_irq_security
                0x10003528                gic_enable_irq
                0x100035a4                gic_set_irq_priority
                0x100035ec                gic_set_cpu_target
                0x100036f8                gic_send_sgi
                0x1000374c                gic_cpu_enable
                0x100037ac                gic_set_cpu_priority_mask
                0x100037e0                gic_read_irq_ack
                0x1000380c                gic_write_end_of_irq
                0x1000383c                gic_init
                0x100038e0                gic_init_cpu
 .text          0x1000391c      0x460 /home/leon/git/swp-report/iMX6_Platform_SDK/output/mx6dq/lib/libsdk.a(mmu.o)
                0x1000391c                mmu_enable
                0x10003954                mmu_disable
                0x10003988                mmu_init
                0x10003aa4                mmu_map_l1_range
                0x10003cbc                mmu_virtual_to_physical
 .text          0x10003d7c        0x0 /home/leon/git/swp-report/iMX6_Platform_SDK/output/mx6dq/lib/libsdk.a(startup.o)
 .text          0x10003d7c        0x4 /home/leon/git/swp-report/iMX6_Platform_SDK/output/mx6dq/lib/libsdk.a(vectors.o)
                0x10003d7c                exception_handler
 .text.vectors  0x10003d80       0x48 /home/leon/git/swp-report/iMX6_Platform_SDK/output/mx6dq/lib/libsdk.a(vectors.o)
                0x10003d80                vectors
 .text          0x10003dc8      0x914 /home/leon/git/swp-report/iMX6_Platform_SDK/output/mx6dq/lib/libsdk.a(system_util.o)
                0x10003dc8                _sys_exit
                0x10003de4                mybkpt
                0x10003dec                is_input_char
                0x10003f6c                read_input_string
                0x10004254                get_input_hex
                0x100044d4                read_int
                0x10004638                jump_to_sdp
 .text          0x100046dc       0xe0 /home/leon/git/swp-report/iMX6_Platform_SDK/output/mx6dq/lib/libsdk.a(text_color.o)
                0x100046dc                printf_color
                0x10004778                get_color_supported
 .text          0x100047bc     0x17e0 /home/leon/git/swp-report/iMX6_Platform_SDK/output/mx6dq/lib/libsdk.a(enet_drv.o)
                0x100047bc                imx_enet_mii_read
                0x100048cc                imx_enet_mii_write
                0x10004da0                enet_phy_rework_ar8031
                0x10004f14                enet_phy_rework_ksz9021
                0x10005008                imx_enet_phy_init
                0x10005288                imx_enet_get_phy_status
                0x100055b0                imx_enet_phy_enable_external_loopback
                0x100056cc                imx_enet_poll
                0x100057c4                imx_enet_send
                0x100058dc                imx_enet_recv
                0x10005ab8                imx_enet_init
                0x10005c0c                imx_enet_start
                0x10005ca0                imx_enet_stop
                0x10005ce4                imx_enet_isolate_phy
                0x10005d88                imx_enet_unisolate_phy
                0x10005e50                imx_enet_mii_type
 .text          0x10005f9c      0x290 /home/leon/git/swp-report/iMX6_Platform_SDK/output/mx6dq/lib/libsdk.a(timer.o)
                0x10005f9c                hal_delay_us
                0x1000600c                system_time_init
                0x1000616c                time_get_microseconds
 .text          0x1000622c     0x2820 /home/leon/git/swp-report/iMX6_Platform_SDK/output/mx6dq/lib/libsdk.a(imx_uart.o)
                0x1000622c                uart_get_reffreq
                0x10006328                uart_putchar
                0x10006478                uart_getchar
                0x100065d8                uart_set_FIFO_mode
                0x10007104                uart_set_loopback_mode
                0x10007358                uart_setup_interrupt
                0x10007424                uart_init
 .text          0x10008a4c       0x98 /home/leon/git/swp-report/iMX6_Platform_SDK/output/mx6dq/lib/libsdk.a(arm_abort.o)
                0x10008a4c                common_abort_handler
                0x10008aac                data_abort_handler
                0x10008ac4                prefetch_abort_handler
 .text          0x10008ae4      0x1bc /home/leon/git/swp-report/iMX6_Platform_SDK/output/mx6dq/lib/libsdk.a(interrupt.o)
                0x10008ae4                IRQ_HDLR
                0x10008bac                disable_interrupt
                0x10008be8                enable_interrupt
                0x10008c40                register_interrupt_routine
                0x10008c74                default_interrupt_routine
 .text          0x10008ca0      0x8e0 /home/leon/git/swp-report/iMX6_Platform_SDK/output/mx6dq/lib/libsdk.a(epit.o)
                0x10008ca0                epit_reload_counter
                0x10008d00                epit_get_counter_value
                0x10008d5c                epit_set_compare_event
                0x10008dbc                epit_get_compare_event
                0x10008eb4                epit_counter_disable
                0x10009078                epit_counter_enable
                0x100092d4                epit_setup_interrupt
                0x10009364                epit_init
 .text          0x10009580      0x4bc /home/leon/git/swp-report/iMX6_Platform_SDK/output/mx6dq/lib/libsdk.a(abort_handler.o)
                0x10009580                dump_regs
 .text          0x10009a3c      0x12c /home/leon/git/swp-report/iMX6_Platform_SDK/output/mx6dq/lib/libboard_sabre_ai_rev_c.a(board_io_expanders.o)
                0x10009a3c                board_ioexpander_init
                0x10009b34                board_ioexpander_iomux_config
 .text          0x10009b68        0x0 /home/leon/git/swp-report/iMX6_Platform_SDK/output/mx6dq/lib/libboard_sabre_ai_rev_c.a(hardware_modules.o)
 .text          0x10009b68        0x0 /home/leon/git/swp-report/iMX6_Platform_SDK/output/mx6dq/lib/libboard_sabre_ai_rev_c.a(dcd.o)
 .text          0x10009b68       0x98 /home/leon/git/swp-report/iMX6_Platform_SDK/output/mx6dq/lib/libboard_sabre_ai_rev_c.a(i2c3_iomux_config.o)
                0x10009b68                i2c3_iomux_config
 .text          0x10009c00       0x90 /home/leon/git/swp-report/iMX6_Platform_SDK/output/mx6dq/lib/libboard_sabre_ai_rev_c.a(uart_iomux_config.o)
                0x10009c00                uart_iomux_config
 .text          0x10009c90      0x2c4 /home/leon/git/swp-report/iMX6_Platform_SDK/output/mx6dq/lib/libboard_sabre_ai_rev_c.a(iomux_config.o)
                0x10009c90                iomux_config
                0x10009d14                arm_iomux_config
                0x10009d24                asrc_iomux_config
                0x10009d34                dcic1_iomux_config
                0x10009d44                dcic2_iomux_config
                0x10009d54                ecspi2_iomux_config
                0x10009d64                ecspi3_iomux_config
                0x10009d74                ecspi4_iomux_config
                0x10009d84                ecspi5_iomux_config
                0x10009d94                epit1_iomux_config
                0x10009da4                epit2_iomux_config
                0x10009db4                gpio3_iomux_config
                0x10009dc4                gpio7_iomux_config
                0x10009dd4                gpt_iomux_config
                0x10009de4                hdmi_iomux_config
                0x10009df4                i2c1_iomux_config
                0x10009e04                ipu2_iomux_config
                0x10009e14                kpp_iomux_config
                0x10009e24                ldb_iomux_config
                0x10009e34                mipi_csi_iomux_config
                0x10009e44                mipi_dsi_iomux_config
                0x10009e54                mipi_hsi_iomux_config
                0x10009e64                pcie_iomux_config
                0x10009e74                pmu_iomux_config
                0x10009e84                pwm1_iomux_config
                0x10009e94                pwm2_iomux_config
                0x10009ea4                sata_phy_iomux_config
                0x10009eb4                sdma_iomux_config
                0x10009ec4                snvs_iomux_config
                0x10009ed4                src_iomux_config
                0x10009ee4                uart1_iomux_config
                0x10009ef4                uart5_iomux_config
                0x10009f04                usb_iomux_config
                0x10009f14                usdhc2_iomux_config
                0x10009f24                usdhc4_iomux_config
                0x10009f34                wdog2_iomux_config
                0x10009f44                xtalosc_iomux_config
 .text          0x10009f54      0x5f8 /home/leon/git/swp-report/iMX6_Platform_SDK/output/mx6dq/lib/libboard_sabre_ai_rev_c.a(ipu1_iomux_config.o)
                0x10009f54                ipu1_iomux_config
 .text          0x1000a54c       0xac /home/leon/git/swp-report/iMX6_Platform_SDK/output/mx6dq/lib/libboard_sabre_ai_rev_c.a(mlb_iomux_config.o)
                0x1000a54c                mlb_iomux_config
 .text          0x1000a5f8     0x2884 /home/leon/git/swp-report/iMX6_Platform_SDK/output/mx6dq/lib/libboard_sabre_ai_rev_c.a(mmdc_iomux_config.o)
                0x1000a5f8                mmdc_iomux_config
 .text          0x1000ce7c       0x34 /home/leon/git/swp-report/iMX6_Platform_SDK/output/mx6dq/lib/libboard_sabre_ai_rev_c.a(pwm3_iomux_config.o)
                0x1000ce7c                pwm3_iomux_config
 .text          0x1000ceb0       0x34 /home/leon/git/swp-report/iMX6_Platform_SDK/output/mx6dq/lib/libboard_sabre_ai_rev_c.a(pwm4_iomux_config.o)
                0x1000ceb0                pwm4_iomux_config
 .text          0x1000cee4       0x70 /home/leon/git/swp-report/iMX6_Platform_SDK/output/mx6dq/lib/libboard_sabre_ai_rev_c.a(sjc_iomux_config.o)
                0x1000cee4                sjc_iomux_config
 .text          0x1000cf54       0x40 /home/leon/git/swp-report/iMX6_Platform_SDK/output/mx6dq/lib/libboard_sabre_ai_rev_c.a(spdif_iomux_config.o)
                0x1000cf54                spdif_iomux_config
 .text          0x1000cf94       0xe0 /home/leon/git/swp-report/iMX6_Platform_SDK/output/mx6dq/lib/libboard_sabre_ai_rev_c.a(uart2_iomux_config.o)
                0x1000cf94                uart2_iomux_config
 .text          0x1000d074       0xe0 /home/leon/git/swp-report/iMX6_Platform_SDK/output/mx6dq/lib/libboard_sabre_ai_rev_c.a(uart3_iomux_config.o)
                0x1000d074                uart3_iomux_config
 .text          0x1000d154       0x78 /home/leon/git/swp-report/iMX6_Platform_SDK/output/mx6dq/lib/libboard_sabre_ai_rev_c.a(uart4_iomux_config.o)
                0x1000d154                uart4_iomux_config
 .text          0x1000d1cc      0x19c /home/leon/git/swp-report/iMX6_Platform_SDK/output/mx6dq/lib/libboard_sabre_ai_rev_c.a(usdhc1_iomux_config.o)
                0x1000d1cc                usdhc1_iomux_config
 .text          0x1000d368      0x1c0 /home/leon/git/swp-report/iMX6_Platform_SDK/output/mx6dq/lib/libboard_sabre_ai_rev_c.a(usdhc3_iomux_config.o)
                0x1000d368                usdhc3_iomux_config
 .text          0x1000d528       0x34 /home/leon/git/swp-report/iMX6_Platform_SDK/output/mx6dq/lib/libboard_sabre_ai_rev_c.a(wdog1_iomux_config.o)
                0x1000d528                wdog1_iomux_config
 .text          0x1000d55c      0x13c /home/leon/git/swp-report/iMX6_Platform_SDK/output/mx6dq/lib/libboard_sabre_ai_rev_c.a(audmux_iomux_config.o)
                0x1000d55c                audmux_iomux_config
 .text          0x1000d698       0x34 /home/leon/git/swp-report/iMX6_Platform_SDK/output/mx6dq/lib/libboard_sabre_ai_rev_c.a(ccm_iomux_config.o)
                0x1000d698                ccm_iomux_config
 .text          0x1000d6cc      0x104 /home/leon/git/swp-report/iMX6_Platform_SDK/output/mx6dq/lib/libboard_sabre_ai_rev_c.a(ecspi1_iomux_config.o)
                0x1000d6cc                ecspi1_iomux_config
 .text          0x1000d7d0      0x5d0 /home/leon/git/swp-report/iMX6_Platform_SDK/output/mx6dq/lib/libboard_sabre_ai_rev_c.a(eim_iomux_config.o)
                0x1000d7d0                eim_iomux_config
 .text          0x1000dda0      0x3bc /home/leon/git/swp-report/iMX6_Platform_SDK/output/mx6dq/lib/libboard_sabre_ai_rev_c.a(enet_iomux_config.o)
                0x1000dda0                enet_iomux_config
 .text          0x1000e15c      0x218 /home/leon/git/swp-report/iMX6_Platform_SDK/output/mx6dq/lib/libboard_sabre_ai_rev_c.a(esai_iomux_config.o)
                0x1000e15c                esai_iomux_config
 .text          0x1000e374       0x68 /home/leon/git/swp-report/iMX6_Platform_SDK/output/mx6dq/lib/libboard_sabre_ai_rev_c.a(flexcan1_iomux_config.o)
                0x1000e374                flexcan1_iomux_config
 .text          0x1000e3dc       0x68 /home/leon/git/swp-report/iMX6_Platform_SDK/output/mx6dq/lib/libboard_sabre_ai_rev_c.a(flexcan2_iomux_config.o)
                0x1000e3dc                flexcan2_iomux_config
 .text          0x1000e444      0x130 /home/leon/git/swp-report/iMX6_Platform_SDK/output/mx6dq/lib/libboard_sabre_ai_rev_c.a(gpio1_iomux_config.o)
                0x1000e444                gpio1_iomux_config
 .text          0x1000e574       0xfc /home/leon/git/swp-report/iMX6_Platform_SDK/output/mx6dq/lib/libboard_sabre_ai_rev_c.a(gpio2_iomux_config.o)
                0x1000e574                gpio2_iomux_config
 .text          0x1000e670       0x58 /home/leon/git/swp-report/iMX6_Platform_SDK/output/mx6dq/lib/libboard_sabre_ai_rev_c.a(gpio4_iomux_config.o)
                0x1000e670                gpio4_iomux_config
 .text          0x1000e6c8       0xc4 /home/leon/git/swp-report/iMX6_Platform_SDK/output/mx6dq/lib/libboard_sabre_ai_rev_c.a(gpio5_iomux_config.o)
                0x1000e6c8                gpio5_iomux_config
 .text          0x1000e78c       0x54 /home/leon/git/swp-report/iMX6_Platform_SDK/output/mx6dq/lib/libboard_sabre_ai_rev_c.a(gpio6_iomux_config.o)
                0x1000e78c                gpio6_iomux_config
 .text          0x1000e7e0      0x274 /home/leon/git/swp-report/iMX6_Platform_SDK/output/mx6dq/lib/libboard_sabre_ai_rev_c.a(gpmi_iomux_config.o)
                0x1000e7e0                gpmi_iomux_config
 .text          0x1000ea54       0x78 /home/leon/git/swp-report/iMX6_Platform_SDK/output/mx6dq/lib/libboard_sabre_ai_rev_c.a(i2c2_iomux_config.o)
                0x1000ea54                i2c2_iomux_config
 .text          0x1000eacc     0x3aa8 /home/leon/git/swp-report/iMX6_Platform_SDK/output/mx6dq/lib/liblwip.a(dhcp.o)
                0x1000eef8                dhcp_coarse_tmr
                0x1000efd8                dhcp_fine_tmr
                0x1000f54c                dhcp_set_struct
                0x1000f634                dhcp_cleanup
                0x1000f6b4                dhcp_start
                0x1000f978                dhcp_inform
                0x1000fb4c                dhcp_network_changed
                0x1000fc2c                dhcp_arp_reply
                0x1001039c                dhcp_renew
                0x100108b4                dhcp_release
                0x10010ad0                dhcp_stop
 .text          0x10012574     0x10d0 /home/leon/git/swp-report/iMX6_Platform_SDK/output/mx6dq/lib/liblwip.a(dns.o)
                0x10012574                dns_init
                0x1001264c                dns_setserver
                0x100126d0                dns_getserver
                0x10012720                dns_tmr
                0x10013564                dns_gethostbyname
 .text          0x10013644       0x30 /home/leon/git/swp-report/iMX6_Platform_SDK/output/mx6dq/lib/liblwip.a(init.o)
                0x10013644                lwip_init
 .text          0x10013674      0xcc0 /home/leon/git/swp-report/iMX6_Platform_SDK/output/mx6dq/lib/liblwip.a(autoip.o)
                0x10013674                autoip_set_struct
                0x10013b30                autoip_start
                0x10013dbc                autoip_network_changed
                0x10013e0c                autoip_stop
                0x10013e4c                autoip_tmr
                0x10014194                autoip_arp_reply
 .text          0x10014334     0x11b0 /home/leon/git/swp-report/iMX6_Platform_SDK/output/mx6dq/lib/liblwip.a(igmp.o)
                0x10014334                igmp_init
                0x1001436c                igmp_dump_group_list
                0x100143b0                igmp_start
                0x10014450                igmp_stop
                0x1001454c                igmp_report_groups
                0x100145b4                igmp_lookfor_group
                0x10014810                igmp_input
                0x10014c1c                igmp_joingroup
                0x10014e20                igmp_leavegroup
                0x1001500c                igmp_tmr
 .text          0x100154e4     0x11e4 /home/leon/git/swp-report/iMX6_Platform_SDK/output/mx6dq/lib/liblwip.a(ip4.o)
                0x100154e4                ip_route
                0x100155d8                ip_input
                0x10015d74                ip_output_if
                0x10015de0                ip_output_if_opt
                0x100164f8                ip_output
                0x100165d0                ip_output_hinted
 .text          0x100166c8      0x7dc /home/leon/git/swp-report/iMX6_Platform_SDK/output/mx6dq/lib/liblwip.a(ip4_addr.o)
                0x100166c8                ip4_addr_isbroadcast
                0x100167a4                ip4_addr_netmask_valid
                0x1001684c                ipaddr_addr
                0x10016894                ipaddr_aton
                0x10016c60                ipaddr_ntoa
                0x10016c98                ipaddr_ntoa_r
 .text          0x10016ea4        0x0 /home/leon/git/swp-report/iMX6_Platform_SDK/output/mx6dq/lib/liblwip.a(memp.o)
 .text          0x10016ea4      0xdd8 /home/leon/git/swp-report/iMX6_Platform_SDK/output/mx6dq/lib/liblwip.a(netif.o)
                0x10016ea4                netif_init
                0x10016eb4                netif_add
                0x10017078                netif_set_addr
                0x100170c4                netif_remove
                0x100171f4                netif_find
                0x100172bc                netif_set_ipaddr
                0x10017450                netif_set_gw
                0x10017494                netif_set_netmask
                0x100174f0                netif_set_default
                0x10017544                netif_set_up
                0x10017624                netif_set_down
                0x100176b8                netif_set_status_callback
                0x100176f0                netif_set_link_up
                0x100177e4                netif_set_link_down
                0x1001784c                netif_set_link_callback
                0x10017884                netif_loop_output
                0x10017a80                netif_poll
                0x10017c30                netif_poll_all
 .text          0x10017c7c     0x1b34 /home/leon/git/swp-report/iMX6_Platform_SDK/output/mx6dq/lib/liblwip.a(pbuf.o)
                0x10017c7c                pbuf_free_ooseq
                0x10017d20                pbuf_alloc
                0x100182d8                pbuf_realloc
                0x10018550                pbuf_header
                0x10018770                pbuf_free
                0x1001894c                pbuf_clen
                0x100189a0                pbuf_ref
                0x100189e0                pbuf_cat
                0x10018b38                pbuf_chain
                0x10018b6c                pbuf_dechain
                0x10018cac                pbuf_copy
                0x10018fd4                pbuf_copy_partial
                0x100191a0                pbuf_take
                0x1001939c                pbuf_coalesce
                0x10019468                pbuf_get_at
                0x10019520                pbuf_memcmp
                0x1001964c                pbuf_memfind
                0x10019710                pbuf_strstr
 .text          0x100197b0      0x5e4 /home/leon/git/swp-report/iMX6_Platform_SDK/output/mx6dq/lib/liblwip.a(raw.o)
                0x100197b0                raw_input
                0x1001992c                raw_bind
                0x1001997c                raw_connect
                0x100199cc                raw_recv
                0x10019a08                raw_sendto
                0x10019c00                raw_send
                0x10019c40                raw_remove
                0x10019cfc                raw_new
 .text          0x10019d94     0x5eb4 /home/leon/git/swp-report/iMX6_Platform_SDK/output/mx6dq/lib/liblwip.a(mib2.o)
                0x10019e08                objectidncpy
                0x10019e7c                snmp_set_sysdesr
                0x10019ec8                snmp_get_sysobjid_ptr
                0x10019ef4                snmp_set_sysobjid
                0x10019f34                snmp_inc_sysuptime
                0x10019f60                snmp_add_sysuptime
                0x10019f9c                snmp_get_sysuptime
                0x10019ff0                snmp_set_syscontact
                0x1001a03c                snmp_set_sysname
                0x1001a088                snmp_set_syslocation
                0x1001a0d4                snmp_add_ifinoctets
                0x1001a10c                snmp_inc_ifinucastpkts
                0x1001a13c                snmp_inc_ifinnucastpkts
                0x1001a16c                snmp_inc_ifindiscards
                0x1001a19c                snmp_add_ifoutoctets
                0x1001a1d4                snmp_inc_ifoutucastpkts
                0x1001a204                snmp_inc_ifoutnucastpkts
                0x1001a234                snmp_inc_ifoutdiscards
                0x1001a264                snmp_inc_iflist
                0x1001a2bc                snmp_dec_iflist
                0x1001a30c                snmp_insert_arpidx_tree
                0x1001a52c                snmp_delete_arpidx_tree
                0x1001a7dc                snmp_inc_ipinreceives
                0x1001a808                snmp_inc_ipinhdrerrors
                0x1001a834                snmp_inc_ipinaddrerrors
                0x1001a860                snmp_inc_ipforwdatagrams
                0x1001a88c                snmp_inc_ipinunknownprotos
                0x1001a8b8                snmp_inc_ipindiscards
                0x1001a8e4                snmp_inc_ipindelivers
                0x1001a910                snmp_inc_ipoutrequests
                0x1001a93c                snmp_inc_ipoutdiscards
                0x1001a968                snmp_inc_ipoutnoroutes
                0x1001a994                snmp_inc_ipreasmreqds
                0x1001a9c0                snmp_inc_ipreasmoks
                0x1001a9ec                snmp_inc_ipreasmfails
                0x1001aa18                snmp_inc_ipfragoks
                0x1001aa44                snmp_inc_ipfragfails
                0x1001aa70                snmp_inc_ipfragcreates
                0x1001aa9c                snmp_inc_iproutingdiscards
                0x1001aac8                snmp_insert_ipaddridx_tree
                0x1001ac58                snmp_delete_ipaddridx_tree
                0x1001aecc                snmp_insert_iprteidx_tree
                0x1001b088                snmp_delete_iprteidx_tree
                0x1001b328                snmp_inc_icmpinmsgs
                0x1001b354                snmp_inc_icmpinerrors
                0x1001b380                snmp_inc_icmpindestunreachs
                0x1001b3ac                snmp_inc_icmpintimeexcds
                0x1001b3d8                snmp_inc_icmpinparmprobs
                0x1001b404                snmp_inc_icmpinsrcquenchs
                0x1001b430                snmp_inc_icmpinredirects
                0x1001b45c                snmp_inc_icmpinechos
                0x1001b488                snmp_inc_icmpinechoreps
                0x1001b4b4                snmp_inc_icmpintimestamps
                0x1001b4e0                snmp_inc_icmpintimestampreps
                0x1001b50c                snmp_inc_icmpinaddrmasks
                0x1001b538                snmp_inc_icmpinaddrmaskreps
                0x1001b564                snmp_inc_icmpoutmsgs
                0x1001b590                snmp_inc_icmpouterrors
                0x1001b5bc                snmp_inc_icmpoutdestunreachs
                0x1001b5e8                snmp_inc_icmpouttimeexcds
                0x1001b614                snmp_inc_icmpoutparmprobs
                0x1001b640                snmp_inc_icmpoutsrcquenchs
                0x1001b66c                snmp_inc_icmpoutredirects
                0x1001b698                snmp_inc_icmpoutechos
                0x1001b6c4                snmp_inc_icmpoutechoreps
                0x1001b6f0                snmp_inc_icmpouttimestamps
                0x1001b71c                snmp_inc_icmpouttimestampreps
                0x1001b748                snmp_inc_icmpoutaddrmasks
                0x1001b774                snmp_inc_icmpoutaddrmaskreps
                0x1001b7a0                snmp_inc_tcpactiveopens
                0x1001b7cc                snmp_inc_tcppassiveopens
                0x1001b7f8                snmp_inc_tcpattemptfails
                0x1001b824                snmp_inc_tcpestabresets
                0x1001b850                snmp_inc_tcpinsegs
                0x1001b87c                snmp_inc_tcpoutsegs
                0x1001b8a8                snmp_inc_tcpretranssegs
                0x1001b8d4                snmp_inc_tcpinerrs
                0x1001b900                snmp_inc_tcpoutrsts
                0x1001b92c                snmp_inc_udpindatagrams
                0x1001b958                snmp_inc_udpnoports
                0x1001b984                snmp_inc_udpinerrors
                0x1001b9b0                snmp_inc_udpoutdatagrams
                0x1001b9dc                snmp_insert_udpidx_tree
                0x1001bb74                snmp_delete_udpidx_tree
                0x1001be6c                snmp_inc_snmpinpkts
                0x1001be98                snmp_inc_snmpoutpkts
                0x1001bec4                snmp_inc_snmpinbadversions
                0x1001bef0                snmp_inc_snmpinbadcommunitynames
                0x1001bf1c                snmp_inc_snmpinbadcommunityuses
                0x1001bf48                snmp_inc_snmpinasnparseerrs
                0x1001bf74                snmp_inc_snmpintoobigs
                0x1001bfa0                snmp_inc_snmpinnosuchnames
                0x1001bfcc                snmp_inc_snmpinbadvalues
                0x1001bff8                snmp_inc_snmpinreadonlys
                0x1001c024                snmp_inc_snmpingenerrs
                0x1001c050                snmp_add_snmpintotalreqvars
                0x1001c090                snmp_add_snmpintotalsetvars
                0x1001c0d0                snmp_inc_snmpingetrequests
                0x1001c0fc                snmp_inc_snmpingetnexts
                0x1001c128                snmp_inc_snmpinsetrequests
                0x1001c154                snmp_inc_snmpingetresponses
                0x1001c180                snmp_inc_snmpintraps
                0x1001c1ac                snmp_inc_snmpouttoobigs
                0x1001c1d8                snmp_inc_snmpoutnosuchnames
                0x1001c204                snmp_inc_snmpoutbadvalues
                0x1001c230                snmp_inc_snmpoutgenerrs
                0x1001c25c                snmp_inc_snmpoutgetrequests
                0x1001c288                snmp_inc_snmpoutgetnexts
                0x1001c2b4                snmp_inc_snmpoutsetrequests
                0x1001c2e0                snmp_inc_snmpoutgetresponses
                0x1001c30c                snmp_inc_snmpouttraps
                0x1001c338                snmp_get_snmpgrpid_ptr
                0x1001c364                snmp_set_snmpenableauthentraps
                0x1001c39c                snmp_get_snmpenableauthentraps
                0x1001c3d0                noleafs_get_object_def
                0x1001c404                noleafs_get_value
                0x1001c42c                noleafs_set_test
                0x1001c45c                noleafs_set_value
 .text          0x1001fc48     0x1e68 /home/leon/git/swp-report/iMX6_Platform_SDK/output/mx6dq/lib/liblwip.a(mib_structs.o)
                0x1001fd9c                snmp_ifindextonetif
                0x1001fe24                snmp_netiftoifindex
                0x1001fea4                snmp_oidtoip
                0x1001ff20                snmp_iptooid
                0x1001ff9c                snmp_mib_ln_alloc
                0x10020014                snmp_mib_ln_free
                0x10020038                snmp_mib_lrn_alloc
                0x100200f8                snmp_mib_lrn_free
                0x1002011c                snmp_mib_node_insert
                0x100203f4                snmp_mib_node_find
                0x10020528                snmp_mib_node_delete
                0x100206cc                snmp_search_tree
                0x10020bb8                snmp_expand_tree
                0x100218f0                snmp_iso_prefix_tst
                0x1002197c                snmp_iso_prefix_expand
 .text          0x10021ab0     0x3030 /home/leon/git/swp-report/iMX6_Platform_SDK/output/mx6dq/lib/liblwip.a(msg_in.o)
                0x10021ab0                snmp_init
                0x100232a8                snmp_msg_event
                0x100246bc                snmp_varbind_alloc
                0x100248f0                snmp_varbind_free
                0x10024954                snmp_varbind_list_free
                0x100249cc                snmp_varbind_tail_add
                0x10024a5c                snmp_varbind_tail_remove
 .text          0x10024ae0     0x1bcc /home/leon/git/swp-report/iMX6_Platform_SDK/output/mx6dq/lib/liblwip.a(msg_out.o)
                0x10024ae0                snmp_trap_dst_enable
                0x10024b38                snmp_trap_dst_ip_set
                0x10024b94                snmp_send_response
                0x10024da8                snmp_send_trap
                0x10024ff0                snmp_coldstart_trap
                0x10025040                snmp_authfail_trap
 .text          0x100266ac      0x6c8 /home/leon/git/swp-report/iMX6_Platform_SDK/output/mx6dq/lib/liblwip.a(stats.o)
                0x100266ac                stats_init
                0x10026774                stats_display_proto
                0x100268c4                stats_display_igmp
                0x10026a44                stats_display_mem
                0x10026ad4                stats_display_memp
                0x10026b58                stats_display_sys
                0x10026c58                stats_display
 .text          0x10026d74     0x2ee0 /home/leon/git/swp-report/iMX6_Platform_SDK/output/mx6dq/lib/liblwip.a(tcp.o)
                0x10026d74                tcp_init
                0x10026d84                tcp_tmr
                0x1002726c                tcp_close
                0x100272c4                tcp_shutdown
                0x100273cc                tcp_abandon
                0x10027590                tcp_abort
                0x100275b8                tcp_bind
                0x10027810                tcp_listen_with_backlog
                0x10027b0c                tcp_update_rcv_ann_wnd
                0x10027c38                tcp_recved
                0x10027e74                tcp_connect
                0x100282f0                tcp_slowtmr
                0x10028cd8                tcp_fasttmr
                0x10028e04                tcp_process_refused_data
                0x10028f70                tcp_segs_free
                0x10028fb8                tcp_seg_free
                0x10029008                tcp_setprio
                0x10029038                tcp_seg_copy
                0x100290a8                tcp_recv_null
                0x100292c8                tcp_alloc
                0x1002951c                tcp_new
                0x1002953c                tcp_arg
                0x10029568                tcp_recv
                0x100295d0                tcp_sent
                0x10029638                tcp_err
                0x100296a0                tcp_accept
                0x100296cc                tcp_poll
                0x10029748                tcp_pcb_purge
                0x10029950                tcp_pcb_remove
                0x10029b54                tcp_next_iss
                0x10029b9c                tcp_eff_send_mss_impl
                0x10029c20                tcp_debug_state_str
 .text          0x10029c54     0x4af8 /home/leon/git/swp-report/iMX6_Platform_SDK/output/mx6dq/lib/liblwip.a(tcp_in.o)
                0x10029c54                tcp_input
 .text          0x1002e74c     0x2e6c /home/leon/git/swp-report/iMX6_Platform_SDK/output/mx6dq/lib/liblwip.a(tcp_out.o)
                0x1002ea0c                tcp_send_fin
                0x1002f108                tcp_write
                0x1002fc2c                tcp_enqueue_flags
                0x10030090                tcp_send_empty_ack
                0x100301c0                tcp_output
                0x10030c04                tcp_rst_impl
                0x10030edc                tcp_rexmit_rto
                0x10030f94                tcp_rexmit
                0x100310f8                tcp_rexmit_fast
                0x1003120c                tcp_keepalive
                0x10031324                tcp_zero_window_probe
 .text          0x100315b8      0x724 /home/leon/git/swp-report/iMX6_Platform_SDK/output/mx6dq/lib/liblwip.a(timers.o)
                0x10031628                tcp_timer_needed
                0x100317d0                sys_timeouts_init
                0x1003186c                sys_timeout
                0x10031a80                sys_untimeout
                0x10031b94                sys_check_timeouts
                0x10031cb8                sys_restart_timeouts
 .text          0x10031cdc     0x1294 /home/leon/git/swp-report/iMX6_Platform_SDK/output/mx6dq/lib/liblwip.a(udp.o)
                0x10031cdc                udp_init
                0x10031ddc                udp_input
                0x100325f4                udp_send
                0x10032638                udp_sendto
                0x100326ec                udp_sendto_if
                0x10032ab4                udp_bind
                0x10032c98                udp_connect
                0x10032dc4                udp_disconnect
                0x10032e10                udp_recv
                0x10032e4c                udp_remove
                0x10032f10                udp_new
 .text          0x10032f70     0x2750 /home/leon/git/swp-report/iMX6_Platform_SDK/output/mx6dq/lib/liblwip.a(etharp.o)
                0x1003334c                etharp_tmr
                0x10033e24                etharp_cleanup_netif
                0x10033ee4                etharp_find_addr
                0x100346e4                etharp_output
                0x10034b48                etharp_query
                0x100350e8                etharp_raw
                0x100353d8                etharp_request
                0x10035450                ethernet_input
 .text          0x100356c0      0x600 /home/leon/git/swp-report/iMX6_Platform_SDK/output/mx6dq/lib/liblwip.a(mx6_ethernetif.o)
                0x100356c0                enet_set_mac
                0x100356f0                init_enet
                0x10035b30                enet_poll_for_packet
                0x10035b7c                enet_init
 .text          0x10035cc0      0x188 /home/leon/git/swp-report/iMX6_Platform_SDK/output/mx6dq/lib/liblwip.a(mx6_lwip.o)
                0x10035cc0                mx6_init_lwip
                0x10035cec                check_and_update_ms_timer
                0x10035d64                mx6_run_lwip
 .text          0x10035e48       0x40 /home/leon/git/swp-report/iMX6_Platform_SDK/output/mx6dq/lib/liblwip.a(sys_arch.o)
                0x10035e48                sys_now
 .text          0x10035e88      0x100 /home/leon/git/swp-report/iMX6_Platform_SDK/output/mx6dq/lib/liblwip.a(def.o)
                0x10035e88                lwip_htons
                0x10035ed4                lwip_ntohs
                0x10035f08                lwip_htonl
                0x10035f5c                lwip_ntohl
 .text          0x10035f88      0x864 /home/leon/git/swp-report/iMX6_Platform_SDK/output/mx6dq/lib/liblwip.a(inet_chksum.o)
                0x10035f88                lwip_standard_chksum
                0x10036294                inet_chksum_pseudo
                0x10036598                inet_chksum_pseudo_partial
                0x10036684                inet_chksum
                0x100366c8                inet_chksum_pbuf
 .text          0x100367ec      0x8a8 /home/leon/git/swp-report/iMX6_Platform_SDK/output/mx6dq/lib/liblwip.a(icmp.o)
                0x100367ec                icmp_input
                0x10036e7c                icmp_dest_unreach
 .text          0x10037094      0xfa0 /home/leon/git/swp-report/iMX6_Platform_SDK/output/mx6dq/lib/liblwip.a(asn1_dec.o)
                0x10037094                snmp_asn1_dec_type
                0x10037154                snmp_asn1_dec_length
                0x1003751c                snmp_asn1_dec_u32t
                0x10037780                snmp_asn1_dec_s32t
                0x100379f8                snmp_asn1_dec_oid
                0x10037ea4                snmp_asn1_dec_raw
 .text          0x10038034      0xdb0 /home/leon/git/swp-report/iMX6_Platform_SDK/output/mx6dq/lib/liblwip.a(asn1_enc.o)
                0x10038034                snmp_asn1_enc_length_cnt
                0x1003809c                snmp_asn1_enc_u32t_cnt
                0x10038144                snmp_asn1_enc_s32t_cnt
                0x100381e8                snmp_asn1_enc_oid_cnt
                0x100382cc                snmp_asn1_enc_type
                0x10038388                snmp_asn1_enc_length
                0x100385b8                snmp_asn1_enc_u32t
                0x100387ac                snmp_asn1_enc_s32t
                0x10038910                snmp_asn1_enc_oid
                0x10038c74                snmp_asn1_enc_raw
 .text          0x10038de4       0x14 /home/leon/riotboard/arm-2012.09/bin/../arm-none-eabi/lib//libc.a(lib_a-abort.o)
                0x10038de4                abort
 .text          0x10038df8       0x68 /home/leon/riotboard/arm-2012.09/bin/../arm-none-eabi/lib//libc.a(lib_a-assert.o)
                0x10038df8                __assert_func
                0x10038e50                __assert
 .text          0x10038e60       0x20 /home/leon/riotboard/arm-2012.09/bin/../arm-none-eabi/lib//libc.a(lib_a-bzero.o)
                0x10038e60                bzero
 .text          0x10038e80      0x26c /home/leon/riotboard/arm-2012.09/bin/../arm-none-eabi/lib//libc.a(lib_a-fflush.o)
                0x10038e80                _fflush_r
                0x100390ac                fflush
 .text          0x100390ec      0x2c4 /home/leon/riotboard/arm-2012.09/bin/../arm-none-eabi/lib//libc.a(lib_a-findfp.o)
                0x100390fc                _cleanup_r
                0x10039190                __sfmoreglue
                0x100391d8                _cleanup
                0x100391e8                __sinit
                0x10039260                __sfp
                0x10039358                __sfp_lock_acquire
                0x1003935c                __sfp_lock_release
                0x10039360                __sinit_lock_acquire
                0x10039364                __sinit_lock_release
                0x10039368                __fp_lock_all
                0x1003938c                __fp_unlock_all
 .text          0x100393b0       0x70 /home/leon/riotboard/arm-2012.09/bin/../arm-none-eabi/lib//libc.a(lib_a-fiprintf.o)
                0x100393b0                _fiprintf_r
                0x100393e0                fiprintf
 .text          0x10039420       0x94 /home/leon/riotboard/arm-2012.09/bin/../arm-none-eabi/lib//libc.a(lib_a-fputc.o)
                0x10039420                _fputc_r
                0x10039464                fputc
 .text          0x100394b4      0x368 /home/leon/riotboard/arm-2012.09/bin/../arm-none-eabi/lib//libc.a(lib_a-freer.o)
                0x100394b4                _malloc_trim_r
                0x100395b0                _free_r
 .text          0x1003981c      0x114 /home/leon/riotboard/arm-2012.09/bin/../arm-none-eabi/lib//libc.a(lib_a-fwalk.o)
                0x1003981c                _fwalk
                0x100398a4                _fwalk_reent
 .text          0x10039930        0x0 /home/leon/riotboard/arm-2012.09/bin/../arm-none-eabi/lib//libc.a(lib_a-impure.o)
 .text          0x10039930       0x88 /home/leon/riotboard/arm-2012.09/bin/../arm-none-eabi/lib//libc.a(lib_a-init.o)
                0x10039930                __libc_init_array
 .text          0x100399b8       0x40 /home/leon/riotboard/arm-2012.09/bin/../arm-none-eabi/lib//libc.a(lib_a-malloc.o)
                0x100399b8                malloc
                0x100399d8                free
 .text          0x100399f8      0x71c /home/leon/riotboard/arm-2012.09/bin/../arm-none-eabi/lib//libc.a(lib_a-mallocr.o)
                0x100399f8                _malloc_r
 .text          0x1003a114       0xb4 /home/leon/riotboard/arm-2012.09/bin/../arm-none-eabi/lib//libc.a(lib_a-memcmp.o)
                0x1003a114                memcmp
 .text          0x1003a1c8      0x20c /home/leon/riotboard/arm-2012.09/bin/../arm-none-eabi/lib//libc.a(lib_a-memcpy.o)
                0x1003a1c8                memcpy
 .text          0x1003a3d4      0x134 /home/leon/riotboard/arm-2012.09/bin/../arm-none-eabi/lib//libc.a(lib_a-memset.o)
                0x1003a3d4                memset
 .text          0x1003a508        0x8 /home/leon/riotboard/arm-2012.09/bin/../arm-none-eabi/lib//libc.a(lib_a-mlock.o)
                0x1003a508                __malloc_lock
                0x1003a50c                __malloc_unlock
 .text          0x1003a510       0x74 /home/leon/riotboard/arm-2012.09/bin/../arm-none-eabi/lib//libc.a(lib_a-printf.o)
                0x1003a510                _printf_r
                0x1003a544                printf
 .text          0x1003a584      0x170 /home/leon/riotboard/arm-2012.09/bin/../arm-none-eabi/lib//libc.a(lib_a-putc.o)
                0x1003a584                _putc_r
                0x1003a634                putc
 .text          0x1003a6f4       0x78 /home/leon/riotboard/arm-2012.09/bin/../arm-none-eabi/lib//libc.a(lib_a-rand.o)
                0x1003a6f4                srand
                0x1003a710                rand
 .text          0x1003a76c       0x28 /home/leon/riotboard/arm-2012.09/bin/../arm-none-eabi/lib//libc.a(lib_a-realloc.o)
                0x1003a76c                realloc
 .text          0x1003a794      0x574 /home/leon/riotboard/arm-2012.09/bin/../arm-none-eabi/lib//libc.a(lib_a-reallocr.o)
                0x1003a794                _realloc_r
 .text          0x1003ad08       0x6c /home/leon/riotboard/arm-2012.09/bin/../arm-none-eabi/lib//libc.a(lib_a-rget.o)
                0x1003ad08                __srget_r
                0x1003ad60                __srget
 .text          0x1003ad74       0x40 /home/leon/riotboard/arm-2012.09/bin/../arm-none-eabi/lib//libc.a(lib_a-sbrkr.o)
                0x1003ad74                _sbrk_r
 .text          0x1003adb4      0x24c /home/leon/riotboard/arm-2012.09/bin/../arm-none-eabi/lib//libc.a(lib_a-signal.o)
                0x1003adb4                _init_signal_r
                0x1003ae14                _signal_r
                0x1003ae80                _raise_r
                0x1003af18                __sigtramp_r
                0x1003afac                raise
                0x1003afc0                signal
                0x1003afdc                _init_signal
                0x1003afec                __sigtramp
 .text          0x1003b000       0x50 /home/leon/riotboard/arm-2012.09/bin/../arm-none-eabi/lib//libc.a(lib_a-signalr.o)
                0x1003b000                _kill_r
                0x1003b040                _getpid_r
 .text          0x1003b050       0xdc /home/leon/riotboard/arm-2012.09/bin/../arm-none-eabi/lib//libc.a(lib_a-stdio.o)
                0x1003b050                __sread
                0x1003b084                __seofread
                0x1003b08c                __swrite
                0x1003b0e4                __sseek
                0x1003b118                __sclose
 .text          0x1003b12c      0x1dc /home/leon/riotboard/arm-2012.09/bin/../arm-none-eabi/lib//libc.a(lib_a-strchr.o)
                0x1003b12c                strchr
 .text          0x1003b308      0x230 /home/leon/riotboard/arm-2012.09/bin/../arm-none-eabi/lib//libc.a(lib_a-strcmp.o)
                0x1003b308                strcmp
 .text          0x1003b538       0x60 /home/leon/riotboard/arm-2012.09/bin/../arm-none-eabi/lib//libc.a(lib_a-strlen.o)
                0x1003b538                strlen
 .text          0x1003b598      0x140 /home/leon/riotboard/arm-2012.09/bin/../arm-none-eabi/lib//libc.a(lib_a-strncmp.o)
                0x1003b598                strncmp
 .text          0x1003b6d8     0x12c4 /home/leon/riotboard/arm-2012.09/bin/../arm-none-eabi/lib//libc.a(lib_a-vfiprintf.o)
                0x1003b6d8                __sprint_r
                0x1003b794                _vfiprintf_r
                0x1003c970                vfiprintf
 .text          0x1003c99c     0x2180 /home/leon/riotboard/arm-2012.09/bin/../arm-none-eabi/lib//libc.a(lib_a-vfprintf.o)
                0x1003c99c                _vfprintf_r
                0x1003eaf0                vfprintf
 .text          0x1003eb1c       0x4c /home/leon/riotboard/arm-2012.09/bin/../arm-none-eabi/lib//libc.a(lib_a-vprintf.o)
                0x1003eb1c                vprintf
                0x1003eb48                _vprintf_r
 .text          0x1003eb68      0x14c /home/leon/riotboard/arm-2012.09/bin/../arm-none-eabi/lib//libc.a(lib_a-wbuf.o)
                0x1003eb68                __swbuf_r
                0x1003ec98                __swbuf
 .text          0x1003ecb4       0x44 /home/leon/riotboard/arm-2012.09/bin/../arm-none-eabi/lib//libc.a(lib_a-writer.o)
                0x1003ecb4                _write_r
 .text          0x1003ecf8      0x138 /home/leon/riotboard/arm-2012.09/bin/../arm-none-eabi/lib//libc.a(lib_a-wsetup.o)
                0x1003ecf8                __swsetup_r
 .text          0x1003ee30       0x3c /home/leon/riotboard/arm-2012.09/bin/../arm-none-eabi/lib//libc.a(lib_a-closer.o)
                0x1003ee30                _close_r
 *fill*         0x1003ee6c        0x4 
 .text          0x1003ee70     0x18a8 /home/leon/riotboard/arm-2012.09/bin/../arm-none-eabi/lib//libc.a(lib_a-dtoa.o)
                0x1003f050                _dtoa_r
 .text          0x10040718      0x10c /home/leon/riotboard/arm-2012.09/bin/../arm-none-eabi/lib//libc.a(lib_a-fclose.o)
                0x10040718                _fclose_r
                0x10040810                fclose
 .text          0x10040824      0x19c /home/leon/riotboard/arm-2012.09/bin/../arm-none-eabi/lib//libc.a(lib_a-fputwc.o)
                0x10040824                _fputwc_r
                0x10040974                fputwc
 .text          0x100409c0      0x4c4 /home/leon/riotboard/arm-2012.09/bin/../arm-none-eabi/lib//libc.a(lib_a-fvwrite.o)
                0x100409c0                __sfvwrite_r
 .text          0x10040e84       0xd0 /home/leon/riotboard/arm-2012.09/bin/../arm-none-eabi/lib//libc.a(lib_a-locale.o)
                0x10040e84                _setlocale_r
                0x10040ef0                __locale_charset
                0x10040efc                __locale_mb_cur_max
                0x10040f0c                __locale_msgcharset
                0x10040f18                __locale_cjk_lang
                0x10040f20                _localeconv_r
                0x10040f2c                setlocale
                0x10040f48                localeconv
 .text          0x10040f54       0x44 /home/leon/riotboard/arm-2012.09/bin/../arm-none-eabi/lib//libc.a(lib_a-lseekr.o)
                0x10040f54                _lseek_r
 .text          0x10040f98      0x15c /home/leon/riotboard/arm-2012.09/bin/../arm-none-eabi/lib//libc.a(lib_a-makebuf.o)
                0x10040f98                __smakebuf_r
 .text          0x100410f4      0x11c /home/leon/riotboard/arm-2012.09/bin/../arm-none-eabi/lib//libc.a(lib_a-memchr.o)
                0x100410f4                memchr
 .text          0x10041210      0x134 /home/leon/riotboard/arm-2012.09/bin/../arm-none-eabi/lib//libc.a(lib_a-memmove.o)
                0x10041210                memmove
 .text          0x10041344      0xd20 /home/leon/riotboard/arm-2012.09/bin/../arm-none-eabi/lib//libc.a(lib_a-mprec.o)
                0x10041344                _Balloc
                0x100413d0                _Bfree
                0x100413ec                __multadd
                0x100414c8                __s2b
                0x100415b8                __hi0bits
                0x10041608                __lo0bits
                0x1004169c                __i2b
                0x100416c0                __multiply
                0x100418a4                __pow5mult
                0x10041998                __lshift
                0x10041a9c                __mcmp
                0x10041b00                __mdiff
                0x10041c4c                __ulp
                0x10041cb0                __b2d
                0x10041d7c                __d2b
                0x10041e84                __ratio
                0x10041f14                _mprec_log10
                0x10041f68                __copybits
                0x10041fdc                __any_on
 .text          0x10042064       0x44 /home/leon/riotboard/arm-2012.09/bin/../arm-none-eabi/lib//libc.a(lib_a-readr.o)
                0x10042064                _read_r
 .text          0x100420a8      0x19c /home/leon/riotboard/arm-2012.09/bin/../arm-none-eabi/lib//libc.a(lib_a-reent.o)
                0x100420a8                cleanup_glue
                0x100420d4                _reclaim_reent
                0x100421d0                _wrapup_reent
 .text          0x10042244      0x1cc /home/leon/riotboard/arm-2012.09/bin/../arm-none-eabi/lib//libc.a(lib_a-refill.o)
                0x1004226c                __srefill_r
 .text          0x10042410       0x6c /home/leon/riotboard/arm-2012.09/bin/../arm-none-eabi/lib//libc.a(lib_a-s_fpclassify.o)
                0x10042410                __fpclassifyd
 .text          0x1004247c      0x134 /home/leon/riotboard/arm-2012.09/bin/../arm-none-eabi/lib//libc.a(lib_a-wcrtomb.o)
                0x1004247c                _wcrtomb_r
                0x1004250c                wcrtomb
 .text          0x100425b0       0x7c /home/leon/riotboard/arm-2012.09/bin/../arm-none-eabi/lib//libc.a(lib_a-wctomb_r.o)
                0x100425b0                __ascii_wctomb
                0x100425dc                _wctomb_r
 .text          0x1004262c       0x94 /home/leon/riotboard/arm-2012.09/bin/../arm-none-eabi/lib//libc.a(lib_a-callocr.o)
                0x1004262c                _calloc_r
 .text          0x100426c0       0x40 /home/leon/riotboard/arm-2012.09/bin/../arm-none-eabi/lib//libc.a(lib_a-fstatr.o)
                0x100426c0                _fstat_r
 .text          0x10042700       0x3c /home/leon/riotboard/arm-2012.09/bin/../arm-none-eabi/lib//libc.a(lib_a-isattyr.o)
                0x10042700                _isatty_r
 .text          0x1004273c      0x114 /home/leon/riotboard/arm-2012.09/bin/../lib/gcc/arm-none-eabi/4.7.2//libgcc.a(_udivsi3.o)
                0x1004273c                __udivsi3
                0x1004273c                __aeabi_uidiv
                0x10042830                __aeabi_uidivmod
 .text          0x10042850      0x148 /home/leon/riotboard/arm-2012.09/bin/../lib/gcc/arm-none-eabi/4.7.2//libgcc.a(_divsi3.o)
                0x10042850                __aeabi_idiv
                0x10042850                __divsi3
                0x10042978                __aeabi_idivmod
 .text          0x10042998        0x4 /home/leon/riotboard/arm-2012.09/bin/../lib/gcc/arm-none-eabi/4.7.2//libgcc.a(_dvmd_tls.o)
                0x10042998                __aeabi_ldiv0
                0x10042998                __aeabi_idiv0
 .text          0x1004299c      0x41c /home/leon/riotboard/arm-2012.09/bin/../lib/gcc/arm-none-eabi/4.7.2//libgcc.a(_arm_addsubdf3.o)
                0x1004299c                __aeabi_drsub
                0x100429a4                __aeabi_dsub
                0x100429a4                __subdf3
                0x100429a8                __adddf3
                0x100429a8                __aeabi_dadd
                0x10042cb8                __aeabi_ui2d
                0x10042cb8                __floatunsidf
                0x10042cdc                __floatsidf
                0x10042cdc                __aeabi_i2d
                0x10042d04                __extendsfdf2
                0x10042d04                __aeabi_f2d
                0x10042d44                __aeabi_ul2d
                0x10042d44                __floatundidf
                0x10042d58                __floatdidf
                0x10042d58                __aeabi_l2d
 .text          0x10042db8      0x49c /home/leon/riotboard/arm-2012.09/bin/../lib/gcc/arm-none-eabi/4.7.2//libgcc.a(_arm_muldivdf3.o)
                0x10042db8                __aeabi_dmul
                0x10042db8                __muldf3
                0x10043048                __aeabi_ddiv
                0x10043048                __divdf3
 .text          0x10043254      0x144 /home/leon/riotboard/arm-2012.09/bin/../lib/gcc/arm-none-eabi/4.7.2//libgcc.a(_arm_cmpdf2.o)
                0x10043254                __gtdf2
                0x10043254                __gedf2
                0x1004325c                __ltdf2
                0x1004325c                __ledf2
                0x10043264                __cmpdf2
                0x10043264                __eqdf2
                0x10043264                __nedf2
                0x100432ec                __aeabi_cdrcmple
                0x10043308                __aeabi_cdcmple
                0x10043308                __aeabi_cdcmpeq
                0x10043320                __aeabi_dcmpeq
                0x10043338                __aeabi_dcmplt
                0x10043350                __aeabi_dcmple
                0x10043368                __aeabi_dcmpge
                0x10043380                __aeabi_dcmpgt
 .text          0x10043398       0x5c /home/leon/riotboard/arm-2012.09/bin/../lib/gcc/arm-none-eabi/4.7.2//libgcc.a(_arm_fixdfsi.o)
                0x10043398                __fixdfsi
                0x10043398                __aeabi_d2iz
 .text          0x100433f4       0x3c /home/leon/riotboard/arm-2012.09/bin/../lib/gcc/arm-none-eabi/4.7.2//libgcc.a(_aeabi_uldivmod.o)
                0x100433f4                __aeabi_uldivmod
 .text          0x10043430       0x84 /home/leon/riotboard/arm-2012.09/bin/../lib/gcc/arm-none-eabi/4.7.2//libgcc.a(bpabi.o)
                0x10043430                __gnu_ldivmod_helper
                0x10043474                __gnu_uldivmod_helper
 .text          0x100434b4      0x4f0 /home/leon/riotboard/arm-2012.09/bin/../lib/gcc/arm-none-eabi/4.7.2//libgcc.a(_divdi3.o)
                0x100434b4                __divdi3
 .text          0x100439a4      0x488 /home/leon/riotboard/arm-2012.09/bin/../lib/gcc/arm-none-eabi/4.7.2//libgcc.a(_udivdi3.o)
                0x100439a4                __udivdi3
 .text          0x10043e2c       0x48 /home/leon/riotboard/arm-2012.09/bin/../lib/gcc/arm-none-eabi/4.7.2//libgcc.a(_clzsi2.o)
                0x10043e2c                __clzsi2
 .text          0x10043e74      0x264 /home/leon/git/swp-report/iMX6_Platform_SDK/output/mx6dq/lib/libsdk.a(max7310.o)
                0x10043e74                max7310_reg_read
                0x10043ed8                max7310_reg_write
                0x10043f44                max7310_init
                0x10044024                max7310_set_gpio_output
 .text          0x100440d8      0x610 /home/leon/git/swp-report/iMX6_Platform_SDK/output/mx6dq/lib/libsdk.a(runtime_support.o)
                0x100440d8                _execve
                0x10044114                _fork
                0x1004413c                _isatty
                0x10044160                _open
                0x1004418c                _close
                0x100441b0                _lseek
                0x100441dc                _fstat
                0x10044210                _read
                0x100442e0                _write
                0x100443cc                _raw_puts
                0x1004444c                _sbrk
                0x100444fc                _exit
                0x1004451c                _kill
                0x10044554                _getpid
                0x1004456c                _link
                0x100445a4                _unlink
                0x100445d8                _stat
                0x1004460c                _times
                0x10044630                _gettimeofday
                0x100446b4                _wait
 .text          0x100446e8     0x1308 /home/leon/git/swp-report/iMX6_Platform_SDK/output/mx6dq/lib/libsdk.a(gpio.o)
                0x10044718                gpio_get_port_count
                0x10044730                gpio_set_gpio
                0x100447f4                gpio_set_direction
                0x10044a50                gpio_get_direction
                0x10044b98                gpio_set_level
                0x10044ed8                gpio_get_level
                0x10045038                gpio_set_interrupt_config
                0x1004543c                gpio_set_interrupt_mask
                0x10045680                gpio_get_interrupt_status
                0x100457dc                gpio_clear_interrupt
 .text          0x100459f0        0x0 /home/leon/git/swp-report/iMX6_Platform_SDK/output/mx6dq/lib/libsdk.a(imx6dq_gpio_map.o)
 .text          0x100459f0     0x14bc /home/leon/git/swp-report/iMX6_Platform_SDK/output/mx6dq/lib/libsdk.a(imx_i2c.o)
                0x10045a20                i2c_get_request_instance
                0x10046370                i2c_xfer
                0x100469cc                i2c_read
                0x100469fc                i2c_write
                0x10046a2c                i2c_setup_interrupt
                0x10046c38                i2c_init
 .text          0x10046eac       0x88 /home/leon/git/swp-report/iMX6_Platform_SDK/output/mx6dq/lib/libboard_sabre_ai_rev_c.a(board_network.o)
                0x10046eac                imx_ar8031_iomux
                0x10046ec0                imx_KSZ9021RN_reset
                0x10046ed0                imx_ar8031_reset
                0x10046ee0                imx_enet_iomux
                0x10046f20                imx_enet_phy_reset
 .text          0x10046f34       0x74 /home/leon/git/swp-report/iMX6_Platform_SDK/output/mx6dq/lib/libboard_sabre_ai_rev_c.a(i2c_iomux_config.o)
                0x10046f34                i2c_iomux_config
 *(.glue_7t)
 .glue_7t       0x00000000        0x0 linker stubs
 *(.glue_7)
 .glue_7        0x00000000        0x0 linker stubs
 *(.vfp11_veneer)
 .vfp11_veneer  0x00000000        0x0 linker stubs
 *(.ARM.extab* .gnu.linkonce.armextab.*)
 .ARM.extab.startup
                0x10046fa8        0x0 /home/leon/git/swp-report/iMX6_Platform_SDK/output/mx6dq/lib/libsdk.a(startup.o)
 .ARM.extab     0x10046fa8        0x0 /home/leon/riotboard/arm-2012.09/bin/../lib/gcc/arm-none-eabi/4.7.2//libgcc.a(_divdi3.o)
 .ARM.extab     0x10046fa8        0x0 /home/leon/riotboard/arm-2012.09/bin/../lib/gcc/arm-none-eabi/4.7.2//libgcc.a(_udivdi3.o)
 *(.gcc_except_table)

.v4_bx          0x10046fa8        0x0
 .v4_bx         0x00000000        0x0 linker stubs

.iplt           0x10046fa8        0x0
 .iplt          0x00000000        0x0 /home/leon/riotboard/arm-2012.09/bin/../lib/gcc/arm-none-eabi/4.7.2//crtbegin.o

.ctors
 *crtbegin.o(.ctors)
 *crtbegin?.o(.ctors)
 *(EXCLUDE_FILE(*crtend?.o *crtend.o) .ctors)
 *(SORT(.ctors.*))
 *(.ctors)

.dtors
 *crtbegin.o(.dtors)
 *crtbegin?.o(.dtors)
 *(EXCLUDE_FILE(*crtend?.o *crtend.o) .dtors)
 *(SORT(.dtors.*))
 *(.dtors)

.rodata         0x10046fa8     0x5c38
 *(.rodata .rodata.* .gnu.linkonce.r.*)
 .rodata        0x10046fa8       0x88 /home/leon/git/swp-report/iMX6_Platform_SDK/output/mx6dq/httpd/sabre_ai_rev_c/obj/apps/httpd/src/httpd_main.o
                0x10046fa8                kMACAddress
 .rodata        0x10047030      0xda0 /home/leon/git/swp-report/iMX6_Platform_SDK/output/mx6dq/httpd/sabre_ai_rev_c/obj/lwip/contrib/apps/httpserver_raw/fs.o
                0x10047d94                file__img_sics_gif
                0x10047da8                file__404_html
                0x10047dbc                file__index_html
 .rodata        0x10047dd0      0x2d4 /home/leon/git/swp-report/iMX6_Platform_SDK/output/mx6dq/httpd/sabre_ai_rev_c/obj/lwip/contrib/apps/httpserver_raw/httpd.o
                0x10047e10                g_psDefaultFilenames
 .rodata        0x100480a4       0x34 /home/leon/git/swp-report/iMX6_Platform_SDK/output/mx6dq/lib/libsdk.a(ccm_pll.o)
                0x100480a4                PLL1_OUTPUT
                0x100480a8                PLL2_OUTPUT
                0x100480bc                PLL3_OUTPUT
                0x100480d0                PLL4_OUTPUT
                0x100480d4                PLL5_OUTPUT
 .rodata        0x100480d8       0x64 /home/leon/git/swp-report/iMX6_Platform_SDK/output/mx6dq/lib/libsdk.a(gic.o)
 .rodata        0x1004813c       0xcc /home/leon/git/swp-report/iMX6_Platform_SDK/output/mx6dq/lib/libsdk.a(system_util.o)
 .rodata        0x10048208       0xf4 /home/leon/git/swp-report/iMX6_Platform_SDK/output/mx6dq/lib/libsdk.a(text_color.o)
                0x10048210                g_TextAttributeDefault
                0x1004821c                g_TextAttributeBold
                0x10048228                g_TextAttributeDim
                0x10048234                g_TextAttributeUnderline
                0x10048240                g_TextAttributeBlink
                0x1004824c                g_TextAttributeReverse
                0x10048258                g_TextAttributeHidden
                0x10048264                g_TextColorBlack
                0x10048270                g_TextColorRed
                0x1004827c                g_TextColorGreen
                0x10048288                g_TextColorYellow
                0x10048294                g_TextColorBlue
                0x100482a0                g_TextColorMagenta
                0x100482ac                g_TextColorCyan
                0x100482b8                g_TextColorWhite
                0x100482c8                g_TextColorOrange
                0x100482d8                g_TextColorLightBlue
                0x100482e8                g_TextColorGray
                0x100482f8                g_TextColorPurple
 .rodata        0x100482fc      0x1c4 /home/leon/git/swp-report/iMX6_Platform_SDK/output/mx6dq/lib/libsdk.a(enet_drv.o)
 .rodata        0x100484c0       0x20 /home/leon/git/swp-report/iMX6_Platform_SDK/output/mx6dq/lib/libsdk.a(interrupt.o)
 .rodata        0x100484e0      0x230 /home/leon/git/swp-report/iMX6_Platform_SDK/output/mx6dq/lib/libsdk.a(abort_handler.o)
 .rodata        0x10048710       0x80 /home/leon/git/swp-report/iMX6_Platform_SDK/output/mx6dq/lib/libboard_sabre_ai_rev_c.a(uart_iomux_config.o)
 .rodata        0x10048790      0xa88 /home/leon/git/swp-report/iMX6_Platform_SDK/output/mx6dq/lib/liblwip.a(dhcp.o)
 .rodata        0x10049218      0x114 /home/leon/git/swp-report/iMX6_Platform_SDK/output/mx6dq/lib/liblwip.a(dns.o)
 .rodata        0x1004932c      0x32c /home/leon/git/swp-report/iMX6_Platform_SDK/output/mx6dq/lib/liblwip.a(autoip.o)
 .rodata        0x10049658      0x18c /home/leon/git/swp-report/iMX6_Platform_SDK/output/mx6dq/lib/liblwip.a(igmp.o)
 .rodata        0x100497e4       0xb0 /home/leon/git/swp-report/iMX6_Platform_SDK/output/mx6dq/lib/liblwip.a(ip4.o)
 .rodata        0x10049894       0x8c /home/leon/git/swp-report/iMX6_Platform_SDK/output/mx6dq/lib/liblwip.a(ip4_addr.o)
                0x10049894                ip_addr_any
                0x10049898                ip_addr_broadcast
 .rodata        0x10049920       0x1c /home/leon/git/swp-report/iMX6_Platform_SDK/output/mx6dq/lib/liblwip.a(memp.o)
                0x10049920                memp_sizes
 .rodata        0x1004993c      0x10c /home/leon/git/swp-report/iMX6_Platform_SDK/output/mx6dq/lib/liblwip.a(netif.o)
 .rodata        0x10049a48      0x4a8 /home/leon/git/swp-report/iMX6_Platform_SDK/output/mx6dq/lib/liblwip.a(pbuf.o)
 .rodata        0x10049ef0       0x98 /home/leon/git/swp-report/iMX6_Platform_SDK/output/mx6dq/lib/liblwip.a(raw.o)
 .rodata        0x10049f88      0x9cc /home/leon/git/swp-report/iMX6_Platform_SDK/output/mx6dq/lib/liblwip.a(mib2.o)
                0x10049f88                snmp_scalar
                0x10049f9c                snmp_ids
                0x1004a00c                snmp_nodes
                0x1004a07c                snmp
                0x1004a098                udpentry_ids
                0x1004a0a0                udpentry_nodes
                0x1004a0a8                udpentry
                0x1004a0c4                udp_scalar
                0x1004a0d8                udp_ids
                0x1004a0ec                udp_nodes
                0x1004a100                udp
                0x1004a11c                tcpconnentry_ids
                0x1004a130                tcpconnentry_nodes
                0x1004a144                tcpconnentry
                0x1004a160                tcp_scalar
                0x1004a174                tcp_ids
                0x1004a1b0                tcp_nodes
                0x1004a1ec                tcp
                0x1004a208                icmp_scalar
                0x1004a21c                icmp_ids
                0x1004a284                icmp_nodes
                0x1004a2ec                icmp
                0x1004a308                ipntomentry_ids
                0x1004a318                ipntomentry_nodes
                0x1004a328                ipntomentry
                0x1004a344                iprteentry_ids
                0x1004a378                iprteentry_nodes
                0x1004a3ac                iprteentry
                0x1004a3c8                ipaddrentry_ids
                0x1004a3dc                ipaddrentry_nodes
                0x1004a3f0                ipaddrentry
                0x1004a40c                ip_scalar
                0x1004a420                ip_ids
                0x1004a47c                ip_nodes
                0x1004a4d8                mib2_ip
                0x1004a4f4                atentry_ids
                0x1004a500                atentry_nodes
                0x1004a50c                atentry
                0x1004a528                attable_id
                0x1004a52c                attable_node
                0x1004a530                attable
                0x1004a54c                ifentry_ids
                0x1004a5a4                ifentry_nodes
                0x1004a5fc                ifentry
                0x1004a618                interfaces_scalar
                0x1004a62c                interfaces_ids
                0x1004a634                interfaces_nodes
                0x1004a63c                interfaces
                0x1004a658                sys_tem_scalar
                0x1004a66c                sys_tem_ids
                0x1004a688                sys_tem_nodes
                0x1004a6a4                sys_tem
                0x1004a6c0                mib2_ids
                0x1004a6e0                mib2_nodes
                0x1004a700                mib2
                0x1004a71c                mgmt_ids
                0x1004a720                mgmt_nodes
                0x1004a724                mgmt
                0x1004a740                internet_ids
                0x1004a744                internet_nodes
                0x1004a748                internet
 .rodata        0x1004a954       0xe0 /home/leon/git/swp-report/iMX6_Platform_SDK/output/mx6dq/lib/liblwip.a(mib_structs.o)
                0x1004a954                prefix
 .rodata        0x1004aa34       0xf0 /home/leon/git/swp-report/iMX6_Platform_SDK/output/mx6dq/lib/liblwip.a(msg_in.o)
                0x1004aa34                snmp_version
                0x1004aa38                snmp_publiccommunity
 .rodata        0x1004ab24      0x324 /home/leon/git/swp-report/iMX6_Platform_SDK/output/mx6dq/lib/liblwip.a(stats.o)
 .rodata        0x1004ae48      0x530 /home/leon/git/swp-report/iMX6_Platform_SDK/output/mx6dq/lib/liblwip.a(tcp.o)
                0x1004aec0                tcp_state_str
                0x1004aeec                tcp_backoff
                0x1004aefc                tcp_persist_backoff
                0x1004af04                tcp_pcb_lists
 .rodata        0x1004b378      0x340 /home/leon/git/swp-report/iMX6_Platform_SDK/output/mx6dq/lib/liblwip.a(tcp_in.o)
 .rodata        0x1004b6b8      0x424 /home/leon/git/swp-report/iMX6_Platform_SDK/output/mx6dq/lib/liblwip.a(tcp_out.o)
 .rodata        0x1004badc       0xb0 /home/leon/git/swp-report/iMX6_Platform_SDK/output/mx6dq/lib/liblwip.a(timers.o)
 .rodata        0x1004bb8c       0xc0 /home/leon/git/swp-report/iMX6_Platform_SDK/output/mx6dq/lib/liblwip.a(udp.o)
 .rodata        0x1004bc4c      0x2c4 /home/leon/git/swp-report/iMX6_Platform_SDK/output/mx6dq/lib/liblwip.a(etharp.o)
                0x1004bc4c                ethbroadcast
                0x1004bc54                ethzero
 .rodata        0x1004bf10       0xb8 /home/leon/git/swp-report/iMX6_Platform_SDK/output/mx6dq/lib/liblwip.a(mx6_ethernetif.o)
 .rodata        0x1004bfc8       0x84 /home/leon/git/swp-report/iMX6_Platform_SDK/output/mx6dq/lib/liblwip.a(inet_chksum.o)
 .rodata        0x1004c04c      0x18c /home/leon/git/swp-report/iMX6_Platform_SDK/output/mx6dq/lib/liblwip.a(icmp.o)
 .rodata.str1.4
                0x1004c1d8       0x3f /home/leon/riotboard/arm-2012.09/bin/../arm-none-eabi/lib//libc.a(lib_a-assert.o)
                                 0x44 (size before relaxing)
 *fill*         0x1004c217        0x1 
 .rodata        0x1004c218        0x4 /home/leon/riotboard/arm-2012.09/bin/../arm-none-eabi/lib//libc.a(lib_a-impure.o)
                0x1004c218                _global_impure_ptr
 .rodata.str1.4
                0x1004c21c        0x2 /home/leon/riotboard/arm-2012.09/bin/../arm-none-eabi/lib//libc.a(lib_a-impure.o)
                                  0x4 (size before relaxing)
 *fill*         0x1004c21e        0x2 
 .rodata        0x1004c220       0x20 /home/leon/riotboard/arm-2012.09/bin/../arm-none-eabi/lib//libc.a(lib_a-vfiprintf.o)
 .rodata.str1.4
                0x1004c240       0x2f /home/leon/riotboard/arm-2012.09/bin/../arm-none-eabi/lib//libc.a(lib_a-vfiprintf.o)
                                 0x30 (size before relaxing)
 *fill*         0x1004c26f        0x1 
 .rodata        0x1004c270       0x20 /home/leon/riotboard/arm-2012.09/bin/../arm-none-eabi/lib//libc.a(lib_a-vfprintf.o)
 .rodata.str1.4
                0x1004c290       0x12 /home/leon/riotboard/arm-2012.09/bin/../arm-none-eabi/lib//libc.a(lib_a-vfprintf.o)
                                 0x44 (size before relaxing)
 *fill*         0x1004c2a2        0x2 
 .rodata.str1.4
                0x1004c2a4       0x10 /home/leon/riotboard/arm-2012.09/bin/../arm-none-eabi/lib//libc.a(lib_a-dtoa.o)
                                 0x14 (size before relaxing)
 .rodata.str1.4
                0x1004c2b4        0xc /home/leon/riotboard/arm-2012.09/bin/../arm-none-eabi/lib//libc.a(lib_a-locale.o)
                                 0x14 (size before relaxing)
 .rodata        0x1004c2c0      0x128 /home/leon/riotboard/arm-2012.09/bin/../arm-none-eabi/lib//libc.a(lib_a-mprec.o)
                0x1004c2d0                __mprec_tens
                0x1004c398                __mprec_tinytens
                0x1004c3c0                __mprec_bigtens
 .rodata        0x1004c3e8       0x20 /home/leon/git/swp-report/iMX6_Platform_SDK/output/mx6dq/lib/libsdk.a(runtime_support.o)
 .rodata        0x1004c408       0xe0 /home/leon/git/swp-report/iMX6_Platform_SDK/output/mx6dq/lib/libsdk.a(gpio.o)
 .rodata        0x1004c4e8      0x380 /home/leon/git/swp-report/iMX6_Platform_SDK/output/mx6dq/lib/libsdk.a(imx6dq_gpio_map.o)
                0x1004c4e8                k_gpio_mux_registers
 .rodata        0x1004c868      0x2c4 /home/leon/git/swp-report/iMX6_Platform_SDK/output/mx6dq/lib/libsdk.a(imx_i2c.o)
 .rodata        0x1004cb2c       0x7c /home/leon/git/swp-report/iMX6_Platform_SDK/output/mx6dq/lib/libboard_sabre_ai_rev_c.a(i2c_iomux_config.o)
                0x1004cba8                . = ALIGN (0x4)
 *(.init)
 .init          0x1004cba8        0xc /home/leon/riotboard/arm-2012.09/bin/../lib/gcc/arm-none-eabi/4.7.2//crti.o
                0x1004cba8                _init
 .init          0x1004cbb4        0xc /home/leon/riotboard/arm-2012.09/bin/../lib/gcc/arm-none-eabi/4.7.2//crtn.o
                0x1004cbc0                . = ALIGN (0x4)
                0x1004cbc0                __init_array_start = .
 *(SORT(.init_array.*))
 *(.init_array)
 .init_array    0x1004cbc0        0x4 /home/leon/riotboard/arm-2012.09/bin/../lib/gcc/arm-none-eabi/4.7.2//crtbegin.o
                0x1004cbc4                __init_array_end = .
                0x1004cbc4                . = ALIGN (0x4)
 *(.fini)
 .fini          0x1004cbc4        0xc /home/leon/riotboard/arm-2012.09/bin/../lib/gcc/arm-none-eabi/4.7.2//crti.o
                0x1004cbc4                _fini
 .fini          0x1004cbd0        0xc /home/leon/riotboard/arm-2012.09/bin/../lib/gcc/arm-none-eabi/4.7.2//crtn.o
                0x1004cbdc                . = ALIGN (0x4)
                0x1004cbdc                __fini_array_start = .
 *(.fini_array)
 .fini_array    0x1004cbdc        0x4 /home/leon/riotboard/arm-2012.09/bin/../lib/gcc/arm-none-eabi/4.7.2//crtbegin.o
 *(SORT(.fini_array.*))
                0x1004cbe0                __fini_array_end = .
                0x1004cbe0                PROVIDE (__exidx_start, .)

.eh_frame       0x1004cbe0        0x4
 .eh_frame      0x1004cbe0        0x0 /home/leon/riotboard/arm-2012.09/bin/../lib/gcc/arm-none-eabi/4.7.2//crtbegin.o
 .eh_frame      0x1004cbe0        0x4 /home/leon/riotboard/arm-2012.09/bin/../lib/gcc/arm-none-eabi/4.7.2//crtend.o

.ARM.exidx      0x1004cbe4        0x8
 *(.ARM.exidx* .gnu.linkonce.armexidx.*)
 .ARM.exidx.startup
                0x1004cbe4        0x8 /home/leon/git/swp-report/iMX6_Platform_SDK/output/mx6dq/lib/libsdk.a(startup.o)
 .ARM.exidx     0x1004cbec        0x0 /home/leon/riotboard/arm-2012.09/bin/../lib/gcc/arm-none-eabi/4.7.2//libgcc.a(_divdi3.o)
                                  0x8 (size before relaxing)
 .ARM.exidx     0x1004cbec        0x0 /home/leon/riotboard/arm-2012.09/bin/../lib/gcc/arm-none-eabi/4.7.2//libgcc.a(_udivdi3.o)
                                  0x8 (size before relaxing)
                0x1004cbec                PROVIDE (__exidx_end, .)

.rel.dyn        0x1004cbec        0x0
 .rel.iplt      0x00000000        0x0 /home/leon/riotboard/arm-2012.09/bin/../lib/gcc/arm-none-eabi/4.7.2//crtbegin.o

.data           0x1004cbf0      0xbfc
 *(.data .data.* .gnu.linkonce.d.*)
 .data          0x1004cbf0        0x4 /home/leon/riotboard/arm-2012.09/bin/../lib/gcc/arm-none-eabi/4.7.2//crtbegin.o
                0x1004cbf0                __dso_handle
 .data          0x1004cbf4        0x0 /home/leon/riotboard/arm-2012.09/bin/../lib/gcc/arm-none-eabi/4.7.2//crti.o
 .data          0x1004cbf4        0x0 /home/leon/riotboard/arm-2012.09/bin/../lib/gcc/arm-none-eabi/4.7.2//crtend.o
 .data          0x1004cbf4        0x0 /home/leon/riotboard/arm-2012.09/bin/../lib/gcc/arm-none-eabi/4.7.2//crtn.o
 .data          0x1004cbf4        0x0 /home/leon/git/swp-report/iMX6_Platform_SDK/output/mx6dq/httpd/sabre_ai_rev_c/obj/apps/common/ivt.o
 .data          0x1004cbf4        0x0 /home/leon/git/swp-report/iMX6_Platform_SDK/output/mx6dq/httpd/sabre_ai_rev_c/obj/apps/common/platform_init.o
 .data          0x1004cbf4        0x0 /home/leon/git/swp-report/iMX6_Platform_SDK/output/mx6dq/httpd/sabre_ai_rev_c/obj/apps/httpd/src/httpd_main.o
 .data          0x1004cbf4        0x0 /home/leon/git/swp-report/iMX6_Platform_SDK/output/mx6dq/httpd/sabre_ai_rev_c/obj/lwip/contrib/apps/httpserver_raw/fs.o
 .data          0x1004cbf4        0x0 /home/leon/git/swp-report/iMX6_Platform_SDK/output/mx6dq/httpd/sabre_ai_rev_c/obj/lwip/contrib/apps/httpserver_raw/httpd.o
 .data          0x1004cbf4        0x0 /home/leon/git/swp-report/iMX6_Platform_SDK/output/mx6dq/lib/libsdk.a(ccm_pll.o)
 .data          0x1004cbf4        0x0 /home/leon/git/swp-report/iMX6_Platform_SDK/output/mx6dq/lib/libsdk.a(cortexA9.o)
 .data          0x1004cbf4        0x0 /home/leon/git/swp-report/iMX6_Platform_SDK/output/mx6dq/lib/libsdk.a(gic.o)
 .data          0x1004cbf4        0x0 /home/leon/git/swp-report/iMX6_Platform_SDK/output/mx6dq/lib/libsdk.a(mmu.o)
 .data          0x1004cbf4        0x0 /home/leon/git/swp-report/iMX6_Platform_SDK/output/mx6dq/lib/libsdk.a(startup.o)
 .data          0x1004cbf4        0x0 /home/leon/git/swp-report/iMX6_Platform_SDK/output/mx6dq/lib/libsdk.a(vectors.o)
 .data          0x1004cbf4        0x0 /home/leon/git/swp-report/iMX6_Platform_SDK/output/mx6dq/lib/libsdk.a(system_util.o)
 .data          0x1004cbf4        0x4 /home/leon/git/swp-report/iMX6_Platform_SDK/output/mx6dq/lib/libsdk.a(text_color.o)
                0x1004cbf4                is_color_supported
 .data          0x1004cbf8        0x0 /home/leon/git/swp-report/iMX6_Platform_SDK/output/mx6dq/lib/libsdk.a(enet_drv.o)
 .data          0x1004cbf8        0x0 /home/leon/git/swp-report/iMX6_Platform_SDK/output/mx6dq/lib/libsdk.a(timer.o)
 .data          0x1004cbf8        0x0 /home/leon/git/swp-report/iMX6_Platform_SDK/output/mx6dq/lib/libsdk.a(imx_uart.o)
 .data          0x1004cbf8        0x4 /home/leon/git/swp-report/iMX6_Platform_SDK/output/mx6dq/lib/libsdk.a(arm_abort.o)
 .data          0x1004cbfc        0x0 /home/leon/git/swp-report/iMX6_Platform_SDK/output/mx6dq/lib/libsdk.a(interrupt.o)
 .data          0x1004cbfc        0x0 /home/leon/git/swp-report/iMX6_Platform_SDK/output/mx6dq/lib/libsdk.a(epit.o)
 .data          0x1004cbfc        0x0 /home/leon/git/swp-report/iMX6_Platform_SDK/output/mx6dq/lib/libsdk.a(abort_handler.o)
 .data          0x1004cbfc        0x0 /home/leon/git/swp-report/iMX6_Platform_SDK/output/mx6dq/lib/libboard_sabre_ai_rev_c.a(board_io_expanders.o)
 .data          0x1004cbfc        0x8 /home/leon/git/swp-report/iMX6_Platform_SDK/output/mx6dq/lib/libboard_sabre_ai_rev_c.a(hardware_modules.o)
                0x1004cbfc                g_debug_uart_port
                0x1004cc00                g_system_timer_port
 .data          0x1004cc04        0x0 /home/leon/git/swp-report/iMX6_Platform_SDK/output/mx6dq/lib/libboard_sabre_ai_rev_c.a(dcd.o)
 .data          0x1004cc04        0x0 /home/leon/git/swp-report/iMX6_Platform_SDK/output/mx6dq/lib/libboard_sabre_ai_rev_c.a(i2c3_iomux_config.o)
 .data          0x1004cc04        0x0 /home/leon/git/swp-report/iMX6_Platform_SDK/output/mx6dq/lib/libboard_sabre_ai_rev_c.a(uart_iomux_config.o)
 .data          0x1004cc04        0x0 /home/leon/git/swp-report/iMX6_Platform_SDK/output/mx6dq/lib/libboard_sabre_ai_rev_c.a(iomux_config.o)
 .data          0x1004cc04        0x0 /home/leon/git/swp-report/iMX6_Platform_SDK/output/mx6dq/lib/libboard_sabre_ai_rev_c.a(ipu1_iomux_config.o)
 .data          0x1004cc04        0x0 /home/leon/git/swp-report/iMX6_Platform_SDK/output/mx6dq/lib/libboard_sabre_ai_rev_c.a(mlb_iomux_config.o)
 .data          0x1004cc04        0x0 /home/leon/git/swp-report/iMX6_Platform_SDK/output/mx6dq/lib/libboard_sabre_ai_rev_c.a(mmdc_iomux_config.o)
 .data          0x1004cc04        0x0 /home/leon/git/swp-report/iMX6_Platform_SDK/output/mx6dq/lib/libboard_sabre_ai_rev_c.a(pwm3_iomux_config.o)
 .data          0x1004cc04        0x0 /home/leon/git/swp-report/iMX6_Platform_SDK/output/mx6dq/lib/libboard_sabre_ai_rev_c.a(pwm4_iomux_config.o)
 .data          0x1004cc04        0x0 /home/leon/git/swp-report/iMX6_Platform_SDK/output/mx6dq/lib/libboard_sabre_ai_rev_c.a(sjc_iomux_config.o)
 .data          0x1004cc04        0x0 /home/leon/git/swp-report/iMX6_Platform_SDK/output/mx6dq/lib/libboard_sabre_ai_rev_c.a(spdif_iomux_config.o)
 .data          0x1004cc04        0x0 /home/leon/git/swp-report/iMX6_Platform_SDK/output/mx6dq/lib/libboard_sabre_ai_rev_c.a(uart2_iomux_config.o)
 .data          0x1004cc04        0x0 /home/leon/git/swp-report/iMX6_Platform_SDK/output/mx6dq/lib/libboard_sabre_ai_rev_c.a(uart3_iomux_config.o)
 .data          0x1004cc04        0x0 /home/leon/git/swp-report/iMX6_Platform_SDK/output/mx6dq/lib/libboard_sabre_ai_rev_c.a(uart4_iomux_config.o)
 .data          0x1004cc04        0x0 /home/leon/git/swp-report/iMX6_Platform_SDK/output/mx6dq/lib/libboard_sabre_ai_rev_c.a(usdhc1_iomux_config.o)
 .data          0x1004cc04        0x0 /home/leon/git/swp-report/iMX6_Platform_SDK/output/mx6dq/lib/libboard_sabre_ai_rev_c.a(usdhc3_iomux_config.o)
 .data          0x1004cc04        0x0 /home/leon/git/swp-report/iMX6_Platform_SDK/output/mx6dq/lib/libboard_sabre_ai_rev_c.a(wdog1_iomux_config.o)
 .data          0x1004cc04        0x0 /home/leon/git/swp-report/iMX6_Platform_SDK/output/mx6dq/lib/libboard_sabre_ai_rev_c.a(audmux_iomux_config.o)
 .data          0x1004cc04        0x0 /home/leon/git/swp-report/iMX6_Platform_SDK/output/mx6dq/lib/libboard_sabre_ai_rev_c.a(ccm_iomux_config.o)
 .data          0x1004cc04        0x0 /home/leon/git/swp-report/iMX6_Platform_SDK/output/mx6dq/lib/libboard_sabre_ai_rev_c.a(ecspi1_iomux_config.o)
 .data          0x1004cc04        0x0 /home/leon/git/swp-report/iMX6_Platform_SDK/output/mx6dq/lib/libboard_sabre_ai_rev_c.a(eim_iomux_config.o)
 .data          0x1004cc04        0x0 /home/leon/git/swp-report/iMX6_Platform_SDK/output/mx6dq/lib/libboard_sabre_ai_rev_c.a(enet_iomux_config.o)
 .data          0x1004cc04        0x0 /home/leon/git/swp-report/iMX6_Platform_SDK/output/mx6dq/lib/libboard_sabre_ai_rev_c.a(esai_iomux_config.o)
 .data          0x1004cc04        0x0 /home/leon/git/swp-report/iMX6_Platform_SDK/output/mx6dq/lib/libboard_sabre_ai_rev_c.a(flexcan1_iomux_config.o)
 .data          0x1004cc04        0x0 /home/leon/git/swp-report/iMX6_Platform_SDK/output/mx6dq/lib/libboard_sabre_ai_rev_c.a(flexcan2_iomux_config.o)
 .data          0x1004cc04        0x0 /home/leon/git/swp-report/iMX6_Platform_SDK/output/mx6dq/lib/libboard_sabre_ai_rev_c.a(gpio1_iomux_config.o)
 .data          0x1004cc04        0x0 /home/leon/git/swp-report/iMX6_Platform_SDK/output/mx6dq/lib/libboard_sabre_ai_rev_c.a(gpio2_iomux_config.o)
 .data          0x1004cc04        0x0 /home/leon/git/swp-report/iMX6_Platform_SDK/output/mx6dq/lib/libboard_sabre_ai_rev_c.a(gpio4_iomux_config.o)
 .data          0x1004cc04        0x0 /home/leon/git/swp-report/iMX6_Platform_SDK/output/mx6dq/lib/libboard_sabre_ai_rev_c.a(gpio5_iomux_config.o)
 .data          0x1004cc04        0x0 /home/leon/git/swp-report/iMX6_Platform_SDK/output/mx6dq/lib/libboard_sabre_ai_rev_c.a(gpio6_iomux_config.o)
 .data          0x1004cc04        0x0 /home/leon/git/swp-report/iMX6_Platform_SDK/output/mx6dq/lib/libboard_sabre_ai_rev_c.a(gpmi_iomux_config.o)
 .data          0x1004cc04        0x0 /home/leon/git/swp-report/iMX6_Platform_SDK/output/mx6dq/lib/libboard_sabre_ai_rev_c.a(i2c2_iomux_config.o)
 .data          0x1004cc04        0x0 /home/leon/git/swp-report/iMX6_Platform_SDK/output/mx6dq/lib/liblwip.a(dhcp.o)
 .data          0x1004cc04        0x0 /home/leon/git/swp-report/iMX6_Platform_SDK/output/mx6dq/lib/liblwip.a(dns.o)
 .data          0x1004cc04        0x0 /home/leon/git/swp-report/iMX6_Platform_SDK/output/mx6dq/lib/liblwip.a(init.o)
 .data          0x1004cc04        0x0 /home/leon/git/swp-report/iMX6_Platform_SDK/output/mx6dq/lib/liblwip.a(autoip.o)
 .data          0x1004cc04        0x0 /home/leon/git/swp-report/iMX6_Platform_SDK/output/mx6dq/lib/liblwip.a(igmp.o)
 .data          0x1004cc04        0x0 /home/leon/git/swp-report/iMX6_Platform_SDK/output/mx6dq/lib/liblwip.a(ip4.o)
 .data          0x1004cc04        0x0 /home/leon/git/swp-report/iMX6_Platform_SDK/output/mx6dq/lib/liblwip.a(ip4_addr.o)
 .data          0x1004cc04        0x0 /home/leon/git/swp-report/iMX6_Platform_SDK/output/mx6dq/lib/liblwip.a(memp.o)
 .data          0x1004cc04        0x0 /home/leon/git/swp-report/iMX6_Platform_SDK/output/mx6dq/lib/liblwip.a(netif.o)
 .data          0x1004cc04        0x0 /home/leon/git/swp-report/iMX6_Platform_SDK/output/mx6dq/lib/liblwip.a(pbuf.o)
 .data          0x1004cc04        0x0 /home/leon/git/swp-report/iMX6_Platform_SDK/output/mx6dq/lib/liblwip.a(raw.o)
 .data          0x1004cc04      0x308 /home/leon/git/swp-report/iMX6_Platform_SDK/output/mx6dq/lib/liblwip.a(mib2.o)
                0x1004cc04                udp_root
                0x1004cc24                udptable_id
                0x1004cc28                udptable_node
                0x1004cc2c                udptable
                0x1004cc48                tcpconntree_root
                0x1004cc68                tcpconntable_id
                0x1004cc6c                tcpconntable_node
                0x1004cc70                tcpconntable
                0x1004cc8c                ipntomtree_root
                0x1004ccac                ipntomtable_id
                0x1004ccb0                ipntomtable_node
                0x1004ccb4                ipntomtable
                0x1004ccd0                iprtetree_root
                0x1004ccf0                iprtetable_id
                0x1004ccf4                iprtetable_node
                0x1004ccf8                iprtetable
                0x1004cd14                ipaddrtree_root
                0x1004cd34                ipaddrtable_id
                0x1004cd38                ipaddrtable_node
                0x1004cd3c                ipaddrtable
                0x1004cd58                arptree_root
                0x1004cd78                at_id
                0x1004cd7c                mib2_at_node
                0x1004cd80                at
                0x1004cd9c                iflist_root
                0x1004cdbc                iftable_id
                0x1004cdc0                iftable_node
                0x1004cdc4                iftable
 .data          0x1004cf0c        0x0 /home/leon/git/swp-report/iMX6_Platform_SDK/output/mx6dq/lib/liblwip.a(mib_structs.o)
 .data          0x1004cf0c        0x0 /home/leon/git/swp-report/iMX6_Platform_SDK/output/mx6dq/lib/liblwip.a(msg_in.o)
 .data          0x1004cf0c        0x0 /home/leon/git/swp-report/iMX6_Platform_SDK/output/mx6dq/lib/liblwip.a(msg_out.o)
 .data          0x1004cf0c        0x0 /home/leon/git/swp-report/iMX6_Platform_SDK/output/mx6dq/lib/liblwip.a(stats.o)
 .data          0x1004cf0c        0x8 /home/leon/git/swp-report/iMX6_Platform_SDK/output/mx6dq/lib/liblwip.a(tcp.o)
 .data          0x1004cf14        0x0 /home/leon/git/swp-report/iMX6_Platform_SDK/output/mx6dq/lib/liblwip.a(tcp_in.o)
 .data          0x1004cf14        0x0 /home/leon/git/swp-report/iMX6_Platform_SDK/output/mx6dq/lib/liblwip.a(tcp_out.o)
 .data          0x1004cf14        0x0 /home/leon/git/swp-report/iMX6_Platform_SDK/output/mx6dq/lib/liblwip.a(timers.o)
 .data          0x1004cf14        0x2 /home/leon/git/swp-report/iMX6_Platform_SDK/output/mx6dq/lib/liblwip.a(udp.o)
 .data          0x1004cf16        0x0 /home/leon/git/swp-report/iMX6_Platform_SDK/output/mx6dq/lib/liblwip.a(etharp.o)
 *fill*         0x1004cf16        0x2 
 .data          0x1004cf18        0xc /home/leon/git/swp-report/iMX6_Platform_SDK/output/mx6dq/lib/liblwip.a(mx6_ethernetif.o)
                0x1004cf18                g_en0
 .data          0x1004cf24        0x0 /home/leon/git/swp-report/iMX6_Platform_SDK/output/mx6dq/lib/liblwip.a(mx6_lwip.o)
 .data          0x1004cf24        0x0 /home/leon/git/swp-report/iMX6_Platform_SDK/output/mx6dq/lib/liblwip.a(sys_arch.o)
 .data          0x1004cf24        0x0 /home/leon/git/swp-report/iMX6_Platform_SDK/output/mx6dq/lib/liblwip.a(def.o)
 .data          0x1004cf24        0x0 /home/leon/git/swp-report/iMX6_Platform_SDK/output/mx6dq/lib/liblwip.a(inet_chksum.o)
 .data          0x1004cf24        0x0 /home/leon/git/swp-report/iMX6_Platform_SDK/output/mx6dq/lib/liblwip.a(icmp.o)
 .data          0x1004cf24        0x0 /home/leon/git/swp-report/iMX6_Platform_SDK/output/mx6dq/lib/liblwip.a(asn1_dec.o)
 .data          0x1004cf24        0x0 /home/leon/git/swp-report/iMX6_Platform_SDK/output/mx6dq/lib/liblwip.a(asn1_enc.o)
 .data          0x1004cf24        0x0 /home/leon/riotboard/arm-2012.09/bin/../arm-none-eabi/lib//libc.a(lib_a-abort.o)
 .data          0x1004cf24        0x0 /home/leon/riotboard/arm-2012.09/bin/../arm-none-eabi/lib//libc.a(lib_a-assert.o)
 .data          0x1004cf24        0x0 /home/leon/riotboard/arm-2012.09/bin/../arm-none-eabi/lib//libc.a(lib_a-bzero.o)
 .data          0x1004cf24        0x0 /home/leon/riotboard/arm-2012.09/bin/../arm-none-eabi/lib//libc.a(lib_a-fflush.o)
 .data          0x1004cf24        0x0 /home/leon/riotboard/arm-2012.09/bin/../arm-none-eabi/lib//libc.a(lib_a-findfp.o)
 .data          0x1004cf24        0x0 /home/leon/riotboard/arm-2012.09/bin/../arm-none-eabi/lib//libc.a(lib_a-fiprintf.o)
 .data          0x1004cf24        0x0 /home/leon/riotboard/arm-2012.09/bin/../arm-none-eabi/lib//libc.a(lib_a-fputc.o)
 .data          0x1004cf24        0x0 /home/leon/riotboard/arm-2012.09/bin/../arm-none-eabi/lib//libc.a(lib_a-freer.o)
 .data          0x1004cf24        0x0 /home/leon/riotboard/arm-2012.09/bin/../arm-none-eabi/lib//libc.a(lib_a-fwalk.o)
 *fill*         0x1004cf24        0x4 
 .data          0x1004cf28      0x430 /home/leon/riotboard/arm-2012.09/bin/../arm-none-eabi/lib//libc.a(lib_a-impure.o)
                0x1004cf28                _impure_ptr
 .data          0x1004d358        0x0 /home/leon/riotboard/arm-2012.09/bin/../arm-none-eabi/lib//libc.a(lib_a-init.o)
 .data          0x1004d358        0x0 /home/leon/riotboard/arm-2012.09/bin/../arm-none-eabi/lib//libc.a(lib_a-malloc.o)
 .data          0x1004d358      0x410 /home/leon/riotboard/arm-2012.09/bin/../arm-none-eabi/lib//libc.a(lib_a-mallocr.o)
                0x1004d358                __malloc_av_
                0x1004d760                __malloc_sbrk_base
                0x1004d764                __malloc_trim_threshold
 .data          0x1004d768        0x0 /home/leon/riotboard/arm-2012.09/bin/../arm-none-eabi/lib//libc.a(lib_a-memcmp.o)
 .data          0x1004d768        0x0 /home/leon/riotboard/arm-2012.09/bin/../arm-none-eabi/lib//libc.a(lib_a-memcpy.o)
 .data          0x1004d768        0x0 /home/leon/riotboard/arm-2012.09/bin/../arm-none-eabi/lib//libc.a(lib_a-memset.o)
 .data          0x1004d768        0x0 /home/leon/riotboard/arm-2012.09/bin/../arm-none-eabi/lib//libc.a(lib_a-mlock.o)
 .data          0x1004d768        0x0 /home/leon/riotboard/arm-2012.09/bin/../arm-none-eabi/lib//libc.a(lib_a-printf.o)
 .data          0x1004d768        0x0 /home/leon/riotboard/arm-2012.09/bin/../arm-none-eabi/lib//libc.a(lib_a-putc.o)
 .data          0x1004d768        0x0 /home/leon/riotboard/arm-2012.09/bin/../arm-none-eabi/lib//libc.a(lib_a-rand.o)
 .data          0x1004d768        0x0 /home/leon/riotboard/arm-2012.09/bin/../arm-none-eabi/lib//libc.a(lib_a-realloc.o)
 .data          0x1004d768        0x0 /home/leon/riotboard/arm-2012.09/bin/../arm-none-eabi/lib//libc.a(lib_a-reallocr.o)
 .data          0x1004d768        0x0 /home/leon/riotboard/arm-2012.09/bin/../arm-none-eabi/lib//libc.a(lib_a-rget.o)
 .data          0x1004d768        0x0 /home/leon/riotboard/arm-2012.09/bin/../arm-none-eabi/lib//libc.a(lib_a-sbrkr.o)
 .data          0x1004d768        0x0 /home/leon/riotboard/arm-2012.09/bin/../arm-none-eabi/lib//libc.a(lib_a-signal.o)
 .data          0x1004d768        0x0 /home/leon/riotboard/arm-2012.09/bin/../arm-none-eabi/lib//libc.a(lib_a-signalr.o)
 .data          0x1004d768        0x0 /home/leon/riotboard/arm-2012.09/bin/../arm-none-eabi/lib//libc.a(lib_a-stdio.o)
 .data          0x1004d768        0x0 /home/leon/riotboard/arm-2012.09/bin/../arm-none-eabi/lib//libc.a(lib_a-strchr.o)
 .data          0x1004d768        0x0 /home/leon/riotboard/arm-2012.09/bin/../arm-none-eabi/lib//libc.a(lib_a-strcmp.o)
 .data          0x1004d768        0x0 /home/leon/riotboard/arm-2012.09/bin/../arm-none-eabi/lib//libc.a(lib_a-strlen.o)
 .data          0x1004d768        0x0 /home/leon/riotboard/arm-2012.09/bin/../arm-none-eabi/lib//libc.a(lib_a-strncmp.o)
 .data          0x1004d768        0x0 /home/leon/riotboard/arm-2012.09/bin/../arm-none-eabi/lib//libc.a(lib_a-vfiprintf.o)
 .data          0x1004d768        0x0 /home/leon/riotboard/arm-2012.09/bin/../arm-none-eabi/lib//libc.a(lib_a-vfprintf.o)
 .data          0x1004d768        0x0 /home/leon/riotboard/arm-2012.09/bin/../arm-none-eabi/lib//libc.a(lib_a-vprintf.o)
 .data          0x1004d768        0x0 /home/leon/riotboard/arm-2012.09/bin/../arm-none-eabi/lib//libc.a(lib_a-wbuf.o)
 .data          0x1004d768        0x0 /home/leon/riotboard/arm-2012.09/bin/../arm-none-eabi/lib//libc.a(lib_a-writer.o)
 .data          0x1004d768        0x0 /home/leon/riotboard/arm-2012.09/bin/../arm-none-eabi/lib//libc.a(lib_a-wsetup.o)
 .data          0x1004d768        0x0 /home/leon/riotboard/arm-2012.09/bin/../arm-none-eabi/lib//libc.a(lib_a-closer.o)
 .data          0x1004d768        0x0 /home/leon/riotboard/arm-2012.09/bin/../arm-none-eabi/lib//libc.a(lib_a-dtoa.o)
 .data          0x1004d768        0x0 /home/leon/riotboard/arm-2012.09/bin/../arm-none-eabi/lib//libc.a(lib_a-fclose.o)
 .data          0x1004d768        0x0 /home/leon/riotboard/arm-2012.09/bin/../arm-none-eabi/lib//libc.a(lib_a-fputwc.o)
 .data          0x1004d768        0x0 /home/leon/riotboard/arm-2012.09/bin/../arm-none-eabi/lib//libc.a(lib_a-fvwrite.o)
 .data          0x1004d768       0x7c /home/leon/riotboard/arm-2012.09/bin/../arm-none-eabi/lib//libc.a(lib_a-locale.o)
                0x1004d788                __mb_cur_max
 .data          0x1004d7e4        0x0 /home/leon/riotboard/arm-2012.09/bin/../arm-none-eabi/lib//libc.a(lib_a-lseekr.o)
 .data          0x1004d7e4        0x0 /home/leon/riotboard/arm-2012.09/bin/../arm-none-eabi/lib//libc.a(lib_a-makebuf.o)
 .data          0x1004d7e4        0x0 /home/leon/riotboard/arm-2012.09/bin/../arm-none-eabi/lib//libc.a(lib_a-memchr.o)
 .data          0x1004d7e4        0x0 /home/leon/riotboard/arm-2012.09/bin/../arm-none-eabi/lib//libc.a(lib_a-memmove.o)
 .data          0x1004d7e4        0x0 /home/leon/riotboard/arm-2012.09/bin/../arm-none-eabi/lib//libc.a(lib_a-mprec.o)
 .data          0x1004d7e4        0x0 /home/leon/riotboard/arm-2012.09/bin/../arm-none-eabi/lib//libc.a(lib_a-readr.o)
 .data          0x1004d7e4        0x0 /home/leon/riotboard/arm-2012.09/bin/../arm-none-eabi/lib//libc.a(lib_a-reent.o)
 .data          0x1004d7e4        0x0 /home/leon/riotboard/arm-2012.09/bin/../arm-none-eabi/lib//libc.a(lib_a-refill.o)
 .data          0x1004d7e4        0x0 /home/leon/riotboard/arm-2012.09/bin/../arm-none-eabi/lib//libc.a(lib_a-s_fpclassify.o)
 .data          0x1004d7e4        0x0 /home/leon/riotboard/arm-2012.09/bin/../arm-none-eabi/lib//libc.a(lib_a-wcrtomb.o)
 .data          0x1004d7e4        0x4 /home/leon/riotboard/arm-2012.09/bin/../arm-none-eabi/lib//libc.a(lib_a-wctomb_r.o)
                0x1004d7e4                __wctomb
 .data          0x1004d7e8        0x0 /home/leon/riotboard/arm-2012.09/bin/../arm-none-eabi/lib//libc.a(lib_a-callocr.o)
 .data          0x1004d7e8        0x0 /home/leon/riotboard/arm-2012.09/bin/../arm-none-eabi/lib//libc.a(lib_a-fstatr.o)
 .data          0x1004d7e8        0x0 /home/leon/riotboard/arm-2012.09/bin/../arm-none-eabi/lib//libc.a(lib_a-isattyr.o)
 .data          0x1004d7e8        0x0 /home/leon/riotboard/arm-2012.09/bin/../lib/gcc/arm-none-eabi/4.7.2//libgcc.a(_udivsi3.o)
 .data          0x1004d7e8        0x0 /home/leon/riotboard/arm-2012.09/bin/../lib/gcc/arm-none-eabi/4.7.2//libgcc.a(_divsi3.o)
 .data          0x1004d7e8        0x0 /home/leon/riotboard/arm-2012.09/bin/../lib/gcc/arm-none-eabi/4.7.2//libgcc.a(_dvmd_tls.o)
 .data          0x1004d7e8        0x0 /home/leon/riotboard/arm-2012.09/bin/../lib/gcc/arm-none-eabi/4.7.2//libgcc.a(_arm_addsubdf3.o)
 .data          0x1004d7e8        0x0 /home/leon/riotboard/arm-2012.09/bin/../lib/gcc/arm-none-eabi/4.7.2//libgcc.a(_arm_muldivdf3.o)
 .data          0x1004d7e8        0x0 /home/leon/riotboard/arm-2012.09/bin/../lib/gcc/arm-none-eabi/4.7.2//libgcc.a(_arm_cmpdf2.o)
 .data          0x1004d7e8        0x0 /home/leon/riotboard/arm-2012.09/bin/../lib/gcc/arm-none-eabi/4.7.2//libgcc.a(_arm_fixdfsi.o)
 .data          0x1004d7e8        0x0 /home/leon/riotboard/arm-2012.09/bin/../lib/gcc/arm-none-eabi/4.7.2//libgcc.a(_aeabi_uldivmod.o)
 .data          0x1004d7e8        0x0 /home/leon/riotboard/arm-2012.09/bin/../lib/gcc/arm-none-eabi/4.7.2//libgcc.a(bpabi.o)
 .data          0x1004d7e8        0x0 /home/leon/riotboard/arm-2012.09/bin/../lib/gcc/arm-none-eabi/4.7.2//libgcc.a(_divdi3.o)
 .data          0x1004d7e8        0x0 /home/leon/riotboard/arm-2012.09/bin/../lib/gcc/arm-none-eabi/4.7.2//libgcc.a(_udivdi3.o)
 .data          0x1004d7e8        0x0 /home/leon/riotboard/arm-2012.09/bin/../lib/gcc/arm-none-eabi/4.7.2//libgcc.a(_clzsi2.o)
 .data          0x1004d7e8        0x0 /home/leon/git/swp-report/iMX6_Platform_SDK/output/mx6dq/lib/libsdk.a(max7310.o)
 .data          0x1004d7e8        0x4 /home/leon/git/swp-report/iMX6_Platform_SDK/output/mx6dq/lib/libsdk.a(runtime_support.o)
                0x1004d7e8                environ
 .data          0x1004d7ec        0x0 /home/leon/git/swp-report/iMX6_Platform_SDK/output/mx6dq/lib/libsdk.a(gpio.o)
 .data          0x1004d7ec        0x0 /home/leon/git/swp-report/iMX6_Platform_SDK/output/mx6dq/lib/libsdk.a(imx6dq_gpio_map.o)
 .data          0x1004d7ec        0x0 /home/leon/git/swp-report/iMX6_Platform_SDK/output/mx6dq/lib/libsdk.a(imx_i2c.o)
 .data          0x1004d7ec        0x0 /home/leon/git/swp-report/iMX6_Platform_SDK/output/mx6dq/lib/libboard_sabre_ai_rev_c.a(board_network.o)
 .data          0x1004d7ec        0x0 /home/leon/git/swp-report/iMX6_Platform_SDK/output/mx6dq/lib/libboard_sabre_ai_rev_c.a(i2c_iomux_config.o)

.jcr            0x1004d7ec        0x4
 .jcr           0x1004d7ec        0x0 /home/leon/riotboard/arm-2012.09/bin/../lib/gcc/arm-none-eabi/4.7.2//crtbegin.o
 .jcr           0x1004d7ec        0x4 /home/leon/riotboard/arm-2012.09/bin/../lib/gcc/arm-none-eabi/4.7.2//crtend.o

.tm_clone_table
                0x1004d7f0        0x0
 .tm_clone_table
                0x1004d7f0        0x0 /home/leon/riotboard/arm-2012.09/bin/../lib/gcc/arm-none-eabi/4.7.2//crtbegin.o
 .tm_clone_table
                0x1004d7f0        0x0 /home/leon/riotboard/arm-2012.09/bin/../lib/gcc/arm-none-eabi/4.7.2//crtend.o

.igot.plt       0x1004d7f0        0x0
 .igot.plt      0x00000000        0x0 /home/leon/riotboard/arm-2012.09/bin/../lib/gcc/arm-none-eabi/4.7.2//crtbegin.o

.hab.data       0x10400000     0x2000
                0x10400000                __hab_data = .
                0x10402000                . = (. + 0x2000)
 *fill*         0x10400000     0x2000 
                0x10402000                . = ALIGN (0x20)
                0x10402000                __hab_data_end = .
                0x00402000                _image_size = (. - _start_image_add)

.bss            0x10402000     0x799c
                0x10402000                __bss_start__ = .
 *(.shbss)
 *(.bss .bss.* .gnu.linkonce.b.*)
 .bss           0x10402000       0x1c /home/leon/riotboard/arm-2012.09/bin/../lib/gcc/arm-none-eabi/4.7.2//crtbegin.o
 .bss           0x1040201c        0x0 /home/leon/riotboard/arm-2012.09/bin/../lib/gcc/arm-none-eabi/4.7.2//crti.o
 .bss           0x1040201c        0x0 /home/leon/riotboard/arm-2012.09/bin/../lib/gcc/arm-none-eabi/4.7.2//crtend.o
 .bss           0x1040201c        0x0 /home/leon/riotboard/arm-2012.09/bin/../lib/gcc/arm-none-eabi/4.7.2//crtn.o
 .bss           0x1040201c        0x0 /home/leon/git/swp-report/iMX6_Platform_SDK/output/mx6dq/httpd/sabre_ai_rev_c/obj/apps/common/ivt.o
 .bss           0x1040201c        0x0 /home/leon/git/swp-report/iMX6_Platform_SDK/output/mx6dq/httpd/sabre_ai_rev_c/obj/apps/common/platform_init.o
 .bss           0x1040201c       0x80 /home/leon/git/swp-report/iMX6_Platform_SDK/output/mx6dq/httpd/sabre_ai_rev_c/obj/apps/httpd/src/httpd_main.o
                0x1040201c                g_netif
 .bss           0x1040209c        0x0 /home/leon/git/swp-report/iMX6_Platform_SDK/output/mx6dq/httpd/sabre_ai_rev_c/obj/lwip/contrib/apps/httpserver_raw/fs.o
 .bss           0x1040209c      0x408 /home/leon/git/swp-report/iMX6_Platform_SDK/output/mx6dq/httpd/sabre_ai_rev_c/obj/lwip/contrib/apps/httpserver_raw/httpd.o
                0x1040249c                g_pCGIs
                0x104024a0                g_iNumCGIs
 .bss           0x104024a4        0x0 /home/leon/git/swp-report/iMX6_Platform_SDK/output/mx6dq/lib/libsdk.a(ccm_pll.o)
 .bss           0x104024a4        0x0 /home/leon/git/swp-report/iMX6_Platform_SDK/output/mx6dq/lib/libsdk.a(cortexA9.o)
 .bss           0x104024a4        0x0 /home/leon/git/swp-report/iMX6_Platform_SDK/output/mx6dq/lib/libsdk.a(gic.o)
 .bss           0x104024a4        0x0 /home/leon/git/swp-report/iMX6_Platform_SDK/output/mx6dq/lib/libsdk.a(mmu.o)
 .bss           0x104024a4        0x0 /home/leon/git/swp-report/iMX6_Platform_SDK/output/mx6dq/lib/libsdk.a(startup.o)
 .bss           0x104024a4        0x0 /home/leon/git/swp-report/iMX6_Platform_SDK/output/mx6dq/lib/libsdk.a(vectors.o)
 .bss           0x104024a4        0x0 /home/leon/git/swp-report/iMX6_Platform_SDK/output/mx6dq/lib/libsdk.a(system_util.o)
 .bss           0x104024a4        0x0 /home/leon/git/swp-report/iMX6_Platform_SDK/output/mx6dq/lib/libsdk.a(text_color.o)
 *fill*         0x104024a4       0x1c 
 .bss           0x104024c0     0x5060 /home/leon/git/swp-report/iMX6_Platform_SDK/output/mx6dq/lib/libsdk.a(enet_drv.o)
 .bss           0x10407520        0x4 /home/leon/git/swp-report/iMX6_Platform_SDK/output/mx6dq/lib/libsdk.a(timer.o)
                0x10407520                g_microsecondTimerMultiple
 .bss           0x10407524        0x0 /home/leon/git/swp-report/iMX6_Platform_SDK/output/mx6dq/lib/libsdk.a(imx_uart.o)
 .bss           0x10407524        0x0 /home/leon/git/swp-report/iMX6_Platform_SDK/output/mx6dq/lib/libsdk.a(arm_abort.o)
 .bss           0x10407524      0x290 /home/leon/git/swp-report/iMX6_Platform_SDK/output/mx6dq/lib/libsdk.a(interrupt.o)
                0x10407524                g_interrupt_handlers
                0x104077a4                g_vectNum
 .bss           0x104077b4        0x0 /home/leon/git/swp-report/iMX6_Platform_SDK/output/mx6dq/lib/libsdk.a(epit.o)
 .bss           0x104077b4        0x0 /home/leon/git/swp-report/iMX6_Platform_SDK/output/mx6dq/lib/libsdk.a(abort_handler.o)
 .bss           0x104077b4       0x6c /home/leon/git/swp-report/iMX6_Platform_SDK/output/mx6dq/lib/libboard_sabre_ai_rev_c.a(board_io_expanders.o)
                0x104077b4                max7310_i2c_req_array
 .bss           0x10407820        0x0 /home/leon/git/swp-report/iMX6_Platform_SDK/output/mx6dq/lib/libboard_sabre_ai_rev_c.a(hardware_modules.o)
 .bss           0x10407820        0x0 /home/leon/git/swp-report/iMX6_Platform_SDK/output/mx6dq/lib/libboard_sabre_ai_rev_c.a(dcd.o)
 .bss           0x10407820        0x0 /home/leon/git/swp-report/iMX6_Platform_SDK/output/mx6dq/lib/libboard_sabre_ai_rev_c.a(i2c3_iomux_config.o)
 .bss           0x10407820        0x0 /home/leon/git/swp-report/iMX6_Platform_SDK/output/mx6dq/lib/libboard_sabre_ai_rev_c.a(uart_iomux_config.o)
 .bss           0x10407820        0x0 /home/leon/git/swp-report/iMX6_Platform_SDK/output/mx6dq/lib/libboard_sabre_ai_rev_c.a(iomux_config.o)
 .bss           0x10407820        0x0 /home/leon/git/swp-report/iMX6_Platform_SDK/output/mx6dq/lib/libboard_sabre_ai_rev_c.a(ipu1_iomux_config.o)
 .bss           0x10407820        0x0 /home/leon/git/swp-report/iMX6_Platform_SDK/output/mx6dq/lib/libboard_sabre_ai_rev_c.a(mlb_iomux_config.o)
 .bss           0x10407820        0x0 /home/leon/git/swp-report/iMX6_Platform_SDK/output/mx6dq/lib/libboard_sabre_ai_rev_c.a(mmdc_iomux_config.o)
 .bss           0x10407820        0x0 /home/leon/git/swp-report/iMX6_Platform_SDK/output/mx6dq/lib/libboard_sabre_ai_rev_c.a(pwm3_iomux_config.o)
 .bss           0x10407820        0x0 /home/leon/git/swp-report/iMX6_Platform_SDK/output/mx6dq/lib/libboard_sabre_ai_rev_c.a(pwm4_iomux_config.o)
 .bss           0x10407820        0x0 /home/leon/git/swp-report/iMX6_Platform_SDK/output/mx6dq/lib/libboard_sabre_ai_rev_c.a(sjc_iomux_config.o)
 .bss           0x10407820        0x0 /home/leon/git/swp-report/iMX6_Platform_SDK/output/mx6dq/lib/libboard_sabre_ai_rev_c.a(spdif_iomux_config.o)
 .bss           0x10407820        0x0 /home/leon/git/swp-report/iMX6_Platform_SDK/output/mx6dq/lib/libboard_sabre_ai_rev_c.a(uart2_iomux_config.o)
 .bss           0x10407820        0x0 /home/leon/git/swp-report/iMX6_Platform_SDK/output/mx6dq/lib/libboard_sabre_ai_rev_c.a(uart3_iomux_config.o)
 .bss           0x10407820        0x0 /home/leon/git/swp-report/iMX6_Platform_SDK/output/mx6dq/lib/libboard_sabre_ai_rev_c.a(uart4_iomux_config.o)
 .bss           0x10407820        0x0 /home/leon/git/swp-report/iMX6_Platform_SDK/output/mx6dq/lib/libboard_sabre_ai_rev_c.a(usdhc1_iomux_config.o)
 .bss           0x10407820        0x0 /home/leon/git/swp-report/iMX6_Platform_SDK/output/mx6dq/lib/libboard_sabre_ai_rev_c.a(usdhc3_iomux_config.o)
 .bss           0x10407820        0x0 /home/leon/git/swp-report/iMX6_Platform_SDK/output/mx6dq/lib/libboard_sabre_ai_rev_c.a(wdog1_iomux_config.o)
 .bss           0x10407820        0x0 /home/leon/git/swp-report/iMX6_Platform_SDK/output/mx6dq/lib/libboard_sabre_ai_rev_c.a(audmux_iomux_config.o)
 .bss           0x10407820        0x0 /home/leon/git/swp-report/iMX6_Platform_SDK/output/mx6dq/lib/libboard_sabre_ai_rev_c.a(ccm_iomux_config.o)
 .bss           0x10407820        0x0 /home/leon/git/swp-report/iMX6_Platform_SDK/output/mx6dq/lib/libboard_sabre_ai_rev_c.a(ecspi1_iomux_config.o)
 .bss           0x10407820        0x0 /home/leon/git/swp-report/iMX6_Platform_SDK/output/mx6dq/lib/libboard_sabre_ai_rev_c.a(eim_iomux_config.o)
 .bss           0x10407820        0x0 /home/leon/git/swp-report/iMX6_Platform_SDK/output/mx6dq/lib/libboard_sabre_ai_rev_c.a(enet_iomux_config.o)
 .bss           0x10407820        0x0 /home/leon/git/swp-report/iMX6_Platform_SDK/output/mx6dq/lib/libboard_sabre_ai_rev_c.a(esai_iomux_config.o)
 .bss           0x10407820        0x0 /home/leon/git/swp-report/iMX6_Platform_SDK/output/mx6dq/lib/libboard_sabre_ai_rev_c.a(flexcan1_iomux_config.o)
 .bss           0x10407820        0x0 /home/leon/git/swp-report/iMX6_Platform_SDK/output/mx6dq/lib/libboard_sabre_ai_rev_c.a(flexcan2_iomux_config.o)
 .bss           0x10407820        0x0 /home/leon/git/swp-report/iMX6_Platform_SDK/output/mx6dq/lib/libboard_sabre_ai_rev_c.a(gpio1_iomux_config.o)
 .bss           0x10407820        0x0 /home/leon/git/swp-report/iMX6_Platform_SDK/output/mx6dq/lib/libboard_sabre_ai_rev_c.a(gpio2_iomux_config.o)
 .bss           0x10407820        0x0 /home/leon/git/swp-report/iMX6_Platform_SDK/output/mx6dq/lib/libboard_sabre_ai_rev_c.a(gpio4_iomux_config.o)
 .bss           0x10407820        0x0 /home/leon/git/swp-report/iMX6_Platform_SDK/output/mx6dq/lib/libboard_sabre_ai_rev_c.a(gpio5_iomux_config.o)
 .bss           0x10407820        0x0 /home/leon/git/swp-report/iMX6_Platform_SDK/output/mx6dq/lib/libboard_sabre_ai_rev_c.a(gpio6_iomux_config.o)
 .bss           0x10407820        0x0 /home/leon/git/swp-report/iMX6_Platform_SDK/output/mx6dq/lib/libboard_sabre_ai_rev_c.a(gpmi_iomux_config.o)
 .bss           0x10407820        0x0 /home/leon/git/swp-report/iMX6_Platform_SDK/output/mx6dq/lib/libboard_sabre_ai_rev_c.a(i2c2_iomux_config.o)
 .bss           0x10407820       0x38 /home/leon/git/swp-report/iMX6_Platform_SDK/output/mx6dq/lib/liblwip.a(dhcp.o)
                0x10407820                dhcp_rx_options_val
                0x10407848                dhcp_rx_options_given
 .bss           0x10407858      0x678 /home/leon/git/swp-report/iMX6_Platform_SDK/output/mx6dq/lib/liblwip.a(dns.o)
 .bss           0x10407ed0        0x0 /home/leon/git/swp-report/iMX6_Platform_SDK/output/mx6dq/lib/liblwip.a(init.o)
 .bss           0x10407ed0        0x0 /home/leon/git/swp-report/iMX6_Platform_SDK/output/mx6dq/lib/liblwip.a(autoip.o)
 .bss           0x10407ed0        0xc /home/leon/git/swp-report/iMX6_Platform_SDK/output/mx6dq/lib/liblwip.a(igmp.o)
 .bss           0x10407edc       0x18 /home/leon/git/swp-report/iMX6_Platform_SDK/output/mx6dq/lib/liblwip.a(ip4.o)
                0x10407edc                ip_data
 .bss           0x10407ef4       0x10 /home/leon/git/swp-report/iMX6_Platform_SDK/output/mx6dq/lib/liblwip.a(ip4_addr.o)
 .bss           0x10407f04        0x0 /home/leon/git/swp-report/iMX6_Platform_SDK/output/mx6dq/lib/liblwip.a(memp.o)
 .bss           0x10407f04        0xc /home/leon/git/swp-report/iMX6_Platform_SDK/output/mx6dq/lib/liblwip.a(netif.o)
                0x10407f04                netif_list
                0x10407f08                netif_default
 .bss           0x10407f10        0x1 /home/leon/git/swp-report/iMX6_Platform_SDK/output/mx6dq/lib/liblwip.a(pbuf.o)
                0x10407f10                pbuf_free_ooseq_pending
 *fill*         0x10407f11        0x3 
 .bss           0x10407f14        0x4 /home/leon/git/swp-report/iMX6_Platform_SDK/output/mx6dq/lib/liblwip.a(raw.o)
 .bss           0x10407f18      0x150 /home/leon/git/swp-report/iMX6_Platform_SDK/output/mx6dq/lib/liblwip.a(mib2.o)
 .bss           0x10408068      0x184 /home/leon/git/swp-report/iMX6_Platform_SDK/output/mx6dq/lib/liblwip.a(mib_structs.o)
 .bss           0x104081ec      0x134 /home/leon/git/swp-report/iMX6_Platform_SDK/output/mx6dq/lib/liblwip.a(msg_in.o)
                0x104081ec                msg_input_list
                0x1040831c                snmp1_pcb
 .bss           0x10408320       0x4c /home/leon/git/swp-report/iMX6_Platform_SDK/output/mx6dq/lib/liblwip.a(msg_out.o)
                0x10408320                trap_dst
                0x10408328                trap_msg
 .bss           0x1040836c      0x2e4 /home/leon/git/swp-report/iMX6_Platform_SDK/output/mx6dq/lib/liblwip.a(stats.o)
                0x1040836c                lwip_stats
 .bss           0x10408650       0x1c /home/leon/git/swp-report/iMX6_Platform_SDK/output/mx6dq/lib/liblwip.a(tcp.o)
                0x10408650                tcp_ticks
                0x10408654                tcp_bound_pcbs
                0x10408658                tcp_listen_pcbs
                0x1040865c                tcp_active_pcbs
                0x10408660                tcp_tw_pcbs
                0x10408664                tcp_tmp_pcb
                0x10408668                tcp_active_pcbs_changed
 .bss           0x1040866c       0x30 /home/leon/git/swp-report/iMX6_Platform_SDK/output/mx6dq/lib/liblwip.a(tcp_in.o)
                0x10408698                tcp_input_pcb
 .bss           0x1040869c        0x0 /home/leon/git/swp-report/iMX6_Platform_SDK/output/mx6dq/lib/liblwip.a(tcp_out.o)
 .bss           0x1040869c        0xc /home/leon/git/swp-report/iMX6_Platform_SDK/output/mx6dq/lib/liblwip.a(timers.o)
 .bss           0x104086a8        0x4 /home/leon/git/swp-report/iMX6_Platform_SDK/output/mx6dq/lib/liblwip.a(udp.o)
                0x104086a8                udp_pcbs
 .bss           0x104086ac      0x258 /home/leon/git/swp-report/iMX6_Platform_SDK/output/mx6dq/lib/liblwip.a(etharp.o)
 .bss           0x10408904     0x1028 /home/leon/git/swp-report/iMX6_Platform_SDK/output/mx6dq/lib/liblwip.a(mx6_ethernetif.o)
 .bss           0x1040992c       0x1c /home/leon/git/swp-report/iMX6_Platform_SDK/output/mx6dq/lib/liblwip.a(mx6_lwip.o)
 .bss           0x10409948        0x0 /home/leon/git/swp-report/iMX6_Platform_SDK/output/mx6dq/lib/liblwip.a(sys_arch.o)
 .bss           0x10409948        0x0 /home/leon/git/swp-report/iMX6_Platform_SDK/output/mx6dq/lib/liblwip.a(def.o)
 .bss           0x10409948        0x0 /home/leon/git/swp-report/iMX6_Platform_SDK/output/mx6dq/lib/liblwip.a(inet_chksum.o)
 .bss           0x10409948        0x0 /home/leon/git/swp-report/iMX6_Platform_SDK/output/mx6dq/lib/liblwip.a(icmp.o)
 .bss           0x10409948        0x0 /home/leon/git/swp-report/iMX6_Platform_SDK/output/mx6dq/lib/liblwip.a(asn1_dec.o)
 .bss           0x10409948        0x0 /home/leon/git/swp-report/iMX6_Platform_SDK/output/mx6dq/lib/liblwip.a(asn1_enc.o)
 .bss           0x10409948        0x0 /home/leon/riotboard/arm-2012.09/bin/../arm-none-eabi/lib//libc.a(lib_a-abort.o)
 .bss           0x10409948        0x0 /home/leon/riotboard/arm-2012.09/bin/../arm-none-eabi/lib//libc.a(lib_a-assert.o)
 .bss           0x10409948        0x0 /home/leon/riotboard/arm-2012.09/bin/../arm-none-eabi/lib//libc.a(lib_a-bzero.o)
 .bss           0x10409948        0x0 /home/leon/riotboard/arm-2012.09/bin/../arm-none-eabi/lib//libc.a(lib_a-fflush.o)
 .bss           0x10409948        0x0 /home/leon/riotboard/arm-2012.09/bin/../arm-none-eabi/lib//libc.a(lib_a-findfp.o)
 .bss           0x10409948        0x0 /home/leon/riotboard/arm-2012.09/bin/../arm-none-eabi/lib//libc.a(lib_a-fiprintf.o)
 .bss           0x10409948        0x0 /home/leon/riotboard/arm-2012.09/bin/../arm-none-eabi/lib//libc.a(lib_a-fputc.o)
 .bss           0x10409948        0x0 /home/leon/riotboard/arm-2012.09/bin/../arm-none-eabi/lib//libc.a(lib_a-freer.o)
 .bss           0x10409948        0x0 /home/leon/riotboard/arm-2012.09/bin/../arm-none-eabi/lib//libc.a(lib_a-fwalk.o)
 .bss           0x10409948        0x0 /home/leon/riotboard/arm-2012.09/bin/../arm-none-eabi/lib//libc.a(lib_a-impure.o)
 .bss           0x10409948        0x0 /home/leon/riotboard/arm-2012.09/bin/../arm-none-eabi/lib//libc.a(lib_a-init.o)
 .bss           0x10409948        0x0 /home/leon/riotboard/arm-2012.09/bin/../arm-none-eabi/lib//libc.a(lib_a-malloc.o)
 .bss           0x10409948       0x34 /home/leon/riotboard/arm-2012.09/bin/../arm-none-eabi/lib//libc.a(lib_a-mallocr.o)
                0x10409948                __malloc_top_pad
                0x1040994c                __malloc_current_mallinfo
                0x10409974                __malloc_max_sbrked_mem
                0x10409978                __malloc_max_total_mem
 .bss           0x1040997c        0x0 /home/leon/riotboard/arm-2012.09/bin/../arm-none-eabi/lib//libc.a(lib_a-memcmp.o)
 .bss           0x1040997c        0x0 /home/leon/riotboard/arm-2012.09/bin/../arm-none-eabi/lib//libc.a(lib_a-memcpy.o)
 .bss           0x1040997c        0x0 /home/leon/riotboard/arm-2012.09/bin/../arm-none-eabi/lib//libc.a(lib_a-memset.o)
 .bss           0x1040997c        0x0 /home/leon/riotboard/arm-2012.09/bin/../arm-none-eabi/lib//libc.a(lib_a-mlock.o)
 .bss           0x1040997c        0x0 /home/leon/riotboard/arm-2012.09/bin/../arm-none-eabi/lib//libc.a(lib_a-printf.o)
 .bss           0x1040997c        0x0 /home/leon/riotboard/arm-2012.09/bin/../arm-none-eabi/lib//libc.a(lib_a-putc.o)
 .bss           0x1040997c        0x0 /home/leon/riotboard/arm-2012.09/bin/../arm-none-eabi/lib//libc.a(lib_a-rand.o)
 .bss           0x1040997c        0x0 /home/leon/riotboard/arm-2012.09/bin/../arm-none-eabi/lib//libc.a(lib_a-realloc.o)
 .bss           0x1040997c        0x0 /home/leon/riotboard/arm-2012.09/bin/../arm-none-eabi/lib//libc.a(lib_a-reallocr.o)
 .bss           0x1040997c        0x0 /home/leon/riotboard/arm-2012.09/bin/../arm-none-eabi/lib//libc.a(lib_a-rget.o)
 .bss           0x1040997c        0x0 /home/leon/riotboard/arm-2012.09/bin/../arm-none-eabi/lib//libc.a(lib_a-sbrkr.o)
 .bss           0x1040997c        0x0 /home/leon/riotboard/arm-2012.09/bin/../arm-none-eabi/lib//libc.a(lib_a-signal.o)
 .bss           0x1040997c        0x0 /home/leon/riotboard/arm-2012.09/bin/../arm-none-eabi/lib//libc.a(lib_a-signalr.o)
 .bss           0x1040997c        0x0 /home/leon/riotboard/arm-2012.09/bin/../arm-none-eabi/lib//libc.a(lib_a-stdio.o)
 .bss           0x1040997c        0x0 /home/leon/riotboard/arm-2012.09/bin/../arm-none-eabi/lib//libc.a(lib_a-strchr.o)
 .bss           0x1040997c        0x0 /home/leon/riotboard/arm-2012.09/bin/../arm-none-eabi/lib//libc.a(lib_a-strcmp.o)
 .bss           0x1040997c        0x0 /home/leon/riotboard/arm-2012.09/bin/../arm-none-eabi/lib//libc.a(lib_a-strlen.o)
 .bss           0x1040997c        0x0 /home/leon/riotboard/arm-2012.09/bin/../arm-none-eabi/lib//libc.a(lib_a-strncmp.o)
 .bss           0x1040997c        0x0 /home/leon/riotboard/arm-2012.09/bin/../arm-none-eabi/lib//libc.a(lib_a-vfiprintf.o)
 .bss           0x1040997c        0x0 /home/leon/riotboard/arm-2012.09/bin/../arm-none-eabi/lib//libc.a(lib_a-vfprintf.o)
 .bss           0x1040997c        0x0 /home/leon/riotboard/arm-2012.09/bin/../arm-none-eabi/lib//libc.a(lib_a-vprintf.o)
 .bss           0x1040997c        0x0 /home/leon/riotboard/arm-2012.09/bin/../arm-none-eabi/lib//libc.a(lib_a-wbuf.o)
 .bss           0x1040997c        0x0 /home/leon/riotboard/arm-2012.09/bin/../arm-none-eabi/lib//libc.a(lib_a-writer.o)
 .bss           0x1040997c        0x0 /home/leon/riotboard/arm-2012.09/bin/../arm-none-eabi/lib//libc.a(lib_a-wsetup.o)
 .bss           0x1040997c        0x0 /home/leon/riotboard/arm-2012.09/bin/../arm-none-eabi/lib//libc.a(lib_a-closer.o)
 .bss           0x1040997c        0x0 /home/leon/riotboard/arm-2012.09/bin/../arm-none-eabi/lib//libc.a(lib_a-dtoa.o)
 .bss           0x1040997c        0x0 /home/leon/riotboard/arm-2012.09/bin/../arm-none-eabi/lib//libc.a(lib_a-fclose.o)
 .bss           0x1040997c        0x0 /home/leon/riotboard/arm-2012.09/bin/../arm-none-eabi/lib//libc.a(lib_a-fputwc.o)
 .bss           0x1040997c        0x0 /home/leon/riotboard/arm-2012.09/bin/../arm-none-eabi/lib//libc.a(lib_a-fvwrite.o)
 .bss           0x1040997c        0xc /home/leon/riotboard/arm-2012.09/bin/../arm-none-eabi/lib//libc.a(lib_a-locale.o)
                0x1040997c                _PathLocale
                0x10409980                __mlocale_changed
                0x10409984                __nlocale_changed
 .bss           0x10409988        0x0 /home/leon/riotboard/arm-2012.09/bin/../arm-none-eabi/lib//libc.a(lib_a-lseekr.o)
 .bss           0x10409988        0x0 /home/leon/riotboard/arm-2012.09/bin/../arm-none-eabi/lib//libc.a(lib_a-makebuf.o)
 .bss           0x10409988        0x0 /home/leon/riotboard/arm-2012.09/bin/../arm-none-eabi/lib//libc.a(lib_a-memchr.o)
 .bss           0x10409988        0x0 /home/leon/riotboard/arm-2012.09/bin/../arm-none-eabi/lib//libc.a(lib_a-memmove.o)
 .bss           0x10409988        0x0 /home/leon/riotboard/arm-2012.09/bin/../arm-none-eabi/lib//libc.a(lib_a-mprec.o)
 .bss           0x10409988        0x0 /home/leon/riotboard/arm-2012.09/bin/../arm-none-eabi/lib//libc.a(lib_a-readr.o)
 .bss           0x10409988        0x0 /home/leon/riotboard/arm-2012.09/bin/../arm-none-eabi/lib//libc.a(lib_a-reent.o)
 .bss           0x10409988        0x0 /home/leon/riotboard/arm-2012.09/bin/../arm-none-eabi/lib//libc.a(lib_a-refill.o)
 .bss           0x10409988        0x0 /home/leon/riotboard/arm-2012.09/bin/../arm-none-eabi/lib//libc.a(lib_a-s_fpclassify.o)
 .bss           0x10409988        0x0 /home/leon/riotboard/arm-2012.09/bin/../arm-none-eabi/lib//libc.a(lib_a-wcrtomb.o)
 .bss           0x10409988        0x0 /home/leon/riotboard/arm-2012.09/bin/../arm-none-eabi/lib//libc.a(lib_a-wctomb_r.o)
 .bss           0x10409988        0x0 /home/leon/riotboard/arm-2012.09/bin/../arm-none-eabi/lib//libc.a(lib_a-callocr.o)
 .bss           0x10409988        0x0 /home/leon/riotboard/arm-2012.09/bin/../arm-none-eabi/lib//libc.a(lib_a-fstatr.o)
 .bss           0x10409988        0x0 /home/leon/riotboard/arm-2012.09/bin/../arm-none-eabi/lib//libc.a(lib_a-isattyr.o)
 .bss           0x10409988        0x0 /home/leon/riotboard/arm-2012.09/bin/../lib/gcc/arm-none-eabi/4.7.2//libgcc.a(_udivsi3.o)
 .bss           0x10409988        0x0 /home/leon/riotboard/arm-2012.09/bin/../lib/gcc/arm-none-eabi/4.7.2//libgcc.a(_divsi3.o)
 .bss           0x10409988        0x0 /home/leon/riotboard/arm-2012.09/bin/../lib/gcc/arm-none-eabi/4.7.2//libgcc.a(_dvmd_tls.o)
 .bss           0x10409988        0x0 /home/leon/riotboard/arm-2012.09/bin/../lib/gcc/arm-none-eabi/4.7.2//libgcc.a(_arm_addsubdf3.o)
 .bss           0x10409988        0x0 /home/leon/riotboard/arm-2012.09/bin/../lib/gcc/arm-none-eabi/4.7.2//libgcc.a(_arm_muldivdf3.o)
 .bss           0x10409988        0x0 /home/leon/riotboard/arm-2012.09/bin/../lib/gcc/arm-none-eabi/4.7.2//libgcc.a(_arm_cmpdf2.o)
 .bss           0x10409988        0x0 /home/leon/riotboard/arm-2012.09/bin/../lib/gcc/arm-none-eabi/4.7.2//libgcc.a(_arm_fixdfsi.o)
 .bss           0x10409988        0x0 /home/leon/riotboard/arm-2012.09/bin/../lib/gcc/arm-none-eabi/4.7.2//libgcc.a(_aeabi_uldivmod.o)
 .bss           0x10409988        0x0 /home/leon/riotboard/arm-2012.09/bin/../lib/gcc/arm-none-eabi/4.7.2//libgcc.a(bpabi.o)
 .bss           0x10409988        0x0 /home/leon/riotboard/arm-2012.09/bin/../lib/gcc/arm-none-eabi/4.7.2//libgcc.a(_divdi3.o)
 .bss           0x10409988        0x0 /home/leon/riotboard/arm-2012.09/bin/../lib/gcc/arm-none-eabi/4.7.2//libgcc.a(_udivdi3.o)
 .bss           0x10409988        0x0 /home/leon/riotboard/arm-2012.09/bin/../lib/gcc/arm-none-eabi/4.7.2//libgcc.a(_clzsi2.o)
 .bss           0x10409988        0x4 /home/leon/git/swp-report/iMX6_Platform_SDK/output/mx6dq/lib/libsdk.a(max7310.o)
 .bss           0x1040998c        0xc /home/leon/git/swp-report/iMX6_Platform_SDK/output/mx6dq/lib/libsdk.a(runtime_support.o)
                0x1040998c                __env
 .bss           0x10409998        0x0 /home/leon/git/swp-report/iMX6_Platform_SDK/output/mx6dq/lib/libsdk.a(gpio.o)
 .bss           0x10409998        0x0 /home/leon/git/swp-report/iMX6_Platform_SDK/output/mx6dq/lib/libsdk.a(imx6dq_gpio_map.o)
 .bss           0x10409998        0x0 /home/leon/git/swp-report/iMX6_Platform_SDK/output/mx6dq/lib/libsdk.a(imx_i2c.o)
 .bss           0x10409998        0x0 /home/leon/git/swp-report/iMX6_Platform_SDK/output/mx6dq/lib/libboard_sabre_ai_rev_c.a(board_network.o)
 .bss           0x10409998        0x0 /home/leon/git/swp-report/iMX6_Platform_SDK/output/mx6dq/lib/libboard_sabre_ai_rev_c.a(i2c_iomux_config.o)
 *(COMMON)
 COMMON         0x10409998        0x4 /home/leon/riotboard/arm-2012.09/bin/../arm-none-eabi/lib//libc.a(lib_a-reent.o)
                0x10409998                errno
 *(.bss)
                0x1040999c                __bss_end__ = .

.stacks         0x1040999c     0xc000
                0x1040999c                __stacks_start = .
                0x1041599c                . = (. + 0xc000)
 *fill*         0x1040999c     0xc000 
                0x1041599c                __stacks_end = .
                0x1041599c                top_of_stacks = .
                0x104159a0                free_memory_start = ALIGN (0x20)
                0x1841599c                . = (. + 0x8000000)
                0x1841599c                free_memory_end = .
                0x1841599c                _end = .
START GROUP
LOAD /home/leon/git/swp-report/iMX6_Platform_SDK/output/mx6dq/httpd/sabre_ai_rev_c/obj/apps/common/ivt.o
LOAD /home/leon/git/swp-report/iMX6_Platform_SDK/output/mx6dq/httpd/sabre_ai_rev_c/obj/apps/common/platform_init.o
LOAD /home/leon/git/swp-report/iMX6_Platform_SDK/output/mx6dq/httpd/sabre_ai_rev_c/obj/apps/httpd/src/httpd_main.o
LOAD /home/leon/git/swp-report/iMX6_Platform_SDK/output/mx6dq/httpd/sabre_ai_rev_c/obj/lwip/contrib/apps/httpserver_raw/fs.o
LOAD /home/leon/git/swp-report/iMX6_Platform_SDK/output/mx6dq/httpd/sabre_ai_rev_c/obj/lwip/contrib/apps/httpserver_raw/httpd.o
LOAD /home/leon/git/swp-report/iMX6_Platform_SDK/output/mx6dq/lib/libsdk.a
LOAD /home/leon/git/swp-report/iMX6_Platform_SDK/output/mx6dq/lib/libboard_sabre_ai_rev_c.a
LOAD /home/leon/git/swp-report/iMX6_Platform_SDK/output/mx6dq/lib/liblwip.a
LOAD /home/leon/riotboard/arm-2012.09/bin/../arm-none-eabi/lib//libm.a
LOAD /home/leon/riotboard/arm-2012.09/bin/../arm-none-eabi/lib//libstdc++.a
LOAD /home/leon/riotboard/arm-2012.09/bin/../arm-none-eabi/lib//libc.a
LOAD /home/leon/riotboard/arm-2012.09/bin/../lib/gcc/arm-none-eabi/4.7.2//libgcc.a
END GROUP
OUTPUT(/home/leon/git/swp-report/iMX6_Platform_SDK/output/mx6dq/httpd/sabre_ai_rev_c/httpd.elf elf32-littlearm)

.ARM.attributes
                0x00000000       0x3b
 .ARM.attributes
                0x00000000       0x30 /home/leon/riotboard/arm-2012.09/bin/../lib/gcc/arm-none-eabi/4.7.2//crtbegin.o
 .ARM.attributes
                0x00000030       0x16 /home/leon/riotboard/arm-2012.09/bin/../lib/gcc/arm-none-eabi/4.7.2//crti.o
 .ARM.attributes
                0x00000046       0x30 /home/leon/riotboard/arm-2012.09/bin/../lib/gcc/arm-none-eabi/4.7.2//crtend.o
 .ARM.attributes
                0x00000076       0x18 /home/leon/riotboard/arm-2012.09/bin/../lib/gcc/arm-none-eabi/4.7.2//crtn.o
 .ARM.attributes
                0x0000008e       0x39 /home/leon/git/swp-report/iMX6_Platform_SDK/output/mx6dq/httpd/sabre_ai_rev_c/obj/apps/common/ivt.o
 .ARM.attributes
                0x000000c7       0x39 /home/leon/git/swp-report/iMX6_Platform_SDK/output/mx6dq/httpd/sabre_ai_rev_c/obj/apps/common/platform_init.o
 .ARM.attributes
                0x00000100       0x39 /home/leon/git/swp-report/iMX6_Platform_SDK/output/mx6dq/httpd/sabre_ai_rev_c/obj/apps/httpd/src/httpd_main.o
 .ARM.attributes
                0x00000139       0x39 /home/leon/git/swp-report/iMX6_Platform_SDK/output/mx6dq/httpd/sabre_ai_rev_c/obj/lwip/contrib/apps/httpserver_raw/fs.o
 .ARM.attributes
                0x00000172       0x39 /home/leon/git/swp-report/iMX6_Platform_SDK/output/mx6dq/httpd/sabre_ai_rev_c/obj/lwip/contrib/apps/httpserver_raw/httpd.o
 .ARM.attributes
                0x000001ab       0x39 /home/leon/git/swp-report/iMX6_Platform_SDK/output/mx6dq/lib/libsdk.a(ccm_pll.o)
 .ARM.attributes
                0x000001e4       0x16 /home/leon/git/swp-report/iMX6_Platform_SDK/output/mx6dq/lib/libsdk.a(cortexA9.o)
 .ARM.attributes
                0x000001fa       0x39 /home/leon/git/swp-report/iMX6_Platform_SDK/output/mx6dq/lib/libsdk.a(gic.o)
 .ARM.attributes
                0x00000233       0x39 /home/leon/git/swp-report/iMX6_Platform_SDK/output/mx6dq/lib/libsdk.a(mmu.o)
 .ARM.attributes
                0x0000026c       0x16 /home/leon/git/swp-report/iMX6_Platform_SDK/output/mx6dq/lib/libsdk.a(startup.o)
 .ARM.attributes
                0x00000282       0x14 /home/leon/git/swp-report/iMX6_Platform_SDK/output/mx6dq/lib/libsdk.a(vectors.o)
 .ARM.attributes
                0x00000296       0x39 /home/leon/git/swp-report/iMX6_Platform_SDK/output/mx6dq/lib/libsdk.a(system_util.o)
 .ARM.attributes
                0x000002cf       0x39 /home/leon/git/swp-report/iMX6_Platform_SDK/output/mx6dq/lib/libsdk.a(text_color.o)
 .ARM.attributes
                0x00000308       0x39 /home/leon/git/swp-report/iMX6_Platform_SDK/output/mx6dq/lib/libsdk.a(enet_drv.o)
 .ARM.attributes
                0x00000341       0x39 /home/leon/git/swp-report/iMX6_Platform_SDK/output/mx6dq/lib/libsdk.a(timer.o)
 .ARM.attributes
                0x0000037a       0x39 /home/leon/git/swp-report/iMX6_Platform_SDK/output/mx6dq/lib/libsdk.a(imx_uart.o)
 .ARM.attributes
                0x000003b3       0x14 /home/leon/git/swp-report/iMX6_Platform_SDK/output/mx6dq/lib/libsdk.a(arm_abort.o)
 .ARM.attributes
                0x000003c7       0x39 /home/leon/git/swp-report/iMX6_Platform_SDK/output/mx6dq/lib/libsdk.a(interrupt.o)
 .ARM.attributes
                0x00000400       0x39 /home/leon/git/swp-report/iMX6_Platform_SDK/output/mx6dq/lib/libsdk.a(epit.o)
 .ARM.attributes
                0x00000439       0x39 /home/leon/git/swp-report/iMX6_Platform_SDK/output/mx6dq/lib/libsdk.a(abort_handler.o)
 .ARM.attributes
                0x00000472       0x39 /home/leon/git/swp-report/iMX6_Platform_SDK/output/mx6dq/lib/libboard_sabre_ai_rev_c.a(board_io_expanders.o)
 .ARM.attributes
                0x000004ab       0x39 /home/leon/git/swp-report/iMX6_Platform_SDK/output/mx6dq/lib/libboard_sabre_ai_rev_c.a(hardware_modules.o)
 .ARM.attributes
                0x000004e4       0x39 /home/leon/git/swp-report/iMX6_Platform_SDK/output/mx6dq/lib/libboard_sabre_ai_rev_c.a(dcd.o)
 .ARM.attributes
                0x0000051d       0x39 /home/leon/git/swp-report/iMX6_Platform_SDK/output/mx6dq/lib/libboard_sabre_ai_rev_c.a(i2c3_iomux_config.o)
 .ARM.attributes
                0x00000556       0x39 /home/leon/git/swp-report/iMX6_Platform_SDK/output/mx6dq/lib/libboard_sabre_ai_rev_c.a(uart_iomux_config.o)
 .ARM.attributes
                0x0000058f       0x39 /home/leon/git/swp-report/iMX6_Platform_SDK/output/mx6dq/lib/libboard_sabre_ai_rev_c.a(iomux_config.o)
 .ARM.attributes
                0x000005c8       0x39 /home/leon/git/swp-report/iMX6_Platform_SDK/output/mx6dq/lib/libboard_sabre_ai_rev_c.a(ipu1_iomux_config.o)
 .ARM.attributes
                0x00000601       0x39 /home/leon/git/swp-report/iMX6_Platform_SDK/output/mx6dq/lib/libboard_sabre_ai_rev_c.a(mlb_iomux_config.o)
 .ARM.attributes
                0x0000063a       0x39 /home/leon/git/swp-report/iMX6_Platform_SDK/output/mx6dq/lib/libboard_sabre_ai_rev_c.a(mmdc_iomux_config.o)
 .ARM.attributes
                0x00000673       0x39 /home/leon/git/swp-report/iMX6_Platform_SDK/output/mx6dq/lib/libboard_sabre_ai_rev_c.a(pwm3_iomux_config.o)
 .ARM.attributes
                0x000006ac       0x39 /home/leon/git/swp-report/iMX6_Platform_SDK/output/mx6dq/lib/libboard_sabre_ai_rev_c.a(pwm4_iomux_config.o)
 .ARM.attributes
                0x000006e5       0x39 /home/leon/git/swp-report/iMX6_Platform_SDK/output/mx6dq/lib/libboard_sabre_ai_rev_c.a(sjc_iomux_config.o)
 .ARM.attributes
                0x0000071e       0x39 /home/leon/git/swp-report/iMX6_Platform_SDK/output/mx6dq/lib/libboard_sabre_ai_rev_c.a(spdif_iomux_config.o)
 .ARM.attributes
                0x00000757       0x39 /home/leon/git/swp-report/iMX6_Platform_SDK/output/mx6dq/lib/libboard_sabre_ai_rev_c.a(uart2_iomux_config.o)
 .ARM.attributes
                0x00000790       0x39 /home/leon/git/swp-report/iMX6_Platform_SDK/output/mx6dq/lib/libboard_sabre_ai_rev_c.a(uart3_iomux_config.o)
 .ARM.attributes
                0x000007c9       0x39 /home/leon/git/swp-report/iMX6_Platform_SDK/output/mx6dq/lib/libboard_sabre_ai_rev_c.a(uart4_iomux_config.o)
 .ARM.attributes
                0x00000802       0x39 /home/leon/git/swp-report/iMX6_Platform_SDK/output/mx6dq/lib/libboard_sabre_ai_rev_c.a(usdhc1_iomux_config.o)
 .ARM.attributes
                0x0000083b       0x39 /home/leon/git/swp-report/iMX6_Platform_SDK/output/mx6dq/lib/libboard_sabre_ai_rev_c.a(usdhc3_iomux_config.o)
 .ARM.attributes
                0x00000874       0x39 /home/leon/git/swp-report/iMX6_Platform_SDK/output/mx6dq/lib/libboard_sabre_ai_rev_c.a(wdog1_iomux_config.o)
 .ARM.attributes
                0x000008ad       0x39 /home/leon/git/swp-report/iMX6_Platform_SDK/output/mx6dq/lib/libboard_sabre_ai_rev_c.a(audmux_iomux_config.o)
 .ARM.attributes
                0x000008e6       0x39 /home/leon/git/swp-report/iMX6_Platform_SDK/output/mx6dq/lib/libboard_sabre_ai_rev_c.a(ccm_iomux_config.o)
 .ARM.attributes
                0x0000091f       0x39 /home/leon/git/swp-report/iMX6_Platform_SDK/output/mx6dq/lib/libboard_sabre_ai_rev_c.a(ecspi1_iomux_config.o)
 .ARM.attributes
                0x00000958       0x39 /home/leon/git/swp-report/iMX6_Platform_SDK/output/mx6dq/lib/libboard_sabre_ai_rev_c.a(eim_iomux_config.o)
 .ARM.attributes
                0x00000991       0x39 /home/leon/git/swp-report/iMX6_Platform_SDK/output/mx6dq/lib/libboard_sabre_ai_rev_c.a(enet_iomux_config.o)
 .ARM.attributes
                0x000009ca       0x39 /home/leon/git/swp-report/iMX6_Platform_SDK/output/mx6dq/lib/libboard_sabre_ai_rev_c.a(esai_iomux_config.o)
 .ARM.attributes
                0x00000a03       0x39 /home/leon/git/swp-report/iMX6_Platform_SDK/output/mx6dq/lib/libboard_sabre_ai_rev_c.a(flexcan1_iomux_config.o)
 .ARM.attributes
                0x00000a3c       0x39 /home/leon/git/swp-report/iMX6_Platform_SDK/output/mx6dq/lib/libboard_sabre_ai_rev_c.a(flexcan2_iomux_config.o)
 .ARM.attributes
                0x00000a75       0x39 /home/leon/git/swp-report/iMX6_Platform_SDK/output/mx6dq/lib/libboard_sabre_ai_rev_c.a(gpio1_iomux_config.o)
 .ARM.attributes
                0x00000aae       0x39 /home/leon/git/swp-report/iMX6_Platform_SDK/output/mx6dq/lib/libboard_sabre_ai_rev_c.a(gpio2_iomux_config.o)
 .ARM.attributes
                0x00000ae7       0x39 /home/leon/git/swp-report/iMX6_Platform_SDK/output/mx6dq/lib/libboard_sabre_ai_rev_c.a(gpio4_iomux_config.o)
 .ARM.attributes
                0x00000b20       0x39 /home/leon/git/swp-report/iMX6_Platform_SDK/output/mx6dq/lib/libboard_sabre_ai_rev_c.a(gpio5_iomux_config.o)
 .ARM.attributes
                0x00000b59       0x39 /home/leon/git/swp-report/iMX6_Platform_SDK/output/mx6dq/lib/libboard_sabre_ai_rev_c.a(gpio6_iomux_config.o)
 .ARM.attributes
                0x00000b92       0x39 /home/leon/git/swp-report/iMX6_Platform_SDK/output/mx6dq/lib/libboard_sabre_ai_rev_c.a(gpmi_iomux_config.o)
 .ARM.attributes
                0x00000bcb       0x39 /home/leon/git/swp-report/iMX6_Platform_SDK/output/mx6dq/lib/libboard_sabre_ai_rev_c.a(i2c2_iomux_config.o)
 .ARM.attributes
                0x00000c04       0x39 /home/leon/git/swp-report/iMX6_Platform_SDK/output/mx6dq/lib/liblwip.a(dhcp.o)
 .ARM.attributes
                0x00000c3d       0x39 /home/leon/git/swp-report/iMX6_Platform_SDK/output/mx6dq/lib/liblwip.a(dns.o)
 .ARM.attributes
                0x00000c76       0x39 /home/leon/git/swp-report/iMX6_Platform_SDK/output/mx6dq/lib/liblwip.a(init.o)
 .ARM.attributes
                0x00000caf       0x39 /home/leon/git/swp-report/iMX6_Platform_SDK/output/mx6dq/lib/liblwip.a(autoip.o)
 .ARM.attributes
                0x00000ce8       0x39 /home/leon/git/swp-report/iMX6_Platform_SDK/output/mx6dq/lib/liblwip.a(igmp.o)
 .ARM.attributes
                0x00000d21       0x39 /home/leon/git/swp-report/iMX6_Platform_SDK/output/mx6dq/lib/liblwip.a(ip4.o)
 .ARM.attributes
                0x00000d5a       0x39 /home/leon/git/swp-report/iMX6_Platform_SDK/output/mx6dq/lib/liblwip.a(ip4_addr.o)
 .ARM.attributes
                0x00000d93       0x39 /home/leon/git/swp-report/iMX6_Platform_SDK/output/mx6dq/lib/liblwip.a(memp.o)
 .ARM.attributes
                0x00000dcc       0x39 /home/leon/git/swp-report/iMX6_Platform_SDK/output/mx6dq/lib/liblwip.a(netif.o)
 .ARM.attributes
                0x00000e05       0x39 /home/leon/git/swp-report/iMX6_Platform_SDK/output/mx6dq/lib/liblwip.a(pbuf.o)
 .ARM.attributes
                0x00000e3e       0x39 /home/leon/git/swp-report/iMX6_Platform_SDK/output/mx6dq/lib/liblwip.a(raw.o)
 .ARM.attributes
                0x00000e77       0x39 /home/leon/git/swp-report/iMX6_Platform_SDK/output/mx6dq/lib/liblwip.a(mib2.o)
 .ARM.attributes
                0x00000eb0       0x39 /home/leon/git/swp-report/iMX6_Platform_SDK/output/mx6dq/lib/liblwip.a(mib_structs.o)
 .ARM.attributes
                0x00000ee9       0x39 /home/leon/git/swp-report/iMX6_Platform_SDK/output/mx6dq/lib/liblwip.a(msg_in.o)
 .ARM.attributes
                0x00000f22       0x39 /home/leon/git/swp-report/iMX6_Platform_SDK/output/mx6dq/lib/liblwip.a(msg_out.o)
 .ARM.attributes
                0x00000f5b       0x39 /home/leon/git/swp-report/iMX6_Platform_SDK/output/mx6dq/lib/liblwip.a(stats.o)
 .ARM.attributes
                0x00000f94       0x39 /home/leon/git/swp-report/iMX6_Platform_SDK/output/mx6dq/lib/liblwip.a(tcp.o)
 .ARM.attributes
                0x00000fcd       0x39 /home/leon/git/swp-report/iMX6_Platform_SDK/output/mx6dq/lib/liblwip.a(tcp_in.o)
 .ARM.attributes
                0x00001006       0x39 /home/leon/git/swp-report/iMX6_Platform_SDK/output/mx6dq/lib/liblwip.a(tcp_out.o)
 .ARM.attributes
                0x0000103f       0x39 /home/leon/git/swp-report/iMX6_Platform_SDK/output/mx6dq/lib/liblwip.a(timers.o)
 .ARM.attributes
                0x00001078       0x39 /home/leon/git/swp-report/iMX6_Platform_SDK/output/mx6dq/lib/liblwip.a(udp.o)
 .ARM.attributes
                0x000010b1       0x39 /home/leon/git/swp-report/iMX6_Platform_SDK/output/mx6dq/lib/liblwip.a(etharp.o)
 .ARM.attributes
                0x000010ea       0x39 /home/leon/git/swp-report/iMX6_Platform_SDK/output/mx6dq/lib/liblwip.a(mx6_ethernetif.o)
 .ARM.attributes
                0x00001123       0x39 /home/leon/git/swp-report/iMX6_Platform_SDK/output/mx6dq/lib/liblwip.a(mx6_lwip.o)
 .ARM.attributes
                0x0000115c       0x39 /home/leon/git/swp-report/iMX6_Platform_SDK/output/mx6dq/lib/liblwip.a(sys_arch.o)
 .ARM.attributes
                0x00001195       0x39 /home/leon/git/swp-report/iMX6_Platform_SDK/output/mx6dq/lib/liblwip.a(def.o)
 .ARM.attributes
                0x000011ce       0x39 /home/leon/git/swp-report/iMX6_Platform_SDK/output/mx6dq/lib/liblwip.a(inet_chksum.o)
 .ARM.attributes
                0x00001207       0x39 /home/leon/git/swp-report/iMX6_Platform_SDK/output/mx6dq/lib/liblwip.a(icmp.o)
 .ARM.attributes
                0x00001240       0x39 /home/leon/git/swp-report/iMX6_Platform_SDK/output/mx6dq/lib/liblwip.a(asn1_dec.o)
 .ARM.attributes
                0x00001279       0x39 /home/leon/git/swp-report/iMX6_Platform_SDK/output/mx6dq/lib/liblwip.a(asn1_enc.o)
 .ARM.attributes
                0x000012b2       0x30 /home/leon/riotboard/arm-2012.09/bin/../arm-none-eabi/lib//libc.a(lib_a-abort.o)
 .ARM.attributes
                0x000012e2       0x30 /home/leon/riotboard/arm-2012.09/bin/../arm-none-eabi/lib//libc.a(lib_a-assert.o)
 .ARM.attributes
                0x00001312       0x30 /home/leon/riotboard/arm-2012.09/bin/../arm-none-eabi/lib//libc.a(lib_a-bzero.o)
 .ARM.attributes
                0x00001342       0x30 /home/leon/riotboard/arm-2012.09/bin/../arm-none-eabi/lib//libc.a(lib_a-fflush.o)
 .ARM.attributes
                0x00001372       0x30 /home/leon/riotboard/arm-2012.09/bin/../arm-none-eabi/lib//libc.a(lib_a-findfp.o)
 .ARM.attributes
                0x000013a2       0x30 /home/leon/riotboard/arm-2012.09/bin/../arm-none-eabi/lib//libc.a(lib_a-fiprintf.o)
 .ARM.attributes
                0x000013d2       0x30 /home/leon/riotboard/arm-2012.09/bin/../arm-none-eabi/lib//libc.a(lib_a-fputc.o)
 .ARM.attributes
                0x00001402       0x30 /home/leon/riotboard/arm-2012.09/bin/../arm-none-eabi/lib//libc.a(lib_a-freer.o)
 .ARM.attributes
                0x00001432       0x30 /home/leon/riotboard/arm-2012.09/bin/../arm-none-eabi/lib//libc.a(lib_a-fwalk.o)
 .ARM.attributes
                0x00001462       0x30 /home/leon/riotboard/arm-2012.09/bin/../arm-none-eabi/lib//libc.a(lib_a-impure.o)
 .ARM.attributes
                0x00001492       0x30 /home/leon/riotboard/arm-2012.09/bin/../arm-none-eabi/lib//libc.a(lib_a-init.o)
 .ARM.attributes
                0x000014c2       0x30 /home/leon/riotboard/arm-2012.09/bin/../arm-none-eabi/lib//libc.a(lib_a-malloc.o)
 .ARM.attributes
                0x000014f2       0x30 /home/leon/riotboard/arm-2012.09/bin/../arm-none-eabi/lib//libc.a(lib_a-mallocr.o)
 .ARM.attributes
                0x00001522       0x30 /home/leon/riotboard/arm-2012.09/bin/../arm-none-eabi/lib//libc.a(lib_a-memcmp.o)
 .ARM.attributes
                0x00001552       0x30 /home/leon/riotboard/arm-2012.09/bin/../arm-none-eabi/lib//libc.a(lib_a-memcpy.o)
 .ARM.attributes
                0x00001582       0x30 /home/leon/riotboard/arm-2012.09/bin/../arm-none-eabi/lib//libc.a(lib_a-memset.o)
 .ARM.attributes
                0x000015b2       0x30 /home/leon/riotboard/arm-2012.09/bin/../arm-none-eabi/lib//libc.a(lib_a-mlock.o)
 .ARM.attributes
                0x000015e2       0x30 /home/leon/riotboard/arm-2012.09/bin/../arm-none-eabi/lib//libc.a(lib_a-printf.o)
 .ARM.attributes
                0x00001612       0x30 /home/leon/riotboard/arm-2012.09/bin/../arm-none-eabi/lib//libc.a(lib_a-putc.o)
 .ARM.attributes
                0x00001642       0x30 /home/leon/riotboard/arm-2012.09/bin/../arm-none-eabi/lib//libc.a(lib_a-rand.o)
 .ARM.attributes
                0x00001672       0x30 /home/leon/riotboard/arm-2012.09/bin/../arm-none-eabi/lib//libc.a(lib_a-realloc.o)
 .ARM.attributes
                0x000016a2       0x30 /home/leon/riotboard/arm-2012.09/bin/../arm-none-eabi/lib//libc.a(lib_a-reallocr.o)
 .ARM.attributes
                0x000016d2       0x30 /home/leon/riotboard/arm-2012.09/bin/../arm-none-eabi/lib//libc.a(lib_a-rget.o)
 .ARM.attributes
                0x00001702       0x30 /home/leon/riotboard/arm-2012.09/bin/../arm-none-eabi/lib//libc.a(lib_a-sbrkr.o)
 .ARM.attributes
                0x00001732       0x30 /home/leon/riotboard/arm-2012.09/bin/../arm-none-eabi/lib//libc.a(lib_a-signal.o)
 .ARM.attributes
                0x00001762       0x30 /home/leon/riotboard/arm-2012.09/bin/../arm-none-eabi/lib//libc.a(lib_a-signalr.o)
 .ARM.attributes
                0x00001792       0x30 /home/leon/riotboard/arm-2012.09/bin/../arm-none-eabi/lib//libc.a(lib_a-stdio.o)
 .ARM.attributes
                0x000017c2       0x30 /home/leon/riotboard/arm-2012.09/bin/../arm-none-eabi/lib//libc.a(lib_a-strchr.o)
 .ARM.attributes
                0x000017f2       0x30 /home/leon/riotboard/arm-2012.09/bin/../arm-none-eabi/lib//libc.a(lib_a-strcmp.o)
 .ARM.attributes
                0x00001822       0x30 /home/leon/riotboard/arm-2012.09/bin/../arm-none-eabi/lib//libc.a(lib_a-strlen.o)
 .ARM.attributes
                0x00001852       0x30 /home/leon/riotboard/arm-2012.09/bin/../arm-none-eabi/lib//libc.a(lib_a-strncmp.o)
 .ARM.attributes
                0x00001882       0x30 /home/leon/riotboard/arm-2012.09/bin/../arm-none-eabi/lib//libc.a(lib_a-vfiprintf.o)
 .ARM.attributes
                0x000018b2       0x30 /home/leon/riotboard/arm-2012.09/bin/../arm-none-eabi/lib//libc.a(lib_a-vfprintf.o)
 .ARM.attributes
                0x000018e2       0x30 /home/leon/riotboard/arm-2012.09/bin/../arm-none-eabi/lib//libc.a(lib_a-vprintf.o)
 .ARM.attributes
                0x00001912       0x30 /home/leon/riotboard/arm-2012.09/bin/../arm-none-eabi/lib//libc.a(lib_a-wbuf.o)
 .ARM.attributes
                0x00001942       0x30 /home/leon/riotboard/arm-2012.09/bin/../arm-none-eabi/lib//libc.a(lib_a-writer.o)
 .ARM.attributes
                0x00001972       0x30 /home/leon/riotboard/arm-2012.09/bin/../arm-none-eabi/lib//libc.a(lib_a-wsetup.o)
 .ARM.attributes
                0x000019a2       0x30 /home/leon/riotboard/arm-2012.09/bin/../arm-none-eabi/lib//libc.a(lib_a-closer.o)
 .ARM.attributes
                0x000019d2       0x30 /home/leon/riotboard/arm-2012.09/bin/../arm-none-eabi/lib//libc.a(lib_a-dtoa.o)
 .ARM.attributes
                0x00001a02       0x30 /home/leon/riotboard/arm-2012.09/bin/../arm-none-eabi/lib//libc.a(lib_a-fclose.o)
 .ARM.attributes
                0x00001a32       0x30 /home/leon/riotboard/arm-2012.09/bin/../arm-none-eabi/lib//libc.a(lib_a-fputwc.o)
 .ARM.attributes
                0x00001a62       0x30 /home/leon/riotboard/arm-2012.09/bin/../arm-none-eabi/lib//libc.a(lib_a-fvwrite.o)
 .ARM.attributes
                0x00001a92       0x30 /home/leon/riotboard/arm-2012.09/bin/../arm-none-eabi/lib//libc.a(lib_a-locale.o)
 .ARM.attributes
                0x00001ac2       0x30 /home/leon/riotboard/arm-2012.09/bin/../arm-none-eabi/lib//libc.a(lib_a-lseekr.o)
 .ARM.attributes
                0x00001af2       0x30 /home/leon/riotboard/arm-2012.09/bin/../arm-none-eabi/lib//libc.a(lib_a-makebuf.o)
 .ARM.attributes
                0x00001b22       0x30 /home/leon/riotboard/arm-2012.09/bin/../arm-none-eabi/lib//libc.a(lib_a-memchr.o)
 .ARM.attributes
                0x00001b52       0x30 /home/leon/riotboard/arm-2012.09/bin/../arm-none-eabi/lib//libc.a(lib_a-memmove.o)
 .ARM.attributes
                0x00001b82       0x30 /home/leon/riotboard/arm-2012.09/bin/../arm-none-eabi/lib//libc.a(lib_a-mprec.o)
 .ARM.attributes
                0x00001bb2       0x30 /home/leon/riotboard/arm-2012.09/bin/../arm-none-eabi/lib//libc.a(lib_a-readr.o)
 .ARM.attributes
                0x00001be2       0x30 /home/leon/riotboard/arm-2012.09/bin/../arm-none-eabi/lib//libc.a(lib_a-reent.o)
 .ARM.attributes
                0x00001c12       0x30 /home/leon/riotboard/arm-2012.09/bin/../arm-none-eabi/lib//libc.a(lib_a-refill.o)
 .ARM.attributes
                0x00001c42       0x30 /home/leon/riotboard/arm-2012.09/bin/../arm-none-eabi/lib//libc.a(lib_a-s_fpclassify.o)
 .ARM.attributes
                0x00001c72       0x30 /home/leon/riotboard/arm-2012.09/bin/../arm-none-eabi/lib//libc.a(lib_a-wcrtomb.o)
 .ARM.attributes
                0x00001ca2       0x30 /home/leon/riotboard/arm-2012.09/bin/../arm-none-eabi/lib//libc.a(lib_a-wctomb_r.o)
 .ARM.attributes
                0x00001cd2       0x30 /home/leon/riotboard/arm-2012.09/bin/../arm-none-eabi/lib//libc.a(lib_a-callocr.o)
 .ARM.attributes
                0x00001d02       0x30 /home/leon/riotboard/arm-2012.09/bin/../arm-none-eabi/lib//libc.a(lib_a-fstatr.o)
 .ARM.attributes
                0x00001d32       0x30 /home/leon/riotboard/arm-2012.09/bin/../arm-none-eabi/lib//libc.a(lib_a-isattyr.o)
 .ARM.attributes
                0x00001d62       0x18 /home/leon/riotboard/arm-2012.09/bin/../lib/gcc/arm-none-eabi/4.7.2//libgcc.a(_udivsi3.o)
 .ARM.attributes
                0x00001d7a       0x18 /home/leon/riotboard/arm-2012.09/bin/../lib/gcc/arm-none-eabi/4.7.2//libgcc.a(_divsi3.o)
 .ARM.attributes
                0x00001d92       0x18 /home/leon/riotboard/arm-2012.09/bin/../lib/gcc/arm-none-eabi/4.7.2//libgcc.a(_dvmd_tls.o)
 .ARM.attributes
                0x00001daa       0x18 /home/leon/riotboard/arm-2012.09/bin/../lib/gcc/arm-none-eabi/4.7.2//libgcc.a(_arm_addsubdf3.o)
 .ARM.attributes
                0x00001dc2       0x18 /home/leon/riotboard/arm-2012.09/bin/../lib/gcc/arm-none-eabi/4.7.2//libgcc.a(_arm_muldivdf3.o)
 .ARM.attributes
                0x00001dda       0x18 /home/leon/riotboard/arm-2012.09/bin/../lib/gcc/arm-none-eabi/4.7.2//libgcc.a(_arm_cmpdf2.o)
 .ARM.attributes
                0x00001df2       0x18 /home/leon/riotboard/arm-2012.09/bin/../lib/gcc/arm-none-eabi/4.7.2//libgcc.a(_arm_fixdfsi.o)
 .ARM.attributes
                0x00001e0a       0x18 /home/leon/riotboard/arm-2012.09/bin/../lib/gcc/arm-none-eabi/4.7.2//libgcc.a(_aeabi_uldivmod.o)
 .ARM.attributes
                0x00001e22       0x30 /home/leon/riotboard/arm-2012.09/bin/../lib/gcc/arm-none-eabi/4.7.2//libgcc.a(bpabi.o)
 .ARM.attributes
                0x00001e52       0x30 /home/leon/riotboard/arm-2012.09/bin/../lib/gcc/arm-none-eabi/4.7.2//libgcc.a(_divdi3.o)
 .ARM.attributes
                0x00001e82       0x30 /home/leon/riotboard/arm-2012.09/bin/../lib/gcc/arm-none-eabi/4.7.2//libgcc.a(_udivdi3.o)
 .ARM.attributes
                0x00001eb2       0x18 /home/leon/riotboard/arm-2012.09/bin/../lib/gcc/arm-none-eabi/4.7.2//libgcc.a(_clzsi2.o)
 .ARM.attributes
                0x00001eca       0x39 /home/leon/git/swp-report/iMX6_Platform_SDK/output/mx6dq/lib/libsdk.a(max7310.o)
 .ARM.attributes
                0x00001f03       0x39 /home/leon/git/swp-report/iMX6_Platform_SDK/output/mx6dq/lib/libsdk.a(runtime_support.o)
 .ARM.attributes
                0x00001f3c       0x39 /home/leon/git/swp-report/iMX6_Platform_SDK/output/mx6dq/lib/libsdk.a(gpio.o)
 .ARM.attributes
                0x00001f75       0x39 /home/leon/git/swp-report/iMX6_Platform_SDK/output/mx6dq/lib/libsdk.a(imx6dq_gpio_map.o)
 .ARM.attributes
                0x00001fae       0x39 /home/leon/git/swp-report/iMX6_Platform_SDK/output/mx6dq/lib/libsdk.a(imx_i2c.o)
 .ARM.attributes
                0x00001fe7       0x39 /home/leon/git/swp-report/iMX6_Platform_SDK/output/mx6dq/lib/libboard_sabre_ai_rev_c.a(board_network.o)
 .ARM.attributes
                0x00002020       0x39 /home/leon/git/swp-report/iMX6_Platform_SDK/output/mx6dq/lib/libboard_sabre_ai_rev_c.a(i2c_iomux_config.o)

.comment        0x00000000       0x30
 .comment       0x00000000       0x30 /home/leon/git/swp-report/iMX6_Platform_SDK/output/mx6dq/httpd/sabre_ai_rev_c/obj/apps/common/ivt.o
                                 0x31 (size before relaxing)
 .comment       0x00000000       0x31 /home/leon/git/swp-report/iMX6_Platform_SDK/output/mx6dq/httpd/sabre_ai_rev_c/obj/apps/common/platform_init.o
 .comment       0x00000000       0x31 /home/leon/git/swp-report/iMX6_Platform_SDK/output/mx6dq/httpd/sabre_ai_rev_c/obj/apps/httpd/src/httpd_main.o
 .comment       0x00000000       0x31 /home/leon/git/swp-report/iMX6_Platform_SDK/output/mx6dq/httpd/sabre_ai_rev_c/obj/lwip/contrib/apps/httpserver_raw/fs.o
 .comment       0x00000000       0x31 /home/leon/git/swp-report/iMX6_Platform_SDK/output/mx6dq/httpd/sabre_ai_rev_c/obj/lwip/contrib/apps/httpserver_raw/httpd.o
 .comment       0x00000000       0x31 /home/leon/git/swp-report/iMX6_Platform_SDK/output/mx6dq/lib/libsdk.a(ccm_pll.o)
 .comment       0x00000000       0x31 /home/leon/git/swp-report/iMX6_Platform_SDK/output/mx6dq/lib/libsdk.a(gic.o)
 .comment       0x00000000       0x31 /home/leon/git/swp-report/iMX6_Platform_SDK/output/mx6dq/lib/libsdk.a(mmu.o)
 .comment       0x00000000       0x31 /home/leon/git/swp-report/iMX6_Platform_SDK/output/mx6dq/lib/libsdk.a(system_util.o)
 .comment       0x00000000       0x31 /home/leon/git/swp-report/iMX6_Platform_SDK/output/mx6dq/lib/libsdk.a(text_color.o)
 .comment       0x00000000       0x31 /home/leon/git/swp-report/iMX6_Platform_SDK/output/mx6dq/lib/libsdk.a(enet_drv.o)
 .comment       0x00000000       0x31 /home/leon/git/swp-report/iMX6_Platform_SDK/output/mx6dq/lib/libsdk.a(timer.o)
 .comment       0x00000000       0x31 /home/leon/git/swp-report/iMX6_Platform_SDK/output/mx6dq/lib/libsdk.a(imx_uart.o)
 .comment       0x00000000       0x31 /home/leon/git/swp-report/iMX6_Platform_SDK/output/mx6dq/lib/libsdk.a(interrupt.o)
 .comment       0x00000000       0x31 /home/leon/git/swp-report/iMX6_Platform_SDK/output/mx6dq/lib/libsdk.a(epit.o)
 .comment       0x00000000       0x31 /home/leon/git/swp-report/iMX6_Platform_SDK/output/mx6dq/lib/libsdk.a(abort_handler.o)
 .comment       0x00000000       0x31 /home/leon/git/swp-report/iMX6_Platform_SDK/output/mx6dq/lib/libboard_sabre_ai_rev_c.a(board_io_expanders.o)
 .comment       0x00000000       0x31 /home/leon/git/swp-report/iMX6_Platform_SDK/output/mx6dq/lib/libboard_sabre_ai_rev_c.a(hardware_modules.o)
 .comment       0x00000000       0x31 /home/leon/git/swp-report/iMX6_Platform_SDK/output/mx6dq/lib/libboard_sabre_ai_rev_c.a(dcd.o)
 .comment       0x00000000       0x31 /home/leon/git/swp-report/iMX6_Platform_SDK/output/mx6dq/lib/libboard_sabre_ai_rev_c.a(i2c3_iomux_config.o)
 .comment       0x00000000       0x31 /home/leon/git/swp-report/iMX6_Platform_SDK/output/mx6dq/lib/libboard_sabre_ai_rev_c.a(uart_iomux_config.o)
 .comment       0x00000000       0x31 /home/leon/git/swp-report/iMX6_Platform_SDK/output/mx6dq/lib/libboard_sabre_ai_rev_c.a(iomux_config.o)
 .comment       0x00000000       0x31 /home/leon/git/swp-report/iMX6_Platform_SDK/output/mx6dq/lib/libboard_sabre_ai_rev_c.a(ipu1_iomux_config.o)
 .comment       0x00000000       0x31 /home/leon/git/swp-report/iMX6_Platform_SDK/output/mx6dq/lib/libboard_sabre_ai_rev_c.a(mlb_iomux_config.o)
 .comment       0x00000000       0x31 /home/leon/git/swp-report/iMX6_Platform_SDK/output/mx6dq/lib/libboard_sabre_ai_rev_c.a(mmdc_iomux_config.o)
 .comment       0x00000000       0x31 /home/leon/git/swp-report/iMX6_Platform_SDK/output/mx6dq/lib/libboard_sabre_ai_rev_c.a(pwm3_iomux_config.o)
 .comment       0x00000000       0x31 /home/leon/git/swp-report/iMX6_Platform_SDK/output/mx6dq/lib/libboard_sabre_ai_rev_c.a(pwm4_iomux_config.o)
 .comment       0x00000000       0x31 /home/leon/git/swp-report/iMX6_Platform_SDK/output/mx6dq/lib/libboard_sabre_ai_rev_c.a(sjc_iomux_config.o)
 .comment       0x00000000       0x31 /home/leon/git/swp-report/iMX6_Platform_SDK/output/mx6dq/lib/libboard_sabre_ai_rev_c.a(spdif_iomux_config.o)
 .comment       0x00000000       0x31 /home/leon/git/swp-report/iMX6_Platform_SDK/output/mx6dq/lib/libboard_sabre_ai_rev_c.a(uart2_iomux_config.o)
 .comment       0x00000000       0x31 /home/leon/git/swp-report/iMX6_Platform_SDK/output/mx6dq/lib/libboard_sabre_ai_rev_c.a(uart3_iomux_config.o)
 .comment       0x00000000       0x31 /home/leon/git/swp-report/iMX6_Platform_SDK/output/mx6dq/lib/libboard_sabre_ai_rev_c.a(uart4_iomux_config.o)
 .comment       0x00000000       0x31 /home/leon/git/swp-report/iMX6_Platform_SDK/output/mx6dq/lib/libboard_sabre_ai_rev_c.a(usdhc1_iomux_config.o)
 .comment       0x00000000       0x31 /home/leon/git/swp-report/iMX6_Platform_SDK/output/mx6dq/lib/libboard_sabre_ai_rev_c.a(usdhc3_iomux_config.o)
 .comment       0x00000000       0x31 /home/leon/git/swp-report/iMX6_Platform_SDK/output/mx6dq/lib/libboard_sabre_ai_rev_c.a(wdog1_iomux_config.o)
 .comment       0x00000000       0x31 /home/leon/git/swp-report/iMX6_Platform_SDK/output/mx6dq/lib/libboard_sabre_ai_rev_c.a(audmux_iomux_config.o)
 .comment       0x00000000       0x31 /home/leon/git/swp-report/iMX6_Platform_SDK/output/mx6dq/lib/libboard_sabre_ai_rev_c.a(ccm_iomux_config.o)
 .comment       0x00000000       0x31 /home/leon/git/swp-report/iMX6_Platform_SDK/output/mx6dq/lib/libboard_sabre_ai_rev_c.a(ecspi1_iomux_config.o)
 .comment       0x00000000       0x31 /home/leon/git/swp-report/iMX6_Platform_SDK/output/mx6dq/lib/libboard_sabre_ai_rev_c.a(eim_iomux_config.o)
 .comment       0x00000000       0x31 /home/leon/git/swp-report/iMX6_Platform_SDK/output/mx6dq/lib/libboard_sabre_ai_rev_c.a(enet_iomux_config.o)
 .comment       0x00000000       0x31 /home/leon/git/swp-report/iMX6_Platform_SDK/output/mx6dq/lib/libboard_sabre_ai_rev_c.a(esai_iomux_config.o)
 .comment       0x00000000       0x31 /home/leon/git/swp-report/iMX6_Platform_SDK/output/mx6dq/lib/libboard_sabre_ai_rev_c.a(flexcan1_iomux_config.o)
 .comment       0x00000000       0x31 /home/leon/git/swp-report/iMX6_Platform_SDK/output/mx6dq/lib/libboard_sabre_ai_rev_c.a(flexcan2_iomux_config.o)
 .comment       0x00000000       0x31 /home/leon/git/swp-report/iMX6_Platform_SDK/output/mx6dq/lib/libboard_sabre_ai_rev_c.a(gpio1_iomux_config.o)
 .comment       0x00000000       0x31 /home/leon/git/swp-report/iMX6_Platform_SDK/output/mx6dq/lib/libboard_sabre_ai_rev_c.a(gpio2_iomux_config.o)
 .comment       0x00000000       0x31 /home/leon/git/swp-report/iMX6_Platform_SDK/output/mx6dq/lib/libboard_sabre_ai_rev_c.a(gpio4_iomux_config.o)
 .comment       0x00000000       0x31 /home/leon/git/swp-report/iMX6_Platform_SDK/output/mx6dq/lib/libboard_sabre_ai_rev_c.a(gpio5_iomux_config.o)
 .comment       0x00000000       0x31 /home/leon/git/swp-report/iMX6_Platform_SDK/output/mx6dq/lib/libboard_sabre_ai_rev_c.a(gpio6_iomux_config.o)
 .comment       0x00000000       0x31 /home/leon/git/swp-report/iMX6_Platform_SDK/output/mx6dq/lib/libboard_sabre_ai_rev_c.a(gpmi_iomux_config.o)
 .comment       0x00000000       0x31 /home/leon/git/swp-report/iMX6_Platform_SDK/output/mx6dq/lib/libboard_sabre_ai_rev_c.a(i2c2_iomux_config.o)
 .comment       0x00000000       0x31 /home/leon/git/swp-report/iMX6_Platform_SDK/output/mx6dq/lib/liblwip.a(dhcp.o)
 .comment       0x00000000       0x31 /home/leon/git/swp-report/iMX6_Platform_SDK/output/mx6dq/lib/liblwip.a(dns.o)
 .comment       0x00000000       0x31 /home/leon/git/swp-report/iMX6_Platform_SDK/output/mx6dq/lib/liblwip.a(init.o)
 .comment       0x00000000       0x31 /home/leon/git/swp-report/iMX6_Platform_SDK/output/mx6dq/lib/liblwip.a(autoip.o)
 .comment       0x00000000       0x31 /home/leon/git/swp-report/iMX6_Platform_SDK/output/mx6dq/lib/liblwip.a(igmp.o)
 .comment       0x00000000       0x31 /home/leon/git/swp-report/iMX6_Platform_SDK/output/mx6dq/lib/liblwip.a(ip4.o)
 .comment       0x00000000       0x31 /home/leon/git/swp-report/iMX6_Platform_SDK/output/mx6dq/lib/liblwip.a(ip4_addr.o)
 .comment       0x00000000       0x31 /home/leon/git/swp-report/iMX6_Platform_SDK/output/mx6dq/lib/liblwip.a(memp.o)
 .comment       0x00000000       0x31 /home/leon/git/swp-report/iMX6_Platform_SDK/output/mx6dq/lib/liblwip.a(netif.o)
 .comment       0x00000000       0x31 /home/leon/git/swp-report/iMX6_Platform_SDK/output/mx6dq/lib/liblwip.a(pbuf.o)
 .comment       0x00000000       0x31 /home/leon/git/swp-report/iMX6_Platform_SDK/output/mx6dq/lib/liblwip.a(raw.o)
 .comment       0x00000000       0x31 /home/leon/git/swp-report/iMX6_Platform_SDK/output/mx6dq/lib/liblwip.a(mib2.o)
 .comment       0x00000000       0x31 /home/leon/git/swp-report/iMX6_Platform_SDK/output/mx6dq/lib/liblwip.a(mib_structs.o)
 .comment       0x00000000       0x31 /home/leon/git/swp-report/iMX6_Platform_SDK/output/mx6dq/lib/liblwip.a(msg_in.o)
 .comment       0x00000000       0x31 /home/leon/git/swp-report/iMX6_Platform_SDK/output/mx6dq/lib/liblwip.a(msg_out.o)
 .comment       0x00000000       0x31 /home/leon/git/swp-report/iMX6_Platform_SDK/output/mx6dq/lib/liblwip.a(stats.o)
 .comment       0x00000000       0x31 /home/leon/git/swp-report/iMX6_Platform_SDK/output/mx6dq/lib/liblwip.a(tcp.o)
 .comment       0x00000000       0x31 /home/leon/git/swp-report/iMX6_Platform_SDK/output/mx6dq/lib/liblwip.a(tcp_in.o)
 .comment       0x00000000       0x31 /home/leon/git/swp-report/iMX6_Platform_SDK/output/mx6dq/lib/liblwip.a(tcp_out.o)
 .comment       0x00000000       0x31 /home/leon/git/swp-report/iMX6_Platform_SDK/output/mx6dq/lib/liblwip.a(timers.o)
 .comment       0x00000000       0x31 /home/leon/git/swp-report/iMX6_Platform_SDK/output/mx6dq/lib/liblwip.a(udp.o)
 .comment       0x00000000       0x31 /home/leon/git/swp-report/iMX6_Platform_SDK/output/mx6dq/lib/liblwip.a(etharp.o)
 .comment       0x00000000       0x31 /home/leon/git/swp-report/iMX6_Platform_SDK/output/mx6dq/lib/liblwip.a(mx6_ethernetif.o)
 .comment       0x00000000       0x31 /home/leon/git/swp-report/iMX6_Platform_SDK/output/mx6dq/lib/liblwip.a(mx6_lwip.o)
 .comment       0x00000000       0x31 /home/leon/git/swp-report/iMX6_Platform_SDK/output/mx6dq/lib/liblwip.a(sys_arch.o)
 .comment       0x00000000       0x31 /home/leon/git/swp-report/iMX6_Platform_SDK/output/mx6dq/lib/liblwip.a(def.o)
 .comment       0x00000000       0x31 /home/leon/git/swp-report/iMX6_Platform_SDK/output/mx6dq/lib/liblwip.a(inet_chksum.o)
 .comment       0x00000000       0x31 /home/leon/git/swp-report/iMX6_Platform_SDK/output/mx6dq/lib/liblwip.a(icmp.o)
 .comment       0x00000000       0x31 /home/leon/git/swp-report/iMX6_Platform_SDK/output/mx6dq/lib/liblwip.a(asn1_dec.o)
 .comment       0x00000000       0x31 /home/leon/git/swp-report/iMX6_Platform_SDK/output/mx6dq/lib/liblwip.a(asn1_enc.o)
 .comment       0x00000000       0x31 /home/leon/git/swp-report/iMX6_Platform_SDK/output/mx6dq/lib/libsdk.a(max7310.o)
 .comment       0x00000000       0x31 /home/leon/git/swp-report/iMX6_Platform_SDK/output/mx6dq/lib/libsdk.a(runtime_support.o)
 .comment       0x00000000       0x31 /home/leon/git/swp-report/iMX6_Platform_SDK/output/mx6dq/lib/libsdk.a(gpio.o)
 .comment       0x00000000       0x31 /home/leon/git/swp-report/iMX6_Platform_SDK/output/mx6dq/lib/libsdk.a(imx6dq_gpio_map.o)
 .comment       0x00000000       0x31 /home/leon/git/swp-report/iMX6_Platform_SDK/output/mx6dq/lib/libsdk.a(imx_i2c.o)
 .comment       0x00000000       0x31 /home/leon/git/swp-report/iMX6_Platform_SDK/output/mx6dq/lib/libboard_sabre_ai_rev_c.a(board_network.o)
 .comment       0x00000000       0x31 /home/leon/git/swp-report/iMX6_Platform_SDK/output/mx6dq/lib/libboard_sabre_ai_rev_c.a(i2c_iomux_config.o)

.debug_info     0x00000000    0x48148
 .debug_info    0x00000000      0x228 /home/leon/git/swp-report/iMX6_Platform_SDK/output/mx6dq/httpd/sabre_ai_rev_c/obj/apps/common/ivt.o
 .debug_info    0x00000228      0x135 /home/leon/git/swp-report/iMX6_Platform_SDK/output/mx6dq/httpd/sabre_ai_rev_c/obj/apps/common/platform_init.o
 .debug_info    0x0000035d     0x2413 /home/leon/git/swp-report/iMX6_Platform_SDK/output/mx6dq/httpd/sabre_ai_rev_c/obj/apps/httpd/src/httpd_main.o
 .debug_info    0x00002770      0x322 /home/leon/git/swp-report/iMX6_Platform_SDK/output/mx6dq/httpd/sabre_ai_rev_c/obj/lwip/contrib/apps/httpserver_raw/fs.o
 .debug_info    0x00002a92     0x12b9 /home/leon/git/swp-report/iMX6_Platform_SDK/output/mx6dq/httpd/sabre_ai_rev_c/obj/lwip/contrib/apps/httpserver_raw/httpd.o
 .debug_info    0x00003d4b     0x1d6e /home/leon/git/swp-report/iMX6_Platform_SDK/output/mx6dq/lib/libsdk.a(ccm_pll.o)
 .debug_info    0x00005ab9      0x7f4 /home/leon/git/swp-report/iMX6_Platform_SDK/output/mx6dq/lib/libsdk.a(gic.o)
 .debug_info    0x000062ad      0x3e7 /home/leon/git/swp-report/iMX6_Platform_SDK/output/mx6dq/lib/libsdk.a(mmu.o)
 .debug_info    0x00006694     0x1536 /home/leon/git/swp-report/iMX6_Platform_SDK/output/mx6dq/lib/libsdk.a(system_util.o)
 .debug_info    0x00007bca      0x298 /home/leon/git/swp-report/iMX6_Platform_SDK/output/mx6dq/lib/libsdk.a(text_color.o)
 .debug_info    0x00007e62     0x21ec /home/leon/git/swp-report/iMX6_Platform_SDK/output/mx6dq/lib/libsdk.a(enet_drv.o)
 .debug_info    0x0000a04e      0x319 /home/leon/git/swp-report/iMX6_Platform_SDK/output/mx6dq/lib/libsdk.a(timer.o)
 .debug_info    0x0000a367     0x11b6 /home/leon/git/swp-report/iMX6_Platform_SDK/output/mx6dq/lib/libsdk.a(imx_uart.o)
 .debug_info    0x0000b51d      0x63b /home/leon/git/swp-report/iMX6_Platform_SDK/output/mx6dq/lib/libsdk.a(interrupt.o)
 .debug_info    0x0000bb58      0x9b7 /home/leon/git/swp-report/iMX6_Platform_SDK/output/mx6dq/lib/libsdk.a(epit.o)
 .debug_info    0x0000c50f      0x234 /home/leon/git/swp-report/iMX6_Platform_SDK/output/mx6dq/lib/libsdk.a(abort_handler.o)
 .debug_info    0x0000c743      0x233 /home/leon/git/swp-report/iMX6_Platform_SDK/output/mx6dq/lib/libboard_sabre_ai_rev_c.a(board_io_expanders.o)
 .debug_info    0x0000c976       0xa1 /home/leon/git/swp-report/iMX6_Platform_SDK/output/mx6dq/lib/libboard_sabre_ai_rev_c.a(hardware_modules.o)
 .debug_info    0x0000ca17       0xe9 /home/leon/git/swp-report/iMX6_Platform_SDK/output/mx6dq/lib/libboard_sabre_ai_rev_c.a(dcd.o)
 .debug_info    0x0000cb00      0x5ed /home/leon/git/swp-report/iMX6_Platform_SDK/output/mx6dq/lib/libboard_sabre_ai_rev_c.a(i2c3_iomux_config.o)
 .debug_info    0x0000d0ed       0xcf /home/leon/git/swp-report/iMX6_Platform_SDK/output/mx6dq/lib/libboard_sabre_ai_rev_c.a(uart_iomux_config.o)
 .debug_info    0x0000d1bc      0x350 /home/leon/git/swp-report/iMX6_Platform_SDK/output/mx6dq/lib/libboard_sabre_ai_rev_c.a(iomux_config.o)
 .debug_info    0x0000d50c     0x42bb /home/leon/git/swp-report/iMX6_Platform_SDK/output/mx6dq/lib/libboard_sabre_ai_rev_c.a(ipu1_iomux_config.o)
 .debug_info    0x000117c7      0x67b /home/leon/git/swp-report/iMX6_Platform_SDK/output/mx6dq/lib/libboard_sabre_ai_rev_c.a(mlb_iomux_config.o)
 .debug_info    0x00011e42     0x41e3 /home/leon/git/swp-report/iMX6_Platform_SDK/output/mx6dq/lib/libboard_sabre_ai_rev_c.a(mmdc_iomux_config.o)
 .debug_info    0x00016025      0x205 /home/leon/git/swp-report/iMX6_Platform_SDK/output/mx6dq/lib/libboard_sabre_ai_rev_c.a(pwm3_iomux_config.o)
 .debug_info    0x0001622a      0x205 /home/leon/git/swp-report/iMX6_Platform_SDK/output/mx6dq/lib/libboard_sabre_ai_rev_c.a(pwm4_iomux_config.o)
 .debug_info    0x0001642f      0x72b /home/leon/git/swp-report/iMX6_Platform_SDK/output/mx6dq/lib/libboard_sabre_ai_rev_c.a(sjc_iomux_config.o)
 .debug_info    0x00016b5a      0x273 /home/leon/git/swp-report/iMX6_Platform_SDK/output/mx6dq/lib/libboard_sabre_ai_rev_c.a(spdif_iomux_config.o)
 .debug_info    0x00016dcd      0x7d3 /home/leon/git/swp-report/iMX6_Platform_SDK/output/mx6dq/lib/libboard_sabre_ai_rev_c.a(uart2_iomux_config.o)
 .debug_info    0x000175a0      0x793 /home/leon/git/swp-report/iMX6_Platform_SDK/output/mx6dq/lib/libboard_sabre_ai_rev_c.a(uart3_iomux_config.o)
 .debug_info    0x00017d33      0x419 /home/leon/git/swp-report/iMX6_Platform_SDK/output/mx6dq/lib/libboard_sabre_ai_rev_c.a(uart4_iomux_config.o)
 .debug_info    0x0001814c     0x1281 /home/leon/git/swp-report/iMX6_Platform_SDK/output/mx6dq/lib/libboard_sabre_ai_rev_c.a(usdhc1_iomux_config.o)
 .debug_info    0x000193cd     0x1427 /home/leon/git/swp-report/iMX6_Platform_SDK/output/mx6dq/lib/libboard_sabre_ai_rev_c.a(usdhc3_iomux_config.o)
 .debug_info    0x0001a7f4      0x1e5 /home/leon/git/swp-report/iMX6_Platform_SDK/output/mx6dq/lib/libboard_sabre_ai_rev_c.a(wdog1_iomux_config.o)
 .debug_info    0x0001a9d9      0xc53 /home/leon/git/swp-report/iMX6_Platform_SDK/output/mx6dq/lib/libboard_sabre_ai_rev_c.a(audmux_iomux_config.o)
 .debug_info    0x0001b62c      0x205 /home/leon/git/swp-report/iMX6_Platform_SDK/output/mx6dq/lib/libboard_sabre_ai_rev_c.a(ccm_iomux_config.o)
 .debug_info    0x0001b831      0x9d5 /home/leon/git/swp-report/iMX6_Platform_SDK/output/mx6dq/lib/libboard_sabre_ai_rev_c.a(ecspi1_iomux_config.o)
 .debug_info    0x0001c206     0x4367 /home/leon/git/swp-report/iMX6_Platform_SDK/output/mx6dq/lib/libboard_sabre_ai_rev_c.a(eim_iomux_config.o)
 .debug_info    0x0002056d     0x1c57 /home/leon/git/swp-report/iMX6_Platform_SDK/output/mx6dq/lib/libboard_sabre_ai_rev_c.a(enet_iomux_config.o)
 .debug_info    0x000221c4     0x1467 /home/leon/git/swp-report/iMX6_Platform_SDK/output/mx6dq/lib/libboard_sabre_ai_rev_c.a(esai_iomux_config.o)
 .debug_info    0x0002362b      0x419 /home/leon/git/swp-report/iMX6_Platform_SDK/output/mx6dq/lib/libboard_sabre_ai_rev_c.a(flexcan1_iomux_config.o)
 .debug_info    0x00023a44      0x419 /home/leon/git/swp-report/iMX6_Platform_SDK/output/mx6dq/lib/libboard_sabre_ai_rev_c.a(flexcan2_iomux_config.o)
 .debug_info    0x00023e5d      0xd0f /home/leon/git/swp-report/iMX6_Platform_SDK/output/mx6dq/lib/libboard_sabre_ai_rev_c.a(gpio1_iomux_config.o)
 .debug_info    0x00024b6c      0xb69 /home/leon/git/swp-report/iMX6_Platform_SDK/output/mx6dq/lib/libboard_sabre_ai_rev_c.a(gpio2_iomux_config.o)
 .debug_info    0x000256d5      0x3ab /home/leon/git/swp-report/iMX6_Platform_SDK/output/mx6dq/lib/libboard_sabre_ai_rev_c.a(gpio4_iomux_config.o)
 .debug_info    0x00025a80      0x81d /home/leon/git/swp-report/iMX6_Platform_SDK/output/mx6dq/lib/libboard_sabre_ai_rev_c.a(gpio5_iomux_config.o)
 .debug_info    0x0002629d      0x38b /home/leon/git/swp-report/iMX6_Platform_SDK/output/mx6dq/lib/libboard_sabre_ai_rev_c.a(gpio6_iomux_config.o)
 .debug_info    0x00026628     0x1c65 /home/leon/git/swp-report/iMX6_Platform_SDK/output/mx6dq/lib/libboard_sabre_ai_rev_c.a(gpmi_iomux_config.o)
 .debug_info    0x0002828d      0x467 /home/leon/git/swp-report/iMX6_Platform_SDK/output/mx6dq/lib/libboard_sabre_ai_rev_c.a(i2c2_iomux_config.o)
 .debug_info    0x000286f4     0x151a /home/leon/git/swp-report/iMX6_Platform_SDK/output/mx6dq/lib/liblwip.a(dhcp.o)
 .debug_info    0x00029c0e      0xa8c /home/leon/git/swp-report/iMX6_Platform_SDK/output/mx6dq/lib/liblwip.a(dns.o)
 .debug_info    0x0002a69a       0x91 /home/leon/git/swp-report/iMX6_Platform_SDK/output/mx6dq/lib/liblwip.a(init.o)
 .debug_info    0x0002a72b      0x912 /home/leon/git/swp-report/iMX6_Platform_SDK/output/mx6dq/lib/liblwip.a(autoip.o)
 .debug_info    0x0002b03d      0xfe9 /home/leon/git/swp-report/iMX6_Platform_SDK/output/mx6dq/lib/liblwip.a(igmp.o)
 .debug_info    0x0002c026     0x1192 /home/leon/git/swp-report/iMX6_Platform_SDK/output/mx6dq/lib/liblwip.a(ip4.o)
 .debug_info    0x0002d1b8      0x749 /home/leon/git/swp-report/iMX6_Platform_SDK/output/mx6dq/lib/liblwip.a(ip4_addr.o)
 .debug_info    0x0002d901      0x112 /home/leon/git/swp-report/iMX6_Platform_SDK/output/mx6dq/lib/liblwip.a(memp.o)
 .debug_info    0x0002da13     0x180e /home/leon/git/swp-report/iMX6_Platform_SDK/output/mx6dq/lib/liblwip.a(netif.o)
 .debug_info    0x0002f221      0xf47 /home/leon/git/swp-report/iMX6_Platform_SDK/output/mx6dq/lib/liblwip.a(pbuf.o)
 .debug_info    0x00030168      0xa1e /home/leon/git/swp-report/iMX6_Platform_SDK/output/mx6dq/lib/liblwip.a(raw.o)
 .debug_info    0x00030b86     0x4596 /home/leon/git/swp-report/iMX6_Platform_SDK/output/mx6dq/lib/liblwip.a(mib2.o)
 .debug_info    0x0003511c     0x136e /home/leon/git/swp-report/iMX6_Platform_SDK/output/mx6dq/lib/liblwip.a(mib_structs.o)
 .debug_info    0x0003648a     0x15cc /home/leon/git/swp-report/iMX6_Platform_SDK/output/mx6dq/lib/liblwip.a(msg_in.o)
 .debug_info    0x00037a56     0x134e /home/leon/git/swp-report/iMX6_Platform_SDK/output/mx6dq/lib/liblwip.a(msg_out.o)
 .debug_info    0x00038da4      0x5f1 /home/leon/git/swp-report/iMX6_Platform_SDK/output/mx6dq/lib/liblwip.a(stats.o)
 .debug_info    0x00039395     0x1b60 /home/leon/git/swp-report/iMX6_Platform_SDK/output/mx6dq/lib/liblwip.a(tcp.o)
 .debug_info    0x0003aef5     0x1436 /home/leon/git/swp-report/iMX6_Platform_SDK/output/mx6dq/lib/liblwip.a(tcp_in.o)
 .debug_info    0x0003c32b     0x168d /home/leon/git/swp-report/iMX6_Platform_SDK/output/mx6dq/lib/liblwip.a(tcp_out.o)
 .debug_info    0x0003d9b8      0xaf4 /home/leon/git/swp-report/iMX6_Platform_SDK/output/mx6dq/lib/liblwip.a(timers.o)
 .debug_info    0x0003e4ac     0x1299 /home/leon/git/swp-report/iMX6_Platform_SDK/output/mx6dq/lib/liblwip.a(udp.o)
 .debug_info    0x0003f745     0x1705 /home/leon/git/swp-report/iMX6_Platform_SDK/output/mx6dq/lib/liblwip.a(etharp.o)
 .debug_info    0x00040e4a     0x2704 /home/leon/git/swp-report/iMX6_Platform_SDK/output/mx6dq/lib/liblwip.a(mx6_ethernetif.o)
 .debug_info    0x0004354e      0xa7e /home/leon/git/swp-report/iMX6_Platform_SDK/output/mx6dq/lib/liblwip.a(mx6_lwip.o)
 .debug_info    0x00043fcc       0xb2 /home/leon/git/swp-report/iMX6_Platform_SDK/output/mx6dq/lib/liblwip.a(sys_arch.o)
 .debug_info    0x0004407e      0x14e /home/leon/git/swp-report/iMX6_Platform_SDK/output/mx6dq/lib/liblwip.a(def.o)
 .debug_info    0x000441cc      0x4cb /home/leon/git/swp-report/iMX6_Platform_SDK/output/mx6dq/lib/liblwip.a(inet_chksum.o)
 .debug_info    0x00044697      0xb64 /home/leon/git/swp-report/iMX6_Platform_SDK/output/mx6dq/lib/liblwip.a(icmp.o)
 .debug_info    0x000451fb      0x553 /home/leon/git/swp-report/iMX6_Platform_SDK/output/mx6dq/lib/liblwip.a(asn1_dec.o)
 .debug_info    0x0004574e      0x5e2 /home/leon/git/swp-report/iMX6_Platform_SDK/output/mx6dq/lib/liblwip.a(asn1_enc.o)
 .debug_info    0x00045d30      0x2ed /home/leon/git/swp-report/iMX6_Platform_SDK/output/mx6dq/lib/libsdk.a(max7310.o)
 .debug_info    0x0004601d      0x804 /home/leon/git/swp-report/iMX6_Platform_SDK/output/mx6dq/lib/libsdk.a(runtime_support.o)
 .debug_info    0x00046821      0x871 /home/leon/git/swp-report/iMX6_Platform_SDK/output/mx6dq/lib/libsdk.a(gpio.o)
 .debug_info    0x00047092       0x9f /home/leon/git/swp-report/iMX6_Platform_SDK/output/mx6dq/lib/libsdk.a(imx6dq_gpio_map.o)
 .debug_info    0x00047131      0xe21 /home/leon/git/swp-report/iMX6_Platform_SDK/output/mx6dq/lib/libsdk.a(imx_i2c.o)
 .debug_info    0x00047f52      0x127 /home/leon/git/swp-report/iMX6_Platform_SDK/output/mx6dq/lib/libboard_sabre_ai_rev_c.a(board_network.o)
 .debug_info    0x00048079       0xcf /home/leon/git/swp-report/iMX6_Platform_SDK/output/mx6dq/lib/libboard_sabre_ai_rev_c.a(i2c_iomux_config.o)

.debug_abbrev   0x00000000     0x777c
 .debug_abbrev  0x00000000       0xe6 /home/leon/git/swp-report/iMX6_Platform_SDK/output/mx6dq/httpd/sabre_ai_rev_c/obj/apps/common/ivt.o
 .debug_abbrev  0x000000e6       0x89 /home/leon/git/swp-report/iMX6_Platform_SDK/output/mx6dq/httpd/sabre_ai_rev_c/obj/apps/common/platform_init.o
 .debug_abbrev  0x0000016f      0x247 /home/leon/git/swp-report/iMX6_Platform_SDK/output/mx6dq/httpd/sabre_ai_rev_c/obj/apps/httpd/src/httpd_main.o
 .debug_abbrev  0x000003b6      0x126 /home/leon/git/swp-report/iMX6_Platform_SDK/output/mx6dq/httpd/sabre_ai_rev_c/obj/lwip/contrib/apps/httpserver_raw/fs.o
 .debug_abbrev  0x000004dc      0x203 /home/leon/git/swp-report/iMX6_Platform_SDK/output/mx6dq/httpd/sabre_ai_rev_c/obj/lwip/contrib/apps/httpserver_raw/httpd.o
 .debug_abbrev  0x000006df      0x1b1 /home/leon/git/swp-report/iMX6_Platform_SDK/output/mx6dq/lib/libsdk.a(ccm_pll.o)
 .debug_abbrev  0x00000890      0x179 /home/leon/git/swp-report/iMX6_Platform_SDK/output/mx6dq/lib/libsdk.a(gic.o)
 .debug_abbrev  0x00000a09      0x172 /home/leon/git/swp-report/iMX6_Platform_SDK/output/mx6dq/lib/libsdk.a(mmu.o)
 .debug_abbrev  0x00000b7b      0x276 /home/leon/git/swp-report/iMX6_Platform_SDK/output/mx6dq/lib/libsdk.a(system_util.o)
 .debug_abbrev  0x00000df1       0xd0 /home/leon/git/swp-report/iMX6_Platform_SDK/output/mx6dq/lib/libsdk.a(text_color.o)
 .debug_abbrev  0x00000ec1      0x2d8 /home/leon/git/swp-report/iMX6_Platform_SDK/output/mx6dq/lib/libsdk.a(enet_drv.o)
 .debug_abbrev  0x00001199      0x122 /home/leon/git/swp-report/iMX6_Platform_SDK/output/mx6dq/lib/libsdk.a(timer.o)
 .debug_abbrev  0x000012bb      0x1e3 /home/leon/git/swp-report/iMX6_Platform_SDK/output/mx6dq/lib/libsdk.a(imx_uart.o)
 .debug_abbrev  0x0000149e      0x11a /home/leon/git/swp-report/iMX6_Platform_SDK/output/mx6dq/lib/libsdk.a(interrupt.o)
 .debug_abbrev  0x000015b8      0x194 /home/leon/git/swp-report/iMX6_Platform_SDK/output/mx6dq/lib/libsdk.a(epit.o)
 .debug_abbrev  0x0000174c       0xc8 /home/leon/git/swp-report/iMX6_Platform_SDK/output/mx6dq/lib/libsdk.a(abort_handler.o)
 .debug_abbrev  0x00001814       0xc8 /home/leon/git/swp-report/iMX6_Platform_SDK/output/mx6dq/lib/libboard_sabre_ai_rev_c.a(board_io_expanders.o)
 .debug_abbrev  0x000018dc       0x44 /home/leon/git/swp-report/iMX6_Platform_SDK/output/mx6dq/lib/libboard_sabre_ai_rev_c.a(hardware_modules.o)
 .debug_abbrev  0x00001920       0x75 /home/leon/git/swp-report/iMX6_Platform_SDK/output/mx6dq/lib/libboard_sabre_ai_rev_c.a(dcd.o)
 .debug_abbrev  0x00001995      0x106 /home/leon/git/swp-report/iMX6_Platform_SDK/output/mx6dq/lib/libboard_sabre_ai_rev_c.a(i2c3_iomux_config.o)
 .debug_abbrev  0x00001a9b       0x79 /home/leon/git/swp-report/iMX6_Platform_SDK/output/mx6dq/lib/libboard_sabre_ai_rev_c.a(uart_iomux_config.o)
 .debug_abbrev  0x00001b14       0x42 /home/leon/git/swp-report/iMX6_Platform_SDK/output/mx6dq/lib/libboard_sabre_ai_rev_c.a(iomux_config.o)
 .debug_abbrev  0x00001b56      0x106 /home/leon/git/swp-report/iMX6_Platform_SDK/output/mx6dq/lib/libboard_sabre_ai_rev_c.a(ipu1_iomux_config.o)
 .debug_abbrev  0x00001c5c      0x106 /home/leon/git/swp-report/iMX6_Platform_SDK/output/mx6dq/lib/libboard_sabre_ai_rev_c.a(mlb_iomux_config.o)
 .debug_abbrev  0x00001d62      0x106 /home/leon/git/swp-report/iMX6_Platform_SDK/output/mx6dq/lib/libboard_sabre_ai_rev_c.a(mmdc_iomux_config.o)
 .debug_abbrev  0x00001e68       0xf1 /home/leon/git/swp-report/iMX6_Platform_SDK/output/mx6dq/lib/libboard_sabre_ai_rev_c.a(pwm3_iomux_config.o)
 .debug_abbrev  0x00001f59       0xf1 /home/leon/git/swp-report/iMX6_Platform_SDK/output/mx6dq/lib/libboard_sabre_ai_rev_c.a(pwm4_iomux_config.o)
 .debug_abbrev  0x0000204a       0xa4 /home/leon/git/swp-report/iMX6_Platform_SDK/output/mx6dq/lib/libboard_sabre_ai_rev_c.a(sjc_iomux_config.o)
 .debug_abbrev  0x000020ee       0xf1 /home/leon/git/swp-report/iMX6_Platform_SDK/output/mx6dq/lib/libboard_sabre_ai_rev_c.a(spdif_iomux_config.o)
 .debug_abbrev  0x000021df       0xf1 /home/leon/git/swp-report/iMX6_Platform_SDK/output/mx6dq/lib/libboard_sabre_ai_rev_c.a(uart2_iomux_config.o)
 .debug_abbrev  0x000022d0      0x106 /home/leon/git/swp-report/iMX6_Platform_SDK/output/mx6dq/lib/libboard_sabre_ai_rev_c.a(uart3_iomux_config.o)
 .debug_abbrev  0x000023d6       0xf1 /home/leon/git/swp-report/iMX6_Platform_SDK/output/mx6dq/lib/libboard_sabre_ai_rev_c.a(uart4_iomux_config.o)
 .debug_abbrev  0x000024c7       0xf1 /home/leon/git/swp-report/iMX6_Platform_SDK/output/mx6dq/lib/libboard_sabre_ai_rev_c.a(usdhc1_iomux_config.o)
 .debug_abbrev  0x000025b8       0xf1 /home/leon/git/swp-report/iMX6_Platform_SDK/output/mx6dq/lib/libboard_sabre_ai_rev_c.a(usdhc3_iomux_config.o)
 .debug_abbrev  0x000026a9       0xa4 /home/leon/git/swp-report/iMX6_Platform_SDK/output/mx6dq/lib/libboard_sabre_ai_rev_c.a(wdog1_iomux_config.o)
 .debug_abbrev  0x0000274d       0xf1 /home/leon/git/swp-report/iMX6_Platform_SDK/output/mx6dq/lib/libboard_sabre_ai_rev_c.a(audmux_iomux_config.o)
 .debug_abbrev  0x0000283e       0xf1 /home/leon/git/swp-report/iMX6_Platform_SDK/output/mx6dq/lib/libboard_sabre_ai_rev_c.a(ccm_iomux_config.o)
 .debug_abbrev  0x0000292f      0x106 /home/leon/git/swp-report/iMX6_Platform_SDK/output/mx6dq/lib/libboard_sabre_ai_rev_c.a(ecspi1_iomux_config.o)
 .debug_abbrev  0x00002a35       0xa4 /home/leon/git/swp-report/iMX6_Platform_SDK/output/mx6dq/lib/libboard_sabre_ai_rev_c.a(eim_iomux_config.o)
 .debug_abbrev  0x00002ad9      0x106 /home/leon/git/swp-report/iMX6_Platform_SDK/output/mx6dq/lib/libboard_sabre_ai_rev_c.a(enet_iomux_config.o)
 .debug_abbrev  0x00002bdf      0x106 /home/leon/git/swp-report/iMX6_Platform_SDK/output/mx6dq/lib/libboard_sabre_ai_rev_c.a(esai_iomux_config.o)
 .debug_abbrev  0x00002ce5       0xf1 /home/leon/git/swp-report/iMX6_Platform_SDK/output/mx6dq/lib/libboard_sabre_ai_rev_c.a(flexcan1_iomux_config.o)
 .debug_abbrev  0x00002dd6       0xf1 /home/leon/git/swp-report/iMX6_Platform_SDK/output/mx6dq/lib/libboard_sabre_ai_rev_c.a(flexcan2_iomux_config.o)
 .debug_abbrev  0x00002ec7      0x106 /home/leon/git/swp-report/iMX6_Platform_SDK/output/mx6dq/lib/libboard_sabre_ai_rev_c.a(gpio1_iomux_config.o)
 .debug_abbrev  0x00002fcd      0x106 /home/leon/git/swp-report/iMX6_Platform_SDK/output/mx6dq/lib/libboard_sabre_ai_rev_c.a(gpio2_iomux_config.o)
 .debug_abbrev  0x000030d3       0xf1 /home/leon/git/swp-report/iMX6_Platform_SDK/output/mx6dq/lib/libboard_sabre_ai_rev_c.a(gpio4_iomux_config.o)
 .debug_abbrev  0x000031c4      0x106 /home/leon/git/swp-report/iMX6_Platform_SDK/output/mx6dq/lib/libboard_sabre_ai_rev_c.a(gpio5_iomux_config.o)
 .debug_abbrev  0x000032ca      0x106 /home/leon/git/swp-report/iMX6_Platform_SDK/output/mx6dq/lib/libboard_sabre_ai_rev_c.a(gpio6_iomux_config.o)
 .debug_abbrev  0x000033d0       0xf1 /home/leon/git/swp-report/iMX6_Platform_SDK/output/mx6dq/lib/libboard_sabre_ai_rev_c.a(gpmi_iomux_config.o)
 .debug_abbrev  0x000034c1      0x106 /home/leon/git/swp-report/iMX6_Platform_SDK/output/mx6dq/lib/libboard_sabre_ai_rev_c.a(i2c2_iomux_config.o)
 .debug_abbrev  0x000035c7      0x23c /home/leon/git/swp-report/iMX6_Platform_SDK/output/mx6dq/lib/liblwip.a(dhcp.o)
 .debug_abbrev  0x00003803      0x21e /home/leon/git/swp-report/iMX6_Platform_SDK/output/mx6dq/lib/liblwip.a(dns.o)
 .debug_abbrev  0x00003a21       0x42 /home/leon/git/swp-report/iMX6_Platform_SDK/output/mx6dq/lib/liblwip.a(init.o)
 .debug_abbrev  0x00003a63      0x1d0 /home/leon/git/swp-report/iMX6_Platform_SDK/output/mx6dq/lib/liblwip.a(autoip.o)
 .debug_abbrev  0x00003c33      0x23a /home/leon/git/swp-report/iMX6_Platform_SDK/output/mx6dq/lib/liblwip.a(igmp.o)
 .debug_abbrev  0x00003e6d      0x1de /home/leon/git/swp-report/iMX6_Platform_SDK/output/mx6dq/lib/liblwip.a(ip4.o)
 .debug_abbrev  0x0000404b      0x1b9 /home/leon/git/swp-report/iMX6_Platform_SDK/output/mx6dq/lib/liblwip.a(ip4_addr.o)
 .debug_abbrev  0x00004204       0x73 /home/leon/git/swp-report/iMX6_Platform_SDK/output/mx6dq/lib/liblwip.a(memp.o)
 .debug_abbrev  0x00004277      0x28b /home/leon/git/swp-report/iMX6_Platform_SDK/output/mx6dq/lib/liblwip.a(netif.o)
 .debug_abbrev  0x00004502      0x263 /home/leon/git/swp-report/iMX6_Platform_SDK/output/mx6dq/lib/liblwip.a(pbuf.o)
 .debug_abbrev  0x00004765      0x201 /home/leon/git/swp-report/iMX6_Platform_SDK/output/mx6dq/lib/liblwip.a(raw.o)
 .debug_abbrev  0x00004966      0x2a0 /home/leon/git/swp-report/iMX6_Platform_SDK/output/mx6dq/lib/liblwip.a(mib2.o)
 .debug_abbrev  0x00004c06      0x286 /home/leon/git/swp-report/iMX6_Platform_SDK/output/mx6dq/lib/liblwip.a(mib_structs.o)
 .debug_abbrev  0x00004e8c      0x29d /home/leon/git/swp-report/iMX6_Platform_SDK/output/mx6dq/lib/liblwip.a(msg_in.o)
 .debug_abbrev  0x00005129      0x242 /home/leon/git/swp-report/iMX6_Platform_SDK/output/mx6dq/lib/liblwip.a(msg_out.o)
 .debug_abbrev  0x0000536b      0x12c /home/leon/git/swp-report/iMX6_Platform_SDK/output/mx6dq/lib/liblwip.a(stats.o)
 .debug_abbrev  0x00005497      0x2f2 /home/leon/git/swp-report/iMX6_Platform_SDK/output/mx6dq/lib/liblwip.a(tcp.o)
 .debug_abbrev  0x00005789      0x237 /home/leon/git/swp-report/iMX6_Platform_SDK/output/mx6dq/lib/liblwip.a(tcp_in.o)
 .debug_abbrev  0x000059c0      0x280 /home/leon/git/swp-report/iMX6_Platform_SDK/output/mx6dq/lib/liblwip.a(tcp_out.o)
 .debug_abbrev  0x00005c40      0x1e8 /home/leon/git/swp-report/iMX6_Platform_SDK/output/mx6dq/lib/liblwip.a(timers.o)
 .debug_abbrev  0x00005e28      0x265 /home/leon/git/swp-report/iMX6_Platform_SDK/output/mx6dq/lib/liblwip.a(udp.o)
 .debug_abbrev  0x0000608d      0x24b /home/leon/git/swp-report/iMX6_Platform_SDK/output/mx6dq/lib/liblwip.a(etharp.o)
 .debug_abbrev  0x000062d8      0x337 /home/leon/git/swp-report/iMX6_Platform_SDK/output/mx6dq/lib/liblwip.a(mx6_ethernetif.o)
 .debug_abbrev  0x0000660f      0x18a /home/leon/git/swp-report/iMX6_Platform_SDK/output/mx6dq/lib/liblwip.a(mx6_lwip.o)
 .debug_abbrev  0x00006799       0x51 /home/leon/git/swp-report/iMX6_Platform_SDK/output/mx6dq/lib/liblwip.a(sys_arch.o)
 .debug_abbrev  0x000067ea       0x98 /home/leon/git/swp-report/iMX6_Platform_SDK/output/mx6dq/lib/liblwip.a(def.o)
 .debug_abbrev  0x00006882      0x149 /home/leon/git/swp-report/iMX6_Platform_SDK/output/mx6dq/lib/liblwip.a(inet_chksum.o)
 .debug_abbrev  0x000069cb      0x1e4 /home/leon/git/swp-report/iMX6_Platform_SDK/output/mx6dq/lib/liblwip.a(icmp.o)
 .debug_abbrev  0x00006baf      0x155 /home/leon/git/swp-report/iMX6_Platform_SDK/output/mx6dq/lib/liblwip.a(asn1_dec.o)
 .debug_abbrev  0x00006d04      0x152 /home/leon/git/swp-report/iMX6_Platform_SDK/output/mx6dq/lib/liblwip.a(asn1_enc.o)
 .debug_abbrev  0x00006e56       0xf9 /home/leon/git/swp-report/iMX6_Platform_SDK/output/mx6dq/lib/libsdk.a(max7310.o)
 .debug_abbrev  0x00006f4f      0x1e2 /home/leon/git/swp-report/iMX6_Platform_SDK/output/mx6dq/lib/libsdk.a(runtime_support.o)
 .debug_abbrev  0x00007131      0x228 /home/leon/git/swp-report/iMX6_Platform_SDK/output/mx6dq/lib/libsdk.a(gpio.o)
 .debug_abbrev  0x00007359       0x5b /home/leon/git/swp-report/iMX6_Platform_SDK/output/mx6dq/lib/libsdk.a(imx6dq_gpio_map.o)
 .debug_abbrev  0x000073b4      0x2c9 /home/leon/git/swp-report/iMX6_Platform_SDK/output/mx6dq/lib/libsdk.a(imx_i2c.o)
 .debug_abbrev  0x0000767d       0x86 /home/leon/git/swp-report/iMX6_Platform_SDK/output/mx6dq/lib/libboard_sabre_ai_rev_c.a(board_network.o)
 .debug_abbrev  0x00007703       0x79 /home/leon/git/swp-report/iMX6_Platform_SDK/output/mx6dq/lib/libboard_sabre_ai_rev_c.a(i2c_iomux_config.o)

.debug_aranges  0x00000000      0xab8
 .debug_aranges
                0x00000000       0x18 /home/leon/git/swp-report/iMX6_Platform_SDK/output/mx6dq/httpd/sabre_ai_rev_c/obj/apps/common/ivt.o
 .debug_aranges
                0x00000018       0x20 /home/leon/git/swp-report/iMX6_Platform_SDK/output/mx6dq/httpd/sabre_ai_rev_c/obj/apps/common/platform_init.o
 .debug_aranges
                0x00000038       0x20 /home/leon/git/swp-report/iMX6_Platform_SDK/output/mx6dq/httpd/sabre_ai_rev_c/obj/apps/httpd/src/httpd_main.o
 .debug_aranges
                0x00000058       0x20 /home/leon/git/swp-report/iMX6_Platform_SDK/output/mx6dq/httpd/sabre_ai_rev_c/obj/lwip/contrib/apps/httpserver_raw/fs.o
 .debug_aranges
                0x00000078       0x20 /home/leon/git/swp-report/iMX6_Platform_SDK/output/mx6dq/httpd/sabre_ai_rev_c/obj/lwip/contrib/apps/httpserver_raw/httpd.o
 .debug_aranges
                0x00000098       0x20 /home/leon/git/swp-report/iMX6_Platform_SDK/output/mx6dq/lib/libsdk.a(ccm_pll.o)
 .debug_aranges
                0x000000b8       0x20 /home/leon/git/swp-report/iMX6_Platform_SDK/output/mx6dq/lib/libsdk.a(gic.o)
 .debug_aranges
                0x000000d8       0x20 /home/leon/git/swp-report/iMX6_Platform_SDK/output/mx6dq/lib/libsdk.a(mmu.o)
 .debug_aranges
                0x000000f8       0x20 /home/leon/git/swp-report/iMX6_Platform_SDK/output/mx6dq/lib/libsdk.a(system_util.o)
 .debug_aranges
                0x00000118       0x20 /home/leon/git/swp-report/iMX6_Platform_SDK/output/mx6dq/lib/libsdk.a(text_color.o)
 .debug_aranges
                0x00000138       0x20 /home/leon/git/swp-report/iMX6_Platform_SDK/output/mx6dq/lib/libsdk.a(enet_drv.o)
 .debug_aranges
                0x00000158       0x20 /home/leon/git/swp-report/iMX6_Platform_SDK/output/mx6dq/lib/libsdk.a(timer.o)
 .debug_aranges
                0x00000178       0x20 /home/leon/git/swp-report/iMX6_Platform_SDK/output/mx6dq/lib/libsdk.a(imx_uart.o)
 .debug_aranges
                0x00000198       0x20 /home/leon/git/swp-report/iMX6_Platform_SDK/output/mx6dq/lib/libsdk.a(interrupt.o)
 .debug_aranges
                0x000001b8       0x20 /home/leon/git/swp-report/iMX6_Platform_SDK/output/mx6dq/lib/libsdk.a(epit.o)
 .debug_aranges
                0x000001d8       0x20 /home/leon/git/swp-report/iMX6_Platform_SDK/output/mx6dq/lib/libsdk.a(abort_handler.o)
 .debug_aranges
                0x000001f8       0x20 /home/leon/git/swp-report/iMX6_Platform_SDK/output/mx6dq/lib/libboard_sabre_ai_rev_c.a(board_io_expanders.o)
 .debug_aranges
                0x00000218       0x18 /home/leon/git/swp-report/iMX6_Platform_SDK/output/mx6dq/lib/libboard_sabre_ai_rev_c.a(hardware_modules.o)
 .debug_aranges
                0x00000230       0x18 /home/leon/git/swp-report/iMX6_Platform_SDK/output/mx6dq/lib/libboard_sabre_ai_rev_c.a(dcd.o)
 .debug_aranges
                0x00000248       0x20 /home/leon/git/swp-report/iMX6_Platform_SDK/output/mx6dq/lib/libboard_sabre_ai_rev_c.a(i2c3_iomux_config.o)
 .debug_aranges
                0x00000268       0x20 /home/leon/git/swp-report/iMX6_Platform_SDK/output/mx6dq/lib/libboard_sabre_ai_rev_c.a(uart_iomux_config.o)
 .debug_aranges
                0x00000288       0x20 /home/leon/git/swp-report/iMX6_Platform_SDK/output/mx6dq/lib/libboard_sabre_ai_rev_c.a(iomux_config.o)
 .debug_aranges
                0x000002a8       0x20 /home/leon/git/swp-report/iMX6_Platform_SDK/output/mx6dq/lib/libboard_sabre_ai_rev_c.a(ipu1_iomux_config.o)
 .debug_aranges
                0x000002c8       0x20 /home/leon/git/swp-report/iMX6_Platform_SDK/output/mx6dq/lib/libboard_sabre_ai_rev_c.a(mlb_iomux_config.o)
 .debug_aranges
                0x000002e8       0x20 /home/leon/git/swp-report/iMX6_Platform_SDK/output/mx6dq/lib/libboard_sabre_ai_rev_c.a(mmdc_iomux_config.o)
 .debug_aranges
                0x00000308       0x20 /home/leon/git/swp-report/iMX6_Platform_SDK/output/mx6dq/lib/libboard_sabre_ai_rev_c.a(pwm3_iomux_config.o)
 .debug_aranges
                0x00000328       0x20 /home/leon/git/swp-report/iMX6_Platform_SDK/output/mx6dq/lib/libboard_sabre_ai_rev_c.a(pwm4_iomux_config.o)
 .debug_aranges
                0x00000348       0x20 /home/leon/git/swp-report/iMX6_Platform_SDK/output/mx6dq/lib/libboard_sabre_ai_rev_c.a(sjc_iomux_config.o)
 .debug_aranges
                0x00000368       0x20 /home/leon/git/swp-report/iMX6_Platform_SDK/output/mx6dq/lib/libboard_sabre_ai_rev_c.a(spdif_iomux_config.o)
 .debug_aranges
                0x00000388       0x20 /home/leon/git/swp-report/iMX6_Platform_SDK/output/mx6dq/lib/libboard_sabre_ai_rev_c.a(uart2_iomux_config.o)
 .debug_aranges
                0x000003a8       0x20 /home/leon/git/swp-report/iMX6_Platform_SDK/output/mx6dq/lib/libboard_sabre_ai_rev_c.a(uart3_iomux_config.o)
 .debug_aranges
                0x000003c8       0x20 /home/leon/git/swp-report/iMX6_Platform_SDK/output/mx6dq/lib/libboard_sabre_ai_rev_c.a(uart4_iomux_config.o)
 .debug_aranges
                0x000003e8       0x20 /home/leon/git/swp-report/iMX6_Platform_SDK/output/mx6dq/lib/libboard_sabre_ai_rev_c.a(usdhc1_iomux_config.o)
 .debug_aranges
                0x00000408       0x20 /home/leon/git/swp-report/iMX6_Platform_SDK/output/mx6dq/lib/libboard_sabre_ai_rev_c.a(usdhc3_iomux_config.o)
 .debug_aranges
                0x00000428       0x20 /home/leon/git/swp-report/iMX6_Platform_SDK/output/mx6dq/lib/libboard_sabre_ai_rev_c.a(wdog1_iomux_config.o)
 .debug_aranges
                0x00000448       0x20 /home/leon/git/swp-report/iMX6_Platform_SDK/output/mx6dq/lib/libboard_sabre_ai_rev_c.a(audmux_iomux_config.o)
 .debug_aranges
                0x00000468       0x20 /home/leon/git/swp-report/iMX6_Platform_SDK/output/mx6dq/lib/libboard_sabre_ai_rev_c.a(ccm_iomux_config.o)
 .debug_aranges
                0x00000488       0x20 /home/leon/git/swp-report/iMX6_Platform_SDK/output/mx6dq/lib/libboard_sabre_ai_rev_c.a(ecspi1_iomux_config.o)
 .debug_aranges
                0x000004a8       0x20 /home/leon/git/swp-report/iMX6_Platform_SDK/output/mx6dq/lib/libboard_sabre_ai_rev_c.a(eim_iomux_config.o)
 .debug_aranges
                0x000004c8       0x20 /home/leon/git/swp-report/iMX6_Platform_SDK/output/mx6dq/lib/libboard_sabre_ai_rev_c.a(enet_iomux_config.o)
 .debug_aranges
                0x000004e8       0x20 /home/leon/git/swp-report/iMX6_Platform_SDK/output/mx6dq/lib/libboard_sabre_ai_rev_c.a(esai_iomux_config.o)
 .debug_aranges
                0x00000508       0x20 /home/leon/git/swp-report/iMX6_Platform_SDK/output/mx6dq/lib/libboard_sabre_ai_rev_c.a(flexcan1_iomux_config.o)
 .debug_aranges
                0x00000528       0x20 /home/leon/git/swp-report/iMX6_Platform_SDK/output/mx6dq/lib/libboard_sabre_ai_rev_c.a(flexcan2_iomux_config.o)
 .debug_aranges
                0x00000548       0x20 /home/leon/git/swp-report/iMX6_Platform_SDK/output/mx6dq/lib/libboard_sabre_ai_rev_c.a(gpio1_iomux_config.o)
 .debug_aranges
                0x00000568       0x20 /home/leon/git/swp-report/iMX6_Platform_SDK/output/mx6dq/lib/libboard_sabre_ai_rev_c.a(gpio2_iomux_config.o)
 .debug_aranges
                0x00000588       0x20 /home/leon/git/swp-report/iMX6_Platform_SDK/output/mx6dq/lib/libboard_sabre_ai_rev_c.a(gpio4_iomux_config.o)
 .debug_aranges
                0x000005a8       0x20 /home/leon/git/swp-report/iMX6_Platform_SDK/output/mx6dq/lib/libboard_sabre_ai_rev_c.a(gpio5_iomux_config.o)
 .debug_aranges
                0x000005c8       0x20 /home/leon/git/swp-report/iMX6_Platform_SDK/output/mx6dq/lib/libboard_sabre_ai_rev_c.a(gpio6_iomux_config.o)
 .debug_aranges
                0x000005e8       0x20 /home/leon/git/swp-report/iMX6_Platform_SDK/output/mx6dq/lib/libboard_sabre_ai_rev_c.a(gpmi_iomux_config.o)
 .debug_aranges
                0x00000608       0x20 /home/leon/git/swp-report/iMX6_Platform_SDK/output/mx6dq/lib/libboard_sabre_ai_rev_c.a(i2c2_iomux_config.o)
 .debug_aranges
                0x00000628       0x20 /home/leon/git/swp-report/iMX6_Platform_SDK/output/mx6dq/lib/liblwip.a(dhcp.o)
 .debug_aranges
                0x00000648       0x20 /home/leon/git/swp-report/iMX6_Platform_SDK/output/mx6dq/lib/liblwip.a(dns.o)
 .debug_aranges
                0x00000668       0x20 /home/leon/git/swp-report/iMX6_Platform_SDK/output/mx6dq/lib/liblwip.a(init.o)
 .debug_aranges
                0x00000688       0x20 /home/leon/git/swp-report/iMX6_Platform_SDK/output/mx6dq/lib/liblwip.a(autoip.o)
 .debug_aranges
                0x000006a8       0x20 /home/leon/git/swp-report/iMX6_Platform_SDK/output/mx6dq/lib/liblwip.a(igmp.o)
 .debug_aranges
                0x000006c8       0x20 /home/leon/git/swp-report/iMX6_Platform_SDK/output/mx6dq/lib/liblwip.a(ip4.o)
 .debug_aranges
                0x000006e8       0x20 /home/leon/git/swp-report/iMX6_Platform_SDK/output/mx6dq/lib/liblwip.a(ip4_addr.o)
 .debug_aranges
                0x00000708       0x18 /home/leon/git/swp-report/iMX6_Platform_SDK/output/mx6dq/lib/liblwip.a(memp.o)
 .debug_aranges
                0x00000720       0x20 /home/leon/git/swp-report/iMX6_Platform_SDK/output/mx6dq/lib/liblwip.a(netif.o)
 .debug_aranges
                0x00000740       0x20 /home/leon/git/swp-report/iMX6_Platform_SDK/output/mx6dq/lib/liblwip.a(pbuf.o)
 .debug_aranges
                0x00000760       0x20 /home/leon/git/swp-report/iMX6_Platform_SDK/output/mx6dq/lib/liblwip.a(raw.o)
 .debug_aranges
                0x00000780       0x20 /home/leon/git/swp-report/iMX6_Platform_SDK/output/mx6dq/lib/liblwip.a(mib2.o)
 .debug_aranges
                0x000007a0       0x20 /home/leon/git/swp-report/iMX6_Platform_SDK/output/mx6dq/lib/liblwip.a(mib_structs.o)
 .debug_aranges
                0x000007c0       0x20 /home/leon/git/swp-report/iMX6_Platform_SDK/output/mx6dq/lib/liblwip.a(msg_in.o)
 .debug_aranges
                0x000007e0       0x20 /home/leon/git/swp-report/iMX6_Platform_SDK/output/mx6dq/lib/liblwip.a(msg_out.o)
 .debug_aranges
                0x00000800       0x20 /home/leon/git/swp-report/iMX6_Platform_SDK/output/mx6dq/lib/liblwip.a(stats.o)
 .debug_aranges
                0x00000820       0x20 /home/leon/git/swp-report/iMX6_Platform_SDK/output/mx6dq/lib/liblwip.a(tcp.o)
 .debug_aranges
                0x00000840       0x20 /home/leon/git/swp-report/iMX6_Platform_SDK/output/mx6dq/lib/liblwip.a(tcp_in.o)
 .debug_aranges
                0x00000860       0x20 /home/leon/git/swp-report/iMX6_Platform_SDK/output/mx6dq/lib/liblwip.a(tcp_out.o)
 .debug_aranges
                0x00000880       0x20 /home/leon/git/swp-report/iMX6_Platform_SDK/output/mx6dq/lib/liblwip.a(timers.o)
 .debug_aranges
                0x000008a0       0x20 /home/leon/git/swp-report/iMX6_Platform_SDK/output/mx6dq/lib/liblwip.a(udp.o)
 .debug_aranges
                0x000008c0       0x20 /home/leon/git/swp-report/iMX6_Platform_SDK/output/mx6dq/lib/liblwip.a(etharp.o)
 .debug_aranges
                0x000008e0       0x20 /home/leon/git/swp-report/iMX6_Platform_SDK/output/mx6dq/lib/liblwip.a(mx6_ethernetif.o)
 .debug_aranges
                0x00000900       0x20 /home/leon/git/swp-report/iMX6_Platform_SDK/output/mx6dq/lib/liblwip.a(mx6_lwip.o)
 .debug_aranges
                0x00000920       0x20 /home/leon/git/swp-report/iMX6_Platform_SDK/output/mx6dq/lib/liblwip.a(sys_arch.o)
 .debug_aranges
                0x00000940       0x20 /home/leon/git/swp-report/iMX6_Platform_SDK/output/mx6dq/lib/liblwip.a(def.o)
 .debug_aranges
                0x00000960       0x20 /home/leon/git/swp-report/iMX6_Platform_SDK/output/mx6dq/lib/liblwip.a(inet_chksum.o)
 .debug_aranges
                0x00000980       0x20 /home/leon/git/swp-report/iMX6_Platform_SDK/output/mx6dq/lib/liblwip.a(icmp.o)
 .debug_aranges
                0x000009a0       0x20 /home/leon/git/swp-report/iMX6_Platform_SDK/output/mx6dq/lib/liblwip.a(asn1_dec.o)
 .debug_aranges
                0x000009c0       0x20 /home/leon/git/swp-report/iMX6_Platform_SDK/output/mx6dq/lib/liblwip.a(asn1_enc.o)
 .debug_aranges
                0x000009e0       0x20 /home/leon/git/swp-report/iMX6_Platform_SDK/output/mx6dq/lib/libsdk.a(max7310.o)
 .debug_aranges
                0x00000a00       0x20 /home/leon/git/swp-report/iMX6_Platform_SDK/output/mx6dq/lib/libsdk.a(runtime_support.o)
 .debug_aranges
                0x00000a20       0x20 /home/leon/git/swp-report/iMX6_Platform_SDK/output/mx6dq/lib/libsdk.a(gpio.o)
 .debug_aranges
                0x00000a40       0x18 /home/leon/git/swp-report/iMX6_Platform_SDK/output/mx6dq/lib/libsdk.a(imx6dq_gpio_map.o)
 .debug_aranges
                0x00000a58       0x20 /home/leon/git/swp-report/iMX6_Platform_SDK/output/mx6dq/lib/libsdk.a(imx_i2c.o)
 .debug_aranges
                0x00000a78       0x20 /home/leon/git/swp-report/iMX6_Platform_SDK/output/mx6dq/lib/libboard_sabre_ai_rev_c.a(board_network.o)
 .debug_aranges
                0x00000a98       0x20 /home/leon/git/swp-report/iMX6_Platform_SDK/output/mx6dq/lib/libboard_sabre_ai_rev_c.a(i2c_iomux_config.o)

.debug_line     0x00000000     0xffd8
 .debug_line    0x00000000      0x103 /home/leon/git/swp-report/iMX6_Platform_SDK/output/mx6dq/httpd/sabre_ai_rev_c/obj/apps/common/ivt.o
 .debug_line    0x00000103      0x17e /home/leon/git/swp-report/iMX6_Platform_SDK/output/mx6dq/httpd/sabre_ai_rev_c/obj/apps/common/platform_init.o
 .debug_line    0x00000281      0x364 /home/leon/git/swp-report/iMX6_Platform_SDK/output/mx6dq/httpd/sabre_ai_rev_c/obj/apps/httpd/src/httpd_main.o
 .debug_line    0x000005e5      0x1c2 /home/leon/git/swp-report/iMX6_Platform_SDK/output/mx6dq/httpd/sabre_ai_rev_c/obj/lwip/contrib/apps/httpserver_raw/fs.o
 .debug_line    0x000007a7      0x50c /home/leon/git/swp-report/iMX6_Platform_SDK/output/mx6dq/httpd/sabre_ai_rev_c/obj/lwip/contrib/apps/httpserver_raw/httpd.o
 .debug_line    0x00000cb3      0x272 /home/leon/git/swp-report/iMX6_Platform_SDK/output/mx6dq/lib/libsdk.a(ccm_pll.o)
 .debug_line    0x00000f25      0x165 /home/leon/git/swp-report/iMX6_Platform_SDK/output/mx6dq/lib/libsdk.a(gic.o)
 .debug_line    0x0000108a      0x188 /home/leon/git/swp-report/iMX6_Platform_SDK/output/mx6dq/lib/libsdk.a(mmu.o)
 .debug_line    0x00001212      0x365 /home/leon/git/swp-report/iMX6_Platform_SDK/output/mx6dq/lib/libsdk.a(system_util.o)
 .debug_line    0x00001577       0xf0 /home/leon/git/swp-report/iMX6_Platform_SDK/output/mx6dq/lib/libsdk.a(text_color.o)
 .debug_line    0x00001667      0x379 /home/leon/git/swp-report/iMX6_Platform_SDK/output/mx6dq/lib/libsdk.a(enet_drv.o)
 .debug_line    0x000019e0      0x200 /home/leon/git/swp-report/iMX6_Platform_SDK/output/mx6dq/lib/libsdk.a(timer.o)
 .debug_line    0x00001be0     0x12ca /home/leon/git/swp-report/iMX6_Platform_SDK/output/mx6dq/lib/libsdk.a(imx_uart.o)
 .debug_line    0x00002eaa      0x180 /home/leon/git/swp-report/iMX6_Platform_SDK/output/mx6dq/lib/libsdk.a(interrupt.o)
 .debug_line    0x0000302a      0x57f /home/leon/git/swp-report/iMX6_Platform_SDK/output/mx6dq/lib/libsdk.a(epit.o)
 .debug_line    0x000035a9      0x24a /home/leon/git/swp-report/iMX6_Platform_SDK/output/mx6dq/lib/libsdk.a(abort_handler.o)
 .debug_line    0x000037f3      0x180 /home/leon/git/swp-report/iMX6_Platform_SDK/output/mx6dq/lib/libboard_sabre_ai_rev_c.a(board_io_expanders.o)
 .debug_line    0x00003973       0xc8 /home/leon/git/swp-report/iMX6_Platform_SDK/output/mx6dq/lib/libboard_sabre_ai_rev_c.a(hardware_modules.o)
 .debug_line    0x00003a3b      0x10c /home/leon/git/swp-report/iMX6_Platform_SDK/output/mx6dq/lib/libboard_sabre_ai_rev_c.a(dcd.o)
 .debug_line    0x00003b47      0x10d /home/leon/git/swp-report/iMX6_Platform_SDK/output/mx6dq/lib/libboard_sabre_ai_rev_c.a(i2c3_iomux_config.o)
 .debug_line    0x00003c54       0x99 /home/leon/git/swp-report/iMX6_Platform_SDK/output/mx6dq/lib/libboard_sabre_ai_rev_c.a(uart_iomux_config.o)
 .debug_line    0x00003ced       0xf1 /home/leon/git/swp-report/iMX6_Platform_SDK/output/mx6dq/lib/libboard_sabre_ai_rev_c.a(iomux_config.o)
 .debug_line    0x00003dde      0x1f1 /home/leon/git/swp-report/iMX6_Platform_SDK/output/mx6dq/lib/libboard_sabre_ai_rev_c.a(ipu1_iomux_config.o)
 .debug_line    0x00003fcf      0x10d /home/leon/git/swp-report/iMX6_Platform_SDK/output/mx6dq/lib/libboard_sabre_ai_rev_c.a(mlb_iomux_config.o)
 .debug_line    0x000040dc      0x685 /home/leon/git/swp-report/iMX6_Platform_SDK/output/mx6dq/lib/libboard_sabre_ai_rev_c.a(mmdc_iomux_config.o)
 .debug_line    0x00004761       0xfb /home/leon/git/swp-report/iMX6_Platform_SDK/output/mx6dq/lib/libboard_sabre_ai_rev_c.a(pwm3_iomux_config.o)
 .debug_line    0x0000485c       0xfb /home/leon/git/swp-report/iMX6_Platform_SDK/output/mx6dq/lib/libboard_sabre_ai_rev_c.a(pwm4_iomux_config.o)
 .debug_line    0x00004957      0x104 /home/leon/git/swp-report/iMX6_Platform_SDK/output/mx6dq/lib/libboard_sabre_ai_rev_c.a(sjc_iomux_config.o)
 .debug_line    0x00004a5b       0xfd /home/leon/git/swp-report/iMX6_Platform_SDK/output/mx6dq/lib/libboard_sabre_ai_rev_c.a(spdif_iomux_config.o)
 .debug_line    0x00004b58      0x118 /home/leon/git/swp-report/iMX6_Platform_SDK/output/mx6dq/lib/libboard_sabre_ai_rev_c.a(uart2_iomux_config.o)
 .debug_line    0x00004c70      0x118 /home/leon/git/swp-report/iMX6_Platform_SDK/output/mx6dq/lib/libboard_sabre_ai_rev_c.a(uart3_iomux_config.o)
 .debug_line    0x00004d88      0x106 /home/leon/git/swp-report/iMX6_Platform_SDK/output/mx6dq/lib/libboard_sabre_ai_rev_c.a(uart4_iomux_config.o)
 .debug_line    0x00004e8e      0x139 /home/leon/git/swp-report/iMX6_Platform_SDK/output/mx6dq/lib/libboard_sabre_ai_rev_c.a(usdhc1_iomux_config.o)
 .debug_line    0x00004fc7      0x13f /home/leon/git/swp-report/iMX6_Platform_SDK/output/mx6dq/lib/libboard_sabre_ai_rev_c.a(usdhc3_iomux_config.o)
 .debug_line    0x00005106       0xfc /home/leon/git/swp-report/iMX6_Platform_SDK/output/mx6dq/lib/libboard_sabre_ai_rev_c.a(wdog1_iomux_config.o)
 .debug_line    0x00005202      0x12a /home/leon/git/swp-report/iMX6_Platform_SDK/output/mx6dq/lib/libboard_sabre_ai_rev_c.a(audmux_iomux_config.o)
 .debug_line    0x0000532c       0xf8 /home/leon/git/swp-report/iMX6_Platform_SDK/output/mx6dq/lib/libboard_sabre_ai_rev_c.a(ccm_iomux_config.o)
 .debug_line    0x00005424      0x11f /home/leon/git/swp-report/iMX6_Platform_SDK/output/mx6dq/lib/libboard_sabre_ai_rev_c.a(ecspi1_iomux_config.o)
 .debug_line    0x00005543      0x1fc /home/leon/git/swp-report/iMX6_Platform_SDK/output/mx6dq/lib/libboard_sabre_ai_rev_c.a(eim_iomux_config.o)
 .debug_line    0x0000573f      0x198 /home/leon/git/swp-report/iMX6_Platform_SDK/output/mx6dq/lib/libboard_sabre_ai_rev_c.a(enet_iomux_config.o)
 .debug_line    0x000058d7      0x14d /home/leon/git/swp-report/iMX6_Platform_SDK/output/mx6dq/lib/libboard_sabre_ai_rev_c.a(esai_iomux_config.o)
 .debug_line    0x00005a24      0x108 /home/leon/git/swp-report/iMX6_Platform_SDK/output/mx6dq/lib/libboard_sabre_ai_rev_c.a(flexcan1_iomux_config.o)
 .debug_line    0x00005b2c      0x108 /home/leon/git/swp-report/iMX6_Platform_SDK/output/mx6dq/lib/libboard_sabre_ai_rev_c.a(flexcan2_iomux_config.o)
 .debug_line    0x00005c34      0x124 /home/leon/git/swp-report/iMX6_Platform_SDK/output/mx6dq/lib/libboard_sabre_ai_rev_c.a(gpio1_iomux_config.o)
 .debug_line    0x00005d58      0x120 /home/leon/git/swp-report/iMX6_Platform_SDK/output/mx6dq/lib/libboard_sabre_ai_rev_c.a(gpio2_iomux_config.o)
 .debug_line    0x00005e78      0x102 /home/leon/git/swp-report/iMX6_Platform_SDK/output/mx6dq/lib/libboard_sabre_ai_rev_c.a(gpio4_iomux_config.o)
 .debug_line    0x00005f7a      0x114 /home/leon/git/swp-report/iMX6_Platform_SDK/output/mx6dq/lib/libboard_sabre_ai_rev_c.a(gpio5_iomux_config.o)
 .debug_line    0x0000608e      0x102 /home/leon/git/swp-report/iMX6_Platform_SDK/output/mx6dq/lib/libboard_sabre_ai_rev_c.a(gpio6_iomux_config.o)
 .debug_line    0x00006190      0x15b /home/leon/git/swp-report/iMX6_Platform_SDK/output/mx6dq/lib/libboard_sabre_ai_rev_c.a(gpmi_iomux_config.o)
 .debug_line    0x000062eb      0x105 /home/leon/git/swp-report/iMX6_Platform_SDK/output/mx6dq/lib/libboard_sabre_ai_rev_c.a(i2c2_iomux_config.o)
 .debug_line    0x000063f0      0x98b /home/leon/git/swp-report/iMX6_Platform_SDK/output/mx6dq/lib/liblwip.a(dhcp.o)
 .debug_line    0x00006d7b      0x40c /home/leon/git/swp-report/iMX6_Platform_SDK/output/mx6dq/lib/liblwip.a(dns.o)
 .debug_line    0x00007187       0x83 /home/leon/git/swp-report/iMX6_Platform_SDK/output/mx6dq/lib/liblwip.a(init.o)
 .debug_line    0x0000720a      0x3ca /home/leon/git/swp-report/iMX6_Platform_SDK/output/mx6dq/lib/liblwip.a(autoip.o)
 .debug_line    0x000075d4      0x422 /home/leon/git/swp-report/iMX6_Platform_SDK/output/mx6dq/lib/liblwip.a(igmp.o)
 .debug_line    0x000079f6      0x3e5 /home/leon/git/swp-report/iMX6_Platform_SDK/output/mx6dq/lib/liblwip.a(ip4.o)
 .debug_line    0x00007ddb      0x301 /home/leon/git/swp-report/iMX6_Platform_SDK/output/mx6dq/lib/liblwip.a(ip4_addr.o)
 .debug_line    0x000080dc      0x15d /home/leon/git/swp-report/iMX6_Platform_SDK/output/mx6dq/lib/liblwip.a(memp.o)
 .debug_line    0x00008239      0x433 /home/leon/git/swp-report/iMX6_Platform_SDK/output/mx6dq/lib/liblwip.a(netif.o)
 .debug_line    0x0000866c      0x5e2 /home/leon/git/swp-report/iMX6_Platform_SDK/output/mx6dq/lib/liblwip.a(pbuf.o)
 .debug_line    0x00008c4e      0x2f7 /home/leon/git/swp-report/iMX6_Platform_SDK/output/mx6dq/lib/liblwip.a(raw.o)
 .debug_line    0x00008f45      0xbdc /home/leon/git/swp-report/iMX6_Platform_SDK/output/mx6dq/lib/liblwip.a(mib2.o)
 .debug_line    0x00009b21      0x573 /home/leon/git/swp-report/iMX6_Platform_SDK/output/mx6dq/lib/liblwip.a(mib_structs.o)
 .debug_line    0x0000a094      0x747 /home/leon/git/swp-report/iMX6_Platform_SDK/output/mx6dq/lib/liblwip.a(msg_in.o)
 .debug_line    0x0000a7db      0x3bd /home/leon/git/swp-report/iMX6_Platform_SDK/output/mx6dq/lib/liblwip.a(msg_out.o)
 .debug_line    0x0000ab98      0x1fd /home/leon/git/swp-report/iMX6_Platform_SDK/output/mx6dq/lib/liblwip.a(stats.o)
 .debug_line    0x0000ad95      0x83d /home/leon/git/swp-report/iMX6_Platform_SDK/output/mx6dq/lib/liblwip.a(tcp.o)
 .debug_line    0x0000b5d2      0x962 /home/leon/git/swp-report/iMX6_Platform_SDK/output/mx6dq/lib/liblwip.a(tcp_in.o)
 .debug_line    0x0000bf34      0x72b /home/leon/git/swp-report/iMX6_Platform_SDK/output/mx6dq/lib/liblwip.a(tcp_out.o)
 .debug_line    0x0000c65f      0x2e2 /home/leon/git/swp-report/iMX6_Platform_SDK/output/mx6dq/lib/liblwip.a(timers.o)
 .debug_line    0x0000c941      0x4c2 /home/leon/git/swp-report/iMX6_Platform_SDK/output/mx6dq/lib/liblwip.a(udp.o)
 .debug_line    0x0000ce03      0x6ed /home/leon/git/swp-report/iMX6_Platform_SDK/output/mx6dq/lib/liblwip.a(etharp.o)
 .debug_line    0x0000d4f0      0x3ad /home/leon/git/swp-report/iMX6_Platform_SDK/output/mx6dq/lib/liblwip.a(mx6_ethernetif.o)
 .debug_line    0x0000d89d      0x273 /home/leon/git/swp-report/iMX6_Platform_SDK/output/mx6dq/lib/liblwip.a(mx6_lwip.o)
 .debug_line    0x0000db10      0x119 /home/leon/git/swp-report/iMX6_Platform_SDK/output/mx6dq/lib/liblwip.a(sys_arch.o)
 .debug_line    0x0000dc29      0x133 /home/leon/git/swp-report/iMX6_Platform_SDK/output/mx6dq/lib/liblwip.a(def.o)
 .debug_line    0x0000dd5c      0x281 /home/leon/git/swp-report/iMX6_Platform_SDK/output/mx6dq/lib/liblwip.a(inet_chksum.o)
 .debug_line    0x0000dfdd      0x2dd /home/leon/git/swp-report/iMX6_Platform_SDK/output/mx6dq/lib/liblwip.a(icmp.o)
 .debug_line    0x0000e2ba      0x38e /home/leon/git/swp-report/iMX6_Platform_SDK/output/mx6dq/lib/liblwip.a(asn1_dec.o)
 .debug_line    0x0000e648      0x346 /home/leon/git/swp-report/iMX6_Platform_SDK/output/mx6dq/lib/liblwip.a(asn1_enc.o)
 .debug_line    0x0000e98e      0x194 /home/leon/git/swp-report/iMX6_Platform_SDK/output/mx6dq/lib/libsdk.a(max7310.o)
 .debug_line    0x0000eb22      0x234 /home/leon/git/swp-report/iMX6_Platform_SDK/output/mx6dq/lib/libsdk.a(runtime_support.o)
 .debug_line    0x0000ed56      0x7ba /home/leon/git/swp-report/iMX6_Platform_SDK/output/mx6dq/lib/libsdk.a(gpio.o)
 .debug_line    0x0000f510       0xcf /home/leon/git/swp-report/iMX6_Platform_SDK/output/mx6dq/lib/libsdk.a(imx6dq_gpio_map.o)
 .debug_line    0x0000f5df      0x892 /home/leon/git/swp-report/iMX6_Platform_SDK/output/mx6dq/lib/libsdk.a(imx_i2c.o)
 .debug_line    0x0000fe71       0xd2 /home/leon/git/swp-report/iMX6_Platform_SDK/output/mx6dq/lib/libboard_sabre_ai_rev_c.a(board_network.o)
 .debug_line    0x0000ff43       0x95 /home/leon/git/swp-report/iMX6_Platform_SDK/output/mx6dq/lib/libboard_sabre_ai_rev_c.a(i2c_iomux_config.o)

.debug_str      0x00000000    0x1a94e
 .debug_str     0x00000000      0x14a /home/leon/git/swp-report/iMX6_Platform_SDK/output/mx6dq/httpd/sabre_ai_rev_c/obj/apps/common/ivt.o
                                0x1ad (size before relaxing)
 .debug_str     0x0000014a      0x146 /home/leon/git/swp-report/iMX6_Platform_SDK/output/mx6dq/httpd/sabre_ai_rev_c/obj/apps/common/platform_init.o
                                0x1f5 (size before relaxing)
 .debug_str     0x00000290     0x10d1 /home/leon/git/swp-report/iMX6_Platform_SDK/output/mx6dq/httpd/sabre_ai_rev_c/obj/apps/httpd/src/httpd_main.o
                               0x1321 (size before relaxing)
 .debug_str     0x00001361      0x1a0 /home/leon/git/swp-report/iMX6_Platform_SDK/output/mx6dq/httpd/sabre_ai_rev_c/obj/lwip/contrib/apps/httpserver_raw/fs.o
                                0x277 (size before relaxing)
 .debug_str     0x00001501      0x536 /home/leon/git/swp-report/iMX6_Platform_SDK/output/mx6dq/httpd/sabre_ai_rev_c/obj/lwip/contrib/apps/httpserver_raw/httpd.o
                                0x8af (size before relaxing)
 .debug_str     0x00001a37      0xfab /home/leon/git/swp-report/iMX6_Platform_SDK/output/mx6dq/lib/libsdk.a(ccm_pll.o)
                               0x10fc (size before relaxing)
 .debug_str     0x000029e2      0x49f /home/leon/git/swp-report/iMX6_Platform_SDK/output/mx6dq/lib/libsdk.a(gic.o)
                                0x5f2 (size before relaxing)
 .debug_str     0x00002e81      0x24e /home/leon/git/swp-report/iMX6_Platform_SDK/output/mx6dq/lib/libsdk.a(mmu.o)
                                0x35e (size before relaxing)
 .debug_str     0x000030cf      0x4d5 /home/leon/git/swp-report/iMX6_Platform_SDK/output/mx6dq/lib/libsdk.a(system_util.o)
                                0x7ac (size before relaxing)
 .debug_str     0x000035a4      0x1ef /home/leon/git/swp-report/iMX6_Platform_SDK/output/mx6dq/lib/libsdk.a(text_color.o)
                                0x305 (size before relaxing)
 .debug_str     0x00003793      0x3d8 /home/leon/git/swp-report/iMX6_Platform_SDK/output/mx6dq/lib/libsdk.a(enet_drv.o)
                               0x1153 (size before relaxing)
 .debug_str     0x00003b6b      0x2c0 /home/leon/git/swp-report/iMX6_Platform_SDK/output/mx6dq/lib/libsdk.a(timer.o)
                                0x3f8 (size before relaxing)
 .debug_str     0x00003e2b     0x1041 /home/leon/git/swp-report/iMX6_Platform_SDK/output/mx6dq/lib/libsdk.a(imx_uart.o)
                               0x12ee (size before relaxing)
 .debug_str     0x00004e6c       0xd7 /home/leon/git/swp-report/iMX6_Platform_SDK/output/mx6dq/lib/libsdk.a(interrupt.o)
                                0xc85 (size before relaxing)
 .debug_str     0x00004f43      0x27c /home/leon/git/swp-report/iMX6_Platform_SDK/output/mx6dq/lib/libsdk.a(epit.o)
                                0xf06 (size before relaxing)
 .debug_str     0x000051bf       0xbc /home/leon/git/swp-report/iMX6_Platform_SDK/output/mx6dq/lib/libsdk.a(abort_handler.o)
                                0x1a1 (size before relaxing)
 .debug_str     0x0000527b      0x1b8 /home/leon/git/swp-report/iMX6_Platform_SDK/output/mx6dq/lib/libboard_sabre_ai_rev_c.a(board_io_expanders.o)
                                0x297 (size before relaxing)
 .debug_str     0x00005433       0x4c /home/leon/git/swp-report/iMX6_Platform_SDK/output/mx6dq/lib/libboard_sabre_ai_rev_c.a(hardware_modules.o)
                                0x152 (size before relaxing)
 .debug_str     0x0000547f       0xae /home/leon/git/swp-report/iMX6_Platform_SDK/output/mx6dq/lib/libboard_sabre_ai_rev_c.a(dcd.o)
                                0x15d (size before relaxing)
 .debug_str     0x0000552d      0x439 /home/leon/git/swp-report/iMX6_Platform_SDK/output/mx6dq/lib/libboard_sabre_ai_rev_c.a(i2c3_iomux_config.o)
                                0x4a8 (size before relaxing)
 .debug_str     0x00005966       0xc0 /home/leon/git/swp-report/iMX6_Platform_SDK/output/mx6dq/lib/libboard_sabre_ai_rev_c.a(uart_iomux_config.o)
                                0x176 (size before relaxing)
 .debug_str     0x00005a26      0x2f4 /home/leon/git/swp-report/iMX6_Platform_SDK/output/mx6dq/lib/libboard_sabre_ai_rev_c.a(iomux_config.o)
                                0x31e (size before relaxing)
 .debug_str     0x00005d1a     0x29ad /home/leon/git/swp-report/iMX6_Platform_SDK/output/mx6dq/lib/libboard_sabre_ai_rev_c.a(ipu1_iomux_config.o)
                               0x2a2a (size before relaxing)
 .debug_str     0x000086c7      0x4b2 /home/leon/git/swp-report/iMX6_Platform_SDK/output/mx6dq/lib/libboard_sabre_ai_rev_c.a(mlb_iomux_config.o)
                                0x535 (size before relaxing)
 .debug_str     0x00008b79     0x21a1 /home/leon/git/swp-report/iMX6_Platform_SDK/output/mx6dq/lib/libboard_sabre_ai_rev_c.a(mmdc_iomux_config.o)
                               0x2214 (size before relaxing)
 .debug_str     0x0000ad1a      0x161 /home/leon/git/swp-report/iMX6_Platform_SDK/output/mx6dq/lib/libboard_sabre_ai_rev_c.a(pwm3_iomux_config.o)
                                0x1de (size before relaxing)
 .debug_str     0x0000ae7b      0x161 /home/leon/git/swp-report/iMX6_Platform_SDK/output/mx6dq/lib/libboard_sabre_ai_rev_c.a(pwm4_iomux_config.o)
                                0x1de (size before relaxing)
 .debug_str     0x0000afdc      0x32f /home/leon/git/swp-report/iMX6_Platform_SDK/output/mx6dq/lib/libboard_sabre_ai_rev_c.a(sjc_iomux_config.o)
                                0x39e (size before relaxing)
 .debug_str     0x0000b30b      0x1e0 /home/leon/git/swp-report/iMX6_Platform_SDK/output/mx6dq/lib/libboard_sabre_ai_rev_c.a(spdif_iomux_config.o)
                                0x263 (size before relaxing)
 .debug_str     0x0000b4eb      0x51b /home/leon/git/swp-report/iMX6_Platform_SDK/output/mx6dq/lib/libboard_sabre_ai_rev_c.a(uart2_iomux_config.o)
                                0x59e (size before relaxing)
 .debug_str     0x0000ba06      0x521 /home/leon/git/swp-report/iMX6_Platform_SDK/output/mx6dq/lib/libboard_sabre_ai_rev_c.a(uart3_iomux_config.o)
                                0x5a4 (size before relaxing)
 .debug_str     0x0000bf27      0x2d1 /home/leon/git/swp-report/iMX6_Platform_SDK/output/mx6dq/lib/libboard_sabre_ai_rev_c.a(uart4_iomux_config.o)
                                0x354 (size before relaxing)
 .debug_str     0x0000c1f8      0xab7 /home/leon/git/swp-report/iMX6_Platform_SDK/output/mx6dq/lib/libboard_sabre_ai_rev_c.a(usdhc1_iomux_config.o)
                                0xb34 (size before relaxing)
 .debug_str     0x0000ccaf      0xb75 /home/leon/git/swp-report/iMX6_Platform_SDK/output/mx6dq/lib/libboard_sabre_ai_rev_c.a(usdhc3_iomux_config.o)
                                0xbf2 (size before relaxing)
 .debug_str     0x0000d824       0x75 /home/leon/git/swp-report/iMX6_Platform_SDK/output/mx6dq/lib/libboard_sabre_ai_rev_c.a(wdog1_iomux_config.o)
                                0x1f2 (size before relaxing)
 .debug_str     0x0000d899      0x421 /home/leon/git/swp-report/iMX6_Platform_SDK/output/mx6dq/lib/libboard_sabre_ai_rev_c.a(audmux_iomux_config.o)
                                0x95c (size before relaxing)
 .debug_str     0x0000dcba      0x14d /home/leon/git/swp-report/iMX6_Platform_SDK/output/mx6dq/lib/libboard_sabre_ai_rev_c.a(ccm_iomux_config.o)
                                0x1ca (size before relaxing)
 .debug_str     0x0000de07      0x61d /home/leon/git/swp-report/iMX6_Platform_SDK/output/mx6dq/lib/libboard_sabre_ai_rev_c.a(ecspi1_iomux_config.o)
                                0x794 (size before relaxing)
 .debug_str     0x0000e424     0x248f /home/leon/git/swp-report/iMX6_Platform_SDK/output/mx6dq/lib/libboard_sabre_ai_rev_c.a(eim_iomux_config.o)
                               0x29d0 (size before relaxing)
 .debug_str     0x000108b3     0x1356 /home/leon/git/swp-report/iMX6_Platform_SDK/output/mx6dq/lib/libboard_sabre_ai_rev_c.a(enet_iomux_config.o)
                               0x13ed (size before relaxing)
 .debug_str     0x00011c09      0xe83 /home/leon/git/swp-report/iMX6_Platform_SDK/output/mx6dq/lib/libboard_sabre_ai_rev_c.a(esai_iomux_config.o)
                                0xf06 (size before relaxing)
 .debug_str     0x00012a8c      0x1da /home/leon/git/swp-report/iMX6_Platform_SDK/output/mx6dq/lib/libboard_sabre_ai_rev_c.a(flexcan1_iomux_config.o)
                                0x345 (size before relaxing)
 .debug_str     0x00012c66      0x2c2 /home/leon/git/swp-report/iMX6_Platform_SDK/output/mx6dq/lib/libboard_sabre_ai_rev_c.a(flexcan2_iomux_config.o)
                                0x345 (size before relaxing)
 .debug_str     0x00012f28      0x7d3 /home/leon/git/swp-report/iMX6_Platform_SDK/output/mx6dq/lib/libboard_sabre_ai_rev_c.a(gpio1_iomux_config.o)
                                0x850 (size before relaxing)
 .debug_str     0x000136fb      0x6c7 /home/leon/git/swp-report/iMX6_Platform_SDK/output/mx6dq/lib/libboard_sabre_ai_rev_c.a(gpio2_iomux_config.o)
                                0x744 (size before relaxing)
 .debug_str     0x00013dc2      0x15d /home/leon/git/swp-report/iMX6_Platform_SDK/output/mx6dq/lib/libboard_sabre_ai_rev_c.a(gpio4_iomux_config.o)
                                0x2b6 (size before relaxing)
 .debug_str     0x00013f1f      0x575 /home/leon/git/swp-report/iMX6_Platform_SDK/output/mx6dq/lib/libboard_sabre_ai_rev_c.a(gpio5_iomux_config.o)
                                0x5f2 (size before relaxing)
 .debug_str     0x00014494      0x251 /home/leon/git/swp-report/iMX6_Platform_SDK/output/mx6dq/lib/libboard_sabre_ai_rev_c.a(gpio6_iomux_config.o)
                                0x2ce (size before relaxing)
 .debug_str     0x000146e5      0xae3 /home/leon/git/swp-report/iMX6_Platform_SDK/output/mx6dq/lib/libboard_sabre_ai_rev_c.a(gpmi_iomux_config.o)
                               0x110c (size before relaxing)
 .debug_str     0x000151c8      0x32b /home/leon/git/swp-report/iMX6_Platform_SDK/output/mx6dq/lib/libboard_sabre_ai_rev_c.a(i2c2_iomux_config.o)
                                0x3ae (size before relaxing)
 .debug_str     0x000154f3      0x422 /home/leon/git/swp-report/iMX6_Platform_SDK/output/mx6dq/lib/liblwip.a(dhcp.o)
                                0xa0d (size before relaxing)
 .debug_str     0x00015915      0x228 /home/leon/git/swp-report/iMX6_Platform_SDK/output/mx6dq/lib/liblwip.a(dns.o)
                                0x59e (size before relaxing)
 .debug_str     0x00015b3d       0x50 /home/leon/git/swp-report/iMX6_Platform_SDK/output/mx6dq/lib/liblwip.a(init.o)
                                0x12d (size before relaxing)
 .debug_str     0x00015b8d      0x1f8 /home/leon/git/swp-report/iMX6_Platform_SDK/output/mx6dq/lib/liblwip.a(autoip.o)
                                0x51c (size before relaxing)
 .debug_str     0x00015d85      0x384 /home/leon/git/swp-report/iMX6_Platform_SDK/output/mx6dq/lib/liblwip.a(igmp.o)
                                0x868 (size before relaxing)
 .debug_str     0x00016109      0x155 /home/leon/git/swp-report/iMX6_Platform_SDK/output/mx6dq/lib/liblwip.a(ip4.o)
                                0x92e (size before relaxing)
 .debug_str     0x0001625e       0xc7 /home/leon/git/swp-report/iMX6_Platform_SDK/output/mx6dq/lib/liblwip.a(ip4_addr.o)
                                0x3ee (size before relaxing)
 .debug_str     0x00016325       0x46 /home/leon/git/swp-report/iMX6_Platform_SDK/output/mx6dq/lib/liblwip.a(memp.o)
                                0x21b (size before relaxing)
 .debug_str     0x0001636b      0x203 /home/leon/git/swp-report/iMX6_Platform_SDK/output/mx6dq/lib/liblwip.a(netif.o)
                                0xc00 (size before relaxing)
 .debug_str     0x0001656e      0x235 /home/leon/git/swp-report/iMX6_Platform_SDK/output/mx6dq/lib/liblwip.a(pbuf.o)
                                0x81b (size before relaxing)
 .debug_str     0x000167a3       0xdf /home/leon/git/swp-report/iMX6_Platform_SDK/output/mx6dq/lib/liblwip.a(raw.o)
                                0x626 (size before relaxing)
 .debug_str     0x00016882     0x1530 /home/leon/git/swp-report/iMX6_Platform_SDK/output/mx6dq/lib/liblwip.a(mib2.o)
                               0x20e1 (size before relaxing)
 .debug_str     0x00017db2      0x2f8 /home/leon/git/swp-report/iMX6_Platform_SDK/output/mx6dq/lib/liblwip.a(mib_structs.o)
                                0x822 (size before relaxing)
 .debug_str     0x000180aa      0x448 /home/leon/git/swp-report/iMX6_Platform_SDK/output/mx6dq/lib/liblwip.a(msg_in.o)
                                0x93c (size before relaxing)
 .debug_str     0x000184f2      0x195 /home/leon/git/swp-report/iMX6_Platform_SDK/output/mx6dq/lib/liblwip.a(msg_out.o)
                                0x98d (size before relaxing)
 .debug_str     0x00018687       0xc9 /home/leon/git/swp-report/iMX6_Platform_SDK/output/mx6dq/lib/liblwip.a(stats.o)
                                0x3c9 (size before relaxing)
 .debug_str     0x00018750      0x3d8 /home/leon/git/swp-report/iMX6_Platform_SDK/output/mx6dq/lib/liblwip.a(tcp.o)
                                0xc73 (size before relaxing)
 .debug_str     0x00018b28      0x173 /home/leon/git/swp-report/iMX6_Platform_SDK/output/mx6dq/lib/liblwip.a(tcp_in.o)
                                0xac6 (size before relaxing)
 .debug_str     0x00018c9b      0x1e8 /home/leon/git/swp-report/iMX6_Platform_SDK/output/mx6dq/lib/liblwip.a(tcp_out.o)
                                0xa98 (size before relaxing)
 .debug_str     0x00018e83      0x17a /home/leon/git/swp-report/iMX6_Platform_SDK/output/mx6dq/lib/liblwip.a(timers.o)
                                0x70d (size before relaxing)
 .debug_str     0x00018ffd      0x13a /home/leon/git/swp-report/iMX6_Platform_SDK/output/mx6dq/lib/liblwip.a(udp.o)
                                0x9b0 (size before relaxing)
 .debug_str     0x00019137      0x347 /home/leon/git/swp-report/iMX6_Platform_SDK/output/mx6dq/lib/liblwip.a(etharp.o)
                                0xb34 (size before relaxing)
 .debug_str     0x0001947e      0x3ec /home/leon/git/swp-report/iMX6_Platform_SDK/output/mx6dq/lib/liblwip.a(mx6_ethernetif.o)
                               0x1702 (size before relaxing)
 .debug_str     0x0001986a      0x11d /home/leon/git/swp-report/iMX6_Platform_SDK/output/mx6dq/lib/liblwip.a(mx6_lwip.o)
                                0x6f4 (size before relaxing)
 .debug_str     0x00019987       0x48 /home/leon/git/swp-report/iMX6_Platform_SDK/output/mx6dq/lib/liblwip.a(sys_arch.o)
                                0x130 (size before relaxing)
 .debug_str     0x000199cf       0x71 /home/leon/git/swp-report/iMX6_Platform_SDK/output/mx6dq/lib/liblwip.a(def.o)
                                0x16c (size before relaxing)
 .debug_str     0x00019a40      0x107 /home/leon/git/swp-report/iMX6_Platform_SDK/output/mx6dq/lib/liblwip.a(inet_chksum.o)
                                0x280 (size before relaxing)
 .debug_str     0x00019b47       0xa0 /home/leon/git/swp-report/iMX6_Platform_SDK/output/mx6dq/lib/liblwip.a(icmp.o)
                                0x65d (size before relaxing)
 .debug_str     0x00019be7       0xfa /home/leon/git/swp-report/iMX6_Platform_SDK/output/mx6dq/lib/liblwip.a(asn1_dec.o)
                                0x274 (size before relaxing)
 .debug_str     0x00019ce1      0x132 /home/leon/git/swp-report/iMX6_Platform_SDK/output/mx6dq/lib/liblwip.a(asn1_enc.o)
                                0x2cc (size before relaxing)
 .debug_str     0x00019e13      0x112 /home/leon/git/swp-report/iMX6_Platform_SDK/output/mx6dq/lib/libsdk.a(max7310.o)
                                0x2ab (size before relaxing)
 .debug_str     0x00019f25      0x21a /home/leon/git/swp-report/iMX6_Platform_SDK/output/mx6dq/lib/libsdk.a(runtime_support.o)
                                0x3ac (size before relaxing)
 .debug_str     0x0001a13f      0x37a /home/leon/git/swp-report/iMX6_Platform_SDK/output/mx6dq/lib/libsdk.a(gpio.o)
                                0x48b (size before relaxing)
 .debug_str     0x0001a4b9       0x53 /home/leon/git/swp-report/iMX6_Platform_SDK/output/mx6dq/lib/libsdk.a(imx6dq_gpio_map.o)
                                0x10a (size before relaxing)
 .debug_str     0x0001a50c      0x330 /home/leon/git/swp-report/iMX6_Platform_SDK/output/mx6dq/lib/libsdk.a(imx_i2c.o)
                               0x1099 (size before relaxing)
 .debug_str     0x0001a83c       0xa1 /home/leon/git/swp-report/iMX6_Platform_SDK/output/mx6dq/lib/libboard_sabre_ai_rev_c.a(board_network.o)
                                0x1d5 (size before relaxing)
 .debug_str     0x0001a8dd       0x71 /home/leon/git/swp-report/iMX6_Platform_SDK/output/mx6dq/lib/libboard_sabre_ai_rev_c.a(i2c_iomux_config.o)
                                0x174 (size before relaxing)

.debug_loc      0x00000000     0x7bec
 .debug_loc     0x00000000       0x2c /home/leon/git/swp-report/iMX6_Platform_SDK/output/mx6dq/httpd/sabre_ai_rev_c/obj/apps/common/platform_init.o
 .debug_loc     0x0000002c       0xb0 /home/leon/git/swp-report/iMX6_Platform_SDK/output/mx6dq/httpd/sabre_ai_rev_c/obj/apps/httpd/src/httpd_main.o
 .debug_loc     0x000000dc       0x84 /home/leon/git/swp-report/iMX6_Platform_SDK/output/mx6dq/httpd/sabre_ai_rev_c/obj/lwip/contrib/apps/httpserver_raw/fs.o
 .debug_loc     0x00000160      0x44c /home/leon/git/swp-report/iMX6_Platform_SDK/output/mx6dq/httpd/sabre_ai_rev_c/obj/lwip/contrib/apps/httpserver_raw/httpd.o
 .debug_loc     0x000005ac      0x18c /home/leon/git/swp-report/iMX6_Platform_SDK/output/mx6dq/lib/libsdk.a(ccm_pll.o)
 .debug_loc     0x00000738      0x2ec /home/leon/git/swp-report/iMX6_Platform_SDK/output/mx6dq/lib/libsdk.a(gic.o)
 .debug_loc     0x00000a24       0xdc /home/leon/git/swp-report/iMX6_Platform_SDK/output/mx6dq/lib/libsdk.a(mmu.o)
 .debug_loc     0x00000b00      0x108 /home/leon/git/swp-report/iMX6_Platform_SDK/output/mx6dq/lib/libsdk.a(system_util.o)
 .debug_loc     0x00000c08       0x58 /home/leon/git/swp-report/iMX6_Platform_SDK/output/mx6dq/lib/libsdk.a(text_color.o)
 .debug_loc     0x00000c60      0x344 /home/leon/git/swp-report/iMX6_Platform_SDK/output/mx6dq/lib/libsdk.a(enet_drv.o)
 .debug_loc     0x00000fa4       0xb0 /home/leon/git/swp-report/iMX6_Platform_SDK/output/mx6dq/lib/libsdk.a(timer.o)
 .debug_loc     0x00001054      0x134 /home/leon/git/swp-report/iMX6_Platform_SDK/output/mx6dq/lib/libsdk.a(imx_uart.o)
 .debug_loc     0x00001188       0xdc /home/leon/git/swp-report/iMX6_Platform_SDK/output/mx6dq/lib/libsdk.a(interrupt.o)
 .debug_loc     0x00001264      0x160 /home/leon/git/swp-report/iMX6_Platform_SDK/output/mx6dq/lib/libsdk.a(epit.o)
 .debug_loc     0x000013c4       0x2c /home/leon/git/swp-report/iMX6_Platform_SDK/output/mx6dq/lib/libsdk.a(abort_handler.o)
 .debug_loc     0x000013f0       0x58 /home/leon/git/swp-report/iMX6_Platform_SDK/output/mx6dq/lib/libboard_sabre_ai_rev_c.a(board_io_expanders.o)
 .debug_loc     0x00001448       0x2c /home/leon/git/swp-report/iMX6_Platform_SDK/output/mx6dq/lib/libboard_sabre_ai_rev_c.a(i2c3_iomux_config.o)
 .debug_loc     0x00001474       0x2c /home/leon/git/swp-report/iMX6_Platform_SDK/output/mx6dq/lib/libboard_sabre_ai_rev_c.a(uart_iomux_config.o)
 .debug_loc     0x000014a0      0x65c /home/leon/git/swp-report/iMX6_Platform_SDK/output/mx6dq/lib/libboard_sabre_ai_rev_c.a(iomux_config.o)
 .debug_loc     0x00001afc       0x2c /home/leon/git/swp-report/iMX6_Platform_SDK/output/mx6dq/lib/libboard_sabre_ai_rev_c.a(ipu1_iomux_config.o)
 .debug_loc     0x00001b28       0x2c /home/leon/git/swp-report/iMX6_Platform_SDK/output/mx6dq/lib/libboard_sabre_ai_rev_c.a(mlb_iomux_config.o)
 .debug_loc     0x00001b54       0x2c /home/leon/git/swp-report/iMX6_Platform_SDK/output/mx6dq/lib/libboard_sabre_ai_rev_c.a(mmdc_iomux_config.o)
 .debug_loc     0x00001b80       0x2c /home/leon/git/swp-report/iMX6_Platform_SDK/output/mx6dq/lib/libboard_sabre_ai_rev_c.a(pwm3_iomux_config.o)
 .debug_loc     0x00001bac       0x2c /home/leon/git/swp-report/iMX6_Platform_SDK/output/mx6dq/lib/libboard_sabre_ai_rev_c.a(pwm4_iomux_config.o)
 .debug_loc     0x00001bd8       0x2c /home/leon/git/swp-report/iMX6_Platform_SDK/output/mx6dq/lib/libboard_sabre_ai_rev_c.a(sjc_iomux_config.o)
 .debug_loc     0x00001c04       0x2c /home/leon/git/swp-report/iMX6_Platform_SDK/output/mx6dq/lib/libboard_sabre_ai_rev_c.a(spdif_iomux_config.o)
 .debug_loc     0x00001c30       0x2c /home/leon/git/swp-report/iMX6_Platform_SDK/output/mx6dq/lib/libboard_sabre_ai_rev_c.a(uart2_iomux_config.o)
 .debug_loc     0x00001c5c       0x2c /home/leon/git/swp-report/iMX6_Platform_SDK/output/mx6dq/lib/libboard_sabre_ai_rev_c.a(uart3_iomux_config.o)
 .debug_loc     0x00001c88       0x2c /home/leon/git/swp-report/iMX6_Platform_SDK/output/mx6dq/lib/libboard_sabre_ai_rev_c.a(uart4_iomux_config.o)
 .debug_loc     0x00001cb4       0x2c /home/leon/git/swp-report/iMX6_Platform_SDK/output/mx6dq/lib/libboard_sabre_ai_rev_c.a(usdhc1_iomux_config.o)
 .debug_loc     0x00001ce0       0x2c /home/leon/git/swp-report/iMX6_Platform_SDK/output/mx6dq/lib/libboard_sabre_ai_rev_c.a(usdhc3_iomux_config.o)
 .debug_loc     0x00001d0c       0x2c /home/leon/git/swp-report/iMX6_Platform_SDK/output/mx6dq/lib/libboard_sabre_ai_rev_c.a(wdog1_iomux_config.o)
 .debug_loc     0x00001d38       0x2c /home/leon/git/swp-report/iMX6_Platform_SDK/output/mx6dq/lib/libboard_sabre_ai_rev_c.a(audmux_iomux_config.o)
 .debug_loc     0x00001d64       0x2c /home/leon/git/swp-report/iMX6_Platform_SDK/output/mx6dq/lib/libboard_sabre_ai_rev_c.a(ccm_iomux_config.o)
 .debug_loc     0x00001d90       0x2c /home/leon/git/swp-report/iMX6_Platform_SDK/output/mx6dq/lib/libboard_sabre_ai_rev_c.a(ecspi1_iomux_config.o)
 .debug_loc     0x00001dbc       0x2c /home/leon/git/swp-report/iMX6_Platform_SDK/output/mx6dq/lib/libboard_sabre_ai_rev_c.a(eim_iomux_config.o)
 .debug_loc     0x00001de8       0x2c /home/leon/git/swp-report/iMX6_Platform_SDK/output/mx6dq/lib/libboard_sabre_ai_rev_c.a(enet_iomux_config.o)
 .debug_loc     0x00001e14       0x2c /home/leon/git/swp-report/iMX6_Platform_SDK/output/mx6dq/lib/libboard_sabre_ai_rev_c.a(esai_iomux_config.o)
 .debug_loc     0x00001e40       0x2c /home/leon/git/swp-report/iMX6_Platform_SDK/output/mx6dq/lib/libboard_sabre_ai_rev_c.a(flexcan1_iomux_config.o)
 .debug_loc     0x00001e6c       0x2c /home/leon/git/swp-report/iMX6_Platform_SDK/output/mx6dq/lib/libboard_sabre_ai_rev_c.a(flexcan2_iomux_config.o)
 .debug_loc     0x00001e98       0x2c /home/leon/git/swp-report/iMX6_Platform_SDK/output/mx6dq/lib/libboard_sabre_ai_rev_c.a(gpio1_iomux_config.o)
 .debug_loc     0x00001ec4       0x2c /home/leon/git/swp-report/iMX6_Platform_SDK/output/mx6dq/lib/libboard_sabre_ai_rev_c.a(gpio2_iomux_config.o)
 .debug_loc     0x00001ef0       0x2c /home/leon/git/swp-report/iMX6_Platform_SDK/output/mx6dq/lib/libboard_sabre_ai_rev_c.a(gpio4_iomux_config.o)
 .debug_loc     0x00001f1c       0x2c /home/leon/git/swp-report/iMX6_Platform_SDK/output/mx6dq/lib/libboard_sabre_ai_rev_c.a(gpio5_iomux_config.o)
 .debug_loc     0x00001f48       0x2c /home/leon/git/swp-report/iMX6_Platform_SDK/output/mx6dq/lib/libboard_sabre_ai_rev_c.a(gpio6_iomux_config.o)
 .debug_loc     0x00001f74       0x2c /home/leon/git/swp-report/iMX6_Platform_SDK/output/mx6dq/lib/libboard_sabre_ai_rev_c.a(gpmi_iomux_config.o)
 .debug_loc     0x00001fa0       0x2c /home/leon/git/swp-report/iMX6_Platform_SDK/output/mx6dq/lib/libboard_sabre_ai_rev_c.a(i2c2_iomux_config.o)
 .debug_loc     0x00001fcc      0x604 /home/leon/git/swp-report/iMX6_Platform_SDK/output/mx6dq/lib/liblwip.a(dhcp.o)
 .debug_loc     0x000025d0      0x23c /home/leon/git/swp-report/iMX6_Platform_SDK/output/mx6dq/lib/liblwip.a(dns.o)
 .debug_loc     0x0000280c       0x2c /home/leon/git/swp-report/iMX6_Platform_SDK/output/mx6dq/lib/liblwip.a(init.o)
 .debug_loc     0x00002838      0x23c /home/leon/git/swp-report/iMX6_Platform_SDK/output/mx6dq/lib/liblwip.a(autoip.o)
 .debug_loc     0x00002a74      0x2ec /home/leon/git/swp-report/iMX6_Platform_SDK/output/mx6dq/lib/liblwip.a(igmp.o)
 .debug_loc     0x00002d60      0x108 /home/leon/git/swp-report/iMX6_Platform_SDK/output/mx6dq/lib/liblwip.a(ip4.o)
 .debug_loc     0x00002e68      0x108 /home/leon/git/swp-report/iMX6_Platform_SDK/output/mx6dq/lib/liblwip.a(ip4_addr.o)
 .debug_loc     0x00002f70      0x318 /home/leon/git/swp-report/iMX6_Platform_SDK/output/mx6dq/lib/liblwip.a(netif.o)
 .debug_loc     0x00003288      0x344 /home/leon/git/swp-report/iMX6_Platform_SDK/output/mx6dq/lib/liblwip.a(pbuf.o)
 .debug_loc     0x000035cc      0x160 /home/leon/git/swp-report/iMX6_Platform_SDK/output/mx6dq/lib/liblwip.a(raw.o)
 .debug_loc     0x0000372c     0x19c8 /home/leon/git/swp-report/iMX6_Platform_SDK/output/mx6dq/lib/liblwip.a(mib2.o)
 .debug_loc     0x000050f4      0x318 /home/leon/git/swp-report/iMX6_Platform_SDK/output/mx6dq/lib/liblwip.a(mib_structs.o)
 .debug_loc     0x0000540c      0x294 /home/leon/git/swp-report/iMX6_Platform_SDK/output/mx6dq/lib/liblwip.a(msg_in.o)
 .debug_loc     0x000056a0      0x210 /home/leon/git/swp-report/iMX6_Platform_SDK/output/mx6dq/lib/liblwip.a(msg_out.o)
 .debug_loc     0x000058b0      0x134 /home/leon/git/swp-report/iMX6_Platform_SDK/output/mx6dq/lib/liblwip.a(stats.o)
 .debug_loc     0x000059e4      0x65c /home/leon/git/swp-report/iMX6_Platform_SDK/output/mx6dq/lib/liblwip.a(tcp.o)
 .debug_loc     0x00006040      0x134 /home/leon/git/swp-report/iMX6_Platform_SDK/output/mx6dq/lib/liblwip.a(tcp_in.o)
 .debug_loc     0x00006174      0x2c0 /home/leon/git/swp-report/iMX6_Platform_SDK/output/mx6dq/lib/liblwip.a(tcp_out.o)
 .debug_loc     0x00006434      0x23c /home/leon/git/swp-report/iMX6_Platform_SDK/output/mx6dq/lib/liblwip.a(timers.o)
 .debug_loc     0x00006670      0x210 /home/leon/git/swp-report/iMX6_Platform_SDK/output/mx6dq/lib/liblwip.a(udp.o)
 .debug_loc     0x00006880      0x2c0 /home/leon/git/swp-report/iMX6_Platform_SDK/output/mx6dq/lib/liblwip.a(etharp.o)
 .debug_loc     0x00006b40      0x160 /home/leon/git/swp-report/iMX6_Platform_SDK/output/mx6dq/lib/liblwip.a(mx6_ethernetif.o)
 .debug_loc     0x00006ca0       0x84 /home/leon/git/swp-report/iMX6_Platform_SDK/output/mx6dq/lib/liblwip.a(mx6_lwip.o)
 .debug_loc     0x00006d24       0x2c /home/leon/git/swp-report/iMX6_Platform_SDK/output/mx6dq/lib/liblwip.a(sys_arch.o)
 .debug_loc     0x00006d50       0xb0 /home/leon/git/swp-report/iMX6_Platform_SDK/output/mx6dq/lib/liblwip.a(def.o)
 .debug_loc     0x00006e00      0x134 /home/leon/git/swp-report/iMX6_Platform_SDK/output/mx6dq/lib/liblwip.a(inet_chksum.o)
 .debug_loc     0x00006f34       0x84 /home/leon/git/swp-report/iMX6_Platform_SDK/output/mx6dq/lib/liblwip.a(icmp.o)
 .debug_loc     0x00006fb8      0x108 /home/leon/git/swp-report/iMX6_Platform_SDK/output/mx6dq/lib/liblwip.a(asn1_dec.o)
 .debug_loc     0x000070c0      0x1b8 /home/leon/git/swp-report/iMX6_Platform_SDK/output/mx6dq/lib/liblwip.a(asn1_enc.o)
 .debug_loc     0x00007278       0xb0 /home/leon/git/swp-report/iMX6_Platform_SDK/output/mx6dq/lib/libsdk.a(max7310.o)
 .debug_loc     0x00007328      0x370 /home/leon/git/swp-report/iMX6_Platform_SDK/output/mx6dq/lib/libsdk.a(runtime_support.o)
 .debug_loc     0x00007698      0x1e4 /home/leon/git/swp-report/iMX6_Platform_SDK/output/mx6dq/lib/libsdk.a(gpio.o)
 .debug_loc     0x0000787c      0x268 /home/leon/git/swp-report/iMX6_Platform_SDK/output/mx6dq/lib/libsdk.a(imx_i2c.o)
 .debug_loc     0x00007ae4       0xdc /home/leon/git/swp-report/iMX6_Platform_SDK/output/mx6dq/lib/libboard_sabre_ai_rev_c.a(board_network.o)
 .debug_loc     0x00007bc0       0x2c /home/leon/git/swp-report/iMX6_Platform_SDK/output/mx6dq/lib/libboard_sabre_ai_rev_c.a(i2c_iomux_config.o)

.debug_frame    0x00000000     0x7178
 .debug_frame   0x00000000       0x30 /home/leon/git/swp-report/iMX6_Platform_SDK/output/mx6dq/httpd/sabre_ai_rev_c/obj/apps/common/platform_init.o
 .debug_frame   0x00000030       0x90 /home/leon/git/swp-report/iMX6_Platform_SDK/output/mx6dq/httpd/sabre_ai_rev_c/obj/apps/httpd/src/httpd_main.o
 .debug_frame   0x000000c0       0x70 /home/leon/git/swp-report/iMX6_Platform_SDK/output/mx6dq/httpd/sabre_ai_rev_c/obj/lwip/contrib/apps/httpserver_raw/fs.o
 .debug_frame   0x00000130      0x330 /home/leon/git/swp-report/iMX6_Platform_SDK/output/mx6dq/httpd/sabre_ai_rev_c/obj/lwip/contrib/apps/httpserver_raw/httpd.o
 .debug_frame   0x00000460      0x130 /home/leon/git/swp-report/iMX6_Platform_SDK/output/mx6dq/lib/libsdk.a(ccm_pll.o)
 .debug_frame   0x00000590      0x230 /home/leon/git/swp-report/iMX6_Platform_SDK/output/mx6dq/lib/libsdk.a(gic.o)
 .debug_frame   0x000007c0       0xb0 /home/leon/git/swp-report/iMX6_Platform_SDK/output/mx6dq/lib/libsdk.a(mmu.o)
 .debug_frame   0x00000870       0xe0 /home/leon/git/swp-report/iMX6_Platform_SDK/output/mx6dq/lib/libsdk.a(system_util.o)
 .debug_frame   0x00000950       0x54 /home/leon/git/swp-report/iMX6_Platform_SDK/output/mx6dq/lib/libsdk.a(text_color.o)
 .debug_frame   0x000009a4      0x270 /home/leon/git/swp-report/iMX6_Platform_SDK/output/mx6dq/lib/libsdk.a(enet_drv.o)
 .debug_frame   0x00000c14       0x94 /home/leon/git/swp-report/iMX6_Platform_SDK/output/mx6dq/lib/libsdk.a(timer.o)
 .debug_frame   0x00000ca8       0xf0 /home/leon/git/swp-report/iMX6_Platform_SDK/output/mx6dq/lib/libsdk.a(imx_uart.o)
 .debug_frame   0x00000d98       0xb8 /home/leon/git/swp-report/iMX6_Platform_SDK/output/mx6dq/lib/libsdk.a(interrupt.o)
 .debug_frame   0x00000e50      0x110 /home/leon/git/swp-report/iMX6_Platform_SDK/output/mx6dq/lib/libsdk.a(epit.o)
 .debug_frame   0x00000f60       0x38 /home/leon/git/swp-report/iMX6_Platform_SDK/output/mx6dq/lib/libsdk.a(abort_handler.o)
 .debug_frame   0x00000f98       0x50 /home/leon/git/swp-report/iMX6_Platform_SDK/output/mx6dq/lib/libboard_sabre_ai_rev_c.a(board_io_expanders.o)
 .debug_frame   0x00000fe8       0x30 /home/leon/git/swp-report/iMX6_Platform_SDK/output/mx6dq/lib/libboard_sabre_ai_rev_c.a(i2c3_iomux_config.o)
 .debug_frame   0x00001018       0x30 /home/leon/git/swp-report/iMX6_Platform_SDK/output/mx6dq/lib/libboard_sabre_ai_rev_c.a(uart_iomux_config.o)
 .debug_frame   0x00001048      0x4b0 /home/leon/git/swp-report/iMX6_Platform_SDK/output/mx6dq/lib/libboard_sabre_ai_rev_c.a(iomux_config.o)
 .debug_frame   0x000014f8       0x30 /home/leon/git/swp-report/iMX6_Platform_SDK/output/mx6dq/lib/libboard_sabre_ai_rev_c.a(ipu1_iomux_config.o)
 .debug_frame   0x00001528       0x30 /home/leon/git/swp-report/iMX6_Platform_SDK/output/mx6dq/lib/libboard_sabre_ai_rev_c.a(mlb_iomux_config.o)
 .debug_frame   0x00001558       0x30 /home/leon/git/swp-report/iMX6_Platform_SDK/output/mx6dq/lib/libboard_sabre_ai_rev_c.a(mmdc_iomux_config.o)
 .debug_frame   0x00001588       0x30 /home/leon/git/swp-report/iMX6_Platform_SDK/output/mx6dq/lib/libboard_sabre_ai_rev_c.a(pwm3_iomux_config.o)
 .debug_frame   0x000015b8       0x30 /home/leon/git/swp-report/iMX6_Platform_SDK/output/mx6dq/lib/libboard_sabre_ai_rev_c.a(pwm4_iomux_config.o)
 .debug_frame   0x000015e8       0x30 /home/leon/git/swp-report/iMX6_Platform_SDK/output/mx6dq/lib/libboard_sabre_ai_rev_c.a(sjc_iomux_config.o)
 .debug_frame   0x00001618       0x30 /home/leon/git/swp-report/iMX6_Platform_SDK/output/mx6dq/lib/libboard_sabre_ai_rev_c.a(spdif_iomux_config.o)
 .debug_frame   0x00001648       0x30 /home/leon/git/swp-report/iMX6_Platform_SDK/output/mx6dq/lib/libboard_sabre_ai_rev_c.a(uart2_iomux_config.o)
 .debug_frame   0x00001678       0x30 /home/leon/git/swp-report/iMX6_Platform_SDK/output/mx6dq/lib/libboard_sabre_ai_rev_c.a(uart3_iomux_config.o)
 .debug_frame   0x000016a8       0x30 /home/leon/git/swp-report/iMX6_Platform_SDK/output/mx6dq/lib/libboard_sabre_ai_rev_c.a(uart4_iomux_config.o)
 .debug_frame   0x000016d8       0x30 /home/leon/git/swp-report/iMX6_Platform_SDK/output/mx6dq/lib/libboard_sabre_ai_rev_c.a(usdhc1_iomux_config.o)
 .debug_frame   0x00001708       0x30 /home/leon/git/swp-report/iMX6_Platform_SDK/output/mx6dq/lib/libboard_sabre_ai_rev_c.a(usdhc3_iomux_config.o)
 .debug_frame   0x00001738       0x30 /home/leon/git/swp-report/iMX6_Platform_SDK/output/mx6dq/lib/libboard_sabre_ai_rev_c.a(wdog1_iomux_config.o)
 .debug_frame   0x00001768       0x30 /home/leon/git/swp-report/iMX6_Platform_SDK/output/mx6dq/lib/libboard_sabre_ai_rev_c.a(audmux_iomux_config.o)
 .debug_frame   0x00001798       0x30 /home/leon/git/swp-report/iMX6_Platform_SDK/output/mx6dq/lib/libboard_sabre_ai_rev_c.a(ccm_iomux_config.o)
 .debug_frame   0x000017c8       0x30 /home/leon/git/swp-report/iMX6_Platform_SDK/output/mx6dq/lib/libboard_sabre_ai_rev_c.a(ecspi1_iomux_config.o)
 .debug_frame   0x000017f8       0x30 /home/leon/git/swp-report/iMX6_Platform_SDK/output/mx6dq/lib/libboard_sabre_ai_rev_c.a(eim_iomux_config.o)
 .debug_frame   0x00001828       0x30 /home/leon/git/swp-report/iMX6_Platform_SDK/output/mx6dq/lib/libboard_sabre_ai_rev_c.a(enet_iomux_config.o)
 .debug_frame   0x00001858       0x30 /home/leon/git/swp-report/iMX6_Platform_SDK/output/mx6dq/lib/libboard_sabre_ai_rev_c.a(esai_iomux_config.o)
 .debug_frame   0x00001888       0x30 /home/leon/git/swp-report/iMX6_Platform_SDK/output/mx6dq/lib/libboard_sabre_ai_rev_c.a(flexcan1_iomux_config.o)
 .debug_frame   0x000018b8       0x30 /home/leon/git/swp-report/iMX6_Platform_SDK/output/mx6dq/lib/libboard_sabre_ai_rev_c.a(flexcan2_iomux_config.o)
 .debug_frame   0x000018e8       0x30 /home/leon/git/swp-report/iMX6_Platform_SDK/output/mx6dq/lib/libboard_sabre_ai_rev_c.a(gpio1_iomux_config.o)
 .debug_frame   0x00001918       0x30 /home/leon/git/swp-report/iMX6_Platform_SDK/output/mx6dq/lib/libboard_sabre_ai_rev_c.a(gpio2_iomux_config.o)
 .debug_frame   0x00001948       0x30 /home/leon/git/swp-report/iMX6_Platform_SDK/output/mx6dq/lib/libboard_sabre_ai_rev_c.a(gpio4_iomux_config.o)
 .debug_frame   0x00001978       0x30 /home/leon/git/swp-report/iMX6_Platform_SDK/output/mx6dq/lib/libboard_sabre_ai_rev_c.a(gpio5_iomux_config.o)
 .debug_frame   0x000019a8       0x30 /home/leon/git/swp-report/iMX6_Platform_SDK/output/mx6dq/lib/libboard_sabre_ai_rev_c.a(gpio6_iomux_config.o)
 .debug_frame   0x000019d8       0x30 /home/leon/git/swp-report/iMX6_Platform_SDK/output/mx6dq/lib/libboard_sabre_ai_rev_c.a(gpmi_iomux_config.o)
 .debug_frame   0x00001a08       0x30 /home/leon/git/swp-report/iMX6_Platform_SDK/output/mx6dq/lib/libboard_sabre_ai_rev_c.a(i2c2_iomux_config.o)
 .debug_frame   0x00001a38      0x470 /home/leon/git/swp-report/iMX6_Platform_SDK/output/mx6dq/lib/liblwip.a(dhcp.o)
 .debug_frame   0x00001ea8      0x1b0 /home/leon/git/swp-report/iMX6_Platform_SDK/output/mx6dq/lib/liblwip.a(dns.o)
 .debug_frame   0x00002058       0x30 /home/leon/git/swp-report/iMX6_Platform_SDK/output/mx6dq/lib/liblwip.a(init.o)
 .debug_frame   0x00002088      0x1b0 /home/leon/git/swp-report/iMX6_Platform_SDK/output/mx6dq/lib/liblwip.a(autoip.o)
 .debug_frame   0x00002238      0x230 /home/leon/git/swp-report/iMX6_Platform_SDK/output/mx6dq/lib/liblwip.a(igmp.o)
 .debug_frame   0x00002468       0xd0 /home/leon/git/swp-report/iMX6_Platform_SDK/output/mx6dq/lib/liblwip.a(ip4.o)
 .debug_frame   0x00002538       0xd0 /home/leon/git/swp-report/iMX6_Platform_SDK/output/mx6dq/lib/liblwip.a(ip4_addr.o)
 .debug_frame   0x00002608      0x250 /home/leon/git/swp-report/iMX6_Platform_SDK/output/mx6dq/lib/liblwip.a(netif.o)
 .debug_frame   0x00002858      0x270 /home/leon/git/swp-report/iMX6_Platform_SDK/output/mx6dq/lib/liblwip.a(pbuf.o)
 .debug_frame   0x00002ac8      0x110 /home/leon/git/swp-report/iMX6_Platform_SDK/output/mx6dq/lib/liblwip.a(raw.o)
 .debug_frame   0x00002bd8     0x12d0 /home/leon/git/swp-report/iMX6_Platform_SDK/output/mx6dq/lib/liblwip.a(mib2.o)
 .debug_frame   0x00003ea8      0x250 /home/leon/git/swp-report/iMX6_Platform_SDK/output/mx6dq/lib/liblwip.a(mib_structs.o)
 .debug_frame   0x000040f8      0x1f0 /home/leon/git/swp-report/iMX6_Platform_SDK/output/mx6dq/lib/liblwip.a(msg_in.o)
 .debug_frame   0x000042e8      0x190 /home/leon/git/swp-report/iMX6_Platform_SDK/output/mx6dq/lib/liblwip.a(msg_out.o)
 .debug_frame   0x00004478       0xf0 /home/leon/git/swp-report/iMX6_Platform_SDK/output/mx6dq/lib/liblwip.a(stats.o)
 .debug_frame   0x00004568      0x4b0 /home/leon/git/swp-report/iMX6_Platform_SDK/output/mx6dq/lib/liblwip.a(tcp.o)
 .debug_frame   0x00004a18       0xf8 /home/leon/git/swp-report/iMX6_Platform_SDK/output/mx6dq/lib/liblwip.a(tcp_in.o)
 .debug_frame   0x00004b10      0x21c /home/leon/git/swp-report/iMX6_Platform_SDK/output/mx6dq/lib/liblwip.a(tcp_out.o)
 .debug_frame   0x00004d2c      0x1b0 /home/leon/git/swp-report/iMX6_Platform_SDK/output/mx6dq/lib/liblwip.a(timers.o)
 .debug_frame   0x00004edc      0x190 /home/leon/git/swp-report/iMX6_Platform_SDK/output/mx6dq/lib/liblwip.a(udp.o)
 .debug_frame   0x0000506c      0x210 /home/leon/git/swp-report/iMX6_Platform_SDK/output/mx6dq/lib/liblwip.a(etharp.o)
 .debug_frame   0x0000527c      0x110 /home/leon/git/swp-report/iMX6_Platform_SDK/output/mx6dq/lib/liblwip.a(mx6_ethernetif.o)
 .debug_frame   0x0000538c       0x70 /home/leon/git/swp-report/iMX6_Platform_SDK/output/mx6dq/lib/liblwip.a(mx6_lwip.o)
 .debug_frame   0x000053fc       0x30 /home/leon/git/swp-report/iMX6_Platform_SDK/output/mx6dq/lib/liblwip.a(sys_arch.o)
 .debug_frame   0x0000542c       0x90 /home/leon/git/swp-report/iMX6_Platform_SDK/output/mx6dq/lib/liblwip.a(def.o)
 .debug_frame   0x000054bc       0xf0 /home/leon/git/swp-report/iMX6_Platform_SDK/output/mx6dq/lib/liblwip.a(inet_chksum.o)
 .debug_frame   0x000055ac       0x70 /home/leon/git/swp-report/iMX6_Platform_SDK/output/mx6dq/lib/liblwip.a(icmp.o)
 .debug_frame   0x0000561c       0xd0 /home/leon/git/swp-report/iMX6_Platform_SDK/output/mx6dq/lib/liblwip.a(asn1_dec.o)
 .debug_frame   0x000056ec      0x150 /home/leon/git/swp-report/iMX6_Platform_SDK/output/mx6dq/lib/liblwip.a(asn1_enc.o)
 .debug_frame   0x0000583c       0x28 /home/leon/riotboard/arm-2012.09/bin/../arm-none-eabi/lib//libc.a(lib_a-abort.o)
 .debug_frame   0x00005864       0x40 /home/leon/riotboard/arm-2012.09/bin/../arm-none-eabi/lib//libc.a(lib_a-assert.o)
 .debug_frame   0x000058a4       0x20 /home/leon/riotboard/arm-2012.09/bin/../arm-none-eabi/lib//libc.a(lib_a-bzero.o)
 .debug_frame   0x000058c4       0x48 /home/leon/riotboard/arm-2012.09/bin/../arm-none-eabi/lib//libc.a(lib_a-fflush.o)
 .debug_frame   0x0000590c      0x134 /home/leon/riotboard/arm-2012.09/bin/../arm-none-eabi/lib//libc.a(lib_a-findfp.o)
 .debug_frame   0x00005a40       0x54 /home/leon/riotboard/arm-2012.09/bin/../arm-none-eabi/lib//libc.a(lib_a-fiprintf.o)
 .debug_frame   0x00005a94       0x48 /home/leon/riotboard/arm-2012.09/bin/../arm-none-eabi/lib//libc.a(lib_a-fputc.o)
 .debug_frame   0x00005adc       0x50 /home/leon/riotboard/arm-2012.09/bin/../arm-none-eabi/lib//libc.a(lib_a-freer.o)
 .debug_frame   0x00005b2c       0x54 /home/leon/riotboard/arm-2012.09/bin/../arm-none-eabi/lib//libc.a(lib_a-fwalk.o)
 .debug_frame   0x00005b80       0x2c /home/leon/riotboard/arm-2012.09/bin/../arm-none-eabi/lib//libc.a(lib_a-init.o)
 .debug_frame   0x00005bac       0x40 /home/leon/riotboard/arm-2012.09/bin/../arm-none-eabi/lib//libc.a(lib_a-malloc.o)
 .debug_frame   0x00005bec       0x38 /home/leon/riotboard/arm-2012.09/bin/../arm-none-eabi/lib//libc.a(lib_a-mallocr.o)
 .debug_frame   0x00005c24       0x28 /home/leon/riotboard/arm-2012.09/bin/../arm-none-eabi/lib//libc.a(lib_a-memcmp.o)
 .debug_frame   0x00005c4c       0x30 /home/leon/riotboard/arm-2012.09/bin/../arm-none-eabi/lib//libc.a(lib_a-memcpy.o)
 .debug_frame   0x00005c7c       0x28 /home/leon/riotboard/arm-2012.09/bin/../arm-none-eabi/lib//libc.a(lib_a-memset.o)
 .debug_frame   0x00005ca4       0x30 /home/leon/riotboard/arm-2012.09/bin/../arm-none-eabi/lib//libc.a(lib_a-mlock.o)
 .debug_frame   0x00005cd4       0x58 /home/leon/riotboard/arm-2012.09/bin/../arm-none-eabi/lib//libc.a(lib_a-printf.o)
 .debug_frame   0x00005d2c       0x48 /home/leon/riotboard/arm-2012.09/bin/../arm-none-eabi/lib//libc.a(lib_a-putc.o)
 .debug_frame   0x00005d74       0x38 /home/leon/riotboard/arm-2012.09/bin/../arm-none-eabi/lib//libc.a(lib_a-rand.o)
 .debug_frame   0x00005dac       0x28 /home/leon/riotboard/arm-2012.09/bin/../arm-none-eabi/lib//libc.a(lib_a-realloc.o)
 .debug_frame   0x00005dd4       0x38 /home/leon/riotboard/arm-2012.09/bin/../arm-none-eabi/lib//libc.a(lib_a-reallocr.o)
 .debug_frame   0x00005e0c       0x3c /home/leon/riotboard/arm-2012.09/bin/../arm-none-eabi/lib//libc.a(lib_a-rget.o)
 .debug_frame   0x00005e48       0x2c /home/leon/riotboard/arm-2012.09/bin/../arm-none-eabi/lib//libc.a(lib_a-sbrkr.o)
 .debug_frame   0x00005e74       0xc0 /home/leon/riotboard/arm-2012.09/bin/../arm-none-eabi/lib//libc.a(lib_a-signal.o)
 .debug_frame   0x00005f34       0x44 /home/leon/riotboard/arm-2012.09/bin/../arm-none-eabi/lib//libc.a(lib_a-signalr.o)
 .debug_frame   0x00005f78       0x88 /home/leon/riotboard/arm-2012.09/bin/../arm-none-eabi/lib//libc.a(lib_a-stdio.o)
 .debug_frame   0x00006000       0x30 /home/leon/riotboard/arm-2012.09/bin/../arm-none-eabi/lib//libc.a(lib_a-strchr.o)
 .debug_frame   0x00006030       0x30 /home/leon/riotboard/arm-2012.09/bin/../arm-none-eabi/lib//libc.a(lib_a-strcmp.o)
 .debug_frame   0x00006060       0x20 /home/leon/riotboard/arm-2012.09/bin/../arm-none-eabi/lib//libc.a(lib_a-strlen.o)
 .debug_frame   0x00006080       0x28 /home/leon/riotboard/arm-2012.09/bin/../arm-none-eabi/lib//libc.a(lib_a-strncmp.o)
 .debug_frame   0x000060a8       0x7c /home/leon/riotboard/arm-2012.09/bin/../arm-none-eabi/lib//libc.a(lib_a-vfiprintf.o)
 .debug_frame   0x00006124       0x58 /home/leon/riotboard/arm-2012.09/bin/../arm-none-eabi/lib//libc.a(lib_a-vfprintf.o)
 .debug_frame   0x0000617c       0x40 /home/leon/riotboard/arm-2012.09/bin/../arm-none-eabi/lib//libc.a(lib_a-vprintf.o)
 .debug_frame   0x000061bc       0x3c /home/leon/riotboard/arm-2012.09/bin/../arm-none-eabi/lib//libc.a(lib_a-wbuf.o)
 .debug_frame   0x000061f8       0x2c /home/leon/riotboard/arm-2012.09/bin/../arm-none-eabi/lib//libc.a(lib_a-writer.o)
 .debug_frame   0x00006224       0x2c /home/leon/riotboard/arm-2012.09/bin/../arm-none-eabi/lib//libc.a(lib_a-wsetup.o)
 .debug_frame   0x00006250       0x2c /home/leon/riotboard/arm-2012.09/bin/../arm-none-eabi/lib//libc.a(lib_a-closer.o)
 .debug_frame   0x0000627c       0x64 /home/leon/riotboard/arm-2012.09/bin/../arm-none-eabi/lib//libc.a(lib_a-dtoa.o)
 .debug_frame   0x000062e0       0x3c /home/leon/riotboard/arm-2012.09/bin/../arm-none-eabi/lib//libc.a(lib_a-fclose.o)
 .debug_frame   0x0000631c       0x50 /home/leon/riotboard/arm-2012.09/bin/../arm-none-eabi/lib//libc.a(lib_a-fputwc.o)
 .debug_frame   0x0000636c       0x38 /home/leon/riotboard/arm-2012.09/bin/../arm-none-eabi/lib//libc.a(lib_a-fvwrite.o)
 .debug_frame   0x000063a4       0x98 /home/leon/riotboard/arm-2012.09/bin/../arm-none-eabi/lib//libc.a(lib_a-locale.o)
 .debug_frame   0x0000643c       0x2c /home/leon/riotboard/arm-2012.09/bin/../arm-none-eabi/lib//libc.a(lib_a-lseekr.o)
 .debug_frame   0x00006468       0x30 /home/leon/riotboard/arm-2012.09/bin/../arm-none-eabi/lib//libc.a(lib_a-makebuf.o)
 .debug_frame   0x00006498       0x2c /home/leon/riotboard/arm-2012.09/bin/../arm-none-eabi/lib//libc.a(lib_a-memchr.o)
 .debug_frame   0x000064c4       0x2c /home/leon/riotboard/arm-2012.09/bin/../arm-none-eabi/lib//libc.a(lib_a-memmove.o)
 .debug_frame   0x000064f0      0x220 /home/leon/riotboard/arm-2012.09/bin/../arm-none-eabi/lib//libc.a(lib_a-mprec.o)
 .debug_frame   0x00006710       0x2c /home/leon/riotboard/arm-2012.09/bin/../arm-none-eabi/lib//libc.a(lib_a-readr.o)
 .debug_frame   0x0000673c       0x68 /home/leon/riotboard/arm-2012.09/bin/../arm-none-eabi/lib//libc.a(lib_a-reent.o)
 .debug_frame   0x000067a4       0x44 /home/leon/riotboard/arm-2012.09/bin/../arm-none-eabi/lib//libc.a(lib_a-refill.o)
 .debug_frame   0x000067e8       0x20 /home/leon/riotboard/arm-2012.09/bin/../arm-none-eabi/lib//libc.a(lib_a-s_fpclassify.o)
 .debug_frame   0x00006808       0x58 /home/leon/riotboard/arm-2012.09/bin/../arm-none-eabi/lib//libc.a(lib_a-wcrtomb.o)
 .debug_frame   0x00006860       0x44 /home/leon/riotboard/arm-2012.09/bin/../arm-none-eabi/lib//libc.a(lib_a-wctomb_r.o)
 .debug_frame   0x000068a4       0x28 /home/leon/riotboard/arm-2012.09/bin/../arm-none-eabi/lib//libc.a(lib_a-callocr.o)
 .debug_frame   0x000068cc       0x2c /home/leon/riotboard/arm-2012.09/bin/../arm-none-eabi/lib//libc.a(lib_a-fstatr.o)
 .debug_frame   0x000068f8       0x2c /home/leon/riotboard/arm-2012.09/bin/../arm-none-eabi/lib//libc.a(lib_a-isattyr.o)
 .debug_frame   0x00006924       0x20 /home/leon/riotboard/arm-2012.09/bin/../lib/gcc/arm-none-eabi/4.7.2//libgcc.a(_udivsi3.o)
 .debug_frame   0x00006944       0x20 /home/leon/riotboard/arm-2012.09/bin/../lib/gcc/arm-none-eabi/4.7.2//libgcc.a(_divsi3.o)
 .debug_frame   0x00006964       0x54 /home/leon/riotboard/arm-2012.09/bin/../lib/gcc/arm-none-eabi/4.7.2//libgcc.a(bpabi.o)
 .debug_frame   0x000069b8       0x38 /home/leon/riotboard/arm-2012.09/bin/../lib/gcc/arm-none-eabi/4.7.2//libgcc.a(_divdi3.o)
 .debug_frame   0x000069f0       0x38 /home/leon/riotboard/arm-2012.09/bin/../lib/gcc/arm-none-eabi/4.7.2//libgcc.a(_udivdi3.o)
 .debug_frame   0x00006a28       0x90 /home/leon/git/swp-report/iMX6_Platform_SDK/output/mx6dq/lib/libsdk.a(max7310.o)
 .debug_frame   0x00006ab8      0x290 /home/leon/git/swp-report/iMX6_Platform_SDK/output/mx6dq/lib/libsdk.a(runtime_support.o)
 .debug_frame   0x00006d48      0x178 /home/leon/git/swp-report/iMX6_Platform_SDK/output/mx6dq/lib/libsdk.a(gpio.o)
 .debug_frame   0x00006ec0      0x1d8 /home/leon/git/swp-report/iMX6_Platform_SDK/output/mx6dq/lib/libsdk.a(imx_i2c.o)
 .debug_frame   0x00007098       0xb0 /home/leon/git/swp-report/iMX6_Platform_SDK/output/mx6dq/lib/libboard_sabre_ai_rev_c.a(board_network.o)
 .debug_frame   0x00007148       0x30 /home/leon/git/swp-report/iMX6_Platform_SDK/output/mx6dq/lib/libboard_sabre_ai_rev_c.a(i2c_iomux_config.o)

.debug_ranges   0x00000000      0x2c0
 .debug_ranges  0x00000000       0x18 /home/leon/git/swp-report/iMX6_Platform_SDK/output/mx6dq/httpd/sabre_ai_rev_c/obj/apps/httpd/src/httpd_main.o
 .debug_ranges  0x00000018       0x18 /home/leon/git/swp-report/iMX6_Platform_SDK/output/mx6dq/lib/libsdk.a(system_util.o)
 .debug_ranges  0x00000030       0x18 /home/leon/git/swp-report/iMX6_Platform_SDK/output/mx6dq/lib/liblwip.a(netif.o)
 .debug_ranges  0x00000048       0xb0 /home/leon/git/swp-report/iMX6_Platform_SDK/output/mx6dq/lib/liblwip.a(mib2.o)
 .debug_ranges  0x000000f8       0x60 /home/leon/git/swp-report/iMX6_Platform_SDK/output/mx6dq/lib/liblwip.a(mib_structs.o)
 .debug_ranges  0x00000158       0xc0 /home/leon/git/swp-report/iMX6_Platform_SDK/output/mx6dq/lib/liblwip.a(msg_in.o)
 .debug_ranges  0x00000218       0x18 /home/leon/git/swp-report/iMX6_Platform_SDK/output/mx6dq/lib/liblwip.a(tcp.o)
 .debug_ranges  0x00000230       0x78 /home/leon/git/swp-report/iMX6_Platform_SDK/output/mx6dq/lib/liblwip.a(tcp_out.o)
 .debug_ranges  0x000002a8       0x18 /home/leon/git/swp-report/iMX6_Platform_SDK/output/mx6dq/lib/liblwip.a(icmp.o)

Cross Reference Table

Symbol                                            File
IRQ_HDLR                                          /home/leon/git/swp-report/iMX6_Platform_SDK/output/mx6dq/lib/libsdk.a(interrupt.o)
                                                  /home/leon/git/swp-report/iMX6_Platform_SDK/output/mx6dq/lib/libsdk.a(vectors.o)
PLL1_OUTPUT                                       /home/leon/git/swp-report/iMX6_Platform_SDK/output/mx6dq/lib/libsdk.a(ccm_pll.o)
PLL2_OUTPUT                                       /home/leon/git/swp-report/iMX6_Platform_SDK/output/mx6dq/lib/libsdk.a(ccm_pll.o)
PLL3_OUTPUT                                       /home/leon/git/swp-report/iMX6_Platform_SDK/output/mx6dq/lib/libsdk.a(ccm_pll.o)
PLL4_OUTPUT                                       /home/leon/git/swp-report/iMX6_Platform_SDK/output/mx6dq/lib/libsdk.a(ccm_pll.o)
PLL5_OUTPUT                                       /home/leon/git/swp-report/iMX6_Platform_SDK/output/mx6dq/lib/libsdk.a(ccm_pll.o)
_Balloc                                           /home/leon/riotboard/arm-2012.09/bin/../arm-none-eabi/lib//libc.a(lib_a-mprec.o)
                                                  /home/leon/riotboard/arm-2012.09/bin/../arm-none-eabi/lib//libc.a(lib_a-dtoa.o)
_Bfree                                            /home/leon/riotboard/arm-2012.09/bin/../arm-none-eabi/lib//libc.a(lib_a-mprec.o)
                                                  /home/leon/riotboard/arm-2012.09/bin/../arm-none-eabi/lib//libc.a(lib_a-dtoa.o)
_ITM_deregisterTMCloneTable                       /home/leon/riotboard/arm-2012.09/bin/../lib/gcc/arm-none-eabi/4.7.2//crtbegin.o
_ITM_registerTMCloneTable                         /home/leon/riotboard/arm-2012.09/bin/../lib/gcc/arm-none-eabi/4.7.2//crtbegin.o
_Jv_RegisterClasses                               /home/leon/riotboard/arm-2012.09/bin/../lib/gcc/arm-none-eabi/4.7.2//crtbegin.o
_PathLocale                                       /home/leon/riotboard/arm-2012.09/bin/../arm-none-eabi/lib//libc.a(lib_a-locale.o)
__TMC_END__                                       /home/leon/riotboard/arm-2012.09/bin/../lib/gcc/arm-none-eabi/4.7.2//crtend.o
                                                  /home/leon/riotboard/arm-2012.09/bin/../lib/gcc/arm-none-eabi/4.7.2//crtbegin.o
__adddf3                                          /home/leon/riotboard/arm-2012.09/bin/../lib/gcc/arm-none-eabi/4.7.2//libgcc.a(_arm_addsubdf3.o)
__aeabi_cdcmpeq                                   /home/leon/riotboard/arm-2012.09/bin/../lib/gcc/arm-none-eabi/4.7.2//libgcc.a(_arm_cmpdf2.o)
__aeabi_cdcmple                                   /home/leon/riotboard/arm-2012.09/bin/../lib/gcc/arm-none-eabi/4.7.2//libgcc.a(_arm_cmpdf2.o)
__aeabi_cdrcmple                                  /home/leon/riotboard/arm-2012.09/bin/../lib/gcc/arm-none-eabi/4.7.2//libgcc.a(_arm_cmpdf2.o)
__aeabi_d2iz                                      /home/leon/riotboard/arm-2012.09/bin/../lib/gcc/arm-none-eabi/4.7.2//libgcc.a(_arm_fixdfsi.o)
                                                  /home/leon/riotboard/arm-2012.09/bin/../arm-none-eabi/lib//libc.a(lib_a-dtoa.o)
__aeabi_dadd                                      /home/leon/riotboard/arm-2012.09/bin/../lib/gcc/arm-none-eabi/4.7.2//libgcc.a(_arm_addsubdf3.o)
                                                  /home/leon/riotboard/arm-2012.09/bin/../arm-none-eabi/lib//libc.a(lib_a-dtoa.o)
__aeabi_dcmpeq                                    /home/leon/riotboard/arm-2012.09/bin/../lib/gcc/arm-none-eabi/4.7.2//libgcc.a(_arm_cmpdf2.o)
                                                  /home/leon/riotboard/arm-2012.09/bin/../arm-none-eabi/lib//libc.a(lib_a-dtoa.o)
                                                  /home/leon/riotboard/arm-2012.09/bin/../arm-none-eabi/lib//libc.a(lib_a-vfprintf.o)
__aeabi_dcmpge                                    /home/leon/riotboard/arm-2012.09/bin/../lib/gcc/arm-none-eabi/4.7.2//libgcc.a(_arm_cmpdf2.o)
                                                  /home/leon/riotboard/arm-2012.09/bin/../arm-none-eabi/lib//libc.a(lib_a-dtoa.o)
__aeabi_dcmpgt                                    /home/leon/riotboard/arm-2012.09/bin/../lib/gcc/arm-none-eabi/4.7.2//libgcc.a(_arm_cmpdf2.o)
                                                  /home/leon/riotboard/arm-2012.09/bin/../arm-none-eabi/lib//libc.a(lib_a-dtoa.o)
__aeabi_dcmple                                    /home/leon/riotboard/arm-2012.09/bin/../lib/gcc/arm-none-eabi/4.7.2//libgcc.a(_arm_cmpdf2.o)
__aeabi_dcmplt                                    /home/leon/riotboard/arm-2012.09/bin/../lib/gcc/arm-none-eabi/4.7.2//libgcc.a(_arm_cmpdf2.o)
                                                  /home/leon/riotboard/arm-2012.09/bin/../arm-none-eabi/lib//libc.a(lib_a-dtoa.o)
                                                  /home/leon/riotboard/arm-2012.09/bin/../arm-none-eabi/lib//libc.a(lib_a-vfprintf.o)
__aeabi_ddiv                                      /home/leon/riotboard/arm-2012.09/bin/../lib/gcc/arm-none-eabi/4.7.2//libgcc.a(_arm_muldivdf3.o)
                                                  /home/leon/riotboard/arm-2012.09/bin/../arm-none-eabi/lib//libc.a(lib_a-mprec.o)
                                                  /home/leon/riotboard/arm-2012.09/bin/../arm-none-eabi/lib//libc.a(lib_a-dtoa.o)
__aeabi_dmul                                      /home/leon/riotboard/arm-2012.09/bin/../lib/gcc/arm-none-eabi/4.7.2//libgcc.a(_arm_muldivdf3.o)
                                                  /home/leon/riotboard/arm-2012.09/bin/../arm-none-eabi/lib//libc.a(lib_a-mprec.o)
                                                  /home/leon/riotboard/arm-2012.09/bin/../arm-none-eabi/lib//libc.a(lib_a-dtoa.o)
__aeabi_drsub                                     /home/leon/riotboard/arm-2012.09/bin/../lib/gcc/arm-none-eabi/4.7.2//libgcc.a(_arm_addsubdf3.o)
__aeabi_dsub                                      /home/leon/riotboard/arm-2012.09/bin/../lib/gcc/arm-none-eabi/4.7.2//libgcc.a(_arm_addsubdf3.o)
                                                  /home/leon/riotboard/arm-2012.09/bin/../arm-none-eabi/lib//libc.a(lib_a-dtoa.o)
__aeabi_f2d                                       /home/leon/riotboard/arm-2012.09/bin/../lib/gcc/arm-none-eabi/4.7.2//libgcc.a(_arm_addsubdf3.o)
__aeabi_i2d                                       /home/leon/riotboard/arm-2012.09/bin/../lib/gcc/arm-none-eabi/4.7.2//libgcc.a(_arm_addsubdf3.o)
                                                  /home/leon/riotboard/arm-2012.09/bin/../arm-none-eabi/lib//libc.a(lib_a-dtoa.o)
__aeabi_idiv                                      /home/leon/riotboard/arm-2012.09/bin/../lib/gcc/arm-none-eabi/4.7.2//libgcc.a(_divsi3.o)
                                                  /home/leon/git/swp-report/iMX6_Platform_SDK/output/mx6dq/lib/liblwip.a(tcp_in.o)
__aeabi_idiv0                                     /home/leon/riotboard/arm-2012.09/bin/../lib/gcc/arm-none-eabi/4.7.2//libgcc.a(_dvmd_tls.o)
                                                  /home/leon/riotboard/arm-2012.09/bin/../lib/gcc/arm-none-eabi/4.7.2//libgcc.a(_divsi3.o)
                                                  /home/leon/riotboard/arm-2012.09/bin/../lib/gcc/arm-none-eabi/4.7.2//libgcc.a(_udivsi3.o)
__aeabi_idivmod                                   /home/leon/riotboard/arm-2012.09/bin/../lib/gcc/arm-none-eabi/4.7.2//libgcc.a(_divsi3.o)
__aeabi_l2d                                       /home/leon/riotboard/arm-2012.09/bin/../lib/gcc/arm-none-eabi/4.7.2//libgcc.a(_arm_addsubdf3.o)
__aeabi_ldiv0                                     /home/leon/riotboard/arm-2012.09/bin/../lib/gcc/arm-none-eabi/4.7.2//libgcc.a(_dvmd_tls.o)
                                                  /home/leon/riotboard/arm-2012.09/bin/../lib/gcc/arm-none-eabi/4.7.2//libgcc.a(_aeabi_uldivmod.o)
__aeabi_ui2d                                      /home/leon/riotboard/arm-2012.09/bin/../lib/gcc/arm-none-eabi/4.7.2//libgcc.a(_arm_addsubdf3.o)
                                                  /home/leon/riotboard/arm-2012.09/bin/../arm-none-eabi/lib//libc.a(lib_a-dtoa.o)
__aeabi_uidiv                                     /home/leon/riotboard/arm-2012.09/bin/../lib/gcc/arm-none-eabi/4.7.2//libgcc.a(_udivsi3.o)
                                                  /home/leon/git/swp-report/iMX6_Platform_SDK/output/mx6dq/lib/libsdk.a(imx_i2c.o)
                                                  /home/leon/riotboard/arm-2012.09/bin/../lib/gcc/arm-none-eabi/4.7.2//libgcc.a(_udivdi3.o)
                                                  /home/leon/riotboard/arm-2012.09/bin/../lib/gcc/arm-none-eabi/4.7.2//libgcc.a(_divdi3.o)
                                                  /home/leon/riotboard/arm-2012.09/bin/../arm-none-eabi/lib//libc.a(lib_a-dtoa.o)
                                                  /home/leon/git/swp-report/iMX6_Platform_SDK/output/mx6dq/lib/libsdk.a(ccm_pll.o)
__aeabi_uidivmod                                  /home/leon/riotboard/arm-2012.09/bin/../lib/gcc/arm-none-eabi/4.7.2//libgcc.a(_udivsi3.o)
                                                  /home/leon/riotboard/arm-2012.09/bin/../lib/gcc/arm-none-eabi/4.7.2//libgcc.a(_udivdi3.o)
                                                  /home/leon/riotboard/arm-2012.09/bin/../lib/gcc/arm-none-eabi/4.7.2//libgcc.a(_divdi3.o)
                                                  /home/leon/git/swp-report/iMX6_Platform_SDK/output/mx6dq/lib/liblwip.a(igmp.o)
__aeabi_ul2d                                      /home/leon/riotboard/arm-2012.09/bin/../lib/gcc/arm-none-eabi/4.7.2//libgcc.a(_arm_addsubdf3.o)
__aeabi_uldivmod                                  /home/leon/riotboard/arm-2012.09/bin/../lib/gcc/arm-none-eabi/4.7.2//libgcc.a(_aeabi_uldivmod.o)
                                                  /home/leon/git/swp-report/iMX6_Platform_SDK/output/mx6dq/lib/libsdk.a(runtime_support.o)
                                                  /home/leon/riotboard/arm-2012.09/bin/../arm-none-eabi/lib//libc.a(lib_a-vfprintf.o)
                                                  /home/leon/riotboard/arm-2012.09/bin/../arm-none-eabi/lib//libc.a(lib_a-vfiprintf.o)
                                                  /home/leon/git/swp-report/iMX6_Platform_SDK/output/mx6dq/lib/liblwip.a(sys_arch.o)
                                                  /home/leon/git/swp-report/iMX6_Platform_SDK/output/mx6dq/lib/libsdk.a(timer.o)
__any_on                                          /home/leon/riotboard/arm-2012.09/bin/../arm-none-eabi/lib//libc.a(lib_a-mprec.o)
__ascii_wctomb                                    /home/leon/riotboard/arm-2012.09/bin/../arm-none-eabi/lib//libc.a(lib_a-wctomb_r.o)
__assert                                          /home/leon/riotboard/arm-2012.09/bin/../arm-none-eabi/lib//libc.a(lib_a-assert.o)
__assert_func                                     /home/leon/riotboard/arm-2012.09/bin/../arm-none-eabi/lib//libc.a(lib_a-assert.o)
                                                  /home/leon/git/swp-report/iMX6_Platform_SDK/output/mx6dq/lib/libboard_sabre_ai_rev_c.a(i2c_iomux_config.o)
                                                  /home/leon/git/swp-report/iMX6_Platform_SDK/output/mx6dq/lib/libboard_sabre_ai_rev_c.a(uart_iomux_config.o)
                                                  /home/leon/git/swp-report/iMX6_Platform_SDK/output/mx6dq/lib/libsdk.a(gic.o)
__b2d                                             /home/leon/riotboard/arm-2012.09/bin/../arm-none-eabi/lib//libc.a(lib_a-mprec.o)
__bss_end__                                       /home/leon/git/swp-report/iMX6_Platform_SDK/output/mx6dq/lib/libsdk.a(startup.o)
__bss_start__                                     /home/leon/git/swp-report/iMX6_Platform_SDK/output/mx6dq/lib/libsdk.a(startup.o)
__clzsi2                                          /home/leon/riotboard/arm-2012.09/bin/../lib/gcc/arm-none-eabi/4.7.2//libgcc.a(_clzsi2.o)
                                                  /home/leon/riotboard/arm-2012.09/bin/../lib/gcc/arm-none-eabi/4.7.2//libgcc.a(_udivdi3.o)
                                                  /home/leon/riotboard/arm-2012.09/bin/../lib/gcc/arm-none-eabi/4.7.2//libgcc.a(_divdi3.o)
__cmpdf2                                          /home/leon/riotboard/arm-2012.09/bin/../lib/gcc/arm-none-eabi/4.7.2//libgcc.a(_arm_cmpdf2.o)
__copybits                                        /home/leon/riotboard/arm-2012.09/bin/../arm-none-eabi/lib//libc.a(lib_a-mprec.o)
__d2b                                             /home/leon/riotboard/arm-2012.09/bin/../arm-none-eabi/lib//libc.a(lib_a-mprec.o)
                                                  /home/leon/riotboard/arm-2012.09/bin/../arm-none-eabi/lib//libc.a(lib_a-dtoa.o)
__deregister_frame_info                           /home/leon/riotboard/arm-2012.09/bin/../lib/gcc/arm-none-eabi/4.7.2//crtbegin.o
__divdf3                                          /home/leon/riotboard/arm-2012.09/bin/../lib/gcc/arm-none-eabi/4.7.2//libgcc.a(_arm_muldivdf3.o)
__divdi3                                          /home/leon/riotboard/arm-2012.09/bin/../lib/gcc/arm-none-eabi/4.7.2//libgcc.a(_divdi3.o)
                                                  /home/leon/riotboard/arm-2012.09/bin/../lib/gcc/arm-none-eabi/4.7.2//libgcc.a(bpabi.o)
__divsi3                                          /home/leon/riotboard/arm-2012.09/bin/../lib/gcc/arm-none-eabi/4.7.2//libgcc.a(_divsi3.o)
__dso_handle                                      /home/leon/riotboard/arm-2012.09/bin/../lib/gcc/arm-none-eabi/4.7.2//crtbegin.o
__env                                             /home/leon/git/swp-report/iMX6_Platform_SDK/output/mx6dq/lib/libsdk.a(runtime_support.o)
__eqdf2                                           /home/leon/riotboard/arm-2012.09/bin/../lib/gcc/arm-none-eabi/4.7.2//libgcc.a(_arm_cmpdf2.o)
__extendsfdf2                                     /home/leon/riotboard/arm-2012.09/bin/../lib/gcc/arm-none-eabi/4.7.2//libgcc.a(_arm_addsubdf3.o)
__fixdfsi                                         /home/leon/riotboard/arm-2012.09/bin/../lib/gcc/arm-none-eabi/4.7.2//libgcc.a(_arm_fixdfsi.o)
__floatdidf                                       /home/leon/riotboard/arm-2012.09/bin/../lib/gcc/arm-none-eabi/4.7.2//libgcc.a(_arm_addsubdf3.o)
__floatsidf                                       /home/leon/riotboard/arm-2012.09/bin/../lib/gcc/arm-none-eabi/4.7.2//libgcc.a(_arm_addsubdf3.o)
__floatundidf                                     /home/leon/riotboard/arm-2012.09/bin/../lib/gcc/arm-none-eabi/4.7.2//libgcc.a(_arm_addsubdf3.o)
__floatunsidf                                     /home/leon/riotboard/arm-2012.09/bin/../lib/gcc/arm-none-eabi/4.7.2//libgcc.a(_arm_addsubdf3.o)
__fp_lock_all                                     /home/leon/riotboard/arm-2012.09/bin/../arm-none-eabi/lib//libc.a(lib_a-findfp.o)
__fp_unlock_all                                   /home/leon/riotboard/arm-2012.09/bin/../arm-none-eabi/lib//libc.a(lib_a-findfp.o)
__fpclassifyd                                     /home/leon/riotboard/arm-2012.09/bin/../arm-none-eabi/lib//libc.a(lib_a-s_fpclassify.o)
                                                  /home/leon/riotboard/arm-2012.09/bin/../arm-none-eabi/lib//libc.a(lib_a-vfprintf.o)
__gedf2                                           /home/leon/riotboard/arm-2012.09/bin/../lib/gcc/arm-none-eabi/4.7.2//libgcc.a(_arm_cmpdf2.o)
__gnu_ldivmod_helper                              /home/leon/riotboard/arm-2012.09/bin/../lib/gcc/arm-none-eabi/4.7.2//libgcc.a(bpabi.o)
__gnu_uldivmod_helper                             /home/leon/riotboard/arm-2012.09/bin/../lib/gcc/arm-none-eabi/4.7.2//libgcc.a(bpabi.o)
                                                  /home/leon/riotboard/arm-2012.09/bin/../lib/gcc/arm-none-eabi/4.7.2//libgcc.a(_aeabi_uldivmod.o)
__gtdf2                                           /home/leon/riotboard/arm-2012.09/bin/../lib/gcc/arm-none-eabi/4.7.2//libgcc.a(_arm_cmpdf2.o)
__hab_data                                        /home/leon/git/swp-report/iMX6_Platform_SDK/output/mx6dq/httpd/sabre_ai_rev_c/obj/apps/common/ivt.o
__hi0bits                                         /home/leon/riotboard/arm-2012.09/bin/../arm-none-eabi/lib//libc.a(lib_a-mprec.o)
                                                  /home/leon/riotboard/arm-2012.09/bin/../arm-none-eabi/lib//libc.a(lib_a-dtoa.o)
__i2b                                             /home/leon/riotboard/arm-2012.09/bin/../arm-none-eabi/lib//libc.a(lib_a-mprec.o)
                                                  /home/leon/riotboard/arm-2012.09/bin/../arm-none-eabi/lib//libc.a(lib_a-dtoa.o)
__init_array_end                                  /home/leon/riotboard/arm-2012.09/bin/../arm-none-eabi/lib//libc.a(lib_a-init.o)
__init_array_start                                /home/leon/riotboard/arm-2012.09/bin/../arm-none-eabi/lib//libc.a(lib_a-init.o)
__l1_page_table_start                             /home/leon/git/swp-report/iMX6_Platform_SDK/output/mx6dq/lib/libsdk.a(mmu.o)
__ledf2                                           /home/leon/riotboard/arm-2012.09/bin/../lib/gcc/arm-none-eabi/4.7.2//libgcc.a(_arm_cmpdf2.o)
__libc_init_array                                 /home/leon/riotboard/arm-2012.09/bin/../arm-none-eabi/lib//libc.a(lib_a-init.o)
                                                  /home/leon/git/swp-report/iMX6_Platform_SDK/output/mx6dq/lib/libsdk.a(startup.o)
__lo0bits                                         /home/leon/riotboard/arm-2012.09/bin/../arm-none-eabi/lib//libc.a(lib_a-mprec.o)
__locale_charset                                  /home/leon/riotboard/arm-2012.09/bin/../arm-none-eabi/lib//libc.a(lib_a-locale.o)
                                                  /home/leon/riotboard/arm-2012.09/bin/../arm-none-eabi/lib//libc.a(lib_a-wctomb_r.o)
                                                  /home/leon/riotboard/arm-2012.09/bin/../arm-none-eabi/lib//libc.a(lib_a-wcrtomb.o)
__locale_cjk_lang                                 /home/leon/riotboard/arm-2012.09/bin/../arm-none-eabi/lib//libc.a(lib_a-locale.o)
__locale_mb_cur_max                               /home/leon/riotboard/arm-2012.09/bin/../arm-none-eabi/lib//libc.a(lib_a-locale.o)
                                                  /home/leon/riotboard/arm-2012.09/bin/../arm-none-eabi/lib//libc.a(lib_a-fputwc.o)
__locale_msgcharset                               /home/leon/riotboard/arm-2012.09/bin/../arm-none-eabi/lib//libc.a(lib_a-locale.o)
__lshift                                          /home/leon/riotboard/arm-2012.09/bin/../arm-none-eabi/lib//libc.a(lib_a-mprec.o)
                                                  /home/leon/riotboard/arm-2012.09/bin/../arm-none-eabi/lib//libc.a(lib_a-dtoa.o)
__ltdf2                                           /home/leon/riotboard/arm-2012.09/bin/../lib/gcc/arm-none-eabi/4.7.2//libgcc.a(_arm_cmpdf2.o)
__malloc_av_                                      /home/leon/riotboard/arm-2012.09/bin/../arm-none-eabi/lib//libc.a(lib_a-mallocr.o)
                                                  /home/leon/riotboard/arm-2012.09/bin/../arm-none-eabi/lib//libc.a(lib_a-reallocr.o)
                                                  /home/leon/riotboard/arm-2012.09/bin/../arm-none-eabi/lib//libc.a(lib_a-freer.o)
__malloc_current_mallinfo                         /home/leon/riotboard/arm-2012.09/bin/../arm-none-eabi/lib//libc.a(lib_a-mallocr.o)
                                                  /home/leon/riotboard/arm-2012.09/bin/../arm-none-eabi/lib//libc.a(lib_a-freer.o)
__malloc_lock                                     /home/leon/riotboard/arm-2012.09/bin/../arm-none-eabi/lib//libc.a(lib_a-mlock.o)
                                                  /home/leon/riotboard/arm-2012.09/bin/../arm-none-eabi/lib//libc.a(lib_a-reallocr.o)
                                                  /home/leon/riotboard/arm-2012.09/bin/../arm-none-eabi/lib//libc.a(lib_a-mallocr.o)
                                                  /home/leon/riotboard/arm-2012.09/bin/../arm-none-eabi/lib//libc.a(lib_a-freer.o)
__malloc_max_sbrked_mem                           /home/leon/riotboard/arm-2012.09/bin/../arm-none-eabi/lib//libc.a(lib_a-mallocr.o)
__malloc_max_total_mem                            /home/leon/riotboard/arm-2012.09/bin/../arm-none-eabi/lib//libc.a(lib_a-mallocr.o)
__malloc_sbrk_base                                /home/leon/riotboard/arm-2012.09/bin/../arm-none-eabi/lib//libc.a(lib_a-mallocr.o)
                                                  /home/leon/riotboard/arm-2012.09/bin/../arm-none-eabi/lib//libc.a(lib_a-freer.o)
__malloc_top_pad                                  /home/leon/riotboard/arm-2012.09/bin/../arm-none-eabi/lib//libc.a(lib_a-mallocr.o)
                                                  /home/leon/riotboard/arm-2012.09/bin/../arm-none-eabi/lib//libc.a(lib_a-freer.o)
__malloc_trim_threshold                           /home/leon/riotboard/arm-2012.09/bin/../arm-none-eabi/lib//libc.a(lib_a-mallocr.o)
                                                  /home/leon/riotboard/arm-2012.09/bin/../arm-none-eabi/lib//libc.a(lib_a-freer.o)
__malloc_unlock                                   /home/leon/riotboard/arm-2012.09/bin/../arm-none-eabi/lib//libc.a(lib_a-mlock.o)
                                                  /home/leon/riotboard/arm-2012.09/bin/../arm-none-eabi/lib//libc.a(lib_a-reallocr.o)
                                                  /home/leon/riotboard/arm-2012.09/bin/../arm-none-eabi/lib//libc.a(lib_a-mallocr.o)
                                                  /home/leon/riotboard/arm-2012.09/bin/../arm-none-eabi/lib//libc.a(lib_a-freer.o)
__mb_cur_max                                      /home/leon/riotboard/arm-2012.09/bin/../arm-none-eabi/lib//libc.a(lib_a-locale.o)
__mcmp                                            /home/leon/riotboard/arm-2012.09/bin/../arm-none-eabi/lib//libc.a(lib_a-mprec.o)
                                                  /home/leon/riotboard/arm-2012.09/bin/../arm-none-eabi/lib//libc.a(lib_a-dtoa.o)
__mdiff                                           /home/leon/riotboard/arm-2012.09/bin/../arm-none-eabi/lib//libc.a(lib_a-mprec.o)
                                                  /home/leon/riotboard/arm-2012.09/bin/../arm-none-eabi/lib//libc.a(lib_a-dtoa.o)
__mlocale_changed                                 /home/leon/riotboard/arm-2012.09/bin/../arm-none-eabi/lib//libc.a(lib_a-locale.o)
__mprec_bigtens                                   /home/leon/riotboard/arm-2012.09/bin/../arm-none-eabi/lib//libc.a(lib_a-mprec.o)
                                                  /home/leon/riotboard/arm-2012.09/bin/../arm-none-eabi/lib//libc.a(lib_a-dtoa.o)
__mprec_tens                                      /home/leon/riotboard/arm-2012.09/bin/../arm-none-eabi/lib//libc.a(lib_a-mprec.o)
                                                  /home/leon/riotboard/arm-2012.09/bin/../arm-none-eabi/lib//libc.a(lib_a-dtoa.o)
__mprec_tinytens                                  /home/leon/riotboard/arm-2012.09/bin/../arm-none-eabi/lib//libc.a(lib_a-mprec.o)
__muldf3                                          /home/leon/riotboard/arm-2012.09/bin/../lib/gcc/arm-none-eabi/4.7.2//libgcc.a(_arm_muldivdf3.o)
__multadd                                         /home/leon/riotboard/arm-2012.09/bin/../arm-none-eabi/lib//libc.a(lib_a-mprec.o)
                                                  /home/leon/riotboard/arm-2012.09/bin/../arm-none-eabi/lib//libc.a(lib_a-dtoa.o)
__multiply                                        /home/leon/riotboard/arm-2012.09/bin/../arm-none-eabi/lib//libc.a(lib_a-mprec.o)
                                                  /home/leon/riotboard/arm-2012.09/bin/../arm-none-eabi/lib//libc.a(lib_a-dtoa.o)
__nedf2                                           /home/leon/riotboard/arm-2012.09/bin/../lib/gcc/arm-none-eabi/4.7.2//libgcc.a(_arm_cmpdf2.o)
__nlocale_changed                                 /home/leon/riotboard/arm-2012.09/bin/../arm-none-eabi/lib//libc.a(lib_a-locale.o)
__pow5mult                                        /home/leon/riotboard/arm-2012.09/bin/../arm-none-eabi/lib//libc.a(lib_a-mprec.o)
                                                  /home/leon/riotboard/arm-2012.09/bin/../arm-none-eabi/lib//libc.a(lib_a-dtoa.o)
__preinit_array_end                               /home/leon/riotboard/arm-2012.09/bin/../arm-none-eabi/lib//libc.a(lib_a-init.o)
__preinit_array_start                             /home/leon/riotboard/arm-2012.09/bin/../arm-none-eabi/lib//libc.a(lib_a-init.o)
__ram_vectors_end                                 /home/leon/git/swp-report/iMX6_Platform_SDK/output/mx6dq/lib/libsdk.a(startup.o)
__ram_vectors_start                               /home/leon/git/swp-report/iMX6_Platform_SDK/output/mx6dq/lib/libsdk.a(startup.o)
__ratio                                           /home/leon/riotboard/arm-2012.09/bin/../arm-none-eabi/lib//libc.a(lib_a-mprec.o)
__register_frame_info                             /home/leon/riotboard/arm-2012.09/bin/../lib/gcc/arm-none-eabi/4.7.2//crtbegin.o
__s2b                                             /home/leon/riotboard/arm-2012.09/bin/../arm-none-eabi/lib//libc.a(lib_a-mprec.o)
__sclose                                          /home/leon/riotboard/arm-2012.09/bin/../arm-none-eabi/lib//libc.a(lib_a-stdio.o)
                                                  /home/leon/riotboard/arm-2012.09/bin/../arm-none-eabi/lib//libc.a(lib_a-findfp.o)
__seofread                                        /home/leon/riotboard/arm-2012.09/bin/../arm-none-eabi/lib//libc.a(lib_a-stdio.o)
__sfmoreglue                                      /home/leon/riotboard/arm-2012.09/bin/../arm-none-eabi/lib//libc.a(lib_a-findfp.o)
__sfp                                             /home/leon/riotboard/arm-2012.09/bin/../arm-none-eabi/lib//libc.a(lib_a-findfp.o)
__sfp_lock_acquire                                /home/leon/riotboard/arm-2012.09/bin/../arm-none-eabi/lib//libc.a(lib_a-findfp.o)
                                                  /home/leon/riotboard/arm-2012.09/bin/../arm-none-eabi/lib//libc.a(lib_a-fclose.o)
                                                  /home/leon/riotboard/arm-2012.09/bin/../arm-none-eabi/lib//libc.a(lib_a-fwalk.o)
__sfp_lock_release                                /home/leon/riotboard/arm-2012.09/bin/../arm-none-eabi/lib//libc.a(lib_a-findfp.o)
                                                  /home/leon/riotboard/arm-2012.09/bin/../arm-none-eabi/lib//libc.a(lib_a-fclose.o)
                                                  /home/leon/riotboard/arm-2012.09/bin/../arm-none-eabi/lib//libc.a(lib_a-fwalk.o)
__sfvwrite_r                                      /home/leon/riotboard/arm-2012.09/bin/../arm-none-eabi/lib//libc.a(lib_a-fvwrite.o)
                                                  /home/leon/riotboard/arm-2012.09/bin/../arm-none-eabi/lib//libc.a(lib_a-vfiprintf.o)
__sigtramp                                        /home/leon/riotboard/arm-2012.09/bin/../arm-none-eabi/lib//libc.a(lib_a-signal.o)
__sigtramp_r                                      /home/leon/riotboard/arm-2012.09/bin/../arm-none-eabi/lib//libc.a(lib_a-signal.o)
__sinit                                           /home/leon/riotboard/arm-2012.09/bin/../arm-none-eabi/lib//libc.a(lib_a-findfp.o)
                                                  /home/leon/riotboard/arm-2012.09/bin/../arm-none-eabi/lib//libc.a(lib_a-refill.o)
                                                  /home/leon/riotboard/arm-2012.09/bin/../arm-none-eabi/lib//libc.a(lib_a-fputwc.o)
                                                  /home/leon/riotboard/arm-2012.09/bin/../arm-none-eabi/lib//libc.a(lib_a-fclose.o)
                                                  /home/leon/riotboard/arm-2012.09/bin/../arm-none-eabi/lib//libc.a(lib_a-wsetup.o)
                                                  /home/leon/riotboard/arm-2012.09/bin/../arm-none-eabi/lib//libc.a(lib_a-wbuf.o)
                                                  /home/leon/riotboard/arm-2012.09/bin/../arm-none-eabi/lib//libc.a(lib_a-vfprintf.o)
                                                  /home/leon/riotboard/arm-2012.09/bin/../arm-none-eabi/lib//libc.a(lib_a-vfiprintf.o)
                                                  /home/leon/riotboard/arm-2012.09/bin/../arm-none-eabi/lib//libc.a(lib_a-rget.o)
                                                  /home/leon/riotboard/arm-2012.09/bin/../arm-none-eabi/lib//libc.a(lib_a-putc.o)
                                                  /home/leon/riotboard/arm-2012.09/bin/../arm-none-eabi/lib//libc.a(lib_a-fputc.o)
                                                  /home/leon/riotboard/arm-2012.09/bin/../arm-none-eabi/lib//libc.a(lib_a-fflush.o)
__sinit_lock_acquire                              /home/leon/riotboard/arm-2012.09/bin/../arm-none-eabi/lib//libc.a(lib_a-findfp.o)
__sinit_lock_release                              /home/leon/riotboard/arm-2012.09/bin/../arm-none-eabi/lib//libc.a(lib_a-findfp.o)
__smakebuf_r                                      /home/leon/riotboard/arm-2012.09/bin/../arm-none-eabi/lib//libc.a(lib_a-makebuf.o)
                                                  /home/leon/riotboard/arm-2012.09/bin/../arm-none-eabi/lib//libc.a(lib_a-refill.o)
                                                  /home/leon/riotboard/arm-2012.09/bin/../arm-none-eabi/lib//libc.a(lib_a-wsetup.o)
__sprint_r                                        /home/leon/riotboard/arm-2012.09/bin/../arm-none-eabi/lib//libc.a(lib_a-vfiprintf.o)
                                                  /home/leon/riotboard/arm-2012.09/bin/../arm-none-eabi/lib//libc.a(lib_a-vfprintf.o)
__sread                                           /home/leon/riotboard/arm-2012.09/bin/../arm-none-eabi/lib//libc.a(lib_a-stdio.o)
                                                  /home/leon/riotboard/arm-2012.09/bin/../arm-none-eabi/lib//libc.a(lib_a-findfp.o)
__srefill_r                                       /home/leon/riotboard/arm-2012.09/bin/../arm-none-eabi/lib//libc.a(lib_a-refill.o)
                                                  /home/leon/riotboard/arm-2012.09/bin/../arm-none-eabi/lib//libc.a(lib_a-rget.o)
__srget                                           /home/leon/riotboard/arm-2012.09/bin/../arm-none-eabi/lib//libc.a(lib_a-rget.o)
__srget_r                                         /home/leon/riotboard/arm-2012.09/bin/../arm-none-eabi/lib//libc.a(lib_a-rget.o)
                                                  /home/leon/git/swp-report/iMX6_Platform_SDK/output/mx6dq/lib/libsdk.a(system_util.o)
__sseek                                           /home/leon/riotboard/arm-2012.09/bin/../arm-none-eabi/lib//libc.a(lib_a-stdio.o)
                                                  /home/leon/riotboard/arm-2012.09/bin/../arm-none-eabi/lib//libc.a(lib_a-makebuf.o)
                                                  /home/leon/riotboard/arm-2012.09/bin/../arm-none-eabi/lib//libc.a(lib_a-findfp.o)
__stacks_start                                    /home/leon/git/swp-report/iMX6_Platform_SDK/output/mx6dq/lib/libsdk.a(startup.o)
__start_boot_data                                 /home/leon/git/swp-report/iMX6_Platform_SDK/output/mx6dq/httpd/sabre_ai_rev_c/obj/apps/common/ivt.o
__subdf3                                          /home/leon/riotboard/arm-2012.09/bin/../lib/gcc/arm-none-eabi/4.7.2//libgcc.a(_arm_addsubdf3.o)
__swbuf                                           /home/leon/riotboard/arm-2012.09/bin/../arm-none-eabi/lib//libc.a(lib_a-wbuf.o)
__swbuf_r                                         /home/leon/riotboard/arm-2012.09/bin/../arm-none-eabi/lib//libc.a(lib_a-wbuf.o)
                                                  /home/leon/riotboard/arm-2012.09/bin/../arm-none-eabi/lib//libc.a(lib_a-fputwc.o)
                                                  /home/leon/riotboard/arm-2012.09/bin/../arm-none-eabi/lib//libc.a(lib_a-putc.o)
__swrite                                          /home/leon/riotboard/arm-2012.09/bin/../arm-none-eabi/lib//libc.a(lib_a-stdio.o)
                                                  /home/leon/riotboard/arm-2012.09/bin/../arm-none-eabi/lib//libc.a(lib_a-findfp.o)
__swsetup_r                                       /home/leon/riotboard/arm-2012.09/bin/../arm-none-eabi/lib//libc.a(lib_a-wsetup.o)
                                                  /home/leon/riotboard/arm-2012.09/bin/../arm-none-eabi/lib//libc.a(lib_a-fvwrite.o)
                                                  /home/leon/riotboard/arm-2012.09/bin/../arm-none-eabi/lib//libc.a(lib_a-wbuf.o)
                                                  /home/leon/riotboard/arm-2012.09/bin/../arm-none-eabi/lib//libc.a(lib_a-vfprintf.o)
                                                  /home/leon/riotboard/arm-2012.09/bin/../arm-none-eabi/lib//libc.a(lib_a-vfiprintf.o)
__udivdi3                                         /home/leon/riotboard/arm-2012.09/bin/../lib/gcc/arm-none-eabi/4.7.2//libgcc.a(_udivdi3.o)
                                                  /home/leon/riotboard/arm-2012.09/bin/../lib/gcc/arm-none-eabi/4.7.2//libgcc.a(bpabi.o)
__udivsi3                                         /home/leon/riotboard/arm-2012.09/bin/../lib/gcc/arm-none-eabi/4.7.2//libgcc.a(_udivsi3.o)
__ulp                                             /home/leon/riotboard/arm-2012.09/bin/../arm-none-eabi/lib//libc.a(lib_a-mprec.o)
__wctomb                                          /home/leon/riotboard/arm-2012.09/bin/../arm-none-eabi/lib//libc.a(lib_a-wctomb_r.o)
                                                  /home/leon/riotboard/arm-2012.09/bin/../arm-none-eabi/lib//libc.a(lib_a-wcrtomb.o)
_calloc_r                                         /home/leon/riotboard/arm-2012.09/bin/../arm-none-eabi/lib//libc.a(lib_a-callocr.o)
                                                  /home/leon/riotboard/arm-2012.09/bin/../arm-none-eabi/lib//libc.a(lib_a-mprec.o)
_cleanup                                          /home/leon/riotboard/arm-2012.09/bin/../arm-none-eabi/lib//libc.a(lib_a-findfp.o)
_cleanup_r                                        /home/leon/riotboard/arm-2012.09/bin/../arm-none-eabi/lib//libc.a(lib_a-findfp.o)
                                                  /home/leon/riotboard/arm-2012.09/bin/../arm-none-eabi/lib//libc.a(lib_a-makebuf.o)
_close                                            /home/leon/git/swp-report/iMX6_Platform_SDK/output/mx6dq/lib/libsdk.a(runtime_support.o)
                                                  /home/leon/riotboard/arm-2012.09/bin/../arm-none-eabi/lib//libc.a(lib_a-closer.o)
_close_r                                          /home/leon/riotboard/arm-2012.09/bin/../arm-none-eabi/lib//libc.a(lib_a-closer.o)
                                                  /home/leon/riotboard/arm-2012.09/bin/../arm-none-eabi/lib//libc.a(lib_a-stdio.o)
_dtoa_r                                           /home/leon/riotboard/arm-2012.09/bin/../arm-none-eabi/lib//libc.a(lib_a-dtoa.o)
                                                  /home/leon/riotboard/arm-2012.09/bin/../arm-none-eabi/lib//libc.a(lib_a-vfprintf.o)
_execve                                           /home/leon/git/swp-report/iMX6_Platform_SDK/output/mx6dq/lib/libsdk.a(runtime_support.o)
_exit                                             /home/leon/git/swp-report/iMX6_Platform_SDK/output/mx6dq/lib/libsdk.a(runtime_support.o)
                                                  /home/leon/riotboard/arm-2012.09/bin/../arm-none-eabi/lib//libc.a(lib_a-abort.o)
_fclose_r                                         /home/leon/riotboard/arm-2012.09/bin/../arm-none-eabi/lib//libc.a(lib_a-fclose.o)
_fflush_r                                         /home/leon/riotboard/arm-2012.09/bin/../arm-none-eabi/lib//libc.a(lib_a-fflush.o)
                                                  /home/leon/riotboard/arm-2012.09/bin/../arm-none-eabi/lib//libc.a(lib_a-refill.o)
                                                  /home/leon/riotboard/arm-2012.09/bin/../arm-none-eabi/lib//libc.a(lib_a-fvwrite.o)
                                                  /home/leon/riotboard/arm-2012.09/bin/../arm-none-eabi/lib//libc.a(lib_a-fclose.o)
                                                  /home/leon/riotboard/arm-2012.09/bin/../arm-none-eabi/lib//libc.a(lib_a-wbuf.o)
                                                  /home/leon/riotboard/arm-2012.09/bin/../arm-none-eabi/lib//libc.a(lib_a-vfprintf.o)
                                                  /home/leon/riotboard/arm-2012.09/bin/../arm-none-eabi/lib//libc.a(lib_a-vfiprintf.o)
_fini                                             /home/leon/riotboard/arm-2012.09/bin/../lib/gcc/arm-none-eabi/4.7.2//crti.o
_fiprintf_r                                       /home/leon/riotboard/arm-2012.09/bin/../arm-none-eabi/lib//libc.a(lib_a-fiprintf.o)
_fork                                             /home/leon/git/swp-report/iMX6_Platform_SDK/output/mx6dq/lib/libsdk.a(runtime_support.o)
_fputc_r                                          /home/leon/riotboard/arm-2012.09/bin/../arm-none-eabi/lib//libc.a(lib_a-fputc.o)
_fputwc_r                                         /home/leon/riotboard/arm-2012.09/bin/../arm-none-eabi/lib//libc.a(lib_a-fputwc.o)
                                                  /home/leon/riotboard/arm-2012.09/bin/../arm-none-eabi/lib//libc.a(lib_a-vfiprintf.o)
_free_r                                           /home/leon/riotboard/arm-2012.09/bin/../arm-none-eabi/lib//libc.a(lib_a-freer.o)
                                                  /home/leon/riotboard/arm-2012.09/bin/../arm-none-eabi/lib//libc.a(lib_a-refill.o)
                                                  /home/leon/riotboard/arm-2012.09/bin/../arm-none-eabi/lib//libc.a(lib_a-reent.o)
                                                  /home/leon/riotboard/arm-2012.09/bin/../arm-none-eabi/lib//libc.a(lib_a-fvwrite.o)
                                                  /home/leon/riotboard/arm-2012.09/bin/../arm-none-eabi/lib//libc.a(lib_a-fclose.o)
                                                  /home/leon/riotboard/arm-2012.09/bin/../arm-none-eabi/lib//libc.a(lib_a-wsetup.o)
                                                  /home/leon/riotboard/arm-2012.09/bin/../arm-none-eabi/lib//libc.a(lib_a-reallocr.o)
                                                  /home/leon/riotboard/arm-2012.09/bin/../arm-none-eabi/lib//libc.a(lib_a-mallocr.o)
                                                  /home/leon/riotboard/arm-2012.09/bin/../arm-none-eabi/lib//libc.a(lib_a-malloc.o)
                                                  /home/leon/riotboard/arm-2012.09/bin/../arm-none-eabi/lib//libc.a(lib_a-fflush.o)
_fstat                                            /home/leon/git/swp-report/iMX6_Platform_SDK/output/mx6dq/lib/libsdk.a(runtime_support.o)
                                                  /home/leon/riotboard/arm-2012.09/bin/../arm-none-eabi/lib//libc.a(lib_a-fstatr.o)
_fstat_r                                          /home/leon/riotboard/arm-2012.09/bin/../arm-none-eabi/lib//libc.a(lib_a-fstatr.o)
                                                  /home/leon/riotboard/arm-2012.09/bin/../arm-none-eabi/lib//libc.a(lib_a-makebuf.o)
_fwalk                                            /home/leon/riotboard/arm-2012.09/bin/../arm-none-eabi/lib//libc.a(lib_a-fwalk.o)
                                                  /home/leon/riotboard/arm-2012.09/bin/../arm-none-eabi/lib//libc.a(lib_a-refill.o)
                                                  /home/leon/riotboard/arm-2012.09/bin/../arm-none-eabi/lib//libc.a(lib_a-findfp.o)
_fwalk_reent                                      /home/leon/riotboard/arm-2012.09/bin/../arm-none-eabi/lib//libc.a(lib_a-fwalk.o)
                                                  /home/leon/riotboard/arm-2012.09/bin/../arm-none-eabi/lib//libc.a(lib_a-fflush.o)
_getpid                                           /home/leon/git/swp-report/iMX6_Platform_SDK/output/mx6dq/lib/libsdk.a(runtime_support.o)
                                                  /home/leon/riotboard/arm-2012.09/bin/../arm-none-eabi/lib//libc.a(lib_a-signalr.o)
_getpid_r                                         /home/leon/riotboard/arm-2012.09/bin/../arm-none-eabi/lib//libc.a(lib_a-signalr.o)
                                                  /home/leon/riotboard/arm-2012.09/bin/../arm-none-eabi/lib//libc.a(lib_a-signal.o)
_gettimeofday                                     /home/leon/git/swp-report/iMX6_Platform_SDK/output/mx6dq/lib/libsdk.a(runtime_support.o)
_global_impure_ptr                                /home/leon/riotboard/arm-2012.09/bin/../arm-none-eabi/lib//libc.a(lib_a-impure.o)
                                                  /home/leon/riotboard/arm-2012.09/bin/../arm-none-eabi/lib//libc.a(lib_a-refill.o)
                                                  /home/leon/riotboard/arm-2012.09/bin/../arm-none-eabi/lib//libc.a(lib_a-findfp.o)
                                                  /home/leon/riotboard/arm-2012.09/bin/../arm-none-eabi/lib//libc.a(lib_a-fflush.o)
_image_size                                       /home/leon/git/swp-report/iMX6_Platform_SDK/output/mx6dq/httpd/sabre_ai_rev_c/obj/apps/common/ivt.o
_impure_ptr                                       /home/leon/riotboard/arm-2012.09/bin/../arm-none-eabi/lib//libc.a(lib_a-impure.o)
                                                  /home/leon/riotboard/arm-2012.09/bin/../arm-none-eabi/lib//libc.a(lib_a-wcrtomb.o)
                                                  /home/leon/riotboard/arm-2012.09/bin/../arm-none-eabi/lib//libc.a(lib_a-reent.o)
                                                  /home/leon/riotboard/arm-2012.09/bin/../arm-none-eabi/lib//libc.a(lib_a-locale.o)
                                                  /home/leon/riotboard/arm-2012.09/bin/../arm-none-eabi/lib//libc.a(lib_a-fputwc.o)
                                                  /home/leon/riotboard/arm-2012.09/bin/../arm-none-eabi/lib//libc.a(lib_a-fclose.o)
                                                  /home/leon/riotboard/arm-2012.09/bin/../arm-none-eabi/lib//libc.a(lib_a-wsetup.o)
                                                  /home/leon/riotboard/arm-2012.09/bin/../arm-none-eabi/lib//libc.a(lib_a-wbuf.o)
                                                  /home/leon/riotboard/arm-2012.09/bin/../arm-none-eabi/lib//libc.a(lib_a-vprintf.o)
                                                  /home/leon/riotboard/arm-2012.09/bin/../arm-none-eabi/lib//libc.a(lib_a-vfprintf.o)
                                                  /home/leon/riotboard/arm-2012.09/bin/../arm-none-eabi/lib//libc.a(lib_a-vfiprintf.o)
                                                  /home/leon/riotboard/arm-2012.09/bin/../arm-none-eabi/lib//libc.a(lib_a-signal.o)
                                                  /home/leon/riotboard/arm-2012.09/bin/../arm-none-eabi/lib//libc.a(lib_a-rget.o)
                                                  /home/leon/riotboard/arm-2012.09/bin/../arm-none-eabi/lib//libc.a(lib_a-realloc.o)
                                                  /home/leon/riotboard/arm-2012.09/bin/../arm-none-eabi/lib//libc.a(lib_a-rand.o)
                                                  /home/leon/riotboard/arm-2012.09/bin/../arm-none-eabi/lib//libc.a(lib_a-putc.o)
                                                  /home/leon/riotboard/arm-2012.09/bin/../arm-none-eabi/lib//libc.a(lib_a-printf.o)
                                                  /home/leon/riotboard/arm-2012.09/bin/../arm-none-eabi/lib//libc.a(lib_a-malloc.o)
                                                  /home/leon/riotboard/arm-2012.09/bin/../arm-none-eabi/lib//libc.a(lib_a-fputc.o)
                                                  /home/leon/riotboard/arm-2012.09/bin/../arm-none-eabi/lib//libc.a(lib_a-fiprintf.o)
                                                  /home/leon/riotboard/arm-2012.09/bin/../arm-none-eabi/lib//libc.a(lib_a-findfp.o)
                                                  /home/leon/riotboard/arm-2012.09/bin/../arm-none-eabi/lib//libc.a(lib_a-fflush.o)
                                                  /home/leon/riotboard/arm-2012.09/bin/../arm-none-eabi/lib//libc.a(lib_a-assert.o)
                                                  /home/leon/git/swp-report/iMX6_Platform_SDK/output/mx6dq/lib/libsdk.a(system_util.o)
_init                                             /home/leon/riotboard/arm-2012.09/bin/../lib/gcc/arm-none-eabi/4.7.2//crti.o
                                                  /home/leon/riotboard/arm-2012.09/bin/../arm-none-eabi/lib//libc.a(lib_a-init.o)
_init_signal                                      /home/leon/riotboard/arm-2012.09/bin/../arm-none-eabi/lib//libc.a(lib_a-signal.o)
_init_signal_r                                    /home/leon/riotboard/arm-2012.09/bin/../arm-none-eabi/lib//libc.a(lib_a-signal.o)
_isatty                                           /home/leon/git/swp-report/iMX6_Platform_SDK/output/mx6dq/lib/libsdk.a(runtime_support.o)
                                                  /home/leon/riotboard/arm-2012.09/bin/../arm-none-eabi/lib//libc.a(lib_a-isattyr.o)
_isatty_r                                         /home/leon/riotboard/arm-2012.09/bin/../arm-none-eabi/lib//libc.a(lib_a-isattyr.o)
                                                  /home/leon/riotboard/arm-2012.09/bin/../arm-none-eabi/lib//libc.a(lib_a-makebuf.o)
_kill                                             /home/leon/git/swp-report/iMX6_Platform_SDK/output/mx6dq/lib/libsdk.a(runtime_support.o)
                                                  /home/leon/riotboard/arm-2012.09/bin/../arm-none-eabi/lib//libc.a(lib_a-signalr.o)
_kill_r                                           /home/leon/riotboard/arm-2012.09/bin/../arm-none-eabi/lib//libc.a(lib_a-signalr.o)
                                                  /home/leon/riotboard/arm-2012.09/bin/../arm-none-eabi/lib//libc.a(lib_a-signal.o)
_link                                             /home/leon/git/swp-report/iMX6_Platform_SDK/output/mx6dq/lib/libsdk.a(runtime_support.o)
_localeconv_r                                     /home/leon/riotboard/arm-2012.09/bin/../arm-none-eabi/lib//libc.a(lib_a-locale.o)
                                                  /home/leon/riotboard/arm-2012.09/bin/../arm-none-eabi/lib//libc.a(lib_a-vfprintf.o)
_lseek                                            /home/leon/git/swp-report/iMX6_Platform_SDK/output/mx6dq/lib/libsdk.a(runtime_support.o)
                                                  /home/leon/riotboard/arm-2012.09/bin/../arm-none-eabi/lib//libc.a(lib_a-lseekr.o)
_lseek_r                                          /home/leon/riotboard/arm-2012.09/bin/../arm-none-eabi/lib//libc.a(lib_a-lseekr.o)
                                                  /home/leon/riotboard/arm-2012.09/bin/../arm-none-eabi/lib//libc.a(lib_a-stdio.o)
_malloc_r                                         /home/leon/riotboard/arm-2012.09/bin/../arm-none-eabi/lib//libc.a(lib_a-mallocr.o)
                                                  /home/leon/riotboard/arm-2012.09/bin/../arm-none-eabi/lib//libc.a(lib_a-callocr.o)
                                                  /home/leon/riotboard/arm-2012.09/bin/../arm-none-eabi/lib//libc.a(lib_a-makebuf.o)
                                                  /home/leon/riotboard/arm-2012.09/bin/../arm-none-eabi/lib//libc.a(lib_a-fvwrite.o)
                                                  /home/leon/riotboard/arm-2012.09/bin/../arm-none-eabi/lib//libc.a(lib_a-signal.o)
                                                  /home/leon/riotboard/arm-2012.09/bin/../arm-none-eabi/lib//libc.a(lib_a-reallocr.o)
                                                  /home/leon/riotboard/arm-2012.09/bin/../arm-none-eabi/lib//libc.a(lib_a-malloc.o)
                                                  /home/leon/riotboard/arm-2012.09/bin/../arm-none-eabi/lib//libc.a(lib_a-findfp.o)
_malloc_trim_r                                    /home/leon/riotboard/arm-2012.09/bin/../arm-none-eabi/lib//libc.a(lib_a-freer.o)
_mprec_log10                                      /home/leon/riotboard/arm-2012.09/bin/../arm-none-eabi/lib//libc.a(lib_a-mprec.o)
_open                                             /home/leon/git/swp-report/iMX6_Platform_SDK/output/mx6dq/lib/libsdk.a(runtime_support.o)
_printf_r                                         /home/leon/riotboard/arm-2012.09/bin/../arm-none-eabi/lib//libc.a(lib_a-printf.o)
_putc_r                                           /home/leon/riotboard/arm-2012.09/bin/../arm-none-eabi/lib//libc.a(lib_a-putc.o)
                                                  /home/leon/riotboard/arm-2012.09/bin/../arm-none-eabi/lib//libc.a(lib_a-fputc.o)
_raise_r                                          /home/leon/riotboard/arm-2012.09/bin/../arm-none-eabi/lib//libc.a(lib_a-signal.o)
_raw_puts                                         /home/leon/git/swp-report/iMX6_Platform_SDK/output/mx6dq/lib/libsdk.a(runtime_support.o)
_read                                             /home/leon/git/swp-report/iMX6_Platform_SDK/output/mx6dq/lib/libsdk.a(runtime_support.o)
                                                  /home/leon/riotboard/arm-2012.09/bin/../arm-none-eabi/lib//libc.a(lib_a-readr.o)
_read_r                                           /home/leon/riotboard/arm-2012.09/bin/../arm-none-eabi/lib//libc.a(lib_a-readr.o)
                                                  /home/leon/riotboard/arm-2012.09/bin/../arm-none-eabi/lib//libc.a(lib_a-stdio.o)
_realloc_r                                        /home/leon/riotboard/arm-2012.09/bin/../arm-none-eabi/lib//libc.a(lib_a-reallocr.o)
                                                  /home/leon/riotboard/arm-2012.09/bin/../arm-none-eabi/lib//libc.a(lib_a-fvwrite.o)
                                                  /home/leon/riotboard/arm-2012.09/bin/../arm-none-eabi/lib//libc.a(lib_a-realloc.o)
_reclaim_reent                                    /home/leon/riotboard/arm-2012.09/bin/../arm-none-eabi/lib//libc.a(lib_a-reent.o)
_sbrk                                             /home/leon/git/swp-report/iMX6_Platform_SDK/output/mx6dq/lib/libsdk.a(runtime_support.o)
                                                  /home/leon/riotboard/arm-2012.09/bin/../arm-none-eabi/lib//libc.a(lib_a-sbrkr.o)
_sbrk_r                                           /home/leon/riotboard/arm-2012.09/bin/../arm-none-eabi/lib//libc.a(lib_a-sbrkr.o)
                                                  /home/leon/riotboard/arm-2012.09/bin/../arm-none-eabi/lib//libc.a(lib_a-mallocr.o)
                                                  /home/leon/riotboard/arm-2012.09/bin/../arm-none-eabi/lib//libc.a(lib_a-freer.o)
_setlocale_r                                      /home/leon/riotboard/arm-2012.09/bin/../arm-none-eabi/lib//libc.a(lib_a-locale.o)
_signal_r                                         /home/leon/riotboard/arm-2012.09/bin/../arm-none-eabi/lib//libc.a(lib_a-signal.o)
_start                                            /home/leon/git/swp-report/iMX6_Platform_SDK/output/mx6dq/lib/libsdk.a(startup.o)
                                                  /home/leon/git/swp-report/iMX6_Platform_SDK/output/mx6dq/lib/libsdk.a(vectors.o)
                                                  /home/leon/git/swp-report/iMX6_Platform_SDK/output/mx6dq/httpd/sabre_ai_rev_c/obj/apps/common/ivt.o
_start_image_add                                  /home/leon/git/swp-report/iMX6_Platform_SDK/output/mx6dq/httpd/sabre_ai_rev_c/obj/apps/common/ivt.o
_stat                                             /home/leon/git/swp-report/iMX6_Platform_SDK/output/mx6dq/lib/libsdk.a(runtime_support.o)
_sys_exit                                         /home/leon/git/swp-report/iMX6_Platform_SDK/output/mx6dq/lib/libsdk.a(system_util.o)
                                                  /home/leon/git/swp-report/iMX6_Platform_SDK/output/mx6dq/lib/libsdk.a(runtime_support.o)
                                                  /home/leon/git/swp-report/iMX6_Platform_SDK/output/mx6dq/lib/libsdk.a(startup.o)
_times                                            /home/leon/git/swp-report/iMX6_Platform_SDK/output/mx6dq/lib/libsdk.a(runtime_support.o)
_unlink                                           /home/leon/git/swp-report/iMX6_Platform_SDK/output/mx6dq/lib/libsdk.a(runtime_support.o)
_vfiprintf_r                                      /home/leon/riotboard/arm-2012.09/bin/../arm-none-eabi/lib//libc.a(lib_a-vfiprintf.o)
                                                  /home/leon/riotboard/arm-2012.09/bin/../arm-none-eabi/lib//libc.a(lib_a-fiprintf.o)
_vfprintf_r                                       /home/leon/riotboard/arm-2012.09/bin/../arm-none-eabi/lib//libc.a(lib_a-vfprintf.o)
                                                  /home/leon/riotboard/arm-2012.09/bin/../arm-none-eabi/lib//libc.a(lib_a-vprintf.o)
                                                  /home/leon/riotboard/arm-2012.09/bin/../arm-none-eabi/lib//libc.a(lib_a-printf.o)
_vprintf_r                                        /home/leon/riotboard/arm-2012.09/bin/../arm-none-eabi/lib//libc.a(lib_a-vprintf.o)
_wait                                             /home/leon/git/swp-report/iMX6_Platform_SDK/output/mx6dq/lib/libsdk.a(runtime_support.o)
_wcrtomb_r                                        /home/leon/riotboard/arm-2012.09/bin/../arm-none-eabi/lib//libc.a(lib_a-wcrtomb.o)
                                                  /home/leon/riotboard/arm-2012.09/bin/../arm-none-eabi/lib//libc.a(lib_a-fputwc.o)
_wctomb_r                                         /home/leon/riotboard/arm-2012.09/bin/../arm-none-eabi/lib//libc.a(lib_a-wctomb_r.o)
_wrapup_reent                                     /home/leon/riotboard/arm-2012.09/bin/../arm-none-eabi/lib//libc.a(lib_a-reent.o)
_write                                            /home/leon/git/swp-report/iMX6_Platform_SDK/output/mx6dq/lib/libsdk.a(runtime_support.o)
                                                  /home/leon/riotboard/arm-2012.09/bin/../arm-none-eabi/lib//libc.a(lib_a-writer.o)
_write_r                                          /home/leon/riotboard/arm-2012.09/bin/../arm-none-eabi/lib//libc.a(lib_a-writer.o)
                                                  /home/leon/riotboard/arm-2012.09/bin/../arm-none-eabi/lib//libc.a(lib_a-stdio.o)
abort                                             /home/leon/riotboard/arm-2012.09/bin/../arm-none-eabi/lib//libc.a(lib_a-abort.o)
                                                  /home/leon/git/swp-report/iMX6_Platform_SDK/output/mx6dq/lib/libsdk.a(runtime_support.o)
                                                  /home/leon/riotboard/arm-2012.09/bin/../arm-none-eabi/lib//libc.a(lib_a-assert.o)
                                                  /home/leon/git/swp-report/iMX6_Platform_SDK/output/mx6dq/lib/liblwip.a(icmp.o)
                                                  /home/leon/git/swp-report/iMX6_Platform_SDK/output/mx6dq/lib/liblwip.a(inet_chksum.o)
                                                  /home/leon/git/swp-report/iMX6_Platform_SDK/output/mx6dq/lib/liblwip.a(mx6_ethernetif.o)
                                                  /home/leon/git/swp-report/iMX6_Platform_SDK/output/mx6dq/lib/liblwip.a(etharp.o)
                                                  /home/leon/git/swp-report/iMX6_Platform_SDK/output/mx6dq/lib/liblwip.a(udp.o)
                                                  /home/leon/git/swp-report/iMX6_Platform_SDK/output/mx6dq/lib/liblwip.a(timers.o)
                                                  /home/leon/git/swp-report/iMX6_Platform_SDK/output/mx6dq/lib/liblwip.a(tcp_out.o)
                                                  /home/leon/git/swp-report/iMX6_Platform_SDK/output/mx6dq/lib/liblwip.a(tcp_in.o)
                                                  /home/leon/git/swp-report/iMX6_Platform_SDK/output/mx6dq/lib/liblwip.a(tcp.o)
                                                  /home/leon/git/swp-report/iMX6_Platform_SDK/output/mx6dq/lib/liblwip.a(msg_in.o)
                                                  /home/leon/git/swp-report/iMX6_Platform_SDK/output/mx6dq/lib/liblwip.a(mib_structs.o)
                                                  /home/leon/git/swp-report/iMX6_Platform_SDK/output/mx6dq/lib/liblwip.a(mib2.o)
                                                  /home/leon/git/swp-report/iMX6_Platform_SDK/output/mx6dq/lib/liblwip.a(raw.o)
                                                  /home/leon/git/swp-report/iMX6_Platform_SDK/output/mx6dq/lib/liblwip.a(pbuf.o)
                                                  /home/leon/git/swp-report/iMX6_Platform_SDK/output/mx6dq/lib/liblwip.a(netif.o)
                                                  /home/leon/git/swp-report/iMX6_Platform_SDK/output/mx6dq/lib/liblwip.a(ip4_addr.o)
                                                  /home/leon/git/swp-report/iMX6_Platform_SDK/output/mx6dq/lib/liblwip.a(ip4.o)
                                                  /home/leon/git/swp-report/iMX6_Platform_SDK/output/mx6dq/lib/liblwip.a(igmp.o)
                                                  /home/leon/git/swp-report/iMX6_Platform_SDK/output/mx6dq/lib/liblwip.a(autoip.o)
                                                  /home/leon/git/swp-report/iMX6_Platform_SDK/output/mx6dq/lib/liblwip.a(dns.o)
                                                  /home/leon/git/swp-report/iMX6_Platform_SDK/output/mx6dq/lib/liblwip.a(dhcp.o)
                                                  /home/leon/git/swp-report/iMX6_Platform_SDK/output/mx6dq/httpd/sabre_ai_rev_c/obj/lwip/contrib/apps/httpserver_raw/httpd.o
arm_branch_prediction_disable                     /home/leon/git/swp-report/iMX6_Platform_SDK/output/mx6dq/lib/libsdk.a(cortexA9.o)
arm_branch_prediction_enable                      /home/leon/git/swp-report/iMX6_Platform_SDK/output/mx6dq/lib/libsdk.a(cortexA9.o)
arm_branch_target_cache_invalidate                /home/leon/git/swp-report/iMX6_Platform_SDK/output/mx6dq/lib/libsdk.a(cortexA9.o)
arm_branch_target_cache_invalidate_is             /home/leon/git/swp-report/iMX6_Platform_SDK/output/mx6dq/lib/libsdk.a(cortexA9.o)
arm_iomux_config                                  /home/leon/git/swp-report/iMX6_Platform_SDK/output/mx6dq/lib/libboard_sabre_ai_rev_c.a(iomux_config.o)
arm_set_interrupt_state                           /home/leon/git/swp-report/iMX6_Platform_SDK/output/mx6dq/lib/libsdk.a(cortexA9.o)
                                                  /home/leon/git/swp-report/iMX6_Platform_SDK/output/mx6dq/httpd/sabre_ai_rev_c/obj/apps/common/platform_init.o
arm_unified_tlb_invalidate                        /home/leon/git/swp-report/iMX6_Platform_SDK/output/mx6dq/lib/libsdk.a(cortexA9.o)
                                                  /home/leon/git/swp-report/iMX6_Platform_SDK/output/mx6dq/lib/libsdk.a(mmu.o)
arm_unified_tlb_invalidate_is                     /home/leon/git/swp-report/iMX6_Platform_SDK/output/mx6dq/lib/libsdk.a(cortexA9.o)
arptree_root                                      /home/leon/git/swp-report/iMX6_Platform_SDK/output/mx6dq/lib/liblwip.a(mib2.o)
asrc_iomux_config                                 /home/leon/git/swp-report/iMX6_Platform_SDK/output/mx6dq/lib/libboard_sabre_ai_rev_c.a(iomux_config.o)
at                                                /home/leon/git/swp-report/iMX6_Platform_SDK/output/mx6dq/lib/liblwip.a(mib2.o)
at_id                                             /home/leon/git/swp-report/iMX6_Platform_SDK/output/mx6dq/lib/liblwip.a(mib2.o)
atentry                                           /home/leon/git/swp-report/iMX6_Platform_SDK/output/mx6dq/lib/liblwip.a(mib2.o)
atentry_ids                                       /home/leon/git/swp-report/iMX6_Platform_SDK/output/mx6dq/lib/liblwip.a(mib2.o)
atentry_nodes                                     /home/leon/git/swp-report/iMX6_Platform_SDK/output/mx6dq/lib/liblwip.a(mib2.o)
attable                                           /home/leon/git/swp-report/iMX6_Platform_SDK/output/mx6dq/lib/liblwip.a(mib2.o)
attable_id                                        /home/leon/git/swp-report/iMX6_Platform_SDK/output/mx6dq/lib/liblwip.a(mib2.o)
attable_node                                      /home/leon/git/swp-report/iMX6_Platform_SDK/output/mx6dq/lib/liblwip.a(mib2.o)
audmux_iomux_config                               /home/leon/git/swp-report/iMX6_Platform_SDK/output/mx6dq/lib/libboard_sabre_ai_rev_c.a(audmux_iomux_config.o)
                                                  /home/leon/git/swp-report/iMX6_Platform_SDK/output/mx6dq/lib/libboard_sabre_ai_rev_c.a(iomux_config.o)
autoip_arp_reply                                  /home/leon/git/swp-report/iMX6_Platform_SDK/output/mx6dq/lib/liblwip.a(autoip.o)
                                                  /home/leon/git/swp-report/iMX6_Platform_SDK/output/mx6dq/lib/liblwip.a(etharp.o)
autoip_network_changed                            /home/leon/git/swp-report/iMX6_Platform_SDK/output/mx6dq/lib/liblwip.a(autoip.o)
                                                  /home/leon/git/swp-report/iMX6_Platform_SDK/output/mx6dq/lib/liblwip.a(netif.o)
autoip_set_struct                                 /home/leon/git/swp-report/iMX6_Platform_SDK/output/mx6dq/lib/liblwip.a(autoip.o)
autoip_start                                      /home/leon/git/swp-report/iMX6_Platform_SDK/output/mx6dq/lib/liblwip.a(autoip.o)
                                                  /home/leon/git/swp-report/iMX6_Platform_SDK/output/mx6dq/lib/liblwip.a(dhcp.o)
autoip_stop                                       /home/leon/git/swp-report/iMX6_Platform_SDK/output/mx6dq/lib/liblwip.a(autoip.o)
                                                  /home/leon/git/swp-report/iMX6_Platform_SDK/output/mx6dq/lib/liblwip.a(dhcp.o)
autoip_tmr                                        /home/leon/git/swp-report/iMX6_Platform_SDK/output/mx6dq/lib/liblwip.a(autoip.o)
                                                  /home/leon/git/swp-report/iMX6_Platform_SDK/output/mx6dq/lib/liblwip.a(mx6_lwip.o)
                                                  /home/leon/git/swp-report/iMX6_Platform_SDK/output/mx6dq/lib/liblwip.a(timers.o)
bd                                                /home/leon/git/swp-report/iMX6_Platform_SDK/output/mx6dq/httpd/sabre_ai_rev_c/obj/apps/common/ivt.o
board_ioexpander_init                             /home/leon/git/swp-report/iMX6_Platform_SDK/output/mx6dq/lib/libboard_sabre_ai_rev_c.a(board_io_expanders.o)
                                                  /home/leon/git/swp-report/iMX6_Platform_SDK/output/mx6dq/httpd/sabre_ai_rev_c/obj/apps/common/platform_init.o
board_ioexpander_iomux_config                     /home/leon/git/swp-report/iMX6_Platform_SDK/output/mx6dq/lib/libboard_sabre_ai_rev_c.a(board_io_expanders.o)
bzero                                             /home/leon/riotboard/arm-2012.09/bin/../arm-none-eabi/lib//libc.a(lib_a-bzero.o)
                                                  /home/leon/git/swp-report/iMX6_Platform_SDK/output/mx6dq/lib/libsdk.a(mmu.o)
ccm_ccgr_config                                   /home/leon/git/swp-report/iMX6_Platform_SDK/output/mx6dq/lib/libsdk.a(ccm_pll.o)
ccm_enter_low_power                               /home/leon/git/swp-report/iMX6_Platform_SDK/output/mx6dq/lib/libsdk.a(ccm_pll.o)
ccm_init                                          /home/leon/git/swp-report/iMX6_Platform_SDK/output/mx6dq/lib/libsdk.a(ccm_pll.o)
                                                  /home/leon/git/swp-report/iMX6_Platform_SDK/output/mx6dq/httpd/sabre_ai_rev_c/obj/apps/common/platform_init.o
ccm_iomux_config                                  /home/leon/git/swp-report/iMX6_Platform_SDK/output/mx6dq/lib/libboard_sabre_ai_rev_c.a(ccm_iomux_config.o)
                                                  /home/leon/git/swp-report/iMX6_Platform_SDK/output/mx6dq/lib/libboard_sabre_ai_rev_c.a(iomux_config.o)
ccm_set_lpm_wakeup_source                         /home/leon/git/swp-report/iMX6_Platform_SDK/output/mx6dq/lib/libsdk.a(ccm_pll.o)
check_and_update_ms_timer                         /home/leon/git/swp-report/iMX6_Platform_SDK/output/mx6dq/lib/liblwip.a(mx6_lwip.o)
cleanup_glue                                      /home/leon/riotboard/arm-2012.09/bin/../arm-none-eabi/lib//libc.a(lib_a-reent.o)
clock_gating_config                               /home/leon/git/swp-report/iMX6_Platform_SDK/output/mx6dq/lib/libsdk.a(ccm_pll.o)
                                                  /home/leon/git/swp-report/iMX6_Platform_SDK/output/mx6dq/lib/libsdk.a(imx_i2c.o)
                                                  /home/leon/git/swp-report/iMX6_Platform_SDK/output/mx6dq/lib/libsdk.a(epit.o)
                                                  /home/leon/git/swp-report/iMX6_Platform_SDK/output/mx6dq/lib/libsdk.a(imx_uart.o)
common_abort_handler                              /home/leon/git/swp-report/iMX6_Platform_SDK/output/mx6dq/lib/libsdk.a(arm_abort.o)
cpu_get_current                                   /home/leon/git/swp-report/iMX6_Platform_SDK/output/mx6dq/lib/libsdk.a(cortexA9.o)
data_abort_handler                                /home/leon/git/swp-report/iMX6_Platform_SDK/output/mx6dq/lib/libsdk.a(arm_abort.o)
                                                  /home/leon/git/swp-report/iMX6_Platform_SDK/output/mx6dq/lib/libsdk.a(vectors.o)
dcic1_iomux_config                                /home/leon/git/swp-report/iMX6_Platform_SDK/output/mx6dq/lib/libboard_sabre_ai_rev_c.a(iomux_config.o)
dcic2_iomux_config                                /home/leon/git/swp-report/iMX6_Platform_SDK/output/mx6dq/lib/libboard_sabre_ai_rev_c.a(iomux_config.o)
default_interrupt_routine                         /home/leon/git/swp-report/iMX6_Platform_SDK/output/mx6dq/lib/libsdk.a(interrupt.o)
dhcp_arp_reply                                    /home/leon/git/swp-report/iMX6_Platform_SDK/output/mx6dq/lib/liblwip.a(dhcp.o)
                                                  /home/leon/git/swp-report/iMX6_Platform_SDK/output/mx6dq/lib/liblwip.a(etharp.o)
dhcp_cleanup                                      /home/leon/git/swp-report/iMX6_Platform_SDK/output/mx6dq/lib/liblwip.a(dhcp.o)
dhcp_coarse_tmr                                   /home/leon/git/swp-report/iMX6_Platform_SDK/output/mx6dq/lib/liblwip.a(dhcp.o)
                                                  /home/leon/git/swp-report/iMX6_Platform_SDK/output/mx6dq/lib/liblwip.a(mx6_lwip.o)
                                                  /home/leon/git/swp-report/iMX6_Platform_SDK/output/mx6dq/lib/liblwip.a(timers.o)
dhcp_fine_tmr                                     /home/leon/git/swp-report/iMX6_Platform_SDK/output/mx6dq/lib/liblwip.a(dhcp.o)
                                                  /home/leon/git/swp-report/iMX6_Platform_SDK/output/mx6dq/lib/liblwip.a(mx6_lwip.o)
                                                  /home/leon/git/swp-report/iMX6_Platform_SDK/output/mx6dq/lib/liblwip.a(timers.o)
dhcp_inform                                       /home/leon/git/swp-report/iMX6_Platform_SDK/output/mx6dq/lib/liblwip.a(dhcp.o)
dhcp_network_changed                              /home/leon/git/swp-report/iMX6_Platform_SDK/output/mx6dq/lib/liblwip.a(dhcp.o)
                                                  /home/leon/git/swp-report/iMX6_Platform_SDK/output/mx6dq/lib/liblwip.a(netif.o)
dhcp_release                                      /home/leon/git/swp-report/iMX6_Platform_SDK/output/mx6dq/lib/liblwip.a(dhcp.o)
dhcp_renew                                        /home/leon/git/swp-report/iMX6_Platform_SDK/output/mx6dq/lib/liblwip.a(dhcp.o)
dhcp_rx_options_given                             /home/leon/git/swp-report/iMX6_Platform_SDK/output/mx6dq/lib/liblwip.a(dhcp.o)
dhcp_rx_options_val                               /home/leon/git/swp-report/iMX6_Platform_SDK/output/mx6dq/lib/liblwip.a(dhcp.o)
dhcp_set_struct                                   /home/leon/git/swp-report/iMX6_Platform_SDK/output/mx6dq/lib/liblwip.a(dhcp.o)
dhcp_start                                        /home/leon/git/swp-report/iMX6_Platform_SDK/output/mx6dq/lib/liblwip.a(dhcp.o)
                                                  /home/leon/git/swp-report/iMX6_Platform_SDK/output/mx6dq/httpd/sabre_ai_rev_c/obj/apps/httpd/src/httpd_main.o
dhcp_stop                                         /home/leon/git/swp-report/iMX6_Platform_SDK/output/mx6dq/lib/liblwip.a(dhcp.o)
disable_L1_cache                                  /home/leon/git/swp-report/iMX6_Platform_SDK/output/mx6dq/lib/libsdk.a(cortexA9.o)
disable_interrupt                                 /home/leon/git/swp-report/iMX6_Platform_SDK/output/mx6dq/lib/libsdk.a(interrupt.o)
                                                  /home/leon/git/swp-report/iMX6_Platform_SDK/output/mx6dq/lib/libsdk.a(imx_i2c.o)
                                                  /home/leon/git/swp-report/iMX6_Platform_SDK/output/mx6dq/lib/libsdk.a(epit.o)
                                                  /home/leon/git/swp-report/iMX6_Platform_SDK/output/mx6dq/lib/libsdk.a(imx_uart.o)
disable_strict_align_check                        /home/leon/git/swp-report/iMX6_Platform_SDK/output/mx6dq/lib/libsdk.a(cortexA9.o)
                                                  /home/leon/git/swp-report/iMX6_Platform_SDK/output/mx6dq/httpd/sabre_ai_rev_c/obj/apps/common/platform_init.o
dns_gethostbyname                                 /home/leon/git/swp-report/iMX6_Platform_SDK/output/mx6dq/lib/liblwip.a(dns.o)
dns_getserver                                     /home/leon/git/swp-report/iMX6_Platform_SDK/output/mx6dq/lib/liblwip.a(dns.o)
dns_init                                          /home/leon/git/swp-report/iMX6_Platform_SDK/output/mx6dq/lib/liblwip.a(dns.o)
                                                  /home/leon/git/swp-report/iMX6_Platform_SDK/output/mx6dq/lib/liblwip.a(init.o)
                                                  /home/leon/git/swp-report/iMX6_Platform_SDK/output/mx6dq/httpd/sabre_ai_rev_c/obj/apps/httpd/src/httpd_main.o
dns_setserver                                     /home/leon/git/swp-report/iMX6_Platform_SDK/output/mx6dq/lib/liblwip.a(dns.o)
                                                  /home/leon/git/swp-report/iMX6_Platform_SDK/output/mx6dq/lib/liblwip.a(dhcp.o)
dns_tmr                                           /home/leon/git/swp-report/iMX6_Platform_SDK/output/mx6dq/lib/liblwip.a(dns.o)
                                                  /home/leon/git/swp-report/iMX6_Platform_SDK/output/mx6dq/lib/liblwip.a(mx6_lwip.o)
                                                  /home/leon/git/swp-report/iMX6_Platform_SDK/output/mx6dq/lib/liblwip.a(timers.o)
dump_regs                                         /home/leon/git/swp-report/iMX6_Platform_SDK/output/mx6dq/lib/libsdk.a(abort_handler.o)
                                                  /home/leon/git/swp-report/iMX6_Platform_SDK/output/mx6dq/lib/libsdk.a(arm_abort.o)
ecspi1_iomux_config                               /home/leon/git/swp-report/iMX6_Platform_SDK/output/mx6dq/lib/libboard_sabre_ai_rev_c.a(ecspi1_iomux_config.o)
                                                  /home/leon/git/swp-report/iMX6_Platform_SDK/output/mx6dq/lib/libboard_sabre_ai_rev_c.a(iomux_config.o)
ecspi2_iomux_config                               /home/leon/git/swp-report/iMX6_Platform_SDK/output/mx6dq/lib/libboard_sabre_ai_rev_c.a(iomux_config.o)
ecspi3_iomux_config                               /home/leon/git/swp-report/iMX6_Platform_SDK/output/mx6dq/lib/libboard_sabre_ai_rev_c.a(iomux_config.o)
ecspi4_iomux_config                               /home/leon/git/swp-report/iMX6_Platform_SDK/output/mx6dq/lib/libboard_sabre_ai_rev_c.a(iomux_config.o)
ecspi5_iomux_config                               /home/leon/git/swp-report/iMX6_Platform_SDK/output/mx6dq/lib/libboard_sabre_ai_rev_c.a(iomux_config.o)
eim_iomux_config                                  /home/leon/git/swp-report/iMX6_Platform_SDK/output/mx6dq/lib/libboard_sabre_ai_rev_c.a(eim_iomux_config.o)
                                                  /home/leon/git/swp-report/iMX6_Platform_SDK/output/mx6dq/lib/libboard_sabre_ai_rev_c.a(iomux_config.o)
enable_interrupt                                  /home/leon/git/swp-report/iMX6_Platform_SDK/output/mx6dq/lib/libsdk.a(interrupt.o)
                                                  /home/leon/git/swp-report/iMX6_Platform_SDK/output/mx6dq/lib/libsdk.a(imx_i2c.o)
                                                  /home/leon/git/swp-report/iMX6_Platform_SDK/output/mx6dq/lib/libsdk.a(epit.o)
                                                  /home/leon/git/swp-report/iMX6_Platform_SDK/output/mx6dq/lib/libsdk.a(imx_uart.o)
enable_neon_fpu                                   /home/leon/git/swp-report/iMX6_Platform_SDK/output/mx6dq/lib/libsdk.a(cortexA9.o)
                                                  /home/leon/git/swp-report/iMX6_Platform_SDK/output/mx6dq/httpd/sabre_ai_rev_c/obj/apps/common/platform_init.o
enet_init                                         /home/leon/git/swp-report/iMX6_Platform_SDK/output/mx6dq/lib/liblwip.a(mx6_ethernetif.o)
                                                  /home/leon/git/swp-report/iMX6_Platform_SDK/output/mx6dq/httpd/sabre_ai_rev_c/obj/apps/httpd/src/httpd_main.o
enet_iomux_config                                 /home/leon/git/swp-report/iMX6_Platform_SDK/output/mx6dq/lib/libboard_sabre_ai_rev_c.a(enet_iomux_config.o)
                                                  /home/leon/git/swp-report/iMX6_Platform_SDK/output/mx6dq/lib/libboard_sabre_ai_rev_c.a(board_network.o)
                                                  /home/leon/git/swp-report/iMX6_Platform_SDK/output/mx6dq/lib/libboard_sabre_ai_rev_c.a(iomux_config.o)
enet_phy_rework_ar8031                            /home/leon/git/swp-report/iMX6_Platform_SDK/output/mx6dq/lib/libsdk.a(enet_drv.o)
enet_phy_rework_ksz9021                           /home/leon/git/swp-report/iMX6_Platform_SDK/output/mx6dq/lib/libsdk.a(enet_drv.o)
enet_poll_for_packet                              /home/leon/git/swp-report/iMX6_Platform_SDK/output/mx6dq/lib/liblwip.a(mx6_ethernetif.o)
                                                  /home/leon/git/swp-report/iMX6_Platform_SDK/output/mx6dq/lib/liblwip.a(mx6_lwip.o)
enet_set_mac                                      /home/leon/git/swp-report/iMX6_Platform_SDK/output/mx6dq/lib/liblwip.a(mx6_ethernetif.o)
                                                  /home/leon/git/swp-report/iMX6_Platform_SDK/output/mx6dq/httpd/sabre_ai_rev_c/obj/apps/httpd/src/httpd_main.o
environ                                           /home/leon/git/swp-report/iMX6_Platform_SDK/output/mx6dq/lib/libsdk.a(runtime_support.o)
epit1_iomux_config                                /home/leon/git/swp-report/iMX6_Platform_SDK/output/mx6dq/lib/libboard_sabre_ai_rev_c.a(iomux_config.o)
epit2_iomux_config                                /home/leon/git/swp-report/iMX6_Platform_SDK/output/mx6dq/lib/libboard_sabre_ai_rev_c.a(iomux_config.o)
epit_counter_disable                              /home/leon/git/swp-report/iMX6_Platform_SDK/output/mx6dq/lib/libsdk.a(epit.o)
                                                  /home/leon/git/swp-report/iMX6_Platform_SDK/output/mx6dq/lib/libsdk.a(timer.o)
epit_counter_enable                               /home/leon/git/swp-report/iMX6_Platform_SDK/output/mx6dq/lib/libsdk.a(epit.o)
                                                  /home/leon/git/swp-report/iMX6_Platform_SDK/output/mx6dq/lib/libsdk.a(timer.o)
epit_get_compare_event                            /home/leon/git/swp-report/iMX6_Platform_SDK/output/mx6dq/lib/libsdk.a(epit.o)
                                                  /home/leon/git/swp-report/iMX6_Platform_SDK/output/mx6dq/lib/libsdk.a(timer.o)
epit_get_counter_value                            /home/leon/git/swp-report/iMX6_Platform_SDK/output/mx6dq/lib/libsdk.a(epit.o)
epit_init                                         /home/leon/git/swp-report/iMX6_Platform_SDK/output/mx6dq/lib/libsdk.a(epit.o)
                                                  /home/leon/git/swp-report/iMX6_Platform_SDK/output/mx6dq/lib/libsdk.a(timer.o)
epit_reload_counter                               /home/leon/git/swp-report/iMX6_Platform_SDK/output/mx6dq/lib/libsdk.a(epit.o)
epit_set_compare_event                            /home/leon/git/swp-report/iMX6_Platform_SDK/output/mx6dq/lib/libsdk.a(epit.o)
epit_setup_interrupt                              /home/leon/git/swp-report/iMX6_Platform_SDK/output/mx6dq/lib/libsdk.a(epit.o)
errno                                             /home/leon/git/swp-report/iMX6_Platform_SDK/output/mx6dq/lib/libsdk.a(runtime_support.o)
                                                  /home/leon/riotboard/arm-2012.09/bin/../arm-none-eabi/lib//libc.a(lib_a-isattyr.o)
                                                  /home/leon/riotboard/arm-2012.09/bin/../arm-none-eabi/lib//libc.a(lib_a-fstatr.o)
                                                  /home/leon/riotboard/arm-2012.09/bin/../arm-none-eabi/lib//libc.a(lib_a-reent.o)
                                                  /home/leon/riotboard/arm-2012.09/bin/../arm-none-eabi/lib//libc.a(lib_a-readr.o)
                                                  /home/leon/riotboard/arm-2012.09/bin/../arm-none-eabi/lib//libc.a(lib_a-lseekr.o)
                                                  /home/leon/riotboard/arm-2012.09/bin/../arm-none-eabi/lib//libc.a(lib_a-closer.o)
                                                  /home/leon/riotboard/arm-2012.09/bin/../arm-none-eabi/lib//libc.a(lib_a-writer.o)
                                                  /home/leon/riotboard/arm-2012.09/bin/../arm-none-eabi/lib//libc.a(lib_a-signalr.o)
                                                  /home/leon/riotboard/arm-2012.09/bin/../arm-none-eabi/lib//libc.a(lib_a-sbrkr.o)
esai_iomux_config                                 /home/leon/git/swp-report/iMX6_Platform_SDK/output/mx6dq/lib/libboard_sabre_ai_rev_c.a(esai_iomux_config.o)
                                                  /home/leon/git/swp-report/iMX6_Platform_SDK/output/mx6dq/lib/libboard_sabre_ai_rev_c.a(iomux_config.o)
etharp_cleanup_netif                              /home/leon/git/swp-report/iMX6_Platform_SDK/output/mx6dq/lib/liblwip.a(etharp.o)
                                                  /home/leon/git/swp-report/iMX6_Platform_SDK/output/mx6dq/lib/liblwip.a(netif.o)
etharp_find_addr                                  /home/leon/git/swp-report/iMX6_Platform_SDK/output/mx6dq/lib/liblwip.a(etharp.o)
                                                  /home/leon/git/swp-report/iMX6_Platform_SDK/output/mx6dq/lib/liblwip.a(mib2.o)
etharp_output                                     /home/leon/git/swp-report/iMX6_Platform_SDK/output/mx6dq/lib/liblwip.a(etharp.o)
                                                  /home/leon/git/swp-report/iMX6_Platform_SDK/output/mx6dq/lib/liblwip.a(mx6_ethernetif.o)
etharp_query                                      /home/leon/git/swp-report/iMX6_Platform_SDK/output/mx6dq/lib/liblwip.a(etharp.o)
                                                  /home/leon/git/swp-report/iMX6_Platform_SDK/output/mx6dq/lib/liblwip.a(dhcp.o)
etharp_raw                                        /home/leon/git/swp-report/iMX6_Platform_SDK/output/mx6dq/lib/liblwip.a(etharp.o)
                                                  /home/leon/git/swp-report/iMX6_Platform_SDK/output/mx6dq/lib/liblwip.a(autoip.o)
etharp_request                                    /home/leon/git/swp-report/iMX6_Platform_SDK/output/mx6dq/lib/liblwip.a(etharp.o)
                                                  /home/leon/git/swp-report/iMX6_Platform_SDK/output/mx6dq/lib/liblwip.a(netif.o)
etharp_tmr                                        /home/leon/git/swp-report/iMX6_Platform_SDK/output/mx6dq/lib/liblwip.a(etharp.o)
                                                  /home/leon/git/swp-report/iMX6_Platform_SDK/output/mx6dq/lib/liblwip.a(mx6_lwip.o)
                                                  /home/leon/git/swp-report/iMX6_Platform_SDK/output/mx6dq/lib/liblwip.a(timers.o)
ethbroadcast                                      /home/leon/git/swp-report/iMX6_Platform_SDK/output/mx6dq/lib/liblwip.a(etharp.o)
                                                  /home/leon/git/swp-report/iMX6_Platform_SDK/output/mx6dq/lib/liblwip.a(autoip.o)
ethernet_input                                    /home/leon/git/swp-report/iMX6_Platform_SDK/output/mx6dq/lib/liblwip.a(etharp.o)
                                                  /home/leon/git/swp-report/iMX6_Platform_SDK/output/mx6dq/httpd/sabre_ai_rev_c/obj/apps/httpd/src/httpd_main.o
ethzero                                           /home/leon/git/swp-report/iMX6_Platform_SDK/output/mx6dq/lib/liblwip.a(etharp.o)
                                                  /home/leon/git/swp-report/iMX6_Platform_SDK/output/mx6dq/lib/liblwip.a(autoip.o)
exception_handler                                 /home/leon/git/swp-report/iMX6_Platform_SDK/output/mx6dq/lib/libsdk.a(vectors.o)
fclose                                            /home/leon/riotboard/arm-2012.09/bin/../arm-none-eabi/lib//libc.a(lib_a-fclose.o)
                                                  /home/leon/riotboard/arm-2012.09/bin/../arm-none-eabi/lib//libc.a(lib_a-findfp.o)
fflush                                            /home/leon/riotboard/arm-2012.09/bin/../arm-none-eabi/lib//libc.a(lib_a-fflush.o)
                                                  /home/leon/riotboard/arm-2012.09/bin/../arm-none-eabi/lib//libc.a(lib_a-refill.o)
                                                  /home/leon/git/swp-report/iMX6_Platform_SDK/output/mx6dq/lib/liblwip.a(icmp.o)
                                                  /home/leon/git/swp-report/iMX6_Platform_SDK/output/mx6dq/lib/liblwip.a(inet_chksum.o)
                                                  /home/leon/git/swp-report/iMX6_Platform_SDK/output/mx6dq/lib/liblwip.a(mx6_ethernetif.o)
                                                  /home/leon/git/swp-report/iMX6_Platform_SDK/output/mx6dq/lib/liblwip.a(etharp.o)
                                                  /home/leon/git/swp-report/iMX6_Platform_SDK/output/mx6dq/lib/liblwip.a(udp.o)
                                                  /home/leon/git/swp-report/iMX6_Platform_SDK/output/mx6dq/lib/liblwip.a(timers.o)
                                                  /home/leon/git/swp-report/iMX6_Platform_SDK/output/mx6dq/lib/liblwip.a(tcp_out.o)
                                                  /home/leon/git/swp-report/iMX6_Platform_SDK/output/mx6dq/lib/liblwip.a(tcp_in.o)
                                                  /home/leon/git/swp-report/iMX6_Platform_SDK/output/mx6dq/lib/liblwip.a(tcp.o)
                                                  /home/leon/git/swp-report/iMX6_Platform_SDK/output/mx6dq/lib/liblwip.a(msg_in.o)
                                                  /home/leon/git/swp-report/iMX6_Platform_SDK/output/mx6dq/lib/liblwip.a(mib_structs.o)
                                                  /home/leon/git/swp-report/iMX6_Platform_SDK/output/mx6dq/lib/liblwip.a(mib2.o)
                                                  /home/leon/git/swp-report/iMX6_Platform_SDK/output/mx6dq/lib/liblwip.a(raw.o)
                                                  /home/leon/git/swp-report/iMX6_Platform_SDK/output/mx6dq/lib/liblwip.a(pbuf.o)
                                                  /home/leon/git/swp-report/iMX6_Platform_SDK/output/mx6dq/lib/liblwip.a(netif.o)
                                                  /home/leon/git/swp-report/iMX6_Platform_SDK/output/mx6dq/lib/liblwip.a(ip4_addr.o)
                                                  /home/leon/git/swp-report/iMX6_Platform_SDK/output/mx6dq/lib/liblwip.a(ip4.o)
                                                  /home/leon/git/swp-report/iMX6_Platform_SDK/output/mx6dq/lib/liblwip.a(igmp.o)
                                                  /home/leon/git/swp-report/iMX6_Platform_SDK/output/mx6dq/lib/liblwip.a(autoip.o)
                                                  /home/leon/git/swp-report/iMX6_Platform_SDK/output/mx6dq/lib/liblwip.a(dns.o)
                                                  /home/leon/git/swp-report/iMX6_Platform_SDK/output/mx6dq/lib/liblwip.a(dhcp.o)
                                                  /home/leon/git/swp-report/iMX6_Platform_SDK/output/mx6dq/httpd/sabre_ai_rev_c/obj/lwip/contrib/apps/httpserver_raw/httpd.o
file__404_html                                    /home/leon/git/swp-report/iMX6_Platform_SDK/output/mx6dq/httpd/sabre_ai_rev_c/obj/lwip/contrib/apps/httpserver_raw/fs.o
file__img_sics_gif                                /home/leon/git/swp-report/iMX6_Platform_SDK/output/mx6dq/httpd/sabre_ai_rev_c/obj/lwip/contrib/apps/httpserver_raw/fs.o
file__index_html                                  /home/leon/git/swp-report/iMX6_Platform_SDK/output/mx6dq/httpd/sabre_ai_rev_c/obj/lwip/contrib/apps/httpserver_raw/fs.o
fiprintf                                          /home/leon/riotboard/arm-2012.09/bin/../arm-none-eabi/lib//libc.a(lib_a-fiprintf.o)
                                                  /home/leon/riotboard/arm-2012.09/bin/../arm-none-eabi/lib//libc.a(lib_a-assert.o)
flexcan1_iomux_config                             /home/leon/git/swp-report/iMX6_Platform_SDK/output/mx6dq/lib/libboard_sabre_ai_rev_c.a(flexcan1_iomux_config.o)
                                                  /home/leon/git/swp-report/iMX6_Platform_SDK/output/mx6dq/lib/libboard_sabre_ai_rev_c.a(iomux_config.o)
flexcan2_iomux_config                             /home/leon/git/swp-report/iMX6_Platform_SDK/output/mx6dq/lib/libboard_sabre_ai_rev_c.a(flexcan2_iomux_config.o)
                                                  /home/leon/git/swp-report/iMX6_Platform_SDK/output/mx6dq/lib/libboard_sabre_ai_rev_c.a(iomux_config.o)
fputc                                             /home/leon/riotboard/arm-2012.09/bin/../arm-none-eabi/lib//libc.a(lib_a-fputc.o)
                                                  /home/leon/git/swp-report/iMX6_Platform_SDK/output/mx6dq/lib/libsdk.a(system_util.o)
fputwc                                            /home/leon/riotboard/arm-2012.09/bin/../arm-none-eabi/lib//libc.a(lib_a-fputwc.o)
free                                              /home/leon/riotboard/arm-2012.09/bin/../arm-none-eabi/lib//libc.a(lib_a-malloc.o)
                                                  /home/leon/git/swp-report/iMX6_Platform_SDK/output/mx6dq/lib/liblwip.a(etharp.o)
                                                  /home/leon/git/swp-report/iMX6_Platform_SDK/output/mx6dq/lib/liblwip.a(udp.o)
                                                  /home/leon/git/swp-report/iMX6_Platform_SDK/output/mx6dq/lib/liblwip.a(timers.o)
                                                  /home/leon/git/swp-report/iMX6_Platform_SDK/output/mx6dq/lib/liblwip.a(tcp_in.o)
                                                  /home/leon/git/swp-report/iMX6_Platform_SDK/output/mx6dq/lib/liblwip.a(tcp.o)
                                                  /home/leon/git/swp-report/iMX6_Platform_SDK/output/mx6dq/lib/liblwip.a(msg_in.o)
                                                  /home/leon/git/swp-report/iMX6_Platform_SDK/output/mx6dq/lib/liblwip.a(mib_structs.o)
                                                  /home/leon/git/swp-report/iMX6_Platform_SDK/output/mx6dq/lib/liblwip.a(raw.o)
                                                  /home/leon/git/swp-report/iMX6_Platform_SDK/output/mx6dq/lib/liblwip.a(pbuf.o)
                                                  /home/leon/git/swp-report/iMX6_Platform_SDK/output/mx6dq/lib/liblwip.a(igmp.o)
                                                  /home/leon/git/swp-report/iMX6_Platform_SDK/output/mx6dq/lib/liblwip.a(dhcp.o)
                                                  /home/leon/git/swp-report/iMX6_Platform_SDK/output/mx6dq/httpd/sabre_ai_rev_c/obj/lwip/contrib/apps/httpserver_raw/httpd.o
free_memory_end                                   /home/leon/git/swp-report/iMX6_Platform_SDK/output/mx6dq/lib/libsdk.a(runtime_support.o)
free_memory_start                                 /home/leon/git/swp-report/iMX6_Platform_SDK/output/mx6dq/lib/libsdk.a(runtime_support.o)
fs_bytes_left                                     /home/leon/git/swp-report/iMX6_Platform_SDK/output/mx6dq/httpd/sabre_ai_rev_c/obj/lwip/contrib/apps/httpserver_raw/fs.o
                                                  /home/leon/git/swp-report/iMX6_Platform_SDK/output/mx6dq/httpd/sabre_ai_rev_c/obj/lwip/contrib/apps/httpserver_raw/httpd.o
fs_close                                          /home/leon/git/swp-report/iMX6_Platform_SDK/output/mx6dq/httpd/sabre_ai_rev_c/obj/lwip/contrib/apps/httpserver_raw/fs.o
                                                  /home/leon/git/swp-report/iMX6_Platform_SDK/output/mx6dq/httpd/sabre_ai_rev_c/obj/lwip/contrib/apps/httpserver_raw/httpd.o
fs_open                                           /home/leon/git/swp-report/iMX6_Platform_SDK/output/mx6dq/httpd/sabre_ai_rev_c/obj/lwip/contrib/apps/httpserver_raw/fs.o
                                                  /home/leon/git/swp-report/iMX6_Platform_SDK/output/mx6dq/httpd/sabre_ai_rev_c/obj/lwip/contrib/apps/httpserver_raw/httpd.o
g_TextAttributeBlink                              /home/leon/git/swp-report/iMX6_Platform_SDK/output/mx6dq/lib/libsdk.a(text_color.o)
g_TextAttributeBold                               /home/leon/git/swp-report/iMX6_Platform_SDK/output/mx6dq/lib/libsdk.a(text_color.o)
                                                  /home/leon/git/swp-report/iMX6_Platform_SDK/output/mx6dq/lib/libsdk.a(system_util.o)
g_TextAttributeDefault                            /home/leon/git/swp-report/iMX6_Platform_SDK/output/mx6dq/lib/libsdk.a(text_color.o)
g_TextAttributeDim                                /home/leon/git/swp-report/iMX6_Platform_SDK/output/mx6dq/lib/libsdk.a(text_color.o)
g_TextAttributeHidden                             /home/leon/git/swp-report/iMX6_Platform_SDK/output/mx6dq/lib/libsdk.a(text_color.o)
g_TextAttributeReverse                            /home/leon/git/swp-report/iMX6_Platform_SDK/output/mx6dq/lib/libsdk.a(text_color.o)
g_TextAttributeUnderline                          /home/leon/git/swp-report/iMX6_Platform_SDK/output/mx6dq/lib/libsdk.a(text_color.o)
g_TextColorBlack                                  /home/leon/git/swp-report/iMX6_Platform_SDK/output/mx6dq/lib/libsdk.a(text_color.o)
g_TextColorBlue                                   /home/leon/git/swp-report/iMX6_Platform_SDK/output/mx6dq/lib/libsdk.a(text_color.o)
g_TextColorCyan                                   /home/leon/git/swp-report/iMX6_Platform_SDK/output/mx6dq/lib/libsdk.a(text_color.o)
g_TextColorGray                                   /home/leon/git/swp-report/iMX6_Platform_SDK/output/mx6dq/lib/libsdk.a(text_color.o)
g_TextColorGreen                                  /home/leon/git/swp-report/iMX6_Platform_SDK/output/mx6dq/lib/libsdk.a(text_color.o)
g_TextColorLightBlue                              /home/leon/git/swp-report/iMX6_Platform_SDK/output/mx6dq/lib/libsdk.a(text_color.o)
g_TextColorMagenta                                /home/leon/git/swp-report/iMX6_Platform_SDK/output/mx6dq/lib/libsdk.a(text_color.o)
g_TextColorOrange                                 /home/leon/git/swp-report/iMX6_Platform_SDK/output/mx6dq/lib/libsdk.a(text_color.o)
g_TextColorPurple                                 /home/leon/git/swp-report/iMX6_Platform_SDK/output/mx6dq/lib/libsdk.a(text_color.o)
g_TextColorRed                                    /home/leon/git/swp-report/iMX6_Platform_SDK/output/mx6dq/lib/libsdk.a(text_color.o)
                                                  /home/leon/git/swp-report/iMX6_Platform_SDK/output/mx6dq/lib/libsdk.a(system_util.o)
g_TextColorWhite                                  /home/leon/git/swp-report/iMX6_Platform_SDK/output/mx6dq/lib/libsdk.a(text_color.o)
g_TextColorYellow                                 /home/leon/git/swp-report/iMX6_Platform_SDK/output/mx6dq/lib/libsdk.a(text_color.o)
g_debug_uart_port                                 /home/leon/git/swp-report/iMX6_Platform_SDK/output/mx6dq/lib/libboard_sabre_ai_rev_c.a(hardware_modules.o)
                                                  /home/leon/git/swp-report/iMX6_Platform_SDK/output/mx6dq/lib/libsdk.a(runtime_support.o)
                                                  /home/leon/git/swp-report/iMX6_Platform_SDK/output/mx6dq/lib/libsdk.a(system_util.o)
                                                  /home/leon/git/swp-report/iMX6_Platform_SDK/output/mx6dq/httpd/sabre_ai_rev_c/obj/apps/common/platform_init.o
g_en0                                             /home/leon/git/swp-report/iMX6_Platform_SDK/output/mx6dq/lib/liblwip.a(mx6_ethernetif.o)
                                                  /home/leon/git/swp-report/iMX6_Platform_SDK/output/mx6dq/httpd/sabre_ai_rev_c/obj/apps/httpd/src/httpd_main.o
g_iNumCGIs                                        /home/leon/git/swp-report/iMX6_Platform_SDK/output/mx6dq/httpd/sabre_ai_rev_c/obj/lwip/contrib/apps/httpserver_raw/httpd.o
g_interrupt_handlers                              /home/leon/git/swp-report/iMX6_Platform_SDK/output/mx6dq/lib/libsdk.a(interrupt.o)
g_microsecondTimerMultiple                        /home/leon/git/swp-report/iMX6_Platform_SDK/output/mx6dq/lib/libsdk.a(timer.o)
g_netif                                           /home/leon/git/swp-report/iMX6_Platform_SDK/output/mx6dq/httpd/sabre_ai_rev_c/obj/apps/httpd/src/httpd_main.o
g_pCGIs                                           /home/leon/git/swp-report/iMX6_Platform_SDK/output/mx6dq/httpd/sabre_ai_rev_c/obj/lwip/contrib/apps/httpserver_raw/httpd.o
g_psDefaultFilenames                              /home/leon/git/swp-report/iMX6_Platform_SDK/output/mx6dq/httpd/sabre_ai_rev_c/obj/lwip/contrib/apps/httpserver_raw/httpd.o
g_system_timer_port                               /home/leon/git/swp-report/iMX6_Platform_SDK/output/mx6dq/lib/libboard_sabre_ai_rev_c.a(hardware_modules.o)
                                                  /home/leon/git/swp-report/iMX6_Platform_SDK/output/mx6dq/lib/libsdk.a(timer.o)
g_vectNum                                         /home/leon/git/swp-report/iMX6_Platform_SDK/output/mx6dq/lib/libsdk.a(interrupt.o)
get_arm_private_peripheral_base                   /home/leon/git/swp-report/iMX6_Platform_SDK/output/mx6dq/lib/libsdk.a(cortexA9.o)
                                                  /home/leon/git/swp-report/iMX6_Platform_SDK/output/mx6dq/lib/libsdk.a(gic.o)
get_color_supported                               /home/leon/git/swp-report/iMX6_Platform_SDK/output/mx6dq/lib/libsdk.a(text_color.o)
get_input_hex                                     /home/leon/git/swp-report/iMX6_Platform_SDK/output/mx6dq/lib/libsdk.a(system_util.o)
get_main_clock                                    /home/leon/git/swp-report/iMX6_Platform_SDK/output/mx6dq/lib/libsdk.a(ccm_pll.o)
                                                  /home/leon/git/swp-report/iMX6_Platform_SDK/output/mx6dq/lib/libsdk.a(imx_i2c.o)
                                                  /home/leon/git/swp-report/iMX6_Platform_SDK/output/mx6dq/lib/libsdk.a(timer.o)
                                                  /home/leon/git/swp-report/iMX6_Platform_SDK/output/mx6dq/lib/libsdk.a(enet_drv.o)
get_peri_clock                                    /home/leon/git/swp-report/iMX6_Platform_SDK/output/mx6dq/lib/libsdk.a(ccm_pll.o)
                                                  /home/leon/git/swp-report/iMX6_Platform_SDK/output/mx6dq/lib/libsdk.a(imx_uart.o)
gic_cpu_enable                                    /home/leon/git/swp-report/iMX6_Platform_SDK/output/mx6dq/lib/libsdk.a(gic.o)
gic_enable                                        /home/leon/git/swp-report/iMX6_Platform_SDK/output/mx6dq/lib/libsdk.a(gic.o)
gic_enable_irq                                    /home/leon/git/swp-report/iMX6_Platform_SDK/output/mx6dq/lib/libsdk.a(gic.o)
                                                  /home/leon/git/swp-report/iMX6_Platform_SDK/output/mx6dq/lib/libsdk.a(interrupt.o)
gic_init                                          /home/leon/git/swp-report/iMX6_Platform_SDK/output/mx6dq/lib/libsdk.a(gic.o)
                                                  /home/leon/git/swp-report/iMX6_Platform_SDK/output/mx6dq/httpd/sabre_ai_rev_c/obj/apps/common/platform_init.o
gic_init_cpu                                      /home/leon/git/swp-report/iMX6_Platform_SDK/output/mx6dq/lib/libsdk.a(gic.o)
gic_read_irq_ack                                  /home/leon/git/swp-report/iMX6_Platform_SDK/output/mx6dq/lib/libsdk.a(gic.o)
                                                  /home/leon/git/swp-report/iMX6_Platform_SDK/output/mx6dq/lib/libsdk.a(interrupt.o)
gic_send_sgi                                      /home/leon/git/swp-report/iMX6_Platform_SDK/output/mx6dq/lib/libsdk.a(gic.o)
gic_set_cpu_priority_mask                         /home/leon/git/swp-report/iMX6_Platform_SDK/output/mx6dq/lib/libsdk.a(gic.o)
gic_set_cpu_target                                /home/leon/git/swp-report/iMX6_Platform_SDK/output/mx6dq/lib/libsdk.a(gic.o)
                                                  /home/leon/git/swp-report/iMX6_Platform_SDK/output/mx6dq/lib/libsdk.a(interrupt.o)
gic_set_irq_priority                              /home/leon/git/swp-report/iMX6_Platform_SDK/output/mx6dq/lib/libsdk.a(gic.o)
                                                  /home/leon/git/swp-report/iMX6_Platform_SDK/output/mx6dq/lib/libsdk.a(interrupt.o)
gic_set_irq_security                              /home/leon/git/swp-report/iMX6_Platform_SDK/output/mx6dq/lib/libsdk.a(gic.o)
                                                  /home/leon/git/swp-report/iMX6_Platform_SDK/output/mx6dq/lib/libsdk.a(interrupt.o)
gic_write_end_of_irq                              /home/leon/git/swp-report/iMX6_Platform_SDK/output/mx6dq/lib/libsdk.a(gic.o)
                                                  /home/leon/git/swp-report/iMX6_Platform_SDK/output/mx6dq/lib/libsdk.a(interrupt.o)
gpio1_iomux_config                                /home/leon/git/swp-report/iMX6_Platform_SDK/output/mx6dq/lib/libboard_sabre_ai_rev_c.a(gpio1_iomux_config.o)
                                                  /home/leon/git/swp-report/iMX6_Platform_SDK/output/mx6dq/lib/libboard_sabre_ai_rev_c.a(iomux_config.o)
gpio2_iomux_config                                /home/leon/git/swp-report/iMX6_Platform_SDK/output/mx6dq/lib/libboard_sabre_ai_rev_c.a(gpio2_iomux_config.o)
                                                  /home/leon/git/swp-report/iMX6_Platform_SDK/output/mx6dq/lib/libboard_sabre_ai_rev_c.a(iomux_config.o)
gpio3_iomux_config                                /home/leon/git/swp-report/iMX6_Platform_SDK/output/mx6dq/lib/libboard_sabre_ai_rev_c.a(iomux_config.o)
gpio4_iomux_config                                /home/leon/git/swp-report/iMX6_Platform_SDK/output/mx6dq/lib/libboard_sabre_ai_rev_c.a(gpio4_iomux_config.o)
                                                  /home/leon/git/swp-report/iMX6_Platform_SDK/output/mx6dq/lib/libboard_sabre_ai_rev_c.a(iomux_config.o)
gpio5_iomux_config                                /home/leon/git/swp-report/iMX6_Platform_SDK/output/mx6dq/lib/libboard_sabre_ai_rev_c.a(gpio5_iomux_config.o)
                                                  /home/leon/git/swp-report/iMX6_Platform_SDK/output/mx6dq/lib/libboard_sabre_ai_rev_c.a(iomux_config.o)
gpio6_iomux_config                                /home/leon/git/swp-report/iMX6_Platform_SDK/output/mx6dq/lib/libboard_sabre_ai_rev_c.a(gpio6_iomux_config.o)
                                                  /home/leon/git/swp-report/iMX6_Platform_SDK/output/mx6dq/lib/libboard_sabre_ai_rev_c.a(iomux_config.o)
gpio7_iomux_config                                /home/leon/git/swp-report/iMX6_Platform_SDK/output/mx6dq/lib/libboard_sabre_ai_rev_c.a(iomux_config.o)
gpio_clear_interrupt                              /home/leon/git/swp-report/iMX6_Platform_SDK/output/mx6dq/lib/libsdk.a(gpio.o)
gpio_get_direction                                /home/leon/git/swp-report/iMX6_Platform_SDK/output/mx6dq/lib/libsdk.a(gpio.o)
gpio_get_interrupt_status                         /home/leon/git/swp-report/iMX6_Platform_SDK/output/mx6dq/lib/libsdk.a(gpio.o)
gpio_get_level                                    /home/leon/git/swp-report/iMX6_Platform_SDK/output/mx6dq/lib/libsdk.a(gpio.o)
gpio_get_port_count                               /home/leon/git/swp-report/iMX6_Platform_SDK/output/mx6dq/lib/libsdk.a(gpio.o)
gpio_set_direction                                /home/leon/git/swp-report/iMX6_Platform_SDK/output/mx6dq/lib/libsdk.a(gpio.o)
                                                  /home/leon/git/swp-report/iMX6_Platform_SDK/output/mx6dq/lib/libboard_sabre_ai_rev_c.a(board_network.o)
                                                  /home/leon/git/swp-report/iMX6_Platform_SDK/output/mx6dq/lib/libboard_sabre_ai_rev_c.a(board_io_expanders.o)
gpio_set_gpio                                     /home/leon/git/swp-report/iMX6_Platform_SDK/output/mx6dq/lib/libsdk.a(gpio.o)
                                                  /home/leon/git/swp-report/iMX6_Platform_SDK/output/mx6dq/lib/libboard_sabre_ai_rev_c.a(board_network.o)
                                                  /home/leon/git/swp-report/iMX6_Platform_SDK/output/mx6dq/lib/libboard_sabre_ai_rev_c.a(board_io_expanders.o)
gpio_set_interrupt_config                         /home/leon/git/swp-report/iMX6_Platform_SDK/output/mx6dq/lib/libsdk.a(gpio.o)
gpio_set_interrupt_mask                           /home/leon/git/swp-report/iMX6_Platform_SDK/output/mx6dq/lib/libsdk.a(gpio.o)
gpio_set_level                                    /home/leon/git/swp-report/iMX6_Platform_SDK/output/mx6dq/lib/libsdk.a(gpio.o)
                                                  /home/leon/git/swp-report/iMX6_Platform_SDK/output/mx6dq/lib/libboard_sabre_ai_rev_c.a(board_io_expanders.o)
gpmi_iomux_config                                 /home/leon/git/swp-report/iMX6_Platform_SDK/output/mx6dq/lib/libboard_sabre_ai_rev_c.a(gpmi_iomux_config.o)
                                                  /home/leon/git/swp-report/iMX6_Platform_SDK/output/mx6dq/lib/libboard_sabre_ai_rev_c.a(iomux_config.o)
gpt_iomux_config                                  /home/leon/git/swp-report/iMX6_Platform_SDK/output/mx6dq/lib/libboard_sabre_ai_rev_c.a(iomux_config.o)
gpu_clock_config                                  /home/leon/git/swp-report/iMX6_Platform_SDK/output/mx6dq/lib/libsdk.a(ccm_pll.o)
hal_delay_us                                      /home/leon/git/swp-report/iMX6_Platform_SDK/output/mx6dq/lib/libsdk.a(timer.o)
                                                  /home/leon/git/swp-report/iMX6_Platform_SDK/output/mx6dq/lib/libsdk.a(enet_drv.o)
                                                  /home/leon/git/swp-report/iMX6_Platform_SDK/output/mx6dq/httpd/sabre_ai_rev_c/obj/apps/httpd/src/httpd_main.o
hdmi_iomux_config                                 /home/leon/git/swp-report/iMX6_Platform_SDK/output/mx6dq/lib/libboard_sabre_ai_rev_c.a(iomux_config.o)
http_set_cgi_handlers                             /home/leon/git/swp-report/iMX6_Platform_SDK/output/mx6dq/httpd/sabre_ai_rev_c/obj/lwip/contrib/apps/httpserver_raw/httpd.o
httpd_init                                        /home/leon/git/swp-report/iMX6_Platform_SDK/output/mx6dq/httpd/sabre_ai_rev_c/obj/lwip/contrib/apps/httpserver_raw/httpd.o
                                                  /home/leon/git/swp-report/iMX6_Platform_SDK/output/mx6dq/httpd/sabre_ai_rev_c/obj/apps/httpd/src/httpd_main.o
i2c1_iomux_config                                 /home/leon/git/swp-report/iMX6_Platform_SDK/output/mx6dq/lib/libboard_sabre_ai_rev_c.a(iomux_config.o)
                                                  /home/leon/git/swp-report/iMX6_Platform_SDK/output/mx6dq/lib/libboard_sabre_ai_rev_c.a(i2c_iomux_config.o)
i2c2_iomux_config                                 /home/leon/git/swp-report/iMX6_Platform_SDK/output/mx6dq/lib/libboard_sabre_ai_rev_c.a(i2c2_iomux_config.o)
                                                  /home/leon/git/swp-report/iMX6_Platform_SDK/output/mx6dq/lib/libboard_sabre_ai_rev_c.a(i2c_iomux_config.o)
                                                  /home/leon/git/swp-report/iMX6_Platform_SDK/output/mx6dq/lib/libboard_sabre_ai_rev_c.a(iomux_config.o)
i2c3_iomux_config                                 /home/leon/git/swp-report/iMX6_Platform_SDK/output/mx6dq/lib/libboard_sabre_ai_rev_c.a(i2c3_iomux_config.o)
                                                  /home/leon/git/swp-report/iMX6_Platform_SDK/output/mx6dq/lib/libboard_sabre_ai_rev_c.a(i2c_iomux_config.o)
                                                  /home/leon/git/swp-report/iMX6_Platform_SDK/output/mx6dq/lib/libboard_sabre_ai_rev_c.a(iomux_config.o)
                                                  /home/leon/git/swp-report/iMX6_Platform_SDK/output/mx6dq/lib/libboard_sabre_ai_rev_c.a(board_io_expanders.o)
i2c_get_request_instance                          /home/leon/git/swp-report/iMX6_Platform_SDK/output/mx6dq/lib/libsdk.a(imx_i2c.o)
i2c_init                                          /home/leon/git/swp-report/iMX6_Platform_SDK/output/mx6dq/lib/libsdk.a(imx_i2c.o)
                                                  /home/leon/git/swp-report/iMX6_Platform_SDK/output/mx6dq/lib/libsdk.a(max7310.o)
i2c_iomux_config                                  /home/leon/git/swp-report/iMX6_Platform_SDK/output/mx6dq/lib/libboard_sabre_ai_rev_c.a(i2c_iomux_config.o)
                                                  /home/leon/git/swp-report/iMX6_Platform_SDK/output/mx6dq/lib/libsdk.a(imx_i2c.o)
i2c_read                                          /home/leon/git/swp-report/iMX6_Platform_SDK/output/mx6dq/lib/libsdk.a(imx_i2c.o)
                                                  /home/leon/git/swp-report/iMX6_Platform_SDK/output/mx6dq/lib/libsdk.a(max7310.o)
i2c_setup_interrupt                               /home/leon/git/swp-report/iMX6_Platform_SDK/output/mx6dq/lib/libsdk.a(imx_i2c.o)
i2c_write                                         /home/leon/git/swp-report/iMX6_Platform_SDK/output/mx6dq/lib/libsdk.a(imx_i2c.o)
                                                  /home/leon/git/swp-report/iMX6_Platform_SDK/output/mx6dq/lib/libsdk.a(max7310.o)
i2c_xfer                                          /home/leon/git/swp-report/iMX6_Platform_SDK/output/mx6dq/lib/libsdk.a(imx_i2c.o)
icmp                                              /home/leon/git/swp-report/iMX6_Platform_SDK/output/mx6dq/lib/liblwip.a(mib2.o)
icmp_dest_unreach                                 /home/leon/git/swp-report/iMX6_Platform_SDK/output/mx6dq/lib/liblwip.a(icmp.o)
                                                  /home/leon/git/swp-report/iMX6_Platform_SDK/output/mx6dq/lib/liblwip.a(udp.o)
                                                  /home/leon/git/swp-report/iMX6_Platform_SDK/output/mx6dq/lib/liblwip.a(ip4.o)
icmp_ids                                          /home/leon/git/swp-report/iMX6_Platform_SDK/output/mx6dq/lib/liblwip.a(mib2.o)
icmp_input                                        /home/leon/git/swp-report/iMX6_Platform_SDK/output/mx6dq/lib/liblwip.a(icmp.o)
                                                  /home/leon/git/swp-report/iMX6_Platform_SDK/output/mx6dq/lib/liblwip.a(ip4.o)
icmp_nodes                                        /home/leon/git/swp-report/iMX6_Platform_SDK/output/mx6dq/lib/liblwip.a(mib2.o)
icmp_scalar                                       /home/leon/git/swp-report/iMX6_Platform_SDK/output/mx6dq/lib/liblwip.a(mib2.o)
ifentry                                           /home/leon/git/swp-report/iMX6_Platform_SDK/output/mx6dq/lib/liblwip.a(mib2.o)
ifentry_ids                                       /home/leon/git/swp-report/iMX6_Platform_SDK/output/mx6dq/lib/liblwip.a(mib2.o)
ifentry_nodes                                     /home/leon/git/swp-report/iMX6_Platform_SDK/output/mx6dq/lib/liblwip.a(mib2.o)
iflist_root                                       /home/leon/git/swp-report/iMX6_Platform_SDK/output/mx6dq/lib/liblwip.a(mib2.o)
iftable                                           /home/leon/git/swp-report/iMX6_Platform_SDK/output/mx6dq/lib/liblwip.a(mib2.o)
iftable_id                                        /home/leon/git/swp-report/iMX6_Platform_SDK/output/mx6dq/lib/liblwip.a(mib2.o)
iftable_node                                      /home/leon/git/swp-report/iMX6_Platform_SDK/output/mx6dq/lib/liblwip.a(mib2.o)
igmp_dump_group_list                              /home/leon/git/swp-report/iMX6_Platform_SDK/output/mx6dq/lib/liblwip.a(igmp.o)
igmp_init                                         /home/leon/git/swp-report/iMX6_Platform_SDK/output/mx6dq/lib/liblwip.a(igmp.o)
                                                  /home/leon/git/swp-report/iMX6_Platform_SDK/output/mx6dq/lib/liblwip.a(init.o)
igmp_input                                        /home/leon/git/swp-report/iMX6_Platform_SDK/output/mx6dq/lib/liblwip.a(igmp.o)
                                                  /home/leon/git/swp-report/iMX6_Platform_SDK/output/mx6dq/lib/liblwip.a(ip4.o)
igmp_joingroup                                    /home/leon/git/swp-report/iMX6_Platform_SDK/output/mx6dq/lib/liblwip.a(igmp.o)
igmp_leavegroup                                   /home/leon/git/swp-report/iMX6_Platform_SDK/output/mx6dq/lib/liblwip.a(igmp.o)
igmp_lookfor_group                                /home/leon/git/swp-report/iMX6_Platform_SDK/output/mx6dq/lib/liblwip.a(igmp.o)
                                                  /home/leon/git/swp-report/iMX6_Platform_SDK/output/mx6dq/lib/liblwip.a(ip4.o)
igmp_report_groups                                /home/leon/git/swp-report/iMX6_Platform_SDK/output/mx6dq/lib/liblwip.a(igmp.o)
                                                  /home/leon/git/swp-report/iMX6_Platform_SDK/output/mx6dq/lib/liblwip.a(netif.o)
igmp_start                                        /home/leon/git/swp-report/iMX6_Platform_SDK/output/mx6dq/lib/liblwip.a(igmp.o)
                                                  /home/leon/git/swp-report/iMX6_Platform_SDK/output/mx6dq/lib/liblwip.a(netif.o)
igmp_stop                                         /home/leon/git/swp-report/iMX6_Platform_SDK/output/mx6dq/lib/liblwip.a(igmp.o)
                                                  /home/leon/git/swp-report/iMX6_Platform_SDK/output/mx6dq/lib/liblwip.a(netif.o)
igmp_tmr                                          /home/leon/git/swp-report/iMX6_Platform_SDK/output/mx6dq/lib/liblwip.a(igmp.o)
                                                  /home/leon/git/swp-report/iMX6_Platform_SDK/output/mx6dq/lib/liblwip.a(timers.o)
imx_KSZ9021RN_reset                               /home/leon/git/swp-report/iMX6_Platform_SDK/output/mx6dq/lib/libboard_sabre_ai_rev_c.a(board_network.o)
imx_ar8031_iomux                                  /home/leon/git/swp-report/iMX6_Platform_SDK/output/mx6dq/lib/libboard_sabre_ai_rev_c.a(board_network.o)
imx_ar8031_reset                                  /home/leon/git/swp-report/iMX6_Platform_SDK/output/mx6dq/lib/libboard_sabre_ai_rev_c.a(board_network.o)
imx_enet_get_phy_status                           /home/leon/git/swp-report/iMX6_Platform_SDK/output/mx6dq/lib/libsdk.a(enet_drv.o)
                                                  /home/leon/git/swp-report/iMX6_Platform_SDK/output/mx6dq/httpd/sabre_ai_rev_c/obj/apps/httpd/src/httpd_main.o
imx_enet_init                                     /home/leon/git/swp-report/iMX6_Platform_SDK/output/mx6dq/lib/libsdk.a(enet_drv.o)
                                                  /home/leon/git/swp-report/iMX6_Platform_SDK/output/mx6dq/lib/liblwip.a(mx6_ethernetif.o)
imx_enet_iomux                                    /home/leon/git/swp-report/iMX6_Platform_SDK/output/mx6dq/lib/libboard_sabre_ai_rev_c.a(board_network.o)
                                                  /home/leon/git/swp-report/iMX6_Platform_SDK/output/mx6dq/lib/liblwip.a(mx6_ethernetif.o)
imx_enet_isolate_phy                              /home/leon/git/swp-report/iMX6_Platform_SDK/output/mx6dq/lib/libsdk.a(enet_drv.o)
imx_enet_mii_read                                 /home/leon/git/swp-report/iMX6_Platform_SDK/output/mx6dq/lib/libsdk.a(enet_drv.o)
imx_enet_mii_type                                 /home/leon/git/swp-report/iMX6_Platform_SDK/output/mx6dq/lib/libsdk.a(enet_drv.o)
                                                  /home/leon/git/swp-report/iMX6_Platform_SDK/output/mx6dq/lib/liblwip.a(mx6_ethernetif.o)
imx_enet_mii_write                                /home/leon/git/swp-report/iMX6_Platform_SDK/output/mx6dq/lib/libsdk.a(enet_drv.o)
imx_enet_phy_enable_external_loopback             /home/leon/git/swp-report/iMX6_Platform_SDK/output/mx6dq/lib/libsdk.a(enet_drv.o)
imx_enet_phy_init                                 /home/leon/git/swp-report/iMX6_Platform_SDK/output/mx6dq/lib/libsdk.a(enet_drv.o)
                                                  /home/leon/git/swp-report/iMX6_Platform_SDK/output/mx6dq/lib/liblwip.a(mx6_ethernetif.o)
imx_enet_phy_reset                                /home/leon/git/swp-report/iMX6_Platform_SDK/output/mx6dq/lib/libboard_sabre_ai_rev_c.a(board_network.o)
                                                  /home/leon/git/swp-report/iMX6_Platform_SDK/output/mx6dq/lib/liblwip.a(mx6_ethernetif.o)
imx_enet_poll                                     /home/leon/git/swp-report/iMX6_Platform_SDK/output/mx6dq/lib/libsdk.a(enet_drv.o)
                                                  /home/leon/git/swp-report/iMX6_Platform_SDK/output/mx6dq/lib/liblwip.a(mx6_ethernetif.o)
imx_enet_recv                                     /home/leon/git/swp-report/iMX6_Platform_SDK/output/mx6dq/lib/libsdk.a(enet_drv.o)
                                                  /home/leon/git/swp-report/iMX6_Platform_SDK/output/mx6dq/lib/liblwip.a(mx6_ethernetif.o)
imx_enet_send                                     /home/leon/git/swp-report/iMX6_Platform_SDK/output/mx6dq/lib/libsdk.a(enet_drv.o)
                                                  /home/leon/git/swp-report/iMX6_Platform_SDK/output/mx6dq/lib/liblwip.a(mx6_ethernetif.o)
imx_enet_start                                    /home/leon/git/swp-report/iMX6_Platform_SDK/output/mx6dq/lib/libsdk.a(enet_drv.o)
                                                  /home/leon/git/swp-report/iMX6_Platform_SDK/output/mx6dq/lib/liblwip.a(mx6_ethernetif.o)
imx_enet_stop                                     /home/leon/git/swp-report/iMX6_Platform_SDK/output/mx6dq/lib/libsdk.a(enet_drv.o)
imx_enet_unisolate_phy                            /home/leon/git/swp-report/iMX6_Platform_SDK/output/mx6dq/lib/libsdk.a(enet_drv.o)
inet_chksum                                       /home/leon/git/swp-report/iMX6_Platform_SDK/output/mx6dq/lib/liblwip.a(inet_chksum.o)
                                                  /home/leon/git/swp-report/iMX6_Platform_SDK/output/mx6dq/lib/liblwip.a(icmp.o)
                                                  /home/leon/git/swp-report/iMX6_Platform_SDK/output/mx6dq/lib/liblwip.a(ip4.o)
                                                  /home/leon/git/swp-report/iMX6_Platform_SDK/output/mx6dq/lib/liblwip.a(igmp.o)
inet_chksum_pbuf                                  /home/leon/git/swp-report/iMX6_Platform_SDK/output/mx6dq/lib/liblwip.a(inet_chksum.o)
                                                  /home/leon/git/swp-report/iMX6_Platform_SDK/output/mx6dq/lib/liblwip.a(icmp.o)
inet_chksum_pseudo                                /home/leon/git/swp-report/iMX6_Platform_SDK/output/mx6dq/lib/liblwip.a(inet_chksum.o)
                                                  /home/leon/git/swp-report/iMX6_Platform_SDK/output/mx6dq/lib/liblwip.a(udp.o)
                                                  /home/leon/git/swp-report/iMX6_Platform_SDK/output/mx6dq/lib/liblwip.a(tcp_out.o)
                                                  /home/leon/git/swp-report/iMX6_Platform_SDK/output/mx6dq/lib/liblwip.a(tcp_in.o)
inet_chksum_pseudo_partial                        /home/leon/git/swp-report/iMX6_Platform_SDK/output/mx6dq/lib/liblwip.a(inet_chksum.o)
init_enet                                         /home/leon/git/swp-report/iMX6_Platform_SDK/output/mx6dq/lib/liblwip.a(mx6_ethernetif.o)
init_lwip                                         /home/leon/git/swp-report/iMX6_Platform_SDK/output/mx6dq/httpd/sabre_ai_rev_c/obj/apps/httpd/src/httpd_main.o
input_dcd                                         /home/leon/git/swp-report/iMX6_Platform_SDK/output/mx6dq/lib/libboard_sabre_ai_rev_c.a(dcd.o)
input_dcd_hdr                                     /home/leon/git/swp-report/iMX6_Platform_SDK/output/mx6dq/lib/libboard_sabre_ai_rev_c.a(dcd.o)
                                                  /home/leon/git/swp-report/iMX6_Platform_SDK/output/mx6dq/httpd/sabre_ai_rev_c/obj/apps/common/ivt.o
input_dcd_wrt_cmd                                 /home/leon/git/swp-report/iMX6_Platform_SDK/output/mx6dq/lib/libboard_sabre_ai_rev_c.a(dcd.o)
input_ivt                                         /home/leon/git/swp-report/iMX6_Platform_SDK/output/mx6dq/httpd/sabre_ai_rev_c/obj/apps/common/ivt.o
interfaces                                        /home/leon/git/swp-report/iMX6_Platform_SDK/output/mx6dq/lib/liblwip.a(mib2.o)
interfaces_ids                                    /home/leon/git/swp-report/iMX6_Platform_SDK/output/mx6dq/lib/liblwip.a(mib2.o)
interfaces_nodes                                  /home/leon/git/swp-report/iMX6_Platform_SDK/output/mx6dq/lib/liblwip.a(mib2.o)
interfaces_scalar                                 /home/leon/git/swp-report/iMX6_Platform_SDK/output/mx6dq/lib/liblwip.a(mib2.o)
internet                                          /home/leon/git/swp-report/iMX6_Platform_SDK/output/mx6dq/lib/liblwip.a(mib2.o)
                                                  /home/leon/git/swp-report/iMX6_Platform_SDK/output/mx6dq/lib/liblwip.a(msg_in.o)
internet_ids                                      /home/leon/git/swp-report/iMX6_Platform_SDK/output/mx6dq/lib/liblwip.a(mib2.o)
internet_nodes                                    /home/leon/git/swp-report/iMX6_Platform_SDK/output/mx6dq/lib/liblwip.a(mib2.o)
iomux_config                                      /home/leon/git/swp-report/iMX6_Platform_SDK/output/mx6dq/lib/libboard_sabre_ai_rev_c.a(iomux_config.o)
ip4_addr_isbroadcast                              /home/leon/git/swp-report/iMX6_Platform_SDK/output/mx6dq/lib/liblwip.a(ip4_addr.o)
                                                  /home/leon/git/swp-report/iMX6_Platform_SDK/output/mx6dq/lib/liblwip.a(icmp.o)
                                                  /home/leon/git/swp-report/iMX6_Platform_SDK/output/mx6dq/lib/liblwip.a(etharp.o)
                                                  /home/leon/git/swp-report/iMX6_Platform_SDK/output/mx6dq/lib/liblwip.a(udp.o)
                                                  /home/leon/git/swp-report/iMX6_Platform_SDK/output/mx6dq/lib/liblwip.a(tcp_in.o)
                                                  /home/leon/git/swp-report/iMX6_Platform_SDK/output/mx6dq/lib/liblwip.a(ip4.o)
ip4_addr_netmask_valid                            /home/leon/git/swp-report/iMX6_Platform_SDK/output/mx6dq/lib/liblwip.a(ip4_addr.o)
ip_addr_any                                       /home/leon/git/swp-report/iMX6_Platform_SDK/output/mx6dq/lib/liblwip.a(ip4_addr.o)
                                                  /home/leon/git/swp-report/iMX6_Platform_SDK/output/mx6dq/lib/liblwip.a(msg_in.o)
                                                  /home/leon/git/swp-report/iMX6_Platform_SDK/output/mx6dq/lib/liblwip.a(igmp.o)
                                                  /home/leon/git/swp-report/iMX6_Platform_SDK/output/mx6dq/lib/liblwip.a(autoip.o)
                                                  /home/leon/git/swp-report/iMX6_Platform_SDK/output/mx6dq/lib/liblwip.a(dns.o)
                                                  /home/leon/git/swp-report/iMX6_Platform_SDK/output/mx6dq/lib/liblwip.a(dhcp.o)
                                                  /home/leon/git/swp-report/iMX6_Platform_SDK/output/mx6dq/httpd/sabre_ai_rev_c/obj/lwip/contrib/apps/httpserver_raw/httpd.o
ip_addr_broadcast                                 /home/leon/git/swp-report/iMX6_Platform_SDK/output/mx6dq/lib/liblwip.a(ip4_addr.o)
                                                  /home/leon/git/swp-report/iMX6_Platform_SDK/output/mx6dq/lib/liblwip.a(dhcp.o)
ip_data                                           /home/leon/git/swp-report/iMX6_Platform_SDK/output/mx6dq/lib/liblwip.a(ip4.o)
                                                  /home/leon/git/swp-report/iMX6_Platform_SDK/output/mx6dq/lib/liblwip.a(icmp.o)
                                                  /home/leon/git/swp-report/iMX6_Platform_SDK/output/mx6dq/lib/liblwip.a(udp.o)
                                                  /home/leon/git/swp-report/iMX6_Platform_SDK/output/mx6dq/lib/liblwip.a(tcp_in.o)
                                                  /home/leon/git/swp-report/iMX6_Platform_SDK/output/mx6dq/lib/liblwip.a(raw.o)
ip_ids                                            /home/leon/git/swp-report/iMX6_Platform_SDK/output/mx6dq/lib/liblwip.a(mib2.o)
ip_input                                          /home/leon/git/swp-report/iMX6_Platform_SDK/output/mx6dq/lib/liblwip.a(ip4.o)
                                                  /home/leon/git/swp-report/iMX6_Platform_SDK/output/mx6dq/lib/liblwip.a(etharp.o)
                                                  /home/leon/git/swp-report/iMX6_Platform_SDK/output/mx6dq/lib/liblwip.a(netif.o)
ip_nodes                                          /home/leon/git/swp-report/iMX6_Platform_SDK/output/mx6dq/lib/liblwip.a(mib2.o)
ip_output                                         /home/leon/git/swp-report/iMX6_Platform_SDK/output/mx6dq/lib/liblwip.a(ip4.o)
                                                  /home/leon/git/swp-report/iMX6_Platform_SDK/output/mx6dq/lib/liblwip.a(icmp.o)
                                                  /home/leon/git/swp-report/iMX6_Platform_SDK/output/mx6dq/lib/liblwip.a(tcp_out.o)
ip_output_hinted                                  /home/leon/git/swp-report/iMX6_Platform_SDK/output/mx6dq/lib/liblwip.a(ip4.o)
                                                  /home/leon/git/swp-report/iMX6_Platform_SDK/output/mx6dq/lib/liblwip.a(tcp_out.o)
ip_output_if                                      /home/leon/git/swp-report/iMX6_Platform_SDK/output/mx6dq/lib/liblwip.a(ip4.o)
                                                  /home/leon/git/swp-report/iMX6_Platform_SDK/output/mx6dq/lib/liblwip.a(icmp.o)
                                                  /home/leon/git/swp-report/iMX6_Platform_SDK/output/mx6dq/lib/liblwip.a(udp.o)
                                                  /home/leon/git/swp-report/iMX6_Platform_SDK/output/mx6dq/lib/liblwip.a(raw.o)
ip_output_if_opt                                  /home/leon/git/swp-report/iMX6_Platform_SDK/output/mx6dq/lib/liblwip.a(ip4.o)
                                                  /home/leon/git/swp-report/iMX6_Platform_SDK/output/mx6dq/lib/liblwip.a(igmp.o)
ip_route                                          /home/leon/git/swp-report/iMX6_Platform_SDK/output/mx6dq/lib/liblwip.a(ip4.o)
                                                  /home/leon/git/swp-report/iMX6_Platform_SDK/output/mx6dq/lib/liblwip.a(udp.o)
                                                  /home/leon/git/swp-report/iMX6_Platform_SDK/output/mx6dq/lib/liblwip.a(tcp_out.o)
                                                  /home/leon/git/swp-report/iMX6_Platform_SDK/output/mx6dq/lib/liblwip.a(tcp.o)
                                                  /home/leon/git/swp-report/iMX6_Platform_SDK/output/mx6dq/lib/liblwip.a(msg_out.o)
                                                  /home/leon/git/swp-report/iMX6_Platform_SDK/output/mx6dq/lib/liblwip.a(raw.o)
ip_scalar                                         /home/leon/git/swp-report/iMX6_Platform_SDK/output/mx6dq/lib/liblwip.a(mib2.o)
ipaddr_addr                                       /home/leon/git/swp-report/iMX6_Platform_SDK/output/mx6dq/lib/liblwip.a(ip4_addr.o)
                                                  /home/leon/git/swp-report/iMX6_Platform_SDK/output/mx6dq/lib/liblwip.a(dns.o)
ipaddr_aton                                       /home/leon/git/swp-report/iMX6_Platform_SDK/output/mx6dq/lib/liblwip.a(ip4_addr.o)
ipaddr_ntoa                                       /home/leon/git/swp-report/iMX6_Platform_SDK/output/mx6dq/lib/liblwip.a(ip4_addr.o)
ipaddr_ntoa_r                                     /home/leon/git/swp-report/iMX6_Platform_SDK/output/mx6dq/lib/liblwip.a(ip4_addr.o)
                                                  /home/leon/git/swp-report/iMX6_Platform_SDK/output/mx6dq/httpd/sabre_ai_rev_c/obj/apps/httpd/src/httpd_main.o
ipaddrentry                                       /home/leon/git/swp-report/iMX6_Platform_SDK/output/mx6dq/lib/liblwip.a(mib2.o)
ipaddrentry_ids                                   /home/leon/git/swp-report/iMX6_Platform_SDK/output/mx6dq/lib/liblwip.a(mib2.o)
ipaddrentry_nodes                                 /home/leon/git/swp-report/iMX6_Platform_SDK/output/mx6dq/lib/liblwip.a(mib2.o)
ipaddrtable                                       /home/leon/git/swp-report/iMX6_Platform_SDK/output/mx6dq/lib/liblwip.a(mib2.o)
ipaddrtable_id                                    /home/leon/git/swp-report/iMX6_Platform_SDK/output/mx6dq/lib/liblwip.a(mib2.o)
ipaddrtable_node                                  /home/leon/git/swp-report/iMX6_Platform_SDK/output/mx6dq/lib/liblwip.a(mib2.o)
ipaddrtree_root                                   /home/leon/git/swp-report/iMX6_Platform_SDK/output/mx6dq/lib/liblwip.a(mib2.o)
ipntomentry                                       /home/leon/git/swp-report/iMX6_Platform_SDK/output/mx6dq/lib/liblwip.a(mib2.o)
ipntomentry_ids                                   /home/leon/git/swp-report/iMX6_Platform_SDK/output/mx6dq/lib/liblwip.a(mib2.o)
ipntomentry_nodes                                 /home/leon/git/swp-report/iMX6_Platform_SDK/output/mx6dq/lib/liblwip.a(mib2.o)
ipntomtable                                       /home/leon/git/swp-report/iMX6_Platform_SDK/output/mx6dq/lib/liblwip.a(mib2.o)
ipntomtable_id                                    /home/leon/git/swp-report/iMX6_Platform_SDK/output/mx6dq/lib/liblwip.a(mib2.o)
ipntomtable_node                                  /home/leon/git/swp-report/iMX6_Platform_SDK/output/mx6dq/lib/liblwip.a(mib2.o)
ipntomtree_root                                   /home/leon/git/swp-report/iMX6_Platform_SDK/output/mx6dq/lib/liblwip.a(mib2.o)
iprteentry                                        /home/leon/git/swp-report/iMX6_Platform_SDK/output/mx6dq/lib/liblwip.a(mib2.o)
iprteentry_ids                                    /home/leon/git/swp-report/iMX6_Platform_SDK/output/mx6dq/lib/liblwip.a(mib2.o)
iprteentry_nodes                                  /home/leon/git/swp-report/iMX6_Platform_SDK/output/mx6dq/lib/liblwip.a(mib2.o)
iprtetable                                        /home/leon/git/swp-report/iMX6_Platform_SDK/output/mx6dq/lib/liblwip.a(mib2.o)
iprtetable_id                                     /home/leon/git/swp-report/iMX6_Platform_SDK/output/mx6dq/lib/liblwip.a(mib2.o)
iprtetable_node                                   /home/leon/git/swp-report/iMX6_Platform_SDK/output/mx6dq/lib/liblwip.a(mib2.o)
iprtetree_root                                    /home/leon/git/swp-report/iMX6_Platform_SDK/output/mx6dq/lib/liblwip.a(mib2.o)
ipu1_iomux_config                                 /home/leon/git/swp-report/iMX6_Platform_SDK/output/mx6dq/lib/libboard_sabre_ai_rev_c.a(ipu1_iomux_config.o)
                                                  /home/leon/git/swp-report/iMX6_Platform_SDK/output/mx6dq/lib/libboard_sabre_ai_rev_c.a(iomux_config.o)
ipu2_iomux_config                                 /home/leon/git/swp-report/iMX6_Platform_SDK/output/mx6dq/lib/libboard_sabre_ai_rev_c.a(iomux_config.o)
ipu_hsp_clk_config                                /home/leon/git/swp-report/iMX6_Platform_SDK/output/mx6dq/lib/libsdk.a(ccm_pll.o)
is_color_supported                                /home/leon/git/swp-report/iMX6_Platform_SDK/output/mx6dq/lib/libsdk.a(text_color.o)
is_input_char                                     /home/leon/git/swp-report/iMX6_Platform_SDK/output/mx6dq/lib/libsdk.a(system_util.o)
jump_to_sdp                                       /home/leon/git/swp-report/iMX6_Platform_SDK/output/mx6dq/lib/libsdk.a(system_util.o)
kMACAddress                                       /home/leon/git/swp-report/iMX6_Platform_SDK/output/mx6dq/httpd/sabre_ai_rev_c/obj/apps/httpd/src/httpd_main.o
k_gpio_mux_registers                              /home/leon/git/swp-report/iMX6_Platform_SDK/output/mx6dq/lib/libsdk.a(imx6dq_gpio_map.o)
                                                  /home/leon/git/swp-report/iMX6_Platform_SDK/output/mx6dq/lib/libsdk.a(gpio.o)
kpp_iomux_config                                  /home/leon/git/swp-report/iMX6_Platform_SDK/output/mx6dq/lib/libboard_sabre_ai_rev_c.a(iomux_config.o)
ldb_iomux_config                                  /home/leon/git/swp-report/iMX6_Platform_SDK/output/mx6dq/lib/libboard_sabre_ai_rev_c.a(iomux_config.o)
localeconv                                        /home/leon/riotboard/arm-2012.09/bin/../arm-none-eabi/lib//libc.a(lib_a-locale.o)
lwip_htonl                                        /home/leon/git/swp-report/iMX6_Platform_SDK/output/mx6dq/lib/liblwip.a(def.o)
                                                  /home/leon/git/swp-report/iMX6_Platform_SDK/output/mx6dq/lib/liblwip.a(tcp_out.o)
                                                  /home/leon/git/swp-report/iMX6_Platform_SDK/output/mx6dq/lib/liblwip.a(ip4_addr.o)
                                                  /home/leon/git/swp-report/iMX6_Platform_SDK/output/mx6dq/lib/liblwip.a(autoip.o)
                                                  /home/leon/git/swp-report/iMX6_Platform_SDK/output/mx6dq/lib/liblwip.a(dhcp.o)
lwip_htons                                        /home/leon/git/swp-report/iMX6_Platform_SDK/output/mx6dq/lib/liblwip.a(def.o)
                                                  /home/leon/git/swp-report/iMX6_Platform_SDK/output/mx6dq/lib/liblwip.a(inet_chksum.o)
                                                  /home/leon/git/swp-report/iMX6_Platform_SDK/output/mx6dq/lib/liblwip.a(mx6_ethernetif.o)
                                                  /home/leon/git/swp-report/iMX6_Platform_SDK/output/mx6dq/lib/liblwip.a(etharp.o)
                                                  /home/leon/git/swp-report/iMX6_Platform_SDK/output/mx6dq/lib/liblwip.a(udp.o)
                                                  /home/leon/git/swp-report/iMX6_Platform_SDK/output/mx6dq/lib/liblwip.a(tcp_out.o)
                                                  /home/leon/git/swp-report/iMX6_Platform_SDK/output/mx6dq/lib/liblwip.a(tcp_in.o)
                                                  /home/leon/git/swp-report/iMX6_Platform_SDK/output/mx6dq/lib/liblwip.a(ip4.o)
                                                  /home/leon/git/swp-report/iMX6_Platform_SDK/output/mx6dq/lib/liblwip.a(dns.o)
lwip_init                                         /home/leon/git/swp-report/iMX6_Platform_SDK/output/mx6dq/lib/liblwip.a(init.o)
                                                  /home/leon/git/swp-report/iMX6_Platform_SDK/output/mx6dq/httpd/sabre_ai_rev_c/obj/apps/httpd/src/httpd_main.o
lwip_ntohl                                        /home/leon/git/swp-report/iMX6_Platform_SDK/output/mx6dq/lib/liblwip.a(def.o)
                                                  /home/leon/git/swp-report/iMX6_Platform_SDK/output/mx6dq/lib/liblwip.a(tcp_out.o)
                                                  /home/leon/git/swp-report/iMX6_Platform_SDK/output/mx6dq/lib/liblwip.a(tcp_in.o)
                                                  /home/leon/git/swp-report/iMX6_Platform_SDK/output/mx6dq/lib/liblwip.a(autoip.o)
                                                  /home/leon/git/swp-report/iMX6_Platform_SDK/output/mx6dq/lib/liblwip.a(dns.o)
                                                  /home/leon/git/swp-report/iMX6_Platform_SDK/output/mx6dq/lib/liblwip.a(dhcp.o)
lwip_ntohs                                        /home/leon/git/swp-report/iMX6_Platform_SDK/output/mx6dq/lib/liblwip.a(def.o)
                                                  /home/leon/git/swp-report/iMX6_Platform_SDK/output/mx6dq/lib/liblwip.a(udp.o)
                                                  /home/leon/git/swp-report/iMX6_Platform_SDK/output/mx6dq/lib/liblwip.a(tcp_out.o)
                                                  /home/leon/git/swp-report/iMX6_Platform_SDK/output/mx6dq/lib/liblwip.a(tcp_in.o)
                                                  /home/leon/git/swp-report/iMX6_Platform_SDK/output/mx6dq/lib/liblwip.a(ip4.o)
lwip_standard_chksum                              /home/leon/git/swp-report/iMX6_Platform_SDK/output/mx6dq/lib/liblwip.a(inet_chksum.o)
lwip_stats                                        /home/leon/git/swp-report/iMX6_Platform_SDK/output/mx6dq/lib/liblwip.a(stats.o)
                                                  /home/leon/git/swp-report/iMX6_Platform_SDK/output/mx6dq/lib/liblwip.a(icmp.o)
                                                  /home/leon/git/swp-report/iMX6_Platform_SDK/output/mx6dq/lib/liblwip.a(mx6_ethernetif.o)
                                                  /home/leon/git/swp-report/iMX6_Platform_SDK/output/mx6dq/lib/liblwip.a(etharp.o)
                                                  /home/leon/git/swp-report/iMX6_Platform_SDK/output/mx6dq/lib/liblwip.a(udp.o)
                                                  /home/leon/git/swp-report/iMX6_Platform_SDK/output/mx6dq/lib/liblwip.a(tcp_out.o)
                                                  /home/leon/git/swp-report/iMX6_Platform_SDK/output/mx6dq/lib/liblwip.a(tcp_in.o)
                                                  /home/leon/git/swp-report/iMX6_Platform_SDK/output/mx6dq/lib/liblwip.a(tcp.o)
                                                  /home/leon/git/swp-report/iMX6_Platform_SDK/output/mx6dq/lib/liblwip.a(netif.o)
                                                  /home/leon/git/swp-report/iMX6_Platform_SDK/output/mx6dq/lib/liblwip.a(ip4.o)
                                                  /home/leon/git/swp-report/iMX6_Platform_SDK/output/mx6dq/lib/liblwip.a(igmp.o)
main                                              /home/leon/git/swp-report/iMX6_Platform_SDK/output/mx6dq/httpd/sabre_ai_rev_c/obj/apps/httpd/src/httpd_main.o
                                                  /home/leon/git/swp-report/iMX6_Platform_SDK/output/mx6dq/lib/libsdk.a(startup.o)
malloc                                            /home/leon/riotboard/arm-2012.09/bin/../arm-none-eabi/lib//libc.a(lib_a-malloc.o)
                                                  /home/leon/git/swp-report/iMX6_Platform_SDK/output/mx6dq/lib/liblwip.a(etharp.o)
                                                  /home/leon/git/swp-report/iMX6_Platform_SDK/output/mx6dq/lib/liblwip.a(udp.o)
                                                  /home/leon/git/swp-report/iMX6_Platform_SDK/output/mx6dq/lib/liblwip.a(timers.o)
                                                  /home/leon/git/swp-report/iMX6_Platform_SDK/output/mx6dq/lib/liblwip.a(tcp_out.o)
                                                  /home/leon/git/swp-report/iMX6_Platform_SDK/output/mx6dq/lib/liblwip.a(tcp.o)
                                                  /home/leon/git/swp-report/iMX6_Platform_SDK/output/mx6dq/lib/liblwip.a(msg_in.o)
                                                  /home/leon/git/swp-report/iMX6_Platform_SDK/output/mx6dq/lib/liblwip.a(mib_structs.o)
                                                  /home/leon/git/swp-report/iMX6_Platform_SDK/output/mx6dq/lib/liblwip.a(raw.o)
                                                  /home/leon/git/swp-report/iMX6_Platform_SDK/output/mx6dq/lib/liblwip.a(pbuf.o)
                                                  /home/leon/git/swp-report/iMX6_Platform_SDK/output/mx6dq/lib/liblwip.a(igmp.o)
                                                  /home/leon/git/swp-report/iMX6_Platform_SDK/output/mx6dq/lib/liblwip.a(autoip.o)
                                                  /home/leon/git/swp-report/iMX6_Platform_SDK/output/mx6dq/lib/liblwip.a(dhcp.o)
                                                  /home/leon/git/swp-report/iMX6_Platform_SDK/output/mx6dq/lib/libsdk.a(system_util.o)
                                                  /home/leon/git/swp-report/iMX6_Platform_SDK/output/mx6dq/httpd/sabre_ai_rev_c/obj/lwip/contrib/apps/httpserver_raw/httpd.o
max7310_i2c_req_array                             /home/leon/git/swp-report/iMX6_Platform_SDK/output/mx6dq/lib/libboard_sabre_ai_rev_c.a(board_io_expanders.o)
                                                  /home/leon/git/swp-report/iMX6_Platform_SDK/output/mx6dq/lib/libsdk.a(max7310.o)
max7310_init                                      /home/leon/git/swp-report/iMX6_Platform_SDK/output/mx6dq/lib/libsdk.a(max7310.o)
                                                  /home/leon/git/swp-report/iMX6_Platform_SDK/output/mx6dq/lib/libboard_sabre_ai_rev_c.a(board_io_expanders.o)
max7310_reg_read                                  /home/leon/git/swp-report/iMX6_Platform_SDK/output/mx6dq/lib/libsdk.a(max7310.o)
max7310_reg_write                                 /home/leon/git/swp-report/iMX6_Platform_SDK/output/mx6dq/lib/libsdk.a(max7310.o)
max7310_set_gpio_output                           /home/leon/git/swp-report/iMX6_Platform_SDK/output/mx6dq/lib/libsdk.a(max7310.o)
                                                  /home/leon/git/swp-report/iMX6_Platform_SDK/output/mx6dq/lib/libboard_sabre_ai_rev_c.a(board_network.o)
memchr                                            /home/leon/riotboard/arm-2012.09/bin/../arm-none-eabi/lib//libc.a(lib_a-memchr.o)
                                                  /home/leon/riotboard/arm-2012.09/bin/../arm-none-eabi/lib//libc.a(lib_a-fvwrite.o)
                                                  /home/leon/riotboard/arm-2012.09/bin/../arm-none-eabi/lib//libc.a(lib_a-vfprintf.o)
                                                  /home/leon/riotboard/arm-2012.09/bin/../arm-none-eabi/lib//libc.a(lib_a-vfiprintf.o)
memcmp                                            /home/leon/riotboard/arm-2012.09/bin/../arm-none-eabi/lib//libc.a(lib_a-memcmp.o)
                                                  /home/leon/git/swp-report/iMX6_Platform_SDK/output/mx6dq/lib/liblwip.a(etharp.o)
                                                  /home/leon/git/swp-report/iMX6_Platform_SDK/output/mx6dq/lib/liblwip.a(autoip.o)
memcpy                                            /home/leon/riotboard/arm-2012.09/bin/../arm-none-eabi/lib//libc.a(lib_a-memcpy.o)
                                                  /home/leon/riotboard/arm-2012.09/bin/../arm-none-eabi/lib//libc.a(lib_a-mprec.o)
                                                  /home/leon/riotboard/arm-2012.09/bin/../arm-none-eabi/lib//libc.a(lib_a-fvwrite.o)
                                                  /home/leon/riotboard/arm-2012.09/bin/../arm-none-eabi/lib//libc.a(lib_a-dtoa.o)
                                                  /home/leon/git/swp-report/iMX6_Platform_SDK/output/mx6dq/lib/liblwip.a(icmp.o)
                                                  /home/leon/git/swp-report/iMX6_Platform_SDK/output/mx6dq/lib/liblwip.a(mx6_ethernetif.o)
                                                  /home/leon/git/swp-report/iMX6_Platform_SDK/output/mx6dq/lib/liblwip.a(etharp.o)
                                                  /home/leon/git/swp-report/iMX6_Platform_SDK/output/mx6dq/lib/liblwip.a(tcp_out.o)
                                                  /home/leon/git/swp-report/iMX6_Platform_SDK/output/mx6dq/lib/liblwip.a(tcp.o)
                                                  /home/leon/git/swp-report/iMX6_Platform_SDK/output/mx6dq/lib/liblwip.a(msg_in.o)
                                                  /home/leon/git/swp-report/iMX6_Platform_SDK/output/mx6dq/lib/liblwip.a(mib2.o)
                                                  /home/leon/git/swp-report/iMX6_Platform_SDK/output/mx6dq/lib/liblwip.a(pbuf.o)
                                                  /home/leon/git/swp-report/iMX6_Platform_SDK/output/mx6dq/lib/liblwip.a(ip4.o)
                                                  /home/leon/git/swp-report/iMX6_Platform_SDK/output/mx6dq/lib/liblwip.a(autoip.o)
                                                  /home/leon/git/swp-report/iMX6_Platform_SDK/output/mx6dq/lib/liblwip.a(dns.o)
                                                  /home/leon/git/swp-report/iMX6_Platform_SDK/output/mx6dq/lib/libsdk.a(enet_drv.o)
memmove                                           /home/leon/riotboard/arm-2012.09/bin/../arm-none-eabi/lib//libc.a(lib_a-memmove.o)
                                                  /home/leon/riotboard/arm-2012.09/bin/../arm-none-eabi/lib//libc.a(lib_a-fvwrite.o)
                                                  /home/leon/riotboard/arm-2012.09/bin/../arm-none-eabi/lib//libc.a(lib_a-reallocr.o)
memp_sizes                                        /home/leon/git/swp-report/iMX6_Platform_SDK/output/mx6dq/lib/liblwip.a(memp.o)
                                                  /home/leon/git/swp-report/iMX6_Platform_SDK/output/mx6dq/lib/liblwip.a(etharp.o)
                                                  /home/leon/git/swp-report/iMX6_Platform_SDK/output/mx6dq/lib/liblwip.a(udp.o)
                                                  /home/leon/git/swp-report/iMX6_Platform_SDK/output/mx6dq/lib/liblwip.a(timers.o)
                                                  /home/leon/git/swp-report/iMX6_Platform_SDK/output/mx6dq/lib/liblwip.a(tcp_out.o)
                                                  /home/leon/git/swp-report/iMX6_Platform_SDK/output/mx6dq/lib/liblwip.a(tcp.o)
                                                  /home/leon/git/swp-report/iMX6_Platform_SDK/output/mx6dq/lib/liblwip.a(msg_in.o)
                                                  /home/leon/git/swp-report/iMX6_Platform_SDK/output/mx6dq/lib/liblwip.a(mib_structs.o)
                                                  /home/leon/git/swp-report/iMX6_Platform_SDK/output/mx6dq/lib/liblwip.a(raw.o)
                                                  /home/leon/git/swp-report/iMX6_Platform_SDK/output/mx6dq/lib/liblwip.a(pbuf.o)
                                                  /home/leon/git/swp-report/iMX6_Platform_SDK/output/mx6dq/lib/liblwip.a(igmp.o)
memset                                            /home/leon/riotboard/arm-2012.09/bin/../arm-none-eabi/lib//libc.a(lib_a-memset.o)
                                                  /home/leon/riotboard/arm-2012.09/bin/../arm-none-eabi/lib//libc.a(lib_a-callocr.o)
                                                  /home/leon/riotboard/arm-2012.09/bin/../arm-none-eabi/lib//libc.a(lib_a-findfp.o)
                                                  /home/leon/git/swp-report/iMX6_Platform_SDK/output/mx6dq/lib/liblwip.a(udp.o)
                                                  /home/leon/git/swp-report/iMX6_Platform_SDK/output/mx6dq/lib/liblwip.a(tcp.o)
                                                  /home/leon/git/swp-report/iMX6_Platform_SDK/output/mx6dq/lib/liblwip.a(raw.o)
                                                  /home/leon/git/swp-report/iMX6_Platform_SDK/output/mx6dq/lib/liblwip.a(ip4.o)
                                                  /home/leon/git/swp-report/iMX6_Platform_SDK/output/mx6dq/lib/liblwip.a(autoip.o)
                                                  /home/leon/git/swp-report/iMX6_Platform_SDK/output/mx6dq/lib/liblwip.a(dns.o)
                                                  /home/leon/git/swp-report/iMX6_Platform_SDK/output/mx6dq/lib/liblwip.a(dhcp.o)
                                                  /home/leon/git/swp-report/iMX6_Platform_SDK/output/mx6dq/httpd/sabre_ai_rev_c/obj/lwip/contrib/apps/httpserver_raw/httpd.o
mgmt                                              /home/leon/git/swp-report/iMX6_Platform_SDK/output/mx6dq/lib/liblwip.a(mib2.o)
mgmt_ids                                          /home/leon/git/swp-report/iMX6_Platform_SDK/output/mx6dq/lib/liblwip.a(mib2.o)
mgmt_nodes                                        /home/leon/git/swp-report/iMX6_Platform_SDK/output/mx6dq/lib/liblwip.a(mib2.o)
mib2                                              /home/leon/git/swp-report/iMX6_Platform_SDK/output/mx6dq/lib/liblwip.a(mib2.o)
mib2_at_node                                      /home/leon/git/swp-report/iMX6_Platform_SDK/output/mx6dq/lib/liblwip.a(mib2.o)
mib2_ids                                          /home/leon/git/swp-report/iMX6_Platform_SDK/output/mx6dq/lib/liblwip.a(mib2.o)
mib2_ip                                           /home/leon/git/swp-report/iMX6_Platform_SDK/output/mx6dq/lib/liblwip.a(mib2.o)
mib2_nodes                                        /home/leon/git/swp-report/iMX6_Platform_SDK/output/mx6dq/lib/liblwip.a(mib2.o)
mipi_csi_iomux_config                             /home/leon/git/swp-report/iMX6_Platform_SDK/output/mx6dq/lib/libboard_sabre_ai_rev_c.a(iomux_config.o)
mipi_dsi_iomux_config                             /home/leon/git/swp-report/iMX6_Platform_SDK/output/mx6dq/lib/libboard_sabre_ai_rev_c.a(iomux_config.o)
mipi_hsi_iomux_config                             /home/leon/git/swp-report/iMX6_Platform_SDK/output/mx6dq/lib/libboard_sabre_ai_rev_c.a(iomux_config.o)
mlb_iomux_config                                  /home/leon/git/swp-report/iMX6_Platform_SDK/output/mx6dq/lib/libboard_sabre_ai_rev_c.a(mlb_iomux_config.o)
                                                  /home/leon/git/swp-report/iMX6_Platform_SDK/output/mx6dq/lib/libboard_sabre_ai_rev_c.a(iomux_config.o)
mmdc_iomux_config                                 /home/leon/git/swp-report/iMX6_Platform_SDK/output/mx6dq/lib/libboard_sabre_ai_rev_c.a(mmdc_iomux_config.o)
                                                  /home/leon/git/swp-report/iMX6_Platform_SDK/output/mx6dq/lib/libboard_sabre_ai_rev_c.a(iomux_config.o)
mmu_disable                                       /home/leon/git/swp-report/iMX6_Platform_SDK/output/mx6dq/lib/libsdk.a(mmu.o)
mmu_enable                                        /home/leon/git/swp-report/iMX6_Platform_SDK/output/mx6dq/lib/libsdk.a(mmu.o)
mmu_init                                          /home/leon/git/swp-report/iMX6_Platform_SDK/output/mx6dq/lib/libsdk.a(mmu.o)
                                                  /home/leon/git/swp-report/iMX6_Platform_SDK/output/mx6dq/httpd/sabre_ai_rev_c/obj/apps/common/platform_init.o
mmu_map_l1_range                                  /home/leon/git/swp-report/iMX6_Platform_SDK/output/mx6dq/lib/libsdk.a(mmu.o)
mmu_virtual_to_physical                           /home/leon/git/swp-report/iMX6_Platform_SDK/output/mx6dq/lib/libsdk.a(mmu.o)
msg_input_list                                    /home/leon/git/swp-report/iMX6_Platform_SDK/output/mx6dq/lib/liblwip.a(msg_in.o)
mx6_init_lwip                                     /home/leon/git/swp-report/iMX6_Platform_SDK/output/mx6dq/lib/liblwip.a(mx6_lwip.o)
mx6_run_lwip                                      /home/leon/git/swp-report/iMX6_Platform_SDK/output/mx6dq/lib/liblwip.a(mx6_lwip.o)
                                                  /home/leon/git/swp-report/iMX6_Platform_SDK/output/mx6dq/httpd/sabre_ai_rev_c/obj/apps/httpd/src/httpd_main.o
mybkpt                                            /home/leon/git/swp-report/iMX6_Platform_SDK/output/mx6dq/lib/libsdk.a(system_util.o)
netif_add                                         /home/leon/git/swp-report/iMX6_Platform_SDK/output/mx6dq/lib/liblwip.a(netif.o)
                                                  /home/leon/git/swp-report/iMX6_Platform_SDK/output/mx6dq/httpd/sabre_ai_rev_c/obj/apps/httpd/src/httpd_main.o
netif_default                                     /home/leon/git/swp-report/iMX6_Platform_SDK/output/mx6dq/lib/liblwip.a(netif.o)
                                                  /home/leon/git/swp-report/iMX6_Platform_SDK/output/mx6dq/lib/liblwip.a(mib2.o)
                                                  /home/leon/git/swp-report/iMX6_Platform_SDK/output/mx6dq/lib/liblwip.a(ip4.o)
netif_find                                        /home/leon/git/swp-report/iMX6_Platform_SDK/output/mx6dq/lib/liblwip.a(netif.o)
netif_init                                        /home/leon/git/swp-report/iMX6_Platform_SDK/output/mx6dq/lib/liblwip.a(netif.o)
                                                  /home/leon/git/swp-report/iMX6_Platform_SDK/output/mx6dq/lib/liblwip.a(init.o)
netif_link_status_callback                        /home/leon/git/swp-report/iMX6_Platform_SDK/output/mx6dq/httpd/sabre_ai_rev_c/obj/apps/httpd/src/httpd_main.o
netif_list                                        /home/leon/git/swp-report/iMX6_Platform_SDK/output/mx6dq/lib/liblwip.a(netif.o)
                                                  /home/leon/git/swp-report/iMX6_Platform_SDK/output/mx6dq/lib/liblwip.a(mib_structs.o)
                                                  /home/leon/git/swp-report/iMX6_Platform_SDK/output/mx6dq/lib/liblwip.a(mib2.o)
                                                  /home/leon/git/swp-report/iMX6_Platform_SDK/output/mx6dq/lib/liblwip.a(ip4.o)
                                                  /home/leon/git/swp-report/iMX6_Platform_SDK/output/mx6dq/lib/liblwip.a(igmp.o)
                                                  /home/leon/git/swp-report/iMX6_Platform_SDK/output/mx6dq/lib/liblwip.a(autoip.o)
                                                  /home/leon/git/swp-report/iMX6_Platform_SDK/output/mx6dq/lib/liblwip.a(dhcp.o)
netif_loop_output                                 /home/leon/git/swp-report/iMX6_Platform_SDK/output/mx6dq/lib/liblwip.a(netif.o)
                                                  /home/leon/git/swp-report/iMX6_Platform_SDK/output/mx6dq/lib/liblwip.a(ip4.o)
netif_poll                                        /home/leon/git/swp-report/iMX6_Platform_SDK/output/mx6dq/lib/liblwip.a(netif.o)
netif_poll_all                                    /home/leon/git/swp-report/iMX6_Platform_SDK/output/mx6dq/lib/liblwip.a(netif.o)
netif_remove                                      /home/leon/git/swp-report/iMX6_Platform_SDK/output/mx6dq/lib/liblwip.a(netif.o)
netif_set_addr                                    /home/leon/git/swp-report/iMX6_Platform_SDK/output/mx6dq/lib/liblwip.a(netif.o)
netif_set_default                                 /home/leon/git/swp-report/iMX6_Platform_SDK/output/mx6dq/lib/liblwip.a(netif.o)
                                                  /home/leon/git/swp-report/iMX6_Platform_SDK/output/mx6dq/httpd/sabre_ai_rev_c/obj/apps/httpd/src/httpd_main.o
netif_set_down                                    /home/leon/git/swp-report/iMX6_Platform_SDK/output/mx6dq/lib/liblwip.a(netif.o)
                                                  /home/leon/git/swp-report/iMX6_Platform_SDK/output/mx6dq/lib/liblwip.a(autoip.o)
                                                  /home/leon/git/swp-report/iMX6_Platform_SDK/output/mx6dq/lib/liblwip.a(dhcp.o)
netif_set_gw                                      /home/leon/git/swp-report/iMX6_Platform_SDK/output/mx6dq/lib/liblwip.a(netif.o)
                                                  /home/leon/git/swp-report/iMX6_Platform_SDK/output/mx6dq/lib/liblwip.a(autoip.o)
                                                  /home/leon/git/swp-report/iMX6_Platform_SDK/output/mx6dq/lib/liblwip.a(dhcp.o)
netif_set_ipaddr                                  /home/leon/git/swp-report/iMX6_Platform_SDK/output/mx6dq/lib/liblwip.a(netif.o)
                                                  /home/leon/git/swp-report/iMX6_Platform_SDK/output/mx6dq/lib/liblwip.a(autoip.o)
                                                  /home/leon/git/swp-report/iMX6_Platform_SDK/output/mx6dq/lib/liblwip.a(dhcp.o)
netif_set_link_callback                           /home/leon/git/swp-report/iMX6_Platform_SDK/output/mx6dq/lib/liblwip.a(netif.o)
                                                  /home/leon/git/swp-report/iMX6_Platform_SDK/output/mx6dq/httpd/sabre_ai_rev_c/obj/apps/httpd/src/httpd_main.o
netif_set_link_down                               /home/leon/git/swp-report/iMX6_Platform_SDK/output/mx6dq/lib/liblwip.a(netif.o)
netif_set_link_up                                 /home/leon/git/swp-report/iMX6_Platform_SDK/output/mx6dq/lib/liblwip.a(netif.o)
netif_set_netmask                                 /home/leon/git/swp-report/iMX6_Platform_SDK/output/mx6dq/lib/liblwip.a(netif.o)
                                                  /home/leon/git/swp-report/iMX6_Platform_SDK/output/mx6dq/lib/liblwip.a(autoip.o)
                                                  /home/leon/git/swp-report/iMX6_Platform_SDK/output/mx6dq/lib/liblwip.a(dhcp.o)
netif_set_status_callback                         /home/leon/git/swp-report/iMX6_Platform_SDK/output/mx6dq/lib/liblwip.a(netif.o)
                                                  /home/leon/git/swp-report/iMX6_Platform_SDK/output/mx6dq/httpd/sabre_ai_rev_c/obj/apps/httpd/src/httpd_main.o
netif_set_up                                      /home/leon/git/swp-report/iMX6_Platform_SDK/output/mx6dq/lib/liblwip.a(netif.o)
                                                  /home/leon/git/swp-report/iMX6_Platform_SDK/output/mx6dq/lib/liblwip.a(autoip.o)
                                                  /home/leon/git/swp-report/iMX6_Platform_SDK/output/mx6dq/lib/liblwip.a(dhcp.o)
netif_status_callback                             /home/leon/git/swp-report/iMX6_Platform_SDK/output/mx6dq/httpd/sabre_ai_rev_c/obj/apps/httpd/src/httpd_main.o
noleafs_get_object_def                            /home/leon/git/swp-report/iMX6_Platform_SDK/output/mx6dq/lib/liblwip.a(mib2.o)
                                                  /home/leon/git/swp-report/iMX6_Platform_SDK/output/mx6dq/lib/liblwip.a(mib_structs.o)
noleafs_get_value                                 /home/leon/git/swp-report/iMX6_Platform_SDK/output/mx6dq/lib/liblwip.a(mib2.o)
                                                  /home/leon/git/swp-report/iMX6_Platform_SDK/output/mx6dq/lib/liblwip.a(mib_structs.o)
noleafs_set_test                                  /home/leon/git/swp-report/iMX6_Platform_SDK/output/mx6dq/lib/liblwip.a(mib2.o)
                                                  /home/leon/git/swp-report/iMX6_Platform_SDK/output/mx6dq/lib/liblwip.a(mib_structs.o)
noleafs_set_value                                 /home/leon/git/swp-report/iMX6_Platform_SDK/output/mx6dq/lib/liblwip.a(mib2.o)
                                                  /home/leon/git/swp-report/iMX6_Platform_SDK/output/mx6dq/lib/liblwip.a(mib_structs.o)
objectidncpy                                      /home/leon/git/swp-report/iMX6_Platform_SDK/output/mx6dq/lib/liblwip.a(mib2.o)
pbuf_alloc                                        /home/leon/git/swp-report/iMX6_Platform_SDK/output/mx6dq/lib/liblwip.a(pbuf.o)
                                                  /home/leon/git/swp-report/iMX6_Platform_SDK/output/mx6dq/lib/liblwip.a(icmp.o)
                                                  /home/leon/git/swp-report/iMX6_Platform_SDK/output/mx6dq/lib/liblwip.a(mx6_ethernetif.o)
                                                  /home/leon/git/swp-report/iMX6_Platform_SDK/output/mx6dq/lib/liblwip.a(etharp.o)
                                                  /home/leon/git/swp-report/iMX6_Platform_SDK/output/mx6dq/lib/liblwip.a(udp.o)
                                                  /home/leon/git/swp-report/iMX6_Platform_SDK/output/mx6dq/lib/liblwip.a(tcp_out.o)
                                                  /home/leon/git/swp-report/iMX6_Platform_SDK/output/mx6dq/lib/liblwip.a(msg_out.o)
                                                  /home/leon/git/swp-report/iMX6_Platform_SDK/output/mx6dq/lib/liblwip.a(raw.o)
                                                  /home/leon/git/swp-report/iMX6_Platform_SDK/output/mx6dq/lib/liblwip.a(netif.o)
                                                  /home/leon/git/swp-report/iMX6_Platform_SDK/output/mx6dq/lib/liblwip.a(igmp.o)
                                                  /home/leon/git/swp-report/iMX6_Platform_SDK/output/mx6dq/lib/liblwip.a(dns.o)
                                                  /home/leon/git/swp-report/iMX6_Platform_SDK/output/mx6dq/lib/liblwip.a(dhcp.o)
pbuf_cat                                          /home/leon/git/swp-report/iMX6_Platform_SDK/output/mx6dq/lib/liblwip.a(pbuf.o)
                                                  /home/leon/git/swp-report/iMX6_Platform_SDK/output/mx6dq/lib/liblwip.a(tcp_out.o)
                                                  /home/leon/git/swp-report/iMX6_Platform_SDK/output/mx6dq/lib/liblwip.a(tcp_in.o)
                                                  /home/leon/git/swp-report/iMX6_Platform_SDK/output/mx6dq/httpd/sabre_ai_rev_c/obj/lwip/contrib/apps/httpserver_raw/httpd.o
pbuf_chain                                        /home/leon/git/swp-report/iMX6_Platform_SDK/output/mx6dq/lib/liblwip.a(pbuf.o)
                                                  /home/leon/git/swp-report/iMX6_Platform_SDK/output/mx6dq/lib/liblwip.a(udp.o)
                                                  /home/leon/git/swp-report/iMX6_Platform_SDK/output/mx6dq/lib/liblwip.a(raw.o)
pbuf_clen                                         /home/leon/git/swp-report/iMX6_Platform_SDK/output/mx6dq/lib/liblwip.a(pbuf.o)
                                                  /home/leon/git/swp-report/iMX6_Platform_SDK/output/mx6dq/lib/liblwip.a(tcp_out.o)
                                                  /home/leon/git/swp-report/iMX6_Platform_SDK/output/mx6dq/lib/liblwip.a(tcp_in.o)
                                                  /home/leon/git/swp-report/iMX6_Platform_SDK/output/mx6dq/httpd/sabre_ai_rev_c/obj/lwip/contrib/apps/httpserver_raw/httpd.o
pbuf_coalesce                                     /home/leon/git/swp-report/iMX6_Platform_SDK/output/mx6dq/lib/liblwip.a(pbuf.o)
pbuf_copy                                         /home/leon/git/swp-report/iMX6_Platform_SDK/output/mx6dq/lib/liblwip.a(pbuf.o)
                                                  /home/leon/git/swp-report/iMX6_Platform_SDK/output/mx6dq/lib/liblwip.a(icmp.o)
                                                  /home/leon/git/swp-report/iMX6_Platform_SDK/output/mx6dq/lib/liblwip.a(etharp.o)
                                                  /home/leon/git/swp-report/iMX6_Platform_SDK/output/mx6dq/lib/liblwip.a(udp.o)
                                                  /home/leon/git/swp-report/iMX6_Platform_SDK/output/mx6dq/lib/liblwip.a(netif.o)
pbuf_copy_partial                                 /home/leon/git/swp-report/iMX6_Platform_SDK/output/mx6dq/lib/liblwip.a(pbuf.o)
                                                  /home/leon/git/swp-report/iMX6_Platform_SDK/output/mx6dq/lib/liblwip.a(tcp_out.o)
                                                  /home/leon/git/swp-report/iMX6_Platform_SDK/output/mx6dq/lib/liblwip.a(dns.o)
                                                  /home/leon/git/swp-report/iMX6_Platform_SDK/output/mx6dq/lib/liblwip.a(dhcp.o)
                                                  /home/leon/git/swp-report/iMX6_Platform_SDK/output/mx6dq/httpd/sabre_ai_rev_c/obj/lwip/contrib/apps/httpserver_raw/httpd.o
pbuf_dechain                                      /home/leon/git/swp-report/iMX6_Platform_SDK/output/mx6dq/lib/liblwip.a(pbuf.o)
pbuf_free                                         /home/leon/git/swp-report/iMX6_Platform_SDK/output/mx6dq/lib/liblwip.a(pbuf.o)
                                                  /home/leon/git/swp-report/iMX6_Platform_SDK/output/mx6dq/lib/liblwip.a(icmp.o)
                                                  /home/leon/git/swp-report/iMX6_Platform_SDK/output/mx6dq/lib/liblwip.a(mx6_ethernetif.o)
                                                  /home/leon/git/swp-report/iMX6_Platform_SDK/output/mx6dq/lib/liblwip.a(etharp.o)
                                                  /home/leon/git/swp-report/iMX6_Platform_SDK/output/mx6dq/lib/liblwip.a(udp.o)
                                                  /home/leon/git/swp-report/iMX6_Platform_SDK/output/mx6dq/lib/liblwip.a(tcp_out.o)
                                                  /home/leon/git/swp-report/iMX6_Platform_SDK/output/mx6dq/lib/liblwip.a(tcp_in.o)
                                                  /home/leon/git/swp-report/iMX6_Platform_SDK/output/mx6dq/lib/liblwip.a(tcp.o)
                                                  /home/leon/git/swp-report/iMX6_Platform_SDK/output/mx6dq/lib/liblwip.a(msg_out.o)
                                                  /home/leon/git/swp-report/iMX6_Platform_SDK/output/mx6dq/lib/liblwip.a(msg_in.o)
                                                  /home/leon/git/swp-report/iMX6_Platform_SDK/output/mx6dq/lib/liblwip.a(raw.o)
                                                  /home/leon/git/swp-report/iMX6_Platform_SDK/output/mx6dq/lib/liblwip.a(netif.o)
                                                  /home/leon/git/swp-report/iMX6_Platform_SDK/output/mx6dq/lib/liblwip.a(ip4.o)
                                                  /home/leon/git/swp-report/iMX6_Platform_SDK/output/mx6dq/lib/liblwip.a(igmp.o)
                                                  /home/leon/git/swp-report/iMX6_Platform_SDK/output/mx6dq/lib/liblwip.a(dns.o)
                                                  /home/leon/git/swp-report/iMX6_Platform_SDK/output/mx6dq/lib/liblwip.a(dhcp.o)
                                                  /home/leon/git/swp-report/iMX6_Platform_SDK/output/mx6dq/httpd/sabre_ai_rev_c/obj/lwip/contrib/apps/httpserver_raw/httpd.o
pbuf_free_ooseq                                   /home/leon/git/swp-report/iMX6_Platform_SDK/output/mx6dq/lib/liblwip.a(pbuf.o)
                                                  /home/leon/git/swp-report/iMX6_Platform_SDK/output/mx6dq/lib/liblwip.a(timers.o)
pbuf_free_ooseq_pending                           /home/leon/git/swp-report/iMX6_Platform_SDK/output/mx6dq/lib/liblwip.a(pbuf.o)
                                                  /home/leon/git/swp-report/iMX6_Platform_SDK/output/mx6dq/lib/liblwip.a(timers.o)
pbuf_get_at                                       /home/leon/git/swp-report/iMX6_Platform_SDK/output/mx6dq/lib/liblwip.a(pbuf.o)
pbuf_header                                       /home/leon/git/swp-report/iMX6_Platform_SDK/output/mx6dq/lib/liblwip.a(pbuf.o)
                                                  /home/leon/git/swp-report/iMX6_Platform_SDK/output/mx6dq/lib/liblwip.a(icmp.o)
                                                  /home/leon/git/swp-report/iMX6_Platform_SDK/output/mx6dq/lib/liblwip.a(mx6_ethernetif.o)
                                                  /home/leon/git/swp-report/iMX6_Platform_SDK/output/mx6dq/lib/liblwip.a(etharp.o)
                                                  /home/leon/git/swp-report/iMX6_Platform_SDK/output/mx6dq/lib/liblwip.a(udp.o)
                                                  /home/leon/git/swp-report/iMX6_Platform_SDK/output/mx6dq/lib/liblwip.a(tcp_out.o)
                                                  /home/leon/git/swp-report/iMX6_Platform_SDK/output/mx6dq/lib/liblwip.a(tcp_in.o)
                                                  /home/leon/git/swp-report/iMX6_Platform_SDK/output/mx6dq/lib/liblwip.a(raw.o)
                                                  /home/leon/git/swp-report/iMX6_Platform_SDK/output/mx6dq/lib/liblwip.a(ip4.o)
pbuf_memcmp                                       /home/leon/git/swp-report/iMX6_Platform_SDK/output/mx6dq/lib/liblwip.a(pbuf.o)
pbuf_memfind                                      /home/leon/git/swp-report/iMX6_Platform_SDK/output/mx6dq/lib/liblwip.a(pbuf.o)
pbuf_realloc                                      /home/leon/git/swp-report/iMX6_Platform_SDK/output/mx6dq/lib/liblwip.a(pbuf.o)
                                                  /home/leon/git/swp-report/iMX6_Platform_SDK/output/mx6dq/lib/liblwip.a(tcp_in.o)
                                                  /home/leon/git/swp-report/iMX6_Platform_SDK/output/mx6dq/lib/liblwip.a(ip4.o)
                                                  /home/leon/git/swp-report/iMX6_Platform_SDK/output/mx6dq/lib/liblwip.a(dns.o)
                                                  /home/leon/git/swp-report/iMX6_Platform_SDK/output/mx6dq/lib/liblwip.a(dhcp.o)
pbuf_ref                                          /home/leon/git/swp-report/iMX6_Platform_SDK/output/mx6dq/lib/liblwip.a(pbuf.o)
                                                  /home/leon/git/swp-report/iMX6_Platform_SDK/output/mx6dq/lib/liblwip.a(etharp.o)
                                                  /home/leon/git/swp-report/iMX6_Platform_SDK/output/mx6dq/lib/liblwip.a(tcp.o)
pbuf_strstr                                       /home/leon/git/swp-report/iMX6_Platform_SDK/output/mx6dq/lib/liblwip.a(pbuf.o)
pbuf_take                                         /home/leon/git/swp-report/iMX6_Platform_SDK/output/mx6dq/lib/liblwip.a(pbuf.o)
pcie_iomux_config                                 /home/leon/git/swp-report/iMX6_Platform_SDK/output/mx6dq/lib/libboard_sabre_ai_rev_c.a(iomux_config.o)
platform_init                                     /home/leon/git/swp-report/iMX6_Platform_SDK/output/mx6dq/httpd/sabre_ai_rev_c/obj/apps/common/platform_init.o
                                                  /home/leon/git/swp-report/iMX6_Platform_SDK/output/mx6dq/httpd/sabre_ai_rev_c/obj/apps/httpd/src/httpd_main.o
pmu_iomux_config                                  /home/leon/git/swp-report/iMX6_Platform_SDK/output/mx6dq/lib/libboard_sabre_ai_rev_c.a(iomux_config.o)
prefetch_abort_handler                            /home/leon/git/swp-report/iMX6_Platform_SDK/output/mx6dq/lib/libsdk.a(arm_abort.o)
                                                  /home/leon/git/swp-report/iMX6_Platform_SDK/output/mx6dq/lib/libsdk.a(vectors.o)
prefix                                            /home/leon/git/swp-report/iMX6_Platform_SDK/output/mx6dq/lib/liblwip.a(mib_structs.o)
printf                                            /home/leon/riotboard/arm-2012.09/bin/../arm-none-eabi/lib//libc.a(lib_a-printf.o)
                                                  /home/leon/git/swp-report/iMX6_Platform_SDK/output/mx6dq/lib/libsdk.a(gpio.o)
                                                  /home/leon/git/swp-report/iMX6_Platform_SDK/output/mx6dq/lib/liblwip.a(icmp.o)
                                                  /home/leon/git/swp-report/iMX6_Platform_SDK/output/mx6dq/lib/liblwip.a(inet_chksum.o)
                                                  /home/leon/git/swp-report/iMX6_Platform_SDK/output/mx6dq/lib/liblwip.a(mx6_ethernetif.o)
                                                  /home/leon/git/swp-report/iMX6_Platform_SDK/output/mx6dq/lib/liblwip.a(etharp.o)
                                                  /home/leon/git/swp-report/iMX6_Platform_SDK/output/mx6dq/lib/liblwip.a(udp.o)
                                                  /home/leon/git/swp-report/iMX6_Platform_SDK/output/mx6dq/lib/liblwip.a(timers.o)
                                                  /home/leon/git/swp-report/iMX6_Platform_SDK/output/mx6dq/lib/liblwip.a(tcp_out.o)
                                                  /home/leon/git/swp-report/iMX6_Platform_SDK/output/mx6dq/lib/liblwip.a(tcp_in.o)
                                                  /home/leon/git/swp-report/iMX6_Platform_SDK/output/mx6dq/lib/liblwip.a(tcp.o)
                                                  /home/leon/git/swp-report/iMX6_Platform_SDK/output/mx6dq/lib/liblwip.a(stats.o)
                                                  /home/leon/git/swp-report/iMX6_Platform_SDK/output/mx6dq/lib/liblwip.a(msg_in.o)
                                                  /home/leon/git/swp-report/iMX6_Platform_SDK/output/mx6dq/lib/liblwip.a(mib_structs.o)
                                                  /home/leon/git/swp-report/iMX6_Platform_SDK/output/mx6dq/lib/liblwip.a(mib2.o)
                                                  /home/leon/git/swp-report/iMX6_Platform_SDK/output/mx6dq/lib/liblwip.a(raw.o)
                                                  /home/leon/git/swp-report/iMX6_Platform_SDK/output/mx6dq/lib/liblwip.a(pbuf.o)
                                                  /home/leon/git/swp-report/iMX6_Platform_SDK/output/mx6dq/lib/liblwip.a(netif.o)
                                                  /home/leon/git/swp-report/iMX6_Platform_SDK/output/mx6dq/lib/liblwip.a(ip4_addr.o)
                                                  /home/leon/git/swp-report/iMX6_Platform_SDK/output/mx6dq/lib/liblwip.a(ip4.o)
                                                  /home/leon/git/swp-report/iMX6_Platform_SDK/output/mx6dq/lib/liblwip.a(igmp.o)
                                                  /home/leon/git/swp-report/iMX6_Platform_SDK/output/mx6dq/lib/liblwip.a(autoip.o)
                                                  /home/leon/git/swp-report/iMX6_Platform_SDK/output/mx6dq/lib/liblwip.a(dns.o)
                                                  /home/leon/git/swp-report/iMX6_Platform_SDK/output/mx6dq/lib/liblwip.a(dhcp.o)
                                                  /home/leon/git/swp-report/iMX6_Platform_SDK/output/mx6dq/lib/libsdk.a(abort_handler.o)
                                                  /home/leon/git/swp-report/iMX6_Platform_SDK/output/mx6dq/lib/libsdk.a(interrupt.o)
                                                  /home/leon/git/swp-report/iMX6_Platform_SDK/output/mx6dq/lib/libsdk.a(enet_drv.o)
                                                  /home/leon/git/swp-report/iMX6_Platform_SDK/output/mx6dq/lib/libsdk.a(text_color.o)
                                                  /home/leon/git/swp-report/iMX6_Platform_SDK/output/mx6dq/lib/libsdk.a(system_util.o)
                                                  /home/leon/git/swp-report/iMX6_Platform_SDK/output/mx6dq/httpd/sabre_ai_rev_c/obj/lwip/contrib/apps/httpserver_raw/httpd.o
                                                  /home/leon/git/swp-report/iMX6_Platform_SDK/output/mx6dq/httpd/sabre_ai_rev_c/obj/apps/httpd/src/httpd_main.o
printf_color                                      /home/leon/git/swp-report/iMX6_Platform_SDK/output/mx6dq/lib/libsdk.a(text_color.o)
                                                  /home/leon/git/swp-report/iMX6_Platform_SDK/output/mx6dq/lib/libsdk.a(system_util.o)
putc                                              /home/leon/riotboard/arm-2012.09/bin/../arm-none-eabi/lib//libc.a(lib_a-putc.o)
pwm1_iomux_config                                 /home/leon/git/swp-report/iMX6_Platform_SDK/output/mx6dq/lib/libboard_sabre_ai_rev_c.a(iomux_config.o)
pwm2_iomux_config                                 /home/leon/git/swp-report/iMX6_Platform_SDK/output/mx6dq/lib/libboard_sabre_ai_rev_c.a(iomux_config.o)
pwm3_iomux_config                                 /home/leon/git/swp-report/iMX6_Platform_SDK/output/mx6dq/lib/libboard_sabre_ai_rev_c.a(pwm3_iomux_config.o)
                                                  /home/leon/git/swp-report/iMX6_Platform_SDK/output/mx6dq/lib/libboard_sabre_ai_rev_c.a(iomux_config.o)
pwm4_iomux_config                                 /home/leon/git/swp-report/iMX6_Platform_SDK/output/mx6dq/lib/libboard_sabre_ai_rev_c.a(pwm4_iomux_config.o)
                                                  /home/leon/git/swp-report/iMX6_Platform_SDK/output/mx6dq/lib/libboard_sabre_ai_rev_c.a(iomux_config.o)
raise                                             /home/leon/riotboard/arm-2012.09/bin/../arm-none-eabi/lib//libc.a(lib_a-signal.o)
                                                  /home/leon/riotboard/arm-2012.09/bin/../arm-none-eabi/lib//libc.a(lib_a-abort.o)
rand                                              /home/leon/riotboard/arm-2012.09/bin/../arm-none-eabi/lib//libc.a(lib_a-rand.o)
                                                  /home/leon/git/swp-report/iMX6_Platform_SDK/output/mx6dq/lib/liblwip.a(igmp.o)
                                                  /home/leon/git/swp-report/iMX6_Platform_SDK/output/mx6dq/lib/liblwip.a(dhcp.o)
raw_bind                                          /home/leon/git/swp-report/iMX6_Platform_SDK/output/mx6dq/lib/liblwip.a(raw.o)
raw_connect                                       /home/leon/git/swp-report/iMX6_Platform_SDK/output/mx6dq/lib/liblwip.a(raw.o)
raw_input                                         /home/leon/git/swp-report/iMX6_Platform_SDK/output/mx6dq/lib/liblwip.a(raw.o)
                                                  /home/leon/git/swp-report/iMX6_Platform_SDK/output/mx6dq/lib/liblwip.a(ip4.o)
raw_new                                           /home/leon/git/swp-report/iMX6_Platform_SDK/output/mx6dq/lib/liblwip.a(raw.o)
raw_recv                                          /home/leon/git/swp-report/iMX6_Platform_SDK/output/mx6dq/lib/liblwip.a(raw.o)
raw_remove                                        /home/leon/git/swp-report/iMX6_Platform_SDK/output/mx6dq/lib/liblwip.a(raw.o)
raw_send                                          /home/leon/git/swp-report/iMX6_Platform_SDK/output/mx6dq/lib/liblwip.a(raw.o)
raw_sendto                                        /home/leon/git/swp-report/iMX6_Platform_SDK/output/mx6dq/lib/liblwip.a(raw.o)
read_input_string                                 /home/leon/git/swp-report/iMX6_Platform_SDK/output/mx6dq/lib/libsdk.a(system_util.o)
read_int                                          /home/leon/git/swp-report/iMX6_Platform_SDK/output/mx6dq/lib/libsdk.a(system_util.o)
realloc                                           /home/leon/riotboard/arm-2012.09/bin/../arm-none-eabi/lib//libc.a(lib_a-realloc.o)
                                                  /home/leon/git/swp-report/iMX6_Platform_SDK/output/mx6dq/lib/libsdk.a(system_util.o)
register_interrupt_routine                        /home/leon/git/swp-report/iMX6_Platform_SDK/output/mx6dq/lib/libsdk.a(interrupt.o)
                                                  /home/leon/git/swp-report/iMX6_Platform_SDK/output/mx6dq/lib/libsdk.a(imx_i2c.o)
                                                  /home/leon/git/swp-report/iMX6_Platform_SDK/output/mx6dq/lib/libsdk.a(epit.o)
                                                  /home/leon/git/swp-report/iMX6_Platform_SDK/output/mx6dq/lib/libsdk.a(imx_uart.o)
sata_phy_iomux_config                             /home/leon/git/swp-report/iMX6_Platform_SDK/output/mx6dq/lib/libboard_sabre_ai_rev_c.a(iomux_config.o)
scu_disable_maintenance_broadcast                 /home/leon/git/swp-report/iMX6_Platform_SDK/output/mx6dq/lib/libsdk.a(cortexA9.o)
scu_enable                                        /home/leon/git/swp-report/iMX6_Platform_SDK/output/mx6dq/lib/libsdk.a(cortexA9.o)
scu_enable_maintenance_broadcast                  /home/leon/git/swp-report/iMX6_Platform_SDK/output/mx6dq/lib/libsdk.a(cortexA9.o)
scu_get_cpus_in_smp                               /home/leon/git/swp-report/iMX6_Platform_SDK/output/mx6dq/lib/libsdk.a(cortexA9.o)
scu_join_smp                                      /home/leon/git/swp-report/iMX6_Platform_SDK/output/mx6dq/lib/libsdk.a(cortexA9.o)
scu_leave_smp                                     /home/leon/git/swp-report/iMX6_Platform_SDK/output/mx6dq/lib/libsdk.a(cortexA9.o)
scu_secure_invalidate                             /home/leon/git/swp-report/iMX6_Platform_SDK/output/mx6dq/lib/libsdk.a(cortexA9.o)
sdma_iomux_config                                 /home/leon/git/swp-report/iMX6_Platform_SDK/output/mx6dq/lib/libboard_sabre_ai_rev_c.a(iomux_config.o)
setlocale                                         /home/leon/riotboard/arm-2012.09/bin/../arm-none-eabi/lib//libc.a(lib_a-locale.o)
signal                                            /home/leon/riotboard/arm-2012.09/bin/../arm-none-eabi/lib//libc.a(lib_a-signal.o)
sjc_iomux_config                                  /home/leon/git/swp-report/iMX6_Platform_SDK/output/mx6dq/lib/libboard_sabre_ai_rev_c.a(sjc_iomux_config.o)
                                                  /home/leon/git/swp-report/iMX6_Platform_SDK/output/mx6dq/lib/libboard_sabre_ai_rev_c.a(iomux_config.o)
snmp                                              /home/leon/git/swp-report/iMX6_Platform_SDK/output/mx6dq/lib/liblwip.a(mib2.o)
snmp1_pcb                                         /home/leon/git/swp-report/iMX6_Platform_SDK/output/mx6dq/lib/liblwip.a(msg_in.o)
snmp_add_ifinoctets                               /home/leon/git/swp-report/iMX6_Platform_SDK/output/mx6dq/lib/liblwip.a(mib2.o)
                                                  /home/leon/git/swp-report/iMX6_Platform_SDK/output/mx6dq/lib/liblwip.a(netif.o)
snmp_add_ifoutoctets                              /home/leon/git/swp-report/iMX6_Platform_SDK/output/mx6dq/lib/liblwip.a(mib2.o)
                                                  /home/leon/git/swp-report/iMX6_Platform_SDK/output/mx6dq/lib/liblwip.a(netif.o)
snmp_add_snmpintotalreqvars                       /home/leon/git/swp-report/iMX6_Platform_SDK/output/mx6dq/lib/liblwip.a(mib2.o)
                                                  /home/leon/git/swp-report/iMX6_Platform_SDK/output/mx6dq/lib/liblwip.a(msg_in.o)
snmp_add_snmpintotalsetvars                       /home/leon/git/swp-report/iMX6_Platform_SDK/output/mx6dq/lib/liblwip.a(mib2.o)
                                                  /home/leon/git/swp-report/iMX6_Platform_SDK/output/mx6dq/lib/liblwip.a(msg_in.o)
snmp_add_sysuptime                                /home/leon/git/swp-report/iMX6_Platform_SDK/output/mx6dq/lib/liblwip.a(mib2.o)
snmp_asn1_dec_length                              /home/leon/git/swp-report/iMX6_Platform_SDK/output/mx6dq/lib/liblwip.a(asn1_dec.o)
                                                  /home/leon/git/swp-report/iMX6_Platform_SDK/output/mx6dq/lib/liblwip.a(msg_in.o)
snmp_asn1_dec_oid                                 /home/leon/git/swp-report/iMX6_Platform_SDK/output/mx6dq/lib/liblwip.a(asn1_dec.o)
                                                  /home/leon/git/swp-report/iMX6_Platform_SDK/output/mx6dq/lib/liblwip.a(msg_in.o)
snmp_asn1_dec_raw                                 /home/leon/git/swp-report/iMX6_Platform_SDK/output/mx6dq/lib/liblwip.a(asn1_dec.o)
                                                  /home/leon/git/swp-report/iMX6_Platform_SDK/output/mx6dq/lib/liblwip.a(msg_in.o)
snmp_asn1_dec_s32t                                /home/leon/git/swp-report/iMX6_Platform_SDK/output/mx6dq/lib/liblwip.a(asn1_dec.o)
                                                  /home/leon/git/swp-report/iMX6_Platform_SDK/output/mx6dq/lib/liblwip.a(msg_in.o)
snmp_asn1_dec_type                                /home/leon/git/swp-report/iMX6_Platform_SDK/output/mx6dq/lib/liblwip.a(asn1_dec.o)
                                                  /home/leon/git/swp-report/iMX6_Platform_SDK/output/mx6dq/lib/liblwip.a(msg_in.o)
snmp_asn1_dec_u32t                                /home/leon/git/swp-report/iMX6_Platform_SDK/output/mx6dq/lib/liblwip.a(asn1_dec.o)
                                                  /home/leon/git/swp-report/iMX6_Platform_SDK/output/mx6dq/lib/liblwip.a(msg_in.o)
snmp_asn1_enc_length                              /home/leon/git/swp-report/iMX6_Platform_SDK/output/mx6dq/lib/liblwip.a(asn1_enc.o)
                                                  /home/leon/git/swp-report/iMX6_Platform_SDK/output/mx6dq/lib/liblwip.a(msg_out.o)
snmp_asn1_enc_length_cnt                          /home/leon/git/swp-report/iMX6_Platform_SDK/output/mx6dq/lib/liblwip.a(asn1_enc.o)
                                                  /home/leon/git/swp-report/iMX6_Platform_SDK/output/mx6dq/lib/liblwip.a(msg_out.o)
snmp_asn1_enc_oid                                 /home/leon/git/swp-report/iMX6_Platform_SDK/output/mx6dq/lib/liblwip.a(asn1_enc.o)
                                                  /home/leon/git/swp-report/iMX6_Platform_SDK/output/mx6dq/lib/liblwip.a(msg_out.o)
snmp_asn1_enc_oid_cnt                             /home/leon/git/swp-report/iMX6_Platform_SDK/output/mx6dq/lib/liblwip.a(asn1_enc.o)
                                                  /home/leon/git/swp-report/iMX6_Platform_SDK/output/mx6dq/lib/liblwip.a(msg_out.o)
snmp_asn1_enc_raw                                 /home/leon/git/swp-report/iMX6_Platform_SDK/output/mx6dq/lib/liblwip.a(asn1_enc.o)
                                                  /home/leon/git/swp-report/iMX6_Platform_SDK/output/mx6dq/lib/liblwip.a(msg_out.o)
snmp_asn1_enc_s32t                                /home/leon/git/swp-report/iMX6_Platform_SDK/output/mx6dq/lib/liblwip.a(asn1_enc.o)
                                                  /home/leon/git/swp-report/iMX6_Platform_SDK/output/mx6dq/lib/liblwip.a(msg_out.o)
snmp_asn1_enc_s32t_cnt                            /home/leon/git/swp-report/iMX6_Platform_SDK/output/mx6dq/lib/liblwip.a(asn1_enc.o)
                                                  /home/leon/git/swp-report/iMX6_Platform_SDK/output/mx6dq/lib/liblwip.a(msg_out.o)
snmp_asn1_enc_type                                /home/leon/git/swp-report/iMX6_Platform_SDK/output/mx6dq/lib/liblwip.a(asn1_enc.o)
                                                  /home/leon/git/swp-report/iMX6_Platform_SDK/output/mx6dq/lib/liblwip.a(msg_out.o)
snmp_asn1_enc_u32t                                /home/leon/git/swp-report/iMX6_Platform_SDK/output/mx6dq/lib/liblwip.a(asn1_enc.o)
                                                  /home/leon/git/swp-report/iMX6_Platform_SDK/output/mx6dq/lib/liblwip.a(msg_out.o)
snmp_asn1_enc_u32t_cnt                            /home/leon/git/swp-report/iMX6_Platform_SDK/output/mx6dq/lib/liblwip.a(asn1_enc.o)
                                                  /home/leon/git/swp-report/iMX6_Platform_SDK/output/mx6dq/lib/liblwip.a(msg_out.o)
snmp_authfail_trap                                /home/leon/git/swp-report/iMX6_Platform_SDK/output/mx6dq/lib/liblwip.a(msg_out.o)
                                                  /home/leon/git/swp-report/iMX6_Platform_SDK/output/mx6dq/lib/liblwip.a(msg_in.o)
snmp_coldstart_trap                               /home/leon/git/swp-report/iMX6_Platform_SDK/output/mx6dq/lib/liblwip.a(msg_out.o)
                                                  /home/leon/git/swp-report/iMX6_Platform_SDK/output/mx6dq/lib/liblwip.a(msg_in.o)
snmp_dec_iflist                                   /home/leon/git/swp-report/iMX6_Platform_SDK/output/mx6dq/lib/liblwip.a(mib2.o)
                                                  /home/leon/git/swp-report/iMX6_Platform_SDK/output/mx6dq/lib/liblwip.a(netif.o)
snmp_delete_arpidx_tree                           /home/leon/git/swp-report/iMX6_Platform_SDK/output/mx6dq/lib/liblwip.a(mib2.o)
                                                  /home/leon/git/swp-report/iMX6_Platform_SDK/output/mx6dq/lib/liblwip.a(etharp.o)
snmp_delete_ipaddridx_tree                        /home/leon/git/swp-report/iMX6_Platform_SDK/output/mx6dq/lib/liblwip.a(mib2.o)
                                                  /home/leon/git/swp-report/iMX6_Platform_SDK/output/mx6dq/lib/liblwip.a(netif.o)
snmp_delete_iprteidx_tree                         /home/leon/git/swp-report/iMX6_Platform_SDK/output/mx6dq/lib/liblwip.a(mib2.o)
                                                  /home/leon/git/swp-report/iMX6_Platform_SDK/output/mx6dq/lib/liblwip.a(netif.o)
snmp_delete_udpidx_tree                           /home/leon/git/swp-report/iMX6_Platform_SDK/output/mx6dq/lib/liblwip.a(mib2.o)
                                                  /home/leon/git/swp-report/iMX6_Platform_SDK/output/mx6dq/lib/liblwip.a(udp.o)
snmp_expand_tree                                  /home/leon/git/swp-report/iMX6_Platform_SDK/output/mx6dq/lib/liblwip.a(mib_structs.o)
                                                  /home/leon/git/swp-report/iMX6_Platform_SDK/output/mx6dq/lib/liblwip.a(msg_in.o)
snmp_get_snmpenableauthentraps                    /home/leon/git/swp-report/iMX6_Platform_SDK/output/mx6dq/lib/liblwip.a(mib2.o)
                                                  /home/leon/git/swp-report/iMX6_Platform_SDK/output/mx6dq/lib/liblwip.a(msg_out.o)
snmp_get_snmpgrpid_ptr                            /home/leon/git/swp-report/iMX6_Platform_SDK/output/mx6dq/lib/liblwip.a(mib2.o)
                                                  /home/leon/git/swp-report/iMX6_Platform_SDK/output/mx6dq/lib/liblwip.a(msg_out.o)
snmp_get_sysobjid_ptr                             /home/leon/git/swp-report/iMX6_Platform_SDK/output/mx6dq/lib/liblwip.a(mib2.o)
snmp_get_sysuptime                                /home/leon/git/swp-report/iMX6_Platform_SDK/output/mx6dq/lib/liblwip.a(mib2.o)
                                                  /home/leon/git/swp-report/iMX6_Platform_SDK/output/mx6dq/lib/liblwip.a(msg_out.o)
                                                  /home/leon/git/swp-report/iMX6_Platform_SDK/output/mx6dq/lib/liblwip.a(netif.o)
snmp_ids                                          /home/leon/git/swp-report/iMX6_Platform_SDK/output/mx6dq/lib/liblwip.a(mib2.o)
snmp_ifindextonetif                               /home/leon/git/swp-report/iMX6_Platform_SDK/output/mx6dq/lib/liblwip.a(mib_structs.o)
                                                  /home/leon/git/swp-report/iMX6_Platform_SDK/output/mx6dq/lib/liblwip.a(mib2.o)
snmp_inc_icmpinaddrmaskreps                       /home/leon/git/swp-report/iMX6_Platform_SDK/output/mx6dq/lib/liblwip.a(mib2.o)
snmp_inc_icmpinaddrmasks                          /home/leon/git/swp-report/iMX6_Platform_SDK/output/mx6dq/lib/liblwip.a(mib2.o)
snmp_inc_icmpindestunreachs                       /home/leon/git/swp-report/iMX6_Platform_SDK/output/mx6dq/lib/liblwip.a(mib2.o)
snmp_inc_icmpinechoreps                           /home/leon/git/swp-report/iMX6_Platform_SDK/output/mx6dq/lib/liblwip.a(mib2.o)
snmp_inc_icmpinechos                              /home/leon/git/swp-report/iMX6_Platform_SDK/output/mx6dq/lib/liblwip.a(mib2.o)
snmp_inc_icmpinerrors                             /home/leon/git/swp-report/iMX6_Platform_SDK/output/mx6dq/lib/liblwip.a(mib2.o)
                                                  /home/leon/git/swp-report/iMX6_Platform_SDK/output/mx6dq/lib/liblwip.a(icmp.o)
snmp_inc_icmpinmsgs                               /home/leon/git/swp-report/iMX6_Platform_SDK/output/mx6dq/lib/liblwip.a(mib2.o)
                                                  /home/leon/git/swp-report/iMX6_Platform_SDK/output/mx6dq/lib/liblwip.a(icmp.o)
snmp_inc_icmpinparmprobs                          /home/leon/git/swp-report/iMX6_Platform_SDK/output/mx6dq/lib/liblwip.a(mib2.o)
snmp_inc_icmpinredirects                          /home/leon/git/swp-report/iMX6_Platform_SDK/output/mx6dq/lib/liblwip.a(mib2.o)
snmp_inc_icmpinsrcquenchs                         /home/leon/git/swp-report/iMX6_Platform_SDK/output/mx6dq/lib/liblwip.a(mib2.o)
snmp_inc_icmpintimeexcds                          /home/leon/git/swp-report/iMX6_Platform_SDK/output/mx6dq/lib/liblwip.a(mib2.o)
snmp_inc_icmpintimestampreps                      /home/leon/git/swp-report/iMX6_Platform_SDK/output/mx6dq/lib/liblwip.a(mib2.o)
snmp_inc_icmpintimestamps                         /home/leon/git/swp-report/iMX6_Platform_SDK/output/mx6dq/lib/liblwip.a(mib2.o)
snmp_inc_icmpoutaddrmaskreps                      /home/leon/git/swp-report/iMX6_Platform_SDK/output/mx6dq/lib/liblwip.a(mib2.o)
snmp_inc_icmpoutaddrmasks                         /home/leon/git/swp-report/iMX6_Platform_SDK/output/mx6dq/lib/liblwip.a(mib2.o)
snmp_inc_icmpoutdestunreachs                      /home/leon/git/swp-report/iMX6_Platform_SDK/output/mx6dq/lib/liblwip.a(mib2.o)
snmp_inc_icmpoutechoreps                          /home/leon/git/swp-report/iMX6_Platform_SDK/output/mx6dq/lib/liblwip.a(mib2.o)
                                                  /home/leon/git/swp-report/iMX6_Platform_SDK/output/mx6dq/lib/liblwip.a(icmp.o)
snmp_inc_icmpoutechos                             /home/leon/git/swp-report/iMX6_Platform_SDK/output/mx6dq/lib/liblwip.a(mib2.o)
snmp_inc_icmpouterrors                            /home/leon/git/swp-report/iMX6_Platform_SDK/output/mx6dq/lib/liblwip.a(mib2.o)
snmp_inc_icmpoutmsgs                              /home/leon/git/swp-report/iMX6_Platform_SDK/output/mx6dq/lib/liblwip.a(mib2.o)
                                                  /home/leon/git/swp-report/iMX6_Platform_SDK/output/mx6dq/lib/liblwip.a(icmp.o)
snmp_inc_icmpoutparmprobs                         /home/leon/git/swp-report/iMX6_Platform_SDK/output/mx6dq/lib/liblwip.a(mib2.o)
snmp_inc_icmpoutredirects                         /home/leon/git/swp-report/iMX6_Platform_SDK/output/mx6dq/lib/liblwip.a(mib2.o)
snmp_inc_icmpoutsrcquenchs                        /home/leon/git/swp-report/iMX6_Platform_SDK/output/mx6dq/lib/liblwip.a(mib2.o)
snmp_inc_icmpouttimeexcds                         /home/leon/git/swp-report/iMX6_Platform_SDK/output/mx6dq/lib/liblwip.a(mib2.o)
                                                  /home/leon/git/swp-report/iMX6_Platform_SDK/output/mx6dq/lib/liblwip.a(icmp.o)
snmp_inc_icmpouttimestampreps                     /home/leon/git/swp-report/iMX6_Platform_SDK/output/mx6dq/lib/liblwip.a(mib2.o)
snmp_inc_icmpouttimestamps                        /home/leon/git/swp-report/iMX6_Platform_SDK/output/mx6dq/lib/liblwip.a(mib2.o)
snmp_inc_ifindiscards                             /home/leon/git/swp-report/iMX6_Platform_SDK/output/mx6dq/lib/liblwip.a(mib2.o)
snmp_inc_ifinnucastpkts                           /home/leon/git/swp-report/iMX6_Platform_SDK/output/mx6dq/lib/liblwip.a(mib2.o)
snmp_inc_ifinucastpkts                            /home/leon/git/swp-report/iMX6_Platform_SDK/output/mx6dq/lib/liblwip.a(mib2.o)
                                                  /home/leon/git/swp-report/iMX6_Platform_SDK/output/mx6dq/lib/liblwip.a(netif.o)
snmp_inc_iflist                                   /home/leon/git/swp-report/iMX6_Platform_SDK/output/mx6dq/lib/liblwip.a(mib2.o)
                                                  /home/leon/git/swp-report/iMX6_Platform_SDK/output/mx6dq/lib/liblwip.a(netif.o)
snmp_inc_ifoutdiscards                            /home/leon/git/swp-report/iMX6_Platform_SDK/output/mx6dq/lib/liblwip.a(mib2.o)
                                                  /home/leon/git/swp-report/iMX6_Platform_SDK/output/mx6dq/lib/liblwip.a(netif.o)
snmp_inc_ifoutnucastpkts                          /home/leon/git/swp-report/iMX6_Platform_SDK/output/mx6dq/lib/liblwip.a(mib2.o)
snmp_inc_ifoutucastpkts                           /home/leon/git/swp-report/iMX6_Platform_SDK/output/mx6dq/lib/liblwip.a(mib2.o)
                                                  /home/leon/git/swp-report/iMX6_Platform_SDK/output/mx6dq/lib/liblwip.a(netif.o)
snmp_inc_ipforwdatagrams                          /home/leon/git/swp-report/iMX6_Platform_SDK/output/mx6dq/lib/liblwip.a(mib2.o)
snmp_inc_ipfragcreates                            /home/leon/git/swp-report/iMX6_Platform_SDK/output/mx6dq/lib/liblwip.a(mib2.o)
snmp_inc_ipfragfails                              /home/leon/git/swp-report/iMX6_Platform_SDK/output/mx6dq/lib/liblwip.a(mib2.o)
snmp_inc_ipfragoks                                /home/leon/git/swp-report/iMX6_Platform_SDK/output/mx6dq/lib/liblwip.a(mib2.o)
snmp_inc_ipinaddrerrors                           /home/leon/git/swp-report/iMX6_Platform_SDK/output/mx6dq/lib/liblwip.a(mib2.o)
                                                  /home/leon/git/swp-report/iMX6_Platform_SDK/output/mx6dq/lib/liblwip.a(ip4.o)
snmp_inc_ipindelivers                             /home/leon/git/swp-report/iMX6_Platform_SDK/output/mx6dq/lib/liblwip.a(mib2.o)
                                                  /home/leon/git/swp-report/iMX6_Platform_SDK/output/mx6dq/lib/liblwip.a(ip4.o)
snmp_inc_ipindiscards                             /home/leon/git/swp-report/iMX6_Platform_SDK/output/mx6dq/lib/liblwip.a(mib2.o)
                                                  /home/leon/git/swp-report/iMX6_Platform_SDK/output/mx6dq/lib/liblwip.a(ip4.o)
snmp_inc_ipinhdrerrors                            /home/leon/git/swp-report/iMX6_Platform_SDK/output/mx6dq/lib/liblwip.a(mib2.o)
                                                  /home/leon/git/swp-report/iMX6_Platform_SDK/output/mx6dq/lib/liblwip.a(ip4.o)
snmp_inc_ipinreceives                             /home/leon/git/swp-report/iMX6_Platform_SDK/output/mx6dq/lib/liblwip.a(mib2.o)
                                                  /home/leon/git/swp-report/iMX6_Platform_SDK/output/mx6dq/lib/liblwip.a(ip4.o)
snmp_inc_ipinunknownprotos                        /home/leon/git/swp-report/iMX6_Platform_SDK/output/mx6dq/lib/liblwip.a(mib2.o)
                                                  /home/leon/git/swp-report/iMX6_Platform_SDK/output/mx6dq/lib/liblwip.a(ip4.o)
snmp_inc_ipoutdiscards                            /home/leon/git/swp-report/iMX6_Platform_SDK/output/mx6dq/lib/liblwip.a(mib2.o)
                                                  /home/leon/git/swp-report/iMX6_Platform_SDK/output/mx6dq/lib/liblwip.a(ip4.o)
snmp_inc_ipoutnoroutes                            /home/leon/git/swp-report/iMX6_Platform_SDK/output/mx6dq/lib/liblwip.a(mib2.o)
                                                  /home/leon/git/swp-report/iMX6_Platform_SDK/output/mx6dq/lib/liblwip.a(ip4.o)
snmp_inc_ipoutrequests                            /home/leon/git/swp-report/iMX6_Platform_SDK/output/mx6dq/lib/liblwip.a(mib2.o)
                                                  /home/leon/git/swp-report/iMX6_Platform_SDK/output/mx6dq/lib/liblwip.a(ip4.o)
snmp_inc_ipreasmfails                             /home/leon/git/swp-report/iMX6_Platform_SDK/output/mx6dq/lib/liblwip.a(mib2.o)
snmp_inc_ipreasmoks                               /home/leon/git/swp-report/iMX6_Platform_SDK/output/mx6dq/lib/liblwip.a(mib2.o)
snmp_inc_ipreasmreqds                             /home/leon/git/swp-report/iMX6_Platform_SDK/output/mx6dq/lib/liblwip.a(mib2.o)
snmp_inc_iproutingdiscards                        /home/leon/git/swp-report/iMX6_Platform_SDK/output/mx6dq/lib/liblwip.a(mib2.o)
snmp_inc_snmpinasnparseerrs                       /home/leon/git/swp-report/iMX6_Platform_SDK/output/mx6dq/lib/liblwip.a(mib2.o)
                                                  /home/leon/git/swp-report/iMX6_Platform_SDK/output/mx6dq/lib/liblwip.a(msg_in.o)
snmp_inc_snmpinbadcommunitynames                  /home/leon/git/swp-report/iMX6_Platform_SDK/output/mx6dq/lib/liblwip.a(mib2.o)
                                                  /home/leon/git/swp-report/iMX6_Platform_SDK/output/mx6dq/lib/liblwip.a(msg_in.o)
snmp_inc_snmpinbadcommunityuses                   /home/leon/git/swp-report/iMX6_Platform_SDK/output/mx6dq/lib/liblwip.a(mib2.o)
snmp_inc_snmpinbadvalues                          /home/leon/git/swp-report/iMX6_Platform_SDK/output/mx6dq/lib/liblwip.a(mib2.o)
                                                  /home/leon/git/swp-report/iMX6_Platform_SDK/output/mx6dq/lib/liblwip.a(msg_in.o)
snmp_inc_snmpinbadversions                        /home/leon/git/swp-report/iMX6_Platform_SDK/output/mx6dq/lib/liblwip.a(mib2.o)
                                                  /home/leon/git/swp-report/iMX6_Platform_SDK/output/mx6dq/lib/liblwip.a(msg_in.o)
snmp_inc_snmpingenerrs                            /home/leon/git/swp-report/iMX6_Platform_SDK/output/mx6dq/lib/liblwip.a(mib2.o)
                                                  /home/leon/git/swp-report/iMX6_Platform_SDK/output/mx6dq/lib/liblwip.a(msg_in.o)
snmp_inc_snmpingetnexts                           /home/leon/git/swp-report/iMX6_Platform_SDK/output/mx6dq/lib/liblwip.a(mib2.o)
                                                  /home/leon/git/swp-report/iMX6_Platform_SDK/output/mx6dq/lib/liblwip.a(msg_in.o)
snmp_inc_snmpingetrequests                        /home/leon/git/swp-report/iMX6_Platform_SDK/output/mx6dq/lib/liblwip.a(mib2.o)
                                                  /home/leon/git/swp-report/iMX6_Platform_SDK/output/mx6dq/lib/liblwip.a(msg_in.o)
snmp_inc_snmpingetresponses                       /home/leon/git/swp-report/iMX6_Platform_SDK/output/mx6dq/lib/liblwip.a(mib2.o)
                                                  /home/leon/git/swp-report/iMX6_Platform_SDK/output/mx6dq/lib/liblwip.a(msg_in.o)
snmp_inc_snmpinnosuchnames                        /home/leon/git/swp-report/iMX6_Platform_SDK/output/mx6dq/lib/liblwip.a(mib2.o)
                                                  /home/leon/git/swp-report/iMX6_Platform_SDK/output/mx6dq/lib/liblwip.a(msg_in.o)
snmp_inc_snmpinpkts                               /home/leon/git/swp-report/iMX6_Platform_SDK/output/mx6dq/lib/liblwip.a(mib2.o)
                                                  /home/leon/git/swp-report/iMX6_Platform_SDK/output/mx6dq/lib/liblwip.a(msg_in.o)
snmp_inc_snmpinreadonlys                          /home/leon/git/swp-report/iMX6_Platform_SDK/output/mx6dq/lib/liblwip.a(mib2.o)
                                                  /home/leon/git/swp-report/iMX6_Platform_SDK/output/mx6dq/lib/liblwip.a(msg_in.o)
snmp_inc_snmpinsetrequests                        /home/leon/git/swp-report/iMX6_Platform_SDK/output/mx6dq/lib/liblwip.a(mib2.o)
                                                  /home/leon/git/swp-report/iMX6_Platform_SDK/output/mx6dq/lib/liblwip.a(msg_in.o)
snmp_inc_snmpintoobigs                            /home/leon/git/swp-report/iMX6_Platform_SDK/output/mx6dq/lib/liblwip.a(mib2.o)
                                                  /home/leon/git/swp-report/iMX6_Platform_SDK/output/mx6dq/lib/liblwip.a(msg_in.o)
snmp_inc_snmpintraps                              /home/leon/git/swp-report/iMX6_Platform_SDK/output/mx6dq/lib/liblwip.a(mib2.o)
                                                  /home/leon/git/swp-report/iMX6_Platform_SDK/output/mx6dq/lib/liblwip.a(msg_in.o)
snmp_inc_snmpoutbadvalues                         /home/leon/git/swp-report/iMX6_Platform_SDK/output/mx6dq/lib/liblwip.a(mib2.o)
                                                  /home/leon/git/swp-report/iMX6_Platform_SDK/output/mx6dq/lib/liblwip.a(msg_out.o)
snmp_inc_snmpoutgenerrs                           /home/leon/git/swp-report/iMX6_Platform_SDK/output/mx6dq/lib/liblwip.a(mib2.o)
                                                  /home/leon/git/swp-report/iMX6_Platform_SDK/output/mx6dq/lib/liblwip.a(msg_out.o)
snmp_inc_snmpoutgetnexts                          /home/leon/git/swp-report/iMX6_Platform_SDK/output/mx6dq/lib/liblwip.a(mib2.o)
snmp_inc_snmpoutgetrequests                       /home/leon/git/swp-report/iMX6_Platform_SDK/output/mx6dq/lib/liblwip.a(mib2.o)
snmp_inc_snmpoutgetresponses                      /home/leon/git/swp-report/iMX6_Platform_SDK/output/mx6dq/lib/liblwip.a(mib2.o)
                                                  /home/leon/git/swp-report/iMX6_Platform_SDK/output/mx6dq/lib/liblwip.a(msg_out.o)
snmp_inc_snmpoutnosuchnames                       /home/leon/git/swp-report/iMX6_Platform_SDK/output/mx6dq/lib/liblwip.a(mib2.o)
                                                  /home/leon/git/swp-report/iMX6_Platform_SDK/output/mx6dq/lib/liblwip.a(msg_out.o)
snmp_inc_snmpoutpkts                              /home/leon/git/swp-report/iMX6_Platform_SDK/output/mx6dq/lib/liblwip.a(mib2.o)
                                                  /home/leon/git/swp-report/iMX6_Platform_SDK/output/mx6dq/lib/liblwip.a(msg_out.o)
snmp_inc_snmpoutsetrequests                       /home/leon/git/swp-report/iMX6_Platform_SDK/output/mx6dq/lib/liblwip.a(mib2.o)
snmp_inc_snmpouttoobigs                           /home/leon/git/swp-report/iMX6_Platform_SDK/output/mx6dq/lib/liblwip.a(mib2.o)
                                                  /home/leon/git/swp-report/iMX6_Platform_SDK/output/mx6dq/lib/liblwip.a(msg_out.o)
snmp_inc_snmpouttraps                             /home/leon/git/swp-report/iMX6_Platform_SDK/output/mx6dq/lib/liblwip.a(mib2.o)
                                                  /home/leon/git/swp-report/iMX6_Platform_SDK/output/mx6dq/lib/liblwip.a(msg_out.o)
snmp_inc_sysuptime                                /home/leon/git/swp-report/iMX6_Platform_SDK/output/mx6dq/lib/liblwip.a(mib2.o)
snmp_inc_tcpactiveopens                           /home/leon/git/swp-report/iMX6_Platform_SDK/output/mx6dq/lib/liblwip.a(mib2.o)
                                                  /home/leon/git/swp-report/iMX6_Platform_SDK/output/mx6dq/lib/liblwip.a(tcp.o)
snmp_inc_tcpattemptfails                          /home/leon/git/swp-report/iMX6_Platform_SDK/output/mx6dq/lib/liblwip.a(mib2.o)
                                                  /home/leon/git/swp-report/iMX6_Platform_SDK/output/mx6dq/lib/liblwip.a(tcp.o)
snmp_inc_tcpestabresets                           /home/leon/git/swp-report/iMX6_Platform_SDK/output/mx6dq/lib/liblwip.a(mib2.o)
                                                  /home/leon/git/swp-report/iMX6_Platform_SDK/output/mx6dq/lib/liblwip.a(tcp.o)
snmp_inc_tcpinerrs                                /home/leon/git/swp-report/iMX6_Platform_SDK/output/mx6dq/lib/liblwip.a(mib2.o)
                                                  /home/leon/git/swp-report/iMX6_Platform_SDK/output/mx6dq/lib/liblwip.a(tcp_in.o)
snmp_inc_tcpinsegs                                /home/leon/git/swp-report/iMX6_Platform_SDK/output/mx6dq/lib/liblwip.a(mib2.o)
                                                  /home/leon/git/swp-report/iMX6_Platform_SDK/output/mx6dq/lib/liblwip.a(tcp_in.o)
snmp_inc_tcpoutrsts                               /home/leon/git/swp-report/iMX6_Platform_SDK/output/mx6dq/lib/liblwip.a(mib2.o)
                                                  /home/leon/git/swp-report/iMX6_Platform_SDK/output/mx6dq/lib/liblwip.a(tcp_out.o)
snmp_inc_tcpoutsegs                               /home/leon/git/swp-report/iMX6_Platform_SDK/output/mx6dq/lib/liblwip.a(mib2.o)
                                                  /home/leon/git/swp-report/iMX6_Platform_SDK/output/mx6dq/lib/liblwip.a(tcp_out.o)
snmp_inc_tcppassiveopens                          /home/leon/git/swp-report/iMX6_Platform_SDK/output/mx6dq/lib/liblwip.a(mib2.o)
                                                  /home/leon/git/swp-report/iMX6_Platform_SDK/output/mx6dq/lib/liblwip.a(tcp_in.o)
snmp_inc_tcpretranssegs                           /home/leon/git/swp-report/iMX6_Platform_SDK/output/mx6dq/lib/liblwip.a(mib2.o)
                                                  /home/leon/git/swp-report/iMX6_Platform_SDK/output/mx6dq/lib/liblwip.a(tcp_out.o)
snmp_inc_udpindatagrams                           /home/leon/git/swp-report/iMX6_Platform_SDK/output/mx6dq/lib/liblwip.a(mib2.o)
                                                  /home/leon/git/swp-report/iMX6_Platform_SDK/output/mx6dq/lib/liblwip.a(udp.o)
snmp_inc_udpinerrors                              /home/leon/git/swp-report/iMX6_Platform_SDK/output/mx6dq/lib/liblwip.a(mib2.o)
                                                  /home/leon/git/swp-report/iMX6_Platform_SDK/output/mx6dq/lib/liblwip.a(udp.o)
snmp_inc_udpnoports                               /home/leon/git/swp-report/iMX6_Platform_SDK/output/mx6dq/lib/liblwip.a(mib2.o)
                                                  /home/leon/git/swp-report/iMX6_Platform_SDK/output/mx6dq/lib/liblwip.a(udp.o)
snmp_inc_udpoutdatagrams                          /home/leon/git/swp-report/iMX6_Platform_SDK/output/mx6dq/lib/liblwip.a(mib2.o)
                                                  /home/leon/git/swp-report/iMX6_Platform_SDK/output/mx6dq/lib/liblwip.a(udp.o)
snmp_init                                         /home/leon/git/swp-report/iMX6_Platform_SDK/output/mx6dq/lib/liblwip.a(msg_in.o)
                                                  /home/leon/git/swp-report/iMX6_Platform_SDK/output/mx6dq/lib/liblwip.a(init.o)
snmp_insert_arpidx_tree                           /home/leon/git/swp-report/iMX6_Platform_SDK/output/mx6dq/lib/liblwip.a(mib2.o)
                                                  /home/leon/git/swp-report/iMX6_Platform_SDK/output/mx6dq/lib/liblwip.a(etharp.o)
snmp_insert_ipaddridx_tree                        /home/leon/git/swp-report/iMX6_Platform_SDK/output/mx6dq/lib/liblwip.a(mib2.o)
                                                  /home/leon/git/swp-report/iMX6_Platform_SDK/output/mx6dq/lib/liblwip.a(netif.o)
snmp_insert_iprteidx_tree                         /home/leon/git/swp-report/iMX6_Platform_SDK/output/mx6dq/lib/liblwip.a(mib2.o)
                                                  /home/leon/git/swp-report/iMX6_Platform_SDK/output/mx6dq/lib/liblwip.a(netif.o)
snmp_insert_udpidx_tree                           /home/leon/git/swp-report/iMX6_Platform_SDK/output/mx6dq/lib/liblwip.a(mib2.o)
                                                  /home/leon/git/swp-report/iMX6_Platform_SDK/output/mx6dq/lib/liblwip.a(udp.o)
snmp_iptooid                                      /home/leon/git/swp-report/iMX6_Platform_SDK/output/mx6dq/lib/liblwip.a(mib_structs.o)
                                                  /home/leon/git/swp-report/iMX6_Platform_SDK/output/mx6dq/lib/liblwip.a(mib2.o)
snmp_iso_prefix_expand                            /home/leon/git/swp-report/iMX6_Platform_SDK/output/mx6dq/lib/liblwip.a(mib_structs.o)
                                                  /home/leon/git/swp-report/iMX6_Platform_SDK/output/mx6dq/lib/liblwip.a(msg_in.o)
snmp_iso_prefix_tst                               /home/leon/git/swp-report/iMX6_Platform_SDK/output/mx6dq/lib/liblwip.a(mib_structs.o)
                                                  /home/leon/git/swp-report/iMX6_Platform_SDK/output/mx6dq/lib/liblwip.a(msg_in.o)
snmp_mib_ln_alloc                                 /home/leon/git/swp-report/iMX6_Platform_SDK/output/mx6dq/lib/liblwip.a(mib_structs.o)
snmp_mib_ln_free                                  /home/leon/git/swp-report/iMX6_Platform_SDK/output/mx6dq/lib/liblwip.a(mib_structs.o)
snmp_mib_lrn_alloc                                /home/leon/git/swp-report/iMX6_Platform_SDK/output/mx6dq/lib/liblwip.a(mib_structs.o)
                                                  /home/leon/git/swp-report/iMX6_Platform_SDK/output/mx6dq/lib/liblwip.a(mib2.o)
snmp_mib_lrn_free                                 /home/leon/git/swp-report/iMX6_Platform_SDK/output/mx6dq/lib/liblwip.a(mib_structs.o)
                                                  /home/leon/git/swp-report/iMX6_Platform_SDK/output/mx6dq/lib/liblwip.a(mib2.o)
snmp_mib_node_delete                              /home/leon/git/swp-report/iMX6_Platform_SDK/output/mx6dq/lib/liblwip.a(mib_structs.o)
                                                  /home/leon/git/swp-report/iMX6_Platform_SDK/output/mx6dq/lib/liblwip.a(mib2.o)
snmp_mib_node_find                                /home/leon/git/swp-report/iMX6_Platform_SDK/output/mx6dq/lib/liblwip.a(mib_structs.o)
                                                  /home/leon/git/swp-report/iMX6_Platform_SDK/output/mx6dq/lib/liblwip.a(mib2.o)
snmp_mib_node_insert                              /home/leon/git/swp-report/iMX6_Platform_SDK/output/mx6dq/lib/liblwip.a(mib_structs.o)
                                                  /home/leon/git/swp-report/iMX6_Platform_SDK/output/mx6dq/lib/liblwip.a(mib2.o)
snmp_msg_event                                    /home/leon/git/swp-report/iMX6_Platform_SDK/output/mx6dq/lib/liblwip.a(msg_in.o)
snmp_netiftoifindex                               /home/leon/git/swp-report/iMX6_Platform_SDK/output/mx6dq/lib/liblwip.a(mib_structs.o)
                                                  /home/leon/git/swp-report/iMX6_Platform_SDK/output/mx6dq/lib/liblwip.a(mib2.o)
snmp_nodes                                        /home/leon/git/swp-report/iMX6_Platform_SDK/output/mx6dq/lib/liblwip.a(mib2.o)
snmp_oidtoip                                      /home/leon/git/swp-report/iMX6_Platform_SDK/output/mx6dq/lib/liblwip.a(mib_structs.o)
                                                  /home/leon/git/swp-report/iMX6_Platform_SDK/output/mx6dq/lib/liblwip.a(mib2.o)
snmp_publiccommunity                              /home/leon/git/swp-report/iMX6_Platform_SDK/output/mx6dq/lib/liblwip.a(msg_in.o)
                                                  /home/leon/git/swp-report/iMX6_Platform_SDK/output/mx6dq/lib/liblwip.a(msg_out.o)
snmp_scalar                                       /home/leon/git/swp-report/iMX6_Platform_SDK/output/mx6dq/lib/liblwip.a(mib2.o)
snmp_search_tree                                  /home/leon/git/swp-report/iMX6_Platform_SDK/output/mx6dq/lib/liblwip.a(mib_structs.o)
                                                  /home/leon/git/swp-report/iMX6_Platform_SDK/output/mx6dq/lib/liblwip.a(msg_in.o)
snmp_send_response                                /home/leon/git/swp-report/iMX6_Platform_SDK/output/mx6dq/lib/liblwip.a(msg_out.o)
                                                  /home/leon/git/swp-report/iMX6_Platform_SDK/output/mx6dq/lib/liblwip.a(msg_in.o)
snmp_send_trap                                    /home/leon/git/swp-report/iMX6_Platform_SDK/output/mx6dq/lib/liblwip.a(msg_out.o)
snmp_set_snmpenableauthentraps                    /home/leon/git/swp-report/iMX6_Platform_SDK/output/mx6dq/lib/liblwip.a(mib2.o)
snmp_set_syscontact                               /home/leon/git/swp-report/iMX6_Platform_SDK/output/mx6dq/lib/liblwip.a(mib2.o)
snmp_set_sysdesr                                  /home/leon/git/swp-report/iMX6_Platform_SDK/output/mx6dq/lib/liblwip.a(mib2.o)
snmp_set_syslocation                              /home/leon/git/swp-report/iMX6_Platform_SDK/output/mx6dq/lib/liblwip.a(mib2.o)
snmp_set_sysname                                  /home/leon/git/swp-report/iMX6_Platform_SDK/output/mx6dq/lib/liblwip.a(mib2.o)
snmp_set_sysobjid                                 /home/leon/git/swp-report/iMX6_Platform_SDK/output/mx6dq/lib/liblwip.a(mib2.o)
snmp_trap_dst_enable                              /home/leon/git/swp-report/iMX6_Platform_SDK/output/mx6dq/lib/liblwip.a(msg_out.o)
snmp_trap_dst_ip_set                              /home/leon/git/swp-report/iMX6_Platform_SDK/output/mx6dq/lib/liblwip.a(msg_out.o)
snmp_varbind_alloc                                /home/leon/git/swp-report/iMX6_Platform_SDK/output/mx6dq/lib/liblwip.a(msg_in.o)
snmp_varbind_free                                 /home/leon/git/swp-report/iMX6_Platform_SDK/output/mx6dq/lib/liblwip.a(msg_in.o)
snmp_varbind_list_free                            /home/leon/git/swp-report/iMX6_Platform_SDK/output/mx6dq/lib/liblwip.a(msg_in.o)
snmp_varbind_tail_add                             /home/leon/git/swp-report/iMX6_Platform_SDK/output/mx6dq/lib/liblwip.a(msg_in.o)
snmp_varbind_tail_remove                          /home/leon/git/swp-report/iMX6_Platform_SDK/output/mx6dq/lib/liblwip.a(msg_in.o)
snmp_version                                      /home/leon/git/swp-report/iMX6_Platform_SDK/output/mx6dq/lib/liblwip.a(msg_in.o)
                                                  /home/leon/git/swp-report/iMX6_Platform_SDK/output/mx6dq/lib/liblwip.a(msg_out.o)
snvs_iomux_config                                 /home/leon/git/swp-report/iMX6_Platform_SDK/output/mx6dq/lib/libboard_sabre_ai_rev_c.a(iomux_config.o)
spdif_iomux_config                                /home/leon/git/swp-report/iMX6_Platform_SDK/output/mx6dq/lib/libboard_sabre_ai_rev_c.a(spdif_iomux_config.o)
                                                  /home/leon/git/swp-report/iMX6_Platform_SDK/output/mx6dq/lib/libboard_sabre_ai_rev_c.a(iomux_config.o)
srand                                             /home/leon/riotboard/arm-2012.09/bin/../arm-none-eabi/lib//libc.a(lib_a-rand.o)
src_iomux_config                                  /home/leon/git/swp-report/iMX6_Platform_SDK/output/mx6dq/lib/libboard_sabre_ai_rev_c.a(iomux_config.o)
stats_display                                     /home/leon/git/swp-report/iMX6_Platform_SDK/output/mx6dq/lib/liblwip.a(stats.o)
stats_display_igmp                                /home/leon/git/swp-report/iMX6_Platform_SDK/output/mx6dq/lib/liblwip.a(stats.o)
stats_display_mem                                 /home/leon/git/swp-report/iMX6_Platform_SDK/output/mx6dq/lib/liblwip.a(stats.o)
stats_display_memp                                /home/leon/git/swp-report/iMX6_Platform_SDK/output/mx6dq/lib/liblwip.a(stats.o)
stats_display_proto                               /home/leon/git/swp-report/iMX6_Platform_SDK/output/mx6dq/lib/liblwip.a(stats.o)
stats_display_sys                                 /home/leon/git/swp-report/iMX6_Platform_SDK/output/mx6dq/lib/liblwip.a(stats.o)
stats_init                                        /home/leon/git/swp-report/iMX6_Platform_SDK/output/mx6dq/lib/liblwip.a(stats.o)
                                                  /home/leon/git/swp-report/iMX6_Platform_SDK/output/mx6dq/lib/liblwip.a(init.o)
strchr                                            /home/leon/riotboard/arm-2012.09/bin/../arm-none-eabi/lib//libc.a(lib_a-strchr.o)
                                                  /home/leon/git/swp-report/iMX6_Platform_SDK/output/mx6dq/httpd/sabre_ai_rev_c/obj/lwip/contrib/apps/httpserver_raw/httpd.o
strcmp                                            /home/leon/riotboard/arm-2012.09/bin/../arm-none-eabi/lib//libc.a(lib_a-strcmp.o)
                                                  /home/leon/riotboard/arm-2012.09/bin/../arm-none-eabi/lib//libc.a(lib_a-locale.o)
                                                  /home/leon/git/swp-report/iMX6_Platform_SDK/output/mx6dq/lib/liblwip.a(dns.o)
                                                  /home/leon/git/swp-report/iMX6_Platform_SDK/output/mx6dq/httpd/sabre_ai_rev_c/obj/lwip/contrib/apps/httpserver_raw/httpd.o
                                                  /home/leon/git/swp-report/iMX6_Platform_SDK/output/mx6dq/httpd/sabre_ai_rev_c/obj/lwip/contrib/apps/httpserver_raw/fs.o
strlen                                            /home/leon/riotboard/arm-2012.09/bin/../arm-none-eabi/lib//libc.a(lib_a-strlen.o)
                                                  /home/leon/git/swp-report/iMX6_Platform_SDK/output/mx6dq/lib/libsdk.a(runtime_support.o)
                                                  /home/leon/riotboard/arm-2012.09/bin/../arm-none-eabi/lib//libc.a(lib_a-vfprintf.o)
                                                  /home/leon/riotboard/arm-2012.09/bin/../arm-none-eabi/lib//libc.a(lib_a-vfiprintf.o)
                                                  /home/leon/git/swp-report/iMX6_Platform_SDK/output/mx6dq/lib/liblwip.a(pbuf.o)
                                                  /home/leon/git/swp-report/iMX6_Platform_SDK/output/mx6dq/lib/liblwip.a(dns.o)
                                                  /home/leon/git/swp-report/iMX6_Platform_SDK/output/mx6dq/lib/liblwip.a(dhcp.o)
                                                  /home/leon/git/swp-report/iMX6_Platform_SDK/output/mx6dq/httpd/sabre_ai_rev_c/obj/lwip/contrib/apps/httpserver_raw/httpd.o
strncmp                                           /home/leon/riotboard/arm-2012.09/bin/../arm-none-eabi/lib//libc.a(lib_a-strncmp.o)
                                                  /home/leon/git/swp-report/iMX6_Platform_SDK/output/mx6dq/lib/liblwip.a(msg_in.o)
                                                  /home/leon/git/swp-report/iMX6_Platform_SDK/output/mx6dq/httpd/sabre_ai_rev_c/obj/lwip/contrib/apps/httpserver_raw/httpd.o
sys_check_timeouts                                /home/leon/git/swp-report/iMX6_Platform_SDK/output/mx6dq/lib/liblwip.a(timers.o)
sys_now                                           /home/leon/git/swp-report/iMX6_Platform_SDK/output/mx6dq/lib/liblwip.a(sys_arch.o)
                                                  /home/leon/git/swp-report/iMX6_Platform_SDK/output/mx6dq/lib/liblwip.a(mx6_lwip.o)
                                                  /home/leon/git/swp-report/iMX6_Platform_SDK/output/mx6dq/lib/liblwip.a(timers.o)
                                                  /home/leon/git/swp-report/iMX6_Platform_SDK/output/mx6dq/lib/liblwip.a(mib2.o)
sys_restart_timeouts                              /home/leon/git/swp-report/iMX6_Platform_SDK/output/mx6dq/lib/liblwip.a(timers.o)
sys_tem                                           /home/leon/git/swp-report/iMX6_Platform_SDK/output/mx6dq/lib/liblwip.a(mib2.o)
sys_tem_ids                                       /home/leon/git/swp-report/iMX6_Platform_SDK/output/mx6dq/lib/liblwip.a(mib2.o)
sys_tem_nodes                                     /home/leon/git/swp-report/iMX6_Platform_SDK/output/mx6dq/lib/liblwip.a(mib2.o)
sys_tem_scalar                                    /home/leon/git/swp-report/iMX6_Platform_SDK/output/mx6dq/lib/liblwip.a(mib2.o)
sys_timeout                                       /home/leon/git/swp-report/iMX6_Platform_SDK/output/mx6dq/lib/liblwip.a(timers.o)
sys_timeouts_init                                 /home/leon/git/swp-report/iMX6_Platform_SDK/output/mx6dq/lib/liblwip.a(timers.o)
                                                  /home/leon/git/swp-report/iMX6_Platform_SDK/output/mx6dq/lib/liblwip.a(init.o)
sys_untimeout                                     /home/leon/git/swp-report/iMX6_Platform_SDK/output/mx6dq/lib/liblwip.a(timers.o)
system_time_init                                  /home/leon/git/swp-report/iMX6_Platform_SDK/output/mx6dq/lib/libsdk.a(timer.o)
                                                  /home/leon/git/swp-report/iMX6_Platform_SDK/output/mx6dq/httpd/sabre_ai_rev_c/obj/apps/common/platform_init.o
tcp                                               /home/leon/git/swp-report/iMX6_Platform_SDK/output/mx6dq/lib/liblwip.a(mib2.o)
tcp_abandon                                       /home/leon/git/swp-report/iMX6_Platform_SDK/output/mx6dq/lib/liblwip.a(tcp.o)
                                                  /home/leon/git/swp-report/iMX6_Platform_SDK/output/mx6dq/lib/liblwip.a(tcp_in.o)
tcp_abort                                         /home/leon/git/swp-report/iMX6_Platform_SDK/output/mx6dq/lib/liblwip.a(tcp.o)
                                                  /home/leon/git/swp-report/iMX6_Platform_SDK/output/mx6dq/lib/liblwip.a(tcp_in.o)
                                                  /home/leon/git/swp-report/iMX6_Platform_SDK/output/mx6dq/lib/liblwip.a(netif.o)
                                                  /home/leon/git/swp-report/iMX6_Platform_SDK/output/mx6dq/httpd/sabre_ai_rev_c/obj/lwip/contrib/apps/httpserver_raw/httpd.o
tcp_accept                                        /home/leon/git/swp-report/iMX6_Platform_SDK/output/mx6dq/lib/liblwip.a(tcp.o)
                                                  /home/leon/git/swp-report/iMX6_Platform_SDK/output/mx6dq/httpd/sabre_ai_rev_c/obj/lwip/contrib/apps/httpserver_raw/httpd.o
tcp_active_pcbs                                   /home/leon/git/swp-report/iMX6_Platform_SDK/output/mx6dq/lib/liblwip.a(tcp.o)
                                                  /home/leon/git/swp-report/iMX6_Platform_SDK/output/mx6dq/lib/liblwip.a(timers.o)
                                                  /home/leon/git/swp-report/iMX6_Platform_SDK/output/mx6dq/lib/liblwip.a(tcp_in.o)
                                                  /home/leon/git/swp-report/iMX6_Platform_SDK/output/mx6dq/lib/liblwip.a(mib2.o)
                                                  /home/leon/git/swp-report/iMX6_Platform_SDK/output/mx6dq/lib/liblwip.a(pbuf.o)
                                                  /home/leon/git/swp-report/iMX6_Platform_SDK/output/mx6dq/lib/liblwip.a(netif.o)
tcp_active_pcbs_changed                           /home/leon/git/swp-report/iMX6_Platform_SDK/output/mx6dq/lib/liblwip.a(tcp.o)
                                                  /home/leon/git/swp-report/iMX6_Platform_SDK/output/mx6dq/lib/liblwip.a(tcp_in.o)
tcp_alloc                                         /home/leon/git/swp-report/iMX6_Platform_SDK/output/mx6dq/lib/liblwip.a(tcp.o)
                                                  /home/leon/git/swp-report/iMX6_Platform_SDK/output/mx6dq/lib/liblwip.a(tcp_in.o)
tcp_arg                                           /home/leon/git/swp-report/iMX6_Platform_SDK/output/mx6dq/lib/liblwip.a(tcp.o)
                                                  /home/leon/git/swp-report/iMX6_Platform_SDK/output/mx6dq/httpd/sabre_ai_rev_c/obj/lwip/contrib/apps/httpserver_raw/httpd.o
tcp_backoff                                       /home/leon/git/swp-report/iMX6_Platform_SDK/output/mx6dq/lib/liblwip.a(tcp.o)
tcp_bind                                          /home/leon/git/swp-report/iMX6_Platform_SDK/output/mx6dq/lib/liblwip.a(tcp.o)
                                                  /home/leon/git/swp-report/iMX6_Platform_SDK/output/mx6dq/httpd/sabre_ai_rev_c/obj/lwip/contrib/apps/httpserver_raw/httpd.o
tcp_bound_pcbs                                    /home/leon/git/swp-report/iMX6_Platform_SDK/output/mx6dq/lib/liblwip.a(tcp.o)
tcp_close                                         /home/leon/git/swp-report/iMX6_Platform_SDK/output/mx6dq/lib/liblwip.a(tcp.o)
                                                  /home/leon/git/swp-report/iMX6_Platform_SDK/output/mx6dq/httpd/sabre_ai_rev_c/obj/lwip/contrib/apps/httpserver_raw/httpd.o
tcp_connect                                       /home/leon/git/swp-report/iMX6_Platform_SDK/output/mx6dq/lib/liblwip.a(tcp.o)
tcp_debug_state_str                               /home/leon/git/swp-report/iMX6_Platform_SDK/output/mx6dq/lib/liblwip.a(tcp.o)
tcp_eff_send_mss_impl                             /home/leon/git/swp-report/iMX6_Platform_SDK/output/mx6dq/lib/liblwip.a(tcp.o)
                                                  /home/leon/git/swp-report/iMX6_Platform_SDK/output/mx6dq/lib/liblwip.a(tcp_out.o)
                                                  /home/leon/git/swp-report/iMX6_Platform_SDK/output/mx6dq/lib/liblwip.a(tcp_in.o)
tcp_enqueue_flags                                 /home/leon/git/swp-report/iMX6_Platform_SDK/output/mx6dq/lib/liblwip.a(tcp_out.o)
                                                  /home/leon/git/swp-report/iMX6_Platform_SDK/output/mx6dq/lib/liblwip.a(tcp_in.o)
                                                  /home/leon/git/swp-report/iMX6_Platform_SDK/output/mx6dq/lib/liblwip.a(tcp.o)
tcp_err                                           /home/leon/git/swp-report/iMX6_Platform_SDK/output/mx6dq/lib/liblwip.a(tcp.o)
                                                  /home/leon/git/swp-report/iMX6_Platform_SDK/output/mx6dq/httpd/sabre_ai_rev_c/obj/lwip/contrib/apps/httpserver_raw/httpd.o
tcp_fasttmr                                       /home/leon/git/swp-report/iMX6_Platform_SDK/output/mx6dq/lib/liblwip.a(tcp.o)
tcp_ids                                           /home/leon/git/swp-report/iMX6_Platform_SDK/output/mx6dq/lib/liblwip.a(mib2.o)
tcp_init                                          /home/leon/git/swp-report/iMX6_Platform_SDK/output/mx6dq/lib/liblwip.a(tcp.o)
                                                  /home/leon/git/swp-report/iMX6_Platform_SDK/output/mx6dq/lib/liblwip.a(init.o)
tcp_input                                         /home/leon/git/swp-report/iMX6_Platform_SDK/output/mx6dq/lib/liblwip.a(tcp_in.o)
                                                  /home/leon/git/swp-report/iMX6_Platform_SDK/output/mx6dq/lib/liblwip.a(ip4.o)
tcp_input_pcb                                     /home/leon/git/swp-report/iMX6_Platform_SDK/output/mx6dq/lib/liblwip.a(tcp_in.o)
                                                  /home/leon/git/swp-report/iMX6_Platform_SDK/output/mx6dq/lib/liblwip.a(tcp_out.o)
tcp_keepalive                                     /home/leon/git/swp-report/iMX6_Platform_SDK/output/mx6dq/lib/liblwip.a(tcp_out.o)
                                                  /home/leon/git/swp-report/iMX6_Platform_SDK/output/mx6dq/lib/liblwip.a(tcp.o)
tcp_listen_pcbs                                   /home/leon/git/swp-report/iMX6_Platform_SDK/output/mx6dq/lib/liblwip.a(tcp.o)
                                                  /home/leon/git/swp-report/iMX6_Platform_SDK/output/mx6dq/lib/liblwip.a(tcp_in.o)
                                                  /home/leon/git/swp-report/iMX6_Platform_SDK/output/mx6dq/lib/liblwip.a(netif.o)
tcp_listen_with_backlog                           /home/leon/git/swp-report/iMX6_Platform_SDK/output/mx6dq/lib/liblwip.a(tcp.o)
                                                  /home/leon/git/swp-report/iMX6_Platform_SDK/output/mx6dq/httpd/sabre_ai_rev_c/obj/lwip/contrib/apps/httpserver_raw/httpd.o
tcp_new                                           /home/leon/git/swp-report/iMX6_Platform_SDK/output/mx6dq/lib/liblwip.a(tcp.o)
                                                  /home/leon/git/swp-report/iMX6_Platform_SDK/output/mx6dq/httpd/sabre_ai_rev_c/obj/lwip/contrib/apps/httpserver_raw/httpd.o
tcp_next_iss                                      /home/leon/git/swp-report/iMX6_Platform_SDK/output/mx6dq/lib/liblwip.a(tcp.o)
tcp_nodes                                         /home/leon/git/swp-report/iMX6_Platform_SDK/output/mx6dq/lib/liblwip.a(mib2.o)
tcp_output                                        /home/leon/git/swp-report/iMX6_Platform_SDK/output/mx6dq/lib/liblwip.a(tcp_out.o)
                                                  /home/leon/git/swp-report/iMX6_Platform_SDK/output/mx6dq/lib/liblwip.a(tcp_in.o)
                                                  /home/leon/git/swp-report/iMX6_Platform_SDK/output/mx6dq/lib/liblwip.a(tcp.o)
                                                  /home/leon/git/swp-report/iMX6_Platform_SDK/output/mx6dq/httpd/sabre_ai_rev_c/obj/lwip/contrib/apps/httpserver_raw/httpd.o
tcp_pcb_lists                                     /home/leon/git/swp-report/iMX6_Platform_SDK/output/mx6dq/lib/liblwip.a(tcp.o)
tcp_pcb_purge                                     /home/leon/git/swp-report/iMX6_Platform_SDK/output/mx6dq/lib/liblwip.a(tcp.o)
                                                  /home/leon/git/swp-report/iMX6_Platform_SDK/output/mx6dq/lib/liblwip.a(tcp_in.o)
tcp_pcb_remove                                    /home/leon/git/swp-report/iMX6_Platform_SDK/output/mx6dq/lib/liblwip.a(tcp.o)
                                                  /home/leon/git/swp-report/iMX6_Platform_SDK/output/mx6dq/lib/liblwip.a(tcp_in.o)
tcp_persist_backoff                               /home/leon/git/swp-report/iMX6_Platform_SDK/output/mx6dq/lib/liblwip.a(tcp.o)
tcp_poll                                          /home/leon/git/swp-report/iMX6_Platform_SDK/output/mx6dq/lib/liblwip.a(tcp.o)
                                                  /home/leon/git/swp-report/iMX6_Platform_SDK/output/mx6dq/httpd/sabre_ai_rev_c/obj/lwip/contrib/apps/httpserver_raw/httpd.o
tcp_process_refused_data                          /home/leon/git/swp-report/iMX6_Platform_SDK/output/mx6dq/lib/liblwip.a(tcp.o)
                                                  /home/leon/git/swp-report/iMX6_Platform_SDK/output/mx6dq/lib/liblwip.a(tcp_in.o)
tcp_recv                                          /home/leon/git/swp-report/iMX6_Platform_SDK/output/mx6dq/lib/liblwip.a(tcp.o)
                                                  /home/leon/git/swp-report/iMX6_Platform_SDK/output/mx6dq/httpd/sabre_ai_rev_c/obj/lwip/contrib/apps/httpserver_raw/httpd.o
tcp_recv_null                                     /home/leon/git/swp-report/iMX6_Platform_SDK/output/mx6dq/lib/liblwip.a(tcp.o)
                                                  /home/leon/git/swp-report/iMX6_Platform_SDK/output/mx6dq/lib/liblwip.a(tcp_in.o)
tcp_recved                                        /home/leon/git/swp-report/iMX6_Platform_SDK/output/mx6dq/lib/liblwip.a(tcp.o)
                                                  /home/leon/git/swp-report/iMX6_Platform_SDK/output/mx6dq/httpd/sabre_ai_rev_c/obj/lwip/contrib/apps/httpserver_raw/httpd.o
tcp_rexmit                                        /home/leon/git/swp-report/iMX6_Platform_SDK/output/mx6dq/lib/liblwip.a(tcp_out.o)
                                                  /home/leon/git/swp-report/iMX6_Platform_SDK/output/mx6dq/lib/liblwip.a(tcp_in.o)
tcp_rexmit_fast                                   /home/leon/git/swp-report/iMX6_Platform_SDK/output/mx6dq/lib/liblwip.a(tcp_out.o)
                                                  /home/leon/git/swp-report/iMX6_Platform_SDK/output/mx6dq/lib/liblwip.a(tcp_in.o)
tcp_rexmit_rto                                    /home/leon/git/swp-report/iMX6_Platform_SDK/output/mx6dq/lib/liblwip.a(tcp_out.o)
                                                  /home/leon/git/swp-report/iMX6_Platform_SDK/output/mx6dq/lib/liblwip.a(tcp.o)
tcp_rst_impl                                      /home/leon/git/swp-report/iMX6_Platform_SDK/output/mx6dq/lib/liblwip.a(tcp_out.o)
                                                  /home/leon/git/swp-report/iMX6_Platform_SDK/output/mx6dq/lib/liblwip.a(tcp_in.o)
                                                  /home/leon/git/swp-report/iMX6_Platform_SDK/output/mx6dq/lib/liblwip.a(tcp.o)
tcp_scalar                                        /home/leon/git/swp-report/iMX6_Platform_SDK/output/mx6dq/lib/liblwip.a(mib2.o)
tcp_seg_copy                                      /home/leon/git/swp-report/iMX6_Platform_SDK/output/mx6dq/lib/liblwip.a(tcp.o)
                                                  /home/leon/git/swp-report/iMX6_Platform_SDK/output/mx6dq/lib/liblwip.a(tcp_in.o)
tcp_seg_free                                      /home/leon/git/swp-report/iMX6_Platform_SDK/output/mx6dq/lib/liblwip.a(tcp.o)
                                                  /home/leon/git/swp-report/iMX6_Platform_SDK/output/mx6dq/lib/liblwip.a(tcp_out.o)
                                                  /home/leon/git/swp-report/iMX6_Platform_SDK/output/mx6dq/lib/liblwip.a(tcp_in.o)
tcp_segs_free                                     /home/leon/git/swp-report/iMX6_Platform_SDK/output/mx6dq/lib/liblwip.a(tcp.o)
                                                  /home/leon/git/swp-report/iMX6_Platform_SDK/output/mx6dq/lib/liblwip.a(tcp_out.o)
                                                  /home/leon/git/swp-report/iMX6_Platform_SDK/output/mx6dq/lib/liblwip.a(tcp_in.o)
                                                  /home/leon/git/swp-report/iMX6_Platform_SDK/output/mx6dq/lib/liblwip.a(pbuf.o)
tcp_send_empty_ack                                /home/leon/git/swp-report/iMX6_Platform_SDK/output/mx6dq/lib/liblwip.a(tcp_out.o)
                                                  /home/leon/git/swp-report/iMX6_Platform_SDK/output/mx6dq/lib/liblwip.a(tcp_in.o)
tcp_send_fin                                      /home/leon/git/swp-report/iMX6_Platform_SDK/output/mx6dq/lib/liblwip.a(tcp_out.o)
                                                  /home/leon/git/swp-report/iMX6_Platform_SDK/output/mx6dq/lib/liblwip.a(tcp.o)
tcp_sent                                          /home/leon/git/swp-report/iMX6_Platform_SDK/output/mx6dq/lib/liblwip.a(tcp.o)
                                                  /home/leon/git/swp-report/iMX6_Platform_SDK/output/mx6dq/httpd/sabre_ai_rev_c/obj/lwip/contrib/apps/httpserver_raw/httpd.o
tcp_setprio                                       /home/leon/git/swp-report/iMX6_Platform_SDK/output/mx6dq/lib/liblwip.a(tcp.o)
                                                  /home/leon/git/swp-report/iMX6_Platform_SDK/output/mx6dq/httpd/sabre_ai_rev_c/obj/lwip/contrib/apps/httpserver_raw/httpd.o
tcp_shutdown                                      /home/leon/git/swp-report/iMX6_Platform_SDK/output/mx6dq/lib/liblwip.a(tcp.o)
tcp_slowtmr                                       /home/leon/git/swp-report/iMX6_Platform_SDK/output/mx6dq/lib/liblwip.a(tcp.o)
tcp_state_str                                     /home/leon/git/swp-report/iMX6_Platform_SDK/output/mx6dq/lib/liblwip.a(tcp.o)
tcp_ticks                                         /home/leon/git/swp-report/iMX6_Platform_SDK/output/mx6dq/lib/liblwip.a(tcp.o)
                                                  /home/leon/git/swp-report/iMX6_Platform_SDK/output/mx6dq/lib/liblwip.a(tcp_out.o)
                                                  /home/leon/git/swp-report/iMX6_Platform_SDK/output/mx6dq/lib/liblwip.a(tcp_in.o)
tcp_timer_needed                                  /home/leon/git/swp-report/iMX6_Platform_SDK/output/mx6dq/lib/liblwip.a(timers.o)
                                                  /home/leon/git/swp-report/iMX6_Platform_SDK/output/mx6dq/lib/liblwip.a(tcp_in.o)
                                                  /home/leon/git/swp-report/iMX6_Platform_SDK/output/mx6dq/lib/liblwip.a(tcp.o)
tcp_tmp_pcb                                       /home/leon/git/swp-report/iMX6_Platform_SDK/output/mx6dq/lib/liblwip.a(tcp.o)
                                                  /home/leon/git/swp-report/iMX6_Platform_SDK/output/mx6dq/lib/liblwip.a(tcp_in.o)
tcp_tmr                                           /home/leon/git/swp-report/iMX6_Platform_SDK/output/mx6dq/lib/liblwip.a(tcp.o)
                                                  /home/leon/git/swp-report/iMX6_Platform_SDK/output/mx6dq/lib/liblwip.a(mx6_lwip.o)
                                                  /home/leon/git/swp-report/iMX6_Platform_SDK/output/mx6dq/lib/liblwip.a(timers.o)
tcp_tw_pcbs                                       /home/leon/git/swp-report/iMX6_Platform_SDK/output/mx6dq/lib/liblwip.a(tcp.o)
                                                  /home/leon/git/swp-report/iMX6_Platform_SDK/output/mx6dq/lib/liblwip.a(timers.o)
                                                  /home/leon/git/swp-report/iMX6_Platform_SDK/output/mx6dq/lib/liblwip.a(tcp_in.o)
tcp_update_rcv_ann_wnd                            /home/leon/git/swp-report/iMX6_Platform_SDK/output/mx6dq/lib/liblwip.a(tcp.o)
                                                  /home/leon/git/swp-report/iMX6_Platform_SDK/output/mx6dq/lib/liblwip.a(tcp_in.o)
tcp_write                                         /home/leon/git/swp-report/iMX6_Platform_SDK/output/mx6dq/lib/liblwip.a(tcp_out.o)
                                                  /home/leon/git/swp-report/iMX6_Platform_SDK/output/mx6dq/httpd/sabre_ai_rev_c/obj/lwip/contrib/apps/httpserver_raw/httpd.o
tcp_zero_window_probe                             /home/leon/git/swp-report/iMX6_Platform_SDK/output/mx6dq/lib/liblwip.a(tcp_out.o)
                                                  /home/leon/git/swp-report/iMX6_Platform_SDK/output/mx6dq/lib/liblwip.a(tcp.o)
tcpconnentry                                      /home/leon/git/swp-report/iMX6_Platform_SDK/output/mx6dq/lib/liblwip.a(mib2.o)
tcpconnentry_ids                                  /home/leon/git/swp-report/iMX6_Platform_SDK/output/mx6dq/lib/liblwip.a(mib2.o)
tcpconnentry_nodes                                /home/leon/git/swp-report/iMX6_Platform_SDK/output/mx6dq/lib/liblwip.a(mib2.o)
tcpconntable                                      /home/leon/git/swp-report/iMX6_Platform_SDK/output/mx6dq/lib/liblwip.a(mib2.o)
tcpconntable_id                                   /home/leon/git/swp-report/iMX6_Platform_SDK/output/mx6dq/lib/liblwip.a(mib2.o)
tcpconntable_node                                 /home/leon/git/swp-report/iMX6_Platform_SDK/output/mx6dq/lib/liblwip.a(mib2.o)
tcpconntree_root                                  /home/leon/git/swp-report/iMX6_Platform_SDK/output/mx6dq/lib/liblwip.a(mib2.o)
time_get_microseconds                             /home/leon/git/swp-report/iMX6_Platform_SDK/output/mx6dq/lib/libsdk.a(timer.o)
                                                  /home/leon/git/swp-report/iMX6_Platform_SDK/output/mx6dq/lib/libsdk.a(runtime_support.o)
                                                  /home/leon/git/swp-report/iMX6_Platform_SDK/output/mx6dq/lib/liblwip.a(sys_arch.o)
top_of_stacks                                     /home/leon/git/swp-report/iMX6_Platform_SDK/output/mx6dq/lib/libsdk.a(startup.o)
trap_dst                                          /home/leon/git/swp-report/iMX6_Platform_SDK/output/mx6dq/lib/liblwip.a(msg_out.o)
trap_msg                                          /home/leon/git/swp-report/iMX6_Platform_SDK/output/mx6dq/lib/liblwip.a(msg_out.o)
                                                  /home/leon/git/swp-report/iMX6_Platform_SDK/output/mx6dq/lib/liblwip.a(msg_in.o)
uart1_iomux_config                                /home/leon/git/swp-report/iMX6_Platform_SDK/output/mx6dq/lib/libboard_sabre_ai_rev_c.a(iomux_config.o)
                                                  /home/leon/git/swp-report/iMX6_Platform_SDK/output/mx6dq/lib/libboard_sabre_ai_rev_c.a(uart_iomux_config.o)
uart2_iomux_config                                /home/leon/git/swp-report/iMX6_Platform_SDK/output/mx6dq/lib/libboard_sabre_ai_rev_c.a(uart2_iomux_config.o)
                                                  /home/leon/git/swp-report/iMX6_Platform_SDK/output/mx6dq/lib/libboard_sabre_ai_rev_c.a(iomux_config.o)
                                                  /home/leon/git/swp-report/iMX6_Platform_SDK/output/mx6dq/lib/libboard_sabre_ai_rev_c.a(uart_iomux_config.o)
uart3_iomux_config                                /home/leon/git/swp-report/iMX6_Platform_SDK/output/mx6dq/lib/libboard_sabre_ai_rev_c.a(uart3_iomux_config.o)
                                                  /home/leon/git/swp-report/iMX6_Platform_SDK/output/mx6dq/lib/libboard_sabre_ai_rev_c.a(iomux_config.o)
                                                  /home/leon/git/swp-report/iMX6_Platform_SDK/output/mx6dq/lib/libboard_sabre_ai_rev_c.a(uart_iomux_config.o)
uart4_iomux_config                                /home/leon/git/swp-report/iMX6_Platform_SDK/output/mx6dq/lib/libboard_sabre_ai_rev_c.a(uart4_iomux_config.o)
                                                  /home/leon/git/swp-report/iMX6_Platform_SDK/output/mx6dq/lib/libboard_sabre_ai_rev_c.a(iomux_config.o)
                                                  /home/leon/git/swp-report/iMX6_Platform_SDK/output/mx6dq/lib/libboard_sabre_ai_rev_c.a(uart_iomux_config.o)
uart5_iomux_config                                /home/leon/git/swp-report/iMX6_Platform_SDK/output/mx6dq/lib/libboard_sabre_ai_rev_c.a(iomux_config.o)
                                                  /home/leon/git/swp-report/iMX6_Platform_SDK/output/mx6dq/lib/libboard_sabre_ai_rev_c.a(uart_iomux_config.o)
uart_get_reffreq                                  /home/leon/git/swp-report/iMX6_Platform_SDK/output/mx6dq/lib/libsdk.a(imx_uart.o)
uart_getchar                                      /home/leon/git/swp-report/iMX6_Platform_SDK/output/mx6dq/lib/libsdk.a(imx_uart.o)
                                                  /home/leon/git/swp-report/iMX6_Platform_SDK/output/mx6dq/lib/libsdk.a(runtime_support.o)
                                                  /home/leon/git/swp-report/iMX6_Platform_SDK/output/mx6dq/lib/libsdk.a(system_util.o)
                                                  /home/leon/git/swp-report/iMX6_Platform_SDK/output/mx6dq/httpd/sabre_ai_rev_c/obj/apps/common/platform_init.o
uart_init                                         /home/leon/git/swp-report/iMX6_Platform_SDK/output/mx6dq/lib/libsdk.a(imx_uart.o)
                                                  /home/leon/git/swp-report/iMX6_Platform_SDK/output/mx6dq/httpd/sabre_ai_rev_c/obj/apps/common/platform_init.o
uart_iomux_config                                 /home/leon/git/swp-report/iMX6_Platform_SDK/output/mx6dq/lib/libboard_sabre_ai_rev_c.a(uart_iomux_config.o)
                                                  /home/leon/git/swp-report/iMX6_Platform_SDK/output/mx6dq/lib/libsdk.a(imx_uart.o)
uart_putchar                                      /home/leon/git/swp-report/iMX6_Platform_SDK/output/mx6dq/lib/libsdk.a(imx_uart.o)
                                                  /home/leon/git/swp-report/iMX6_Platform_SDK/output/mx6dq/lib/libsdk.a(runtime_support.o)
uart_set_FIFO_mode                                /home/leon/git/swp-report/iMX6_Platform_SDK/output/mx6dq/lib/libsdk.a(imx_uart.o)
uart_set_loopback_mode                            /home/leon/git/swp-report/iMX6_Platform_SDK/output/mx6dq/lib/libsdk.a(imx_uart.o)
uart_setup_interrupt                              /home/leon/git/swp-report/iMX6_Platform_SDK/output/mx6dq/lib/libsdk.a(imx_uart.o)
udp                                               /home/leon/git/swp-report/iMX6_Platform_SDK/output/mx6dq/lib/liblwip.a(mib2.o)
udp_bind                                          /home/leon/git/swp-report/iMX6_Platform_SDK/output/mx6dq/lib/liblwip.a(udp.o)
                                                  /home/leon/git/swp-report/iMX6_Platform_SDK/output/mx6dq/lib/liblwip.a(msg_in.o)
                                                  /home/leon/git/swp-report/iMX6_Platform_SDK/output/mx6dq/lib/liblwip.a(dns.o)
                                                  /home/leon/git/swp-report/iMX6_Platform_SDK/output/mx6dq/lib/liblwip.a(dhcp.o)
udp_connect                                       /home/leon/git/swp-report/iMX6_Platform_SDK/output/mx6dq/lib/liblwip.a(udp.o)
                                                  /home/leon/git/swp-report/iMX6_Platform_SDK/output/mx6dq/lib/liblwip.a(msg_out.o)
                                                  /home/leon/git/swp-report/iMX6_Platform_SDK/output/mx6dq/lib/liblwip.a(dns.o)
                                                  /home/leon/git/swp-report/iMX6_Platform_SDK/output/mx6dq/lib/liblwip.a(dhcp.o)
udp_disconnect                                    /home/leon/git/swp-report/iMX6_Platform_SDK/output/mx6dq/lib/liblwip.a(udp.o)
                                                  /home/leon/git/swp-report/iMX6_Platform_SDK/output/mx6dq/lib/liblwip.a(msg_out.o)
udp_ids                                           /home/leon/git/swp-report/iMX6_Platform_SDK/output/mx6dq/lib/liblwip.a(mib2.o)
udp_init                                          /home/leon/git/swp-report/iMX6_Platform_SDK/output/mx6dq/lib/liblwip.a(udp.o)
                                                  /home/leon/git/swp-report/iMX6_Platform_SDK/output/mx6dq/lib/liblwip.a(init.o)
udp_input                                         /home/leon/git/swp-report/iMX6_Platform_SDK/output/mx6dq/lib/liblwip.a(udp.o)
                                                  /home/leon/git/swp-report/iMX6_Platform_SDK/output/mx6dq/lib/liblwip.a(ip4.o)
udp_new                                           /home/leon/git/swp-report/iMX6_Platform_SDK/output/mx6dq/lib/liblwip.a(udp.o)
                                                  /home/leon/git/swp-report/iMX6_Platform_SDK/output/mx6dq/lib/liblwip.a(msg_in.o)
                                                  /home/leon/git/swp-report/iMX6_Platform_SDK/output/mx6dq/lib/liblwip.a(dns.o)
                                                  /home/leon/git/swp-report/iMX6_Platform_SDK/output/mx6dq/lib/liblwip.a(dhcp.o)
udp_nodes                                         /home/leon/git/swp-report/iMX6_Platform_SDK/output/mx6dq/lib/liblwip.a(mib2.o)
udp_pcbs                                          /home/leon/git/swp-report/iMX6_Platform_SDK/output/mx6dq/lib/liblwip.a(udp.o)
                                                  /home/leon/git/swp-report/iMX6_Platform_SDK/output/mx6dq/lib/liblwip.a(mib2.o)
udp_recv                                          /home/leon/git/swp-report/iMX6_Platform_SDK/output/mx6dq/lib/liblwip.a(udp.o)
                                                  /home/leon/git/swp-report/iMX6_Platform_SDK/output/mx6dq/lib/liblwip.a(msg_in.o)
                                                  /home/leon/git/swp-report/iMX6_Platform_SDK/output/mx6dq/lib/liblwip.a(dns.o)
                                                  /home/leon/git/swp-report/iMX6_Platform_SDK/output/mx6dq/lib/liblwip.a(dhcp.o)
udp_remove                                        /home/leon/git/swp-report/iMX6_Platform_SDK/output/mx6dq/lib/liblwip.a(udp.o)
                                                  /home/leon/git/swp-report/iMX6_Platform_SDK/output/mx6dq/lib/liblwip.a(dhcp.o)
udp_root                                          /home/leon/git/swp-report/iMX6_Platform_SDK/output/mx6dq/lib/liblwip.a(mib2.o)
udp_scalar                                        /home/leon/git/swp-report/iMX6_Platform_SDK/output/mx6dq/lib/liblwip.a(mib2.o)
udp_send                                          /home/leon/git/swp-report/iMX6_Platform_SDK/output/mx6dq/lib/liblwip.a(udp.o)
                                                  /home/leon/git/swp-report/iMX6_Platform_SDK/output/mx6dq/lib/liblwip.a(msg_out.o)
udp_sendto                                        /home/leon/git/swp-report/iMX6_Platform_SDK/output/mx6dq/lib/liblwip.a(udp.o)
                                                  /home/leon/git/swp-report/iMX6_Platform_SDK/output/mx6dq/lib/liblwip.a(msg_out.o)
                                                  /home/leon/git/swp-report/iMX6_Platform_SDK/output/mx6dq/lib/liblwip.a(dns.o)
udp_sendto_if                                     /home/leon/git/swp-report/iMX6_Platform_SDK/output/mx6dq/lib/liblwip.a(udp.o)
                                                  /home/leon/git/swp-report/iMX6_Platform_SDK/output/mx6dq/lib/liblwip.a(dhcp.o)
udpentry                                          /home/leon/git/swp-report/iMX6_Platform_SDK/output/mx6dq/lib/liblwip.a(mib2.o)
udpentry_ids                                      /home/leon/git/swp-report/iMX6_Platform_SDK/output/mx6dq/lib/liblwip.a(mib2.o)
udpentry_nodes                                    /home/leon/git/swp-report/iMX6_Platform_SDK/output/mx6dq/lib/liblwip.a(mib2.o)
udptable                                          /home/leon/git/swp-report/iMX6_Platform_SDK/output/mx6dq/lib/liblwip.a(mib2.o)
udptable_id                                       /home/leon/git/swp-report/iMX6_Platform_SDK/output/mx6dq/lib/liblwip.a(mib2.o)
udptable_node                                     /home/leon/git/swp-report/iMX6_Platform_SDK/output/mx6dq/lib/liblwip.a(mib2.o)
usb_iomux_config                                  /home/leon/git/swp-report/iMX6_Platform_SDK/output/mx6dq/lib/libboard_sabre_ai_rev_c.a(iomux_config.o)
usdhc1_iomux_config                               /home/leon/git/swp-report/iMX6_Platform_SDK/output/mx6dq/lib/libboard_sabre_ai_rev_c.a(usdhc1_iomux_config.o)
                                                  /home/leon/git/swp-report/iMX6_Platform_SDK/output/mx6dq/lib/libboard_sabre_ai_rev_c.a(iomux_config.o)
usdhc2_iomux_config                               /home/leon/git/swp-report/iMX6_Platform_SDK/output/mx6dq/lib/libboard_sabre_ai_rev_c.a(iomux_config.o)
usdhc3_iomux_config                               /home/leon/git/swp-report/iMX6_Platform_SDK/output/mx6dq/lib/libboard_sabre_ai_rev_c.a(usdhc3_iomux_config.o)
                                                  /home/leon/git/swp-report/iMX6_Platform_SDK/output/mx6dq/lib/libboard_sabre_ai_rev_c.a(iomux_config.o)
usdhc4_iomux_config                               /home/leon/git/swp-report/iMX6_Platform_SDK/output/mx6dq/lib/libboard_sabre_ai_rev_c.a(iomux_config.o)
vectors                                           /home/leon/git/swp-report/iMX6_Platform_SDK/output/mx6dq/lib/libsdk.a(vectors.o)
                                                  /home/leon/git/swp-report/iMX6_Platform_SDK/output/mx6dq/lib/libsdk.a(startup.o)
vfiprintf                                         /home/leon/riotboard/arm-2012.09/bin/../arm-none-eabi/lib//libc.a(lib_a-vfiprintf.o)
vfprintf                                          /home/leon/riotboard/arm-2012.09/bin/../arm-none-eabi/lib//libc.a(lib_a-vfprintf.o)
vprintf                                           /home/leon/riotboard/arm-2012.09/bin/../arm-none-eabi/lib//libc.a(lib_a-vprintf.o)
                                                  /home/leon/git/swp-report/iMX6_Platform_SDK/output/mx6dq/lib/libsdk.a(imx_i2c.o)
                                                  /home/leon/git/swp-report/iMX6_Platform_SDK/output/mx6dq/lib/libsdk.a(gpio.o)
                                                  /home/leon/git/swp-report/iMX6_Platform_SDK/output/mx6dq/lib/libsdk.a(text_color.o)
wcrtomb                                           /home/leon/riotboard/arm-2012.09/bin/../arm-none-eabi/lib//libc.a(lib_a-wcrtomb.o)
wdog1_iomux_config                                /home/leon/git/swp-report/iMX6_Platform_SDK/output/mx6dq/lib/libboard_sabre_ai_rev_c.a(wdog1_iomux_config.o)
                                                  /home/leon/git/swp-report/iMX6_Platform_SDK/output/mx6dq/lib/libboard_sabre_ai_rev_c.a(iomux_config.o)
wdog2_iomux_config                                /home/leon/git/swp-report/iMX6_Platform_SDK/output/mx6dq/lib/libboard_sabre_ai_rev_c.a(iomux_config.o)
xtalosc_iomux_config                              /home/leon/git/swp-report/iMX6_Platform_SDK/output/mx6dq/lib/libboard_sabre_ai_rev_c.a(iomux_config.o)
