Archive member included because of file (symbol)

/home/leon/git/swp-report/iMX6_Platform_SDK/output/mx6sdl/lib/libsdk.a(ccm_pll.o)
                              /home/leon/git/swp-report/iMX6_Platform_SDK/output/mx6sdl/caam_blob_gen/smart_device_rev_b/obj/apps/common/platform_init.o (ccm_init)
/home/leon/git/swp-report/iMX6_Platform_SDK/output/mx6sdl/lib/libsdk.a(cortexA9.o)
                              /home/leon/git/swp-report/iMX6_Platform_SDK/output/mx6sdl/caam_blob_gen/smart_device_rev_b/obj/apps/common/platform_init.o (arm_set_interrupt_state)
/home/leon/git/swp-report/iMX6_Platform_SDK/output/mx6sdl/lib/libsdk.a(gic.o)
                              /home/leon/git/swp-report/iMX6_Platform_SDK/output/mx6sdl/caam_blob_gen/smart_device_rev_b/obj/apps/common/platform_init.o (gic_init)
/home/leon/git/swp-report/iMX6_Platform_SDK/output/mx6sdl/lib/libsdk.a(mmu.o)
                              /home/leon/git/swp-report/iMX6_Platform_SDK/output/mx6sdl/caam_blob_gen/smart_device_rev_b/obj/apps/common/platform_init.o (mmu_init)
/home/leon/git/swp-report/iMX6_Platform_SDK/output/mx6sdl/lib/libsdk.a(startup.o)
                              (_start)
/home/leon/git/swp-report/iMX6_Platform_SDK/output/mx6sdl/lib/libsdk.a(vectors.o)
                              /home/leon/git/swp-report/iMX6_Platform_SDK/output/mx6sdl/lib/libsdk.a(startup.o) (vectors)
/home/leon/git/swp-report/iMX6_Platform_SDK/output/mx6sdl/lib/libsdk.a(system_util.o)
                              /home/leon/git/swp-report/iMX6_Platform_SDK/output/mx6sdl/lib/libsdk.a(startup.o) (_sys_exit)
/home/leon/git/swp-report/iMX6_Platform_SDK/output/mx6sdl/lib/libsdk.a(text_color.o)
                              /home/leon/git/swp-report/iMX6_Platform_SDK/output/mx6sdl/lib/libsdk.a(system_util.o) (g_TextAttributeBold)
/home/leon/git/swp-report/iMX6_Platform_SDK/output/mx6sdl/lib/libsdk.a(caam.o)
                              /home/leon/git/swp-report/iMX6_Platform_SDK/output/mx6sdl/caam_blob_gen/smart_device_rev_b/obj/apps/caam_blob_gen/src/caam_blob_gen.o (caam_gen_blob)
/home/leon/git/swp-report/iMX6_Platform_SDK/output/mx6sdl/lib/libsdk.a(timer.o)
                              /home/leon/git/swp-report/iMX6_Platform_SDK/output/mx6sdl/caam_blob_gen/smart_device_rev_b/obj/apps/common/platform_init.o (system_time_init)
/home/leon/git/swp-report/iMX6_Platform_SDK/output/mx6sdl/lib/libsdk.a(imx_uart.o)
                              /home/leon/git/swp-report/iMX6_Platform_SDK/output/mx6sdl/caam_blob_gen/smart_device_rev_b/obj/apps/common/platform_init.o (uart_getchar)
/home/leon/git/swp-report/iMX6_Platform_SDK/output/mx6sdl/lib/libsdk.a(arm_abort.o)
                              /home/leon/git/swp-report/iMX6_Platform_SDK/output/mx6sdl/lib/libsdk.a(vectors.o) (data_abort_handler)
/home/leon/git/swp-report/iMX6_Platform_SDK/output/mx6sdl/lib/libsdk.a(interrupt.o)
                              /home/leon/git/swp-report/iMX6_Platform_SDK/output/mx6sdl/lib/libsdk.a(vectors.o) (IRQ_HDLR)
/home/leon/git/swp-report/iMX6_Platform_SDK/output/mx6sdl/lib/libsdk.a(epit.o)
                              /home/leon/git/swp-report/iMX6_Platform_SDK/output/mx6sdl/lib/libsdk.a(timer.o) (epit_get_compare_event)
/home/leon/git/swp-report/iMX6_Platform_SDK/output/mx6sdl/lib/libsdk.a(abort_handler.o)
                              /home/leon/git/swp-report/iMX6_Platform_SDK/output/mx6sdl/lib/libsdk.a(arm_abort.o) (dump_regs)
/home/leon/git/swp-report/iMX6_Platform_SDK/output/mx6sdl/lib/libboard_smart_device_rev_b.a(board_io_expanders.o)
                              /home/leon/git/swp-report/iMX6_Platform_SDK/output/mx6sdl/caam_blob_gen/smart_device_rev_b/obj/apps/common/platform_init.o (board_ioexpander_init)
/home/leon/git/swp-report/iMX6_Platform_SDK/output/mx6sdl/lib/libboard_smart_device_rev_b.a(hardware_modules.o)
                              /home/leon/git/swp-report/iMX6_Platform_SDK/output/mx6sdl/caam_blob_gen/smart_device_rev_b/obj/apps/common/platform_init.o (g_debug_uart_port)
/home/leon/git/swp-report/iMX6_Platform_SDK/output/mx6sdl/lib/libboard_smart_device_rev_b.a(dcd.o)
                              /home/leon/git/swp-report/iMX6_Platform_SDK/output/mx6sdl/caam_blob_gen/smart_device_rev_b/obj/apps/common/ivt.o (input_dcd_hdr)
/home/leon/git/swp-report/iMX6_Platform_SDK/output/mx6sdl/lib/libboard_smart_device_rev_b.a(uart_iomux_config.o)
                              /home/leon/git/swp-report/iMX6_Platform_SDK/output/mx6sdl/lib/libsdk.a(imx_uart.o) (uart_iomux_config)
/home/leon/git/swp-report/iMX6_Platform_SDK/output/mx6sdl/lib/libboard_smart_device_rev_b.a(iomux_config.o)
                              /home/leon/git/swp-report/iMX6_Platform_SDK/output/mx6sdl/lib/libboard_smart_device_rev_b.a(uart_iomux_config.o) (uart2_iomux_config)
/home/leon/git/swp-report/iMX6_Platform_SDK/output/mx6sdl/lib/libboard_smart_device_rev_b.a(ipu1_iomux_config.o)
                              /home/leon/git/swp-report/iMX6_Platform_SDK/output/mx6sdl/lib/libboard_smart_device_rev_b.a(iomux_config.o) (ipu1_iomux_config)
/home/leon/git/swp-report/iMX6_Platform_SDK/output/mx6sdl/lib/libboard_smart_device_rev_b.a(mmdc_iomux_config.o)
                              /home/leon/git/swp-report/iMX6_Platform_SDK/output/mx6sdl/lib/libboard_smart_device_rev_b.a(iomux_config.o) (mmdc_iomux_config)
/home/leon/git/swp-report/iMX6_Platform_SDK/output/mx6sdl/lib/libboard_smart_device_rev_b.a(pwm1_iomux_config.o)
                              /home/leon/git/swp-report/iMX6_Platform_SDK/output/mx6sdl/lib/libboard_smart_device_rev_b.a(iomux_config.o) (pwm1_iomux_config)
/home/leon/git/swp-report/iMX6_Platform_SDK/output/mx6sdl/lib/libboard_smart_device_rev_b.a(sjc_iomux_config.o)
                              /home/leon/git/swp-report/iMX6_Platform_SDK/output/mx6sdl/lib/libboard_smart_device_rev_b.a(iomux_config.o) (sjc_iomux_config)
/home/leon/git/swp-report/iMX6_Platform_SDK/output/mx6sdl/lib/libboard_smart_device_rev_b.a(uart1_iomux_config.o)
                              /home/leon/git/swp-report/iMX6_Platform_SDK/output/mx6sdl/lib/libboard_smart_device_rev_b.a(uart_iomux_config.o) (uart1_iomux_config)
/home/leon/git/swp-report/iMX6_Platform_SDK/output/mx6sdl/lib/libboard_smart_device_rev_b.a(usb_iomux_config.o)
                              /home/leon/git/swp-report/iMX6_Platform_SDK/output/mx6sdl/lib/libboard_smart_device_rev_b.a(iomux_config.o) (usb_iomux_config)
/home/leon/git/swp-report/iMX6_Platform_SDK/output/mx6sdl/lib/libboard_smart_device_rev_b.a(usdhc2_iomux_config.o)
                              /home/leon/git/swp-report/iMX6_Platform_SDK/output/mx6sdl/lib/libboard_smart_device_rev_b.a(iomux_config.o) (usdhc2_iomux_config)
/home/leon/git/swp-report/iMX6_Platform_SDK/output/mx6sdl/lib/libboard_smart_device_rev_b.a(usdhc3_iomux_config.o)
                              /home/leon/git/swp-report/iMX6_Platform_SDK/output/mx6sdl/lib/libboard_smart_device_rev_b.a(iomux_config.o) (usdhc3_iomux_config)
/home/leon/git/swp-report/iMX6_Platform_SDK/output/mx6sdl/lib/libboard_smart_device_rev_b.a(usdhc4_iomux_config.o)
                              /home/leon/git/swp-report/iMX6_Platform_SDK/output/mx6sdl/lib/libboard_smart_device_rev_b.a(iomux_config.o) (usdhc4_iomux_config)
/home/leon/git/swp-report/iMX6_Platform_SDK/output/mx6sdl/lib/libboard_smart_device_rev_b.a(audmux_iomux_config.o)
                              /home/leon/git/swp-report/iMX6_Platform_SDK/output/mx6sdl/lib/libboard_smart_device_rev_b.a(iomux_config.o) (audmux_iomux_config)
/home/leon/git/swp-report/iMX6_Platform_SDK/output/mx6sdl/lib/libboard_smart_device_rev_b.a(ccm_iomux_config.o)
                              /home/leon/git/swp-report/iMX6_Platform_SDK/output/mx6sdl/lib/libboard_smart_device_rev_b.a(iomux_config.o) (ccm_iomux_config)
/home/leon/git/swp-report/iMX6_Platform_SDK/output/mx6sdl/lib/libboard_smart_device_rev_b.a(ecspi1_iomux_config.o)
                              /home/leon/git/swp-report/iMX6_Platform_SDK/output/mx6sdl/lib/libboard_smart_device_rev_b.a(iomux_config.o) (ecspi1_iomux_config)
/home/leon/git/swp-report/iMX6_Platform_SDK/output/mx6sdl/lib/libboard_smart_device_rev_b.a(enet_iomux_config.o)
                              /home/leon/git/swp-report/iMX6_Platform_SDK/output/mx6sdl/lib/libboard_smart_device_rev_b.a(iomux_config.o) (enet_iomux_config)
/home/leon/git/swp-report/iMX6_Platform_SDK/output/mx6sdl/lib/libboard_smart_device_rev_b.a(epdc_iomux_config.o)
                              /home/leon/git/swp-report/iMX6_Platform_SDK/output/mx6sdl/lib/libboard_smart_device_rev_b.a(iomux_config.o) (epdc_iomux_config)
/home/leon/git/swp-report/iMX6_Platform_SDK/output/mx6sdl/lib/libboard_smart_device_rev_b.a(flexcan1_iomux_config.o)
                              /home/leon/git/swp-report/iMX6_Platform_SDK/output/mx6sdl/lib/libboard_smart_device_rev_b.a(iomux_config.o) (flexcan1_iomux_config)
/home/leon/git/swp-report/iMX6_Platform_SDK/output/mx6sdl/lib/libboard_smart_device_rev_b.a(gpio1_iomux_config.o)
                              /home/leon/git/swp-report/iMX6_Platform_SDK/output/mx6sdl/lib/libboard_smart_device_rev_b.a(iomux_config.o) (gpio1_iomux_config)
/home/leon/git/swp-report/iMX6_Platform_SDK/output/mx6sdl/lib/libboard_smart_device_rev_b.a(gpio2_iomux_config.o)
                              /home/leon/git/swp-report/iMX6_Platform_SDK/output/mx6sdl/lib/libboard_smart_device_rev_b.a(iomux_config.o) (gpio2_iomux_config)
/home/leon/git/swp-report/iMX6_Platform_SDK/output/mx6sdl/lib/libboard_smart_device_rev_b.a(gpio3_iomux_config.o)
                              /home/leon/git/swp-report/iMX6_Platform_SDK/output/mx6sdl/lib/libboard_smart_device_rev_b.a(iomux_config.o) (gpio3_iomux_config)
/home/leon/git/swp-report/iMX6_Platform_SDK/output/mx6sdl/lib/libboard_smart_device_rev_b.a(gpio4_iomux_config.o)
                              /home/leon/git/swp-report/iMX6_Platform_SDK/output/mx6sdl/lib/libboard_smart_device_rev_b.a(iomux_config.o) (gpio4_iomux_config)
/home/leon/git/swp-report/iMX6_Platform_SDK/output/mx6sdl/lib/libboard_smart_device_rev_b.a(gpio5_iomux_config.o)
                              /home/leon/git/swp-report/iMX6_Platform_SDK/output/mx6sdl/lib/libboard_smart_device_rev_b.a(iomux_config.o) (gpio5_iomux_config)
/home/leon/git/swp-report/iMX6_Platform_SDK/output/mx6sdl/lib/libboard_smart_device_rev_b.a(gpio6_iomux_config.o)
                              /home/leon/git/swp-report/iMX6_Platform_SDK/output/mx6sdl/lib/libboard_smart_device_rev_b.a(iomux_config.o) (gpio6_iomux_config)
/home/leon/git/swp-report/iMX6_Platform_SDK/output/mx6sdl/lib/libboard_smart_device_rev_b.a(gpio7_iomux_config.o)
                              /home/leon/git/swp-report/iMX6_Platform_SDK/output/mx6sdl/lib/libboard_smart_device_rev_b.a(iomux_config.o) (gpio7_iomux_config)
/home/leon/git/swp-report/iMX6_Platform_SDK/output/mx6sdl/lib/libboard_smart_device_rev_b.a(gps_iomux_config.o)
                              /home/leon/git/swp-report/iMX6_Platform_SDK/output/mx6sdl/lib/libboard_smart_device_rev_b.a(iomux_config.o) (gps_iomux_config)
/home/leon/git/swp-report/iMX6_Platform_SDK/output/mx6sdl/lib/libboard_smart_device_rev_b.a(i2c1_iomux_config.o)
                              /home/leon/git/swp-report/iMX6_Platform_SDK/output/mx6sdl/lib/libboard_smart_device_rev_b.a(iomux_config.o) (i2c1_iomux_config)
/home/leon/git/swp-report/iMX6_Platform_SDK/output/mx6sdl/lib/libboard_smart_device_rev_b.a(i2c2_iomux_config.o)
                              /home/leon/git/swp-report/iMX6_Platform_SDK/output/mx6sdl/lib/libboard_smart_device_rev_b.a(iomux_config.o) (i2c2_iomux_config)
/home/leon/git/swp-report/iMX6_Platform_SDK/output/mx6sdl/lib/libboard_smart_device_rev_b.a(i2c3_iomux_config.o)
                              /home/leon/git/swp-report/iMX6_Platform_SDK/output/mx6sdl/lib/libboard_smart_device_rev_b.a(iomux_config.o) (i2c3_iomux_config)
/home/src/arm/target/bin/../arm-none-eabi/lib//libc.a(lib_a-assert.o)
                              /home/leon/git/swp-report/iMX6_Platform_SDK/output/mx6sdl/lib/libsdk.a(gic.o) (__assert_func)
/home/src/arm/target/bin/../arm-none-eabi/lib//libc.a(lib_a-bzero.o)
                              /home/leon/git/swp-report/iMX6_Platform_SDK/output/mx6sdl/lib/libsdk.a(mmu.o) (bzero)
/home/src/arm/target/bin/../arm-none-eabi/lib//libc.a(lib_a-fiprintf.o)
                              /home/src/arm/target/bin/../arm-none-eabi/lib//libc.a(lib_a-assert.o) (fiprintf)
/home/src/arm/target/bin/../arm-none-eabi/lib//libc.a(lib_a-fputc.o)
                              /home/leon/git/swp-report/iMX6_Platform_SDK/output/mx6sdl/lib/libsdk.a(system_util.o) (fputc)
/home/src/arm/target/bin/../arm-none-eabi/lib//libc.a(lib_a-impure.o)
                              /home/leon/git/swp-report/iMX6_Platform_SDK/output/mx6sdl/caam_blob_gen/smart_device_rev_b/obj/apps/caam_blob_gen/src/caam_blob_gen.o (_impure_ptr)
/home/src/arm/target/bin/../arm-none-eabi/lib//libc.a(lib_a-init.o)
                              /home/leon/git/swp-report/iMX6_Platform_SDK/output/mx6sdl/lib/libsdk.a(startup.o) (__libc_init_array)
/home/src/arm/target/bin/../arm-none-eabi/lib//libc.a(lib_a-malloc.o)
                              /home/leon/git/swp-report/iMX6_Platform_SDK/output/mx6sdl/lib/libsdk.a(system_util.o) (malloc)
/home/src/arm/target/bin/../arm-none-eabi/lib//libc.a(lib_a-mallocr.o)
                              /home/src/arm/target/bin/../arm-none-eabi/lib//libc.a(lib_a-malloc.o) (_malloc_r)
/home/src/arm/target/bin/../arm-none-eabi/lib//libc.a(lib_a-memcpy-stub.o)
                              /home/leon/git/swp-report/iMX6_Platform_SDK/output/mx6sdl/caam_blob_gen/smart_device_rev_b/obj/apps/caam_blob_gen/src/caam_blob_gen.o (memcpy)
/home/src/arm/target/bin/../arm-none-eabi/lib//libc.a(lib_a-memset.o)
                              /home/leon/git/swp-report/iMX6_Platform_SDK/output/mx6sdl/lib/libsdk.a(caam.o) (memset)
/home/src/arm/target/bin/../arm-none-eabi/lib//libc.a(lib_a-mlock.o)
                              /home/src/arm/target/bin/../arm-none-eabi/lib//libc.a(lib_a-mallocr.o) (__malloc_lock)
/home/src/arm/target/bin/../arm-none-eabi/lib//libc.a(lib_a-printf.o)
                              /home/leon/git/swp-report/iMX6_Platform_SDK/output/mx6sdl/caam_blob_gen/smart_device_rev_b/obj/apps/caam_blob_gen/src/caam_blob_gen.o (printf)
/home/src/arm/target/bin/../arm-none-eabi/lib//libc.a(lib_a-putc.o)
                              /home/src/arm/target/bin/../arm-none-eabi/lib//libc.a(lib_a-fputc.o) (_putc_r)
/home/src/arm/target/bin/../arm-none-eabi/lib//libc.a(lib_a-realloc.o)
                              /home/leon/git/swp-report/iMX6_Platform_SDK/output/mx6sdl/lib/libsdk.a(system_util.o) (realloc)
/home/src/arm/target/bin/../arm-none-eabi/lib//libc.a(lib_a-reallocr.o)
                              /home/src/arm/target/bin/../arm-none-eabi/lib//libc.a(lib_a-realloc.o) (_realloc_r)
/home/src/arm/target/bin/../arm-none-eabi/lib//libc.a(lib_a-rget.o)
                              /home/leon/git/swp-report/iMX6_Platform_SDK/output/mx6sdl/caam_blob_gen/smart_device_rev_b/obj/apps/caam_blob_gen/src/caam_blob_gen.o (__srget_r)
/home/src/arm/target/bin/../arm-none-eabi/lib//libc.a(lib_a-sbrkr.o)
                              /home/src/arm/target/bin/../arm-none-eabi/lib//libc.a(lib_a-mallocr.o) (_sbrk_r)
/home/src/arm/target/bin/../arm-none-eabi/lib//libc.a(lib_a-syscalls.o)
                              /home/src/arm/target/bin/../arm-none-eabi/lib//libc.a(lib_a-sbrkr.o) (_sbrk)
/home/src/arm/target/bin/../arm-none-eabi/lib//libc.a(lib_a-vfiprintf.o)
                              /home/src/arm/target/bin/../arm-none-eabi/lib//libc.a(lib_a-fiprintf.o) (_vfiprintf_r)
/home/src/arm/target/bin/../arm-none-eabi/lib//libc.a(lib_a-vfprintf.o)
                              /home/src/arm/target/bin/../arm-none-eabi/lib//libc.a(lib_a-printf.o) (_vfprintf_r)
/home/src/arm/target/bin/../arm-none-eabi/lib//libc.a(lib_a-vprintf.o)
                              /home/leon/git/swp-report/iMX6_Platform_SDK/output/mx6sdl/lib/libsdk.a(text_color.o) (vprintf)
/home/src/arm/target/bin/../arm-none-eabi/lib//libc.a(lib_a-wbuf.o)
                              /home/src/arm/target/bin/../arm-none-eabi/lib//libc.a(lib_a-putc.o) (__swbuf_r)
/home/src/arm/target/bin/../arm-none-eabi/lib//libc.a(lib_a-wsetup.o)
                              /home/src/arm/target/bin/../arm-none-eabi/lib//libc.a(lib_a-vfiprintf.o) (__swsetup_r)
/home/src/arm/target/bin/../arm-none-eabi/lib//libc.a(lib_a-abort.o)
                              /home/src/arm/target/bin/../arm-none-eabi/lib//libc.a(lib_a-assert.o) (abort)
/home/src/arm/target/bin/../arm-none-eabi/lib//libc.a(lib_a-dtoa.o)
                              /home/src/arm/target/bin/../arm-none-eabi/lib//libc.a(lib_a-vfprintf.o) (_dtoa_r)
/home/src/arm/target/bin/../arm-none-eabi/lib//libc.a(lib_a-errno.o)
                              /home/src/arm/target/bin/../arm-none-eabi/lib//libc.a(lib_a-syscalls.o) (__errno)
/home/src/arm/target/bin/../arm-none-eabi/lib//libc.a(lib_a-fflush.o)
                              /home/src/arm/target/bin/../arm-none-eabi/lib//libc.a(lib_a-vfiprintf.o) (_fflush_r)
/home/src/arm/target/bin/../arm-none-eabi/lib//libc.a(lib_a-findfp.o)
                              /home/src/arm/target/bin/../arm-none-eabi/lib//libc.a(lib_a-fputc.o) (__sinit)
/home/src/arm/target/bin/../arm-none-eabi/lib//libc.a(lib_a-fputwc.o)
                              /home/src/arm/target/bin/../arm-none-eabi/lib//libc.a(lib_a-vfiprintf.o) (_fputwc_r)
/home/src/arm/target/bin/../arm-none-eabi/lib//libc.a(lib_a-freer.o)
                              /home/src/arm/target/bin/../arm-none-eabi/lib//libc.a(lib_a-malloc.o) (_free_r)
/home/src/arm/target/bin/../arm-none-eabi/lib//libc.a(lib_a-fvwrite.o)
                              /home/src/arm/target/bin/../arm-none-eabi/lib//libc.a(lib_a-vfiprintf.o) (__sfvwrite_r)
/home/src/arm/target/bin/../arm-none-eabi/lib//libc.a(lib_a-fwalk.o)
                              /home/src/arm/target/bin/../arm-none-eabi/lib//libc.a(lib_a-findfp.o) (_fwalk)
/home/src/arm/target/bin/../arm-none-eabi/lib//libc.a(lib_a-locale.o)
                              /home/src/arm/target/bin/../arm-none-eabi/lib//libc.a(lib_a-fputwc.o) (__locale_mb_cur_max)
/home/src/arm/target/bin/../arm-none-eabi/lib//libc.a(lib_a-makebuf.o)
                              /home/src/arm/target/bin/../arm-none-eabi/lib//libc.a(lib_a-wsetup.o) (__smakebuf_r)
/home/src/arm/target/bin/../arm-none-eabi/lib//libc.a(lib_a-memchr-stub.o)
                              /home/src/arm/target/bin/../arm-none-eabi/lib//libc.a(lib_a-vfiprintf.o) (memchr)
/home/src/arm/target/bin/../arm-none-eabi/lib//libc.a(lib_a-memmove.o)
                              /home/src/arm/target/bin/../arm-none-eabi/lib//libc.a(lib_a-reallocr.o) (memmove)
/home/src/arm/target/bin/../arm-none-eabi/lib//libc.a(lib_a-mprec.o)
                              /home/src/arm/target/bin/../arm-none-eabi/lib//libc.a(lib_a-dtoa.o) (_Balloc)
/home/src/arm/target/bin/../arm-none-eabi/lib//libc.a(lib_a-reent.o)
                              /home/src/arm/target/bin/../arm-none-eabi/lib//libc.a(lib_a-sbrkr.o) (errno)
/home/src/arm/target/bin/../arm-none-eabi/lib//libc.a(lib_a-refill.o)
                              /home/src/arm/target/bin/../arm-none-eabi/lib//libc.a(lib_a-rget.o) (__srefill_r)
/home/src/arm/target/bin/../arm-none-eabi/lib//libc.a(lib_a-s_fpclassify.o)
                              /home/src/arm/target/bin/../arm-none-eabi/lib//libc.a(lib_a-vfprintf.o) (__fpclassifyd)
/home/src/arm/target/bin/../arm-none-eabi/lib//libc.a(lib_a-signal.o)
                              /home/src/arm/target/bin/../arm-none-eabi/lib//libc.a(lib_a-abort.o) (raise)
/home/src/arm/target/bin/../arm-none-eabi/lib//libc.a(lib_a-signalr.o)
                              /home/src/arm/target/bin/../arm-none-eabi/lib//libc.a(lib_a-signal.o) (_kill_r)
/home/src/arm/target/bin/../arm-none-eabi/lib//libc.a(lib_a-stdio.o)
                              /home/src/arm/target/bin/../arm-none-eabi/lib//libc.a(lib_a-findfp.o) (__sread)
/home/src/arm/target/bin/../arm-none-eabi/lib//libc.a(lib_a-strcmp.o)
                              /home/src/arm/target/bin/../arm-none-eabi/lib//libc.a(lib_a-locale.o) (strcmp)
/home/src/arm/target/bin/../arm-none-eabi/lib//libc.a(lib_a-strlen.o)
                              /home/src/arm/target/bin/../arm-none-eabi/lib//libc.a(lib_a-syscalls.o) (strlen)
/home/src/arm/target/bin/../arm-none-eabi/lib//libc.a(lib_a-wcrtomb.o)
                              /home/src/arm/target/bin/../arm-none-eabi/lib//libc.a(lib_a-fputwc.o) (_wcrtomb_r)
/home/src/arm/target/bin/../arm-none-eabi/lib//libc.a(lib_a-wctomb_r.o)
                              /home/src/arm/target/bin/../arm-none-eabi/lib//libc.a(lib_a-wcrtomb.o) (__wctomb)
/home/src/arm/target/bin/../arm-none-eabi/lib//libc.a(lib_a-writer.o)
                              /home/src/arm/target/bin/../arm-none-eabi/lib//libc.a(lib_a-stdio.o) (_write_r)
/home/src/arm/target/bin/../arm-none-eabi/lib//libc.a(lib_a-callocr.o)
                              /home/src/arm/target/bin/../arm-none-eabi/lib//libc.a(lib_a-mprec.o) (_calloc_r)
/home/src/arm/target/bin/../arm-none-eabi/lib//libc.a(lib_a-closer.o)
                              /home/src/arm/target/bin/../arm-none-eabi/lib//libc.a(lib_a-stdio.o) (_close_r)
/home/src/arm/target/bin/../arm-none-eabi/lib//libc.a(lib_a-fclose.o)
                              /home/src/arm/target/bin/../arm-none-eabi/lib//libc.a(lib_a-findfp.o) (fclose)
/home/src/arm/target/bin/../arm-none-eabi/lib//libc.a(lib_a-fstatr.o)
                              /home/src/arm/target/bin/../arm-none-eabi/lib//libc.a(lib_a-makebuf.o) (_fstat_r)
/home/src/arm/target/bin/../arm-none-eabi/lib//libc.a(lib_a-isattyr.o)
                              /home/src/arm/target/bin/../arm-none-eabi/lib//libc.a(lib_a-makebuf.o) (_isatty_r)
/home/src/arm/target/bin/../arm-none-eabi/lib//libc.a(lib_a-lseekr.o)
                              /home/src/arm/target/bin/../arm-none-eabi/lib//libc.a(lib_a-stdio.o) (_lseek_r)
/home/src/arm/target/bin/../arm-none-eabi/lib//libc.a(lib_a-readr.o)
                              /home/src/arm/target/bin/../arm-none-eabi/lib//libc.a(lib_a-stdio.o) (_read_r)
/home/src/arm/target/bin/../lib/gcc/arm-none-eabi/4.8.2//libgcc.a(_udivsi3.o)
                              /home/leon/git/swp-report/iMX6_Platform_SDK/output/mx6sdl/lib/libsdk.a(ccm_pll.o) (__aeabi_uidiv)
/home/src/arm/target/bin/../lib/gcc/arm-none-eabi/4.8.2//libgcc.a(_divsi3.o)
                              /home/src/arm/target/bin/../arm-none-eabi/lib//libc.a(lib_a-fvwrite.o) (__aeabi_idiv)
/home/src/arm/target/bin/../lib/gcc/arm-none-eabi/4.8.2//libgcc.a(_dvmd_tls.o)
                              /home/src/arm/target/bin/../lib/gcc/arm-none-eabi/4.8.2//libgcc.a(_udivsi3.o) (__aeabi_idiv0)
/home/src/arm/target/bin/../lib/gcc/arm-none-eabi/4.8.2//libgcc.a(_arm_addsubdf3.o)
                              /home/src/arm/target/bin/../arm-none-eabi/lib//libc.a(lib_a-dtoa.o) (__aeabi_dsub)
/home/src/arm/target/bin/../lib/gcc/arm-none-eabi/4.8.2//libgcc.a(_arm_muldivdf3.o)
                              /home/src/arm/target/bin/../arm-none-eabi/lib//libc.a(lib_a-dtoa.o) (__aeabi_dmul)
/home/src/arm/target/bin/../lib/gcc/arm-none-eabi/4.8.2//libgcc.a(_arm_cmpdf2.o)
                              /home/src/arm/target/bin/../arm-none-eabi/lib//libc.a(lib_a-vfprintf.o) (__aeabi_dcmpeq)
/home/src/arm/target/bin/../lib/gcc/arm-none-eabi/4.8.2//libgcc.a(_arm_fixdfsi.o)
                              /home/src/arm/target/bin/../arm-none-eabi/lib//libc.a(lib_a-dtoa.o) (__aeabi_d2iz)
/home/src/arm/target/bin/../lib/gcc/arm-none-eabi/4.8.2//libgcc.a(_aeabi_uldivmod.o)
                              /home/leon/git/swp-report/iMX6_Platform_SDK/output/mx6sdl/lib/libsdk.a(timer.o) (__aeabi_uldivmod)
/home/src/arm/target/bin/../lib/gcc/arm-none-eabi/4.8.2//libgcc.a(bpabi.o)
                              /home/src/arm/target/bin/../lib/gcc/arm-none-eabi/4.8.2//libgcc.a(_aeabi_uldivmod.o) (__gnu_uldivmod_helper)
/home/src/arm/target/bin/../lib/gcc/arm-none-eabi/4.8.2//libgcc.a(_divdi3.o)
                              /home/src/arm/target/bin/../lib/gcc/arm-none-eabi/4.8.2//libgcc.a(bpabi.o) (__divdi3)
/home/src/arm/target/bin/../lib/gcc/arm-none-eabi/4.8.2//libgcc.a(_udivdi3.o)
                              /home/src/arm/target/bin/../lib/gcc/arm-none-eabi/4.8.2//libgcc.a(bpabi.o) (__udivdi3)
/home/src/arm/target/bin/../lib/gcc/arm-none-eabi/4.8.2//libgcc.a(_clzsi2.o)
                              /home/src/arm/target/bin/../lib/gcc/arm-none-eabi/4.8.2//libgcc.a(_divdi3.o) (__clzsi2)

Allocating common symbols
Common symbol       size              file

errno               0x4               /home/src/arm/target/bin/../arm-none-eabi/lib//libc.a(lib_a-reent.o)

Memory Configuration

Name             Origin             Length             Attributes
OCRAM            0x0000000000900000 0x0000000000020000 xrw
DDR              0x0000000010000000 0x0000000040000000 xrw
*default*        0x0000000000000000 0xffffffffffffffff

Linker script and memory map

LOAD /home/src/arm/target/bin/../lib/gcc/arm-none-eabi/4.8.2//crtbegin.o
LOAD /home/src/arm/target/bin/../lib/gcc/arm-none-eabi/4.8.2//crti.o
LOAD /home/src/arm/target/bin/../lib/gcc/arm-none-eabi/4.8.2//crtend.o
LOAD /home/src/arm/target/bin/../lib/gcc/arm-none-eabi/4.8.2//crtn.o

.l1_page_table  0x0000000000900000     0x4000
                0x0000000000900000                __l1_page_table_start = .
                0x0000000000904000                . = (. + 0x4000)
 *fill*         0x0000000000900000     0x4000 

.heap.ocram     0x0000000000904000    0x1bfb8
                0x0000000000904000                __heap_ocram_start = .
                0x000000000091ffb8                . = (. + 0x1bfb8)
 *fill*         0x0000000000904000    0x1bfb8 
                0x000000000091ffb8                __heap_ocram_end = .

.ram_vectors    0x000000000091ffb8       0x48
                0x000000000091ffb8                __ram_vectors_start = .
                0x0000000000920000                . = (. + 0x48)
 *fill*         0x000000000091ffb8       0x48 
                0x0000000000920000                __ram_vectors_end = .
                0x0000000010000000                _start_image_add = ORIGIN (DDR)

.ivt            0x0000000010000000      0x420
                0x0000000010000400                . = (. + 0x400)
 *fill*         0x0000000010000000      0x400 
 *(.ivt)
 .ivt           0x0000000010000400       0x20 /home/leon/git/swp-report/iMX6_Platform_SDK/output/mx6sdl/caam_blob_gen/smart_device_rev_b/obj/apps/common/ivt.o
                0x0000000010000400                input_ivt

.boot_data      0x0000000010000420        0xc
                0x0000000010000420                __start_boot_data = .
 *(.boot_data)
 .boot_data     0x0000000010000420        0xc /home/leon/git/swp-report/iMX6_Platform_SDK/output/mx6sdl/caam_blob_gen/smart_device_rev_b/obj/apps/common/ivt.o
                0x0000000010000420                bd

.dcd_hdr        0x0000000010000430        0x4
                0x0000000010000430                __start_dcd = .
 *(.dcd_hdr)
 .dcd_hdr       0x0000000010000430        0x4 /home/leon/git/swp-report/iMX6_Platform_SDK/output/mx6sdl/lib/libboard_smart_device_rev_b.a(dcd.o)
                0x0000000010000430                input_dcd_hdr

.dcd_wrt_cmd    0x0000000010000434        0x4
 *(.dcd_wrt_cmd)
 .dcd_wrt_cmd   0x0000000010000434        0x4 /home/leon/git/swp-report/iMX6_Platform_SDK/output/mx6sdl/lib/libboard_smart_device_rev_b.a(dcd.o)
                0x0000000010000434                input_dcd_wrt_cmd

.dcd_data       0x0000000010000438      0x298
 *(.dcd_data)
 .dcd_data      0x0000000010000438      0x298 /home/leon/git/swp-report/iMX6_Platform_SDK/output/mx6sdl/lib/libboard_smart_device_rev_b.a(dcd.o)
                0x0000000010000438                input_dcd

.text           0x00000000100006d0    0x1679c
 CREATE_OBJECT_SYMBOLS
 *(.startup)
 .startup       0x00000000100006d0      0x138 /home/leon/git/swp-report/iMX6_Platform_SDK/output/mx6sdl/lib/libsdk.a(startup.o)
                0x00000000100006d0                _start
 *(.text .text.* .gnu.linkonce.t.*)
 .text          0x0000000010000808      0x128 /home/src/arm/target/bin/../lib/gcc/arm-none-eabi/4.8.2//crtbegin.o
 .text          0x0000000010000930        0x0 /home/src/arm/target/bin/../lib/gcc/arm-none-eabi/4.8.2//crti.o
 .text          0x0000000010000930        0x0 /home/src/arm/target/bin/../lib/gcc/arm-none-eabi/4.8.2//crtend.o
 .text          0x0000000010000930        0x0 /home/src/arm/target/bin/../lib/gcc/arm-none-eabi/4.8.2//crtn.o
 .text          0x0000000010000930      0x268 /home/leon/git/swp-report/iMX6_Platform_SDK/output/mx6sdl/caam_blob_gen/smart_device_rev_b/obj/apps/caam_blob_gen/src/caam_blob_gen.o
                0x0000000010000930                caam_blob_gen
                0x0000000010000b7c                main
 .text          0x0000000010000b98        0x0 /home/leon/git/swp-report/iMX6_Platform_SDK/output/mx6sdl/caam_blob_gen/smart_device_rev_b/obj/apps/common/ivt.o
 .text          0x0000000010000b98       0xbc /home/leon/git/swp-report/iMX6_Platform_SDK/output/mx6sdl/caam_blob_gen/smart_device_rev_b/obj/apps/common/platform_init.o
                0x0000000010000b98                platform_init
 .text          0x0000000010000c54      0xc50 /home/leon/git/swp-report/iMX6_Platform_SDK/output/mx6sdl/lib/libsdk.a(ccm_pll.o)
                0x0000000010000c54                ccm_init
                0x0000000010000d78                get_main_clock
                0x0000000010001004                get_peri_clock
                0x00000000100011a4                ccm_ccgr_config
                0x000000001000120c                clock_gating_config
                0x0000000010001644                ccm_set_lpm_wakeup_source
                0x0000000010001738                ccm_enter_low_power
                0x00000000100017a8                ipu_hsp_clk_config
                0x00000000100017c8                gpu_clock_config
 .text          0x00000000100018a4      0x164 /home/leon/git/swp-report/iMX6_Platform_SDK/output/mx6sdl/lib/libsdk.a(cortexA9.o)
                0x00000000100018a4                arm_set_interrupt_state
                0x00000000100018c8                cpu_get_current
                0x00000000100018d4                enable_neon_fpu
                0x00000000100018f0                disable_strict_align_check
                0x0000000010001904                disable_L1_cache
                0x0000000010001924                get_arm_private_peripheral_base
                0x000000001000192c                arm_unified_tlb_invalidate
                0x000000001000193c                arm_unified_tlb_invalidate_is
                0x000000001000194c                arm_branch_prediction_enable
                0x000000001000195c                arm_branch_prediction_disable
                0x000000001000196c                arm_branch_target_cache_invalidate
                0x0000000010001978                arm_branch_target_cache_invalidate_is
                0x0000000010001984                scu_enable
                0x0000000010001998                scu_join_smp
                0x00000000100019a8                scu_leave_smp
                0x00000000100019b8                scu_get_cpus_in_smp
                0x00000000100019cc                scu_enable_maintenance_broadcast
                0x00000000100019dc                scu_disable_maintenance_broadcast
                0x00000000100019ec                scu_secure_invalidate
 .text          0x0000000010001a08      0x5e0 /home/leon/git/swp-report/iMX6_Platform_SDK/output/mx6sdl/lib/libsdk.a(gic.o)
                0x0000000010001aec                gic_enable
                0x0000000010001b4c                gic_set_irq_security
                0x0000000010001bf4                gic_enable_irq
                0x0000000010001c70                gic_set_irq_priority
                0x0000000010001cb8                gic_set_cpu_target
                0x0000000010001dc4                gic_send_sgi
                0x0000000010001e18                gic_cpu_enable
                0x0000000010001e78                gic_set_cpu_priority_mask
                0x0000000010001eac                gic_read_irq_ack
                0x0000000010001ed8                gic_write_end_of_irq
                0x0000000010001f08                gic_init
                0x0000000010001fac                gic_init_cpu
 .text          0x0000000010001fe8      0x458 /home/leon/git/swp-report/iMX6_Platform_SDK/output/mx6sdl/lib/libsdk.a(mmu.o)
                0x0000000010001fe8                mmu_enable
                0x0000000010002020                mmu_disable
                0x0000000010002054                mmu_init
                0x0000000010002170                mmu_map_l1_range
                0x0000000010002384                mmu_virtual_to_physical
 .text          0x0000000010002440        0x0 /home/leon/git/swp-report/iMX6_Platform_SDK/output/mx6sdl/lib/libsdk.a(startup.o)
 .text          0x0000000010002440        0x4 /home/leon/git/swp-report/iMX6_Platform_SDK/output/mx6sdl/lib/libsdk.a(vectors.o)
                0x0000000010002440                exception_handler
 .text.vectors  0x0000000010002444       0x48 /home/leon/git/swp-report/iMX6_Platform_SDK/output/mx6sdl/lib/libsdk.a(vectors.o)
                0x0000000010002444                vectors
 .text          0x000000001000248c      0x8fc /home/leon/git/swp-report/iMX6_Platform_SDK/output/mx6sdl/lib/libsdk.a(system_util.o)
                0x000000001000248c                _sys_exit
                0x00000000100024a8                mybkpt
                0x00000000100024b0                is_input_char
                0x0000000010002630                read_input_string
                0x0000000010002910                get_input_hex
                0x0000000010002b88                read_int
                0x0000000010002ce4                jump_to_sdp
 .text          0x0000000010002d88       0xdc /home/leon/git/swp-report/iMX6_Platform_SDK/output/mx6sdl/lib/libsdk.a(text_color.o)
                0x0000000010002d88                printf_color
                0x0000000010002e20                get_color_supported
 .text          0x0000000010002e64      0x948 /home/leon/git/swp-report/iMX6_Platform_SDK/output/mx6sdl/lib/libsdk.a(caam.o)
                0x0000000010002e64                caam_interrupt_routine
                0x0000000010002e74                caam_setup_interrupt
                0x0000000010002ed4                secmem_set_cmd
                0x0000000010003110                caam_enc_data
                0x00000000100032a8                caam_decap_blob
                0x00000000100033fc                caam_gen_blob
                0x000000001000357c                caam_open
 .text          0x00000000100037ac      0x27c /home/leon/git/swp-report/iMX6_Platform_SDK/output/mx6sdl/lib/libsdk.a(timer.o)
                0x00000000100037ac                hal_delay_us
                0x0000000010003818                system_time_init
                0x0000000010003974                time_get_microseconds
 .text          0x0000000010003a28     0x281c /home/leon/git/swp-report/iMX6_Platform_SDK/output/mx6sdl/lib/libsdk.a(imx_uart.o)
                0x0000000010003a28                uart_get_reffreq
                0x0000000010003b24                uart_putchar
                0x0000000010003c74                uart_getchar
                0x0000000010003dd4                uart_set_FIFO_mode
                0x00000000100048fc                uart_set_loopback_mode
                0x0000000010004b50                uart_setup_interrupt
                0x0000000010004c1c                uart_init
 .text          0x0000000010006244       0x98 /home/leon/git/swp-report/iMX6_Platform_SDK/output/mx6sdl/lib/libsdk.a(arm_abort.o)
                0x0000000010006244                common_abort_handler
                0x00000000100062a4                data_abort_handler
                0x00000000100062bc                prefetch_abort_handler
 .text          0x00000000100062dc      0x1b8 /home/leon/git/swp-report/iMX6_Platform_SDK/output/mx6sdl/lib/libsdk.a(interrupt.o)
                0x00000000100062dc                IRQ_HDLR
                0x00000000100063a0                disable_interrupt
                0x00000000100063dc                enable_interrupt
                0x0000000010006434                register_interrupt_routine
                0x0000000010006468                default_interrupt_routine
 .text          0x0000000010006494      0x8dc /home/leon/git/swp-report/iMX6_Platform_SDK/output/mx6sdl/lib/libsdk.a(epit.o)
                0x0000000010006494                epit_reload_counter
                0x00000000100064f4                epit_get_counter_value
                0x0000000010006550                epit_set_compare_event
                0x00000000100065b0                epit_get_compare_event
                0x00000000100066a8                epit_counter_disable
                0x000000001000686c                epit_counter_enable
                0x0000000010006ac8                epit_setup_interrupt
                0x0000000010006b58                epit_init
 .text          0x0000000010006d70      0x4bc /home/leon/git/swp-report/iMX6_Platform_SDK/output/mx6sdl/lib/libsdk.a(abort_handler.o)
                0x0000000010006d70                dump_regs
 .text          0x000000001000722c       0x20 /home/leon/git/swp-report/iMX6_Platform_SDK/output/mx6sdl/lib/libboard_smart_device_rev_b.a(board_io_expanders.o)
                0x000000001000722c                board_ioexpander_init
                0x000000001000723c                board_ioexpander_iomux_config
 .text          0x000000001000724c        0x0 /home/leon/git/swp-report/iMX6_Platform_SDK/output/mx6sdl/lib/libboard_smart_device_rev_b.a(hardware_modules.o)
 .text          0x000000001000724c        0x0 /home/leon/git/swp-report/iMX6_Platform_SDK/output/mx6sdl/lib/libboard_smart_device_rev_b.a(dcd.o)
 .text          0x000000001000724c       0x8c /home/leon/git/swp-report/iMX6_Platform_SDK/output/mx6sdl/lib/libboard_smart_device_rev_b.a(uart_iomux_config.o)
                0x000000001000724c                uart_iomux_config
 .text          0x00000000100072d8      0x2f8 /home/leon/git/swp-report/iMX6_Platform_SDK/output/mx6sdl/lib/libboard_smart_device_rev_b.a(iomux_config.o)
                0x00000000100072d8                iomux_config
                0x0000000010007350                arm_iomux_config
                0x0000000010007360                asrc_iomux_config
                0x0000000010007370                dcic1_iomux_config
                0x0000000010007380                dcic2_iomux_config
                0x0000000010007390                ecspi2_iomux_config
                0x00000000100073a0                ecspi3_iomux_config
                0x00000000100073b0                ecspi4_iomux_config
                0x00000000100073c0                eim_iomux_config
                0x00000000100073d0                epit1_iomux_config
                0x00000000100073e0                epit2_iomux_config
                0x00000000100073f0                esai_iomux_config
                0x0000000010007400                flexcan2_iomux_config
                0x0000000010007410                gpmi_iomux_config
                0x0000000010007420                gpt_iomux_config
                0x0000000010007430                hdmi_iomux_config
                0x0000000010007440                i2c4_iomux_config
                0x0000000010007450                kpp_iomux_config
                0x0000000010007460                lcd_iomux_config
                0x0000000010007470                ldb_iomux_config
                0x0000000010007480                mipi_csi_iomux_config
                0x0000000010007490                mipi_dsi_iomux_config
                0x00000000100074a0                mipi_hsi_iomux_config
                0x00000000100074b0                mlb_iomux_config
                0x00000000100074c0                pcie_iomux_config
                0x00000000100074d0                pmu_iomux_config
                0x00000000100074e0                pwm2_iomux_config
                0x00000000100074f0                pwm3_iomux_config
                0x0000000010007500                pwm4_iomux_config
                0x0000000010007510                sdma_iomux_config
                0x0000000010007520                snvs_iomux_config
                0x0000000010007530                spdif_iomux_config
                0x0000000010007540                src_iomux_config
                0x0000000010007550                uart2_iomux_config
                0x0000000010007560                uart3_iomux_config
                0x0000000010007570                uart4_iomux_config
                0x0000000010007580                uart5_iomux_config
                0x0000000010007590                usdhc1_iomux_config
                0x00000000100075a0                wdog1_iomux_config
                0x00000000100075b0                wdog2_iomux_config
                0x00000000100075c0                xtalosc_iomux_config
 .text          0x00000000100075d0      0x424 /home/leon/git/swp-report/iMX6_Platform_SDK/output/mx6sdl/lib/libboard_smart_device_rev_b.a(ipu1_iomux_config.o)
                0x00000000100075d0                ipu1_iomux_config
 .text          0x00000000100079f4     0x2484 /home/leon/git/swp-report/iMX6_Platform_SDK/output/mx6sdl/lib/libboard_smart_device_rev_b.a(mmdc_iomux_config.o)
                0x00000000100079f4                mmdc_iomux_config
 .text          0x0000000010009e78       0x34 /home/leon/git/swp-report/iMX6_Platform_SDK/output/mx6sdl/lib/libboard_smart_device_rev_b.a(pwm1_iomux_config.o)
                0x0000000010009e78                pwm1_iomux_config
 .text          0x0000000010009eac       0x70 /home/leon/git/swp-report/iMX6_Platform_SDK/output/mx6sdl/lib/libboard_smart_device_rev_b.a(sjc_iomux_config.o)
                0x0000000010009eac                sjc_iomux_config
 .text          0x0000000010009f1c       0x78 /home/leon/git/swp-report/iMX6_Platform_SDK/output/mx6sdl/lib/libboard_smart_device_rev_b.a(uart1_iomux_config.o)
                0x0000000010009f1c                uart1_iomux_config
 .text          0x0000000010009f94       0x78 /home/leon/git/swp-report/iMX6_Platform_SDK/output/mx6sdl/lib/libboard_smart_device_rev_b.a(usb_iomux_config.o)
                0x0000000010009f94                usb_iomux_config
 .text          0x000000001000a00c      0x188 /home/leon/git/swp-report/iMX6_Platform_SDK/output/mx6sdl/lib/libboard_smart_device_rev_b.a(usdhc2_iomux_config.o)
                0x000000001000a00c                usdhc2_iomux_config
 .text          0x000000001000a194      0x188 /home/leon/git/swp-report/iMX6_Platform_SDK/output/mx6sdl/lib/libboard_smart_device_rev_b.a(usdhc3_iomux_config.o)
                0x000000001000a194                usdhc3_iomux_config
 .text          0x000000001000a31c      0x188 /home/leon/git/swp-report/iMX6_Platform_SDK/output/mx6sdl/lib/libboard_smart_device_rev_b.a(usdhc4_iomux_config.o)
                0x000000001000a31c                usdhc4_iomux_config
 .text          0x000000001000a4a4       0xa0 /home/leon/git/swp-report/iMX6_Platform_SDK/output/mx6sdl/lib/libboard_smart_device_rev_b.a(audmux_iomux_config.o)
                0x000000001000a4a4                audmux_iomux_config
 .text          0x000000001000a544       0x34 /home/leon/git/swp-report/iMX6_Platform_SDK/output/mx6sdl/lib/libboard_smart_device_rev_b.a(ccm_iomux_config.o)
                0x000000001000a544                ccm_iomux_config
 .text          0x000000001000a578       0xe0 /home/leon/git/swp-report/iMX6_Platform_SDK/output/mx6sdl/lib/libboard_smart_device_rev_b.a(ecspi1_iomux_config.o)
                0x000000001000a578                ecspi1_iomux_config
 .text          0x000000001000a658      0x424 /home/leon/git/swp-report/iMX6_Platform_SDK/output/mx6sdl/lib/libboard_smart_device_rev_b.a(enet_iomux_config.o)
                0x000000001000a658                enet_iomux_config
 .text          0x000000001000aa7c      0x66c /home/leon/git/swp-report/iMX6_Platform_SDK/output/mx6sdl/lib/libboard_smart_device_rev_b.a(epdc_iomux_config.o)
                0x000000001000aa7c                epdc_iomux_config
 .text          0x000000001000b0e8       0x68 /home/leon/git/swp-report/iMX6_Platform_SDK/output/mx6sdl/lib/libboard_smart_device_rev_b.a(flexcan1_iomux_config.o)
                0x000000001000b0e8                flexcan1_iomux_config
 .text          0x000000001000b150      0x208 /home/leon/git/swp-report/iMX6_Platform_SDK/output/mx6sdl/lib/libboard_smart_device_rev_b.a(gpio1_iomux_config.o)
                0x000000001000b150                gpio1_iomux_config
 .text          0x000000001000b358      0x164 /home/leon/git/swp-report/iMX6_Platform_SDK/output/mx6sdl/lib/libboard_smart_device_rev_b.a(gpio2_iomux_config.o)
                0x000000001000b358                gpio2_iomux_config
 .text          0x000000001000b4bc      0x210 /home/leon/git/swp-report/iMX6_Platform_SDK/output/mx6sdl/lib/libboard_smart_device_rev_b.a(gpio3_iomux_config.o)
                0x000000001000b4bc                gpio3_iomux_config
 .text          0x000000001000b6cc       0xc4 /home/leon/git/swp-report/iMX6_Platform_SDK/output/mx6sdl/lib/libboard_smart_device_rev_b.a(gpio4_iomux_config.o)
                0x000000001000b6cc                gpio4_iomux_config
 .text          0x000000001000b790       0x74 /home/leon/git/swp-report/iMX6_Platform_SDK/output/mx6sdl/lib/libboard_smart_device_rev_b.a(gpio5_iomux_config.o)
                0x000000001000b790                gpio5_iomux_config
 .text          0x000000001000b804      0x150 /home/leon/git/swp-report/iMX6_Platform_SDK/output/mx6sdl/lib/libboard_smart_device_rev_b.a(gpio6_iomux_config.o)
                0x000000001000b804                gpio6_iomux_config
 .text          0x000000001000b954       0x7c /home/leon/git/swp-report/iMX6_Platform_SDK/output/mx6sdl/lib/libboard_smart_device_rev_b.a(gpio7_iomux_config.o)
                0x000000001000b954                gpio7_iomux_config
 .text          0x000000001000b9d0       0xdc /home/leon/git/swp-report/iMX6_Platform_SDK/output/mx6sdl/lib/libboard_smart_device_rev_b.a(gps_iomux_config.o)
                0x000000001000b9d0                gps_iomux_config
 .text          0x000000001000baac       0x78 /home/leon/git/swp-report/iMX6_Platform_SDK/output/mx6sdl/lib/libboard_smart_device_rev_b.a(i2c1_iomux_config.o)
                0x000000001000baac                i2c1_iomux_config
 .text          0x000000001000bb24       0x78 /home/leon/git/swp-report/iMX6_Platform_SDK/output/mx6sdl/lib/libboard_smart_device_rev_b.a(i2c2_iomux_config.o)
                0x000000001000bb24                i2c2_iomux_config
 .text          0x000000001000bb9c       0x78 /home/leon/git/swp-report/iMX6_Platform_SDK/output/mx6sdl/lib/libboard_smart_device_rev_b.a(i2c3_iomux_config.o)
                0x000000001000bb9c                i2c3_iomux_config
 .text          0x000000001000bc14       0x64 /home/src/arm/target/bin/../arm-none-eabi/lib//libc.a(lib_a-assert.o)
                0x000000001000bc14                __assert_func
                0x000000001000bc68                __assert
 .text          0x000000001000bc78       0x20 /home/src/arm/target/bin/../arm-none-eabi/lib//libc.a(lib_a-bzero.o)
                0x000000001000bc78                bzero
 .text          0x000000001000bc98       0x70 /home/src/arm/target/bin/../arm-none-eabi/lib//libc.a(lib_a-fiprintf.o)
                0x000000001000bc98                _fiprintf_r
                0x000000001000bcc8                fiprintf
 .text          0x000000001000bd08       0x8c /home/src/arm/target/bin/../arm-none-eabi/lib//libc.a(lib_a-fputc.o)
                0x000000001000bd08                _fputc_r
                0x000000001000bd4c                fputc
 .text          0x000000001000bd94        0x0 /home/src/arm/target/bin/../arm-none-eabi/lib//libc.a(lib_a-impure.o)
 .text          0x000000001000bd94       0x88 /home/src/arm/target/bin/../arm-none-eabi/lib//libc.a(lib_a-init.o)
                0x000000001000bd94                __libc_init_array
 .text          0x000000001000be1c       0x40 /home/src/arm/target/bin/../arm-none-eabi/lib//libc.a(lib_a-malloc.o)
                0x000000001000be1c                malloc
                0x000000001000be3c                free
 .text          0x000000001000be5c      0x72c /home/src/arm/target/bin/../arm-none-eabi/lib//libc.a(lib_a-mallocr.o)
                0x000000001000be5c                _malloc_r
 .text          0x000000001000c588       0xf0 /home/src/arm/target/bin/../arm-none-eabi/lib//libc.a(lib_a-memcpy-stub.o)
                0x000000001000c588                memcpy
 .text          0x000000001000c678       0xf4 /home/src/arm/target/bin/../arm-none-eabi/lib//libc.a(lib_a-memset.o)
                0x000000001000c678                memset
 .text          0x000000001000c76c        0x8 /home/src/arm/target/bin/../arm-none-eabi/lib//libc.a(lib_a-mlock.o)
                0x000000001000c76c                __malloc_lock
                0x000000001000c770                __malloc_unlock
 .text          0x000000001000c774       0x74 /home/src/arm/target/bin/../arm-none-eabi/lib//libc.a(lib_a-printf.o)
                0x000000001000c774                _printf_r
                0x000000001000c7a8                printf
 .text          0x000000001000c7e8      0x158 /home/src/arm/target/bin/../arm-none-eabi/lib//libc.a(lib_a-putc.o)
                0x000000001000c7e8                _putc_r
                0x000000001000c88c                putc
 .text          0x000000001000c940       0x24 /home/src/arm/target/bin/../arm-none-eabi/lib//libc.a(lib_a-realloc.o)
                0x000000001000c940                realloc
 .text          0x000000001000c964      0x56c /home/src/arm/target/bin/../arm-none-eabi/lib//libc.a(lib_a-reallocr.o)
                0x000000001000c964                _realloc_r
 .text          0x000000001000ced0       0x70 /home/src/arm/target/bin/../arm-none-eabi/lib//libc.a(lib_a-rget.o)
                0x000000001000ced0                __srget_r
                0x000000001000cf2c                __srget
 .text          0x000000001000cf40       0x44 /home/src/arm/target/bin/../arm-none-eabi/lib//libc.a(lib_a-sbrkr.o)
                0x000000001000cf40                _sbrk_r
 .text          0x000000001000cf84      0x9f4 /home/src/arm/target/bin/../arm-none-eabi/lib//libc.a(lib_a-syscalls.o)
                0x000000001000d038                initialise_monitor_handles
                0x000000001000d0fc                _swiread
                0x000000001000d13c                _read
                0x000000001000d200                _swilseek
                0x000000001000d30c                _lseek
                0x000000001000d32c                _swiwrite
                0x000000001000d36c                _write
                0x000000001000d434                _swiopen
                0x000000001000d534                _open
                0x000000001000d568                _swiclose
                0x000000001000d5e0                _close
                0x000000001000d600                _kill
                0x000000001000d638                _exit
                0x000000001000d660                _getpid
                0x000000001000d668                _sbrk
                0x000000001000d6c0                _fstat
                0x000000001000d6f4                _stat
                0x000000001000d748                _link
                0x000000001000d750                _unlink
                0x000000001000d7a4                _raise
                0x000000001000d7a8                _gettimeofday
                0x000000001000d7f8                _times
                0x000000001000d83c                _isatty
                0x000000001000d88c                _system
                0x000000001000d910                _rename
 .text          0x000000001000d978     0x1238 /home/src/arm/target/bin/../arm-none-eabi/lib//libc.a(lib_a-vfiprintf.o)
                0x000000001000da24                __sprint_r
                0x000000001000da3c                _vfiprintf_r
                0x000000001000eab8                vfiprintf
 .text          0x000000001000ebb0     0x1e98 /home/src/arm/target/bin/../arm-none-eabi/lib//libc.a(lib_a-vfprintf.o)
                0x000000001000ebb0                _vfprintf_r
                0x0000000010010950                vfprintf
 .text          0x0000000010010a48       0x48 /home/src/arm/target/bin/../arm-none-eabi/lib//libc.a(lib_a-vprintf.o)
                0x0000000010010a48                vprintf
                0x0000000010010a74                _vprintf_r
 .text          0x0000000010010a90      0x13c /home/src/arm/target/bin/../arm-none-eabi/lib//libc.a(lib_a-wbuf.o)
                0x0000000010010a90                __swbuf_r
                0x0000000010010bb4                __swbuf
 .text          0x0000000010010bcc      0x15c /home/src/arm/target/bin/../arm-none-eabi/lib//libc.a(lib_a-wsetup.o)
                0x0000000010010bcc                __swsetup_r
 .text          0x0000000010010d28       0x14 /home/src/arm/target/bin/../arm-none-eabi/lib//libc.a(lib_a-abort.o)
                0x0000000010010d28                abort
 *fill*         0x0000000010010d3c        0x4 
 .text          0x0000000010010d40     0x18d8 /home/src/arm/target/bin/../arm-none-eabi/lib//libc.a(lib_a-dtoa.o)
                0x0000000010010f20                _dtoa_r
 .text          0x0000000010012618       0x10 /home/src/arm/target/bin/../arm-none-eabi/lib//libc.a(lib_a-errno.o)
                0x0000000010012618                __errno
 .text          0x0000000010012628      0x2d4 /home/src/arm/target/bin/../arm-none-eabi/lib//libc.a(lib_a-fflush.o)
                0x0000000010012628                __sflush_r
                0x000000001001286c                _fflush_r
                0x00000000100128c0                fflush
 .text          0x00000000100128fc      0x354 /home/src/arm/target/bin/../arm-none-eabi/lib//libc.a(lib_a-findfp.o)
                0x000000001001290c                _cleanup_r
                0x0000000010012924                __sfmoreglue
                0x0000000010012974                _cleanup
                0x0000000010012998                __sinit
                0x0000000010012b00                __sfp
                0x0000000010012bf8                __sfp_lock_acquire
                0x0000000010012bfc                __sfp_lock_release
                0x0000000010012c00                __sinit_lock_acquire
                0x0000000010012c04                __sinit_lock_release
                0x0000000010012c08                __fp_lock_all
                0x0000000010012c2c                __fp_unlock_all
 .text          0x0000000010012c50      0x188 /home/src/arm/target/bin/../arm-none-eabi/lib//libc.a(lib_a-fputwc.o)
                0x0000000010012c50                _fputwc_r
                0x0000000010012d94                fputwc
 .text          0x0000000010012dd8      0x36c /home/src/arm/target/bin/../arm-none-eabi/lib//libc.a(lib_a-freer.o)
                0x0000000010012dd8                _malloc_trim_r
                0x0000000010012ed8                _free_r
 .text          0x0000000010013144      0x4dc /home/src/arm/target/bin/../arm-none-eabi/lib//libc.a(lib_a-fvwrite.o)
                0x0000000010013144                __sfvwrite_r
 .text          0x0000000010013620      0x110 /home/src/arm/target/bin/../arm-none-eabi/lib//libc.a(lib_a-fwalk.o)
                0x0000000010013620                _fwalk
                0x00000000100136a4                _fwalk_reent
 .text          0x0000000010013730       0xd0 /home/src/arm/target/bin/../arm-none-eabi/lib//libc.a(lib_a-locale.o)
                0x0000000010013730                _setlocale_r
                0x00000000100137a0                __locale_charset
                0x00000000100137ac                __locale_mb_cur_max
                0x00000000100137bc                __locale_msgcharset
                0x00000000100137c8                __locale_cjk_lang
                0x00000000100137d0                _localeconv_r
                0x00000000100137dc                setlocale
                0x00000000100137f4                localeconv
 .text          0x0000000010013800      0x174 /home/src/arm/target/bin/../arm-none-eabi/lib//libc.a(lib_a-makebuf.o)
                0x0000000010013800                __smakebuf_r
 .text          0x0000000010013974      0x114 /home/src/arm/target/bin/../arm-none-eabi/lib//libc.a(lib_a-memchr-stub.o)
                0x0000000010013974                memchr
 .text          0x0000000010013a88      0x134 /home/src/arm/target/bin/../arm-none-eabi/lib//libc.a(lib_a-memmove.o)
                0x0000000010013a88                memmove
 .text          0x0000000010013bbc      0xd30 /home/src/arm/target/bin/../arm-none-eabi/lib//libc.a(lib_a-mprec.o)
                0x0000000010013bbc                _Balloc
                0x0000000010013c48                _Bfree
                0x0000000010013c64                __multadd
                0x0000000010013d40                __s2b
                0x0000000010013e28                __hi0bits
                0x0000000010013e84                __lo0bits
                0x0000000010013f18                __i2b
                0x0000000010013f3c                __multiply
                0x0000000010014124                __pow5mult
                0x0000000010014228                __lshift
                0x0000000010014334                __mcmp
                0x0000000010014394                __mdiff
                0x00000000100144d8                __ulp
                0x000000001001453c                __b2d
                0x0000000010014614                __d2b
                0x0000000010014720                __ratio
                0x00000000100147a8                _mprec_log10
                0x0000000010014800                __copybits
                0x0000000010014870                __any_on
 .text          0x00000000100148ec      0x134 /home/src/arm/target/bin/../arm-none-eabi/lib//libc.a(lib_a-reent.o)
                0x00000000100148ec                cleanup_glue
                0x0000000010014918                _reclaim_reent
 .text          0x0000000010014a20      0x20c /home/src/arm/target/bin/../arm-none-eabi/lib//libc.a(lib_a-refill.o)
                0x0000000010014a4c                __srefill_r
 .text          0x0000000010014c2c       0x6c /home/src/arm/target/bin/../arm-none-eabi/lib//libc.a(lib_a-s_fpclassify.o)
                0x0000000010014c2c                __fpclassifyd
 .text          0x0000000010014c98      0x254 /home/src/arm/target/bin/../arm-none-eabi/lib//libc.a(lib_a-signal.o)
                0x0000000010014c98                _init_signal_r
                0x0000000010014cfc                _signal_r
                0x0000000010014d70                _raise_r
                0x0000000010014e08                __sigtramp_r
                0x0000000010014e9c                raise
                0x0000000010014eb0                signal
                0x0000000010014ec8                _init_signal
                0x0000000010014ed8                __sigtramp
 .text          0x0000000010014eec       0x50 /home/src/arm/target/bin/../arm-none-eabi/lib//libc.a(lib_a-signalr.o)
                0x0000000010014eec                _kill_r
                0x0000000010014f2c                _getpid_r
 .text          0x0000000010014f3c       0xd8 /home/src/arm/target/bin/../arm-none-eabi/lib//libc.a(lib_a-stdio.o)
                0x0000000010014f3c                __sread
                0x0000000010014f70                __seofread
                0x0000000010014f78                __swrite
                0x0000000010014fd0                __sseek
                0x0000000010015000                __sclose
 .text          0x0000000010015014      0x230 /home/src/arm/target/bin/../arm-none-eabi/lib//libc.a(lib_a-strcmp.o)
                0x0000000010015014                strcmp
 .text          0x0000000010015244       0x60 /home/src/arm/target/bin/../arm-none-eabi/lib//libc.a(lib_a-strlen.o)
                0x0000000010015244                strlen
 .text          0x00000000100152a4      0x128 /home/src/arm/target/bin/../arm-none-eabi/lib//libc.a(lib_a-wcrtomb.o)
                0x00000000100152a4                _wcrtomb_r
                0x0000000010015334                wcrtomb
 .text          0x00000000100153cc       0x7c /home/src/arm/target/bin/../arm-none-eabi/lib//libc.a(lib_a-wctomb_r.o)
                0x00000000100153cc                __ascii_wctomb
                0x00000000100153f8                _wctomb_r
 .text          0x0000000010015448       0x44 /home/src/arm/target/bin/../arm-none-eabi/lib//libc.a(lib_a-writer.o)
                0x0000000010015448                _write_r
 .text          0x000000001001548c       0x9c /home/src/arm/target/bin/../arm-none-eabi/lib//libc.a(lib_a-callocr.o)
                0x000000001001548c                _calloc_r
 .text          0x0000000010015528       0x3c /home/src/arm/target/bin/../arm-none-eabi/lib//libc.a(lib_a-closer.o)
                0x0000000010015528                _close_r
 .text          0x0000000010015564      0x104 /home/src/arm/target/bin/../arm-none-eabi/lib//libc.a(lib_a-fclose.o)
                0x0000000010015564                _fclose_r
                0x0000000010015654                fclose
 .text          0x0000000010015668       0x40 /home/src/arm/target/bin/../arm-none-eabi/lib//libc.a(lib_a-fstatr.o)
                0x0000000010015668                _fstat_r
 .text          0x00000000100156a8       0x3c /home/src/arm/target/bin/../arm-none-eabi/lib//libc.a(lib_a-isattyr.o)
                0x00000000100156a8                _isatty_r
 .text          0x00000000100156e4       0x44 /home/src/arm/target/bin/../arm-none-eabi/lib//libc.a(lib_a-lseekr.o)
                0x00000000100156e4                _lseek_r
 .text          0x0000000010015728       0x44 /home/src/arm/target/bin/../arm-none-eabi/lib//libc.a(lib_a-readr.o)
                0x0000000010015728                _read_r
 .text          0x000000001001576c      0x114 /home/src/arm/target/bin/../lib/gcc/arm-none-eabi/4.8.2//libgcc.a(_udivsi3.o)
                0x000000001001576c                __udivsi3
                0x000000001001576c                __aeabi_uidiv
                0x0000000010015860                __aeabi_uidivmod
 .text          0x0000000010015880      0x148 /home/src/arm/target/bin/../lib/gcc/arm-none-eabi/4.8.2//libgcc.a(_divsi3.o)
                0x0000000010015880                __aeabi_idiv
                0x0000000010015880                __divsi3
                0x00000000100159a8                __aeabi_idivmod
 .text          0x00000000100159c8        0x4 /home/src/arm/target/bin/../lib/gcc/arm-none-eabi/4.8.2//libgcc.a(_dvmd_tls.o)
                0x00000000100159c8                __aeabi_ldiv0
                0x00000000100159c8                __aeabi_idiv0
 .text          0x00000000100159cc      0x41c /home/src/arm/target/bin/../lib/gcc/arm-none-eabi/4.8.2//libgcc.a(_arm_addsubdf3.o)
                0x00000000100159cc                __aeabi_drsub
                0x00000000100159d4                __aeabi_dsub
                0x00000000100159d4                __subdf3
                0x00000000100159d8                __adddf3
                0x00000000100159d8                __aeabi_dadd
                0x0000000010015ce8                __aeabi_ui2d
                0x0000000010015ce8                __floatunsidf
                0x0000000010015d0c                __floatsidf
                0x0000000010015d0c                __aeabi_i2d
                0x0000000010015d34                __extendsfdf2
                0x0000000010015d34                __aeabi_f2d
                0x0000000010015d74                __aeabi_ul2d
                0x0000000010015d74                __floatundidf
                0x0000000010015d88                __floatdidf
                0x0000000010015d88                __aeabi_l2d
 .text          0x0000000010015de8      0x49c /home/src/arm/target/bin/../lib/gcc/arm-none-eabi/4.8.2//libgcc.a(_arm_muldivdf3.o)
                0x0000000010015de8                __aeabi_dmul
                0x0000000010015de8                __muldf3
                0x0000000010016078                __aeabi_ddiv
                0x0000000010016078                __divdf3
 .text          0x0000000010016284      0x144 /home/src/arm/target/bin/../lib/gcc/arm-none-eabi/4.8.2//libgcc.a(_arm_cmpdf2.o)
                0x0000000010016284                __gtdf2
                0x0000000010016284                __gedf2
                0x000000001001628c                __ltdf2
                0x000000001001628c                __ledf2
                0x0000000010016294                __cmpdf2
                0x0000000010016294                __eqdf2
                0x0000000010016294                __nedf2
                0x000000001001631c                __aeabi_cdrcmple
                0x0000000010016338                __aeabi_cdcmple
                0x0000000010016338                __aeabi_cdcmpeq
                0x0000000010016350                __aeabi_dcmpeq
                0x0000000010016368                __aeabi_dcmplt
                0x0000000010016380                __aeabi_dcmple
                0x0000000010016398                __aeabi_dcmpge
                0x00000000100163b0                __aeabi_dcmpgt
 .text          0x00000000100163c8       0x5c /home/src/arm/target/bin/../lib/gcc/arm-none-eabi/4.8.2//libgcc.a(_arm_fixdfsi.o)
                0x00000000100163c8                __fixdfsi
                0x00000000100163c8                __aeabi_d2iz
 .text          0x0000000010016424       0x3c /home/src/arm/target/bin/../lib/gcc/arm-none-eabi/4.8.2//libgcc.a(_aeabi_uldivmod.o)
                0x0000000010016424                __aeabi_uldivmod
 .text          0x0000000010016460       0x84 /home/src/arm/target/bin/../lib/gcc/arm-none-eabi/4.8.2//libgcc.a(bpabi.o)
                0x0000000010016460                __gnu_ldivmod_helper
                0x00000000100164a4                __gnu_uldivmod_helper
 .text          0x00000000100164e4      0x4d0 /home/src/arm/target/bin/../lib/gcc/arm-none-eabi/4.8.2//libgcc.a(_divdi3.o)
                0x00000000100164e4                __divdi3
 .text          0x00000000100169b4      0x470 /home/src/arm/target/bin/../lib/gcc/arm-none-eabi/4.8.2//libgcc.a(_udivdi3.o)
                0x00000000100169b4                __udivdi3
 .text          0x0000000010016e24       0x48 /home/src/arm/target/bin/../lib/gcc/arm-none-eabi/4.8.2//libgcc.a(_clzsi2.o)
                0x0000000010016e24                __clzsi2
 *(.glue_7t)
 .glue_7t       0x0000000000000000        0x0 linker stubs
 *(.glue_7)
 .glue_7        0x0000000000000000        0x0 linker stubs
 *(.vfp11_veneer)
 .vfp11_veneer  0x0000000000000000        0x0 linker stubs
 *(.ARM.extab* .gnu.linkonce.armextab.*)
 .ARM.extab.startup
                0x0000000010016e6c        0x0 /home/leon/git/swp-report/iMX6_Platform_SDK/output/mx6sdl/lib/libsdk.a(startup.o)
 .ARM.extab     0x0000000010016e6c        0x0 /home/src/arm/target/bin/../lib/gcc/arm-none-eabi/4.8.2//libgcc.a(_divdi3.o)
 .ARM.extab     0x0000000010016e6c        0x0 /home/src/arm/target/bin/../lib/gcc/arm-none-eabi/4.8.2//libgcc.a(_udivdi3.o)
 *(.gcc_except_table)

.v4_bx          0x0000000010016e6c        0x0
 .v4_bx         0x0000000000000000        0x0 linker stubs

.iplt           0x0000000010016e6c        0x0
 .iplt          0x0000000000000000        0x0 /home/src/arm/target/bin/../lib/gcc/arm-none-eabi/4.8.2//crtbegin.o

.ctors
 *crtbegin.o(.ctors)
 *crtbegin?.o(.ctors)
 *(EXCLUDE_FILE(*crtend?.o *crtend.o) .ctors)
 *(SORT(.ctors.*))
 *(.ctors)

.dtors
 *crtbegin.o(.dtors)
 *crtbegin?.o(.dtors)
 *(EXCLUDE_FILE(*crtend?.o *crtend.o) .dtors)
 *(SORT(.dtors.*))
 *(.dtors)

.rodata         0x0000000010016e70      0xb90
 *(.rodata .rodata.* .gnu.linkonce.r.*)
 .rodata        0x0000000010016e70      0x180 /home/leon/git/swp-report/iMX6_Platform_SDK/output/mx6sdl/caam_blob_gen/smart_device_rev_b/obj/apps/caam_blob_gen/src/caam_blob_gen.o
 .rodata        0x0000000010016ff0       0x34 /home/leon/git/swp-report/iMX6_Platform_SDK/output/mx6sdl/lib/libsdk.a(ccm_pll.o)
                0x0000000010016ff0                PLL1_OUTPUT
                0x0000000010016ff4                PLL2_OUTPUT
                0x0000000010017008                PLL3_OUTPUT
                0x000000001001701c                PLL4_OUTPUT
                0x0000000010017020                PLL5_OUTPUT
 .rodata        0x0000000010017024       0x64 /home/leon/git/swp-report/iMX6_Platform_SDK/output/mx6sdl/lib/libsdk.a(gic.o)
 .rodata        0x0000000010017088       0xcc /home/leon/git/swp-report/iMX6_Platform_SDK/output/mx6sdl/lib/libsdk.a(system_util.o)
 .rodata        0x0000000010017154       0xf4 /home/leon/git/swp-report/iMX6_Platform_SDK/output/mx6sdl/lib/libsdk.a(text_color.o)
                0x000000001001715c                g_TextAttributeDefault
                0x0000000010017168                g_TextAttributeBold
                0x0000000010017174                g_TextAttributeDim
                0x0000000010017180                g_TextAttributeUnderline
                0x000000001001718c                g_TextAttributeBlink
                0x0000000010017198                g_TextAttributeReverse
                0x00000000100171a4                g_TextAttributeHidden
                0x00000000100171b0                g_TextColorBlack
                0x00000000100171bc                g_TextColorRed
                0x00000000100171c8                g_TextColorGreen
                0x00000000100171d4                g_TextColorYellow
                0x00000000100171e0                g_TextColorBlue
                0x00000000100171ec                g_TextColorMagenta
                0x00000000100171f8                g_TextColorCyan
                0x0000000010017204                g_TextColorWhite
                0x0000000010017214                g_TextColorOrange
                0x0000000010017224                g_TextColorLightBlue
                0x0000000010017234                g_TextColorGray
                0x0000000010017244                g_TextColorPurple
 .rodata        0x0000000010017248      0x298 /home/leon/git/swp-report/iMX6_Platform_SDK/output/mx6sdl/lib/libsdk.a(caam.o)
 .rodata        0x00000000100174e0       0x20 /home/leon/git/swp-report/iMX6_Platform_SDK/output/mx6sdl/lib/libsdk.a(interrupt.o)
 .rodata        0x0000000010017500      0x230 /home/leon/git/swp-report/iMX6_Platform_SDK/output/mx6sdl/lib/libsdk.a(abort_handler.o)
 .rodata        0x0000000010017730       0x84 /home/leon/git/swp-report/iMX6_Platform_SDK/output/mx6sdl/lib/libboard_smart_device_rev_b.a(uart_iomux_config.o)
 .rodata.str1.4
                0x00000000100177b4       0x3f /home/src/arm/target/bin/../arm-none-eabi/lib//libc.a(lib_a-assert.o)
                                         0x44 (size before relaxing)
 *fill*         0x00000000100177f3        0x1 
 .rodata        0x00000000100177f4        0x4 /home/src/arm/target/bin/../arm-none-eabi/lib//libc.a(lib_a-impure.o)
                0x00000000100177f4                _global_impure_ptr
 .rodata.str1.4
                0x00000000100177f8        0x2 /home/src/arm/target/bin/../arm-none-eabi/lib//libc.a(lib_a-impure.o)
                                          0x4 (size before relaxing)
 *fill*         0x00000000100177fa        0x2 
 .rodata.str1.4
                0x00000000100177fc        0x4 /home/src/arm/target/bin/../arm-none-eabi/lib//libc.a(lib_a-syscalls.o)
 .rodata        0x0000000010017800       0x20 /home/src/arm/target/bin/../arm-none-eabi/lib//libc.a(lib_a-vfiprintf.o)
 .rodata.str1.4
                0x0000000010017820       0x2f /home/src/arm/target/bin/../arm-none-eabi/lib//libc.a(lib_a-vfiprintf.o)
                                         0x30 (size before relaxing)
 *fill*         0x000000001001784f        0x1 
 .rodata        0x0000000010017850       0x20 /home/src/arm/target/bin/../arm-none-eabi/lib//libc.a(lib_a-vfprintf.o)
 .rodata.str1.4
                0x0000000010017870       0x12 /home/src/arm/target/bin/../arm-none-eabi/lib//libc.a(lib_a-vfprintf.o)
                                         0x44 (size before relaxing)
 *fill*         0x0000000010017882        0x2 
 .rodata.str1.4
                0x0000000010017884       0x10 /home/src/arm/target/bin/../arm-none-eabi/lib//libc.a(lib_a-dtoa.o)
                                         0x14 (size before relaxing)
 .rodata.str1.4
                0x0000000010017894        0xc /home/src/arm/target/bin/../arm-none-eabi/lib//libc.a(lib_a-locale.o)
                                         0x14 (size before relaxing)
 .rodata        0x00000000100178a0      0x128 /home/src/arm/target/bin/../arm-none-eabi/lib//libc.a(lib_a-mprec.o)
                0x00000000100178b0                __mprec_tens
                0x0000000010017978                __mprec_tinytens
                0x00000000100179a0                __mprec_bigtens
                0x00000000100179c8                . = ALIGN (0x4)
 *(.init)
 .init          0x00000000100179c8        0xc /home/src/arm/target/bin/../lib/gcc/arm-none-eabi/4.8.2//crti.o
                0x00000000100179c8                _init
 .init          0x00000000100179d4        0xc /home/src/arm/target/bin/../lib/gcc/arm-none-eabi/4.8.2//crtn.o
                0x00000000100179e0                . = ALIGN (0x4)
                0x00000000100179e0                __init_array_start = .
 *(SORT(.init_array.*))
 *(.init_array)
 .init_array    0x00000000100179e0        0x4 /home/src/arm/target/bin/../lib/gcc/arm-none-eabi/4.8.2//crtbegin.o
                0x00000000100179e4                __init_array_end = .
                0x00000000100179e4                . = ALIGN (0x4)
 *(.fini)
 .fini          0x00000000100179e4        0xc /home/src/arm/target/bin/../lib/gcc/arm-none-eabi/4.8.2//crti.o
                0x00000000100179e4                _fini
 .fini          0x00000000100179f0        0xc /home/src/arm/target/bin/../lib/gcc/arm-none-eabi/4.8.2//crtn.o
                0x00000000100179fc                . = ALIGN (0x4)
                0x00000000100179fc                __fini_array_start = .
 *(.fini_array)
 .fini_array    0x00000000100179fc        0x4 /home/src/arm/target/bin/../lib/gcc/arm-none-eabi/4.8.2//crtbegin.o
 *(SORT(.fini_array.*))
                0x0000000010017a00                __fini_array_end = .
                0x0000000010017a00                PROVIDE (__exidx_start, .)

.eh_frame       0x0000000010017a00        0x4
 .eh_frame      0x0000000010017a00        0x0 /home/src/arm/target/bin/../lib/gcc/arm-none-eabi/4.8.2//crtbegin.o
 .eh_frame      0x0000000010017a00        0x4 /home/src/arm/target/bin/../lib/gcc/arm-none-eabi/4.8.2//crtend.o

.ARM.exidx      0x0000000010017a04        0x8
 *(.ARM.exidx* .gnu.linkonce.armexidx.*)
 .ARM.exidx.startup
                0x0000000010017a04        0x8 /home/leon/git/swp-report/iMX6_Platform_SDK/output/mx6sdl/lib/libsdk.a(startup.o)
 .ARM.exidx     0x0000000010017a0c        0x0 /home/src/arm/target/bin/../lib/gcc/arm-none-eabi/4.8.2//libgcc.a(_divdi3.o)
                                          0x8 (size before relaxing)
 .ARM.exidx     0x0000000010017a0c        0x0 /home/src/arm/target/bin/../lib/gcc/arm-none-eabi/4.8.2//libgcc.a(_udivdi3.o)
                                          0x8 (size before relaxing)
                0x0000000010017a0c                PROVIDE (__exidx_end, .)

.rel.dyn        0x0000000010017a0c        0x0
 .rel.iplt      0x0000000000000000        0x0 /home/src/arm/target/bin/../lib/gcc/arm-none-eabi/4.8.2//crtbegin.o

.data           0x0000000010017a10      0x968
 *(.data .data.* .gnu.linkonce.d.*)
 .data          0x0000000010017a10        0x4 /home/src/arm/target/bin/../lib/gcc/arm-none-eabi/4.8.2//crtbegin.o
                0x0000000010017a10                __dso_handle
 .data          0x0000000010017a14        0x0 /home/src/arm/target/bin/../lib/gcc/arm-none-eabi/4.8.2//crti.o
 .data          0x0000000010017a14        0x0 /home/src/arm/target/bin/../lib/gcc/arm-none-eabi/4.8.2//crtend.o
 .data          0x0000000010017a14        0x0 /home/src/arm/target/bin/../lib/gcc/arm-none-eabi/4.8.2//crtn.o
 .data          0x0000000010017a14        0x8 /home/leon/git/swp-report/iMX6_Platform_SDK/output/mx6sdl/caam_blob_gen/smart_device_rev_b/obj/apps/caam_blob_gen/src/caam_blob_gen.o
                0x0000000010017a14                wrapped_key_hdr
 .data          0x0000000010017a1c        0x0 /home/leon/git/swp-report/iMX6_Platform_SDK/output/mx6sdl/caam_blob_gen/smart_device_rev_b/obj/apps/common/ivt.o
 .data          0x0000000010017a1c        0x0 /home/leon/git/swp-report/iMX6_Platform_SDK/output/mx6sdl/caam_blob_gen/smart_device_rev_b/obj/apps/common/platform_init.o
 .data          0x0000000010017a1c        0x0 /home/leon/git/swp-report/iMX6_Platform_SDK/output/mx6sdl/lib/libsdk.a(ccm_pll.o)
 .data          0x0000000010017a1c        0x0 /home/leon/git/swp-report/iMX6_Platform_SDK/output/mx6sdl/lib/libsdk.a(cortexA9.o)
 .data          0x0000000010017a1c        0x0 /home/leon/git/swp-report/iMX6_Platform_SDK/output/mx6sdl/lib/libsdk.a(gic.o)
 .data          0x0000000010017a1c        0x0 /home/leon/git/swp-report/iMX6_Platform_SDK/output/mx6sdl/lib/libsdk.a(mmu.o)
 .data          0x0000000010017a1c        0x0 /home/leon/git/swp-report/iMX6_Platform_SDK/output/mx6sdl/lib/libsdk.a(startup.o)
 .data          0x0000000010017a1c        0x0 /home/leon/git/swp-report/iMX6_Platform_SDK/output/mx6sdl/lib/libsdk.a(vectors.o)
 .data          0x0000000010017a1c        0x0 /home/leon/git/swp-report/iMX6_Platform_SDK/output/mx6sdl/lib/libsdk.a(system_util.o)
 .data          0x0000000010017a1c        0x4 /home/leon/git/swp-report/iMX6_Platform_SDK/output/mx6sdl/lib/libsdk.a(text_color.o)
                0x0000000010017a1c                is_color_supported
 .data          0x0000000010017a20       0x8c /home/leon/git/swp-report/iMX6_Platform_SDK/output/mx6sdl/lib/libsdk.a(caam.o)
                0x0000000010017a20                decap_dsc
                0x0000000010017a44                encap_dsc
                0x0000000010017a68                rng_inst_dsc
                0x0000000010017a8c                encrypt_dsc
 .data          0x0000000010017aac        0x0 /home/leon/git/swp-report/iMX6_Platform_SDK/output/mx6sdl/lib/libsdk.a(timer.o)
 .data          0x0000000010017aac        0x0 /home/leon/git/swp-report/iMX6_Platform_SDK/output/mx6sdl/lib/libsdk.a(imx_uart.o)
 .data          0x0000000010017aac        0x4 /home/leon/git/swp-report/iMX6_Platform_SDK/output/mx6sdl/lib/libsdk.a(arm_abort.o)
 .data          0x0000000010017ab0        0x0 /home/leon/git/swp-report/iMX6_Platform_SDK/output/mx6sdl/lib/libsdk.a(interrupt.o)
 .data          0x0000000010017ab0        0x0 /home/leon/git/swp-report/iMX6_Platform_SDK/output/mx6sdl/lib/libsdk.a(epit.o)
 .data          0x0000000010017ab0        0x0 /home/leon/git/swp-report/iMX6_Platform_SDK/output/mx6sdl/lib/libsdk.a(abort_handler.o)
 .data          0x0000000010017ab0        0x0 /home/leon/git/swp-report/iMX6_Platform_SDK/output/mx6sdl/lib/libboard_smart_device_rev_b.a(board_io_expanders.o)
 .data          0x0000000010017ab0        0x8 /home/leon/git/swp-report/iMX6_Platform_SDK/output/mx6sdl/lib/libboard_smart_device_rev_b.a(hardware_modules.o)
                0x0000000010017ab0                g_debug_uart_port
                0x0000000010017ab4                g_system_timer_port
 .data          0x0000000010017ab8        0x0 /home/leon/git/swp-report/iMX6_Platform_SDK/output/mx6sdl/lib/libboard_smart_device_rev_b.a(dcd.o)
 .data          0x0000000010017ab8        0x0 /home/leon/git/swp-report/iMX6_Platform_SDK/output/mx6sdl/lib/libboard_smart_device_rev_b.a(uart_iomux_config.o)
 .data          0x0000000010017ab8        0x0 /home/leon/git/swp-report/iMX6_Platform_SDK/output/mx6sdl/lib/libboard_smart_device_rev_b.a(iomux_config.o)
 .data          0x0000000010017ab8        0x0 /home/leon/git/swp-report/iMX6_Platform_SDK/output/mx6sdl/lib/libboard_smart_device_rev_b.a(ipu1_iomux_config.o)
 .data          0x0000000010017ab8        0x0 /home/leon/git/swp-report/iMX6_Platform_SDK/output/mx6sdl/lib/libboard_smart_device_rev_b.a(mmdc_iomux_config.o)
 .data          0x0000000010017ab8        0x0 /home/leon/git/swp-report/iMX6_Platform_SDK/output/mx6sdl/lib/libboard_smart_device_rev_b.a(pwm1_iomux_config.o)
 .data          0x0000000010017ab8        0x0 /home/leon/git/swp-report/iMX6_Platform_SDK/output/mx6sdl/lib/libboard_smart_device_rev_b.a(sjc_iomux_config.o)
 .data          0x0000000010017ab8        0x0 /home/leon/git/swp-report/iMX6_Platform_SDK/output/mx6sdl/lib/libboard_smart_device_rev_b.a(uart1_iomux_config.o)
 .data          0x0000000010017ab8        0x0 /home/leon/git/swp-report/iMX6_Platform_SDK/output/mx6sdl/lib/libboard_smart_device_rev_b.a(usb_iomux_config.o)
 .data          0x0000000010017ab8        0x0 /home/leon/git/swp-report/iMX6_Platform_SDK/output/mx6sdl/lib/libboard_smart_device_rev_b.a(usdhc2_iomux_config.o)
 .data          0x0000000010017ab8        0x0 /home/leon/git/swp-report/iMX6_Platform_SDK/output/mx6sdl/lib/libboard_smart_device_rev_b.a(usdhc3_iomux_config.o)
 .data          0x0000000010017ab8        0x0 /home/leon/git/swp-report/iMX6_Platform_SDK/output/mx6sdl/lib/libboard_smart_device_rev_b.a(usdhc4_iomux_config.o)
 .data          0x0000000010017ab8        0x0 /home/leon/git/swp-report/iMX6_Platform_SDK/output/mx6sdl/lib/libboard_smart_device_rev_b.a(audmux_iomux_config.o)
 .data          0x0000000010017ab8        0x0 /home/leon/git/swp-report/iMX6_Platform_SDK/output/mx6sdl/lib/libboard_smart_device_rev_b.a(ccm_iomux_config.o)
 .data          0x0000000010017ab8        0x0 /home/leon/git/swp-report/iMX6_Platform_SDK/output/mx6sdl/lib/libboard_smart_device_rev_b.a(ecspi1_iomux_config.o)
 .data          0x0000000010017ab8        0x0 /home/leon/git/swp-report/iMX6_Platform_SDK/output/mx6sdl/lib/libboard_smart_device_rev_b.a(enet_iomux_config.o)
 .data          0x0000000010017ab8        0x0 /home/leon/git/swp-report/iMX6_Platform_SDK/output/mx6sdl/lib/libboard_smart_device_rev_b.a(epdc_iomux_config.o)
 .data          0x0000000010017ab8        0x0 /home/leon/git/swp-report/iMX6_Platform_SDK/output/mx6sdl/lib/libboard_smart_device_rev_b.a(flexcan1_iomux_config.o)
 .data          0x0000000010017ab8        0x0 /home/leon/git/swp-report/iMX6_Platform_SDK/output/mx6sdl/lib/libboard_smart_device_rev_b.a(gpio1_iomux_config.o)
 .data          0x0000000010017ab8        0x0 /home/leon/git/swp-report/iMX6_Platform_SDK/output/mx6sdl/lib/libboard_smart_device_rev_b.a(gpio2_iomux_config.o)
 .data          0x0000000010017ab8        0x0 /home/leon/git/swp-report/iMX6_Platform_SDK/output/mx6sdl/lib/libboard_smart_device_rev_b.a(gpio3_iomux_config.o)
 .data          0x0000000010017ab8        0x0 /home/leon/git/swp-report/iMX6_Platform_SDK/output/mx6sdl/lib/libboard_smart_device_rev_b.a(gpio4_iomux_config.o)
 .data          0x0000000010017ab8        0x0 /home/leon/git/swp-report/iMX6_Platform_SDK/output/mx6sdl/lib/libboard_smart_device_rev_b.a(gpio5_iomux_config.o)
 .data          0x0000000010017ab8        0x0 /home/leon/git/swp-report/iMX6_Platform_SDK/output/mx6sdl/lib/libboard_smart_device_rev_b.a(gpio6_iomux_config.o)
 .data          0x0000000010017ab8        0x0 /home/leon/git/swp-report/iMX6_Platform_SDK/output/mx6sdl/lib/libboard_smart_device_rev_b.a(gpio7_iomux_config.o)
 .data          0x0000000010017ab8        0x0 /home/leon/git/swp-report/iMX6_Platform_SDK/output/mx6sdl/lib/libboard_smart_device_rev_b.a(gps_iomux_config.o)
 .data          0x0000000010017ab8        0x0 /home/leon/git/swp-report/iMX6_Platform_SDK/output/mx6sdl/lib/libboard_smart_device_rev_b.a(i2c1_iomux_config.o)
 .data          0x0000000010017ab8        0x0 /home/leon/git/swp-report/iMX6_Platform_SDK/output/mx6sdl/lib/libboard_smart_device_rev_b.a(i2c2_iomux_config.o)
 .data          0x0000000010017ab8        0x0 /home/leon/git/swp-report/iMX6_Platform_SDK/output/mx6sdl/lib/libboard_smart_device_rev_b.a(i2c3_iomux_config.o)
 .data          0x0000000010017ab8        0x0 /home/src/arm/target/bin/../arm-none-eabi/lib//libc.a(lib_a-assert.o)
 .data          0x0000000010017ab8        0x0 /home/src/arm/target/bin/../arm-none-eabi/lib//libc.a(lib_a-bzero.o)
 .data          0x0000000010017ab8        0x0 /home/src/arm/target/bin/../arm-none-eabi/lib//libc.a(lib_a-fiprintf.o)
 .data          0x0000000010017ab8        0x0 /home/src/arm/target/bin/../arm-none-eabi/lib//libc.a(lib_a-fputc.o)
 .data          0x0000000010017ab8      0x430 /home/src/arm/target/bin/../arm-none-eabi/lib//libc.a(lib_a-impure.o)
                0x0000000010017ab8                _impure_ptr
 .data          0x0000000010017ee8        0x0 /home/src/arm/target/bin/../arm-none-eabi/lib//libc.a(lib_a-init.o)
 .data          0x0000000010017ee8        0x0 /home/src/arm/target/bin/../arm-none-eabi/lib//libc.a(lib_a-malloc.o)
 .data          0x0000000010017ee8      0x410 /home/src/arm/target/bin/../arm-none-eabi/lib//libc.a(lib_a-mallocr.o)
                0x0000000010017ee8                __malloc_av_
                0x00000000100182f0                __malloc_sbrk_base
                0x00000000100182f4                __malloc_trim_threshold
 .data          0x00000000100182f8        0x0 /home/src/arm/target/bin/../arm-none-eabi/lib//libc.a(lib_a-memcpy-stub.o)
 .data          0x00000000100182f8        0x0 /home/src/arm/target/bin/../arm-none-eabi/lib//libc.a(lib_a-memset.o)
 .data          0x00000000100182f8        0x0 /home/src/arm/target/bin/../arm-none-eabi/lib//libc.a(lib_a-mlock.o)
 .data          0x00000000100182f8        0x0 /home/src/arm/target/bin/../arm-none-eabi/lib//libc.a(lib_a-printf.o)
 .data          0x00000000100182f8        0x0 /home/src/arm/target/bin/../arm-none-eabi/lib//libc.a(lib_a-putc.o)
 .data          0x00000000100182f8        0x0 /home/src/arm/target/bin/../arm-none-eabi/lib//libc.a(lib_a-realloc.o)
 .data          0x00000000100182f8        0x0 /home/src/arm/target/bin/../arm-none-eabi/lib//libc.a(lib_a-reallocr.o)
 .data          0x00000000100182f8        0x0 /home/src/arm/target/bin/../arm-none-eabi/lib//libc.a(lib_a-rget.o)
 .data          0x00000000100182f8        0x0 /home/src/arm/target/bin/../arm-none-eabi/lib//libc.a(lib_a-sbrkr.o)
 .data          0x00000000100182f8        0x0 /home/src/arm/target/bin/../arm-none-eabi/lib//libc.a(lib_a-syscalls.o)
 .data          0x00000000100182f8        0x0 /home/src/arm/target/bin/../arm-none-eabi/lib//libc.a(lib_a-vfiprintf.o)
 .data          0x00000000100182f8        0x0 /home/src/arm/target/bin/../arm-none-eabi/lib//libc.a(lib_a-vfprintf.o)
 .data          0x00000000100182f8        0x0 /home/src/arm/target/bin/../arm-none-eabi/lib//libc.a(lib_a-vprintf.o)
 .data          0x00000000100182f8        0x0 /home/src/arm/target/bin/../arm-none-eabi/lib//libc.a(lib_a-wbuf.o)
 .data          0x00000000100182f8        0x0 /home/src/arm/target/bin/../arm-none-eabi/lib//libc.a(lib_a-wsetup.o)
 .data          0x00000000100182f8        0x0 /home/src/arm/target/bin/../arm-none-eabi/lib//libc.a(lib_a-abort.o)
 .data          0x00000000100182f8        0x0 /home/src/arm/target/bin/../arm-none-eabi/lib//libc.a(lib_a-dtoa.o)
 .data          0x00000000100182f8        0x0 /home/src/arm/target/bin/../arm-none-eabi/lib//libc.a(lib_a-errno.o)
 .data          0x00000000100182f8        0x0 /home/src/arm/target/bin/../arm-none-eabi/lib//libc.a(lib_a-fflush.o)
 .data          0x00000000100182f8        0x0 /home/src/arm/target/bin/../arm-none-eabi/lib//libc.a(lib_a-findfp.o)
 .data          0x00000000100182f8        0x0 /home/src/arm/target/bin/../arm-none-eabi/lib//libc.a(lib_a-fputwc.o)
 .data          0x00000000100182f8        0x0 /home/src/arm/target/bin/../arm-none-eabi/lib//libc.a(lib_a-freer.o)
 .data          0x00000000100182f8        0x0 /home/src/arm/target/bin/../arm-none-eabi/lib//libc.a(lib_a-fvwrite.o)
 .data          0x00000000100182f8        0x0 /home/src/arm/target/bin/../arm-none-eabi/lib//libc.a(lib_a-fwalk.o)
 .data          0x00000000100182f8       0x7c /home/src/arm/target/bin/../arm-none-eabi/lib//libc.a(lib_a-locale.o)
                0x0000000010018318                __mb_cur_max
 .data          0x0000000010018374        0x0 /home/src/arm/target/bin/../arm-none-eabi/lib//libc.a(lib_a-makebuf.o)
 .data          0x0000000010018374        0x0 /home/src/arm/target/bin/../arm-none-eabi/lib//libc.a(lib_a-memchr-stub.o)
 .data          0x0000000010018374        0x0 /home/src/arm/target/bin/../arm-none-eabi/lib//libc.a(lib_a-memmove.o)
 .data          0x0000000010018374        0x0 /home/src/arm/target/bin/../arm-none-eabi/lib//libc.a(lib_a-mprec.o)
 .data          0x0000000010018374        0x0 /home/src/arm/target/bin/../arm-none-eabi/lib//libc.a(lib_a-reent.o)
 .data          0x0000000010018374        0x0 /home/src/arm/target/bin/../arm-none-eabi/lib//libc.a(lib_a-refill.o)
 .data          0x0000000010018374        0x0 /home/src/arm/target/bin/../arm-none-eabi/lib//libc.a(lib_a-s_fpclassify.o)
 .data          0x0000000010018374        0x0 /home/src/arm/target/bin/../arm-none-eabi/lib//libc.a(lib_a-signal.o)
 .data          0x0000000010018374        0x0 /home/src/arm/target/bin/../arm-none-eabi/lib//libc.a(lib_a-signalr.o)
 .data          0x0000000010018374        0x0 /home/src/arm/target/bin/../arm-none-eabi/lib//libc.a(lib_a-stdio.o)
 .data          0x0000000010018374        0x0 /home/src/arm/target/bin/../arm-none-eabi/lib//libc.a(lib_a-strcmp.o)
 .data          0x0000000010018374        0x0 /home/src/arm/target/bin/../arm-none-eabi/lib//libc.a(lib_a-strlen.o)
 .data          0x0000000010018374        0x0 /home/src/arm/target/bin/../arm-none-eabi/lib//libc.a(lib_a-wcrtomb.o)
 .data          0x0000000010018374        0x4 /home/src/arm/target/bin/../arm-none-eabi/lib//libc.a(lib_a-wctomb_r.o)
                0x0000000010018374                __wctomb
 .data          0x0000000010018378        0x0 /home/src/arm/target/bin/../arm-none-eabi/lib//libc.a(lib_a-writer.o)
 .data          0x0000000010018378        0x0 /home/src/arm/target/bin/../arm-none-eabi/lib//libc.a(lib_a-callocr.o)
 .data          0x0000000010018378        0x0 /home/src/arm/target/bin/../arm-none-eabi/lib//libc.a(lib_a-closer.o)
 .data          0x0000000010018378        0x0 /home/src/arm/target/bin/../arm-none-eabi/lib//libc.a(lib_a-fclose.o)
 .data          0x0000000010018378        0x0 /home/src/arm/target/bin/../arm-none-eabi/lib//libc.a(lib_a-fstatr.o)
 .data          0x0000000010018378        0x0 /home/src/arm/target/bin/../arm-none-eabi/lib//libc.a(lib_a-isattyr.o)
 .data          0x0000000010018378        0x0 /home/src/arm/target/bin/../arm-none-eabi/lib//libc.a(lib_a-lseekr.o)
 .data          0x0000000010018378        0x0 /home/src/arm/target/bin/../arm-none-eabi/lib//libc.a(lib_a-readr.o)
 .data          0x0000000010018378        0x0 /home/src/arm/target/bin/../lib/gcc/arm-none-eabi/4.8.2//libgcc.a(_udivsi3.o)
 .data          0x0000000010018378        0x0 /home/src/arm/target/bin/../lib/gcc/arm-none-eabi/4.8.2//libgcc.a(_divsi3.o)
 .data          0x0000000010018378        0x0 /home/src/arm/target/bin/../lib/gcc/arm-none-eabi/4.8.2//libgcc.a(_dvmd_tls.o)
 .data          0x0000000010018378        0x0 /home/src/arm/target/bin/../lib/gcc/arm-none-eabi/4.8.2//libgcc.a(_arm_addsubdf3.o)
 .data          0x0000000010018378        0x0 /home/src/arm/target/bin/../lib/gcc/arm-none-eabi/4.8.2//libgcc.a(_arm_muldivdf3.o)
 .data          0x0000000010018378        0x0 /home/src/arm/target/bin/../lib/gcc/arm-none-eabi/4.8.2//libgcc.a(_arm_cmpdf2.o)
 .data          0x0000000010018378        0x0 /home/src/arm/target/bin/../lib/gcc/arm-none-eabi/4.8.2//libgcc.a(_arm_fixdfsi.o)
 .data          0x0000000010018378        0x0 /home/src/arm/target/bin/../lib/gcc/arm-none-eabi/4.8.2//libgcc.a(_aeabi_uldivmod.o)
 .data          0x0000000010018378        0x0 /home/src/arm/target/bin/../lib/gcc/arm-none-eabi/4.8.2//libgcc.a(bpabi.o)
 .data          0x0000000010018378        0x0 /home/src/arm/target/bin/../lib/gcc/arm-none-eabi/4.8.2//libgcc.a(_divdi3.o)
 .data          0x0000000010018378        0x0 /home/src/arm/target/bin/../lib/gcc/arm-none-eabi/4.8.2//libgcc.a(_udivdi3.o)
 .data          0x0000000010018378        0x0 /home/src/arm/target/bin/../lib/gcc/arm-none-eabi/4.8.2//libgcc.a(_clzsi2.o)

.jcr            0x0000000010018378        0x4
 .jcr           0x0000000010018378        0x0 /home/src/arm/target/bin/../lib/gcc/arm-none-eabi/4.8.2//crtbegin.o
 .jcr           0x0000000010018378        0x4 /home/src/arm/target/bin/../lib/gcc/arm-none-eabi/4.8.2//crtend.o

.tm_clone_table
                0x000000001001837c        0x0
 .tm_clone_table
                0x000000001001837c        0x0 /home/src/arm/target/bin/../lib/gcc/arm-none-eabi/4.8.2//crtbegin.o
 .tm_clone_table
                0x000000001001837c        0x0 /home/src/arm/target/bin/../lib/gcc/arm-none-eabi/4.8.2//crtend.o

.igot.plt       0x000000001001837c        0x0
 .igot.plt      0x0000000000000000        0x0 /home/src/arm/target/bin/../lib/gcc/arm-none-eabi/4.8.2//crtbegin.o

.hab.data       0x0000000010400000     0x2000
                0x0000000010400000                __hab_data = .
                0x0000000010402000                . = (. + 0x2000)
 *fill*         0x0000000010400000     0x2000 
                0x0000000010402000                . = ALIGN (0x20)
                0x0000000010402000                __hab_data_end = .
                0x0000000000402000                _image_size = (. - _start_image_add)

.bss            0x0000000010402000      0x3b4
                0x0000000010402000                __bss_start__ = .
 *(.shbss)
 *(.bss .bss.* .gnu.linkonce.b.*)
 .bss           0x0000000010402000       0x1c /home/src/arm/target/bin/../lib/gcc/arm-none-eabi/4.8.2//crtbegin.o
 .bss           0x000000001040201c        0x0 /home/src/arm/target/bin/../lib/gcc/arm-none-eabi/4.8.2//crti.o
 .bss           0x000000001040201c        0x0 /home/src/arm/target/bin/../lib/gcc/arm-none-eabi/4.8.2//crtend.o
 .bss           0x000000001040201c        0x0 /home/src/arm/target/bin/../lib/gcc/arm-none-eabi/4.8.2//crtn.o
 .bss           0x000000001040201c        0x0 /home/leon/git/swp-report/iMX6_Platform_SDK/output/mx6sdl/caam_blob_gen/smart_device_rev_b/obj/apps/caam_blob_gen/src/caam_blob_gen.o
 .bss           0x000000001040201c        0x0 /home/leon/git/swp-report/iMX6_Platform_SDK/output/mx6sdl/caam_blob_gen/smart_device_rev_b/obj/apps/common/ivt.o
 .bss           0x000000001040201c        0x0 /home/leon/git/swp-report/iMX6_Platform_SDK/output/mx6sdl/caam_blob_gen/smart_device_rev_b/obj/apps/common/platform_init.o
 .bss           0x000000001040201c        0x0 /home/leon/git/swp-report/iMX6_Platform_SDK/output/mx6sdl/lib/libsdk.a(ccm_pll.o)
 .bss           0x000000001040201c        0x0 /home/leon/git/swp-report/iMX6_Platform_SDK/output/mx6sdl/lib/libsdk.a(cortexA9.o)
 .bss           0x000000001040201c        0x0 /home/leon/git/swp-report/iMX6_Platform_SDK/output/mx6sdl/lib/libsdk.a(gic.o)
 .bss           0x000000001040201c        0x0 /home/leon/git/swp-report/iMX6_Platform_SDK/output/mx6sdl/lib/libsdk.a(mmu.o)
 .bss           0x000000001040201c        0x0 /home/leon/git/swp-report/iMX6_Platform_SDK/output/mx6sdl/lib/libsdk.a(startup.o)
 .bss           0x000000001040201c        0x0 /home/leon/git/swp-report/iMX6_Platform_SDK/output/mx6sdl/lib/libsdk.a(vectors.o)
 .bss           0x000000001040201c        0x0 /home/leon/git/swp-report/iMX6_Platform_SDK/output/mx6sdl/lib/libsdk.a(system_util.o)
 .bss           0x000000001040201c        0x0 /home/leon/git/swp-report/iMX6_Platform_SDK/output/mx6sdl/lib/libsdk.a(text_color.o)
 .bss           0x000000001040201c        0xc /home/leon/git/swp-report/iMX6_Platform_SDK/output/mx6sdl/lib/libsdk.a(caam.o)
                0x000000001040201c                g_input_ring
                0x0000000010402020                g_output_ring
 .bss           0x0000000010402028        0x4 /home/leon/git/swp-report/iMX6_Platform_SDK/output/mx6sdl/lib/libsdk.a(timer.o)
                0x0000000010402028                g_microsecondTimerMultiple
 .bss           0x000000001040202c        0x0 /home/leon/git/swp-report/iMX6_Platform_SDK/output/mx6sdl/lib/libsdk.a(imx_uart.o)
 .bss           0x000000001040202c        0x0 /home/leon/git/swp-report/iMX6_Platform_SDK/output/mx6sdl/lib/libsdk.a(arm_abort.o)
 .bss           0x000000001040202c      0x290 /home/leon/git/swp-report/iMX6_Platform_SDK/output/mx6sdl/lib/libsdk.a(interrupt.o)
                0x000000001040202c                g_interrupt_handlers
                0x00000000104022ac                g_vectNum
 .bss           0x00000000104022bc        0x0 /home/leon/git/swp-report/iMX6_Platform_SDK/output/mx6sdl/lib/libsdk.a(epit.o)
 .bss           0x00000000104022bc        0x0 /home/leon/git/swp-report/iMX6_Platform_SDK/output/mx6sdl/lib/libsdk.a(abort_handler.o)
 .bss           0x00000000104022bc        0x4 /home/leon/git/swp-report/iMX6_Platform_SDK/output/mx6sdl/lib/libboard_smart_device_rev_b.a(board_io_expanders.o)
                0x00000000104022bc                max7310_i2c_req_array
 .bss           0x00000000104022c0        0x0 /home/leon/git/swp-report/iMX6_Platform_SDK/output/mx6sdl/lib/libboard_smart_device_rev_b.a(hardware_modules.o)
 .bss           0x00000000104022c0        0x0 /home/leon/git/swp-report/iMX6_Platform_SDK/output/mx6sdl/lib/libboard_smart_device_rev_b.a(dcd.o)
 .bss           0x00000000104022c0        0x0 /home/leon/git/swp-report/iMX6_Platform_SDK/output/mx6sdl/lib/libboard_smart_device_rev_b.a(uart_iomux_config.o)
 .bss           0x00000000104022c0        0x0 /home/leon/git/swp-report/iMX6_Platform_SDK/output/mx6sdl/lib/libboard_smart_device_rev_b.a(iomux_config.o)
 .bss           0x00000000104022c0        0x0 /home/leon/git/swp-report/iMX6_Platform_SDK/output/mx6sdl/lib/libboard_smart_device_rev_b.a(ipu1_iomux_config.o)
 .bss           0x00000000104022c0        0x0 /home/leon/git/swp-report/iMX6_Platform_SDK/output/mx6sdl/lib/libboard_smart_device_rev_b.a(mmdc_iomux_config.o)
 .bss           0x00000000104022c0        0x0 /home/leon/git/swp-report/iMX6_Platform_SDK/output/mx6sdl/lib/libboard_smart_device_rev_b.a(pwm1_iomux_config.o)
 .bss           0x00000000104022c0        0x0 /home/leon/git/swp-report/iMX6_Platform_SDK/output/mx6sdl/lib/libboard_smart_device_rev_b.a(sjc_iomux_config.o)
 .bss           0x00000000104022c0        0x0 /home/leon/git/swp-report/iMX6_Platform_SDK/output/mx6sdl/lib/libboard_smart_device_rev_b.a(uart1_iomux_config.o)
 .bss           0x00000000104022c0        0x0 /home/leon/git/swp-report/iMX6_Platform_SDK/output/mx6sdl/lib/libboard_smart_device_rev_b.a(usb_iomux_config.o)
 .bss           0x00000000104022c0        0x0 /home/leon/git/swp-report/iMX6_Platform_SDK/output/mx6sdl/lib/libboard_smart_device_rev_b.a(usdhc2_iomux_config.o)
 .bss           0x00000000104022c0        0x0 /home/leon/git/swp-report/iMX6_Platform_SDK/output/mx6sdl/lib/libboard_smart_device_rev_b.a(usdhc3_iomux_config.o)
 .bss           0x00000000104022c0        0x0 /home/leon/git/swp-report/iMX6_Platform_SDK/output/mx6sdl/lib/libboard_smart_device_rev_b.a(usdhc4_iomux_config.o)
 .bss           0x00000000104022c0        0x0 /home/leon/git/swp-report/iMX6_Platform_SDK/output/mx6sdl/lib/libboard_smart_device_rev_b.a(audmux_iomux_config.o)
 .bss           0x00000000104022c0        0x0 /home/leon/git/swp-report/iMX6_Platform_SDK/output/mx6sdl/lib/libboard_smart_device_rev_b.a(ccm_iomux_config.o)
 .bss           0x00000000104022c0        0x0 /home/leon/git/swp-report/iMX6_Platform_SDK/output/mx6sdl/lib/libboard_smart_device_rev_b.a(ecspi1_iomux_config.o)
 .bss           0x00000000104022c0        0x0 /home/leon/git/swp-report/iMX6_Platform_SDK/output/mx6sdl/lib/libboard_smart_device_rev_b.a(enet_iomux_config.o)
 .bss           0x00000000104022c0        0x0 /home/leon/git/swp-report/iMX6_Platform_SDK/output/mx6sdl/lib/libboard_smart_device_rev_b.a(epdc_iomux_config.o)
 .bss           0x00000000104022c0        0x0 /home/leon/git/swp-report/iMX6_Platform_SDK/output/mx6sdl/lib/libboard_smart_device_rev_b.a(flexcan1_iomux_config.o)
 .bss           0x00000000104022c0        0x0 /home/leon/git/swp-report/iMX6_Platform_SDK/output/mx6sdl/lib/libboard_smart_device_rev_b.a(gpio1_iomux_config.o)
 .bss           0x00000000104022c0        0x0 /home/leon/git/swp-report/iMX6_Platform_SDK/output/mx6sdl/lib/libboard_smart_device_rev_b.a(gpio2_iomux_config.o)
 .bss           0x00000000104022c0        0x0 /home/leon/git/swp-report/iMX6_Platform_SDK/output/mx6sdl/lib/libboard_smart_device_rev_b.a(gpio3_iomux_config.o)
 .bss           0x00000000104022c0        0x0 /home/leon/git/swp-report/iMX6_Platform_SDK/output/mx6sdl/lib/libboard_smart_device_rev_b.a(gpio4_iomux_config.o)
 .bss           0x00000000104022c0        0x0 /home/leon/git/swp-report/iMX6_Platform_SDK/output/mx6sdl/lib/libboard_smart_device_rev_b.a(gpio5_iomux_config.o)
 .bss           0x00000000104022c0        0x0 /home/leon/git/swp-report/iMX6_Platform_SDK/output/mx6sdl/lib/libboard_smart_device_rev_b.a(gpio6_iomux_config.o)
 .bss           0x00000000104022c0        0x0 /home/leon/git/swp-report/iMX6_Platform_SDK/output/mx6sdl/lib/libboard_smart_device_rev_b.a(gpio7_iomux_config.o)
 .bss           0x00000000104022c0        0x0 /home/leon/git/swp-report/iMX6_Platform_SDK/output/mx6sdl/lib/libboard_smart_device_rev_b.a(gps_iomux_config.o)
 .bss           0x00000000104022c0        0x0 /home/leon/git/swp-report/iMX6_Platform_SDK/output/mx6sdl/lib/libboard_smart_device_rev_b.a(i2c1_iomux_config.o)
 .bss           0x00000000104022c0        0x0 /home/leon/git/swp-report/iMX6_Platform_SDK/output/mx6sdl/lib/libboard_smart_device_rev_b.a(i2c2_iomux_config.o)
 .bss           0x00000000104022c0        0x0 /home/leon/git/swp-report/iMX6_Platform_SDK/output/mx6sdl/lib/libboard_smart_device_rev_b.a(i2c3_iomux_config.o)
 .bss           0x00000000104022c0        0x0 /home/src/arm/target/bin/../arm-none-eabi/lib//libc.a(lib_a-assert.o)
 .bss           0x00000000104022c0        0x0 /home/src/arm/target/bin/../arm-none-eabi/lib//libc.a(lib_a-bzero.o)
 .bss           0x00000000104022c0        0x0 /home/src/arm/target/bin/../arm-none-eabi/lib//libc.a(lib_a-fiprintf.o)
 .bss           0x00000000104022c0        0x0 /home/src/arm/target/bin/../arm-none-eabi/lib//libc.a(lib_a-fputc.o)
 .bss           0x00000000104022c0        0x0 /home/src/arm/target/bin/../arm-none-eabi/lib//libc.a(lib_a-impure.o)
 .bss           0x00000000104022c0        0x0 /home/src/arm/target/bin/../arm-none-eabi/lib//libc.a(lib_a-init.o)
 .bss           0x00000000104022c0        0x0 /home/src/arm/target/bin/../arm-none-eabi/lib//libc.a(lib_a-malloc.o)
 .bss           0x00000000104022c0       0x34 /home/src/arm/target/bin/../arm-none-eabi/lib//libc.a(lib_a-mallocr.o)
                0x00000000104022c0                __malloc_top_pad
                0x00000000104022c4                __malloc_current_mallinfo
                0x00000000104022ec                __malloc_max_sbrked_mem
                0x00000000104022f0                __malloc_max_total_mem
 .bss           0x00000000104022f4        0x0 /home/src/arm/target/bin/../arm-none-eabi/lib//libc.a(lib_a-memcpy-stub.o)
 .bss           0x00000000104022f4        0x0 /home/src/arm/target/bin/../arm-none-eabi/lib//libc.a(lib_a-memset.o)
 .bss           0x00000000104022f4        0x0 /home/src/arm/target/bin/../arm-none-eabi/lib//libc.a(lib_a-mlock.o)
 .bss           0x00000000104022f4        0x0 /home/src/arm/target/bin/../arm-none-eabi/lib//libc.a(lib_a-printf.o)
 .bss           0x00000000104022f4        0x0 /home/src/arm/target/bin/../arm-none-eabi/lib//libc.a(lib_a-putc.o)
 .bss           0x00000000104022f4        0x0 /home/src/arm/target/bin/../arm-none-eabi/lib//libc.a(lib_a-realloc.o)
 .bss           0x00000000104022f4        0x0 /home/src/arm/target/bin/../arm-none-eabi/lib//libc.a(lib_a-reallocr.o)
 .bss           0x00000000104022f4        0x0 /home/src/arm/target/bin/../arm-none-eabi/lib//libc.a(lib_a-rget.o)
 .bss           0x00000000104022f4        0x0 /home/src/arm/target/bin/../arm-none-eabi/lib//libc.a(lib_a-sbrkr.o)
 .bss           0x00000000104022f4       0xb0 /home/src/arm/target/bin/../arm-none-eabi/lib//libc.a(lib_a-syscalls.o)
 .bss           0x00000000104023a4        0x0 /home/src/arm/target/bin/../arm-none-eabi/lib//libc.a(lib_a-vfiprintf.o)
 .bss           0x00000000104023a4        0x0 /home/src/arm/target/bin/../arm-none-eabi/lib//libc.a(lib_a-vfprintf.o)
 .bss           0x00000000104023a4        0x0 /home/src/arm/target/bin/../arm-none-eabi/lib//libc.a(lib_a-vprintf.o)
 .bss           0x00000000104023a4        0x0 /home/src/arm/target/bin/../arm-none-eabi/lib//libc.a(lib_a-wbuf.o)
 .bss           0x00000000104023a4        0x0 /home/src/arm/target/bin/../arm-none-eabi/lib//libc.a(lib_a-wsetup.o)
 .bss           0x00000000104023a4        0x0 /home/src/arm/target/bin/../arm-none-eabi/lib//libc.a(lib_a-abort.o)
 .bss           0x00000000104023a4        0x0 /home/src/arm/target/bin/../arm-none-eabi/lib//libc.a(lib_a-dtoa.o)
 .bss           0x00000000104023a4        0x0 /home/src/arm/target/bin/../arm-none-eabi/lib//libc.a(lib_a-errno.o)
 .bss           0x00000000104023a4        0x0 /home/src/arm/target/bin/../arm-none-eabi/lib//libc.a(lib_a-fflush.o)
 .bss           0x00000000104023a4        0x0 /home/src/arm/target/bin/../arm-none-eabi/lib//libc.a(lib_a-findfp.o)
 .bss           0x00000000104023a4        0x0 /home/src/arm/target/bin/../arm-none-eabi/lib//libc.a(lib_a-fputwc.o)
 .bss           0x00000000104023a4        0x0 /home/src/arm/target/bin/../arm-none-eabi/lib//libc.a(lib_a-freer.o)
 .bss           0x00000000104023a4        0x0 /home/src/arm/target/bin/../arm-none-eabi/lib//libc.a(lib_a-fvwrite.o)
 .bss           0x00000000104023a4        0x0 /home/src/arm/target/bin/../arm-none-eabi/lib//libc.a(lib_a-fwalk.o)
 .bss           0x00000000104023a4        0xc /home/src/arm/target/bin/../arm-none-eabi/lib//libc.a(lib_a-locale.o)
                0x00000000104023a4                _PathLocale
                0x00000000104023a8                __mlocale_changed
                0x00000000104023ac                __nlocale_changed
 .bss           0x00000000104023b0        0x0 /home/src/arm/target/bin/../arm-none-eabi/lib//libc.a(lib_a-makebuf.o)
 .bss           0x00000000104023b0        0x0 /home/src/arm/target/bin/../arm-none-eabi/lib//libc.a(lib_a-memchr-stub.o)
 .bss           0x00000000104023b0        0x0 /home/src/arm/target/bin/../arm-none-eabi/lib//libc.a(lib_a-memmove.o)
 .bss           0x00000000104023b0        0x0 /home/src/arm/target/bin/../arm-none-eabi/lib//libc.a(lib_a-mprec.o)
 .bss           0x00000000104023b0        0x0 /home/src/arm/target/bin/../arm-none-eabi/lib//libc.a(lib_a-reent.o)
 .bss           0x00000000104023b0        0x0 /home/src/arm/target/bin/../arm-none-eabi/lib//libc.a(lib_a-refill.o)
 .bss           0x00000000104023b0        0x0 /home/src/arm/target/bin/../arm-none-eabi/lib//libc.a(lib_a-s_fpclassify.o)
 .bss           0x00000000104023b0        0x0 /home/src/arm/target/bin/../arm-none-eabi/lib//libc.a(lib_a-signal.o)
 .bss           0x00000000104023b0        0x0 /home/src/arm/target/bin/../arm-none-eabi/lib//libc.a(lib_a-signalr.o)
 .bss           0x00000000104023b0        0x0 /home/src/arm/target/bin/../arm-none-eabi/lib//libc.a(lib_a-stdio.o)
 .bss           0x00000000104023b0        0x0 /home/src/arm/target/bin/../arm-none-eabi/lib//libc.a(lib_a-strcmp.o)
 .bss           0x00000000104023b0        0x0 /home/src/arm/target/bin/../arm-none-eabi/lib//libc.a(lib_a-strlen.o)
 .bss           0x00000000104023b0        0x0 /home/src/arm/target/bin/../arm-none-eabi/lib//libc.a(lib_a-wcrtomb.o)
 .bss           0x00000000104023b0        0x0 /home/src/arm/target/bin/../arm-none-eabi/lib//libc.a(lib_a-wctomb_r.o)
 .bss           0x00000000104023b0        0x0 /home/src/arm/target/bin/../arm-none-eabi/lib//libc.a(lib_a-writer.o)
 .bss           0x00000000104023b0        0x0 /home/src/arm/target/bin/../arm-none-eabi/lib//libc.a(lib_a-callocr.o)
 .bss           0x00000000104023b0        0x0 /home/src/arm/target/bin/../arm-none-eabi/lib//libc.a(lib_a-closer.o)
 .bss           0x00000000104023b0        0x0 /home/src/arm/target/bin/../arm-none-eabi/lib//libc.a(lib_a-fclose.o)
 .bss           0x00000000104023b0        0x0 /home/src/arm/target/bin/../arm-none-eabi/lib//libc.a(lib_a-fstatr.o)
 .bss           0x00000000104023b0        0x0 /home/src/arm/target/bin/../arm-none-eabi/lib//libc.a(lib_a-isattyr.o)
 .bss           0x00000000104023b0        0x0 /home/src/arm/target/bin/../arm-none-eabi/lib//libc.a(lib_a-lseekr.o)
 .bss           0x00000000104023b0        0x0 /home/src/arm/target/bin/../arm-none-eabi/lib//libc.a(lib_a-readr.o)
 .bss           0x00000000104023b0        0x0 /home/src/arm/target/bin/../lib/gcc/arm-none-eabi/4.8.2//libgcc.a(_udivsi3.o)
 .bss           0x00000000104023b0        0x0 /home/src/arm/target/bin/../lib/gcc/arm-none-eabi/4.8.2//libgcc.a(_divsi3.o)
 .bss           0x00000000104023b0        0x0 /home/src/arm/target/bin/../lib/gcc/arm-none-eabi/4.8.2//libgcc.a(_dvmd_tls.o)
 .bss           0x00000000104023b0        0x0 /home/src/arm/target/bin/../lib/gcc/arm-none-eabi/4.8.2//libgcc.a(_arm_addsubdf3.o)
 .bss           0x00000000104023b0        0x0 /home/src/arm/target/bin/../lib/gcc/arm-none-eabi/4.8.2//libgcc.a(_arm_muldivdf3.o)
 .bss           0x00000000104023b0        0x0 /home/src/arm/target/bin/../lib/gcc/arm-none-eabi/4.8.2//libgcc.a(_arm_cmpdf2.o)
 .bss           0x00000000104023b0        0x0 /home/src/arm/target/bin/../lib/gcc/arm-none-eabi/4.8.2//libgcc.a(_arm_fixdfsi.o)
 .bss           0x00000000104023b0        0x0 /home/src/arm/target/bin/../lib/gcc/arm-none-eabi/4.8.2//libgcc.a(_aeabi_uldivmod.o)
 .bss           0x00000000104023b0        0x0 /home/src/arm/target/bin/../lib/gcc/arm-none-eabi/4.8.2//libgcc.a(bpabi.o)
 .bss           0x00000000104023b0        0x0 /home/src/arm/target/bin/../lib/gcc/arm-none-eabi/4.8.2//libgcc.a(_divdi3.o)
 .bss           0x00000000104023b0        0x0 /home/src/arm/target/bin/../lib/gcc/arm-none-eabi/4.8.2//libgcc.a(_udivdi3.o)
 .bss           0x00000000104023b0        0x0 /home/src/arm/target/bin/../lib/gcc/arm-none-eabi/4.8.2//libgcc.a(_clzsi2.o)
 *(COMMON)
 COMMON         0x00000000104023b0        0x4 /home/src/arm/target/bin/../arm-none-eabi/lib//libc.a(lib_a-reent.o)
                0x00000000104023b0                errno
 *(.bss)
                0x00000000104023b4                __bss_end__ = .

.stacks         0x00000000104023b4     0xc000
                0x00000000104023b4                __stacks_start = .
                0x000000001040e3b4                . = (. + 0xc000)
 *fill*         0x00000000104023b4     0xc000 
                0x000000001040e3b4                __stacks_end = .
                0x000000001040e3b4                top_of_stacks = .
                0x000000001040e3c0                free_memory_start = ALIGN (0x20)
                0x000000001840e3b4                . = (. + 0x8000000)
                0x000000001840e3b4                free_memory_end = .
                0x000000001840e3b4                _end = .
                0x000000001840e3b4                PROVIDE (end, .)
START GROUP
LOAD /home/leon/git/swp-report/iMX6_Platform_SDK/output/mx6sdl/caam_blob_gen/smart_device_rev_b/obj/apps/caam_blob_gen/src/caam_blob_gen.o
LOAD /home/leon/git/swp-report/iMX6_Platform_SDK/output/mx6sdl/caam_blob_gen/smart_device_rev_b/obj/apps/common/ivt.o
LOAD /home/leon/git/swp-report/iMX6_Platform_SDK/output/mx6sdl/caam_blob_gen/smart_device_rev_b/obj/apps/common/platform_init.o
LOAD /home/leon/git/swp-report/iMX6_Platform_SDK/output/mx6sdl/lib/libsdk.a
LOAD /home/leon/git/swp-report/iMX6_Platform_SDK/output/mx6sdl/lib/libboard_smart_device_rev_b.a
LOAD /home/src/arm/target/bin/../arm-none-eabi/lib//libm.a
LOAD /home/src/arm/target/bin/../arm-none-eabi/lib//libstdc++.a
LOAD /home/src/arm/target/bin/../arm-none-eabi/lib//libc.a
LOAD /home/src/arm/target/bin/../lib/gcc/arm-none-eabi/4.8.2//libgcc.a
END GROUP
OUTPUT(/home/leon/git/swp-report/iMX6_Platform_SDK/output/mx6sdl/caam_blob_gen/smart_device_rev_b/caam_blob_gen.elf elf32-littlearm)

.comment        0x0000000000000000       0x11
 .comment       0x0000000000000000       0x11 /home/src/arm/target/bin/../lib/gcc/arm-none-eabi/4.8.2//crtbegin.o
                                         0x12 (size before relaxing)
 .comment       0x0000000000000000       0x12 /home/src/arm/target/bin/../lib/gcc/arm-none-eabi/4.8.2//crtend.o
 .comment       0x0000000000000000       0x12 /home/leon/git/swp-report/iMX6_Platform_SDK/output/mx6sdl/caam_blob_gen/smart_device_rev_b/obj/apps/caam_blob_gen/src/caam_blob_gen.o
 .comment       0x0000000000000000       0x12 /home/leon/git/swp-report/iMX6_Platform_SDK/output/mx6sdl/caam_blob_gen/smart_device_rev_b/obj/apps/common/ivt.o
 .comment       0x0000000000000000       0x12 /home/leon/git/swp-report/iMX6_Platform_SDK/output/mx6sdl/caam_blob_gen/smart_device_rev_b/obj/apps/common/platform_init.o
 .comment       0x0000000000000000       0x12 /home/leon/git/swp-report/iMX6_Platform_SDK/output/mx6sdl/lib/libsdk.a(ccm_pll.o)
 .comment       0x0000000000000000       0x12 /home/leon/git/swp-report/iMX6_Platform_SDK/output/mx6sdl/lib/libsdk.a(gic.o)
 .comment       0x0000000000000000       0x12 /home/leon/git/swp-report/iMX6_Platform_SDK/output/mx6sdl/lib/libsdk.a(mmu.o)
 .comment       0x0000000000000000       0x12 /home/leon/git/swp-report/iMX6_Platform_SDK/output/mx6sdl/lib/libsdk.a(system_util.o)
 .comment       0x0000000000000000       0x12 /home/leon/git/swp-report/iMX6_Platform_SDK/output/mx6sdl/lib/libsdk.a(text_color.o)
 .comment       0x0000000000000000       0x12 /home/leon/git/swp-report/iMX6_Platform_SDK/output/mx6sdl/lib/libsdk.a(caam.o)
 .comment       0x0000000000000000       0x12 /home/leon/git/swp-report/iMX6_Platform_SDK/output/mx6sdl/lib/libsdk.a(timer.o)
 .comment       0x0000000000000000       0x12 /home/leon/git/swp-report/iMX6_Platform_SDK/output/mx6sdl/lib/libsdk.a(imx_uart.o)
 .comment       0x0000000000000000       0x12 /home/leon/git/swp-report/iMX6_Platform_SDK/output/mx6sdl/lib/libsdk.a(interrupt.o)
 .comment       0x0000000000000000       0x12 /home/leon/git/swp-report/iMX6_Platform_SDK/output/mx6sdl/lib/libsdk.a(epit.o)
 .comment       0x0000000000000000       0x12 /home/leon/git/swp-report/iMX6_Platform_SDK/output/mx6sdl/lib/libsdk.a(abort_handler.o)
 .comment       0x0000000000000000       0x12 /home/leon/git/swp-report/iMX6_Platform_SDK/output/mx6sdl/lib/libboard_smart_device_rev_b.a(board_io_expanders.o)
 .comment       0x0000000000000000       0x12 /home/leon/git/swp-report/iMX6_Platform_SDK/output/mx6sdl/lib/libboard_smart_device_rev_b.a(hardware_modules.o)
 .comment       0x0000000000000000       0x12 /home/leon/git/swp-report/iMX6_Platform_SDK/output/mx6sdl/lib/libboard_smart_device_rev_b.a(dcd.o)
 .comment       0x0000000000000000       0x12 /home/leon/git/swp-report/iMX6_Platform_SDK/output/mx6sdl/lib/libboard_smart_device_rev_b.a(uart_iomux_config.o)
 .comment       0x0000000000000000       0x12 /home/leon/git/swp-report/iMX6_Platform_SDK/output/mx6sdl/lib/libboard_smart_device_rev_b.a(iomux_config.o)
 .comment       0x0000000000000000       0x12 /home/leon/git/swp-report/iMX6_Platform_SDK/output/mx6sdl/lib/libboard_smart_device_rev_b.a(ipu1_iomux_config.o)
 .comment       0x0000000000000000       0x12 /home/leon/git/swp-report/iMX6_Platform_SDK/output/mx6sdl/lib/libboard_smart_device_rev_b.a(mmdc_iomux_config.o)
 .comment       0x0000000000000000       0x12 /home/leon/git/swp-report/iMX6_Platform_SDK/output/mx6sdl/lib/libboard_smart_device_rev_b.a(pwm1_iomux_config.o)
 .comment       0x0000000000000000       0x12 /home/leon/git/swp-report/iMX6_Platform_SDK/output/mx6sdl/lib/libboard_smart_device_rev_b.a(sjc_iomux_config.o)
 .comment       0x0000000000000000       0x12 /home/leon/git/swp-report/iMX6_Platform_SDK/output/mx6sdl/lib/libboard_smart_device_rev_b.a(uart1_iomux_config.o)
 .comment       0x0000000000000000       0x12 /home/leon/git/swp-report/iMX6_Platform_SDK/output/mx6sdl/lib/libboard_smart_device_rev_b.a(usb_iomux_config.o)
 .comment       0x0000000000000000       0x12 /home/leon/git/swp-report/iMX6_Platform_SDK/output/mx6sdl/lib/libboard_smart_device_rev_b.a(usdhc2_iomux_config.o)
 .comment       0x0000000000000000       0x12 /home/leon/git/swp-report/iMX6_Platform_SDK/output/mx6sdl/lib/libboard_smart_device_rev_b.a(usdhc3_iomux_config.o)
 .comment       0x0000000000000000       0x12 /home/leon/git/swp-report/iMX6_Platform_SDK/output/mx6sdl/lib/libboard_smart_device_rev_b.a(usdhc4_iomux_config.o)
 .comment       0x0000000000000000       0x12 /home/leon/git/swp-report/iMX6_Platform_SDK/output/mx6sdl/lib/libboard_smart_device_rev_b.a(audmux_iomux_config.o)
 .comment       0x0000000000000000       0x12 /home/leon/git/swp-report/iMX6_Platform_SDK/output/mx6sdl/lib/libboard_smart_device_rev_b.a(ccm_iomux_config.o)
 .comment       0x0000000000000000       0x12 /home/leon/git/swp-report/iMX6_Platform_SDK/output/mx6sdl/lib/libboard_smart_device_rev_b.a(ecspi1_iomux_config.o)
 .comment       0x0000000000000000       0x12 /home/leon/git/swp-report/iMX6_Platform_SDK/output/mx6sdl/lib/libboard_smart_device_rev_b.a(enet_iomux_config.o)
 .comment       0x0000000000000000       0x12 /home/leon/git/swp-report/iMX6_Platform_SDK/output/mx6sdl/lib/libboard_smart_device_rev_b.a(epdc_iomux_config.o)
 .comment       0x0000000000000000       0x12 /home/leon/git/swp-report/iMX6_Platform_SDK/output/mx6sdl/lib/libboard_smart_device_rev_b.a(flexcan1_iomux_config.o)
 .comment       0x0000000000000000       0x12 /home/leon/git/swp-report/iMX6_Platform_SDK/output/mx6sdl/lib/libboard_smart_device_rev_b.a(gpio1_iomux_config.o)
 .comment       0x0000000000000000       0x12 /home/leon/git/swp-report/iMX6_Platform_SDK/output/mx6sdl/lib/libboard_smart_device_rev_b.a(gpio2_iomux_config.o)
 .comment       0x0000000000000000       0x12 /home/leon/git/swp-report/iMX6_Platform_SDK/output/mx6sdl/lib/libboard_smart_device_rev_b.a(gpio3_iomux_config.o)
 .comment       0x0000000000000000       0x12 /home/leon/git/swp-report/iMX6_Platform_SDK/output/mx6sdl/lib/libboard_smart_device_rev_b.a(gpio4_iomux_config.o)
 .comment       0x0000000000000000       0x12 /home/leon/git/swp-report/iMX6_Platform_SDK/output/mx6sdl/lib/libboard_smart_device_rev_b.a(gpio5_iomux_config.o)
 .comment       0x0000000000000000       0x12 /home/leon/git/swp-report/iMX6_Platform_SDK/output/mx6sdl/lib/libboard_smart_device_rev_b.a(gpio6_iomux_config.o)
 .comment       0x0000000000000000       0x12 /home/leon/git/swp-report/iMX6_Platform_SDK/output/mx6sdl/lib/libboard_smart_device_rev_b.a(gpio7_iomux_config.o)
 .comment       0x0000000000000000       0x12 /home/leon/git/swp-report/iMX6_Platform_SDK/output/mx6sdl/lib/libboard_smart_device_rev_b.a(gps_iomux_config.o)
 .comment       0x0000000000000000       0x12 /home/leon/git/swp-report/iMX6_Platform_SDK/output/mx6sdl/lib/libboard_smart_device_rev_b.a(i2c1_iomux_config.o)
 .comment       0x0000000000000000       0x12 /home/leon/git/swp-report/iMX6_Platform_SDK/output/mx6sdl/lib/libboard_smart_device_rev_b.a(i2c2_iomux_config.o)
 .comment       0x0000000000000000       0x12 /home/leon/git/swp-report/iMX6_Platform_SDK/output/mx6sdl/lib/libboard_smart_device_rev_b.a(i2c3_iomux_config.o)
 .comment       0x0000000000000000       0x12 /home/src/arm/target/bin/../arm-none-eabi/lib//libc.a(lib_a-assert.o)
 .comment       0x0000000000000000       0x12 /home/src/arm/target/bin/../arm-none-eabi/lib//libc.a(lib_a-bzero.o)
 .comment       0x0000000000000000       0x12 /home/src/arm/target/bin/../arm-none-eabi/lib//libc.a(lib_a-fiprintf.o)
 .comment       0x0000000000000000       0x12 /home/src/arm/target/bin/../arm-none-eabi/lib//libc.a(lib_a-fputc.o)
 .comment       0x0000000000000000       0x12 /home/src/arm/target/bin/../arm-none-eabi/lib//libc.a(lib_a-impure.o)
 .comment       0x0000000000000000       0x12 /home/src/arm/target/bin/../arm-none-eabi/lib//libc.a(lib_a-init.o)
 .comment       0x0000000000000000       0x12 /home/src/arm/target/bin/../arm-none-eabi/lib//libc.a(lib_a-malloc.o)
 .comment       0x0000000000000000       0x12 /home/src/arm/target/bin/../arm-none-eabi/lib//libc.a(lib_a-mallocr.o)
 .comment       0x0000000000000000       0x12 /home/src/arm/target/bin/../arm-none-eabi/lib//libc.a(lib_a-memcpy-stub.o)
 .comment       0x0000000000000000       0x12 /home/src/arm/target/bin/../arm-none-eabi/lib//libc.a(lib_a-memset.o)
 .comment       0x0000000000000000       0x12 /home/src/arm/target/bin/../arm-none-eabi/lib//libc.a(lib_a-mlock.o)
 .comment       0x0000000000000000       0x12 /home/src/arm/target/bin/../arm-none-eabi/lib//libc.a(lib_a-printf.o)
 .comment       0x0000000000000000       0x12 /home/src/arm/target/bin/../arm-none-eabi/lib//libc.a(lib_a-putc.o)
 .comment       0x0000000000000000       0x12 /home/src/arm/target/bin/../arm-none-eabi/lib//libc.a(lib_a-realloc.o)
 .comment       0x0000000000000000       0x12 /home/src/arm/target/bin/../arm-none-eabi/lib//libc.a(lib_a-reallocr.o)
 .comment       0x0000000000000000       0x12 /home/src/arm/target/bin/../arm-none-eabi/lib//libc.a(lib_a-rget.o)
 .comment       0x0000000000000000       0x12 /home/src/arm/target/bin/../arm-none-eabi/lib//libc.a(lib_a-sbrkr.o)
 .comment       0x0000000000000000       0x12 /home/src/arm/target/bin/../arm-none-eabi/lib//libc.a(lib_a-syscalls.o)
 .comment       0x0000000000000000       0x12 /home/src/arm/target/bin/../arm-none-eabi/lib//libc.a(lib_a-vfiprintf.o)
 .comment       0x0000000000000000       0x12 /home/src/arm/target/bin/../arm-none-eabi/lib//libc.a(lib_a-vfprintf.o)
 .comment       0x0000000000000000       0x12 /home/src/arm/target/bin/../arm-none-eabi/lib//libc.a(lib_a-vprintf.o)
 .comment       0x0000000000000000       0x12 /home/src/arm/target/bin/../arm-none-eabi/lib//libc.a(lib_a-wbuf.o)
 .comment       0x0000000000000000       0x12 /home/src/arm/target/bin/../arm-none-eabi/lib//libc.a(lib_a-wsetup.o)
 .comment       0x0000000000000000       0x12 /home/src/arm/target/bin/../arm-none-eabi/lib//libc.a(lib_a-abort.o)
 .comment       0x0000000000000000       0x12 /home/src/arm/target/bin/../arm-none-eabi/lib//libc.a(lib_a-dtoa.o)
 .comment       0x0000000000000000       0x12 /home/src/arm/target/bin/../arm-none-eabi/lib//libc.a(lib_a-errno.o)
 .comment       0x0000000000000000       0x12 /home/src/arm/target/bin/../arm-none-eabi/lib//libc.a(lib_a-fflush.o)
 .comment       0x0000000000000000       0x12 /home/src/arm/target/bin/../arm-none-eabi/lib//libc.a(lib_a-findfp.o)
 .comment       0x0000000000000000       0x12 /home/src/arm/target/bin/../arm-none-eabi/lib//libc.a(lib_a-fputwc.o)
 .comment       0x0000000000000000       0x12 /home/src/arm/target/bin/../arm-none-eabi/lib//libc.a(lib_a-freer.o)
 .comment       0x0000000000000000       0x12 /home/src/arm/target/bin/../arm-none-eabi/lib//libc.a(lib_a-fvwrite.o)
 .comment       0x0000000000000000       0x12 /home/src/arm/target/bin/../arm-none-eabi/lib//libc.a(lib_a-fwalk.o)
 .comment       0x0000000000000000       0x12 /home/src/arm/target/bin/../arm-none-eabi/lib//libc.a(lib_a-locale.o)
 .comment       0x0000000000000000       0x12 /home/src/arm/target/bin/../arm-none-eabi/lib//libc.a(lib_a-makebuf.o)
 .comment       0x0000000000000000       0x12 /home/src/arm/target/bin/../arm-none-eabi/lib//libc.a(lib_a-memchr-stub.o)
 .comment       0x0000000000000000       0x12 /home/src/arm/target/bin/../arm-none-eabi/lib//libc.a(lib_a-memmove.o)
 .comment       0x0000000000000000       0x12 /home/src/arm/target/bin/../arm-none-eabi/lib//libc.a(lib_a-mprec.o)
 .comment       0x0000000000000000       0x12 /home/src/arm/target/bin/../arm-none-eabi/lib//libc.a(lib_a-reent.o)
 .comment       0x0000000000000000       0x12 /home/src/arm/target/bin/../arm-none-eabi/lib//libc.a(lib_a-refill.o)
 .comment       0x0000000000000000       0x12 /home/src/arm/target/bin/../arm-none-eabi/lib//libc.a(lib_a-s_fpclassify.o)
 .comment       0x0000000000000000       0x12 /home/src/arm/target/bin/../arm-none-eabi/lib//libc.a(lib_a-signal.o)
 .comment       0x0000000000000000       0x12 /home/src/arm/target/bin/../arm-none-eabi/lib//libc.a(lib_a-signalr.o)
 .comment       0x0000000000000000       0x12 /home/src/arm/target/bin/../arm-none-eabi/lib//libc.a(lib_a-stdio.o)
 .comment       0x0000000000000000       0x12 /home/src/arm/target/bin/../arm-none-eabi/lib//libc.a(lib_a-strlen.o)
 .comment       0x0000000000000000       0x12 /home/src/arm/target/bin/../arm-none-eabi/lib//libc.a(lib_a-wcrtomb.o)
 .comment       0x0000000000000000       0x12 /home/src/arm/target/bin/../arm-none-eabi/lib//libc.a(lib_a-wctomb_r.o)
 .comment       0x0000000000000000       0x12 /home/src/arm/target/bin/../arm-none-eabi/lib//libc.a(lib_a-writer.o)
 .comment       0x0000000000000000       0x12 /home/src/arm/target/bin/../arm-none-eabi/lib//libc.a(lib_a-callocr.o)
 .comment       0x0000000000000000       0x12 /home/src/arm/target/bin/../arm-none-eabi/lib//libc.a(lib_a-closer.o)
 .comment       0x0000000000000000       0x12 /home/src/arm/target/bin/../arm-none-eabi/lib//libc.a(lib_a-fclose.o)
 .comment       0x0000000000000000       0x12 /home/src/arm/target/bin/../arm-none-eabi/lib//libc.a(lib_a-fstatr.o)
 .comment       0x0000000000000000       0x12 /home/src/arm/target/bin/../arm-none-eabi/lib//libc.a(lib_a-isattyr.o)
 .comment       0x0000000000000000       0x12 /home/src/arm/target/bin/../arm-none-eabi/lib//libc.a(lib_a-lseekr.o)
 .comment       0x0000000000000000       0x12 /home/src/arm/target/bin/../arm-none-eabi/lib//libc.a(lib_a-readr.o)
 .comment       0x0000000000000000       0x12 /home/src/arm/target/bin/../lib/gcc/arm-none-eabi/4.8.2//libgcc.a(bpabi.o)
 .comment       0x0000000000000000       0x12 /home/src/arm/target/bin/../lib/gcc/arm-none-eabi/4.8.2//libgcc.a(_divdi3.o)
 .comment       0x0000000000000000       0x12 /home/src/arm/target/bin/../lib/gcc/arm-none-eabi/4.8.2//libgcc.a(_udivdi3.o)

.ARM.attributes
                0x0000000000000000       0x3b
 .ARM.attributes
                0x0000000000000000       0x30 /home/src/arm/target/bin/../lib/gcc/arm-none-eabi/4.8.2//crtbegin.o
 .ARM.attributes
                0x0000000000000030       0x16 /home/src/arm/target/bin/../lib/gcc/arm-none-eabi/4.8.2//crti.o
 .ARM.attributes
                0x0000000000000046       0x30 /home/src/arm/target/bin/../lib/gcc/arm-none-eabi/4.8.2//crtend.o
 .ARM.attributes
                0x0000000000000076       0x18 /home/src/arm/target/bin/../lib/gcc/arm-none-eabi/4.8.2//crtn.o
 .ARM.attributes
                0x000000000000008e       0x39 /home/leon/git/swp-report/iMX6_Platform_SDK/output/mx6sdl/caam_blob_gen/smart_device_rev_b/obj/apps/caam_blob_gen/src/caam_blob_gen.o
 .ARM.attributes
                0x00000000000000c7       0x39 /home/leon/git/swp-report/iMX6_Platform_SDK/output/mx6sdl/caam_blob_gen/smart_device_rev_b/obj/apps/common/ivt.o
 .ARM.attributes
                0x0000000000000100       0x39 /home/leon/git/swp-report/iMX6_Platform_SDK/output/mx6sdl/caam_blob_gen/smart_device_rev_b/obj/apps/common/platform_init.o
 .ARM.attributes
                0x0000000000000139       0x39 /home/leon/git/swp-report/iMX6_Platform_SDK/output/mx6sdl/lib/libsdk.a(ccm_pll.o)
 .ARM.attributes
                0x0000000000000172       0x16 /home/leon/git/swp-report/iMX6_Platform_SDK/output/mx6sdl/lib/libsdk.a(cortexA9.o)
 .ARM.attributes
                0x0000000000000188       0x39 /home/leon/git/swp-report/iMX6_Platform_SDK/output/mx6sdl/lib/libsdk.a(gic.o)
 .ARM.attributes
                0x00000000000001c1       0x39 /home/leon/git/swp-report/iMX6_Platform_SDK/output/mx6sdl/lib/libsdk.a(mmu.o)
 .ARM.attributes
                0x00000000000001fa       0x16 /home/leon/git/swp-report/iMX6_Platform_SDK/output/mx6sdl/lib/libsdk.a(startup.o)
 .ARM.attributes
                0x0000000000000210       0x14 /home/leon/git/swp-report/iMX6_Platform_SDK/output/mx6sdl/lib/libsdk.a(vectors.o)
 .ARM.attributes
                0x0000000000000224       0x39 /home/leon/git/swp-report/iMX6_Platform_SDK/output/mx6sdl/lib/libsdk.a(system_util.o)
 .ARM.attributes
                0x000000000000025d       0x39 /home/leon/git/swp-report/iMX6_Platform_SDK/output/mx6sdl/lib/libsdk.a(text_color.o)
 .ARM.attributes
                0x0000000000000296       0x39 /home/leon/git/swp-report/iMX6_Platform_SDK/output/mx6sdl/lib/libsdk.a(caam.o)
 .ARM.attributes
                0x00000000000002cf       0x39 /home/leon/git/swp-report/iMX6_Platform_SDK/output/mx6sdl/lib/libsdk.a(timer.o)
 .ARM.attributes
                0x0000000000000308       0x39 /home/leon/git/swp-report/iMX6_Platform_SDK/output/mx6sdl/lib/libsdk.a(imx_uart.o)
 .ARM.attributes
                0x0000000000000341       0x14 /home/leon/git/swp-report/iMX6_Platform_SDK/output/mx6sdl/lib/libsdk.a(arm_abort.o)
 .ARM.attributes
                0x0000000000000355       0x39 /home/leon/git/swp-report/iMX6_Platform_SDK/output/mx6sdl/lib/libsdk.a(interrupt.o)
 .ARM.attributes
                0x000000000000038e       0x39 /home/leon/git/swp-report/iMX6_Platform_SDK/output/mx6sdl/lib/libsdk.a(epit.o)
 .ARM.attributes
                0x00000000000003c7       0x39 /home/leon/git/swp-report/iMX6_Platform_SDK/output/mx6sdl/lib/libsdk.a(abort_handler.o)
 .ARM.attributes
                0x0000000000000400       0x39 /home/leon/git/swp-report/iMX6_Platform_SDK/output/mx6sdl/lib/libboard_smart_device_rev_b.a(board_io_expanders.o)
 .ARM.attributes
                0x0000000000000439       0x39 /home/leon/git/swp-report/iMX6_Platform_SDK/output/mx6sdl/lib/libboard_smart_device_rev_b.a(hardware_modules.o)
 .ARM.attributes
                0x0000000000000472       0x39 /home/leon/git/swp-report/iMX6_Platform_SDK/output/mx6sdl/lib/libboard_smart_device_rev_b.a(dcd.o)
 .ARM.attributes
                0x00000000000004ab       0x39 /home/leon/git/swp-report/iMX6_Platform_SDK/output/mx6sdl/lib/libboard_smart_device_rev_b.a(uart_iomux_config.o)
 .ARM.attributes
                0x00000000000004e4       0x39 /home/leon/git/swp-report/iMX6_Platform_SDK/output/mx6sdl/lib/libboard_smart_device_rev_b.a(iomux_config.o)
 .ARM.attributes
                0x000000000000051d       0x39 /home/leon/git/swp-report/iMX6_Platform_SDK/output/mx6sdl/lib/libboard_smart_device_rev_b.a(ipu1_iomux_config.o)
 .ARM.attributes
                0x0000000000000556       0x39 /home/leon/git/swp-report/iMX6_Platform_SDK/output/mx6sdl/lib/libboard_smart_device_rev_b.a(mmdc_iomux_config.o)
 .ARM.attributes
                0x000000000000058f       0x39 /home/leon/git/swp-report/iMX6_Platform_SDK/output/mx6sdl/lib/libboard_smart_device_rev_b.a(pwm1_iomux_config.o)
 .ARM.attributes
                0x00000000000005c8       0x39 /home/leon/git/swp-report/iMX6_Platform_SDK/output/mx6sdl/lib/libboard_smart_device_rev_b.a(sjc_iomux_config.o)
 .ARM.attributes
                0x0000000000000601       0x39 /home/leon/git/swp-report/iMX6_Platform_SDK/output/mx6sdl/lib/libboard_smart_device_rev_b.a(uart1_iomux_config.o)
 .ARM.attributes
                0x000000000000063a       0x39 /home/leon/git/swp-report/iMX6_Platform_SDK/output/mx6sdl/lib/libboard_smart_device_rev_b.a(usb_iomux_config.o)
 .ARM.attributes
                0x0000000000000673       0x39 /home/leon/git/swp-report/iMX6_Platform_SDK/output/mx6sdl/lib/libboard_smart_device_rev_b.a(usdhc2_iomux_config.o)
 .ARM.attributes
                0x00000000000006ac       0x39 /home/leon/git/swp-report/iMX6_Platform_SDK/output/mx6sdl/lib/libboard_smart_device_rev_b.a(usdhc3_iomux_config.o)
 .ARM.attributes
                0x00000000000006e5       0x39 /home/leon/git/swp-report/iMX6_Platform_SDK/output/mx6sdl/lib/libboard_smart_device_rev_b.a(usdhc4_iomux_config.o)
 .ARM.attributes
                0x000000000000071e       0x39 /home/leon/git/swp-report/iMX6_Platform_SDK/output/mx6sdl/lib/libboard_smart_device_rev_b.a(audmux_iomux_config.o)
 .ARM.attributes
                0x0000000000000757       0x39 /home/leon/git/swp-report/iMX6_Platform_SDK/output/mx6sdl/lib/libboard_smart_device_rev_b.a(ccm_iomux_config.o)
 .ARM.attributes
                0x0000000000000790       0x39 /home/leon/git/swp-report/iMX6_Platform_SDK/output/mx6sdl/lib/libboard_smart_device_rev_b.a(ecspi1_iomux_config.o)
 .ARM.attributes
                0x00000000000007c9       0x39 /home/leon/git/swp-report/iMX6_Platform_SDK/output/mx6sdl/lib/libboard_smart_device_rev_b.a(enet_iomux_config.o)
 .ARM.attributes
                0x0000000000000802       0x39 /home/leon/git/swp-report/iMX6_Platform_SDK/output/mx6sdl/lib/libboard_smart_device_rev_b.a(epdc_iomux_config.o)
 .ARM.attributes
                0x000000000000083b       0x39 /home/leon/git/swp-report/iMX6_Platform_SDK/output/mx6sdl/lib/libboard_smart_device_rev_b.a(flexcan1_iomux_config.o)
 .ARM.attributes
                0x0000000000000874       0x39 /home/leon/git/swp-report/iMX6_Platform_SDK/output/mx6sdl/lib/libboard_smart_device_rev_b.a(gpio1_iomux_config.o)
 .ARM.attributes
                0x00000000000008ad       0x39 /home/leon/git/swp-report/iMX6_Platform_SDK/output/mx6sdl/lib/libboard_smart_device_rev_b.a(gpio2_iomux_config.o)
 .ARM.attributes
                0x00000000000008e6       0x39 /home/leon/git/swp-report/iMX6_Platform_SDK/output/mx6sdl/lib/libboard_smart_device_rev_b.a(gpio3_iomux_config.o)
 .ARM.attributes
                0x000000000000091f       0x39 /home/leon/git/swp-report/iMX6_Platform_SDK/output/mx6sdl/lib/libboard_smart_device_rev_b.a(gpio4_iomux_config.o)
 .ARM.attributes
                0x0000000000000958       0x39 /home/leon/git/swp-report/iMX6_Platform_SDK/output/mx6sdl/lib/libboard_smart_device_rev_b.a(gpio5_iomux_config.o)
 .ARM.attributes
                0x0000000000000991       0x39 /home/leon/git/swp-report/iMX6_Platform_SDK/output/mx6sdl/lib/libboard_smart_device_rev_b.a(gpio6_iomux_config.o)
 .ARM.attributes
                0x00000000000009ca       0x39 /home/leon/git/swp-report/iMX6_Platform_SDK/output/mx6sdl/lib/libboard_smart_device_rev_b.a(gpio7_iomux_config.o)
 .ARM.attributes
                0x0000000000000a03       0x39 /home/leon/git/swp-report/iMX6_Platform_SDK/output/mx6sdl/lib/libboard_smart_device_rev_b.a(gps_iomux_config.o)
 .ARM.attributes
                0x0000000000000a3c       0x39 /home/leon/git/swp-report/iMX6_Platform_SDK/output/mx6sdl/lib/libboard_smart_device_rev_b.a(i2c1_iomux_config.o)
 .ARM.attributes
                0x0000000000000a75       0x39 /home/leon/git/swp-report/iMX6_Platform_SDK/output/mx6sdl/lib/libboard_smart_device_rev_b.a(i2c2_iomux_config.o)
 .ARM.attributes
                0x0000000000000aae       0x39 /home/leon/git/swp-report/iMX6_Platform_SDK/output/mx6sdl/lib/libboard_smart_device_rev_b.a(i2c3_iomux_config.o)
 .ARM.attributes
                0x0000000000000ae7       0x30 /home/src/arm/target/bin/../arm-none-eabi/lib//libc.a(lib_a-assert.o)
 .ARM.attributes
                0x0000000000000b17       0x30 /home/src/arm/target/bin/../arm-none-eabi/lib//libc.a(lib_a-bzero.o)
 .ARM.attributes
                0x0000000000000b47       0x30 /home/src/arm/target/bin/../arm-none-eabi/lib//libc.a(lib_a-fiprintf.o)
 .ARM.attributes
                0x0000000000000b77       0x30 /home/src/arm/target/bin/../arm-none-eabi/lib//libc.a(lib_a-fputc.o)
 .ARM.attributes
                0x0000000000000ba7       0x30 /home/src/arm/target/bin/../arm-none-eabi/lib//libc.a(lib_a-impure.o)
 .ARM.attributes
                0x0000000000000bd7       0x30 /home/src/arm/target/bin/../arm-none-eabi/lib//libc.a(lib_a-init.o)
 .ARM.attributes
                0x0000000000000c07       0x30 /home/src/arm/target/bin/../arm-none-eabi/lib//libc.a(lib_a-malloc.o)
 .ARM.attributes
                0x0000000000000c37       0x30 /home/src/arm/target/bin/../arm-none-eabi/lib//libc.a(lib_a-mallocr.o)
 .ARM.attributes
                0x0000000000000c67       0x30 /home/src/arm/target/bin/../arm-none-eabi/lib//libc.a(lib_a-memcpy-stub.o)
 .ARM.attributes
                0x0000000000000c97       0x30 /home/src/arm/target/bin/../arm-none-eabi/lib//libc.a(lib_a-memset.o)
 .ARM.attributes
                0x0000000000000cc7       0x30 /home/src/arm/target/bin/../arm-none-eabi/lib//libc.a(lib_a-mlock.o)
 .ARM.attributes
                0x0000000000000cf7       0x30 /home/src/arm/target/bin/../arm-none-eabi/lib//libc.a(lib_a-printf.o)
 .ARM.attributes
                0x0000000000000d27       0x30 /home/src/arm/target/bin/../arm-none-eabi/lib//libc.a(lib_a-putc.o)
 .ARM.attributes
                0x0000000000000d57       0x30 /home/src/arm/target/bin/../arm-none-eabi/lib//libc.a(lib_a-realloc.o)
 .ARM.attributes
                0x0000000000000d87       0x30 /home/src/arm/target/bin/../arm-none-eabi/lib//libc.a(lib_a-reallocr.o)
 .ARM.attributes
                0x0000000000000db7       0x30 /home/src/arm/target/bin/../arm-none-eabi/lib//libc.a(lib_a-rget.o)
 .ARM.attributes
                0x0000000000000de7       0x30 /home/src/arm/target/bin/../arm-none-eabi/lib//libc.a(lib_a-sbrkr.o)
 .ARM.attributes
                0x0000000000000e17       0x30 /home/src/arm/target/bin/../arm-none-eabi/lib//libc.a(lib_a-syscalls.o)
 .ARM.attributes
                0x0000000000000e47       0x30 /home/src/arm/target/bin/../arm-none-eabi/lib//libc.a(lib_a-vfiprintf.o)
 .ARM.attributes
                0x0000000000000e77       0x30 /home/src/arm/target/bin/../arm-none-eabi/lib//libc.a(lib_a-vfprintf.o)
 .ARM.attributes
                0x0000000000000ea7       0x30 /home/src/arm/target/bin/../arm-none-eabi/lib//libc.a(lib_a-vprintf.o)
 .ARM.attributes
                0x0000000000000ed7       0x30 /home/src/arm/target/bin/../arm-none-eabi/lib//libc.a(lib_a-wbuf.o)
 .ARM.attributes
                0x0000000000000f07       0x30 /home/src/arm/target/bin/../arm-none-eabi/lib//libc.a(lib_a-wsetup.o)
 .ARM.attributes
                0x0000000000000f37       0x30 /home/src/arm/target/bin/../arm-none-eabi/lib//libc.a(lib_a-abort.o)
 .ARM.attributes
                0x0000000000000f67       0x30 /home/src/arm/target/bin/../arm-none-eabi/lib//libc.a(lib_a-dtoa.o)
 .ARM.attributes
                0x0000000000000f97       0x30 /home/src/arm/target/bin/../arm-none-eabi/lib//libc.a(lib_a-errno.o)
 .ARM.attributes
                0x0000000000000fc7       0x30 /home/src/arm/target/bin/../arm-none-eabi/lib//libc.a(lib_a-fflush.o)
 .ARM.attributes
                0x0000000000000ff7       0x30 /home/src/arm/target/bin/../arm-none-eabi/lib//libc.a(lib_a-findfp.o)
 .ARM.attributes
                0x0000000000001027       0x30 /home/src/arm/target/bin/../arm-none-eabi/lib//libc.a(lib_a-fputwc.o)
 .ARM.attributes
                0x0000000000001057       0x30 /home/src/arm/target/bin/../arm-none-eabi/lib//libc.a(lib_a-freer.o)
 .ARM.attributes
                0x0000000000001087       0x30 /home/src/arm/target/bin/../arm-none-eabi/lib//libc.a(lib_a-fvwrite.o)
 .ARM.attributes
                0x00000000000010b7       0x30 /home/src/arm/target/bin/../arm-none-eabi/lib//libc.a(lib_a-fwalk.o)
 .ARM.attributes
                0x00000000000010e7       0x30 /home/src/arm/target/bin/../arm-none-eabi/lib//libc.a(lib_a-locale.o)
 .ARM.attributes
                0x0000000000001117       0x30 /home/src/arm/target/bin/../arm-none-eabi/lib//libc.a(lib_a-makebuf.o)
 .ARM.attributes
                0x0000000000001147       0x30 /home/src/arm/target/bin/../arm-none-eabi/lib//libc.a(lib_a-memchr-stub.o)
 .ARM.attributes
                0x0000000000001177       0x30 /home/src/arm/target/bin/../arm-none-eabi/lib//libc.a(lib_a-memmove.o)
 .ARM.attributes
                0x00000000000011a7       0x30 /home/src/arm/target/bin/../arm-none-eabi/lib//libc.a(lib_a-mprec.o)
 .ARM.attributes
                0x00000000000011d7       0x30 /home/src/arm/target/bin/../arm-none-eabi/lib//libc.a(lib_a-reent.o)
 .ARM.attributes
                0x0000000000001207       0x30 /home/src/arm/target/bin/../arm-none-eabi/lib//libc.a(lib_a-refill.o)
 .ARM.attributes
                0x0000000000001237       0x30 /home/src/arm/target/bin/../arm-none-eabi/lib//libc.a(lib_a-s_fpclassify.o)
 .ARM.attributes
                0x0000000000001267       0x30 /home/src/arm/target/bin/../arm-none-eabi/lib//libc.a(lib_a-signal.o)
 .ARM.attributes
                0x0000000000001297       0x30 /home/src/arm/target/bin/../arm-none-eabi/lib//libc.a(lib_a-signalr.o)
 .ARM.attributes
                0x00000000000012c7       0x30 /home/src/arm/target/bin/../arm-none-eabi/lib//libc.a(lib_a-stdio.o)
 .ARM.attributes
                0x00000000000012f7       0x16 /home/src/arm/target/bin/../arm-none-eabi/lib//libc.a(lib_a-strcmp.o)
 .ARM.attributes
                0x000000000000130d       0x30 /home/src/arm/target/bin/../arm-none-eabi/lib//libc.a(lib_a-strlen.o)
 .ARM.attributes
                0x000000000000133d       0x30 /home/src/arm/target/bin/../arm-none-eabi/lib//libc.a(lib_a-wcrtomb.o)
 .ARM.attributes
                0x000000000000136d       0x30 /home/src/arm/target/bin/../arm-none-eabi/lib//libc.a(lib_a-wctomb_r.o)
 .ARM.attributes
                0x000000000000139d       0x30 /home/src/arm/target/bin/../arm-none-eabi/lib//libc.a(lib_a-writer.o)
 .ARM.attributes
                0x00000000000013cd       0x30 /home/src/arm/target/bin/../arm-none-eabi/lib//libc.a(lib_a-callocr.o)
 .ARM.attributes
                0x00000000000013fd       0x30 /home/src/arm/target/bin/../arm-none-eabi/lib//libc.a(lib_a-closer.o)
 .ARM.attributes
                0x000000000000142d       0x30 /home/src/arm/target/bin/../arm-none-eabi/lib//libc.a(lib_a-fclose.o)
 .ARM.attributes
                0x000000000000145d       0x30 /home/src/arm/target/bin/../arm-none-eabi/lib//libc.a(lib_a-fstatr.o)
 .ARM.attributes
                0x000000000000148d       0x30 /home/src/arm/target/bin/../arm-none-eabi/lib//libc.a(lib_a-isattyr.o)
 .ARM.attributes
                0x00000000000014bd       0x30 /home/src/arm/target/bin/../arm-none-eabi/lib//libc.a(lib_a-lseekr.o)
 .ARM.attributes
                0x00000000000014ed       0x30 /home/src/arm/target/bin/../arm-none-eabi/lib//libc.a(lib_a-readr.o)
 .ARM.attributes
                0x000000000000151d       0x18 /home/src/arm/target/bin/../lib/gcc/arm-none-eabi/4.8.2//libgcc.a(_udivsi3.o)
 .ARM.attributes
                0x0000000000001535       0x18 /home/src/arm/target/bin/../lib/gcc/arm-none-eabi/4.8.2//libgcc.a(_divsi3.o)
 .ARM.attributes
                0x000000000000154d       0x18 /home/src/arm/target/bin/../lib/gcc/arm-none-eabi/4.8.2//libgcc.a(_dvmd_tls.o)
 .ARM.attributes
                0x0000000000001565       0x18 /home/src/arm/target/bin/../lib/gcc/arm-none-eabi/4.8.2//libgcc.a(_arm_addsubdf3.o)
 .ARM.attributes
                0x000000000000157d       0x18 /home/src/arm/target/bin/../lib/gcc/arm-none-eabi/4.8.2//libgcc.a(_arm_muldivdf3.o)
 .ARM.attributes
                0x0000000000001595       0x18 /home/src/arm/target/bin/../lib/gcc/arm-none-eabi/4.8.2//libgcc.a(_arm_cmpdf2.o)
 .ARM.attributes
                0x00000000000015ad       0x18 /home/src/arm/target/bin/../lib/gcc/arm-none-eabi/4.8.2//libgcc.a(_arm_fixdfsi.o)
 .ARM.attributes
                0x00000000000015c5       0x18 /home/src/arm/target/bin/../lib/gcc/arm-none-eabi/4.8.2//libgcc.a(_aeabi_uldivmod.o)
 .ARM.attributes
                0x00000000000015dd       0x30 /home/src/arm/target/bin/../lib/gcc/arm-none-eabi/4.8.2//libgcc.a(bpabi.o)
 .ARM.attributes
                0x000000000000160d       0x30 /home/src/arm/target/bin/../lib/gcc/arm-none-eabi/4.8.2//libgcc.a(_divdi3.o)
 .ARM.attributes
                0x000000000000163d       0x30 /home/src/arm/target/bin/../lib/gcc/arm-none-eabi/4.8.2//libgcc.a(_udivdi3.o)
 .ARM.attributes
                0x000000000000166d       0x18 /home/src/arm/target/bin/../lib/gcc/arm-none-eabi/4.8.2//libgcc.a(_clzsi2.o)

.debug_info     0x0000000000000000    0x4218f
 .debug_info    0x0000000000000000      0x918 /home/leon/git/swp-report/iMX6_Platform_SDK/output/mx6sdl/caam_blob_gen/smart_device_rev_b/obj/apps/caam_blob_gen/src/caam_blob_gen.o
 .debug_info    0x0000000000000918      0x1ff /home/leon/git/swp-report/iMX6_Platform_SDK/output/mx6sdl/caam_blob_gen/smart_device_rev_b/obj/apps/common/ivt.o
 .debug_info    0x0000000000000b17      0x191 /home/leon/git/swp-report/iMX6_Platform_SDK/output/mx6sdl/caam_blob_gen/smart_device_rev_b/obj/apps/common/platform_init.o
 .debug_info    0x0000000000000ca8     0x1ad0 /home/leon/git/swp-report/iMX6_Platform_SDK/output/mx6sdl/lib/libsdk.a(ccm_pll.o)
 .debug_info    0x0000000000002778      0x767 /home/leon/git/swp-report/iMX6_Platform_SDK/output/mx6sdl/lib/libsdk.a(gic.o)
 .debug_info    0x0000000000002edf      0x3b3 /home/leon/git/swp-report/iMX6_Platform_SDK/output/mx6sdl/lib/libsdk.a(mmu.o)
 .debug_info    0x0000000000003292     0x1360 /home/leon/git/swp-report/iMX6_Platform_SDK/output/mx6sdl/lib/libsdk.a(system_util.o)
 .debug_info    0x00000000000045f2      0x278 /home/leon/git/swp-report/iMX6_Platform_SDK/output/mx6sdl/lib/libsdk.a(text_color.o)
 .debug_info    0x000000000000486a      0x3bf /home/leon/git/swp-report/iMX6_Platform_SDK/output/mx6sdl/lib/libsdk.a(caam.o)
 .debug_info    0x0000000000004c29      0x2f5 /home/leon/git/swp-report/iMX6_Platform_SDK/output/mx6sdl/lib/libsdk.a(timer.o)
 .debug_info    0x0000000000004f1e     0x10ca /home/leon/git/swp-report/iMX6_Platform_SDK/output/mx6sdl/lib/libsdk.a(imx_uart.o)
 .debug_info    0x0000000000005fe8      0x61f /home/leon/git/swp-report/iMX6_Platform_SDK/output/mx6sdl/lib/libsdk.a(interrupt.o)
 .debug_info    0x0000000000006607      0x968 /home/leon/git/swp-report/iMX6_Platform_SDK/output/mx6sdl/lib/libsdk.a(epit.o)
 .debug_info    0x0000000000006f6f      0x205 /home/leon/git/swp-report/iMX6_Platform_SDK/output/mx6sdl/lib/libsdk.a(abort_handler.o)
 .debug_info    0x0000000000007174      0x1d5 /home/leon/git/swp-report/iMX6_Platform_SDK/output/mx6sdl/lib/libboard_smart_device_rev_b.a(board_io_expanders.o)
 .debug_info    0x0000000000007349       0x9f /home/leon/git/swp-report/iMX6_Platform_SDK/output/mx6sdl/lib/libboard_smart_device_rev_b.a(hardware_modules.o)
 .debug_info    0x00000000000073e8       0xe6 /home/leon/git/swp-report/iMX6_Platform_SDK/output/mx6sdl/lib/libboard_smart_device_rev_b.a(dcd.o)
 .debug_info    0x00000000000074ce       0xc9 /home/leon/git/swp-report/iMX6_Platform_SDK/output/mx6sdl/lib/libboard_smart_device_rev_b.a(uart_iomux_config.o)
 .debug_info    0x0000000000007597      0x2db /home/leon/git/swp-report/iMX6_Platform_SDK/output/mx6sdl/lib/libboard_smart_device_rev_b.a(iomux_config.o)
 .debug_info    0x0000000000007872     0x28d2 /home/leon/git/swp-report/iMX6_Platform_SDK/output/mx6sdl/lib/libboard_smart_device_rev_b.a(ipu1_iomux_config.o)
 .debug_info    0x000000000000a144     0x365e /home/leon/git/swp-report/iMX6_Platform_SDK/output/mx6sdl/lib/libboard_smart_device_rev_b.a(mmdc_iomux_config.o)
 .debug_info    0x000000000000d7a2      0x1e2 /home/leon/git/swp-report/iMX6_Platform_SDK/output/mx6sdl/lib/libboard_smart_device_rev_b.a(pwm1_iomux_config.o)
 .debug_info    0x000000000000d984      0x6a2 /home/leon/git/swp-report/iMX6_Platform_SDK/output/mx6sdl/lib/libboard_smart_device_rev_b.a(sjc_iomux_config.o)
 .debug_info    0x000000000000e026      0x394 /home/leon/git/swp-report/iMX6_Platform_SDK/output/mx6sdl/lib/libboard_smart_device_rev_b.a(uart1_iomux_config.o)
 .debug_info    0x000000000000e3ba      0x3ee /home/leon/git/swp-report/iMX6_Platform_SDK/output/mx6sdl/lib/libboard_smart_device_rev_b.a(usb_iomux_config.o)
 .debug_info    0x000000000000e7a8     0x1014 /home/leon/git/swp-report/iMX6_Platform_SDK/output/mx6sdl/lib/libboard_smart_device_rev_b.a(usdhc2_iomux_config.o)
 .debug_info    0x000000000000f7bc     0x1014 /home/leon/git/swp-report/iMX6_Platform_SDK/output/mx6sdl/lib/libboard_smart_device_rev_b.a(usdhc3_iomux_config.o)
 .debug_info    0x00000000000107d0     0x1014 /home/leon/git/swp-report/iMX6_Platform_SDK/output/mx6sdl/lib/libboard_smart_device_rev_b.a(usdhc4_iomux_config.o)
 .debug_info    0x00000000000117e4      0x5fa /home/leon/git/swp-report/iMX6_Platform_SDK/output/mx6sdl/lib/libboard_smart_device_rev_b.a(audmux_iomux_config.o)
 .debug_info    0x0000000000011dde      0x1e2 /home/leon/git/swp-report/iMX6_Platform_SDK/output/mx6sdl/lib/libboard_smart_device_rev_b.a(ccm_iomux_config.o)
 .debug_info    0x0000000000011fc0      0x822 /home/leon/git/swp-report/iMX6_Platform_SDK/output/mx6sdl/lib/libboard_smart_device_rev_b.a(ecspi1_iomux_config.o)
 .debug_info    0x00000000000127e2     0x2090 /home/leon/git/swp-report/iMX6_Platform_SDK/output/mx6sdl/lib/libboard_smart_device_rev_b.a(enet_iomux_config.o)
 .debug_info    0x0000000000014872     0x4392 /home/leon/git/swp-report/iMX6_Platform_SDK/output/mx6sdl/lib/libboard_smart_device_rev_b.a(epdc_iomux_config.o)
 .debug_info    0x0000000000018c04      0x3b4 /home/leon/git/swp-report/iMX6_Platform_SDK/output/mx6sdl/lib/libboard_smart_device_rev_b.a(flexcan1_iomux_config.o)
 .debug_info    0x0000000000018fb8     0x15ba /home/leon/git/swp-report/iMX6_Platform_SDK/output/mx6sdl/lib/libboard_smart_device_rev_b.a(gpio1_iomux_config.o)
 .debug_info    0x000000000001a572      0xeca /home/leon/git/swp-report/iMX6_Platform_SDK/output/mx6sdl/lib/libboard_smart_device_rev_b.a(gpio2_iomux_config.o)
 .debug_info    0x000000000001b43c     0x1512 /home/leon/git/swp-report/iMX6_Platform_SDK/output/mx6sdl/lib/libboard_smart_device_rev_b.a(gpio3_iomux_config.o)
 .debug_info    0x000000000001c94e      0x802 /home/leon/git/swp-report/iMX6_Platform_SDK/output/mx6sdl/lib/libboard_smart_device_rev_b.a(gpio4_iomux_config.o)
 .debug_info    0x000000000001d150      0x4a2 /home/leon/git/swp-report/iMX6_Platform_SDK/output/mx6sdl/lib/libboard_smart_device_rev_b.a(gpio5_iomux_config.o)
 .debug_info    0x000000000001d5f2      0xd72 /home/leon/git/swp-report/iMX6_Platform_SDK/output/mx6sdl/lib/libboard_smart_device_rev_b.a(gpio6_iomux_config.o)
 .debug_info    0x000000000001e364      0x4f2 /home/leon/git/swp-report/iMX6_Platform_SDK/output/mx6sdl/lib/libboard_smart_device_rev_b.a(gpio7_iomux_config.o)
 .debug_info    0x000000000001e856      0x79c /home/leon/git/swp-report/iMX6_Platform_SDK/output/mx6sdl/lib/libboard_smart_device_rev_b.a(gps_iomux_config.o)
 .debug_info    0x000000000001eff2      0x3fe /home/leon/git/swp-report/iMX6_Platform_SDK/output/mx6sdl/lib/libboard_smart_device_rev_b.a(i2c1_iomux_config.o)
 .debug_info    0x000000000001f3f0      0x43e /home/leon/git/swp-report/iMX6_Platform_SDK/output/mx6sdl/lib/libboard_smart_device_rev_b.a(i2c2_iomux_config.o)
 .debug_info    0x000000000001f82e      0x43e /home/leon/git/swp-report/iMX6_Platform_SDK/output/mx6sdl/lib/libboard_smart_device_rev_b.a(i2c3_iomux_config.o)
 .debug_info    0x000000000001fc6c      0x990 /home/src/arm/target/bin/../arm-none-eabi/lib//libc.a(lib_a-assert.o)
 .debug_info    0x00000000000205fc       0xc8 /home/src/arm/target/bin/../arm-none-eabi/lib//libc.a(lib_a-bzero.o)
 .debug_info    0x00000000000206c4      0x9c2 /home/src/arm/target/bin/../arm-none-eabi/lib//libc.a(lib_a-fiprintf.o)
 .debug_info    0x0000000000021086      0x9d1 /home/src/arm/target/bin/../arm-none-eabi/lib//libc.a(lib_a-fputc.o)
 .debug_info    0x0000000000021a57      0x894 /home/src/arm/target/bin/../arm-none-eabi/lib//libc.a(lib_a-impure.o)
 .debug_info    0x00000000000222eb      0x105 /home/src/arm/target/bin/../arm-none-eabi/lib//libc.a(lib_a-init.o)
 .debug_info    0x00000000000223f0      0x915 /home/src/arm/target/bin/../arm-none-eabi/lib//libc.a(lib_a-malloc.o)
 .debug_info    0x0000000000022d05      0xd81 /home/src/arm/target/bin/../arm-none-eabi/lib//libc.a(lib_a-mallocr.o)
 .debug_info    0x0000000000023a86      0x131 /home/src/arm/target/bin/../arm-none-eabi/lib//libc.a(lib_a-memcpy-stub.o)
 .debug_info    0x0000000000023bb7      0x117 /home/src/arm/target/bin/../arm-none-eabi/lib//libc.a(lib_a-memset.o)
 .debug_info    0x0000000000023cce      0x8b4 /home/src/arm/target/bin/../arm-none-eabi/lib//libc.a(lib_a-mlock.o)
 .debug_info    0x0000000000024582      0x9ab /home/src/arm/target/bin/../arm-none-eabi/lib//libc.a(lib_a-printf.o)
 .debug_info    0x0000000000024f2d      0xa0a /home/src/arm/target/bin/../arm-none-eabi/lib//libc.a(lib_a-putc.o)
 .debug_info    0x0000000000025937      0x8e3 /home/src/arm/target/bin/../arm-none-eabi/lib//libc.a(lib_a-realloc.o)
 .debug_info    0x000000000002621a      0xcd4 /home/src/arm/target/bin/../arm-none-eabi/lib//libc.a(lib_a-reallocr.o)
 .debug_info    0x0000000000026eee      0x94f /home/src/arm/target/bin/../arm-none-eabi/lib//libc.a(lib_a-rget.o)
 .debug_info    0x000000000002783d      0x8f4 /home/src/arm/target/bin/../arm-none-eabi/lib//libc.a(lib_a-sbrkr.o)
 .debug_info    0x0000000000028131     0x1e01 /home/src/arm/target/bin/../arm-none-eabi/lib//libc.a(lib_a-syscalls.o)
 .debug_info    0x0000000000029f32     0x153c /home/src/arm/target/bin/../arm-none-eabi/lib//libc.a(lib_a-vfiprintf.o)
 .debug_info    0x000000000002b46e     0x1828 /home/src/arm/target/bin/../arm-none-eabi/lib//libc.a(lib_a-vfprintf.o)
 .debug_info    0x000000000002cc96      0x987 /home/src/arm/target/bin/../arm-none-eabi/lib//libc.a(lib_a-vprintf.o)
 .debug_info    0x000000000002d61d      0x9cc /home/src/arm/target/bin/../arm-none-eabi/lib//libc.a(lib_a-wbuf.o)
 .debug_info    0x000000000002dfe9      0x93b /home/src/arm/target/bin/../arm-none-eabi/lib//libc.a(lib_a-wsetup.o)
 .debug_info    0x000000000002e924       0xd4 /home/src/arm/target/bin/../arm-none-eabi/lib//libc.a(lib_a-abort.o)
 .debug_info    0x000000000002e9f8     0x1326 /home/src/arm/target/bin/../arm-none-eabi/lib//libc.a(lib_a-dtoa.o)
 .debug_info    0x000000000002fd1e      0x889 /home/src/arm/target/bin/../arm-none-eabi/lib//libc.a(lib_a-errno.o)
 .debug_info    0x00000000000305a7      0xab7 /home/src/arm/target/bin/../arm-none-eabi/lib//libc.a(lib_a-fflush.o)
 .debug_info    0x000000000003105e      0xd39 /home/src/arm/target/bin/../arm-none-eabi/lib//libc.a(lib_a-findfp.o)
 .debug_info    0x0000000000031d97      0xac7 /home/src/arm/target/bin/../arm-none-eabi/lib//libc.a(lib_a-fputwc.o)
 .debug_info    0x000000000003285e      0xc06 /home/src/arm/target/bin/../arm-none-eabi/lib//libc.a(lib_a-freer.o)
 .debug_info    0x0000000000033464      0xc4a /home/src/arm/target/bin/../arm-none-eabi/lib//libc.a(lib_a-fvwrite.o)
 .debug_info    0x00000000000340ae      0x99e /home/src/arm/target/bin/../arm-none-eabi/lib//libc.a(lib_a-fwalk.o)
 .debug_info    0x0000000000034a4c      0xbe5 /home/src/arm/target/bin/../arm-none-eabi/lib//libc.a(lib_a-locale.o)
 .debug_info    0x0000000000035631      0xae6 /home/src/arm/target/bin/../arm-none-eabi/lib//libc.a(lib_a-makebuf.o)
 .debug_info    0x0000000000036117      0x129 /home/src/arm/target/bin/../arm-none-eabi/lib//libc.a(lib_a-memchr-stub.o)
 .debug_info    0x0000000000036240      0x131 /home/src/arm/target/bin/../arm-none-eabi/lib//libc.a(lib_a-memmove.o)
 .debug_info    0x0000000000036371     0x167e /home/src/arm/target/bin/../arm-none-eabi/lib//libc.a(lib_a-mprec.o)
 .debug_info    0x00000000000379ef      0x9f9 /home/src/arm/target/bin/../arm-none-eabi/lib//libc.a(lib_a-reent.o)
 .debug_info    0x00000000000383e8      0xa5e /home/src/arm/target/bin/../arm-none-eabi/lib//libc.a(lib_a-refill.o)
 .debug_info    0x0000000000038e46       0xdb /home/src/arm/target/bin/../arm-none-eabi/lib//libc.a(lib_a-s_fpclassify.o)
 .debug_info    0x0000000000038f21      0xb5e /home/src/arm/target/bin/../arm-none-eabi/lib//libc.a(lib_a-signal.o)
 .debug_info    0x0000000000039a7f      0x958 /home/src/arm/target/bin/../arm-none-eabi/lib//libc.a(lib_a-signalr.o)
 .debug_info    0x000000000003a3d7      0xb89 /home/src/arm/target/bin/../arm-none-eabi/lib//libc.a(lib_a-stdio.o)
 .debug_info    0x000000000003af60       0xaa /home/src/arm/target/bin/../arm-none-eabi/lib//libc.a(lib_a-strcmp.o)
 .debug_info    0x000000000003b00a       0xb5 /home/src/arm/target/bin/../arm-none-eabi/lib//libc.a(lib_a-strlen.o)
 .debug_info    0x000000000003b0bf      0xa77 /home/src/arm/target/bin/../arm-none-eabi/lib//libc.a(lib_a-wcrtomb.o)
 .debug_info    0x000000000003bb36      0x9b5 /home/src/arm/target/bin/../arm-none-eabi/lib//libc.a(lib_a-wctomb_r.o)
 .debug_info    0x000000000003c4eb      0x929 /home/src/arm/target/bin/../arm-none-eabi/lib//libc.a(lib_a-writer.o)
 .debug_info    0x000000000003ce14      0x9e0 /home/src/arm/target/bin/../arm-none-eabi/lib//libc.a(lib_a-callocr.o)
 .debug_info    0x000000000003d7f4      0x8e0 /home/src/arm/target/bin/../arm-none-eabi/lib//libc.a(lib_a-closer.o)
 .debug_info    0x000000000003e0d4      0x9e5 /home/src/arm/target/bin/../arm-none-eabi/lib//libc.a(lib_a-fclose.o)
 .debug_info    0x000000000003eab9      0xa5e /home/src/arm/target/bin/../arm-none-eabi/lib//libc.a(lib_a-fstatr.o)
 .debug_info    0x000000000003f517      0x8e0 /home/src/arm/target/bin/../arm-none-eabi/lib//libc.a(lib_a-isattyr.o)
 .debug_info    0x000000000003fdf7      0x90c /home/src/arm/target/bin/../arm-none-eabi/lib//libc.a(lib_a-lseekr.o)
 .debug_info    0x0000000000040703      0x922 /home/src/arm/target/bin/../arm-none-eabi/lib//libc.a(lib_a-readr.o)
 .debug_info    0x0000000000041025       0x87 /home/src/arm/target/bin/../lib/gcc/arm-none-eabi/4.8.2//libgcc.a(_udivsi3.o)
 .debug_info    0x00000000000410ac       0x87 /home/src/arm/target/bin/../lib/gcc/arm-none-eabi/4.8.2//libgcc.a(_divsi3.o)
 .debug_info    0x0000000000041133       0x87 /home/src/arm/target/bin/../lib/gcc/arm-none-eabi/4.8.2//libgcc.a(_dvmd_tls.o)
 .debug_info    0x00000000000411ba       0x88 /home/src/arm/target/bin/../lib/gcc/arm-none-eabi/4.8.2//libgcc.a(_arm_addsubdf3.o)
 .debug_info    0x0000000000041242       0x88 /home/src/arm/target/bin/../lib/gcc/arm-none-eabi/4.8.2//libgcc.a(_arm_muldivdf3.o)
 .debug_info    0x00000000000412ca       0x88 /home/src/arm/target/bin/../lib/gcc/arm-none-eabi/4.8.2//libgcc.a(_arm_cmpdf2.o)
 .debug_info    0x0000000000041352       0x88 /home/src/arm/target/bin/../lib/gcc/arm-none-eabi/4.8.2//libgcc.a(_arm_fixdfsi.o)
 .debug_info    0x00000000000413da       0x83 /home/src/arm/target/bin/../lib/gcc/arm-none-eabi/4.8.2//libgcc.a(_aeabi_uldivmod.o)
 .debug_info    0x000000000004145d      0x164 /home/src/arm/target/bin/../lib/gcc/arm-none-eabi/4.8.2//libgcc.a(bpabi.o)
 .debug_info    0x00000000000415c1      0x5c4 /home/src/arm/target/bin/../lib/gcc/arm-none-eabi/4.8.2//libgcc.a(_divdi3.o)
 .debug_info    0x0000000000041b85      0x583 /home/src/arm/target/bin/../lib/gcc/arm-none-eabi/4.8.2//libgcc.a(_udivdi3.o)
 .debug_info    0x0000000000042108       0x87 /home/src/arm/target/bin/../lib/gcc/arm-none-eabi/4.8.2//libgcc.a(_clzsi2.o)

.debug_abbrev   0x0000000000000000     0xa097
 .debug_abbrev  0x0000000000000000      0x1d8 /home/leon/git/swp-report/iMX6_Platform_SDK/output/mx6sdl/caam_blob_gen/smart_device_rev_b/obj/apps/caam_blob_gen/src/caam_blob_gen.o
 .debug_abbrev  0x00000000000001d8       0xe6 /home/leon/git/swp-report/iMX6_Platform_SDK/output/mx6sdl/caam_blob_gen/smart_device_rev_b/obj/apps/common/ivt.o
 .debug_abbrev  0x00000000000002be       0x89 /home/leon/git/swp-report/iMX6_Platform_SDK/output/mx6sdl/caam_blob_gen/smart_device_rev_b/obj/apps/common/platform_init.o
 .debug_abbrev  0x0000000000000347      0x1b1 /home/leon/git/swp-report/iMX6_Platform_SDK/output/mx6sdl/lib/libsdk.a(ccm_pll.o)
 .debug_abbrev  0x00000000000004f8      0x188 /home/leon/git/swp-report/iMX6_Platform_SDK/output/mx6sdl/lib/libsdk.a(gic.o)
 .debug_abbrev  0x0000000000000680      0x172 /home/leon/git/swp-report/iMX6_Platform_SDK/output/mx6sdl/lib/libsdk.a(mmu.o)
 .debug_abbrev  0x00000000000007f2      0x28d /home/leon/git/swp-report/iMX6_Platform_SDK/output/mx6sdl/lib/libsdk.a(system_util.o)
 .debug_abbrev  0x0000000000000a7f       0xd0 /home/leon/git/swp-report/iMX6_Platform_SDK/output/mx6sdl/lib/libsdk.a(text_color.o)
 .debug_abbrev  0x0000000000000b4f      0x19c /home/leon/git/swp-report/iMX6_Platform_SDK/output/mx6sdl/lib/libsdk.a(caam.o)
 .debug_abbrev  0x0000000000000ceb      0x122 /home/leon/git/swp-report/iMX6_Platform_SDK/output/mx6sdl/lib/libsdk.a(timer.o)
 .debug_abbrev  0x0000000000000e0d      0x1e3 /home/leon/git/swp-report/iMX6_Platform_SDK/output/mx6sdl/lib/libsdk.a(imx_uart.o)
 .debug_abbrev  0x0000000000000ff0      0x11a /home/leon/git/swp-report/iMX6_Platform_SDK/output/mx6sdl/lib/libsdk.a(interrupt.o)
 .debug_abbrev  0x000000000000110a      0x194 /home/leon/git/swp-report/iMX6_Platform_SDK/output/mx6sdl/lib/libsdk.a(epit.o)
 .debug_abbrev  0x000000000000129e       0xc8 /home/leon/git/swp-report/iMX6_Platform_SDK/output/mx6sdl/lib/libsdk.a(abort_handler.o)
 .debug_abbrev  0x0000000000001366       0xb0 /home/leon/git/swp-report/iMX6_Platform_SDK/output/mx6sdl/lib/libboard_smart_device_rev_b.a(board_io_expanders.o)
 .debug_abbrev  0x0000000000001416       0x44 /home/leon/git/swp-report/iMX6_Platform_SDK/output/mx6sdl/lib/libboard_smart_device_rev_b.a(hardware_modules.o)
 .debug_abbrev  0x000000000000145a       0x75 /home/leon/git/swp-report/iMX6_Platform_SDK/output/mx6sdl/lib/libboard_smart_device_rev_b.a(dcd.o)
 .debug_abbrev  0x00000000000014cf       0x79 /home/leon/git/swp-report/iMX6_Platform_SDK/output/mx6sdl/lib/libboard_smart_device_rev_b.a(uart_iomux_config.o)
 .debug_abbrev  0x0000000000001548       0x42 /home/leon/git/swp-report/iMX6_Platform_SDK/output/mx6sdl/lib/libboard_smart_device_rev_b.a(iomux_config.o)
 .debug_abbrev  0x000000000000158a       0xa4 /home/leon/git/swp-report/iMX6_Platform_SDK/output/mx6sdl/lib/libboard_smart_device_rev_b.a(ipu1_iomux_config.o)
 .debug_abbrev  0x000000000000162e      0x106 /home/leon/git/swp-report/iMX6_Platform_SDK/output/mx6sdl/lib/libboard_smart_device_rev_b.a(mmdc_iomux_config.o)
 .debug_abbrev  0x0000000000001734       0xf1 /home/leon/git/swp-report/iMX6_Platform_SDK/output/mx6sdl/lib/libboard_smart_device_rev_b.a(pwm1_iomux_config.o)
 .debug_abbrev  0x0000000000001825       0xa4 /home/leon/git/swp-report/iMX6_Platform_SDK/output/mx6sdl/lib/libboard_smart_device_rev_b.a(sjc_iomux_config.o)
 .debug_abbrev  0x00000000000018c9       0xf1 /home/leon/git/swp-report/iMX6_Platform_SDK/output/mx6sdl/lib/libboard_smart_device_rev_b.a(uart1_iomux_config.o)
 .debug_abbrev  0x00000000000019ba       0xf1 /home/leon/git/swp-report/iMX6_Platform_SDK/output/mx6sdl/lib/libboard_smart_device_rev_b.a(usb_iomux_config.o)
 .debug_abbrev  0x0000000000001aab       0xf1 /home/leon/git/swp-report/iMX6_Platform_SDK/output/mx6sdl/lib/libboard_smart_device_rev_b.a(usdhc2_iomux_config.o)
 .debug_abbrev  0x0000000000001b9c       0xf1 /home/leon/git/swp-report/iMX6_Platform_SDK/output/mx6sdl/lib/libboard_smart_device_rev_b.a(usdhc3_iomux_config.o)
 .debug_abbrev  0x0000000000001c8d       0xf1 /home/leon/git/swp-report/iMX6_Platform_SDK/output/mx6sdl/lib/libboard_smart_device_rev_b.a(usdhc4_iomux_config.o)
 .debug_abbrev  0x0000000000001d7e       0xa4 /home/leon/git/swp-report/iMX6_Platform_SDK/output/mx6sdl/lib/libboard_smart_device_rev_b.a(audmux_iomux_config.o)
 .debug_abbrev  0x0000000000001e22       0xf1 /home/leon/git/swp-report/iMX6_Platform_SDK/output/mx6sdl/lib/libboard_smart_device_rev_b.a(ccm_iomux_config.o)
 .debug_abbrev  0x0000000000001f13       0xf1 /home/leon/git/swp-report/iMX6_Platform_SDK/output/mx6sdl/lib/libboard_smart_device_rev_b.a(ecspi1_iomux_config.o)
 .debug_abbrev  0x0000000000002004       0xf1 /home/leon/git/swp-report/iMX6_Platform_SDK/output/mx6sdl/lib/libboard_smart_device_rev_b.a(enet_iomux_config.o)
 .debug_abbrev  0x00000000000020f5      0x106 /home/leon/git/swp-report/iMX6_Platform_SDK/output/mx6sdl/lib/libboard_smart_device_rev_b.a(epdc_iomux_config.o)
 .debug_abbrev  0x00000000000021fb       0xf1 /home/leon/git/swp-report/iMX6_Platform_SDK/output/mx6sdl/lib/libboard_smart_device_rev_b.a(flexcan1_iomux_config.o)
 .debug_abbrev  0x00000000000022ec       0xf1 /home/leon/git/swp-report/iMX6_Platform_SDK/output/mx6sdl/lib/libboard_smart_device_rev_b.a(gpio1_iomux_config.o)
 .debug_abbrev  0x00000000000023dd      0x106 /home/leon/git/swp-report/iMX6_Platform_SDK/output/mx6sdl/lib/libboard_smart_device_rev_b.a(gpio2_iomux_config.o)
 .debug_abbrev  0x00000000000024e3      0x106 /home/leon/git/swp-report/iMX6_Platform_SDK/output/mx6sdl/lib/libboard_smart_device_rev_b.a(gpio3_iomux_config.o)
 .debug_abbrev  0x00000000000025e9       0xf1 /home/leon/git/swp-report/iMX6_Platform_SDK/output/mx6sdl/lib/libboard_smart_device_rev_b.a(gpio4_iomux_config.o)
 .debug_abbrev  0x00000000000026da      0x106 /home/leon/git/swp-report/iMX6_Platform_SDK/output/mx6sdl/lib/libboard_smart_device_rev_b.a(gpio5_iomux_config.o)
 .debug_abbrev  0x00000000000027e0      0x106 /home/leon/git/swp-report/iMX6_Platform_SDK/output/mx6sdl/lib/libboard_smart_device_rev_b.a(gpio6_iomux_config.o)
 .debug_abbrev  0x00000000000028e6       0xf1 /home/leon/git/swp-report/iMX6_Platform_SDK/output/mx6sdl/lib/libboard_smart_device_rev_b.a(gpio7_iomux_config.o)
 .debug_abbrev  0x00000000000029d7      0x106 /home/leon/git/swp-report/iMX6_Platform_SDK/output/mx6sdl/lib/libboard_smart_device_rev_b.a(gps_iomux_config.o)
 .debug_abbrev  0x0000000000002add       0xf1 /home/leon/git/swp-report/iMX6_Platform_SDK/output/mx6sdl/lib/libboard_smart_device_rev_b.a(i2c1_iomux_config.o)
 .debug_abbrev  0x0000000000002bce       0xf1 /home/leon/git/swp-report/iMX6_Platform_SDK/output/mx6sdl/lib/libboard_smart_device_rev_b.a(i2c2_iomux_config.o)
 .debug_abbrev  0x0000000000002cbf       0xf1 /home/leon/git/swp-report/iMX6_Platform_SDK/output/mx6sdl/lib/libboard_smart_device_rev_b.a(i2c3_iomux_config.o)
 .debug_abbrev  0x0000000000002db0      0x1f8 /home/src/arm/target/bin/../arm-none-eabi/lib//libc.a(lib_a-assert.o)
 .debug_abbrev  0x0000000000002fa8       0x8c /home/src/arm/target/bin/../arm-none-eabi/lib//libc.a(lib_a-bzero.o)
 .debug_abbrev  0x0000000000003034      0x216 /home/src/arm/target/bin/../arm-none-eabi/lib//libc.a(lib_a-fiprintf.o)
 .debug_abbrev  0x000000000000324a      0x22f /home/src/arm/target/bin/../arm-none-eabi/lib//libc.a(lib_a-fputc.o)
 .debug_abbrev  0x0000000000003479      0x180 /home/src/arm/target/bin/../arm-none-eabi/lib//libc.a(lib_a-impure.o)
 .debug_abbrev  0x00000000000035f9       0xba /home/src/arm/target/bin/../arm-none-eabi/lib//libc.a(lib_a-init.o)
 .debug_abbrev  0x00000000000036b3      0x1f7 /home/src/arm/target/bin/../arm-none-eabi/lib//libc.a(lib_a-malloc.o)
 .debug_abbrev  0x00000000000038aa      0x2a2 /home/src/arm/target/bin/../arm-none-eabi/lib//libc.a(lib_a-mallocr.o)
 .debug_abbrev  0x0000000000003b4c       0xab /home/src/arm/target/bin/../arm-none-eabi/lib//libc.a(lib_a-memcpy-stub.o)
 .debug_abbrev  0x0000000000003bf7       0x9f /home/src/arm/target/bin/../arm-none-eabi/lib//libc.a(lib_a-memset.o)
 .debug_abbrev  0x0000000000003c96      0x19a /home/src/arm/target/bin/../arm-none-eabi/lib//libc.a(lib_a-mlock.o)
 .debug_abbrev  0x0000000000003e30      0x227 /home/src/arm/target/bin/../arm-none-eabi/lib//libc.a(lib_a-printf.o)
 .debug_abbrev  0x0000000000004057      0x229 /home/src/arm/target/bin/../arm-none-eabi/lib//libc.a(lib_a-putc.o)
 .debug_abbrev  0x0000000000004280      0x1d9 /home/src/arm/target/bin/../arm-none-eabi/lib//libc.a(lib_a-realloc.o)
 .debug_abbrev  0x0000000000004459      0x25b /home/src/arm/target/bin/../arm-none-eabi/lib//libc.a(lib_a-reallocr.o)
 .debug_abbrev  0x00000000000046b4      0x22a /home/src/arm/target/bin/../arm-none-eabi/lib//libc.a(lib_a-rget.o)
 .debug_abbrev  0x00000000000048de      0x1fd /home/src/arm/target/bin/../arm-none-eabi/lib//libc.a(lib_a-sbrkr.o)
 .debug_abbrev  0x0000000000004adb      0x50d /home/src/arm/target/bin/../arm-none-eabi/lib//libc.a(lib_a-syscalls.o)
 .debug_abbrev  0x0000000000004fe8      0x3af /home/src/arm/target/bin/../arm-none-eabi/lib//libc.a(lib_a-vfiprintf.o)
 .debug_abbrev  0x0000000000005397      0x3cd /home/src/arm/target/bin/../arm-none-eabi/lib//libc.a(lib_a-vfprintf.o)
 .debug_abbrev  0x0000000000005764      0x204 /home/src/arm/target/bin/../arm-none-eabi/lib//libc.a(lib_a-vprintf.o)
 .debug_abbrev  0x0000000000005968      0x25b /home/src/arm/target/bin/../arm-none-eabi/lib//libc.a(lib_a-wbuf.o)
 .debug_abbrev  0x0000000000005bc3      0x20b /home/src/arm/target/bin/../arm-none-eabi/lib//libc.a(lib_a-wsetup.o)
 .debug_abbrev  0x0000000000005dce       0x95 /home/src/arm/target/bin/../arm-none-eabi/lib//libc.a(lib_a-abort.o)
 .debug_abbrev  0x0000000000005e63      0x2da /home/src/arm/target/bin/../arm-none-eabi/lib//libc.a(lib_a-dtoa.o)
 .debug_abbrev  0x000000000000613d      0x18f /home/src/arm/target/bin/../arm-none-eabi/lib//libc.a(lib_a-errno.o)
 .debug_abbrev  0x00000000000062cc      0x28d /home/src/arm/target/bin/../arm-none-eabi/lib//libc.a(lib_a-fflush.o)
 .debug_abbrev  0x0000000000006559      0x339 /home/src/arm/target/bin/../arm-none-eabi/lib//libc.a(lib_a-findfp.o)
 .debug_abbrev  0x0000000000006892      0x2a1 /home/src/arm/target/bin/../arm-none-eabi/lib//libc.a(lib_a-fputwc.o)
 .debug_abbrev  0x0000000000006b33      0x26b /home/src/arm/target/bin/../arm-none-eabi/lib//libc.a(lib_a-freer.o)
 .debug_abbrev  0x0000000000006d9e      0x247 /home/src/arm/target/bin/../arm-none-eabi/lib//libc.a(lib_a-fvwrite.o)
 .debug_abbrev  0x0000000000006fe5      0x1c2 /home/src/arm/target/bin/../arm-none-eabi/lib//libc.a(lib_a-fwalk.o)
 .debug_abbrev  0x00000000000071a7      0x2a3 /home/src/arm/target/bin/../arm-none-eabi/lib//libc.a(lib_a-locale.o)
 .debug_abbrev  0x000000000000744a      0x206 /home/src/arm/target/bin/../arm-none-eabi/lib//libc.a(lib_a-makebuf.o)
 .debug_abbrev  0x0000000000007650       0xba /home/src/arm/target/bin/../arm-none-eabi/lib//libc.a(lib_a-memchr-stub.o)
 .debug_abbrev  0x000000000000770a       0xab /home/src/arm/target/bin/../arm-none-eabi/lib//libc.a(lib_a-memmove.o)
 .debug_abbrev  0x00000000000077b5      0x3bd /home/src/arm/target/bin/../arm-none-eabi/lib//libc.a(lib_a-mprec.o)
 .debug_abbrev  0x0000000000007b72      0x258 /home/src/arm/target/bin/../arm-none-eabi/lib//libc.a(lib_a-reent.o)
 .debug_abbrev  0x0000000000007dca      0x265 /home/src/arm/target/bin/../arm-none-eabi/lib//libc.a(lib_a-refill.o)
 .debug_abbrev  0x000000000000802f       0x6f /home/src/arm/target/bin/../arm-none-eabi/lib//libc.a(lib_a-s_fpclassify.o)
 .debug_abbrev  0x000000000000809e      0x2c4 /home/src/arm/target/bin/../arm-none-eabi/lib//libc.a(lib_a-signal.o)
 .debug_abbrev  0x0000000000008362      0x1fa /home/src/arm/target/bin/../arm-none-eabi/lib//libc.a(lib_a-signalr.o)
 .debug_abbrev  0x000000000000855c      0x22b /home/src/arm/target/bin/../arm-none-eabi/lib//libc.a(lib_a-stdio.o)
 .debug_abbrev  0x0000000000008787       0x14 /home/src/arm/target/bin/../arm-none-eabi/lib//libc.a(lib_a-strcmp.o)
 .debug_abbrev  0x000000000000879b       0x70 /home/src/arm/target/bin/../arm-none-eabi/lib//libc.a(lib_a-strlen.o)
 .debug_abbrev  0x000000000000880b      0x213 /home/src/arm/target/bin/../arm-none-eabi/lib//libc.a(lib_a-wcrtomb.o)
 .debug_abbrev  0x0000000000008a1e      0x212 /home/src/arm/target/bin/../arm-none-eabi/lib//libc.a(lib_a-wctomb_r.o)
 .debug_abbrev  0x0000000000008c30      0x1f4 /home/src/arm/target/bin/../arm-none-eabi/lib//libc.a(lib_a-writer.o)
 .debug_abbrev  0x0000000000008e24      0x213 /home/src/arm/target/bin/../arm-none-eabi/lib//libc.a(lib_a-callocr.o)
 .debug_abbrev  0x0000000000009037      0x1ef /home/src/arm/target/bin/../arm-none-eabi/lib//libc.a(lib_a-closer.o)
 .debug_abbrev  0x0000000000009226      0x273 /home/src/arm/target/bin/../arm-none-eabi/lib//libc.a(lib_a-fclose.o)
 .debug_abbrev  0x0000000000009499      0x1fe /home/src/arm/target/bin/../arm-none-eabi/lib//libc.a(lib_a-fstatr.o)
 .debug_abbrev  0x0000000000009697      0x1ef /home/src/arm/target/bin/../arm-none-eabi/lib//libc.a(lib_a-isattyr.o)
 .debug_abbrev  0x0000000000009886      0x1fe /home/src/arm/target/bin/../arm-none-eabi/lib//libc.a(lib_a-lseekr.o)
 .debug_abbrev  0x0000000000009a84      0x1ef /home/src/arm/target/bin/../arm-none-eabi/lib//libc.a(lib_a-readr.o)
 .debug_abbrev  0x0000000000009c73       0x14 /home/src/arm/target/bin/../lib/gcc/arm-none-eabi/4.8.2//libgcc.a(_udivsi3.o)
 .debug_abbrev  0x0000000000009c87       0x14 /home/src/arm/target/bin/../lib/gcc/arm-none-eabi/4.8.2//libgcc.a(_divsi3.o)
 .debug_abbrev  0x0000000000009c9b       0x14 /home/src/arm/target/bin/../lib/gcc/arm-none-eabi/4.8.2//libgcc.a(_dvmd_tls.o)
 .debug_abbrev  0x0000000000009caf       0x14 /home/src/arm/target/bin/../lib/gcc/arm-none-eabi/4.8.2//libgcc.a(_arm_addsubdf3.o)
 .debug_abbrev  0x0000000000009cc3       0x14 /home/src/arm/target/bin/../lib/gcc/arm-none-eabi/4.8.2//libgcc.a(_arm_muldivdf3.o)
 .debug_abbrev  0x0000000000009cd7       0x14 /home/src/arm/target/bin/../lib/gcc/arm-none-eabi/4.8.2//libgcc.a(_arm_cmpdf2.o)
 .debug_abbrev  0x0000000000009ceb       0x14 /home/src/arm/target/bin/../lib/gcc/arm-none-eabi/4.8.2//libgcc.a(_arm_fixdfsi.o)
 .debug_abbrev  0x0000000000009cff       0x14 /home/src/arm/target/bin/../lib/gcc/arm-none-eabi/4.8.2//libgcc.a(_aeabi_uldivmod.o)
 .debug_abbrev  0x0000000000009d13       0xb7 /home/src/arm/target/bin/../lib/gcc/arm-none-eabi/4.8.2//libgcc.a(bpabi.o)
 .debug_abbrev  0x0000000000009dca      0x165 /home/src/arm/target/bin/../lib/gcc/arm-none-eabi/4.8.2//libgcc.a(_divdi3.o)
 .debug_abbrev  0x0000000000009f2f      0x154 /home/src/arm/target/bin/../lib/gcc/arm-none-eabi/4.8.2//libgcc.a(_udivdi3.o)
 .debug_abbrev  0x000000000000a083       0x14 /home/src/arm/target/bin/../lib/gcc/arm-none-eabi/4.8.2//libgcc.a(_clzsi2.o)

.debug_aranges  0x0000000000000000      0xde0
 .debug_aranges
                0x0000000000000000       0x20 /home/leon/git/swp-report/iMX6_Platform_SDK/output/mx6sdl/caam_blob_gen/smart_device_rev_b/obj/apps/caam_blob_gen/src/caam_blob_gen.o
 .debug_aranges
                0x0000000000000020       0x18 /home/leon/git/swp-report/iMX6_Platform_SDK/output/mx6sdl/caam_blob_gen/smart_device_rev_b/obj/apps/common/ivt.o
 .debug_aranges
                0x0000000000000038       0x20 /home/leon/git/swp-report/iMX6_Platform_SDK/output/mx6sdl/caam_blob_gen/smart_device_rev_b/obj/apps/common/platform_init.o
 .debug_aranges
                0x0000000000000058       0x20 /home/leon/git/swp-report/iMX6_Platform_SDK/output/mx6sdl/lib/libsdk.a(ccm_pll.o)
 .debug_aranges
                0x0000000000000078       0x20 /home/leon/git/swp-report/iMX6_Platform_SDK/output/mx6sdl/lib/libsdk.a(gic.o)
 .debug_aranges
                0x0000000000000098       0x20 /home/leon/git/swp-report/iMX6_Platform_SDK/output/mx6sdl/lib/libsdk.a(mmu.o)
 .debug_aranges
                0x00000000000000b8       0x20 /home/leon/git/swp-report/iMX6_Platform_SDK/output/mx6sdl/lib/libsdk.a(system_util.o)
 .debug_aranges
                0x00000000000000d8       0x20 /home/leon/git/swp-report/iMX6_Platform_SDK/output/mx6sdl/lib/libsdk.a(text_color.o)
 .debug_aranges
                0x00000000000000f8       0x20 /home/leon/git/swp-report/iMX6_Platform_SDK/output/mx6sdl/lib/libsdk.a(caam.o)
 .debug_aranges
                0x0000000000000118       0x20 /home/leon/git/swp-report/iMX6_Platform_SDK/output/mx6sdl/lib/libsdk.a(timer.o)
 .debug_aranges
                0x0000000000000138       0x20 /home/leon/git/swp-report/iMX6_Platform_SDK/output/mx6sdl/lib/libsdk.a(imx_uart.o)
 .debug_aranges
                0x0000000000000158       0x20 /home/leon/git/swp-report/iMX6_Platform_SDK/output/mx6sdl/lib/libsdk.a(interrupt.o)
 .debug_aranges
                0x0000000000000178       0x20 /home/leon/git/swp-report/iMX6_Platform_SDK/output/mx6sdl/lib/libsdk.a(epit.o)
 .debug_aranges
                0x0000000000000198       0x20 /home/leon/git/swp-report/iMX6_Platform_SDK/output/mx6sdl/lib/libsdk.a(abort_handler.o)
 .debug_aranges
                0x00000000000001b8       0x20 /home/leon/git/swp-report/iMX6_Platform_SDK/output/mx6sdl/lib/libboard_smart_device_rev_b.a(board_io_expanders.o)
 .debug_aranges
                0x00000000000001d8       0x18 /home/leon/git/swp-report/iMX6_Platform_SDK/output/mx6sdl/lib/libboard_smart_device_rev_b.a(hardware_modules.o)
 .debug_aranges
                0x00000000000001f0       0x18 /home/leon/git/swp-report/iMX6_Platform_SDK/output/mx6sdl/lib/libboard_smart_device_rev_b.a(dcd.o)
 .debug_aranges
                0x0000000000000208       0x20 /home/leon/git/swp-report/iMX6_Platform_SDK/output/mx6sdl/lib/libboard_smart_device_rev_b.a(uart_iomux_config.o)
 .debug_aranges
                0x0000000000000228       0x20 /home/leon/git/swp-report/iMX6_Platform_SDK/output/mx6sdl/lib/libboard_smart_device_rev_b.a(iomux_config.o)
 .debug_aranges
                0x0000000000000248       0x20 /home/leon/git/swp-report/iMX6_Platform_SDK/output/mx6sdl/lib/libboard_smart_device_rev_b.a(ipu1_iomux_config.o)
 .debug_aranges
                0x0000000000000268       0x20 /home/leon/git/swp-report/iMX6_Platform_SDK/output/mx6sdl/lib/libboard_smart_device_rev_b.a(mmdc_iomux_config.o)
 .debug_aranges
                0x0000000000000288       0x20 /home/leon/git/swp-report/iMX6_Platform_SDK/output/mx6sdl/lib/libboard_smart_device_rev_b.a(pwm1_iomux_config.o)
 .debug_aranges
                0x00000000000002a8       0x20 /home/leon/git/swp-report/iMX6_Platform_SDK/output/mx6sdl/lib/libboard_smart_device_rev_b.a(sjc_iomux_config.o)
 .debug_aranges
                0x00000000000002c8       0x20 /home/leon/git/swp-report/iMX6_Platform_SDK/output/mx6sdl/lib/libboard_smart_device_rev_b.a(uart1_iomux_config.o)
 .debug_aranges
                0x00000000000002e8       0x20 /home/leon/git/swp-report/iMX6_Platform_SDK/output/mx6sdl/lib/libboard_smart_device_rev_b.a(usb_iomux_config.o)
 .debug_aranges
                0x0000000000000308       0x20 /home/leon/git/swp-report/iMX6_Platform_SDK/output/mx6sdl/lib/libboard_smart_device_rev_b.a(usdhc2_iomux_config.o)
 .debug_aranges
                0x0000000000000328       0x20 /home/leon/git/swp-report/iMX6_Platform_SDK/output/mx6sdl/lib/libboard_smart_device_rev_b.a(usdhc3_iomux_config.o)
 .debug_aranges
                0x0000000000000348       0x20 /home/leon/git/swp-report/iMX6_Platform_SDK/output/mx6sdl/lib/libboard_smart_device_rev_b.a(usdhc4_iomux_config.o)
 .debug_aranges
                0x0000000000000368       0x20 /home/leon/git/swp-report/iMX6_Platform_SDK/output/mx6sdl/lib/libboard_smart_device_rev_b.a(audmux_iomux_config.o)
 .debug_aranges
                0x0000000000000388       0x20 /home/leon/git/swp-report/iMX6_Platform_SDK/output/mx6sdl/lib/libboard_smart_device_rev_b.a(ccm_iomux_config.o)
 .debug_aranges
                0x00000000000003a8       0x20 /home/leon/git/swp-report/iMX6_Platform_SDK/output/mx6sdl/lib/libboard_smart_device_rev_b.a(ecspi1_iomux_config.o)
 .debug_aranges
                0x00000000000003c8       0x20 /home/leon/git/swp-report/iMX6_Platform_SDK/output/mx6sdl/lib/libboard_smart_device_rev_b.a(enet_iomux_config.o)
 .debug_aranges
                0x00000000000003e8       0x20 /home/leon/git/swp-report/iMX6_Platform_SDK/output/mx6sdl/lib/libboard_smart_device_rev_b.a(epdc_iomux_config.o)
 .debug_aranges
                0x0000000000000408       0x20 /home/leon/git/swp-report/iMX6_Platform_SDK/output/mx6sdl/lib/libboard_smart_device_rev_b.a(flexcan1_iomux_config.o)
 .debug_aranges
                0x0000000000000428       0x20 /home/leon/git/swp-report/iMX6_Platform_SDK/output/mx6sdl/lib/libboard_smart_device_rev_b.a(gpio1_iomux_config.o)
 .debug_aranges
                0x0000000000000448       0x20 /home/leon/git/swp-report/iMX6_Platform_SDK/output/mx6sdl/lib/libboard_smart_device_rev_b.a(gpio2_iomux_config.o)
 .debug_aranges
                0x0000000000000468       0x20 /home/leon/git/swp-report/iMX6_Platform_SDK/output/mx6sdl/lib/libboard_smart_device_rev_b.a(gpio3_iomux_config.o)
 .debug_aranges
                0x0000000000000488       0x20 /home/leon/git/swp-report/iMX6_Platform_SDK/output/mx6sdl/lib/libboard_smart_device_rev_b.a(gpio4_iomux_config.o)
 .debug_aranges
                0x00000000000004a8       0x20 /home/leon/git/swp-report/iMX6_Platform_SDK/output/mx6sdl/lib/libboard_smart_device_rev_b.a(gpio5_iomux_config.o)
 .debug_aranges
                0x00000000000004c8       0x20 /home/leon/git/swp-report/iMX6_Platform_SDK/output/mx6sdl/lib/libboard_smart_device_rev_b.a(gpio6_iomux_config.o)
 .debug_aranges
                0x00000000000004e8       0x20 /home/leon/git/swp-report/iMX6_Platform_SDK/output/mx6sdl/lib/libboard_smart_device_rev_b.a(gpio7_iomux_config.o)
 .debug_aranges
                0x0000000000000508       0x20 /home/leon/git/swp-report/iMX6_Platform_SDK/output/mx6sdl/lib/libboard_smart_device_rev_b.a(gps_iomux_config.o)
 .debug_aranges
                0x0000000000000528       0x20 /home/leon/git/swp-report/iMX6_Platform_SDK/output/mx6sdl/lib/libboard_smart_device_rev_b.a(i2c1_iomux_config.o)
 .debug_aranges
                0x0000000000000548       0x20 /home/leon/git/swp-report/iMX6_Platform_SDK/output/mx6sdl/lib/libboard_smart_device_rev_b.a(i2c2_iomux_config.o)
 .debug_aranges
                0x0000000000000568       0x20 /home/leon/git/swp-report/iMX6_Platform_SDK/output/mx6sdl/lib/libboard_smart_device_rev_b.a(i2c3_iomux_config.o)
 .debug_aranges
                0x0000000000000588       0x20 /home/src/arm/target/bin/../arm-none-eabi/lib//libc.a(lib_a-assert.o)
 .debug_aranges
                0x00000000000005a8       0x20 /home/src/arm/target/bin/../arm-none-eabi/lib//libc.a(lib_a-bzero.o)
 .debug_aranges
                0x00000000000005c8       0x20 /home/src/arm/target/bin/../arm-none-eabi/lib//libc.a(lib_a-fiprintf.o)
 .debug_aranges
                0x00000000000005e8       0x20 /home/src/arm/target/bin/../arm-none-eabi/lib//libc.a(lib_a-fputc.o)
 .debug_aranges
                0x0000000000000608       0x18 /home/src/arm/target/bin/../arm-none-eabi/lib//libc.a(lib_a-impure.o)
 .debug_aranges
                0x0000000000000620       0x20 /home/src/arm/target/bin/../arm-none-eabi/lib//libc.a(lib_a-init.o)
 .debug_aranges
                0x0000000000000640       0x20 /home/src/arm/target/bin/../arm-none-eabi/lib//libc.a(lib_a-malloc.o)
 .debug_aranges
                0x0000000000000660       0x20 /home/src/arm/target/bin/../arm-none-eabi/lib//libc.a(lib_a-mallocr.o)
 .debug_aranges
                0x0000000000000680       0x20 /home/src/arm/target/bin/../arm-none-eabi/lib//libc.a(lib_a-memcpy-stub.o)
 .debug_aranges
                0x00000000000006a0       0x20 /home/src/arm/target/bin/../arm-none-eabi/lib//libc.a(lib_a-memset.o)
 .debug_aranges
                0x00000000000006c0       0x20 /home/src/arm/target/bin/../arm-none-eabi/lib//libc.a(lib_a-mlock.o)
 .debug_aranges
                0x00000000000006e0       0x20 /home/src/arm/target/bin/../arm-none-eabi/lib//libc.a(lib_a-printf.o)
 .debug_aranges
                0x0000000000000700       0x20 /home/src/arm/target/bin/../arm-none-eabi/lib//libc.a(lib_a-putc.o)
 .debug_aranges
                0x0000000000000720       0x20 /home/src/arm/target/bin/../arm-none-eabi/lib//libc.a(lib_a-realloc.o)
 .debug_aranges
                0x0000000000000740       0x20 /home/src/arm/target/bin/../arm-none-eabi/lib//libc.a(lib_a-reallocr.o)
 .debug_aranges
                0x0000000000000760       0x20 /home/src/arm/target/bin/../arm-none-eabi/lib//libc.a(lib_a-rget.o)
 .debug_aranges
                0x0000000000000780       0x20 /home/src/arm/target/bin/../arm-none-eabi/lib//libc.a(lib_a-sbrkr.o)
 .debug_aranges
                0x00000000000007a0       0x20 /home/src/arm/target/bin/../arm-none-eabi/lib//libc.a(lib_a-syscalls.o)
 .debug_aranges
                0x00000000000007c0       0x20 /home/src/arm/target/bin/../arm-none-eabi/lib//libc.a(lib_a-vfiprintf.o)
 .debug_aranges
                0x00000000000007e0       0x20 /home/src/arm/target/bin/../arm-none-eabi/lib//libc.a(lib_a-vfprintf.o)
 .debug_aranges
                0x0000000000000800       0x20 /home/src/arm/target/bin/../arm-none-eabi/lib//libc.a(lib_a-vprintf.o)
 .debug_aranges
                0x0000000000000820       0x20 /home/src/arm/target/bin/../arm-none-eabi/lib//libc.a(lib_a-wbuf.o)
 .debug_aranges
                0x0000000000000840       0x20 /home/src/arm/target/bin/../arm-none-eabi/lib//libc.a(lib_a-wsetup.o)
 .debug_aranges
                0x0000000000000860       0x20 /home/src/arm/target/bin/../arm-none-eabi/lib//libc.a(lib_a-abort.o)
 .debug_aranges
                0x0000000000000880       0x20 /home/src/arm/target/bin/../arm-none-eabi/lib//libc.a(lib_a-dtoa.o)
 .debug_aranges
                0x00000000000008a0       0x20 /home/src/arm/target/bin/../arm-none-eabi/lib//libc.a(lib_a-errno.o)
 .debug_aranges
                0x00000000000008c0       0x20 /home/src/arm/target/bin/../arm-none-eabi/lib//libc.a(lib_a-fflush.o)
 .debug_aranges
                0x00000000000008e0       0x20 /home/src/arm/target/bin/../arm-none-eabi/lib//libc.a(lib_a-findfp.o)
 .debug_aranges
                0x0000000000000900       0x20 /home/src/arm/target/bin/../arm-none-eabi/lib//libc.a(lib_a-fputwc.o)
 .debug_aranges
                0x0000000000000920       0x20 /home/src/arm/target/bin/../arm-none-eabi/lib//libc.a(lib_a-freer.o)
 .debug_aranges
                0x0000000000000940       0x20 /home/src/arm/target/bin/../arm-none-eabi/lib//libc.a(lib_a-fvwrite.o)
 .debug_aranges
                0x0000000000000960       0x20 /home/src/arm/target/bin/../arm-none-eabi/lib//libc.a(lib_a-fwalk.o)
 .debug_aranges
                0x0000000000000980       0x20 /home/src/arm/target/bin/../arm-none-eabi/lib//libc.a(lib_a-locale.o)
 .debug_aranges
                0x00000000000009a0       0x20 /home/src/arm/target/bin/../arm-none-eabi/lib//libc.a(lib_a-makebuf.o)
 .debug_aranges
                0x00000000000009c0       0x20 /home/src/arm/target/bin/../arm-none-eabi/lib//libc.a(lib_a-memchr-stub.o)
 .debug_aranges
                0x00000000000009e0       0x20 /home/src/arm/target/bin/../arm-none-eabi/lib//libc.a(lib_a-memmove.o)
 .debug_aranges
                0x0000000000000a00       0x20 /home/src/arm/target/bin/../arm-none-eabi/lib//libc.a(lib_a-mprec.o)
 .debug_aranges
                0x0000000000000a20       0x20 /home/src/arm/target/bin/../arm-none-eabi/lib//libc.a(lib_a-reent.o)
 .debug_aranges
                0x0000000000000a40       0x20 /home/src/arm/target/bin/../arm-none-eabi/lib//libc.a(lib_a-refill.o)
 .debug_aranges
                0x0000000000000a60       0x20 /home/src/arm/target/bin/../arm-none-eabi/lib//libc.a(lib_a-s_fpclassify.o)
 .debug_aranges
                0x0000000000000a80       0x20 /home/src/arm/target/bin/../arm-none-eabi/lib//libc.a(lib_a-signal.o)
 .debug_aranges
                0x0000000000000aa0       0x20 /home/src/arm/target/bin/../arm-none-eabi/lib//libc.a(lib_a-signalr.o)
 .debug_aranges
                0x0000000000000ac0       0x20 /home/src/arm/target/bin/../arm-none-eabi/lib//libc.a(lib_a-stdio.o)
 .debug_aranges
                0x0000000000000ae0       0x20 /home/src/arm/target/bin/../arm-none-eabi/lib//libc.a(lib_a-strcmp.o)
 .debug_aranges
                0x0000000000000b00       0x20 /home/src/arm/target/bin/../arm-none-eabi/lib//libc.a(lib_a-strlen.o)
 .debug_aranges
                0x0000000000000b20       0x20 /home/src/arm/target/bin/../arm-none-eabi/lib//libc.a(lib_a-wcrtomb.o)
 .debug_aranges
                0x0000000000000b40       0x20 /home/src/arm/target/bin/../arm-none-eabi/lib//libc.a(lib_a-wctomb_r.o)
 .debug_aranges
                0x0000000000000b60       0x20 /home/src/arm/target/bin/../arm-none-eabi/lib//libc.a(lib_a-writer.o)
 .debug_aranges
                0x0000000000000b80       0x20 /home/src/arm/target/bin/../arm-none-eabi/lib//libc.a(lib_a-callocr.o)
 .debug_aranges
                0x0000000000000ba0       0x20 /home/src/arm/target/bin/../arm-none-eabi/lib//libc.a(lib_a-closer.o)
 .debug_aranges
                0x0000000000000bc0       0x20 /home/src/arm/target/bin/../arm-none-eabi/lib//libc.a(lib_a-fclose.o)
 .debug_aranges
                0x0000000000000be0       0x20 /home/src/arm/target/bin/../arm-none-eabi/lib//libc.a(lib_a-fstatr.o)
 .debug_aranges
                0x0000000000000c00       0x20 /home/src/arm/target/bin/../arm-none-eabi/lib//libc.a(lib_a-isattyr.o)
 .debug_aranges
                0x0000000000000c20       0x20 /home/src/arm/target/bin/../arm-none-eabi/lib//libc.a(lib_a-lseekr.o)
 .debug_aranges
                0x0000000000000c40       0x20 /home/src/arm/target/bin/../arm-none-eabi/lib//libc.a(lib_a-readr.o)
 .debug_aranges
                0x0000000000000c60       0x20 /home/src/arm/target/bin/../lib/gcc/arm-none-eabi/4.8.2//libgcc.a(_udivsi3.o)
 .debug_aranges
                0x0000000000000c80       0x20 /home/src/arm/target/bin/../lib/gcc/arm-none-eabi/4.8.2//libgcc.a(_divsi3.o)
 .debug_aranges
                0x0000000000000ca0       0x20 /home/src/arm/target/bin/../lib/gcc/arm-none-eabi/4.8.2//libgcc.a(_dvmd_tls.o)
 .debug_aranges
                0x0000000000000cc0       0x20 /home/src/arm/target/bin/../lib/gcc/arm-none-eabi/4.8.2//libgcc.a(_arm_addsubdf3.o)
 .debug_aranges
                0x0000000000000ce0       0x20 /home/src/arm/target/bin/../lib/gcc/arm-none-eabi/4.8.2//libgcc.a(_arm_muldivdf3.o)
 .debug_aranges
                0x0000000000000d00       0x20 /home/src/arm/target/bin/../lib/gcc/arm-none-eabi/4.8.2//libgcc.a(_arm_cmpdf2.o)
 .debug_aranges
                0x0000000000000d20       0x20 /home/src/arm/target/bin/../lib/gcc/arm-none-eabi/4.8.2//libgcc.a(_arm_fixdfsi.o)
 .debug_aranges
                0x0000000000000d40       0x20 /home/src/arm/target/bin/../lib/gcc/arm-none-eabi/4.8.2//libgcc.a(_aeabi_uldivmod.o)
 .debug_aranges
                0x0000000000000d60       0x20 /home/src/arm/target/bin/../lib/gcc/arm-none-eabi/4.8.2//libgcc.a(bpabi.o)
 .debug_aranges
                0x0000000000000d80       0x20 /home/src/arm/target/bin/../lib/gcc/arm-none-eabi/4.8.2//libgcc.a(_divdi3.o)
 .debug_aranges
                0x0000000000000da0       0x20 /home/src/arm/target/bin/../lib/gcc/arm-none-eabi/4.8.2//libgcc.a(_udivdi3.o)
 .debug_aranges
                0x0000000000000dc0       0x20 /home/src/arm/target/bin/../lib/gcc/arm-none-eabi/4.8.2//libgcc.a(_clzsi2.o)

.debug_line     0x0000000000000000     0xc83f
 .debug_line    0x0000000000000000      0x183 /home/leon/git/swp-report/iMX6_Platform_SDK/output/mx6sdl/caam_blob_gen/smart_device_rev_b/obj/apps/caam_blob_gen/src/caam_blob_gen.o
 .debug_line    0x0000000000000183       0xf2 /home/leon/git/swp-report/iMX6_Platform_SDK/output/mx6sdl/caam_blob_gen/smart_device_rev_b/obj/apps/common/ivt.o
 .debug_line    0x0000000000000275      0x1ab /home/leon/git/swp-report/iMX6_Platform_SDK/output/mx6sdl/caam_blob_gen/smart_device_rev_b/obj/apps/common/platform_init.o
 .debug_line    0x0000000000000420      0x29e /home/leon/git/swp-report/iMX6_Platform_SDK/output/mx6sdl/lib/libsdk.a(ccm_pll.o)
 .debug_line    0x00000000000006be      0x154 /home/leon/git/swp-report/iMX6_Platform_SDK/output/mx6sdl/lib/libsdk.a(gic.o)
 .debug_line    0x0000000000000812      0x177 /home/leon/git/swp-report/iMX6_Platform_SDK/output/mx6sdl/lib/libsdk.a(mmu.o)
 .debug_line    0x0000000000000989      0x33d /home/leon/git/swp-report/iMX6_Platform_SDK/output/mx6sdl/lib/libsdk.a(system_util.o)
 .debug_line    0x0000000000000cc6       0xdf /home/leon/git/swp-report/iMX6_Platform_SDK/output/mx6sdl/lib/libsdk.a(text_color.o)
 .debug_line    0x0000000000000da5      0x1e6 /home/leon/git/swp-report/iMX6_Platform_SDK/output/mx6sdl/lib/libsdk.a(caam.o)
 .debug_line    0x0000000000000f8b      0x1ec /home/leon/git/swp-report/iMX6_Platform_SDK/output/mx6sdl/lib/libsdk.a(timer.o)
 .debug_line    0x0000000000001177     0x12ba /home/leon/git/swp-report/iMX6_Platform_SDK/output/mx6sdl/lib/libsdk.a(imx_uart.o)
 .debug_line    0x0000000000002431      0x170 /home/leon/git/swp-report/iMX6_Platform_SDK/output/mx6sdl/lib/libsdk.a(interrupt.o)
 .debug_line    0x00000000000025a1      0x56a /home/leon/git/swp-report/iMX6_Platform_SDK/output/mx6sdl/lib/libsdk.a(epit.o)
 .debug_line    0x0000000000002b0b      0x230 /home/leon/git/swp-report/iMX6_Platform_SDK/output/mx6sdl/lib/libsdk.a(abort_handler.o)
 .debug_line    0x0000000000002d3b      0x118 /home/leon/git/swp-report/iMX6_Platform_SDK/output/mx6sdl/lib/libboard_smart_device_rev_b.a(board_io_expanders.o)
 .debug_line    0x0000000000002e53       0xb7 /home/leon/git/swp-report/iMX6_Platform_SDK/output/mx6sdl/lib/libboard_smart_device_rev_b.a(hardware_modules.o)
 .debug_line    0x0000000000002f0a      0x100 /home/leon/git/swp-report/iMX6_Platform_SDK/output/mx6sdl/lib/libboard_smart_device_rev_b.a(dcd.o)
 .debug_line    0x000000000000300a       0x9e /home/leon/git/swp-report/iMX6_Platform_SDK/output/mx6sdl/lib/libboard_smart_device_rev_b.a(uart_iomux_config.o)
 .debug_line    0x00000000000030a8       0xfb /home/leon/git/swp-report/iMX6_Platform_SDK/output/mx6sdl/lib/libboard_smart_device_rev_b.a(iomux_config.o)
 .debug_line    0x00000000000031a3      0x1a9 /home/leon/git/swp-report/iMX6_Platform_SDK/output/mx6sdl/lib/libboard_smart_device_rev_b.a(ipu1_iomux_config.o)
 .debug_line    0x000000000000334c      0x5db /home/leon/git/swp-report/iMX6_Platform_SDK/output/mx6sdl/lib/libboard_smart_device_rev_b.a(mmdc_iomux_config.o)
 .debug_line    0x0000000000003927      0x101 /home/leon/git/swp-report/iMX6_Platform_SDK/output/mx6sdl/lib/libboard_smart_device_rev_b.a(pwm1_iomux_config.o)
 .debug_line    0x0000000000003a28      0x10a /home/leon/git/swp-report/iMX6_Platform_SDK/output/mx6sdl/lib/libboard_smart_device_rev_b.a(sjc_iomux_config.o)
 .debug_line    0x0000000000003b32      0x10c /home/leon/git/swp-report/iMX6_Platform_SDK/output/mx6sdl/lib/libboard_smart_device_rev_b.a(uart1_iomux_config.o)
 .debug_line    0x0000000000003c3e      0x10a /home/leon/git/swp-report/iMX6_Platform_SDK/output/mx6sdl/lib/libboard_smart_device_rev_b.a(usb_iomux_config.o)
 .debug_line    0x0000000000003d48      0x13c /home/leon/git/swp-report/iMX6_Platform_SDK/output/mx6sdl/lib/libboard_smart_device_rev_b.a(usdhc2_iomux_config.o)
 .debug_line    0x0000000000003e84      0x13c /home/leon/git/swp-report/iMX6_Platform_SDK/output/mx6sdl/lib/libboard_smart_device_rev_b.a(usdhc3_iomux_config.o)
 .debug_line    0x0000000000003fc0      0x13c /home/leon/git/swp-report/iMX6_Platform_SDK/output/mx6sdl/lib/libboard_smart_device_rev_b.a(usdhc4_iomux_config.o)
 .debug_line    0x00000000000040fc      0x115 /home/leon/git/swp-report/iMX6_Platform_SDK/output/mx6sdl/lib/libboard_smart_device_rev_b.a(audmux_iomux_config.o)
 .debug_line    0x0000000000004211       0xfe /home/leon/git/swp-report/iMX6_Platform_SDK/output/mx6sdl/lib/libboard_smart_device_rev_b.a(ccm_iomux_config.o)
 .debug_line    0x000000000000430f      0x11f /home/leon/git/swp-report/iMX6_Platform_SDK/output/mx6sdl/lib/libboard_smart_device_rev_b.a(ecspi1_iomux_config.o)
 .debug_line    0x000000000000442e      0x1b2 /home/leon/git/swp-report/iMX6_Platform_SDK/output/mx6sdl/lib/libboard_smart_device_rev_b.a(enet_iomux_config.o)
 .debug_line    0x00000000000045e0      0x221 /home/leon/git/swp-report/iMX6_Platform_SDK/output/mx6sdl/lib/libboard_smart_device_rev_b.a(epdc_iomux_config.o)
 .debug_line    0x0000000000004801      0x10e /home/leon/git/swp-report/iMX6_Platform_SDK/output/mx6sdl/lib/libboard_smart_device_rev_b.a(flexcan1_iomux_config.o)
 .debug_line    0x000000000000490f      0x150 /home/leon/git/swp-report/iMX6_Platform_SDK/output/mx6sdl/lib/libboard_smart_device_rev_b.a(gpio1_iomux_config.o)
 .debug_line    0x0000000000004a5f      0x138 /home/leon/git/swp-report/iMX6_Platform_SDK/output/mx6sdl/lib/libboard_smart_device_rev_b.a(gpio2_iomux_config.o)
 .debug_line    0x0000000000004b97      0x156 /home/leon/git/swp-report/iMX6_Platform_SDK/output/mx6sdl/lib/libboard_smart_device_rev_b.a(gpio3_iomux_config.o)
 .debug_line    0x0000000000004ced      0x11a /home/leon/git/swp-report/iMX6_Platform_SDK/output/mx6sdl/lib/libboard_smart_device_rev_b.a(gpio4_iomux_config.o)
 .debug_line    0x0000000000004e07      0x10e /home/leon/git/swp-report/iMX6_Platform_SDK/output/mx6sdl/lib/libboard_smart_device_rev_b.a(gpio5_iomux_config.o)
 .debug_line    0x0000000000004f15      0x132 /home/leon/git/swp-report/iMX6_Platform_SDK/output/mx6sdl/lib/libboard_smart_device_rev_b.a(gpio6_iomux_config.o)
 .debug_line    0x0000000000005047      0x10e /home/leon/git/swp-report/iMX6_Platform_SDK/output/mx6sdl/lib/libboard_smart_device_rev_b.a(gpio7_iomux_config.o)
 .debug_line    0x0000000000005155      0x11c /home/leon/git/swp-report/iMX6_Platform_SDK/output/mx6sdl/lib/libboard_smart_device_rev_b.a(gps_iomux_config.o)
 .debug_line    0x0000000000005271      0x10b /home/leon/git/swp-report/iMX6_Platform_SDK/output/mx6sdl/lib/libboard_smart_device_rev_b.a(i2c1_iomux_config.o)
 .debug_line    0x000000000000537c      0x10b /home/leon/git/swp-report/iMX6_Platform_SDK/output/mx6sdl/lib/libboard_smart_device_rev_b.a(i2c2_iomux_config.o)
 .debug_line    0x0000000000005487      0x10b /home/leon/git/swp-report/iMX6_Platform_SDK/output/mx6sdl/lib/libboard_smart_device_rev_b.a(i2c3_iomux_config.o)
 .debug_line    0x0000000000005592      0x167 /home/src/arm/target/bin/../arm-none-eabi/lib//libc.a(lib_a-assert.o)
 .debug_line    0x00000000000056f9       0xf2 /home/src/arm/target/bin/../arm-none-eabi/lib//libc.a(lib_a-bzero.o)
 .debug_line    0x00000000000057eb      0x16b /home/src/arm/target/bin/../arm-none-eabi/lib//libc.a(lib_a-fiprintf.o)
 .debug_line    0x0000000000005956      0x168 /home/src/arm/target/bin/../arm-none-eabi/lib//libc.a(lib_a-fputc.o)
 .debug_line    0x0000000000005abe       0xf8 /home/src/arm/target/bin/../arm-none-eabi/lib//libc.a(lib_a-impure.o)
 .debug_line    0x0000000000005bb6       0xd8 /home/src/arm/target/bin/../arm-none-eabi/lib//libc.a(lib_a-init.o)
 .debug_line    0x0000000000005c8e      0x14d /home/src/arm/target/bin/../arm-none-eabi/lib//libc.a(lib_a-malloc.o)
 .debug_line    0x0000000000005ddb      0x340 /home/src/arm/target/bin/../arm-none-eabi/lib//libc.a(lib_a-mallocr.o)
 .debug_line    0x000000000000611b      0x13d /home/src/arm/target/bin/../arm-none-eabi/lib//libc.a(lib_a-memcpy-stub.o)
 .debug_line    0x0000000000006258      0x128 /home/src/arm/target/bin/../arm-none-eabi/lib//libc.a(lib_a-memset.o)
 .debug_line    0x0000000000006380      0x10a /home/src/arm/target/bin/../arm-none-eabi/lib//libc.a(lib_a-mlock.o)
 .debug_line    0x000000000000648a      0x169 /home/src/arm/target/bin/../arm-none-eabi/lib//libc.a(lib_a-printf.o)
 .debug_line    0x00000000000065f3      0x1af /home/src/arm/target/bin/../arm-none-eabi/lib//libc.a(lib_a-putc.o)
 .debug_line    0x00000000000067a2      0x148 /home/src/arm/target/bin/../arm-none-eabi/lib//libc.a(lib_a-realloc.o)
 .debug_line    0x00000000000068ea      0x23f /home/src/arm/target/bin/../arm-none-eabi/lib//libc.a(lib_a-reallocr.o)
 .debug_line    0x0000000000006b29      0x16a /home/src/arm/target/bin/../arm-none-eabi/lib//libc.a(lib_a-rget.o)
 .debug_line    0x0000000000006c93      0x155 /home/src/arm/target/bin/../arm-none-eabi/lib//libc.a(lib_a-sbrkr.o)
 .debug_line    0x0000000000006de8      0x495 /home/src/arm/target/bin/../arm-none-eabi/lib//libc.a(lib_a-syscalls.o)
 .debug_line    0x000000000000727d      0x650 /home/src/arm/target/bin/../arm-none-eabi/lib//libc.a(lib_a-vfiprintf.o)
 .debug_line    0x00000000000078cd      0x8c4 /home/src/arm/target/bin/../arm-none-eabi/lib//libc.a(lib_a-vfprintf.o)
 .debug_line    0x0000000000008191      0x166 /home/src/arm/target/bin/../arm-none-eabi/lib//libc.a(lib_a-vprintf.o)
 .debug_line    0x00000000000082f7      0x1ad /home/src/arm/target/bin/../arm-none-eabi/lib//libc.a(lib_a-wbuf.o)
 .debug_line    0x00000000000084a4      0x1ca /home/src/arm/target/bin/../arm-none-eabi/lib//libc.a(lib_a-wsetup.o)
 .debug_line    0x000000000000866e       0xf1 /home/src/arm/target/bin/../arm-none-eabi/lib//libc.a(lib_a-abort.o)
 .debug_line    0x000000000000875f      0x64f /home/src/arm/target/bin/../arm-none-eabi/lib//libc.a(lib_a-dtoa.o)
 .debug_line    0x0000000000008dae      0x113 /home/src/arm/target/bin/../arm-none-eabi/lib//libc.a(lib_a-errno.o)
 .debug_line    0x0000000000008ec1      0x231 /home/src/arm/target/bin/../arm-none-eabi/lib//libc.a(lib_a-fflush.o)
 .debug_line    0x00000000000090f2      0x258 /home/src/arm/target/bin/../arm-none-eabi/lib//libc.a(lib_a-findfp.o)
 .debug_line    0x000000000000934a      0x1a2 /home/src/arm/target/bin/../arm-none-eabi/lib//libc.a(lib_a-fputwc.o)
 .debug_line    0x00000000000094ec      0x21d /home/src/arm/target/bin/../arm-none-eabi/lib//libc.a(lib_a-freer.o)
 .debug_line    0x0000000000009709      0x292 /home/src/arm/target/bin/../arm-none-eabi/lib//libc.a(lib_a-fvwrite.o)
 .debug_line    0x000000000000999b      0x19b /home/src/arm/target/bin/../arm-none-eabi/lib//libc.a(lib_a-fwalk.o)
 .debug_line    0x0000000000009b36      0x189 /home/src/arm/target/bin/../arm-none-eabi/lib//libc.a(lib_a-locale.o)
 .debug_line    0x0000000000009cbf      0x1db /home/src/arm/target/bin/../arm-none-eabi/lib//libc.a(lib_a-makebuf.o)
 .debug_line    0x0000000000009e9a      0x139 /home/src/arm/target/bin/../arm-none-eabi/lib//libc.a(lib_a-memchr-stub.o)
 .debug_line    0x0000000000009fd3      0x134 /home/src/arm/target/bin/../arm-none-eabi/lib//libc.a(lib_a-memmove.o)
 .debug_line    0x000000000000a107      0x598 /home/src/arm/target/bin/../arm-none-eabi/lib//libc.a(lib_a-mprec.o)
 .debug_line    0x000000000000a69f      0x179 /home/src/arm/target/bin/../arm-none-eabi/lib//libc.a(lib_a-reent.o)
 .debug_line    0x000000000000a818      0x1f1 /home/src/arm/target/bin/../arm-none-eabi/lib//libc.a(lib_a-refill.o)
 .debug_line    0x000000000000aa09      0x104 /home/src/arm/target/bin/../arm-none-eabi/lib//libc.a(lib_a-s_fpclassify.o)
 .debug_line    0x000000000000ab0d      0x1e8 /home/src/arm/target/bin/../arm-none-eabi/lib//libc.a(lib_a-signal.o)
 .debug_line    0x000000000000acf5      0x159 /home/src/arm/target/bin/../arm-none-eabi/lib//libc.a(lib_a-signalr.o)
 .debug_line    0x000000000000ae4e      0x180 /home/src/arm/target/bin/../arm-none-eabi/lib//libc.a(lib_a-stdio.o)
 .debug_line    0x000000000000afce      0x107 /home/src/arm/target/bin/../arm-none-eabi/lib//libc.a(lib_a-strcmp.o)
 .debug_line    0x000000000000b0d5       0xf9 /home/src/arm/target/bin/../arm-none-eabi/lib//libc.a(lib_a-strlen.o)
 .debug_line    0x000000000000b1ce      0x180 /home/src/arm/target/bin/../arm-none-eabi/lib//libc.a(lib_a-wcrtomb.o)
 .debug_line    0x000000000000b34e      0x170 /home/src/arm/target/bin/../arm-none-eabi/lib//libc.a(lib_a-wctomb_r.o)
 .debug_line    0x000000000000b4be      0x153 /home/src/arm/target/bin/../arm-none-eabi/lib//libc.a(lib_a-writer.o)
 .debug_line    0x000000000000b611      0x133 /home/src/arm/target/bin/../arm-none-eabi/lib//libc.a(lib_a-callocr.o)
 .debug_line    0x000000000000b744      0x153 /home/src/arm/target/bin/../arm-none-eabi/lib//libc.a(lib_a-closer.o)
 .debug_line    0x000000000000b897      0x1a5 /home/src/arm/target/bin/../arm-none-eabi/lib//libc.a(lib_a-fclose.o)
 .debug_line    0x000000000000ba3c      0x168 /home/src/arm/target/bin/../arm-none-eabi/lib//libc.a(lib_a-fstatr.o)
 .debug_line    0x000000000000bba4      0x154 /home/src/arm/target/bin/../arm-none-eabi/lib//libc.a(lib_a-isattyr.o)
 .debug_line    0x000000000000bcf8      0x153 /home/src/arm/target/bin/../arm-none-eabi/lib//libc.a(lib_a-lseekr.o)
 .debug_line    0x000000000000be4b      0x152 /home/src/arm/target/bin/../arm-none-eabi/lib//libc.a(lib_a-readr.o)
 .debug_line    0x000000000000bf9d       0x8d /home/src/arm/target/bin/../lib/gcc/arm-none-eabi/4.8.2//libgcc.a(_udivsi3.o)
 .debug_line    0x000000000000c02a       0x99 /home/src/arm/target/bin/../lib/gcc/arm-none-eabi/4.8.2//libgcc.a(_divsi3.o)
 .debug_line    0x000000000000c0c3       0x64 /home/src/arm/target/bin/../lib/gcc/arm-none-eabi/4.8.2//libgcc.a(_dvmd_tls.o)
 .debug_line    0x000000000000c127      0x167 /home/src/arm/target/bin/../lib/gcc/arm-none-eabi/4.8.2//libgcc.a(_arm_addsubdf3.o)
 .debug_line    0x000000000000c28e      0x183 /home/src/arm/target/bin/../lib/gcc/arm-none-eabi/4.8.2//libgcc.a(_arm_muldivdf3.o)
 .debug_line    0x000000000000c411       0xb1 /home/src/arm/target/bin/../lib/gcc/arm-none-eabi/4.8.2//libgcc.a(_arm_cmpdf2.o)
 .debug_line    0x000000000000c4c2       0x7b /home/src/arm/target/bin/../lib/gcc/arm-none-eabi/4.8.2//libgcc.a(_arm_fixdfsi.o)
 .debug_line    0x000000000000c53d       0x69 /home/src/arm/target/bin/../lib/gcc/arm-none-eabi/4.8.2//libgcc.a(_aeabi_uldivmod.o)
 .debug_line    0x000000000000c5a6       0x6a /home/src/arm/target/bin/../lib/gcc/arm-none-eabi/4.8.2//libgcc.a(bpabi.o)
 .debug_line    0x000000000000c610       0xe4 /home/src/arm/target/bin/../lib/gcc/arm-none-eabi/4.8.2//libgcc.a(_divdi3.o)
 .debug_line    0x000000000000c6f4       0xda /home/src/arm/target/bin/../lib/gcc/arm-none-eabi/4.8.2//libgcc.a(_udivdi3.o)
 .debug_line    0x000000000000c7ce       0x71 /home/src/arm/target/bin/../lib/gcc/arm-none-eabi/4.8.2//libgcc.a(_clzsi2.o)

.debug_str      0x0000000000000000    0x14961
 .debug_str     0x0000000000000000      0x587 /home/leon/git/swp-report/iMX6_Platform_SDK/output/mx6sdl/caam_blob_gen/smart_device_rev_b/obj/apps/caam_blob_gen/src/caam_blob_gen.o
                                        0x654 (size before relaxing)
 .debug_str     0x0000000000000587       0xda /home/leon/git/swp-report/iMX6_Platform_SDK/output/mx6sdl/caam_blob_gen/smart_device_rev_b/obj/apps/common/ivt.o
                                        0x2c0 (size before relaxing)
 .debug_str     0x0000000000000661      0x1ee /home/leon/git/swp-report/iMX6_Platform_SDK/output/mx6sdl/caam_blob_gen/smart_device_rev_b/obj/apps/common/platform_init.o
                                        0x3b6 (size before relaxing)
 .debug_str     0x000000000000084f      0xf83 /home/leon/git/swp-report/iMX6_Platform_SDK/output/mx6sdl/lib/libsdk.a(ccm_pll.o)
                                       0x11ad (size before relaxing)
 .debug_str     0x00000000000017d2      0x4e1 /home/leon/git/swp-report/iMX6_Platform_SDK/output/mx6sdl/lib/libsdk.a(gic.o)
                                        0x705 (size before relaxing)
 .debug_str     0x0000000000001cb3      0x1b5 /home/leon/git/swp-report/iMX6_Platform_SDK/output/mx6sdl/lib/libsdk.a(mmu.o)
                                        0x471 (size before relaxing)
 .debug_str     0x0000000000001e68      0x17c /home/leon/git/swp-report/iMX6_Platform_SDK/output/mx6sdl/lib/libsdk.a(system_util.o)
                                        0x8c6 (size before relaxing)
 .debug_str     0x0000000000001fe4      0x1ef /home/leon/git/swp-report/iMX6_Platform_SDK/output/mx6sdl/lib/libsdk.a(text_color.o)
                                        0x418 (size before relaxing)
 .debug_str     0x00000000000021d3      0x259 /home/leon/git/swp-report/iMX6_Platform_SDK/output/mx6sdl/lib/libsdk.a(caam.o)
                                        0x472 (size before relaxing)
 .debug_str     0x000000000000242c      0x2cf /home/leon/git/swp-report/iMX6_Platform_SDK/output/mx6sdl/lib/libsdk.a(timer.o)
                                        0x50b (size before relaxing)
 .debug_str     0x00000000000026fb     0x1039 /home/leon/git/swp-report/iMX6_Platform_SDK/output/mx6sdl/lib/libsdk.a(imx_uart.o)
                                       0x1401 (size before relaxing)
 .debug_str     0x0000000000003734       0xd7 /home/leon/git/swp-report/iMX6_Platform_SDK/output/mx6sdl/lib/libsdk.a(interrupt.o)
                                        0xd98 (size before relaxing)
 .debug_str     0x000000000000380b      0x283 /home/leon/git/swp-report/iMX6_Platform_SDK/output/mx6sdl/lib/libsdk.a(epit.o)
                                       0x1019 (size before relaxing)
 .debug_str     0x0000000000003a8e       0xbc /home/leon/git/swp-report/iMX6_Platform_SDK/output/mx6sdl/lib/libsdk.a(abort_handler.o)
                                        0x2b4 (size before relaxing)
 .debug_str     0x0000000000003b4a      0x171 /home/leon/git/swp-report/iMX6_Platform_SDK/output/mx6sdl/lib/libboard_smart_device_rev_b.a(board_io_expanders.o)
                                        0x353 (size before relaxing)
 .debug_str     0x0000000000003cbb       0x4c /home/leon/git/swp-report/iMX6_Platform_SDK/output/mx6sdl/lib/libboard_smart_device_rev_b.a(hardware_modules.o)
                                        0x265 (size before relaxing)
 .debug_str     0x0000000000003d07       0xb3 /home/leon/git/swp-report/iMX6_Platform_SDK/output/mx6sdl/lib/libboard_smart_device_rev_b.a(dcd.o)
                                        0x275 (size before relaxing)
 .debug_str     0x0000000000003dba       0xca /home/leon/git/swp-report/iMX6_Platform_SDK/output/mx6sdl/lib/libboard_smart_device_rev_b.a(uart_iomux_config.o)
                                        0x293 (size before relaxing)
 .debug_str     0x0000000000003e84      0x33d /home/leon/git/swp-report/iMX6_Platform_SDK/output/mx6sdl/lib/libboard_smart_device_rev_b.a(iomux_config.o)
                                        0x47a (size before relaxing)
 .debug_str     0x00000000000041c1     0x1d44 /home/leon/git/swp-report/iMX6_Platform_SDK/output/mx6sdl/lib/libboard_smart_device_rev_b.a(ipu1_iomux_config.o)
                                       0x1ec0 (size before relaxing)
 .debug_str     0x0000000000005f05     0x1dee /home/leon/git/swp-report/iMX6_Platform_SDK/output/mx6sdl/lib/libboard_smart_device_rev_b.a(mmdc_iomux_config.o)
                                       0x1f74 (size before relaxing)
 .debug_str     0x0000000000007cf3      0x166 /home/leon/git/swp-report/iMX6_Platform_SDK/output/mx6sdl/lib/libboard_smart_device_rev_b.a(pwm1_iomux_config.o)
                                        0x2f6 (size before relaxing)
 .debug_str     0x0000000000007e59      0x334 /home/leon/git/swp-report/iMX6_Platform_SDK/output/mx6sdl/lib/libboard_smart_device_rev_b.a(sjc_iomux_config.o)
                                        0x4b6 (size before relaxing)
 .debug_str     0x000000000000818d      0x300 /home/leon/git/swp-report/iMX6_Platform_SDK/output/mx6sdl/lib/libboard_smart_device_rev_b.a(uart1_iomux_config.o)
                                        0x490 (size before relaxing)
 .debug_str     0x000000000000848d      0x343 /home/leon/git/swp-report/iMX6_Platform_SDK/output/mx6sdl/lib/libboard_smart_device_rev_b.a(usb_iomux_config.o)
                                        0x4d9 (size before relaxing)
 .debug_str     0x00000000000087d0      0xa6c /home/leon/git/swp-report/iMX6_Platform_SDK/output/mx6sdl/lib/libboard_smart_device_rev_b.a(usdhc2_iomux_config.o)
                                        0xc02 (size before relaxing)
 .debug_str     0x000000000000923c      0xa3c /home/leon/git/swp-report/iMX6_Platform_SDK/output/mx6sdl/lib/libboard_smart_device_rev_b.a(usdhc3_iomux_config.o)
                                        0xbd2 (size before relaxing)
 .debug_str     0x0000000000009c78      0xa3c /home/leon/git/swp-report/iMX6_Platform_SDK/output/mx6sdl/lib/libboard_smart_device_rev_b.a(usdhc4_iomux_config.o)
                                        0xbd2 (size before relaxing)
 .debug_str     0x000000000000a6b4      0x464 /home/leon/git/swp-report/iMX6_Platform_SDK/output/mx6sdl/lib/libboard_smart_device_rev_b.a(audmux_iomux_config.o)
                                        0x5f4 (size before relaxing)
 .debug_str     0x000000000000ab18      0x152 /home/leon/git/swp-report/iMX6_Platform_SDK/output/mx6sdl/lib/libboard_smart_device_rev_b.a(ccm_iomux_config.o)
                                        0x2e2 (size before relaxing)
 .debug_str     0x000000000000ac6a      0x60a /home/leon/git/swp-report/iMX6_Platform_SDK/output/mx6sdl/lib/libboard_smart_device_rev_b.a(ecspi1_iomux_config.o)
                                        0x7a0 (size before relaxing)
 .debug_str     0x000000000000b274     0x1655 /home/leon/git/swp-report/iMX6_Platform_SDK/output/mx6sdl/lib/libboard_smart_device_rev_b.a(enet_iomux_config.o)
                                       0x17ff (size before relaxing)
 .debug_str     0x000000000000c8c9     0x2cd0 /home/leon/git/swp-report/iMX6_Platform_SDK/output/mx6sdl/lib/libboard_smart_device_rev_b.a(epdc_iomux_config.o)
                                       0x2f54 (size before relaxing)
 .debug_str     0x000000000000f599      0x2af /home/leon/git/swp-report/iMX6_Platform_SDK/output/mx6sdl/lib/libboard_smart_device_rev_b.a(flexcan1_iomux_config.o)
                                        0x445 (size before relaxing)
 .debug_str     0x000000000000f848      0xd5a /home/leon/git/swp-report/iMX6_Platform_SDK/output/mx6sdl/lib/libboard_smart_device_rev_b.a(gpio1_iomux_config.o)
                                        0xeea (size before relaxing)
 .debug_str     0x00000000000105a2      0x544 /home/leon/git/swp-report/iMX6_Platform_SDK/output/mx6sdl/lib/libboard_smart_device_rev_b.a(gpio2_iomux_config.o)
                                        0xb6e (size before relaxing)
 .debug_str     0x0000000000010ae6      0x16e /home/leon/git/swp-report/iMX6_Platform_SDK/output/mx6sdl/lib/libboard_smart_device_rev_b.a(gpio3_iomux_config.o)
                                       0x1002 (size before relaxing)
 .debug_str     0x0000000000010c54      0x4f6 /home/leon/git/swp-report/iMX6_Platform_SDK/output/mx6sdl/lib/libboard_smart_device_rev_b.a(gpio4_iomux_config.o)
                                        0x686 (size before relaxing)
 .debug_str     0x000000000001114a      0x262 /home/leon/git/swp-report/iMX6_Platform_SDK/output/mx6sdl/lib/libboard_smart_device_rev_b.a(gpio5_iomux_config.o)
                                        0x4e6 (size before relaxing)
 .debug_str     0x00000000000113ac      0x7fc /home/leon/git/swp-report/iMX6_Platform_SDK/output/mx6sdl/lib/libboard_smart_device_rev_b.a(gpio6_iomux_config.o)
                                        0xa74 (size before relaxing)
 .debug_str     0x0000000000011ba8      0x320 /home/leon/git/swp-report/iMX6_Platform_SDK/output/mx6sdl/lib/libboard_smart_device_rev_b.a(gpio7_iomux_config.o)
                                        0x4b0 (size before relaxing)
 .debug_str     0x0000000000011ec8      0x102 /home/leon/git/swp-report/iMX6_Platform_SDK/output/mx6sdl/lib/libboard_smart_device_rev_b.a(gps_iomux_config.o)
                                        0x73e (size before relaxing)
 .debug_str     0x0000000000011fca      0x35a /home/leon/git/swp-report/iMX6_Platform_SDK/output/mx6sdl/lib/libboard_smart_device_rev_b.a(i2c1_iomux_config.o)
                                        0x4f0 (size before relaxing)
 .debug_str     0x0000000000012324      0x336 /home/leon/git/swp-report/iMX6_Platform_SDK/output/mx6sdl/lib/libboard_smart_device_rev_b.a(i2c2_iomux_config.o)
                                        0x4cc (size before relaxing)
 .debug_str     0x000000000001265a      0x31e /home/leon/git/swp-report/iMX6_Platform_SDK/output/mx6sdl/lib/libboard_smart_device_rev_b.a(i2c3_iomux_config.o)
                                        0x4b4 (size before relaxing)
 .debug_str     0x0000000000012978       0xbf /home/src/arm/target/bin/../arm-none-eabi/lib//libc.a(lib_a-assert.o)
                                        0x530 (size before relaxing)
 .debug_str     0x0000000000012a37       0x7c /home/src/arm/target/bin/../arm-none-eabi/lib//libc.a(lib_a-bzero.o)
                                        0x13c (size before relaxing)
 .debug_str     0x0000000000012ab3       0x90 /home/src/arm/target/bin/../arm-none-eabi/lib//libc.a(lib_a-fiprintf.o)
                                        0x538 (size before relaxing)
 .debug_str     0x0000000000012b43       0x68 /home/src/arm/target/bin/../arm-none-eabi/lib//libc.a(lib_a-fputc.o)
                                        0x52e (size before relaxing)
 .debug_str     0x0000000000012bab       0x94 /home/src/arm/target/bin/../arm-none-eabi/lib//libc.a(lib_a-impure.o)
                                        0x508 (size before relaxing)
 .debug_str     0x0000000000012c3f       0xd1 /home/src/arm/target/bin/../arm-none-eabi/lib//libc.a(lib_a-init.o)
                                        0x196 (size before relaxing)
 .debug_str     0x0000000000012d10       0x59 /home/src/arm/target/bin/../arm-none-eabi/lib//libc.a(lib_a-malloc.o)
                                        0x51c (size before relaxing)
 .debug_str     0x0000000000012d69      0x22e /home/src/arm/target/bin/../arm-none-eabi/lib//libc.a(lib_a-mallocr.o)
                                        0x717 (size before relaxing)
 .debug_str     0x0000000000012f97       0xb7 /home/src/arm/target/bin/../arm-none-eabi/lib//libc.a(lib_a-memcpy-stub.o)
                                        0x170 (size before relaxing)
 .debug_str     0x000000000001304e       0x4f /home/src/arm/target/bin/../arm-none-eabi/lib//libc.a(lib_a-memset.o)
                                        0x14b (size before relaxing)
 .debug_str     0x000000000001309d       0x4f /home/src/arm/target/bin/../arm-none-eabi/lib//libc.a(lib_a-mlock.o)
                                        0x511 (size before relaxing)
 .debug_str     0x00000000000130ec       0x50 /home/src/arm/target/bin/../arm-none-eabi/lib//libc.a(lib_a-printf.o)
                                        0x531 (size before relaxing)
 .debug_str     0x000000000001313c       0x42 /home/src/arm/target/bin/../arm-none-eabi/lib//libc.a(lib_a-putc.o)
                                        0x528 (size before relaxing)
 .debug_str     0x000000000001317e       0x4f /home/src/arm/target/bin/../arm-none-eabi/lib//libc.a(lib_a-realloc.o)
                                        0x50d (size before relaxing)
 .debug_str     0x00000000000131cd       0x5e /home/src/arm/target/bin/../arm-none-eabi/lib//libc.a(lib_a-reallocr.o)
                                        0x5e9 (size before relaxing)
 .debug_str     0x000000000001322b       0x56 /home/src/arm/target/bin/../arm-none-eabi/lib//libc.a(lib_a-rget.o)
                                        0x522 (size before relaxing)
 .debug_str     0x0000000000013281       0x44 /home/src/arm/target/bin/../arm-none-eabi/lib//libc.a(lib_a-sbrkr.o)
                                        0x4ff (size before relaxing)
 .debug_str     0x00000000000132c5      0x34a /home/src/arm/target/bin/../arm-none-eabi/lib//libc.a(lib_a-syscalls.o)
                                        0x840 (size before relaxing)
 .debug_str     0x000000000001360f      0x1a6 /home/src/arm/target/bin/../arm-none-eabi/lib//libc.a(lib_a-vfiprintf.o)
                                        0x6dc (size before relaxing)
 .debug_str     0x00000000000137b5      0x19c /home/src/arm/target/bin/../arm-none-eabi/lib//libc.a(lib_a-vfprintf.o)
                                        0x8ea (size before relaxing)
 .debug_str     0x0000000000013951       0x4e /home/src/arm/target/bin/../arm-none-eabi/lib//libc.a(lib_a-vprintf.o)
                                        0x53a (size before relaxing)
 .debug_str     0x000000000001399f       0x40 /home/src/arm/target/bin/../arm-none-eabi/lib//libc.a(lib_a-wbuf.o)
                                        0x52c (size before relaxing)
 .debug_str     0x00000000000139df       0x47 /home/src/arm/target/bin/../arm-none-eabi/lib//libc.a(lib_a-wsetup.o)
                                        0x527 (size before relaxing)
 .debug_str     0x0000000000013a26       0x3a /home/src/arm/target/bin/../arm-none-eabi/lib//libc.a(lib_a-abort.o)
                                        0x13a (size before relaxing)
 .debug_str     0x0000000000013a60      0x157 /home/src/arm/target/bin/../arm-none-eabi/lib//libc.a(lib_a-dtoa.o)
                                        0x65a (size before relaxing)
 .debug_str     0x0000000000013bb7       0x74 /home/src/arm/target/bin/../arm-none-eabi/lib//libc.a(lib_a-errno.o)
                                        0x4f0 (size before relaxing)
 .debug_str     0x0000000000013c2b       0x6a /home/src/arm/target/bin/../arm-none-eabi/lib//libc.a(lib_a-fflush.o)
                                        0x568 (size before relaxing)
 .debug_str     0x0000000000013c95      0x110 /home/src/arm/target/bin/../arm-none-eabi/lib//libc.a(lib_a-findfp.o)
                                        0x615 (size before relaxing)
 .debug_str     0x0000000000013da5       0x62 /home/src/arm/target/bin/../arm-none-eabi/lib//libc.a(lib_a-fputwc.o)
                                        0x568 (size before relaxing)
 .debug_str     0x0000000000013e07       0x34 /home/src/arm/target/bin/../arm-none-eabi/lib//libc.a(lib_a-freer.o)
                                        0x661 (size before relaxing)
 .debug_str     0x0000000000013e3b       0x51 /home/src/arm/target/bin/../arm-none-eabi/lib//libc.a(lib_a-fvwrite.o)
                                        0x59a (size before relaxing)
 .debug_str     0x0000000000013e8c       0x48 /home/src/arm/target/bin/../arm-none-eabi/lib//libc.a(lib_a-fwalk.o)
                                        0x50d (size before relaxing)
 .debug_str     0x0000000000013ed4      0x14a /home/src/arm/target/bin/../arm-none-eabi/lib//libc.a(lib_a-locale.o)
                                        0x765 (size before relaxing)
 .debug_str     0x000000000001401e       0x59 /home/src/arm/target/bin/../arm-none-eabi/lib//libc.a(lib_a-makebuf.o)
                                        0x60a (size before relaxing)
 .debug_str     0x0000000000014077       0x56 /home/src/arm/target/bin/../arm-none-eabi/lib//libc.a(lib_a-memchr-stub.o)
                                        0x163 (size before relaxing)
 .debug_str     0x00000000000140cd       0x45 /home/src/arm/target/bin/../arm-none-eabi/lib//libc.a(lib_a-memmove.o)
                                        0x16a (size before relaxing)
 .debug_str     0x0000000000014112       0xa5 /home/src/arm/target/bin/../arm-none-eabi/lib//libc.a(lib_a-mprec.o)
                                        0x614 (size before relaxing)
 .debug_str     0x00000000000141b7       0x65 /home/src/arm/target/bin/../arm-none-eabi/lib//libc.a(lib_a-reent.o)
                                        0x527 (size before relaxing)
 .debug_str     0x000000000001421c       0x4c /home/src/arm/target/bin/../arm-none-eabi/lib//libc.a(lib_a-refill.o)
                                        0x563 (size before relaxing)
 .debug_str     0x0000000000014268       0x7d /home/src/arm/target/bin/../arm-none-eabi/lib//libc.a(lib_a-s_fpclassify.o)
                                        0x161 (size before relaxing)
 .debug_str     0x00000000000142e5       0xdd /home/src/arm/target/bin/../arm-none-eabi/lib//libc.a(lib_a-signal.o)
                                        0x57e (size before relaxing)
 .debug_str     0x00000000000143c2       0x3b /home/src/arm/target/bin/../arm-none-eabi/lib//libc.a(lib_a-signalr.o)
                                        0x504 (size before relaxing)
 .debug_str     0x00000000000143fd       0x99 /home/src/arm/target/bin/../arm-none-eabi/lib//libc.a(lib_a-stdio.o)
                                        0x563 (size before relaxing)
 .debug_str     0x0000000000014496       0x43 /home/src/arm/target/bin/../arm-none-eabi/lib//libc.a(lib_a-strlen.o)
                                        0x144 (size before relaxing)
 .debug_str     0x00000000000144d9       0x54 /home/src/arm/target/bin/../arm-none-eabi/lib//libc.a(lib_a-wcrtomb.o)
                                        0x53f (size before relaxing)
 .debug_str     0x000000000001452d       0x5d /home/src/arm/target/bin/../arm-none-eabi/lib//libc.a(lib_a-wctomb_r.o)
                                        0x548 (size before relaxing)
 .debug_str     0x000000000001458a       0x3a /home/src/arm/target/bin/../arm-none-eabi/lib//libc.a(lib_a-writer.o)
                                        0x4fc (size before relaxing)
 .debug_str     0x00000000000145c4        0xf /home/src/arm/target/bin/../arm-none-eabi/lib//libc.a(lib_a-callocr.o)
                                        0x541 (size before relaxing)
 .debug_str     0x00000000000145d3       0x3a /home/src/arm/target/bin/../arm-none-eabi/lib//libc.a(lib_a-closer.o)
                                        0x4ec (size before relaxing)
 .debug_str     0x000000000001460d       0x4b /home/src/arm/target/bin/../arm-none-eabi/lib//libc.a(lib_a-fclose.o)
                                        0x554 (size before relaxing)
 .debug_str     0x0000000000014658       0x40 /home/src/arm/target/bin/../arm-none-eabi/lib//libc.a(lib_a-fstatr.o)
                                        0x5df (size before relaxing)
 .debug_str     0x0000000000014698       0x3b /home/src/arm/target/bin/../arm-none-eabi/lib//libc.a(lib_a-isattyr.o)
                                        0x4f6 (size before relaxing)
 .debug_str     0x00000000000146d3       0x3a /home/src/arm/target/bin/../arm-none-eabi/lib//libc.a(lib_a-lseekr.o)
                                        0x4fa (size before relaxing)
 .debug_str     0x000000000001470d       0x39 /home/src/arm/target/bin/../arm-none-eabi/lib//libc.a(lib_a-readr.o)
                                        0x4fa (size before relaxing)
 .debug_str     0x0000000000014746      0x10c /home/src/arm/target/bin/../lib/gcc/arm-none-eabi/4.8.2//libgcc.a(bpabi.o)
                                        0x13b (size before relaxing)
 .debug_str     0x0000000000014852      0x10f /home/src/arm/target/bin/../lib/gcc/arm-none-eabi/4.8.2//libgcc.a(_divdi3.o)
                                        0x1f2 (size before relaxing)
 .debug_str     0x0000000000000000      0x1f3 /home/src/arm/target/bin/../lib/gcc/arm-none-eabi/4.8.2//libgcc.a(_udivdi3.o)

.debug_frame    0x0000000000000000     0x294c
 .debug_frame   0x0000000000000000       0x50 /home/leon/git/swp-report/iMX6_Platform_SDK/output/mx6sdl/caam_blob_gen/smart_device_rev_b/obj/apps/caam_blob_gen/src/caam_blob_gen.o
 .debug_frame   0x0000000000000050       0x30 /home/leon/git/swp-report/iMX6_Platform_SDK/output/mx6sdl/caam_blob_gen/smart_device_rev_b/obj/apps/common/platform_init.o
 .debug_frame   0x0000000000000080      0x130 /home/leon/git/swp-report/iMX6_Platform_SDK/output/mx6sdl/lib/libsdk.a(ccm_pll.o)
 .debug_frame   0x00000000000001b0      0x230 /home/leon/git/swp-report/iMX6_Platform_SDK/output/mx6sdl/lib/libsdk.a(gic.o)
 .debug_frame   0x00000000000003e0       0xb0 /home/leon/git/swp-report/iMX6_Platform_SDK/output/mx6sdl/lib/libsdk.a(mmu.o)
 .debug_frame   0x0000000000000490       0xe0 /home/leon/git/swp-report/iMX6_Platform_SDK/output/mx6sdl/lib/libsdk.a(system_util.o)
 .debug_frame   0x0000000000000570       0x54 /home/leon/git/swp-report/iMX6_Platform_SDK/output/mx6sdl/lib/libsdk.a(text_color.o)
 .debug_frame   0x00000000000005c4      0x110 /home/leon/git/swp-report/iMX6_Platform_SDK/output/mx6sdl/lib/libsdk.a(caam.o)
 .debug_frame   0x00000000000006d4       0x90 /home/leon/git/swp-report/iMX6_Platform_SDK/output/mx6sdl/lib/libsdk.a(timer.o)
 .debug_frame   0x0000000000000764       0xf0 /home/leon/git/swp-report/iMX6_Platform_SDK/output/mx6sdl/lib/libsdk.a(imx_uart.o)
 .debug_frame   0x0000000000000854       0xb8 /home/leon/git/swp-report/iMX6_Platform_SDK/output/mx6sdl/lib/libsdk.a(interrupt.o)
 .debug_frame   0x000000000000090c      0x110 /home/leon/git/swp-report/iMX6_Platform_SDK/output/mx6sdl/lib/libsdk.a(epit.o)
 .debug_frame   0x0000000000000a1c       0x38 /home/leon/git/swp-report/iMX6_Platform_SDK/output/mx6sdl/lib/libsdk.a(abort_handler.o)
 .debug_frame   0x0000000000000a54       0x50 /home/leon/git/swp-report/iMX6_Platform_SDK/output/mx6sdl/lib/libboard_smart_device_rev_b.a(board_io_expanders.o)
 .debug_frame   0x0000000000000aa4       0x30 /home/leon/git/swp-report/iMX6_Platform_SDK/output/mx6sdl/lib/libboard_smart_device_rev_b.a(uart_iomux_config.o)
 .debug_frame   0x0000000000000ad4      0x530 /home/leon/git/swp-report/iMX6_Platform_SDK/output/mx6sdl/lib/libboard_smart_device_rev_b.a(iomux_config.o)
 .debug_frame   0x0000000000001004       0x30 /home/leon/git/swp-report/iMX6_Platform_SDK/output/mx6sdl/lib/libboard_smart_device_rev_b.a(ipu1_iomux_config.o)
 .debug_frame   0x0000000000001034       0x30 /home/leon/git/swp-report/iMX6_Platform_SDK/output/mx6sdl/lib/libboard_smart_device_rev_b.a(mmdc_iomux_config.o)
 .debug_frame   0x0000000000001064       0x30 /home/leon/git/swp-report/iMX6_Platform_SDK/output/mx6sdl/lib/libboard_smart_device_rev_b.a(pwm1_iomux_config.o)
 .debug_frame   0x0000000000001094       0x30 /home/leon/git/swp-report/iMX6_Platform_SDK/output/mx6sdl/lib/libboard_smart_device_rev_b.a(sjc_iomux_config.o)
 .debug_frame   0x00000000000010c4       0x30 /home/leon/git/swp-report/iMX6_Platform_SDK/output/mx6sdl/lib/libboard_smart_device_rev_b.a(uart1_iomux_config.o)
 .debug_frame   0x00000000000010f4       0x30 /home/leon/git/swp-report/iMX6_Platform_SDK/output/mx6sdl/lib/libboard_smart_device_rev_b.a(usb_iomux_config.o)
 .debug_frame   0x0000000000001124       0x30 /home/leon/git/swp-report/iMX6_Platform_SDK/output/mx6sdl/lib/libboard_smart_device_rev_b.a(usdhc2_iomux_config.o)
 .debug_frame   0x0000000000001154       0x30 /home/leon/git/swp-report/iMX6_Platform_SDK/output/mx6sdl/lib/libboard_smart_device_rev_b.a(usdhc3_iomux_config.o)
 .debug_frame   0x0000000000001184       0x30 /home/leon/git/swp-report/iMX6_Platform_SDK/output/mx6sdl/lib/libboard_smart_device_rev_b.a(usdhc4_iomux_config.o)
 .debug_frame   0x00000000000011b4       0x30 /home/leon/git/swp-report/iMX6_Platform_SDK/output/mx6sdl/lib/libboard_smart_device_rev_b.a(audmux_iomux_config.o)
 .debug_frame   0x00000000000011e4       0x30 /home/leon/git/swp-report/iMX6_Platform_SDK/output/mx6sdl/lib/libboard_smart_device_rev_b.a(ccm_iomux_config.o)
 .debug_frame   0x0000000000001214       0x30 /home/leon/git/swp-report/iMX6_Platform_SDK/output/mx6sdl/lib/libboard_smart_device_rev_b.a(ecspi1_iomux_config.o)
 .debug_frame   0x0000000000001244       0x30 /home/leon/git/swp-report/iMX6_Platform_SDK/output/mx6sdl/lib/libboard_smart_device_rev_b.a(enet_iomux_config.o)
 .debug_frame   0x0000000000001274       0x30 /home/leon/git/swp-report/iMX6_Platform_SDK/output/mx6sdl/lib/libboard_smart_device_rev_b.a(epdc_iomux_config.o)
 .debug_frame   0x00000000000012a4       0x30 /home/leon/git/swp-report/iMX6_Platform_SDK/output/mx6sdl/lib/libboard_smart_device_rev_b.a(flexcan1_iomux_config.o)
 .debug_frame   0x00000000000012d4       0x30 /home/leon/git/swp-report/iMX6_Platform_SDK/output/mx6sdl/lib/libboard_smart_device_rev_b.a(gpio1_iomux_config.o)
 .debug_frame   0x0000000000001304       0x30 /home/leon/git/swp-report/iMX6_Platform_SDK/output/mx6sdl/lib/libboard_smart_device_rev_b.a(gpio2_iomux_config.o)
 .debug_frame   0x0000000000001334       0x30 /home/leon/git/swp-report/iMX6_Platform_SDK/output/mx6sdl/lib/libboard_smart_device_rev_b.a(gpio3_iomux_config.o)
 .debug_frame   0x0000000000001364       0x30 /home/leon/git/swp-report/iMX6_Platform_SDK/output/mx6sdl/lib/libboard_smart_device_rev_b.a(gpio4_iomux_config.o)
 .debug_frame   0x0000000000001394       0x30 /home/leon/git/swp-report/iMX6_Platform_SDK/output/mx6sdl/lib/libboard_smart_device_rev_b.a(gpio5_iomux_config.o)
 .debug_frame   0x00000000000013c4       0x30 /home/leon/git/swp-report/iMX6_Platform_SDK/output/mx6sdl/lib/libboard_smart_device_rev_b.a(gpio6_iomux_config.o)
 .debug_frame   0x00000000000013f4       0x30 /home/leon/git/swp-report/iMX6_Platform_SDK/output/mx6sdl/lib/libboard_smart_device_rev_b.a(gpio7_iomux_config.o)
 .debug_frame   0x0000000000001424       0x30 /home/leon/git/swp-report/iMX6_Platform_SDK/output/mx6sdl/lib/libboard_smart_device_rev_b.a(gps_iomux_config.o)
 .debug_frame   0x0000000000001454       0x30 /home/leon/git/swp-report/iMX6_Platform_SDK/output/mx6sdl/lib/libboard_smart_device_rev_b.a(i2c1_iomux_config.o)
 .debug_frame   0x0000000000001484       0x30 /home/leon/git/swp-report/iMX6_Platform_SDK/output/mx6sdl/lib/libboard_smart_device_rev_b.a(i2c2_iomux_config.o)
 .debug_frame   0x00000000000014b4       0x30 /home/leon/git/swp-report/iMX6_Platform_SDK/output/mx6sdl/lib/libboard_smart_device_rev_b.a(i2c3_iomux_config.o)
 .debug_frame   0x00000000000014e4       0x40 /home/src/arm/target/bin/../arm-none-eabi/lib//libc.a(lib_a-assert.o)
 .debug_frame   0x0000000000001524       0x20 /home/src/arm/target/bin/../arm-none-eabi/lib//libc.a(lib_a-bzero.o)
 .debug_frame   0x0000000000001544       0x54 /home/src/arm/target/bin/../arm-none-eabi/lib//libc.a(lib_a-fiprintf.o)
 .debug_frame   0x0000000000001598       0x48 /home/src/arm/target/bin/../arm-none-eabi/lib//libc.a(lib_a-fputc.o)
 .debug_frame   0x00000000000015e0       0x2c /home/src/arm/target/bin/../arm-none-eabi/lib//libc.a(lib_a-init.o)
 .debug_frame   0x000000000000160c       0x40 /home/src/arm/target/bin/../arm-none-eabi/lib//libc.a(lib_a-malloc.o)
 .debug_frame   0x000000000000164c       0x38 /home/src/arm/target/bin/../arm-none-eabi/lib//libc.a(lib_a-mallocr.o)
 .debug_frame   0x0000000000001684       0x2c /home/src/arm/target/bin/../arm-none-eabi/lib//libc.a(lib_a-memcpy-stub.o)
 .debug_frame   0x00000000000016b0       0x2c /home/src/arm/target/bin/../arm-none-eabi/lib//libc.a(lib_a-memset.o)
 .debug_frame   0x00000000000016dc       0x30 /home/src/arm/target/bin/../arm-none-eabi/lib//libc.a(lib_a-mlock.o)
 .debug_frame   0x000000000000170c       0x58 /home/src/arm/target/bin/../arm-none-eabi/lib//libc.a(lib_a-printf.o)
 .debug_frame   0x0000000000001764       0x48 /home/src/arm/target/bin/../arm-none-eabi/lib//libc.a(lib_a-putc.o)
 .debug_frame   0x00000000000017ac       0x28 /home/src/arm/target/bin/../arm-none-eabi/lib//libc.a(lib_a-realloc.o)
 .debug_frame   0x00000000000017d4       0x38 /home/src/arm/target/bin/../arm-none-eabi/lib//libc.a(lib_a-reallocr.o)
 .debug_frame   0x000000000000180c       0x3c /home/src/arm/target/bin/../arm-none-eabi/lib//libc.a(lib_a-rget.o)
 .debug_frame   0x0000000000001848       0x2c /home/src/arm/target/bin/../arm-none-eabi/lib//libc.a(lib_a-sbrkr.o)
 .debug_frame   0x0000000000001874      0x2ec /home/src/arm/target/bin/../arm-none-eabi/lib//libc.a(lib_a-syscalls.o)
 .debug_frame   0x0000000000001b60       0xb8 /home/src/arm/target/bin/../arm-none-eabi/lib//libc.a(lib_a-vfiprintf.o)
 .debug_frame   0x0000000000001c18       0x84 /home/src/arm/target/bin/../arm-none-eabi/lib//libc.a(lib_a-vfprintf.o)
 .debug_frame   0x0000000000001c9c       0x40 /home/src/arm/target/bin/../arm-none-eabi/lib//libc.a(lib_a-vprintf.o)
 .debug_frame   0x0000000000001cdc       0x3c /home/src/arm/target/bin/../arm-none-eabi/lib//libc.a(lib_a-wbuf.o)
 .debug_frame   0x0000000000001d18       0x2c /home/src/arm/target/bin/../arm-none-eabi/lib//libc.a(lib_a-wsetup.o)
 .debug_frame   0x0000000000001d44       0x28 /home/src/arm/target/bin/../arm-none-eabi/lib//libc.a(lib_a-abort.o)
 .debug_frame   0x0000000000001d6c       0x64 /home/src/arm/target/bin/../arm-none-eabi/lib//libc.a(lib_a-dtoa.o)
 .debug_frame   0x0000000000001dd0       0x20 /home/src/arm/target/bin/../arm-none-eabi/lib//libc.a(lib_a-errno.o)
 .debug_frame   0x0000000000001df0       0x64 /home/src/arm/target/bin/../arm-none-eabi/lib//libc.a(lib_a-fflush.o)
 .debug_frame   0x0000000000001e54      0x130 /home/src/arm/target/bin/../arm-none-eabi/lib//libc.a(lib_a-findfp.o)
 .debug_frame   0x0000000000001f84       0x50 /home/src/arm/target/bin/../arm-none-eabi/lib//libc.a(lib_a-fputwc.o)
 .debug_frame   0x0000000000001fd4       0x50 /home/src/arm/target/bin/../arm-none-eabi/lib//libc.a(lib_a-freer.o)
 .debug_frame   0x0000000000002024       0x38 /home/src/arm/target/bin/../arm-none-eabi/lib//libc.a(lib_a-fvwrite.o)
 .debug_frame   0x000000000000205c       0x54 /home/src/arm/target/bin/../arm-none-eabi/lib//libc.a(lib_a-fwalk.o)
 .debug_frame   0x00000000000020b0       0x98 /home/src/arm/target/bin/../arm-none-eabi/lib//libc.a(lib_a-locale.o)
 .debug_frame   0x0000000000002148       0x30 /home/src/arm/target/bin/../arm-none-eabi/lib//libc.a(lib_a-makebuf.o)
 .debug_frame   0x0000000000002178       0x2c /home/src/arm/target/bin/../arm-none-eabi/lib//libc.a(lib_a-memchr-stub.o)
 .debug_frame   0x00000000000021a4       0x2c /home/src/arm/target/bin/../arm-none-eabi/lib//libc.a(lib_a-memmove.o)
 .debug_frame   0x00000000000021d0      0x210 /home/src/arm/target/bin/../arm-none-eabi/lib//libc.a(lib_a-mprec.o)
 .debug_frame   0x00000000000023e0       0x48 /home/src/arm/target/bin/../arm-none-eabi/lib//libc.a(lib_a-reent.o)
 .debug_frame   0x0000000000002428       0x48 /home/src/arm/target/bin/../arm-none-eabi/lib//libc.a(lib_a-refill.o)
 .debug_frame   0x0000000000002470       0x20 /home/src/arm/target/bin/../arm-none-eabi/lib//libc.a(lib_a-s_fpclassify.o)
 .debug_frame   0x0000000000002490       0xc0 /home/src/arm/target/bin/../arm-none-eabi/lib//libc.a(lib_a-signal.o)
 .debug_frame   0x0000000000002550       0x44 /home/src/arm/target/bin/../arm-none-eabi/lib//libc.a(lib_a-signalr.o)
 .debug_frame   0x0000000000002594       0x88 /home/src/arm/target/bin/../arm-none-eabi/lib//libc.a(lib_a-stdio.o)
 .debug_frame   0x000000000000261c       0x20 /home/src/arm/target/bin/../arm-none-eabi/lib//libc.a(lib_a-strlen.o)
 .debug_frame   0x000000000000263c       0x58 /home/src/arm/target/bin/../arm-none-eabi/lib//libc.a(lib_a-wcrtomb.o)
 .debug_frame   0x0000000000002694       0x44 /home/src/arm/target/bin/../arm-none-eabi/lib//libc.a(lib_a-wctomb_r.o)
 .debug_frame   0x00000000000026d8       0x2c /home/src/arm/target/bin/../arm-none-eabi/lib//libc.a(lib_a-writer.o)
 .debug_frame   0x0000000000002704       0x28 /home/src/arm/target/bin/../arm-none-eabi/lib//libc.a(lib_a-callocr.o)
 .debug_frame   0x000000000000272c       0x2c /home/src/arm/target/bin/../arm-none-eabi/lib//libc.a(lib_a-closer.o)
 .debug_frame   0x0000000000002758       0x3c /home/src/arm/target/bin/../arm-none-eabi/lib//libc.a(lib_a-fclose.o)
 .debug_frame   0x0000000000002794       0x2c /home/src/arm/target/bin/../arm-none-eabi/lib//libc.a(lib_a-fstatr.o)
 .debug_frame   0x00000000000027c0       0x2c /home/src/arm/target/bin/../arm-none-eabi/lib//libc.a(lib_a-isattyr.o)
 .debug_frame   0x00000000000027ec       0x2c /home/src/arm/target/bin/../arm-none-eabi/lib//libc.a(lib_a-lseekr.o)
 .debug_frame   0x0000000000002818       0x2c /home/src/arm/target/bin/../arm-none-eabi/lib//libc.a(lib_a-readr.o)
 .debug_frame   0x0000000000002844       0x20 /home/src/arm/target/bin/../lib/gcc/arm-none-eabi/4.8.2//libgcc.a(_udivsi3.o)
 .debug_frame   0x0000000000002864       0x20 /home/src/arm/target/bin/../lib/gcc/arm-none-eabi/4.8.2//libgcc.a(_divsi3.o)
 .debug_frame   0x0000000000002884       0x58 /home/src/arm/target/bin/../lib/gcc/arm-none-eabi/4.8.2//libgcc.a(bpabi.o)
 .debug_frame   0x00000000000028dc       0x38 /home/src/arm/target/bin/../lib/gcc/arm-none-eabi/4.8.2//libgcc.a(_divdi3.o)
 .debug_frame   0x0000000000002914       0x38 /home/src/arm/target/bin/../lib/gcc/arm-none-eabi/4.8.2//libgcc.a(_udivdi3.o)

.debug_loc      0x0000000000000000    0x11bee
 .debug_loc     0x0000000000000000      0x114 /home/src/arm/target/bin/../arm-none-eabi/lib//libc.a(lib_a-assert.o)
 .debug_loc     0x0000000000000114       0x41 /home/src/arm/target/bin/../arm-none-eabi/lib//libc.a(lib_a-bzero.o)
 .debug_loc     0x0000000000000155       0x6e /home/src/arm/target/bin/../arm-none-eabi/lib//libc.a(lib_a-fiprintf.o)
 .debug_loc     0x00000000000001c3       0xd9 /home/src/arm/target/bin/../arm-none-eabi/lib//libc.a(lib_a-fputc.o)
 .debug_loc     0x000000000000029c       0xa2 /home/src/arm/target/bin/../arm-none-eabi/lib//libc.a(lib_a-init.o)
 .debug_loc     0x000000000000033e       0x58 /home/src/arm/target/bin/../arm-none-eabi/lib//libc.a(lib_a-malloc.o)
 .debug_loc     0x0000000000000396      0xcee /home/src/arm/target/bin/../arm-none-eabi/lib//libc.a(lib_a-mallocr.o)
 .debug_loc     0x0000000000001084      0x1c1 /home/src/arm/target/bin/../arm-none-eabi/lib//libc.a(lib_a-memcpy-stub.o)
 .debug_loc     0x0000000000001245      0x175 /home/src/arm/target/bin/../arm-none-eabi/lib//libc.a(lib_a-memset.o)
 .debug_loc     0x00000000000013ba       0x34 /home/src/arm/target/bin/../arm-none-eabi/lib//libc.a(lib_a-printf.o)
 .debug_loc     0x00000000000013ee      0x1c5 /home/src/arm/target/bin/../arm-none-eabi/lib//libc.a(lib_a-putc.o)
 .debug_loc     0x00000000000015b3       0x58 /home/src/arm/target/bin/../arm-none-eabi/lib//libc.a(lib_a-realloc.o)
 .debug_loc     0x000000000000160b      0xed3 /home/src/arm/target/bin/../arm-none-eabi/lib//libc.a(lib_a-reallocr.o)
 .debug_loc     0x00000000000024de       0xb0 /home/src/arm/target/bin/../arm-none-eabi/lib//libc.a(lib_a-rget.o)
 .debug_loc     0x000000000000258e       0x66 /home/src/arm/target/bin/../arm-none-eabi/lib//libc.a(lib_a-sbrkr.o)
 .debug_loc     0x00000000000025f4     0x135b /home/src/arm/target/bin/../arm-none-eabi/lib//libc.a(lib_a-syscalls.o)
 .debug_loc     0x000000000000394f     0x1c73 /home/src/arm/target/bin/../arm-none-eabi/lib//libc.a(lib_a-vfiprintf.o)
 .debug_loc     0x00000000000055c2     0x233a /home/src/arm/target/bin/../arm-none-eabi/lib//libc.a(lib_a-vfprintf.o)
 .debug_loc     0x00000000000078fc       0xb2 /home/src/arm/target/bin/../arm-none-eabi/lib//libc.a(lib_a-vprintf.o)
 .debug_loc     0x00000000000079ae      0x15a /home/src/arm/target/bin/../arm-none-eabi/lib//libc.a(lib_a-wbuf.o)
 .debug_loc     0x0000000000007b08       0xd4 /home/src/arm/target/bin/../arm-none-eabi/lib//libc.a(lib_a-wsetup.o)
 .debug_loc     0x0000000000007bdc     0x3000 /home/src/arm/target/bin/../arm-none-eabi/lib//libc.a(lib_a-dtoa.o)
 .debug_loc     0x000000000000abdc      0x2db /home/src/arm/target/bin/../arm-none-eabi/lib//libc.a(lib_a-fflush.o)
 .debug_loc     0x000000000000aeb7      0x2dd /home/src/arm/target/bin/../arm-none-eabi/lib//libc.a(lib_a-findfp.o)
 .debug_loc     0x000000000000b194      0x304 /home/src/arm/target/bin/../arm-none-eabi/lib//libc.a(lib_a-fputwc.o)
 .debug_loc     0x000000000000b498      0x3fc /home/src/arm/target/bin/../arm-none-eabi/lib//libc.a(lib_a-freer.o)
 .debug_loc     0x000000000000b894      0x612 /home/src/arm/target/bin/../arm-none-eabi/lib//libc.a(lib_a-fvwrite.o)
 .debug_loc     0x000000000000bea6      0x284 /home/src/arm/target/bin/../arm-none-eabi/lib//libc.a(lib_a-fwalk.o)
 .debug_loc     0x000000000000c12a      0x100 /home/src/arm/target/bin/../arm-none-eabi/lib//libc.a(lib_a-locale.o)
 .debug_loc     0x000000000000c22a      0x170 /home/src/arm/target/bin/../arm-none-eabi/lib//libc.a(lib_a-makebuf.o)
 .debug_loc     0x000000000000c39a      0x15a /home/src/arm/target/bin/../arm-none-eabi/lib//libc.a(lib_a-memchr-stub.o)
 .debug_loc     0x000000000000c4f4      0x2b0 /home/src/arm/target/bin/../arm-none-eabi/lib//libc.a(lib_a-memmove.o)
 .debug_loc     0x000000000000c7a4     0x2890 /home/src/arm/target/bin/../arm-none-eabi/lib//libc.a(lib_a-mprec.o)
 .debug_loc     0x000000000000f034      0x13e /home/src/arm/target/bin/../arm-none-eabi/lib//libc.a(lib_a-reent.o)
 .debug_loc     0x000000000000f172      0x14e /home/src/arm/target/bin/../arm-none-eabi/lib//libc.a(lib_a-refill.o)
 .debug_loc     0x000000000000f2c0       0x84 /home/src/arm/target/bin/../arm-none-eabi/lib//libc.a(lib_a-s_fpclassify.o)
 .debug_loc     0x000000000000f344      0x32c /home/src/arm/target/bin/../arm-none-eabi/lib//libc.a(lib_a-signal.o)
 .debug_loc     0x000000000000f670       0x9a /home/src/arm/target/bin/../arm-none-eabi/lib//libc.a(lib_a-signalr.o)
 .debug_loc     0x000000000000f70a      0x2b5 /home/src/arm/target/bin/../arm-none-eabi/lib//libc.a(lib_a-stdio.o)
 .debug_loc     0x000000000000f9bf       0x21 /home/src/arm/target/bin/../arm-none-eabi/lib//libc.a(lib_a-strlen.o)
 .debug_loc     0x000000000000f9e0      0x253 /home/src/arm/target/bin/../arm-none-eabi/lib//libc.a(lib_a-wcrtomb.o)
 .debug_loc     0x000000000000fc33      0x116 /home/src/arm/target/bin/../arm-none-eabi/lib//libc.a(lib_a-wctomb_r.o)
 .debug_loc     0x000000000000fd49       0xa5 /home/src/arm/target/bin/../arm-none-eabi/lib//libc.a(lib_a-writer.o)
 .debug_loc     0x000000000000fdee      0x20c /home/src/arm/target/bin/../arm-none-eabi/lib//libc.a(lib_a-callocr.o)
 .debug_loc     0x000000000000fffa       0x4d /home/src/arm/target/bin/../arm-none-eabi/lib//libc.a(lib_a-closer.o)
 .debug_loc     0x0000000000010047      0x163 /home/src/arm/target/bin/../arm-none-eabi/lib//libc.a(lib_a-fclose.o)
 .debug_loc     0x00000000000101aa       0x79 /home/src/arm/target/bin/../arm-none-eabi/lib//libc.a(lib_a-fstatr.o)
 .debug_loc     0x0000000000010223       0x4d /home/src/arm/target/bin/../arm-none-eabi/lib//libc.a(lib_a-isattyr.o)
 .debug_loc     0x0000000000010270       0xa5 /home/src/arm/target/bin/../arm-none-eabi/lib//libc.a(lib_a-lseekr.o)
 .debug_loc     0x0000000000010315       0xa5 /home/src/arm/target/bin/../arm-none-eabi/lib//libc.a(lib_a-readr.o)
 .debug_loc     0x00000000000103ba       0xa0 /home/src/arm/target/bin/../lib/gcc/arm-none-eabi/4.8.2//libgcc.a(bpabi.o)
 .debug_loc     0x000000000001045a      0xb31 /home/src/arm/target/bin/../lib/gcc/arm-none-eabi/4.8.2//libgcc.a(_divdi3.o)
 .debug_loc     0x0000000000010f8b      0xc63 /home/src/arm/target/bin/../lib/gcc/arm-none-eabi/4.8.2//libgcc.a(_udivdi3.o)

.debug_ranges   0x0000000000000000      0x9b8
 .debug_ranges  0x0000000000000000       0x30 /home/src/arm/target/bin/../arm-none-eabi/lib//libc.a(lib_a-fputc.o)
 .debug_ranges  0x0000000000000030       0x28 /home/src/arm/target/bin/../arm-none-eabi/lib//libc.a(lib_a-mallocr.o)
 .debug_ranges  0x0000000000000058       0x40 /home/src/arm/target/bin/../arm-none-eabi/lib//libc.a(lib_a-putc.o)
 .debug_ranges  0x0000000000000098       0xb8 /home/src/arm/target/bin/../arm-none-eabi/lib//libc.a(lib_a-reallocr.o)
 .debug_ranges  0x0000000000000150       0x20 /home/src/arm/target/bin/../arm-none-eabi/lib//libc.a(lib_a-rget.o)
 .debug_ranges  0x0000000000000170      0x200 /home/src/arm/target/bin/../arm-none-eabi/lib//libc.a(lib_a-syscalls.o)
 .debug_ranges  0x0000000000000370      0x1a8 /home/src/arm/target/bin/../arm-none-eabi/lib//libc.a(lib_a-vfiprintf.o)
 .debug_ranges  0x0000000000000518      0x118 /home/src/arm/target/bin/../arm-none-eabi/lib//libc.a(lib_a-vfprintf.o)
 .debug_ranges  0x0000000000000630       0x20 /home/src/arm/target/bin/../arm-none-eabi/lib//libc.a(lib_a-wbuf.o)
 .debug_ranges  0x0000000000000650       0x20 /home/src/arm/target/bin/../arm-none-eabi/lib//libc.a(lib_a-wsetup.o)
 .debug_ranges  0x0000000000000670       0x38 /home/src/arm/target/bin/../arm-none-eabi/lib//libc.a(lib_a-fflush.o)
 .debug_ranges  0x00000000000006a8       0x68 /home/src/arm/target/bin/../arm-none-eabi/lib//libc.a(lib_a-findfp.o)
 .debug_ranges  0x0000000000000710       0x38 /home/src/arm/target/bin/../arm-none-eabi/lib//libc.a(lib_a-fputwc.o)
 .debug_ranges  0x0000000000000748       0x20 /home/src/arm/target/bin/../arm-none-eabi/lib//libc.a(lib_a-fvwrite.o)
 .debug_ranges  0x0000000000000768       0x48 /home/src/arm/target/bin/../arm-none-eabi/lib//libc.a(lib_a-mprec.o)
 .debug_ranges  0x00000000000007b0       0x18 /home/src/arm/target/bin/../arm-none-eabi/lib//libc.a(lib_a-reent.o)
 .debug_ranges  0x00000000000007c8       0x20 /home/src/arm/target/bin/../arm-none-eabi/lib//libc.a(lib_a-refill.o)
 .debug_ranges  0x00000000000007e8       0x10 /home/src/arm/target/bin/../arm-none-eabi/lib//libc.a(lib_a-strlen.o)
 .debug_ranges  0x00000000000007f8       0x30 /home/src/arm/target/bin/../arm-none-eabi/lib//libc.a(lib_a-callocr.o)
 .debug_ranges  0x0000000000000828       0x18 /home/src/arm/target/bin/../arm-none-eabi/lib//libc.a(lib_a-fclose.o)
 .debug_ranges  0x0000000000000840       0xa8 /home/src/arm/target/bin/../lib/gcc/arm-none-eabi/4.8.2//libgcc.a(_divdi3.o)
 .debug_ranges  0x00000000000008e8       0xd0 /home/src/arm/target/bin/../lib/gcc/arm-none-eabi/4.8.2//libgcc.a(_udivdi3.o)

Cross Reference Table

Symbol                                            File
IRQ_HDLR                                          /home/leon/git/swp-report/iMX6_Platform_SDK/output/mx6sdl/lib/libsdk.a(interrupt.o)
                                                  /home/leon/git/swp-report/iMX6_Platform_SDK/output/mx6sdl/lib/libsdk.a(vectors.o)
PLL1_OUTPUT                                       /home/leon/git/swp-report/iMX6_Platform_SDK/output/mx6sdl/lib/libsdk.a(ccm_pll.o)
PLL2_OUTPUT                                       /home/leon/git/swp-report/iMX6_Platform_SDK/output/mx6sdl/lib/libsdk.a(ccm_pll.o)
PLL3_OUTPUT                                       /home/leon/git/swp-report/iMX6_Platform_SDK/output/mx6sdl/lib/libsdk.a(ccm_pll.o)
PLL4_OUTPUT                                       /home/leon/git/swp-report/iMX6_Platform_SDK/output/mx6sdl/lib/libsdk.a(ccm_pll.o)
PLL5_OUTPUT                                       /home/leon/git/swp-report/iMX6_Platform_SDK/output/mx6sdl/lib/libsdk.a(ccm_pll.o)
_Balloc                                           /home/src/arm/target/bin/../arm-none-eabi/lib//libc.a(lib_a-mprec.o)
                                                  /home/src/arm/target/bin/../arm-none-eabi/lib//libc.a(lib_a-dtoa.o)
_Bfree                                            /home/src/arm/target/bin/../arm-none-eabi/lib//libc.a(lib_a-mprec.o)
                                                  /home/src/arm/target/bin/../arm-none-eabi/lib//libc.a(lib_a-dtoa.o)
_ITM_deregisterTMCloneTable                       /home/src/arm/target/bin/../lib/gcc/arm-none-eabi/4.8.2//crtbegin.o
_ITM_registerTMCloneTable                         /home/src/arm/target/bin/../lib/gcc/arm-none-eabi/4.8.2//crtbegin.o
_Jv_RegisterClasses                               /home/src/arm/target/bin/../lib/gcc/arm-none-eabi/4.8.2//crtbegin.o
_PathLocale                                       /home/src/arm/target/bin/../arm-none-eabi/lib//libc.a(lib_a-locale.o)
__TMC_END__                                       /home/src/arm/target/bin/../lib/gcc/arm-none-eabi/4.8.2//crtend.o
                                                  /home/src/arm/target/bin/../lib/gcc/arm-none-eabi/4.8.2//crtbegin.o
__adddf3                                          /home/src/arm/target/bin/../lib/gcc/arm-none-eabi/4.8.2//libgcc.a(_arm_addsubdf3.o)
__aeabi_cdcmpeq                                   /home/src/arm/target/bin/../lib/gcc/arm-none-eabi/4.8.2//libgcc.a(_arm_cmpdf2.o)
__aeabi_cdcmple                                   /home/src/arm/target/bin/../lib/gcc/arm-none-eabi/4.8.2//libgcc.a(_arm_cmpdf2.o)
__aeabi_cdrcmple                                  /home/src/arm/target/bin/../lib/gcc/arm-none-eabi/4.8.2//libgcc.a(_arm_cmpdf2.o)
__aeabi_d2iz                                      /home/src/arm/target/bin/../lib/gcc/arm-none-eabi/4.8.2//libgcc.a(_arm_fixdfsi.o)
                                                  /home/src/arm/target/bin/../arm-none-eabi/lib//libc.a(lib_a-dtoa.o)
__aeabi_dadd                                      /home/src/arm/target/bin/../lib/gcc/arm-none-eabi/4.8.2//libgcc.a(_arm_addsubdf3.o)
                                                  /home/src/arm/target/bin/../arm-none-eabi/lib//libc.a(lib_a-dtoa.o)
__aeabi_dcmpeq                                    /home/src/arm/target/bin/../lib/gcc/arm-none-eabi/4.8.2//libgcc.a(_arm_cmpdf2.o)
                                                  /home/src/arm/target/bin/../arm-none-eabi/lib//libc.a(lib_a-dtoa.o)
                                                  /home/src/arm/target/bin/../arm-none-eabi/lib//libc.a(lib_a-vfprintf.o)
__aeabi_dcmpge                                    /home/src/arm/target/bin/../lib/gcc/arm-none-eabi/4.8.2//libgcc.a(_arm_cmpdf2.o)
                                                  /home/src/arm/target/bin/../arm-none-eabi/lib//libc.a(lib_a-dtoa.o)
__aeabi_dcmpgt                                    /home/src/arm/target/bin/../lib/gcc/arm-none-eabi/4.8.2//libgcc.a(_arm_cmpdf2.o)
                                                  /home/src/arm/target/bin/../arm-none-eabi/lib//libc.a(lib_a-dtoa.o)
__aeabi_dcmple                                    /home/src/arm/target/bin/../lib/gcc/arm-none-eabi/4.8.2//libgcc.a(_arm_cmpdf2.o)
__aeabi_dcmplt                                    /home/src/arm/target/bin/../lib/gcc/arm-none-eabi/4.8.2//libgcc.a(_arm_cmpdf2.o)
                                                  /home/src/arm/target/bin/../arm-none-eabi/lib//libc.a(lib_a-dtoa.o)
                                                  /home/src/arm/target/bin/../arm-none-eabi/lib//libc.a(lib_a-vfprintf.o)
__aeabi_ddiv                                      /home/src/arm/target/bin/../lib/gcc/arm-none-eabi/4.8.2//libgcc.a(_arm_muldivdf3.o)
                                                  /home/src/arm/target/bin/../arm-none-eabi/lib//libc.a(lib_a-mprec.o)
                                                  /home/src/arm/target/bin/../arm-none-eabi/lib//libc.a(lib_a-dtoa.o)
__aeabi_dmul                                      /home/src/arm/target/bin/../lib/gcc/arm-none-eabi/4.8.2//libgcc.a(_arm_muldivdf3.o)
                                                  /home/src/arm/target/bin/../arm-none-eabi/lib//libc.a(lib_a-mprec.o)
                                                  /home/src/arm/target/bin/../arm-none-eabi/lib//libc.a(lib_a-dtoa.o)
__aeabi_drsub                                     /home/src/arm/target/bin/../lib/gcc/arm-none-eabi/4.8.2//libgcc.a(_arm_addsubdf3.o)
__aeabi_dsub                                      /home/src/arm/target/bin/../lib/gcc/arm-none-eabi/4.8.2//libgcc.a(_arm_addsubdf3.o)
                                                  /home/src/arm/target/bin/../arm-none-eabi/lib//libc.a(lib_a-dtoa.o)
__aeabi_f2d                                       /home/src/arm/target/bin/../lib/gcc/arm-none-eabi/4.8.2//libgcc.a(_arm_addsubdf3.o)
__aeabi_i2d                                       /home/src/arm/target/bin/../lib/gcc/arm-none-eabi/4.8.2//libgcc.a(_arm_addsubdf3.o)
                                                  /home/src/arm/target/bin/../arm-none-eabi/lib//libc.a(lib_a-dtoa.o)
__aeabi_idiv                                      /home/src/arm/target/bin/../lib/gcc/arm-none-eabi/4.8.2//libgcc.a(_divsi3.o)
                                                  /home/src/arm/target/bin/../arm-none-eabi/lib//libc.a(lib_a-fvwrite.o)
__aeabi_idiv0                                     /home/src/arm/target/bin/../lib/gcc/arm-none-eabi/4.8.2//libgcc.a(_dvmd_tls.o)
                                                  /home/src/arm/target/bin/../lib/gcc/arm-none-eabi/4.8.2//libgcc.a(_divsi3.o)
                                                  /home/src/arm/target/bin/../lib/gcc/arm-none-eabi/4.8.2//libgcc.a(_udivsi3.o)
__aeabi_idivmod                                   /home/src/arm/target/bin/../lib/gcc/arm-none-eabi/4.8.2//libgcc.a(_divsi3.o)
__aeabi_l2d                                       /home/src/arm/target/bin/../lib/gcc/arm-none-eabi/4.8.2//libgcc.a(_arm_addsubdf3.o)
__aeabi_ldiv0                                     /home/src/arm/target/bin/../lib/gcc/arm-none-eabi/4.8.2//libgcc.a(_dvmd_tls.o)
                                                  /home/src/arm/target/bin/../lib/gcc/arm-none-eabi/4.8.2//libgcc.a(_aeabi_uldivmod.o)
__aeabi_ui2d                                      /home/src/arm/target/bin/../lib/gcc/arm-none-eabi/4.8.2//libgcc.a(_arm_addsubdf3.o)
                                                  /home/src/arm/target/bin/../arm-none-eabi/lib//libc.a(lib_a-dtoa.o)
__aeabi_uidiv                                     /home/src/arm/target/bin/../lib/gcc/arm-none-eabi/4.8.2//libgcc.a(_udivsi3.o)
                                                  /home/src/arm/target/bin/../lib/gcc/arm-none-eabi/4.8.2//libgcc.a(_udivdi3.o)
                                                  /home/src/arm/target/bin/../lib/gcc/arm-none-eabi/4.8.2//libgcc.a(_divdi3.o)
                                                  /home/src/arm/target/bin/../arm-none-eabi/lib//libc.a(lib_a-dtoa.o)
                                                  /home/leon/git/swp-report/iMX6_Platform_SDK/output/mx6sdl/lib/libsdk.a(ccm_pll.o)
__aeabi_uidivmod                                  /home/src/arm/target/bin/../lib/gcc/arm-none-eabi/4.8.2//libgcc.a(_udivsi3.o)
                                                  /home/src/arm/target/bin/../lib/gcc/arm-none-eabi/4.8.2//libgcc.a(_udivdi3.o)
                                                  /home/src/arm/target/bin/../lib/gcc/arm-none-eabi/4.8.2//libgcc.a(_divdi3.o)
__aeabi_ul2d                                      /home/src/arm/target/bin/../lib/gcc/arm-none-eabi/4.8.2//libgcc.a(_arm_addsubdf3.o)
__aeabi_uldivmod                                  /home/src/arm/target/bin/../lib/gcc/arm-none-eabi/4.8.2//libgcc.a(_aeabi_uldivmod.o)
                                                  /home/leon/git/swp-report/iMX6_Platform_SDK/output/mx6sdl/lib/libsdk.a(timer.o)
__any_on                                          /home/src/arm/target/bin/../arm-none-eabi/lib//libc.a(lib_a-mprec.o)
__ascii_wctomb                                    /home/src/arm/target/bin/../arm-none-eabi/lib//libc.a(lib_a-wctomb_r.o)
__assert                                          /home/src/arm/target/bin/../arm-none-eabi/lib//libc.a(lib_a-assert.o)
__assert_func                                     /home/src/arm/target/bin/../arm-none-eabi/lib//libc.a(lib_a-assert.o)
                                                  /home/leon/git/swp-report/iMX6_Platform_SDK/output/mx6sdl/lib/libboard_smart_device_rev_b.a(uart_iomux_config.o)
                                                  /home/leon/git/swp-report/iMX6_Platform_SDK/output/mx6sdl/lib/libsdk.a(gic.o)
__b2d                                             /home/src/arm/target/bin/../arm-none-eabi/lib//libc.a(lib_a-mprec.o)
__bss_end__                                       /home/leon/git/swp-report/iMX6_Platform_SDK/output/mx6sdl/lib/libsdk.a(startup.o)
__bss_start__                                     /home/leon/git/swp-report/iMX6_Platform_SDK/output/mx6sdl/lib/libsdk.a(startup.o)
__clzsi2                                          /home/src/arm/target/bin/../lib/gcc/arm-none-eabi/4.8.2//libgcc.a(_clzsi2.o)
                                                  /home/src/arm/target/bin/../lib/gcc/arm-none-eabi/4.8.2//libgcc.a(_udivdi3.o)
                                                  /home/src/arm/target/bin/../lib/gcc/arm-none-eabi/4.8.2//libgcc.a(_divdi3.o)
__cmpdf2                                          /home/src/arm/target/bin/../lib/gcc/arm-none-eabi/4.8.2//libgcc.a(_arm_cmpdf2.o)
__copybits                                        /home/src/arm/target/bin/../arm-none-eabi/lib//libc.a(lib_a-mprec.o)
__d2b                                             /home/src/arm/target/bin/../arm-none-eabi/lib//libc.a(lib_a-mprec.o)
                                                  /home/src/arm/target/bin/../arm-none-eabi/lib//libc.a(lib_a-dtoa.o)
__deregister_frame_info                           /home/src/arm/target/bin/../lib/gcc/arm-none-eabi/4.8.2//crtbegin.o
__divdf3                                          /home/src/arm/target/bin/../lib/gcc/arm-none-eabi/4.8.2//libgcc.a(_arm_muldivdf3.o)
__divdi3                                          /home/src/arm/target/bin/../lib/gcc/arm-none-eabi/4.8.2//libgcc.a(_divdi3.o)
                                                  /home/src/arm/target/bin/../lib/gcc/arm-none-eabi/4.8.2//libgcc.a(bpabi.o)
__divsi3                                          /home/src/arm/target/bin/../lib/gcc/arm-none-eabi/4.8.2//libgcc.a(_divsi3.o)
__dso_handle                                      /home/src/arm/target/bin/../lib/gcc/arm-none-eabi/4.8.2//crtbegin.o
__eqdf2                                           /home/src/arm/target/bin/../lib/gcc/arm-none-eabi/4.8.2//libgcc.a(_arm_cmpdf2.o)
__errno                                           /home/src/arm/target/bin/../arm-none-eabi/lib//libc.a(lib_a-errno.o)
                                                  /home/src/arm/target/bin/../arm-none-eabi/lib//libc.a(lib_a-syscalls.o)
__extendsfdf2                                     /home/src/arm/target/bin/../lib/gcc/arm-none-eabi/4.8.2//libgcc.a(_arm_addsubdf3.o)
__fixdfsi                                         /home/src/arm/target/bin/../lib/gcc/arm-none-eabi/4.8.2//libgcc.a(_arm_fixdfsi.o)
__floatdidf                                       /home/src/arm/target/bin/../lib/gcc/arm-none-eabi/4.8.2//libgcc.a(_arm_addsubdf3.o)
__floatsidf                                       /home/src/arm/target/bin/../lib/gcc/arm-none-eabi/4.8.2//libgcc.a(_arm_addsubdf3.o)
__floatundidf                                     /home/src/arm/target/bin/../lib/gcc/arm-none-eabi/4.8.2//libgcc.a(_arm_addsubdf3.o)
__floatunsidf                                     /home/src/arm/target/bin/../lib/gcc/arm-none-eabi/4.8.2//libgcc.a(_arm_addsubdf3.o)
__fp_lock_all                                     /home/src/arm/target/bin/../arm-none-eabi/lib//libc.a(lib_a-findfp.o)
__fp_unlock_all                                   /home/src/arm/target/bin/../arm-none-eabi/lib//libc.a(lib_a-findfp.o)
__fpclassifyd                                     /home/src/arm/target/bin/../arm-none-eabi/lib//libc.a(lib_a-s_fpclassify.o)
                                                  /home/src/arm/target/bin/../arm-none-eabi/lib//libc.a(lib_a-vfprintf.o)
__gedf2                                           /home/src/arm/target/bin/../lib/gcc/arm-none-eabi/4.8.2//libgcc.a(_arm_cmpdf2.o)
__gnu_ldivmod_helper                              /home/src/arm/target/bin/../lib/gcc/arm-none-eabi/4.8.2//libgcc.a(bpabi.o)
__gnu_uldivmod_helper                             /home/src/arm/target/bin/../lib/gcc/arm-none-eabi/4.8.2//libgcc.a(bpabi.o)
                                                  /home/src/arm/target/bin/../lib/gcc/arm-none-eabi/4.8.2//libgcc.a(_aeabi_uldivmod.o)
__gtdf2                                           /home/src/arm/target/bin/../lib/gcc/arm-none-eabi/4.8.2//libgcc.a(_arm_cmpdf2.o)
__hab_data                                        /home/leon/git/swp-report/iMX6_Platform_SDK/output/mx6sdl/caam_blob_gen/smart_device_rev_b/obj/apps/common/ivt.o
__hi0bits                                         /home/src/arm/target/bin/../arm-none-eabi/lib//libc.a(lib_a-mprec.o)
                                                  /home/src/arm/target/bin/../arm-none-eabi/lib//libc.a(lib_a-dtoa.o)
__i2b                                             /home/src/arm/target/bin/../arm-none-eabi/lib//libc.a(lib_a-mprec.o)
                                                  /home/src/arm/target/bin/../arm-none-eabi/lib//libc.a(lib_a-dtoa.o)
__init_array_end                                  /home/src/arm/target/bin/../arm-none-eabi/lib//libc.a(lib_a-init.o)
__init_array_start                                /home/src/arm/target/bin/../arm-none-eabi/lib//libc.a(lib_a-init.o)
__l1_page_table_start                             /home/leon/git/swp-report/iMX6_Platform_SDK/output/mx6sdl/lib/libsdk.a(mmu.o)
__ledf2                                           /home/src/arm/target/bin/../lib/gcc/arm-none-eabi/4.8.2//libgcc.a(_arm_cmpdf2.o)
__libc_init_array                                 /home/src/arm/target/bin/../arm-none-eabi/lib//libc.a(lib_a-init.o)
                                                  /home/leon/git/swp-report/iMX6_Platform_SDK/output/mx6sdl/lib/libsdk.a(startup.o)
__lo0bits                                         /home/src/arm/target/bin/../arm-none-eabi/lib//libc.a(lib_a-mprec.o)
__locale_charset                                  /home/src/arm/target/bin/../arm-none-eabi/lib//libc.a(lib_a-locale.o)
                                                  /home/src/arm/target/bin/../arm-none-eabi/lib//libc.a(lib_a-wctomb_r.o)
                                                  /home/src/arm/target/bin/../arm-none-eabi/lib//libc.a(lib_a-wcrtomb.o)
__locale_cjk_lang                                 /home/src/arm/target/bin/../arm-none-eabi/lib//libc.a(lib_a-locale.o)
__locale_mb_cur_max                               /home/src/arm/target/bin/../arm-none-eabi/lib//libc.a(lib_a-locale.o)
                                                  /home/src/arm/target/bin/../arm-none-eabi/lib//libc.a(lib_a-fputwc.o)
__locale_msgcharset                               /home/src/arm/target/bin/../arm-none-eabi/lib//libc.a(lib_a-locale.o)
__lshift                                          /home/src/arm/target/bin/../arm-none-eabi/lib//libc.a(lib_a-mprec.o)
                                                  /home/src/arm/target/bin/../arm-none-eabi/lib//libc.a(lib_a-dtoa.o)
__ltdf2                                           /home/src/arm/target/bin/../lib/gcc/arm-none-eabi/4.8.2//libgcc.a(_arm_cmpdf2.o)
__malloc_av_                                      /home/src/arm/target/bin/../arm-none-eabi/lib//libc.a(lib_a-mallocr.o)
                                                  /home/src/arm/target/bin/../arm-none-eabi/lib//libc.a(lib_a-freer.o)
                                                  /home/src/arm/target/bin/../arm-none-eabi/lib//libc.a(lib_a-reallocr.o)
__malloc_current_mallinfo                         /home/src/arm/target/bin/../arm-none-eabi/lib//libc.a(lib_a-mallocr.o)
                                                  /home/src/arm/target/bin/../arm-none-eabi/lib//libc.a(lib_a-freer.o)
__malloc_lock                                     /home/src/arm/target/bin/../arm-none-eabi/lib//libc.a(lib_a-mlock.o)
                                                  /home/src/arm/target/bin/../arm-none-eabi/lib//libc.a(lib_a-freer.o)
                                                  /home/src/arm/target/bin/../arm-none-eabi/lib//libc.a(lib_a-reallocr.o)
                                                  /home/src/arm/target/bin/../arm-none-eabi/lib//libc.a(lib_a-mallocr.o)
__malloc_max_sbrked_mem                           /home/src/arm/target/bin/../arm-none-eabi/lib//libc.a(lib_a-mallocr.o)
__malloc_max_total_mem                            /home/src/arm/target/bin/../arm-none-eabi/lib//libc.a(lib_a-mallocr.o)
__malloc_sbrk_base                                /home/src/arm/target/bin/../arm-none-eabi/lib//libc.a(lib_a-mallocr.o)
                                                  /home/src/arm/target/bin/../arm-none-eabi/lib//libc.a(lib_a-freer.o)
__malloc_top_pad                                  /home/src/arm/target/bin/../arm-none-eabi/lib//libc.a(lib_a-mallocr.o)
                                                  /home/src/arm/target/bin/../arm-none-eabi/lib//libc.a(lib_a-freer.o)
__malloc_trim_threshold                           /home/src/arm/target/bin/../arm-none-eabi/lib//libc.a(lib_a-mallocr.o)
                                                  /home/src/arm/target/bin/../arm-none-eabi/lib//libc.a(lib_a-freer.o)
__malloc_unlock                                   /home/src/arm/target/bin/../arm-none-eabi/lib//libc.a(lib_a-mlock.o)
                                                  /home/src/arm/target/bin/../arm-none-eabi/lib//libc.a(lib_a-freer.o)
                                                  /home/src/arm/target/bin/../arm-none-eabi/lib//libc.a(lib_a-reallocr.o)
                                                  /home/src/arm/target/bin/../arm-none-eabi/lib//libc.a(lib_a-mallocr.o)
__mb_cur_max                                      /home/src/arm/target/bin/../arm-none-eabi/lib//libc.a(lib_a-locale.o)
__mcmp                                            /home/src/arm/target/bin/../arm-none-eabi/lib//libc.a(lib_a-mprec.o)
                                                  /home/src/arm/target/bin/../arm-none-eabi/lib//libc.a(lib_a-dtoa.o)
__mdiff                                           /home/src/arm/target/bin/../arm-none-eabi/lib//libc.a(lib_a-mprec.o)
                                                  /home/src/arm/target/bin/../arm-none-eabi/lib//libc.a(lib_a-dtoa.o)
__mlocale_changed                                 /home/src/arm/target/bin/../arm-none-eabi/lib//libc.a(lib_a-locale.o)
__mprec_bigtens                                   /home/src/arm/target/bin/../arm-none-eabi/lib//libc.a(lib_a-mprec.o)
                                                  /home/src/arm/target/bin/../arm-none-eabi/lib//libc.a(lib_a-dtoa.o)
__mprec_tens                                      /home/src/arm/target/bin/../arm-none-eabi/lib//libc.a(lib_a-mprec.o)
                                                  /home/src/arm/target/bin/../arm-none-eabi/lib//libc.a(lib_a-dtoa.o)
__mprec_tinytens                                  /home/src/arm/target/bin/../arm-none-eabi/lib//libc.a(lib_a-mprec.o)
__muldf3                                          /home/src/arm/target/bin/../lib/gcc/arm-none-eabi/4.8.2//libgcc.a(_arm_muldivdf3.o)
__multadd                                         /home/src/arm/target/bin/../arm-none-eabi/lib//libc.a(lib_a-mprec.o)
                                                  /home/src/arm/target/bin/../arm-none-eabi/lib//libc.a(lib_a-dtoa.o)
__multiply                                        /home/src/arm/target/bin/../arm-none-eabi/lib//libc.a(lib_a-mprec.o)
                                                  /home/src/arm/target/bin/../arm-none-eabi/lib//libc.a(lib_a-dtoa.o)
__nedf2                                           /home/src/arm/target/bin/../lib/gcc/arm-none-eabi/4.8.2//libgcc.a(_arm_cmpdf2.o)
__nlocale_changed                                 /home/src/arm/target/bin/../arm-none-eabi/lib//libc.a(lib_a-locale.o)
__pow5mult                                        /home/src/arm/target/bin/../arm-none-eabi/lib//libc.a(lib_a-mprec.o)
                                                  /home/src/arm/target/bin/../arm-none-eabi/lib//libc.a(lib_a-dtoa.o)
__preinit_array_end                               /home/src/arm/target/bin/../arm-none-eabi/lib//libc.a(lib_a-init.o)
__preinit_array_start                             /home/src/arm/target/bin/../arm-none-eabi/lib//libc.a(lib_a-init.o)
__ram_vectors_end                                 /home/leon/git/swp-report/iMX6_Platform_SDK/output/mx6sdl/lib/libsdk.a(startup.o)
__ram_vectors_start                               /home/leon/git/swp-report/iMX6_Platform_SDK/output/mx6sdl/lib/libsdk.a(startup.o)
__ratio                                           /home/src/arm/target/bin/../arm-none-eabi/lib//libc.a(lib_a-mprec.o)
__register_frame_info                             /home/src/arm/target/bin/../lib/gcc/arm-none-eabi/4.8.2//crtbegin.o
__s2b                                             /home/src/arm/target/bin/../arm-none-eabi/lib//libc.a(lib_a-mprec.o)
__sclose                                          /home/src/arm/target/bin/../arm-none-eabi/lib//libc.a(lib_a-stdio.o)
                                                  /home/src/arm/target/bin/../arm-none-eabi/lib//libc.a(lib_a-findfp.o)
__seofread                                        /home/src/arm/target/bin/../arm-none-eabi/lib//libc.a(lib_a-stdio.o)
__sflush_r                                        /home/src/arm/target/bin/../arm-none-eabi/lib//libc.a(lib_a-fflush.o)
                                                  /home/src/arm/target/bin/../arm-none-eabi/lib//libc.a(lib_a-refill.o)
__sfmoreglue                                      /home/src/arm/target/bin/../arm-none-eabi/lib//libc.a(lib_a-findfp.o)
__sfp                                             /home/src/arm/target/bin/../arm-none-eabi/lib//libc.a(lib_a-findfp.o)
__sfp_lock_acquire                                /home/src/arm/target/bin/../arm-none-eabi/lib//libc.a(lib_a-findfp.o)
                                                  /home/src/arm/target/bin/../arm-none-eabi/lib//libc.a(lib_a-fclose.o)
__sfp_lock_release                                /home/src/arm/target/bin/../arm-none-eabi/lib//libc.a(lib_a-findfp.o)
                                                  /home/src/arm/target/bin/../arm-none-eabi/lib//libc.a(lib_a-fclose.o)
__sfvwrite_r                                      /home/src/arm/target/bin/../arm-none-eabi/lib//libc.a(lib_a-fvwrite.o)
                                                  /home/src/arm/target/bin/../arm-none-eabi/lib//libc.a(lib_a-vfiprintf.o)
__sigtramp                                        /home/src/arm/target/bin/../arm-none-eabi/lib//libc.a(lib_a-signal.o)
__sigtramp_r                                      /home/src/arm/target/bin/../arm-none-eabi/lib//libc.a(lib_a-signal.o)
__sinit                                           /home/src/arm/target/bin/../arm-none-eabi/lib//libc.a(lib_a-findfp.o)
                                                  /home/src/arm/target/bin/../arm-none-eabi/lib//libc.a(lib_a-fclose.o)
                                                  /home/src/arm/target/bin/../arm-none-eabi/lib//libc.a(lib_a-refill.o)
                                                  /home/src/arm/target/bin/../arm-none-eabi/lib//libc.a(lib_a-fputwc.o)
                                                  /home/src/arm/target/bin/../arm-none-eabi/lib//libc.a(lib_a-fflush.o)
                                                  /home/src/arm/target/bin/../arm-none-eabi/lib//libc.a(lib_a-wsetup.o)
                                                  /home/src/arm/target/bin/../arm-none-eabi/lib//libc.a(lib_a-wbuf.o)
                                                  /home/src/arm/target/bin/../arm-none-eabi/lib//libc.a(lib_a-vfprintf.o)
                                                  /home/src/arm/target/bin/../arm-none-eabi/lib//libc.a(lib_a-vfiprintf.o)
                                                  /home/src/arm/target/bin/../arm-none-eabi/lib//libc.a(lib_a-syscalls.o)
                                                  /home/src/arm/target/bin/../arm-none-eabi/lib//libc.a(lib_a-rget.o)
                                                  /home/src/arm/target/bin/../arm-none-eabi/lib//libc.a(lib_a-putc.o)
                                                  /home/src/arm/target/bin/../arm-none-eabi/lib//libc.a(lib_a-fputc.o)
__sinit_lock_acquire                              /home/src/arm/target/bin/../arm-none-eabi/lib//libc.a(lib_a-findfp.o)
__sinit_lock_release                              /home/src/arm/target/bin/../arm-none-eabi/lib//libc.a(lib_a-findfp.o)
__smakebuf_r                                      /home/src/arm/target/bin/../arm-none-eabi/lib//libc.a(lib_a-makebuf.o)
                                                  /home/src/arm/target/bin/../arm-none-eabi/lib//libc.a(lib_a-refill.o)
                                                  /home/src/arm/target/bin/../arm-none-eabi/lib//libc.a(lib_a-wsetup.o)
__sprint_r                                        /home/src/arm/target/bin/../arm-none-eabi/lib//libc.a(lib_a-vfiprintf.o)
                                                  /home/src/arm/target/bin/../arm-none-eabi/lib//libc.a(lib_a-vfprintf.o)
__sread                                           /home/src/arm/target/bin/../arm-none-eabi/lib//libc.a(lib_a-stdio.o)
                                                  /home/src/arm/target/bin/../arm-none-eabi/lib//libc.a(lib_a-findfp.o)
__srefill_r                                       /home/src/arm/target/bin/../arm-none-eabi/lib//libc.a(lib_a-refill.o)
                                                  /home/src/arm/target/bin/../arm-none-eabi/lib//libc.a(lib_a-rget.o)
__srget                                           /home/src/arm/target/bin/../arm-none-eabi/lib//libc.a(lib_a-rget.o)
__srget_r                                         /home/src/arm/target/bin/../arm-none-eabi/lib//libc.a(lib_a-rget.o)
                                                  /home/leon/git/swp-report/iMX6_Platform_SDK/output/mx6sdl/lib/libsdk.a(system_util.o)
                                                  /home/leon/git/swp-report/iMX6_Platform_SDK/output/mx6sdl/caam_blob_gen/smart_device_rev_b/obj/apps/caam_blob_gen/src/caam_blob_gen.o
__sseek                                           /home/src/arm/target/bin/../arm-none-eabi/lib//libc.a(lib_a-stdio.o)
                                                  /home/src/arm/target/bin/../arm-none-eabi/lib//libc.a(lib_a-makebuf.o)
                                                  /home/src/arm/target/bin/../arm-none-eabi/lib//libc.a(lib_a-findfp.o)
__stacks_start                                    /home/leon/git/swp-report/iMX6_Platform_SDK/output/mx6sdl/lib/libsdk.a(startup.o)
__start_boot_data                                 /home/leon/git/swp-report/iMX6_Platform_SDK/output/mx6sdl/caam_blob_gen/smart_device_rev_b/obj/apps/common/ivt.o
__subdf3                                          /home/src/arm/target/bin/../lib/gcc/arm-none-eabi/4.8.2//libgcc.a(_arm_addsubdf3.o)
__swbuf                                           /home/src/arm/target/bin/../arm-none-eabi/lib//libc.a(lib_a-wbuf.o)
__swbuf_r                                         /home/src/arm/target/bin/../arm-none-eabi/lib//libc.a(lib_a-wbuf.o)
                                                  /home/src/arm/target/bin/../arm-none-eabi/lib//libc.a(lib_a-fputwc.o)
                                                  /home/src/arm/target/bin/../arm-none-eabi/lib//libc.a(lib_a-putc.o)
__swrite                                          /home/src/arm/target/bin/../arm-none-eabi/lib//libc.a(lib_a-stdio.o)
                                                  /home/src/arm/target/bin/../arm-none-eabi/lib//libc.a(lib_a-findfp.o)
__swsetup_r                                       /home/src/arm/target/bin/../arm-none-eabi/lib//libc.a(lib_a-wsetup.o)
                                                  /home/src/arm/target/bin/../arm-none-eabi/lib//libc.a(lib_a-fvwrite.o)
                                                  /home/src/arm/target/bin/../arm-none-eabi/lib//libc.a(lib_a-wbuf.o)
                                                  /home/src/arm/target/bin/../arm-none-eabi/lib//libc.a(lib_a-vfprintf.o)
                                                  /home/src/arm/target/bin/../arm-none-eabi/lib//libc.a(lib_a-vfiprintf.o)
__udivdi3                                         /home/src/arm/target/bin/../lib/gcc/arm-none-eabi/4.8.2//libgcc.a(_udivdi3.o)
                                                  /home/src/arm/target/bin/../lib/gcc/arm-none-eabi/4.8.2//libgcc.a(bpabi.o)
__udivsi3                                         /home/src/arm/target/bin/../lib/gcc/arm-none-eabi/4.8.2//libgcc.a(_udivsi3.o)
__ulp                                             /home/src/arm/target/bin/../arm-none-eabi/lib//libc.a(lib_a-mprec.o)
__wctomb                                          /home/src/arm/target/bin/../arm-none-eabi/lib//libc.a(lib_a-wctomb_r.o)
                                                  /home/src/arm/target/bin/../arm-none-eabi/lib//libc.a(lib_a-wcrtomb.o)
_calloc_r                                         /home/src/arm/target/bin/../arm-none-eabi/lib//libc.a(lib_a-callocr.o)
                                                  /home/src/arm/target/bin/../arm-none-eabi/lib//libc.a(lib_a-mprec.o)
_cleanup                                          /home/src/arm/target/bin/../arm-none-eabi/lib//libc.a(lib_a-findfp.o)
_cleanup_r                                        /home/src/arm/target/bin/../arm-none-eabi/lib//libc.a(lib_a-findfp.o)
                                                  /home/src/arm/target/bin/../arm-none-eabi/lib//libc.a(lib_a-makebuf.o)
_close                                            /home/src/arm/target/bin/../arm-none-eabi/lib//libc.a(lib_a-syscalls.o)
                                                  /home/src/arm/target/bin/../arm-none-eabi/lib//libc.a(lib_a-closer.o)
_close_r                                          /home/src/arm/target/bin/../arm-none-eabi/lib//libc.a(lib_a-closer.o)
                                                  /home/src/arm/target/bin/../arm-none-eabi/lib//libc.a(lib_a-stdio.o)
_dtoa_r                                           /home/src/arm/target/bin/../arm-none-eabi/lib//libc.a(lib_a-dtoa.o)
                                                  /home/src/arm/target/bin/../arm-none-eabi/lib//libc.a(lib_a-vfprintf.o)
_exit                                             /home/src/arm/target/bin/../arm-none-eabi/lib//libc.a(lib_a-syscalls.o)
                                                  /home/src/arm/target/bin/../arm-none-eabi/lib//libc.a(lib_a-abort.o)
_fclose_r                                         /home/src/arm/target/bin/../arm-none-eabi/lib//libc.a(lib_a-fclose.o)
_fflush_r                                         /home/src/arm/target/bin/../arm-none-eabi/lib//libc.a(lib_a-fflush.o)
                                                  /home/src/arm/target/bin/../arm-none-eabi/lib//libc.a(lib_a-fclose.o)
                                                  /home/src/arm/target/bin/../arm-none-eabi/lib//libc.a(lib_a-refill.o)
                                                  /home/src/arm/target/bin/../arm-none-eabi/lib//libc.a(lib_a-fvwrite.o)
                                                  /home/src/arm/target/bin/../arm-none-eabi/lib//libc.a(lib_a-wbuf.o)
                                                  /home/src/arm/target/bin/../arm-none-eabi/lib//libc.a(lib_a-vfprintf.o)
                                                  /home/src/arm/target/bin/../arm-none-eabi/lib//libc.a(lib_a-vfiprintf.o)
_fini                                             /home/src/arm/target/bin/../lib/gcc/arm-none-eabi/4.8.2//crti.o
_fiprintf_r                                       /home/src/arm/target/bin/../arm-none-eabi/lib//libc.a(lib_a-fiprintf.o)
_fputc_r                                          /home/src/arm/target/bin/../arm-none-eabi/lib//libc.a(lib_a-fputc.o)
_fputwc_r                                         /home/src/arm/target/bin/../arm-none-eabi/lib//libc.a(lib_a-fputwc.o)
                                                  /home/src/arm/target/bin/../arm-none-eabi/lib//libc.a(lib_a-vfiprintf.o)
_free_r                                           /home/src/arm/target/bin/../arm-none-eabi/lib//libc.a(lib_a-freer.o)
                                                  /home/src/arm/target/bin/../arm-none-eabi/lib//libc.a(lib_a-fclose.o)
                                                  /home/src/arm/target/bin/../arm-none-eabi/lib//libc.a(lib_a-refill.o)
                                                  /home/src/arm/target/bin/../arm-none-eabi/lib//libc.a(lib_a-reent.o)
                                                  /home/src/arm/target/bin/../arm-none-eabi/lib//libc.a(lib_a-fvwrite.o)
                                                  /home/src/arm/target/bin/../arm-none-eabi/lib//libc.a(lib_a-fflush.o)
                                                  /home/src/arm/target/bin/../arm-none-eabi/lib//libc.a(lib_a-wsetup.o)
                                                  /home/src/arm/target/bin/../arm-none-eabi/lib//libc.a(lib_a-reallocr.o)
                                                  /home/src/arm/target/bin/../arm-none-eabi/lib//libc.a(lib_a-mallocr.o)
                                                  /home/src/arm/target/bin/../arm-none-eabi/lib//libc.a(lib_a-malloc.o)
_fstat                                            /home/src/arm/target/bin/../arm-none-eabi/lib//libc.a(lib_a-syscalls.o)
                                                  /home/src/arm/target/bin/../arm-none-eabi/lib//libc.a(lib_a-fstatr.o)
_fstat_r                                          /home/src/arm/target/bin/../arm-none-eabi/lib//libc.a(lib_a-fstatr.o)
                                                  /home/src/arm/target/bin/../arm-none-eabi/lib//libc.a(lib_a-makebuf.o)
_fwalk                                            /home/src/arm/target/bin/../arm-none-eabi/lib//libc.a(lib_a-fwalk.o)
                                                  /home/src/arm/target/bin/../arm-none-eabi/lib//libc.a(lib_a-refill.o)
                                                  /home/src/arm/target/bin/../arm-none-eabi/lib//libc.a(lib_a-findfp.o)
_fwalk_reent                                      /home/src/arm/target/bin/../arm-none-eabi/lib//libc.a(lib_a-fwalk.o)
                                                  /home/src/arm/target/bin/../arm-none-eabi/lib//libc.a(lib_a-fflush.o)
_getpid                                           /home/src/arm/target/bin/../arm-none-eabi/lib//libc.a(lib_a-syscalls.o)
                                                  /home/src/arm/target/bin/../arm-none-eabi/lib//libc.a(lib_a-signalr.o)
_getpid_r                                         /home/src/arm/target/bin/../arm-none-eabi/lib//libc.a(lib_a-signalr.o)
                                                  /home/src/arm/target/bin/../arm-none-eabi/lib//libc.a(lib_a-signal.o)
_gettimeofday                                     /home/src/arm/target/bin/../arm-none-eabi/lib//libc.a(lib_a-syscalls.o)
_global_impure_ptr                                /home/src/arm/target/bin/../arm-none-eabi/lib//libc.a(lib_a-impure.o)
                                                  /home/src/arm/target/bin/../arm-none-eabi/lib//libc.a(lib_a-refill.o)
                                                  /home/src/arm/target/bin/../arm-none-eabi/lib//libc.a(lib_a-findfp.o)
                                                  /home/src/arm/target/bin/../arm-none-eabi/lib//libc.a(lib_a-fflush.o)
_image_size                                       /home/leon/git/swp-report/iMX6_Platform_SDK/output/mx6sdl/caam_blob_gen/smart_device_rev_b/obj/apps/common/ivt.o
_impure_ptr                                       /home/src/arm/target/bin/../arm-none-eabi/lib//libc.a(lib_a-impure.o)
                                                  /home/src/arm/target/bin/../arm-none-eabi/lib//libc.a(lib_a-fclose.o)
                                                  /home/src/arm/target/bin/../arm-none-eabi/lib//libc.a(lib_a-wcrtomb.o)
                                                  /home/src/arm/target/bin/../arm-none-eabi/lib//libc.a(lib_a-signal.o)
                                                  /home/src/arm/target/bin/../arm-none-eabi/lib//libc.a(lib_a-reent.o)
                                                  /home/src/arm/target/bin/../arm-none-eabi/lib//libc.a(lib_a-locale.o)
                                                  /home/src/arm/target/bin/../arm-none-eabi/lib//libc.a(lib_a-fputwc.o)
                                                  /home/src/arm/target/bin/../arm-none-eabi/lib//libc.a(lib_a-findfp.o)
                                                  /home/src/arm/target/bin/../arm-none-eabi/lib//libc.a(lib_a-fflush.o)
                                                  /home/src/arm/target/bin/../arm-none-eabi/lib//libc.a(lib_a-errno.o)
                                                  /home/src/arm/target/bin/../arm-none-eabi/lib//libc.a(lib_a-wsetup.o)
                                                  /home/src/arm/target/bin/../arm-none-eabi/lib//libc.a(lib_a-wbuf.o)
                                                  /home/src/arm/target/bin/../arm-none-eabi/lib//libc.a(lib_a-vprintf.o)
                                                  /home/src/arm/target/bin/../arm-none-eabi/lib//libc.a(lib_a-vfprintf.o)
                                                  /home/src/arm/target/bin/../arm-none-eabi/lib//libc.a(lib_a-vfiprintf.o)
                                                  /home/src/arm/target/bin/../arm-none-eabi/lib//libc.a(lib_a-syscalls.o)
                                                  /home/src/arm/target/bin/../arm-none-eabi/lib//libc.a(lib_a-rget.o)
                                                  /home/src/arm/target/bin/../arm-none-eabi/lib//libc.a(lib_a-realloc.o)
                                                  /home/src/arm/target/bin/../arm-none-eabi/lib//libc.a(lib_a-putc.o)
                                                  /home/src/arm/target/bin/../arm-none-eabi/lib//libc.a(lib_a-printf.o)
                                                  /home/src/arm/target/bin/../arm-none-eabi/lib//libc.a(lib_a-malloc.o)
                                                  /home/src/arm/target/bin/../arm-none-eabi/lib//libc.a(lib_a-fputc.o)
                                                  /home/src/arm/target/bin/../arm-none-eabi/lib//libc.a(lib_a-fiprintf.o)
                                                  /home/src/arm/target/bin/../arm-none-eabi/lib//libc.a(lib_a-assert.o)
                                                  /home/leon/git/swp-report/iMX6_Platform_SDK/output/mx6sdl/lib/libsdk.a(system_util.o)
                                                  /home/leon/git/swp-report/iMX6_Platform_SDK/output/mx6sdl/caam_blob_gen/smart_device_rev_b/obj/apps/caam_blob_gen/src/caam_blob_gen.o
_init                                             /home/src/arm/target/bin/../lib/gcc/arm-none-eabi/4.8.2//crti.o
                                                  /home/src/arm/target/bin/../arm-none-eabi/lib//libc.a(lib_a-init.o)
_init_signal                                      /home/src/arm/target/bin/../arm-none-eabi/lib//libc.a(lib_a-signal.o)
_init_signal_r                                    /home/src/arm/target/bin/../arm-none-eabi/lib//libc.a(lib_a-signal.o)
_isatty                                           /home/src/arm/target/bin/../arm-none-eabi/lib//libc.a(lib_a-syscalls.o)
                                                  /home/src/arm/target/bin/../arm-none-eabi/lib//libc.a(lib_a-isattyr.o)
_isatty_r                                         /home/src/arm/target/bin/../arm-none-eabi/lib//libc.a(lib_a-isattyr.o)
                                                  /home/src/arm/target/bin/../arm-none-eabi/lib//libc.a(lib_a-makebuf.o)
_kill                                             /home/src/arm/target/bin/../arm-none-eabi/lib//libc.a(lib_a-syscalls.o)
                                                  /home/src/arm/target/bin/../arm-none-eabi/lib//libc.a(lib_a-signalr.o)
_kill_r                                           /home/src/arm/target/bin/../arm-none-eabi/lib//libc.a(lib_a-signalr.o)
                                                  /home/src/arm/target/bin/../arm-none-eabi/lib//libc.a(lib_a-signal.o)
_link                                             /home/src/arm/target/bin/../arm-none-eabi/lib//libc.a(lib_a-syscalls.o)
_localeconv_r                                     /home/src/arm/target/bin/../arm-none-eabi/lib//libc.a(lib_a-locale.o)
                                                  /home/src/arm/target/bin/../arm-none-eabi/lib//libc.a(lib_a-vfprintf.o)
_lseek                                            /home/src/arm/target/bin/../arm-none-eabi/lib//libc.a(lib_a-syscalls.o)
                                                  /home/src/arm/target/bin/../arm-none-eabi/lib//libc.a(lib_a-lseekr.o)
_lseek_r                                          /home/src/arm/target/bin/../arm-none-eabi/lib//libc.a(lib_a-lseekr.o)
                                                  /home/src/arm/target/bin/../arm-none-eabi/lib//libc.a(lib_a-stdio.o)
_malloc_r                                         /home/src/arm/target/bin/../arm-none-eabi/lib//libc.a(lib_a-mallocr.o)
                                                  /home/src/arm/target/bin/../arm-none-eabi/lib//libc.a(lib_a-callocr.o)
                                                  /home/src/arm/target/bin/../arm-none-eabi/lib//libc.a(lib_a-signal.o)
                                                  /home/src/arm/target/bin/../arm-none-eabi/lib//libc.a(lib_a-makebuf.o)
                                                  /home/src/arm/target/bin/../arm-none-eabi/lib//libc.a(lib_a-fvwrite.o)
                                                  /home/src/arm/target/bin/../arm-none-eabi/lib//libc.a(lib_a-findfp.o)
                                                  /home/src/arm/target/bin/../arm-none-eabi/lib//libc.a(lib_a-reallocr.o)
                                                  /home/src/arm/target/bin/../arm-none-eabi/lib//libc.a(lib_a-malloc.o)
_malloc_trim_r                                    /home/src/arm/target/bin/../arm-none-eabi/lib//libc.a(lib_a-freer.o)
_mprec_log10                                      /home/src/arm/target/bin/../arm-none-eabi/lib//libc.a(lib_a-mprec.o)
_open                                             /home/src/arm/target/bin/../arm-none-eabi/lib//libc.a(lib_a-syscalls.o)
_printf_r                                         /home/src/arm/target/bin/../arm-none-eabi/lib//libc.a(lib_a-printf.o)
_putc_r                                           /home/src/arm/target/bin/../arm-none-eabi/lib//libc.a(lib_a-putc.o)
                                                  /home/src/arm/target/bin/../arm-none-eabi/lib//libc.a(lib_a-fputc.o)
_raise                                            /home/src/arm/target/bin/../arm-none-eabi/lib//libc.a(lib_a-syscalls.o)
_raise_r                                          /home/src/arm/target/bin/../arm-none-eabi/lib//libc.a(lib_a-signal.o)
_read                                             /home/src/arm/target/bin/../arm-none-eabi/lib//libc.a(lib_a-syscalls.o)
                                                  /home/src/arm/target/bin/../arm-none-eabi/lib//libc.a(lib_a-readr.o)
_read_r                                           /home/src/arm/target/bin/../arm-none-eabi/lib//libc.a(lib_a-readr.o)
                                                  /home/src/arm/target/bin/../arm-none-eabi/lib//libc.a(lib_a-stdio.o)
_realloc_r                                        /home/src/arm/target/bin/../arm-none-eabi/lib//libc.a(lib_a-reallocr.o)
                                                  /home/src/arm/target/bin/../arm-none-eabi/lib//libc.a(lib_a-fvwrite.o)
                                                  /home/src/arm/target/bin/../arm-none-eabi/lib//libc.a(lib_a-realloc.o)
_reclaim_reent                                    /home/src/arm/target/bin/../arm-none-eabi/lib//libc.a(lib_a-reent.o)
_rename                                           /home/src/arm/target/bin/../arm-none-eabi/lib//libc.a(lib_a-syscalls.o)
_sbrk                                             /home/src/arm/target/bin/../arm-none-eabi/lib//libc.a(lib_a-syscalls.o)
                                                  /home/src/arm/target/bin/../arm-none-eabi/lib//libc.a(lib_a-sbrkr.o)
_sbrk_r                                           /home/src/arm/target/bin/../arm-none-eabi/lib//libc.a(lib_a-sbrkr.o)
                                                  /home/src/arm/target/bin/../arm-none-eabi/lib//libc.a(lib_a-freer.o)
                                                  /home/src/arm/target/bin/../arm-none-eabi/lib//libc.a(lib_a-mallocr.o)
_setlocale_r                                      /home/src/arm/target/bin/../arm-none-eabi/lib//libc.a(lib_a-locale.o)
_signal_r                                         /home/src/arm/target/bin/../arm-none-eabi/lib//libc.a(lib_a-signal.o)
_start                                            /home/leon/git/swp-report/iMX6_Platform_SDK/output/mx6sdl/lib/libsdk.a(startup.o)
                                                  /home/leon/git/swp-report/iMX6_Platform_SDK/output/mx6sdl/lib/libsdk.a(vectors.o)
                                                  /home/leon/git/swp-report/iMX6_Platform_SDK/output/mx6sdl/caam_blob_gen/smart_device_rev_b/obj/apps/common/ivt.o
_start_image_add                                  /home/leon/git/swp-report/iMX6_Platform_SDK/output/mx6sdl/caam_blob_gen/smart_device_rev_b/obj/apps/common/ivt.o
_stat                                             /home/src/arm/target/bin/../arm-none-eabi/lib//libc.a(lib_a-syscalls.o)
_swiclose                                         /home/src/arm/target/bin/../arm-none-eabi/lib//libc.a(lib_a-syscalls.o)
_swilseek                                         /home/src/arm/target/bin/../arm-none-eabi/lib//libc.a(lib_a-syscalls.o)
_swiopen                                          /home/src/arm/target/bin/../arm-none-eabi/lib//libc.a(lib_a-syscalls.o)
_swiread                                          /home/src/arm/target/bin/../arm-none-eabi/lib//libc.a(lib_a-syscalls.o)
_swiwrite                                         /home/src/arm/target/bin/../arm-none-eabi/lib//libc.a(lib_a-syscalls.o)
_sys_exit                                         /home/leon/git/swp-report/iMX6_Platform_SDK/output/mx6sdl/lib/libsdk.a(system_util.o)
                                                  /home/leon/git/swp-report/iMX6_Platform_SDK/output/mx6sdl/lib/libsdk.a(startup.o)
_system                                           /home/src/arm/target/bin/../arm-none-eabi/lib//libc.a(lib_a-syscalls.o)
_times                                            /home/src/arm/target/bin/../arm-none-eabi/lib//libc.a(lib_a-syscalls.o)
_unlink                                           /home/src/arm/target/bin/../arm-none-eabi/lib//libc.a(lib_a-syscalls.o)
_vfiprintf_r                                      /home/src/arm/target/bin/../arm-none-eabi/lib//libc.a(lib_a-vfiprintf.o)
                                                  /home/src/arm/target/bin/../arm-none-eabi/lib//libc.a(lib_a-fiprintf.o)
_vfprintf_r                                       /home/src/arm/target/bin/../arm-none-eabi/lib//libc.a(lib_a-vfprintf.o)
                                                  /home/src/arm/target/bin/../arm-none-eabi/lib//libc.a(lib_a-vprintf.o)
                                                  /home/src/arm/target/bin/../arm-none-eabi/lib//libc.a(lib_a-printf.o)
_vprintf_r                                        /home/src/arm/target/bin/../arm-none-eabi/lib//libc.a(lib_a-vprintf.o)
_wcrtomb_r                                        /home/src/arm/target/bin/../arm-none-eabi/lib//libc.a(lib_a-wcrtomb.o)
                                                  /home/src/arm/target/bin/../arm-none-eabi/lib//libc.a(lib_a-fputwc.o)
_wctomb_r                                         /home/src/arm/target/bin/../arm-none-eabi/lib//libc.a(lib_a-wctomb_r.o)
_write                                            /home/src/arm/target/bin/../arm-none-eabi/lib//libc.a(lib_a-syscalls.o)
                                                  /home/src/arm/target/bin/../arm-none-eabi/lib//libc.a(lib_a-writer.o)
_write_r                                          /home/src/arm/target/bin/../arm-none-eabi/lib//libc.a(lib_a-writer.o)
                                                  /home/src/arm/target/bin/../arm-none-eabi/lib//libc.a(lib_a-stdio.o)
abort                                             /home/src/arm/target/bin/../arm-none-eabi/lib//libc.a(lib_a-abort.o)
                                                  /home/src/arm/target/bin/../arm-none-eabi/lib//libc.a(lib_a-assert.o)
arm_branch_prediction_disable                     /home/leon/git/swp-report/iMX6_Platform_SDK/output/mx6sdl/lib/libsdk.a(cortexA9.o)
arm_branch_prediction_enable                      /home/leon/git/swp-report/iMX6_Platform_SDK/output/mx6sdl/lib/libsdk.a(cortexA9.o)
arm_branch_target_cache_invalidate                /home/leon/git/swp-report/iMX6_Platform_SDK/output/mx6sdl/lib/libsdk.a(cortexA9.o)
arm_branch_target_cache_invalidate_is             /home/leon/git/swp-report/iMX6_Platform_SDK/output/mx6sdl/lib/libsdk.a(cortexA9.o)
arm_iomux_config                                  /home/leon/git/swp-report/iMX6_Platform_SDK/output/mx6sdl/lib/libboard_smart_device_rev_b.a(iomux_config.o)
arm_set_interrupt_state                           /home/leon/git/swp-report/iMX6_Platform_SDK/output/mx6sdl/lib/libsdk.a(cortexA9.o)
                                                  /home/leon/git/swp-report/iMX6_Platform_SDK/output/mx6sdl/caam_blob_gen/smart_device_rev_b/obj/apps/common/platform_init.o
arm_unified_tlb_invalidate                        /home/leon/git/swp-report/iMX6_Platform_SDK/output/mx6sdl/lib/libsdk.a(cortexA9.o)
                                                  /home/leon/git/swp-report/iMX6_Platform_SDK/output/mx6sdl/lib/libsdk.a(mmu.o)
arm_unified_tlb_invalidate_is                     /home/leon/git/swp-report/iMX6_Platform_SDK/output/mx6sdl/lib/libsdk.a(cortexA9.o)
asrc_iomux_config                                 /home/leon/git/swp-report/iMX6_Platform_SDK/output/mx6sdl/lib/libboard_smart_device_rev_b.a(iomux_config.o)
audmux_iomux_config                               /home/leon/git/swp-report/iMX6_Platform_SDK/output/mx6sdl/lib/libboard_smart_device_rev_b.a(audmux_iomux_config.o)
                                                  /home/leon/git/swp-report/iMX6_Platform_SDK/output/mx6sdl/lib/libboard_smart_device_rev_b.a(iomux_config.o)
bd                                                /home/leon/git/swp-report/iMX6_Platform_SDK/output/mx6sdl/caam_blob_gen/smart_device_rev_b/obj/apps/common/ivt.o
board_ioexpander_init                             /home/leon/git/swp-report/iMX6_Platform_SDK/output/mx6sdl/lib/libboard_smart_device_rev_b.a(board_io_expanders.o)
                                                  /home/leon/git/swp-report/iMX6_Platform_SDK/output/mx6sdl/caam_blob_gen/smart_device_rev_b/obj/apps/common/platform_init.o
board_ioexpander_iomux_config                     /home/leon/git/swp-report/iMX6_Platform_SDK/output/mx6sdl/lib/libboard_smart_device_rev_b.a(board_io_expanders.o)
bzero                                             /home/src/arm/target/bin/../arm-none-eabi/lib//libc.a(lib_a-bzero.o)
                                                  /home/leon/git/swp-report/iMX6_Platform_SDK/output/mx6sdl/lib/libsdk.a(mmu.o)
caam_blob_gen                                     /home/leon/git/swp-report/iMX6_Platform_SDK/output/mx6sdl/caam_blob_gen/smart_device_rev_b/obj/apps/caam_blob_gen/src/caam_blob_gen.o
caam_decap_blob                                   /home/leon/git/swp-report/iMX6_Platform_SDK/output/mx6sdl/lib/libsdk.a(caam.o)
caam_enc_data                                     /home/leon/git/swp-report/iMX6_Platform_SDK/output/mx6sdl/lib/libsdk.a(caam.o)
caam_gen_blob                                     /home/leon/git/swp-report/iMX6_Platform_SDK/output/mx6sdl/lib/libsdk.a(caam.o)
                                                  /home/leon/git/swp-report/iMX6_Platform_SDK/output/mx6sdl/caam_blob_gen/smart_device_rev_b/obj/apps/caam_blob_gen/src/caam_blob_gen.o
caam_interrupt_routine                            /home/leon/git/swp-report/iMX6_Platform_SDK/output/mx6sdl/lib/libsdk.a(caam.o)
caam_open                                         /home/leon/git/swp-report/iMX6_Platform_SDK/output/mx6sdl/lib/libsdk.a(caam.o)
                                                  /home/leon/git/swp-report/iMX6_Platform_SDK/output/mx6sdl/caam_blob_gen/smart_device_rev_b/obj/apps/caam_blob_gen/src/caam_blob_gen.o
caam_setup_interrupt                              /home/leon/git/swp-report/iMX6_Platform_SDK/output/mx6sdl/lib/libsdk.a(caam.o)
ccm_ccgr_config                                   /home/leon/git/swp-report/iMX6_Platform_SDK/output/mx6sdl/lib/libsdk.a(ccm_pll.o)
ccm_enter_low_power                               /home/leon/git/swp-report/iMX6_Platform_SDK/output/mx6sdl/lib/libsdk.a(ccm_pll.o)
ccm_init                                          /home/leon/git/swp-report/iMX6_Platform_SDK/output/mx6sdl/lib/libsdk.a(ccm_pll.o)
                                                  /home/leon/git/swp-report/iMX6_Platform_SDK/output/mx6sdl/caam_blob_gen/smart_device_rev_b/obj/apps/common/platform_init.o
ccm_iomux_config                                  /home/leon/git/swp-report/iMX6_Platform_SDK/output/mx6sdl/lib/libboard_smart_device_rev_b.a(ccm_iomux_config.o)
                                                  /home/leon/git/swp-report/iMX6_Platform_SDK/output/mx6sdl/lib/libboard_smart_device_rev_b.a(iomux_config.o)
ccm_set_lpm_wakeup_source                         /home/leon/git/swp-report/iMX6_Platform_SDK/output/mx6sdl/lib/libsdk.a(ccm_pll.o)
cleanup_glue                                      /home/src/arm/target/bin/../arm-none-eabi/lib//libc.a(lib_a-reent.o)
clock_gating_config                               /home/leon/git/swp-report/iMX6_Platform_SDK/output/mx6sdl/lib/libsdk.a(ccm_pll.o)
                                                  /home/leon/git/swp-report/iMX6_Platform_SDK/output/mx6sdl/lib/libsdk.a(epit.o)
                                                  /home/leon/git/swp-report/iMX6_Platform_SDK/output/mx6sdl/lib/libsdk.a(imx_uart.o)
                                                  /home/leon/git/swp-report/iMX6_Platform_SDK/output/mx6sdl/lib/libsdk.a(caam.o)
common_abort_handler                              /home/leon/git/swp-report/iMX6_Platform_SDK/output/mx6sdl/lib/libsdk.a(arm_abort.o)
cpu_get_current                                   /home/leon/git/swp-report/iMX6_Platform_SDK/output/mx6sdl/lib/libsdk.a(cortexA9.o)
data_abort_handler                                /home/leon/git/swp-report/iMX6_Platform_SDK/output/mx6sdl/lib/libsdk.a(arm_abort.o)
                                                  /home/leon/git/swp-report/iMX6_Platform_SDK/output/mx6sdl/lib/libsdk.a(vectors.o)
dcic1_iomux_config                                /home/leon/git/swp-report/iMX6_Platform_SDK/output/mx6sdl/lib/libboard_smart_device_rev_b.a(iomux_config.o)
dcic2_iomux_config                                /home/leon/git/swp-report/iMX6_Platform_SDK/output/mx6sdl/lib/libboard_smart_device_rev_b.a(iomux_config.o)
decap_dsc                                         /home/leon/git/swp-report/iMX6_Platform_SDK/output/mx6sdl/lib/libsdk.a(caam.o)
default_interrupt_routine                         /home/leon/git/swp-report/iMX6_Platform_SDK/output/mx6sdl/lib/libsdk.a(interrupt.o)
disable_L1_cache                                  /home/leon/git/swp-report/iMX6_Platform_SDK/output/mx6sdl/lib/libsdk.a(cortexA9.o)
disable_interrupt                                 /home/leon/git/swp-report/iMX6_Platform_SDK/output/mx6sdl/lib/libsdk.a(interrupt.o)
                                                  /home/leon/git/swp-report/iMX6_Platform_SDK/output/mx6sdl/lib/libsdk.a(epit.o)
                                                  /home/leon/git/swp-report/iMX6_Platform_SDK/output/mx6sdl/lib/libsdk.a(imx_uart.o)
                                                  /home/leon/git/swp-report/iMX6_Platform_SDK/output/mx6sdl/lib/libsdk.a(caam.o)
disable_strict_align_check                        /home/leon/git/swp-report/iMX6_Platform_SDK/output/mx6sdl/lib/libsdk.a(cortexA9.o)
                                                  /home/leon/git/swp-report/iMX6_Platform_SDK/output/mx6sdl/caam_blob_gen/smart_device_rev_b/obj/apps/common/platform_init.o
dump_regs                                         /home/leon/git/swp-report/iMX6_Platform_SDK/output/mx6sdl/lib/libsdk.a(abort_handler.o)
                                                  /home/leon/git/swp-report/iMX6_Platform_SDK/output/mx6sdl/lib/libsdk.a(arm_abort.o)
ecspi1_iomux_config                               /home/leon/git/swp-report/iMX6_Platform_SDK/output/mx6sdl/lib/libboard_smart_device_rev_b.a(ecspi1_iomux_config.o)
                                                  /home/leon/git/swp-report/iMX6_Platform_SDK/output/mx6sdl/lib/libboard_smart_device_rev_b.a(iomux_config.o)
ecspi2_iomux_config                               /home/leon/git/swp-report/iMX6_Platform_SDK/output/mx6sdl/lib/libboard_smart_device_rev_b.a(iomux_config.o)
ecspi3_iomux_config                               /home/leon/git/swp-report/iMX6_Platform_SDK/output/mx6sdl/lib/libboard_smart_device_rev_b.a(iomux_config.o)
ecspi4_iomux_config                               /home/leon/git/swp-report/iMX6_Platform_SDK/output/mx6sdl/lib/libboard_smart_device_rev_b.a(iomux_config.o)
eim_iomux_config                                  /home/leon/git/swp-report/iMX6_Platform_SDK/output/mx6sdl/lib/libboard_smart_device_rev_b.a(iomux_config.o)
enable_interrupt                                  /home/leon/git/swp-report/iMX6_Platform_SDK/output/mx6sdl/lib/libsdk.a(interrupt.o)
                                                  /home/leon/git/swp-report/iMX6_Platform_SDK/output/mx6sdl/lib/libsdk.a(epit.o)
                                                  /home/leon/git/swp-report/iMX6_Platform_SDK/output/mx6sdl/lib/libsdk.a(imx_uart.o)
                                                  /home/leon/git/swp-report/iMX6_Platform_SDK/output/mx6sdl/lib/libsdk.a(caam.o)
enable_neon_fpu                                   /home/leon/git/swp-report/iMX6_Platform_SDK/output/mx6sdl/lib/libsdk.a(cortexA9.o)
                                                  /home/leon/git/swp-report/iMX6_Platform_SDK/output/mx6sdl/caam_blob_gen/smart_device_rev_b/obj/apps/common/platform_init.o
encap_dsc                                         /home/leon/git/swp-report/iMX6_Platform_SDK/output/mx6sdl/lib/libsdk.a(caam.o)
encrypt_dsc                                       /home/leon/git/swp-report/iMX6_Platform_SDK/output/mx6sdl/lib/libsdk.a(caam.o)
end                                               /home/src/arm/target/bin/../arm-none-eabi/lib//libc.a(lib_a-syscalls.o)
enet_iomux_config                                 /home/leon/git/swp-report/iMX6_Platform_SDK/output/mx6sdl/lib/libboard_smart_device_rev_b.a(enet_iomux_config.o)
                                                  /home/leon/git/swp-report/iMX6_Platform_SDK/output/mx6sdl/lib/libboard_smart_device_rev_b.a(iomux_config.o)
epdc_iomux_config                                 /home/leon/git/swp-report/iMX6_Platform_SDK/output/mx6sdl/lib/libboard_smart_device_rev_b.a(epdc_iomux_config.o)
                                                  /home/leon/git/swp-report/iMX6_Platform_SDK/output/mx6sdl/lib/libboard_smart_device_rev_b.a(iomux_config.o)
epit1_iomux_config                                /home/leon/git/swp-report/iMX6_Platform_SDK/output/mx6sdl/lib/libboard_smart_device_rev_b.a(iomux_config.o)
epit2_iomux_config                                /home/leon/git/swp-report/iMX6_Platform_SDK/output/mx6sdl/lib/libboard_smart_device_rev_b.a(iomux_config.o)
epit_counter_disable                              /home/leon/git/swp-report/iMX6_Platform_SDK/output/mx6sdl/lib/libsdk.a(epit.o)
                                                  /home/leon/git/swp-report/iMX6_Platform_SDK/output/mx6sdl/lib/libsdk.a(timer.o)
epit_counter_enable                               /home/leon/git/swp-report/iMX6_Platform_SDK/output/mx6sdl/lib/libsdk.a(epit.o)
                                                  /home/leon/git/swp-report/iMX6_Platform_SDK/output/mx6sdl/lib/libsdk.a(timer.o)
epit_get_compare_event                            /home/leon/git/swp-report/iMX6_Platform_SDK/output/mx6sdl/lib/libsdk.a(epit.o)
                                                  /home/leon/git/swp-report/iMX6_Platform_SDK/output/mx6sdl/lib/libsdk.a(timer.o)
epit_get_counter_value                            /home/leon/git/swp-report/iMX6_Platform_SDK/output/mx6sdl/lib/libsdk.a(epit.o)
epit_init                                         /home/leon/git/swp-report/iMX6_Platform_SDK/output/mx6sdl/lib/libsdk.a(epit.o)
                                                  /home/leon/git/swp-report/iMX6_Platform_SDK/output/mx6sdl/lib/libsdk.a(timer.o)
epit_reload_counter                               /home/leon/git/swp-report/iMX6_Platform_SDK/output/mx6sdl/lib/libsdk.a(epit.o)
epit_set_compare_event                            /home/leon/git/swp-report/iMX6_Platform_SDK/output/mx6sdl/lib/libsdk.a(epit.o)
epit_setup_interrupt                              /home/leon/git/swp-report/iMX6_Platform_SDK/output/mx6sdl/lib/libsdk.a(epit.o)
errno                                             /home/src/arm/target/bin/../arm-none-eabi/lib//libc.a(lib_a-reent.o)
                                                  /home/src/arm/target/bin/../arm-none-eabi/lib//libc.a(lib_a-readr.o)
                                                  /home/src/arm/target/bin/../arm-none-eabi/lib//libc.a(lib_a-lseekr.o)
                                                  /home/src/arm/target/bin/../arm-none-eabi/lib//libc.a(lib_a-isattyr.o)
                                                  /home/src/arm/target/bin/../arm-none-eabi/lib//libc.a(lib_a-fstatr.o)
                                                  /home/src/arm/target/bin/../arm-none-eabi/lib//libc.a(lib_a-closer.o)
                                                  /home/src/arm/target/bin/../arm-none-eabi/lib//libc.a(lib_a-writer.o)
                                                  /home/src/arm/target/bin/../arm-none-eabi/lib//libc.a(lib_a-signalr.o)
                                                  /home/src/arm/target/bin/../arm-none-eabi/lib//libc.a(lib_a-sbrkr.o)
esai_iomux_config                                 /home/leon/git/swp-report/iMX6_Platform_SDK/output/mx6sdl/lib/libboard_smart_device_rev_b.a(iomux_config.o)
exception_handler                                 /home/leon/git/swp-report/iMX6_Platform_SDK/output/mx6sdl/lib/libsdk.a(vectors.o)
fclose                                            /home/src/arm/target/bin/../arm-none-eabi/lib//libc.a(lib_a-fclose.o)
                                                  /home/src/arm/target/bin/../arm-none-eabi/lib//libc.a(lib_a-findfp.o)
fflush                                            /home/src/arm/target/bin/../arm-none-eabi/lib//libc.a(lib_a-fflush.o)
                                                  /home/src/arm/target/bin/../arm-none-eabi/lib//libc.a(lib_a-refill.o)
fiprintf                                          /home/src/arm/target/bin/../arm-none-eabi/lib//libc.a(lib_a-fiprintf.o)
                                                  /home/src/arm/target/bin/../arm-none-eabi/lib//libc.a(lib_a-assert.o)
flexcan1_iomux_config                             /home/leon/git/swp-report/iMX6_Platform_SDK/output/mx6sdl/lib/libboard_smart_device_rev_b.a(flexcan1_iomux_config.o)
                                                  /home/leon/git/swp-report/iMX6_Platform_SDK/output/mx6sdl/lib/libboard_smart_device_rev_b.a(iomux_config.o)
flexcan2_iomux_config                             /home/leon/git/swp-report/iMX6_Platform_SDK/output/mx6sdl/lib/libboard_smart_device_rev_b.a(iomux_config.o)
fputc                                             /home/src/arm/target/bin/../arm-none-eabi/lib//libc.a(lib_a-fputc.o)
                                                  /home/leon/git/swp-report/iMX6_Platform_SDK/output/mx6sdl/lib/libsdk.a(system_util.o)
fputwc                                            /home/src/arm/target/bin/../arm-none-eabi/lib//libc.a(lib_a-fputwc.o)
free                                              /home/src/arm/target/bin/../arm-none-eabi/lib//libc.a(lib_a-malloc.o)
g_TextAttributeBlink                              /home/leon/git/swp-report/iMX6_Platform_SDK/output/mx6sdl/lib/libsdk.a(text_color.o)
g_TextAttributeBold                               /home/leon/git/swp-report/iMX6_Platform_SDK/output/mx6sdl/lib/libsdk.a(text_color.o)
                                                  /home/leon/git/swp-report/iMX6_Platform_SDK/output/mx6sdl/lib/libsdk.a(system_util.o)
g_TextAttributeDefault                            /home/leon/git/swp-report/iMX6_Platform_SDK/output/mx6sdl/lib/libsdk.a(text_color.o)
g_TextAttributeDim                                /home/leon/git/swp-report/iMX6_Platform_SDK/output/mx6sdl/lib/libsdk.a(text_color.o)
g_TextAttributeHidden                             /home/leon/git/swp-report/iMX6_Platform_SDK/output/mx6sdl/lib/libsdk.a(text_color.o)
g_TextAttributeReverse                            /home/leon/git/swp-report/iMX6_Platform_SDK/output/mx6sdl/lib/libsdk.a(text_color.o)
g_TextAttributeUnderline                          /home/leon/git/swp-report/iMX6_Platform_SDK/output/mx6sdl/lib/libsdk.a(text_color.o)
g_TextColorBlack                                  /home/leon/git/swp-report/iMX6_Platform_SDK/output/mx6sdl/lib/libsdk.a(text_color.o)
g_TextColorBlue                                   /home/leon/git/swp-report/iMX6_Platform_SDK/output/mx6sdl/lib/libsdk.a(text_color.o)
g_TextColorCyan                                   /home/leon/git/swp-report/iMX6_Platform_SDK/output/mx6sdl/lib/libsdk.a(text_color.o)
g_TextColorGray                                   /home/leon/git/swp-report/iMX6_Platform_SDK/output/mx6sdl/lib/libsdk.a(text_color.o)
g_TextColorGreen                                  /home/leon/git/swp-report/iMX6_Platform_SDK/output/mx6sdl/lib/libsdk.a(text_color.o)
g_TextColorLightBlue                              /home/leon/git/swp-report/iMX6_Platform_SDK/output/mx6sdl/lib/libsdk.a(text_color.o)
g_TextColorMagenta                                /home/leon/git/swp-report/iMX6_Platform_SDK/output/mx6sdl/lib/libsdk.a(text_color.o)
g_TextColorOrange                                 /home/leon/git/swp-report/iMX6_Platform_SDK/output/mx6sdl/lib/libsdk.a(text_color.o)
g_TextColorPurple                                 /home/leon/git/swp-report/iMX6_Platform_SDK/output/mx6sdl/lib/libsdk.a(text_color.o)
g_TextColorRed                                    /home/leon/git/swp-report/iMX6_Platform_SDK/output/mx6sdl/lib/libsdk.a(text_color.o)
                                                  /home/leon/git/swp-report/iMX6_Platform_SDK/output/mx6sdl/lib/libsdk.a(system_util.o)
g_TextColorWhite                                  /home/leon/git/swp-report/iMX6_Platform_SDK/output/mx6sdl/lib/libsdk.a(text_color.o)
g_TextColorYellow                                 /home/leon/git/swp-report/iMX6_Platform_SDK/output/mx6sdl/lib/libsdk.a(text_color.o)
g_debug_uart_port                                 /home/leon/git/swp-report/iMX6_Platform_SDK/output/mx6sdl/lib/libboard_smart_device_rev_b.a(hardware_modules.o)
                                                  /home/leon/git/swp-report/iMX6_Platform_SDK/output/mx6sdl/lib/libsdk.a(system_util.o)
                                                  /home/leon/git/swp-report/iMX6_Platform_SDK/output/mx6sdl/caam_blob_gen/smart_device_rev_b/obj/apps/common/platform_init.o
g_input_ring                                      /home/leon/git/swp-report/iMX6_Platform_SDK/output/mx6sdl/lib/libsdk.a(caam.o)
g_interrupt_handlers                              /home/leon/git/swp-report/iMX6_Platform_SDK/output/mx6sdl/lib/libsdk.a(interrupt.o)
g_microsecondTimerMultiple                        /home/leon/git/swp-report/iMX6_Platform_SDK/output/mx6sdl/lib/libsdk.a(timer.o)
g_output_ring                                     /home/leon/git/swp-report/iMX6_Platform_SDK/output/mx6sdl/lib/libsdk.a(caam.o)
g_system_timer_port                               /home/leon/git/swp-report/iMX6_Platform_SDK/output/mx6sdl/lib/libboard_smart_device_rev_b.a(hardware_modules.o)
                                                  /home/leon/git/swp-report/iMX6_Platform_SDK/output/mx6sdl/lib/libsdk.a(timer.o)
g_vectNum                                         /home/leon/git/swp-report/iMX6_Platform_SDK/output/mx6sdl/lib/libsdk.a(interrupt.o)
get_arm_private_peripheral_base                   /home/leon/git/swp-report/iMX6_Platform_SDK/output/mx6sdl/lib/libsdk.a(cortexA9.o)
                                                  /home/leon/git/swp-report/iMX6_Platform_SDK/output/mx6sdl/lib/libsdk.a(gic.o)
get_color_supported                               /home/leon/git/swp-report/iMX6_Platform_SDK/output/mx6sdl/lib/libsdk.a(text_color.o)
get_input_hex                                     /home/leon/git/swp-report/iMX6_Platform_SDK/output/mx6sdl/lib/libsdk.a(system_util.o)
get_main_clock                                    /home/leon/git/swp-report/iMX6_Platform_SDK/output/mx6sdl/lib/libsdk.a(ccm_pll.o)
                                                  /home/leon/git/swp-report/iMX6_Platform_SDK/output/mx6sdl/lib/libsdk.a(timer.o)
get_peri_clock                                    /home/leon/git/swp-report/iMX6_Platform_SDK/output/mx6sdl/lib/libsdk.a(ccm_pll.o)
                                                  /home/leon/git/swp-report/iMX6_Platform_SDK/output/mx6sdl/lib/libsdk.a(imx_uart.o)
gic_cpu_enable                                    /home/leon/git/swp-report/iMX6_Platform_SDK/output/mx6sdl/lib/libsdk.a(gic.o)
gic_enable                                        /home/leon/git/swp-report/iMX6_Platform_SDK/output/mx6sdl/lib/libsdk.a(gic.o)
gic_enable_irq                                    /home/leon/git/swp-report/iMX6_Platform_SDK/output/mx6sdl/lib/libsdk.a(gic.o)
                                                  /home/leon/git/swp-report/iMX6_Platform_SDK/output/mx6sdl/lib/libsdk.a(interrupt.o)
gic_init                                          /home/leon/git/swp-report/iMX6_Platform_SDK/output/mx6sdl/lib/libsdk.a(gic.o)
                                                  /home/leon/git/swp-report/iMX6_Platform_SDK/output/mx6sdl/caam_blob_gen/smart_device_rev_b/obj/apps/common/platform_init.o
gic_init_cpu                                      /home/leon/git/swp-report/iMX6_Platform_SDK/output/mx6sdl/lib/libsdk.a(gic.o)
gic_read_irq_ack                                  /home/leon/git/swp-report/iMX6_Platform_SDK/output/mx6sdl/lib/libsdk.a(gic.o)
                                                  /home/leon/git/swp-report/iMX6_Platform_SDK/output/mx6sdl/lib/libsdk.a(interrupt.o)
gic_send_sgi                                      /home/leon/git/swp-report/iMX6_Platform_SDK/output/mx6sdl/lib/libsdk.a(gic.o)
gic_set_cpu_priority_mask                         /home/leon/git/swp-report/iMX6_Platform_SDK/output/mx6sdl/lib/libsdk.a(gic.o)
gic_set_cpu_target                                /home/leon/git/swp-report/iMX6_Platform_SDK/output/mx6sdl/lib/libsdk.a(gic.o)
                                                  /home/leon/git/swp-report/iMX6_Platform_SDK/output/mx6sdl/lib/libsdk.a(interrupt.o)
gic_set_irq_priority                              /home/leon/git/swp-report/iMX6_Platform_SDK/output/mx6sdl/lib/libsdk.a(gic.o)
                                                  /home/leon/git/swp-report/iMX6_Platform_SDK/output/mx6sdl/lib/libsdk.a(interrupt.o)
gic_set_irq_security                              /home/leon/git/swp-report/iMX6_Platform_SDK/output/mx6sdl/lib/libsdk.a(gic.o)
                                                  /home/leon/git/swp-report/iMX6_Platform_SDK/output/mx6sdl/lib/libsdk.a(interrupt.o)
gic_write_end_of_irq                              /home/leon/git/swp-report/iMX6_Platform_SDK/output/mx6sdl/lib/libsdk.a(gic.o)
                                                  /home/leon/git/swp-report/iMX6_Platform_SDK/output/mx6sdl/lib/libsdk.a(interrupt.o)
gpio1_iomux_config                                /home/leon/git/swp-report/iMX6_Platform_SDK/output/mx6sdl/lib/libboard_smart_device_rev_b.a(gpio1_iomux_config.o)
                                                  /home/leon/git/swp-report/iMX6_Platform_SDK/output/mx6sdl/lib/libboard_smart_device_rev_b.a(iomux_config.o)
gpio2_iomux_config                                /home/leon/git/swp-report/iMX6_Platform_SDK/output/mx6sdl/lib/libboard_smart_device_rev_b.a(gpio2_iomux_config.o)
                                                  /home/leon/git/swp-report/iMX6_Platform_SDK/output/mx6sdl/lib/libboard_smart_device_rev_b.a(iomux_config.o)
gpio3_iomux_config                                /home/leon/git/swp-report/iMX6_Platform_SDK/output/mx6sdl/lib/libboard_smart_device_rev_b.a(gpio3_iomux_config.o)
                                                  /home/leon/git/swp-report/iMX6_Platform_SDK/output/mx6sdl/lib/libboard_smart_device_rev_b.a(iomux_config.o)
gpio4_iomux_config                                /home/leon/git/swp-report/iMX6_Platform_SDK/output/mx6sdl/lib/libboard_smart_device_rev_b.a(gpio4_iomux_config.o)
                                                  /home/leon/git/swp-report/iMX6_Platform_SDK/output/mx6sdl/lib/libboard_smart_device_rev_b.a(iomux_config.o)
gpio5_iomux_config                                /home/leon/git/swp-report/iMX6_Platform_SDK/output/mx6sdl/lib/libboard_smart_device_rev_b.a(gpio5_iomux_config.o)
                                                  /home/leon/git/swp-report/iMX6_Platform_SDK/output/mx6sdl/lib/libboard_smart_device_rev_b.a(iomux_config.o)
gpio6_iomux_config                                /home/leon/git/swp-report/iMX6_Platform_SDK/output/mx6sdl/lib/libboard_smart_device_rev_b.a(gpio6_iomux_config.o)
                                                  /home/leon/git/swp-report/iMX6_Platform_SDK/output/mx6sdl/lib/libboard_smart_device_rev_b.a(iomux_config.o)
gpio7_iomux_config                                /home/leon/git/swp-report/iMX6_Platform_SDK/output/mx6sdl/lib/libboard_smart_device_rev_b.a(gpio7_iomux_config.o)
                                                  /home/leon/git/swp-report/iMX6_Platform_SDK/output/mx6sdl/lib/libboard_smart_device_rev_b.a(iomux_config.o)
gpmi_iomux_config                                 /home/leon/git/swp-report/iMX6_Platform_SDK/output/mx6sdl/lib/libboard_smart_device_rev_b.a(iomux_config.o)
gps_iomux_config                                  /home/leon/git/swp-report/iMX6_Platform_SDK/output/mx6sdl/lib/libboard_smart_device_rev_b.a(gps_iomux_config.o)
                                                  /home/leon/git/swp-report/iMX6_Platform_SDK/output/mx6sdl/lib/libboard_smart_device_rev_b.a(iomux_config.o)
gpt_iomux_config                                  /home/leon/git/swp-report/iMX6_Platform_SDK/output/mx6sdl/lib/libboard_smart_device_rev_b.a(iomux_config.o)
gpu_clock_config                                  /home/leon/git/swp-report/iMX6_Platform_SDK/output/mx6sdl/lib/libsdk.a(ccm_pll.o)
hal_delay_us                                      /home/leon/git/swp-report/iMX6_Platform_SDK/output/mx6sdl/lib/libsdk.a(timer.o)
hdmi_iomux_config                                 /home/leon/git/swp-report/iMX6_Platform_SDK/output/mx6sdl/lib/libboard_smart_device_rev_b.a(iomux_config.o)
i2c1_iomux_config                                 /home/leon/git/swp-report/iMX6_Platform_SDK/output/mx6sdl/lib/libboard_smart_device_rev_b.a(i2c1_iomux_config.o)
                                                  /home/leon/git/swp-report/iMX6_Platform_SDK/output/mx6sdl/lib/libboard_smart_device_rev_b.a(iomux_config.o)
i2c2_iomux_config                                 /home/leon/git/swp-report/iMX6_Platform_SDK/output/mx6sdl/lib/libboard_smart_device_rev_b.a(i2c2_iomux_config.o)
                                                  /home/leon/git/swp-report/iMX6_Platform_SDK/output/mx6sdl/lib/libboard_smart_device_rev_b.a(iomux_config.o)
i2c3_iomux_config                                 /home/leon/git/swp-report/iMX6_Platform_SDK/output/mx6sdl/lib/libboard_smart_device_rev_b.a(i2c3_iomux_config.o)
                                                  /home/leon/git/swp-report/iMX6_Platform_SDK/output/mx6sdl/lib/libboard_smart_device_rev_b.a(iomux_config.o)
i2c4_iomux_config                                 /home/leon/git/swp-report/iMX6_Platform_SDK/output/mx6sdl/lib/libboard_smart_device_rev_b.a(iomux_config.o)
initialise_monitor_handles                        /home/src/arm/target/bin/../arm-none-eabi/lib//libc.a(lib_a-syscalls.o)
input_dcd                                         /home/leon/git/swp-report/iMX6_Platform_SDK/output/mx6sdl/lib/libboard_smart_device_rev_b.a(dcd.o)
input_dcd_hdr                                     /home/leon/git/swp-report/iMX6_Platform_SDK/output/mx6sdl/lib/libboard_smart_device_rev_b.a(dcd.o)
                                                  /home/leon/git/swp-report/iMX6_Platform_SDK/output/mx6sdl/caam_blob_gen/smart_device_rev_b/obj/apps/common/ivt.o
input_dcd_wrt_cmd                                 /home/leon/git/swp-report/iMX6_Platform_SDK/output/mx6sdl/lib/libboard_smart_device_rev_b.a(dcd.o)
input_ivt                                         /home/leon/git/swp-report/iMX6_Platform_SDK/output/mx6sdl/caam_blob_gen/smart_device_rev_b/obj/apps/common/ivt.o
iomux_config                                      /home/leon/git/swp-report/iMX6_Platform_SDK/output/mx6sdl/lib/libboard_smart_device_rev_b.a(iomux_config.o)
ipu1_iomux_config                                 /home/leon/git/swp-report/iMX6_Platform_SDK/output/mx6sdl/lib/libboard_smart_device_rev_b.a(ipu1_iomux_config.o)
                                                  /home/leon/git/swp-report/iMX6_Platform_SDK/output/mx6sdl/lib/libboard_smart_device_rev_b.a(iomux_config.o)
ipu_hsp_clk_config                                /home/leon/git/swp-report/iMX6_Platform_SDK/output/mx6sdl/lib/libsdk.a(ccm_pll.o)
is_color_supported                                /home/leon/git/swp-report/iMX6_Platform_SDK/output/mx6sdl/lib/libsdk.a(text_color.o)
is_input_char                                     /home/leon/git/swp-report/iMX6_Platform_SDK/output/mx6sdl/lib/libsdk.a(system_util.o)
jump_to_sdp                                       /home/leon/git/swp-report/iMX6_Platform_SDK/output/mx6sdl/lib/libsdk.a(system_util.o)
                                                  /home/leon/git/swp-report/iMX6_Platform_SDK/output/mx6sdl/caam_blob_gen/smart_device_rev_b/obj/apps/caam_blob_gen/src/caam_blob_gen.o
kpp_iomux_config                                  /home/leon/git/swp-report/iMX6_Platform_SDK/output/mx6sdl/lib/libboard_smart_device_rev_b.a(iomux_config.o)
lcd_iomux_config                                  /home/leon/git/swp-report/iMX6_Platform_SDK/output/mx6sdl/lib/libboard_smart_device_rev_b.a(iomux_config.o)
ldb_iomux_config                                  /home/leon/git/swp-report/iMX6_Platform_SDK/output/mx6sdl/lib/libboard_smart_device_rev_b.a(iomux_config.o)
localeconv                                        /home/src/arm/target/bin/../arm-none-eabi/lib//libc.a(lib_a-locale.o)
main                                              /home/leon/git/swp-report/iMX6_Platform_SDK/output/mx6sdl/caam_blob_gen/smart_device_rev_b/obj/apps/caam_blob_gen/src/caam_blob_gen.o
                                                  /home/leon/git/swp-report/iMX6_Platform_SDK/output/mx6sdl/lib/libsdk.a(startup.o)
malloc                                            /home/src/arm/target/bin/../arm-none-eabi/lib//libc.a(lib_a-malloc.o)
                                                  /home/leon/git/swp-report/iMX6_Platform_SDK/output/mx6sdl/lib/libsdk.a(system_util.o)
max7310_i2c_req_array                             /home/leon/git/swp-report/iMX6_Platform_SDK/output/mx6sdl/lib/libboard_smart_device_rev_b.a(board_io_expanders.o)
memchr                                            /home/src/arm/target/bin/../arm-none-eabi/lib//libc.a(lib_a-memchr-stub.o)
                                                  /home/src/arm/target/bin/../arm-none-eabi/lib//libc.a(lib_a-fvwrite.o)
                                                  /home/src/arm/target/bin/../arm-none-eabi/lib//libc.a(lib_a-vfprintf.o)
                                                  /home/src/arm/target/bin/../arm-none-eabi/lib//libc.a(lib_a-vfiprintf.o)
memcpy                                            /home/src/arm/target/bin/../arm-none-eabi/lib//libc.a(lib_a-memcpy-stub.o)
                                                  /home/src/arm/target/bin/../arm-none-eabi/lib//libc.a(lib_a-mprec.o)
                                                  /home/src/arm/target/bin/../arm-none-eabi/lib//libc.a(lib_a-fvwrite.o)
                                                  /home/src/arm/target/bin/../arm-none-eabi/lib//libc.a(lib_a-dtoa.o)
                                                  /home/leon/git/swp-report/iMX6_Platform_SDK/output/mx6sdl/lib/libsdk.a(caam.o)
                                                  /home/leon/git/swp-report/iMX6_Platform_SDK/output/mx6sdl/caam_blob_gen/smart_device_rev_b/obj/apps/caam_blob_gen/src/caam_blob_gen.o
memmove                                           /home/src/arm/target/bin/../arm-none-eabi/lib//libc.a(lib_a-memmove.o)
                                                  /home/src/arm/target/bin/../arm-none-eabi/lib//libc.a(lib_a-fvwrite.o)
                                                  /home/src/arm/target/bin/../arm-none-eabi/lib//libc.a(lib_a-reallocr.o)
memset                                            /home/src/arm/target/bin/../arm-none-eabi/lib//libc.a(lib_a-memset.o)
                                                  /home/src/arm/target/bin/../arm-none-eabi/lib//libc.a(lib_a-callocr.o)
                                                  /home/src/arm/target/bin/../arm-none-eabi/lib//libc.a(lib_a-findfp.o)
                                                  /home/src/arm/target/bin/../arm-none-eabi/lib//libc.a(lib_a-syscalls.o)
                                                  /home/leon/git/swp-report/iMX6_Platform_SDK/output/mx6sdl/lib/libsdk.a(caam.o)
mipi_csi_iomux_config                             /home/leon/git/swp-report/iMX6_Platform_SDK/output/mx6sdl/lib/libboard_smart_device_rev_b.a(iomux_config.o)
mipi_dsi_iomux_config                             /home/leon/git/swp-report/iMX6_Platform_SDK/output/mx6sdl/lib/libboard_smart_device_rev_b.a(iomux_config.o)
mipi_hsi_iomux_config                             /home/leon/git/swp-report/iMX6_Platform_SDK/output/mx6sdl/lib/libboard_smart_device_rev_b.a(iomux_config.o)
mlb_iomux_config                                  /home/leon/git/swp-report/iMX6_Platform_SDK/output/mx6sdl/lib/libboard_smart_device_rev_b.a(iomux_config.o)
mmdc_iomux_config                                 /home/leon/git/swp-report/iMX6_Platform_SDK/output/mx6sdl/lib/libboard_smart_device_rev_b.a(mmdc_iomux_config.o)
                                                  /home/leon/git/swp-report/iMX6_Platform_SDK/output/mx6sdl/lib/libboard_smart_device_rev_b.a(iomux_config.o)
mmu_disable                                       /home/leon/git/swp-report/iMX6_Platform_SDK/output/mx6sdl/lib/libsdk.a(mmu.o)
mmu_enable                                        /home/leon/git/swp-report/iMX6_Platform_SDK/output/mx6sdl/lib/libsdk.a(mmu.o)
mmu_init                                          /home/leon/git/swp-report/iMX6_Platform_SDK/output/mx6sdl/lib/libsdk.a(mmu.o)
                                                  /home/leon/git/swp-report/iMX6_Platform_SDK/output/mx6sdl/caam_blob_gen/smart_device_rev_b/obj/apps/common/platform_init.o
mmu_map_l1_range                                  /home/leon/git/swp-report/iMX6_Platform_SDK/output/mx6sdl/lib/libsdk.a(mmu.o)
                                                  /home/leon/git/swp-report/iMX6_Platform_SDK/output/mx6sdl/caam_blob_gen/smart_device_rev_b/obj/apps/common/platform_init.o
mmu_virtual_to_physical                           /home/leon/git/swp-report/iMX6_Platform_SDK/output/mx6sdl/lib/libsdk.a(mmu.o)
mybkpt                                            /home/leon/git/swp-report/iMX6_Platform_SDK/output/mx6sdl/lib/libsdk.a(system_util.o)
pcie_iomux_config                                 /home/leon/git/swp-report/iMX6_Platform_SDK/output/mx6sdl/lib/libboard_smart_device_rev_b.a(iomux_config.o)
platform_init                                     /home/leon/git/swp-report/iMX6_Platform_SDK/output/mx6sdl/caam_blob_gen/smart_device_rev_b/obj/apps/common/platform_init.o
                                                  /home/leon/git/swp-report/iMX6_Platform_SDK/output/mx6sdl/caam_blob_gen/smart_device_rev_b/obj/apps/caam_blob_gen/src/caam_blob_gen.o
pmu_iomux_config                                  /home/leon/git/swp-report/iMX6_Platform_SDK/output/mx6sdl/lib/libboard_smart_device_rev_b.a(iomux_config.o)
prefetch_abort_handler                            /home/leon/git/swp-report/iMX6_Platform_SDK/output/mx6sdl/lib/libsdk.a(arm_abort.o)
                                                  /home/leon/git/swp-report/iMX6_Platform_SDK/output/mx6sdl/lib/libsdk.a(vectors.o)
printf                                            /home/src/arm/target/bin/../arm-none-eabi/lib//libc.a(lib_a-printf.o)
                                                  /home/leon/git/swp-report/iMX6_Platform_SDK/output/mx6sdl/lib/libsdk.a(abort_handler.o)
                                                  /home/leon/git/swp-report/iMX6_Platform_SDK/output/mx6sdl/lib/libsdk.a(interrupt.o)
                                                  /home/leon/git/swp-report/iMX6_Platform_SDK/output/mx6sdl/lib/libsdk.a(caam.o)
                                                  /home/leon/git/swp-report/iMX6_Platform_SDK/output/mx6sdl/lib/libsdk.a(text_color.o)
                                                  /home/leon/git/swp-report/iMX6_Platform_SDK/output/mx6sdl/lib/libsdk.a(system_util.o)
                                                  /home/leon/git/swp-report/iMX6_Platform_SDK/output/mx6sdl/caam_blob_gen/smart_device_rev_b/obj/apps/caam_blob_gen/src/caam_blob_gen.o
printf_color                                      /home/leon/git/swp-report/iMX6_Platform_SDK/output/mx6sdl/lib/libsdk.a(text_color.o)
                                                  /home/leon/git/swp-report/iMX6_Platform_SDK/output/mx6sdl/lib/libsdk.a(system_util.o)
putc                                              /home/src/arm/target/bin/../arm-none-eabi/lib//libc.a(lib_a-putc.o)
pwm1_iomux_config                                 /home/leon/git/swp-report/iMX6_Platform_SDK/output/mx6sdl/lib/libboard_smart_device_rev_b.a(pwm1_iomux_config.o)
                                                  /home/leon/git/swp-report/iMX6_Platform_SDK/output/mx6sdl/lib/libboard_smart_device_rev_b.a(iomux_config.o)
pwm2_iomux_config                                 /home/leon/git/swp-report/iMX6_Platform_SDK/output/mx6sdl/lib/libboard_smart_device_rev_b.a(iomux_config.o)
pwm3_iomux_config                                 /home/leon/git/swp-report/iMX6_Platform_SDK/output/mx6sdl/lib/libboard_smart_device_rev_b.a(iomux_config.o)
pwm4_iomux_config                                 /home/leon/git/swp-report/iMX6_Platform_SDK/output/mx6sdl/lib/libboard_smart_device_rev_b.a(iomux_config.o)
raise                                             /home/src/arm/target/bin/../arm-none-eabi/lib//libc.a(lib_a-signal.o)
                                                  /home/src/arm/target/bin/../arm-none-eabi/lib//libc.a(lib_a-abort.o)
read_input_string                                 /home/leon/git/swp-report/iMX6_Platform_SDK/output/mx6sdl/lib/libsdk.a(system_util.o)
read_int                                          /home/leon/git/swp-report/iMX6_Platform_SDK/output/mx6sdl/lib/libsdk.a(system_util.o)
realloc                                           /home/src/arm/target/bin/../arm-none-eabi/lib//libc.a(lib_a-realloc.o)
                                                  /home/leon/git/swp-report/iMX6_Platform_SDK/output/mx6sdl/lib/libsdk.a(system_util.o)
register_interrupt_routine                        /home/leon/git/swp-report/iMX6_Platform_SDK/output/mx6sdl/lib/libsdk.a(interrupt.o)
                                                  /home/leon/git/swp-report/iMX6_Platform_SDK/output/mx6sdl/lib/libsdk.a(epit.o)
                                                  /home/leon/git/swp-report/iMX6_Platform_SDK/output/mx6sdl/lib/libsdk.a(imx_uart.o)
                                                  /home/leon/git/swp-report/iMX6_Platform_SDK/output/mx6sdl/lib/libsdk.a(caam.o)
rng_inst_dsc                                      /home/leon/git/swp-report/iMX6_Platform_SDK/output/mx6sdl/lib/libsdk.a(caam.o)
scu_disable_maintenance_broadcast                 /home/leon/git/swp-report/iMX6_Platform_SDK/output/mx6sdl/lib/libsdk.a(cortexA9.o)
scu_enable                                        /home/leon/git/swp-report/iMX6_Platform_SDK/output/mx6sdl/lib/libsdk.a(cortexA9.o)
scu_enable_maintenance_broadcast                  /home/leon/git/swp-report/iMX6_Platform_SDK/output/mx6sdl/lib/libsdk.a(cortexA9.o)
scu_get_cpus_in_smp                               /home/leon/git/swp-report/iMX6_Platform_SDK/output/mx6sdl/lib/libsdk.a(cortexA9.o)
scu_join_smp                                      /home/leon/git/swp-report/iMX6_Platform_SDK/output/mx6sdl/lib/libsdk.a(cortexA9.o)
scu_leave_smp                                     /home/leon/git/swp-report/iMX6_Platform_SDK/output/mx6sdl/lib/libsdk.a(cortexA9.o)
scu_secure_invalidate                             /home/leon/git/swp-report/iMX6_Platform_SDK/output/mx6sdl/lib/libsdk.a(cortexA9.o)
sdma_iomux_config                                 /home/leon/git/swp-report/iMX6_Platform_SDK/output/mx6sdl/lib/libboard_smart_device_rev_b.a(iomux_config.o)
secmem_set_cmd                                    /home/leon/git/swp-report/iMX6_Platform_SDK/output/mx6sdl/lib/libsdk.a(caam.o)
setlocale                                         /home/src/arm/target/bin/../arm-none-eabi/lib//libc.a(lib_a-locale.o)
signal                                            /home/src/arm/target/bin/../arm-none-eabi/lib//libc.a(lib_a-signal.o)
sjc_iomux_config                                  /home/leon/git/swp-report/iMX6_Platform_SDK/output/mx6sdl/lib/libboard_smart_device_rev_b.a(sjc_iomux_config.o)
                                                  /home/leon/git/swp-report/iMX6_Platform_SDK/output/mx6sdl/lib/libboard_smart_device_rev_b.a(iomux_config.o)
snvs_iomux_config                                 /home/leon/git/swp-report/iMX6_Platform_SDK/output/mx6sdl/lib/libboard_smart_device_rev_b.a(iomux_config.o)
spdif_iomux_config                                /home/leon/git/swp-report/iMX6_Platform_SDK/output/mx6sdl/lib/libboard_smart_device_rev_b.a(iomux_config.o)
src_iomux_config                                  /home/leon/git/swp-report/iMX6_Platform_SDK/output/mx6sdl/lib/libboard_smart_device_rev_b.a(iomux_config.o)
strcmp                                            /home/src/arm/target/bin/../arm-none-eabi/lib//libc.a(lib_a-strcmp.o)
                                                  /home/src/arm/target/bin/../arm-none-eabi/lib//libc.a(lib_a-locale.o)
strlen                                            /home/src/arm/target/bin/../arm-none-eabi/lib//libc.a(lib_a-strlen.o)
                                                  /home/src/arm/target/bin/../arm-none-eabi/lib//libc.a(lib_a-vfprintf.o)
                                                  /home/src/arm/target/bin/../arm-none-eabi/lib//libc.a(lib_a-vfiprintf.o)
                                                  /home/src/arm/target/bin/../arm-none-eabi/lib//libc.a(lib_a-syscalls.o)
system_time_init                                  /home/leon/git/swp-report/iMX6_Platform_SDK/output/mx6sdl/lib/libsdk.a(timer.o)
                                                  /home/leon/git/swp-report/iMX6_Platform_SDK/output/mx6sdl/caam_blob_gen/smart_device_rev_b/obj/apps/common/platform_init.o
time_get_microseconds                             /home/leon/git/swp-report/iMX6_Platform_SDK/output/mx6sdl/lib/libsdk.a(timer.o)
top_of_stacks                                     /home/leon/git/swp-report/iMX6_Platform_SDK/output/mx6sdl/lib/libsdk.a(startup.o)
uart1_iomux_config                                /home/leon/git/swp-report/iMX6_Platform_SDK/output/mx6sdl/lib/libboard_smart_device_rev_b.a(uart1_iomux_config.o)
                                                  /home/leon/git/swp-report/iMX6_Platform_SDK/output/mx6sdl/lib/libboard_smart_device_rev_b.a(iomux_config.o)
                                                  /home/leon/git/swp-report/iMX6_Platform_SDK/output/mx6sdl/lib/libboard_smart_device_rev_b.a(uart_iomux_config.o)
uart2_iomux_config                                /home/leon/git/swp-report/iMX6_Platform_SDK/output/mx6sdl/lib/libboard_smart_device_rev_b.a(iomux_config.o)
                                                  /home/leon/git/swp-report/iMX6_Platform_SDK/output/mx6sdl/lib/libboard_smart_device_rev_b.a(uart_iomux_config.o)
uart3_iomux_config                                /home/leon/git/swp-report/iMX6_Platform_SDK/output/mx6sdl/lib/libboard_smart_device_rev_b.a(iomux_config.o)
                                                  /home/leon/git/swp-report/iMX6_Platform_SDK/output/mx6sdl/lib/libboard_smart_device_rev_b.a(uart_iomux_config.o)
uart4_iomux_config                                /home/leon/git/swp-report/iMX6_Platform_SDK/output/mx6sdl/lib/libboard_smart_device_rev_b.a(iomux_config.o)
                                                  /home/leon/git/swp-report/iMX6_Platform_SDK/output/mx6sdl/lib/libboard_smart_device_rev_b.a(uart_iomux_config.o)
uart5_iomux_config                                /home/leon/git/swp-report/iMX6_Platform_SDK/output/mx6sdl/lib/libboard_smart_device_rev_b.a(iomux_config.o)
                                                  /home/leon/git/swp-report/iMX6_Platform_SDK/output/mx6sdl/lib/libboard_smart_device_rev_b.a(uart_iomux_config.o)
uart_get_reffreq                                  /home/leon/git/swp-report/iMX6_Platform_SDK/output/mx6sdl/lib/libsdk.a(imx_uart.o)
uart_getchar                                      /home/leon/git/swp-report/iMX6_Platform_SDK/output/mx6sdl/lib/libsdk.a(imx_uart.o)
                                                  /home/leon/git/swp-report/iMX6_Platform_SDK/output/mx6sdl/lib/libsdk.a(system_util.o)
                                                  /home/leon/git/swp-report/iMX6_Platform_SDK/output/mx6sdl/caam_blob_gen/smart_device_rev_b/obj/apps/common/platform_init.o
uart_init                                         /home/leon/git/swp-report/iMX6_Platform_SDK/output/mx6sdl/lib/libsdk.a(imx_uart.o)
                                                  /home/leon/git/swp-report/iMX6_Platform_SDK/output/mx6sdl/caam_blob_gen/smart_device_rev_b/obj/apps/common/platform_init.o
uart_iomux_config                                 /home/leon/git/swp-report/iMX6_Platform_SDK/output/mx6sdl/lib/libboard_smart_device_rev_b.a(uart_iomux_config.o)
                                                  /home/leon/git/swp-report/iMX6_Platform_SDK/output/mx6sdl/lib/libsdk.a(imx_uart.o)
uart_putchar                                      /home/leon/git/swp-report/iMX6_Platform_SDK/output/mx6sdl/lib/libsdk.a(imx_uart.o)
uart_set_FIFO_mode                                /home/leon/git/swp-report/iMX6_Platform_SDK/output/mx6sdl/lib/libsdk.a(imx_uart.o)
uart_set_loopback_mode                            /home/leon/git/swp-report/iMX6_Platform_SDK/output/mx6sdl/lib/libsdk.a(imx_uart.o)
uart_setup_interrupt                              /home/leon/git/swp-report/iMX6_Platform_SDK/output/mx6sdl/lib/libsdk.a(imx_uart.o)
usb_iomux_config                                  /home/leon/git/swp-report/iMX6_Platform_SDK/output/mx6sdl/lib/libboard_smart_device_rev_b.a(usb_iomux_config.o)
                                                  /home/leon/git/swp-report/iMX6_Platform_SDK/output/mx6sdl/lib/libboard_smart_device_rev_b.a(iomux_config.o)
usdhc1_iomux_config                               /home/leon/git/swp-report/iMX6_Platform_SDK/output/mx6sdl/lib/libboard_smart_device_rev_b.a(iomux_config.o)
usdhc2_iomux_config                               /home/leon/git/swp-report/iMX6_Platform_SDK/output/mx6sdl/lib/libboard_smart_device_rev_b.a(usdhc2_iomux_config.o)
                                                  /home/leon/git/swp-report/iMX6_Platform_SDK/output/mx6sdl/lib/libboard_smart_device_rev_b.a(iomux_config.o)
usdhc3_iomux_config                               /home/leon/git/swp-report/iMX6_Platform_SDK/output/mx6sdl/lib/libboard_smart_device_rev_b.a(usdhc3_iomux_config.o)
                                                  /home/leon/git/swp-report/iMX6_Platform_SDK/output/mx6sdl/lib/libboard_smart_device_rev_b.a(iomux_config.o)
usdhc4_iomux_config                               /home/leon/git/swp-report/iMX6_Platform_SDK/output/mx6sdl/lib/libboard_smart_device_rev_b.a(usdhc4_iomux_config.o)
                                                  /home/leon/git/swp-report/iMX6_Platform_SDK/output/mx6sdl/lib/libboard_smart_device_rev_b.a(iomux_config.o)
vectors                                           /home/leon/git/swp-report/iMX6_Platform_SDK/output/mx6sdl/lib/libsdk.a(vectors.o)
                                                  /home/leon/git/swp-report/iMX6_Platform_SDK/output/mx6sdl/lib/libsdk.a(startup.o)
vfiprintf                                         /home/src/arm/target/bin/../arm-none-eabi/lib//libc.a(lib_a-vfiprintf.o)
vfprintf                                          /home/src/arm/target/bin/../arm-none-eabi/lib//libc.a(lib_a-vfprintf.o)
vprintf                                           /home/src/arm/target/bin/../arm-none-eabi/lib//libc.a(lib_a-vprintf.o)
                                                  /home/leon/git/swp-report/iMX6_Platform_SDK/output/mx6sdl/lib/libsdk.a(text_color.o)
wcrtomb                                           /home/src/arm/target/bin/../arm-none-eabi/lib//libc.a(lib_a-wcrtomb.o)
wdog1_iomux_config                                /home/leon/git/swp-report/iMX6_Platform_SDK/output/mx6sdl/lib/libboard_smart_device_rev_b.a(iomux_config.o)
wdog2_iomux_config                                /home/leon/git/swp-report/iMX6_Platform_SDK/output/mx6sdl/lib/libboard_smart_device_rev_b.a(iomux_config.o)
wrapped_key_hdr                                   /home/leon/git/swp-report/iMX6_Platform_SDK/output/mx6sdl/caam_blob_gen/smart_device_rev_b/obj/apps/caam_blob_gen/src/caam_blob_gen.o
xtalosc_iomux_config                              /home/leon/git/swp-report/iMX6_Platform_SDK/output/mx6sdl/lib/libboard_smart_device_rev_b.a(iomux_config.o)
