Archive member included because of file (symbol)

/home/leon/git/swp-report/iMX6_Platform_SDK/output/mx6dq/lib/libsdk.a(ccm_pll.o)
                              /home/leon/git/swp-report/iMX6_Platform_SDK/output/mx6dq/sdk_unit_test/smart_device_rev_a/obj/apps/common/platform_init.o (ccm_init)
/home/leon/git/swp-report/iMX6_Platform_SDK/output/mx6dq/lib/libsdk.a(cortexA9.o)
                              /home/leon/git/swp-report/iMX6_Platform_SDK/output/mx6dq/sdk_unit_test/smart_device_rev_a/obj/apps/common/platform_init.o (arm_set_interrupt_state)
/home/leon/git/swp-report/iMX6_Platform_SDK/output/mx6dq/lib/libsdk.a(gic.o)
                              /home/leon/git/swp-report/iMX6_Platform_SDK/output/mx6dq/sdk_unit_test/smart_device_rev_a/obj/apps/common/platform_init.o (gic_init)
/home/leon/git/swp-report/iMX6_Platform_SDK/output/mx6dq/lib/libsdk.a(mmu.o)
                              /home/leon/git/swp-report/iMX6_Platform_SDK/output/mx6dq/sdk_unit_test/smart_device_rev_a/obj/apps/common/platform_init.o (mmu_init)
/home/leon/git/swp-report/iMX6_Platform_SDK/output/mx6dq/lib/libsdk.a(startup.o)
                              (_start)
/home/leon/git/swp-report/iMX6_Platform_SDK/output/mx6dq/lib/libsdk.a(vectors.o)
                              /home/leon/git/swp-report/iMX6_Platform_SDK/output/mx6dq/lib/libsdk.a(startup.o) (vectors)
/home/leon/git/swp-report/iMX6_Platform_SDK/output/mx6dq/lib/libsdk.a(menu.o)
                              /home/leon/git/swp-report/iMX6_Platform_SDK/output/mx6dq/sdk_unit_test/smart_device_rev_a/obj/apps/sdk_unit_test/src/all_test.o (menuitem_cmd_exitmenu)
/home/leon/git/swp-report/iMX6_Platform_SDK/output/mx6dq/lib/libsdk.a(sdk_version.o)
                              /home/leon/git/swp-report/iMX6_Platform_SDK/output/mx6dq/sdk_unit_test/smart_device_rev_a/obj/apps/common/print_version.o (k_sdk_version)
/home/leon/git/swp-report/iMX6_Platform_SDK/output/mx6dq/lib/libsdk.a(system_util.o)
                              /home/leon/git/swp-report/iMX6_Platform_SDK/output/mx6dq/lib/libsdk.a(startup.o) (_sys_exit)
/home/leon/git/swp-report/iMX6_Platform_SDK/output/mx6dq/lib/libsdk.a(text_color.o)
                              /home/leon/git/swp-report/iMX6_Platform_SDK/output/mx6dq/lib/libsdk.a(menu.o) (g_TextAttributeDefault)
/home/leon/git/swp-report/iMX6_Platform_SDK/output/mx6dq/lib/libsdk.a(board_id.o)
                              /home/leon/git/swp-report/iMX6_Platform_SDK/output/mx6dq/sdk_unit_test/smart_device_rev_a/obj/apps/common/print_version.o (chip_name)
/home/leon/git/swp-report/iMX6_Platform_SDK/output/mx6dq/lib/libsdk.a(timer.o)
                              /home/leon/git/swp-report/iMX6_Platform_SDK/output/mx6dq/sdk_unit_test/smart_device_rev_a/obj/apps/common/platform_init.o (system_time_init)
/home/leon/git/swp-report/iMX6_Platform_SDK/output/mx6dq/lib/libsdk.a(imx_uart.o)
                              /home/leon/git/swp-report/iMX6_Platform_SDK/output/mx6dq/sdk_unit_test/smart_device_rev_a/obj/apps/common/platform_init.o (uart_getchar)
/home/leon/git/swp-report/iMX6_Platform_SDK/output/mx6dq/lib/libsdk.a(arm_abort.o)
                              /home/leon/git/swp-report/iMX6_Platform_SDK/output/mx6dq/lib/libsdk.a(vectors.o) (data_abort_handler)
/home/leon/git/swp-report/iMX6_Platform_SDK/output/mx6dq/lib/libsdk.a(interrupt.o)
                              /home/leon/git/swp-report/iMX6_Platform_SDK/output/mx6dq/lib/libsdk.a(vectors.o) (IRQ_HDLR)
/home/leon/git/swp-report/iMX6_Platform_SDK/output/mx6dq/lib/libsdk.a(epit.o)
                              /home/leon/git/swp-report/iMX6_Platform_SDK/output/mx6dq/lib/libsdk.a(timer.o) (epit_get_compare_event)
/home/leon/git/swp-report/iMX6_Platform_SDK/output/mx6dq/lib/libsdk.a(abort_handler.o)
                              /home/leon/git/swp-report/iMX6_Platform_SDK/output/mx6dq/lib/libsdk.a(arm_abort.o) (dump_regs)
/home/leon/git/swp-report/iMX6_Platform_SDK/output/mx6dq/lib/libboard_smart_device_rev_a.a(board_io_expanders.o)
                              /home/leon/git/swp-report/iMX6_Platform_SDK/output/mx6dq/sdk_unit_test/smart_device_rev_a/obj/apps/common/platform_init.o (board_ioexpander_init)
/home/leon/git/swp-report/iMX6_Platform_SDK/output/mx6dq/lib/libboard_smart_device_rev_a.a(hardware_modules.o)
                              /home/leon/git/swp-report/iMX6_Platform_SDK/output/mx6dq/sdk_unit_test/smart_device_rev_a/obj/apps/common/platform_init.o (g_debug_uart_port)
/home/leon/git/swp-report/iMX6_Platform_SDK/output/mx6dq/lib/libboard_smart_device_rev_a.a(dcd.o)
                              /home/leon/git/swp-report/iMX6_Platform_SDK/output/mx6dq/sdk_unit_test/smart_device_rev_a/obj/apps/common/ivt.o (input_dcd_hdr)
/home/leon/git/swp-report/iMX6_Platform_SDK/output/mx6dq/lib/libboard_smart_device_rev_a.a(uart_iomux_config.o)
                              /home/leon/git/swp-report/iMX6_Platform_SDK/output/mx6dq/lib/libsdk.a(imx_uart.o) (uart_iomux_config)
/home/leon/git/swp-report/iMX6_Platform_SDK/output/mx6dq/lib/libboard_smart_device_rev_a.a(iomux_config.o)
                              /home/leon/git/swp-report/iMX6_Platform_SDK/output/mx6dq/lib/libboard_smart_device_rev_a.a(uart_iomux_config.o) (uart2_iomux_config)
/home/leon/git/swp-report/iMX6_Platform_SDK/output/mx6dq/lib/libboard_smart_device_rev_a.a(ipu1_iomux_config.o)
                              /home/leon/git/swp-report/iMX6_Platform_SDK/output/mx6dq/lib/libboard_smart_device_rev_a.a(iomux_config.o) (ipu1_iomux_config)
/home/leon/git/swp-report/iMX6_Platform_SDK/output/mx6dq/lib/libboard_smart_device_rev_a.a(kpp_iomux_config.o)
                              /home/leon/git/swp-report/iMX6_Platform_SDK/output/mx6dq/lib/libboard_smart_device_rev_a.a(iomux_config.o) (kpp_iomux_config)
/home/leon/git/swp-report/iMX6_Platform_SDK/output/mx6dq/lib/libboard_smart_device_rev_a.a(mmdc_iomux_config.o)
                              /home/leon/git/swp-report/iMX6_Platform_SDK/output/mx6dq/lib/libboard_smart_device_rev_a.a(iomux_config.o) (mmdc_iomux_config)
/home/leon/git/swp-report/iMX6_Platform_SDK/output/mx6dq/lib/libboard_smart_device_rev_a.a(pwm1_iomux_config.o)
                              /home/leon/git/swp-report/iMX6_Platform_SDK/output/mx6dq/lib/libboard_smart_device_rev_a.a(iomux_config.o) (pwm1_iomux_config)
/home/leon/git/swp-report/iMX6_Platform_SDK/output/mx6dq/lib/libboard_smart_device_rev_a.a(sjc_iomux_config.o)
                              /home/leon/git/swp-report/iMX6_Platform_SDK/output/mx6dq/lib/libboard_smart_device_rev_a.a(iomux_config.o) (sjc_iomux_config)
/home/leon/git/swp-report/iMX6_Platform_SDK/output/mx6dq/lib/libboard_smart_device_rev_a.a(uart1_iomux_config.o)
                              /home/leon/git/swp-report/iMX6_Platform_SDK/output/mx6dq/lib/libboard_smart_device_rev_a.a(uart_iomux_config.o) (uart1_iomux_config)
/home/leon/git/swp-report/iMX6_Platform_SDK/output/mx6dq/lib/libboard_smart_device_rev_a.a(usdhc2_iomux_config.o)
                              /home/leon/git/swp-report/iMX6_Platform_SDK/output/mx6dq/lib/libboard_smart_device_rev_a.a(iomux_config.o) (usdhc2_iomux_config)
/home/leon/git/swp-report/iMX6_Platform_SDK/output/mx6dq/lib/libboard_smart_device_rev_a.a(usdhc3_iomux_config.o)
                              /home/leon/git/swp-report/iMX6_Platform_SDK/output/mx6dq/lib/libboard_smart_device_rev_a.a(iomux_config.o) (usdhc3_iomux_config)
/home/leon/git/swp-report/iMX6_Platform_SDK/output/mx6dq/lib/libboard_smart_device_rev_a.a(usdhc4_iomux_config.o)
                              /home/leon/git/swp-report/iMX6_Platform_SDK/output/mx6dq/lib/libboard_smart_device_rev_a.a(iomux_config.o) (usdhc4_iomux_config)
/home/leon/git/swp-report/iMX6_Platform_SDK/output/mx6dq/lib/libboard_smart_device_rev_a.a(audmux_iomux_config.o)
                              /home/leon/git/swp-report/iMX6_Platform_SDK/output/mx6dq/lib/libboard_smart_device_rev_a.a(iomux_config.o) (audmux_iomux_config)
/home/leon/git/swp-report/iMX6_Platform_SDK/output/mx6dq/lib/libboard_smart_device_rev_a.a(ccm_iomux_config.o)
                              /home/leon/git/swp-report/iMX6_Platform_SDK/output/mx6dq/lib/libboard_smart_device_rev_a.a(iomux_config.o) (ccm_iomux_config)
/home/leon/git/swp-report/iMX6_Platform_SDK/output/mx6dq/lib/libboard_smart_device_rev_a.a(ecspi1_iomux_config.o)
                              /home/leon/git/swp-report/iMX6_Platform_SDK/output/mx6dq/lib/libboard_smart_device_rev_a.a(iomux_config.o) (ecspi1_iomux_config)
/home/leon/git/swp-report/iMX6_Platform_SDK/output/mx6dq/lib/libboard_smart_device_rev_a.a(enet_iomux_config.o)
                              /home/leon/git/swp-report/iMX6_Platform_SDK/output/mx6dq/lib/libboard_smart_device_rev_a.a(iomux_config.o) (enet_iomux_config)
/home/leon/git/swp-report/iMX6_Platform_SDK/output/mx6dq/lib/libboard_smart_device_rev_a.a(flexcan1_iomux_config.o)
                              /home/leon/git/swp-report/iMX6_Platform_SDK/output/mx6dq/lib/libboard_smart_device_rev_a.a(iomux_config.o) (flexcan1_iomux_config)
/home/leon/git/swp-report/iMX6_Platform_SDK/output/mx6dq/lib/libboard_smart_device_rev_a.a(gpio1_iomux_config.o)
                              /home/leon/git/swp-report/iMX6_Platform_SDK/output/mx6dq/lib/libboard_smart_device_rev_a.a(iomux_config.o) (gpio1_iomux_config)
/home/leon/git/swp-report/iMX6_Platform_SDK/output/mx6dq/lib/libboard_smart_device_rev_a.a(gpio2_iomux_config.o)
                              /home/leon/git/swp-report/iMX6_Platform_SDK/output/mx6dq/lib/libboard_smart_device_rev_a.a(iomux_config.o) (gpio2_iomux_config)
/home/leon/git/swp-report/iMX6_Platform_SDK/output/mx6dq/lib/libboard_smart_device_rev_a.a(gpio3_iomux_config.o)
                              /home/leon/git/swp-report/iMX6_Platform_SDK/output/mx6dq/lib/libboard_smart_device_rev_a.a(iomux_config.o) (gpio3_iomux_config)
/home/leon/git/swp-report/iMX6_Platform_SDK/output/mx6dq/lib/libboard_smart_device_rev_a.a(gpio4_iomux_config.o)
                              /home/leon/git/swp-report/iMX6_Platform_SDK/output/mx6dq/lib/libboard_smart_device_rev_a.a(iomux_config.o) (gpio4_iomux_config)
/home/leon/git/swp-report/iMX6_Platform_SDK/output/mx6dq/lib/libboard_smart_device_rev_a.a(gpio5_iomux_config.o)
                              /home/leon/git/swp-report/iMX6_Platform_SDK/output/mx6dq/lib/libboard_smart_device_rev_a.a(iomux_config.o) (gpio5_iomux_config)
/home/leon/git/swp-report/iMX6_Platform_SDK/output/mx6dq/lib/libboard_smart_device_rev_a.a(gpio6_iomux_config.o)
                              /home/leon/git/swp-report/iMX6_Platform_SDK/output/mx6dq/lib/libboard_smart_device_rev_a.a(iomux_config.o) (gpio6_iomux_config)
/home/leon/git/swp-report/iMX6_Platform_SDK/output/mx6dq/lib/libboard_smart_device_rev_a.a(gpio7_iomux_config.o)
                              /home/leon/git/swp-report/iMX6_Platform_SDK/output/mx6dq/lib/libboard_smart_device_rev_a.a(iomux_config.o) (gpio7_iomux_config)
/home/leon/git/swp-report/iMX6_Platform_SDK/output/mx6dq/lib/libboard_smart_device_rev_a.a(gps_iomux_config.o)
                              /home/leon/git/swp-report/iMX6_Platform_SDK/output/mx6dq/lib/libboard_smart_device_rev_a.a(iomux_config.o) (gps_iomux_config)
/home/leon/git/swp-report/iMX6_Platform_SDK/output/mx6dq/lib/libboard_smart_device_rev_a.a(i2c1_iomux_config.o)
                              /home/leon/git/swp-report/iMX6_Platform_SDK/output/mx6dq/lib/libboard_smart_device_rev_a.a(iomux_config.o) (i2c1_iomux_config)
/home/leon/git/swp-report/iMX6_Platform_SDK/output/mx6dq/lib/libboard_smart_device_rev_a.a(i2c2_iomux_config.o)
                              /home/leon/git/swp-report/iMX6_Platform_SDK/output/mx6dq/lib/libboard_smart_device_rev_a.a(iomux_config.o) (i2c2_iomux_config)
/home/leon/git/swp-report/iMX6_Platform_SDK/output/mx6dq/lib/libboard_smart_device_rev_a.a(i2c3_iomux_config.o)
                              /home/leon/git/swp-report/iMX6_Platform_SDK/output/mx6dq/lib/libboard_smart_device_rev_a.a(iomux_config.o) (i2c3_iomux_config)
/home/leon/git/swp-report/iMX6_Platform_SDK/output/mx6dq/sdk_unit_test/smart_device_rev_a/libsdk_unit_test.a(cpu_wp_test.o)
                              /home/leon/git/swp-report/iMX6_Platform_SDK/output/mx6dq/sdk_unit_test/smart_device_rev_a/obj/apps/sdk_unit_test/src/all_test.o (cpu_wp_test)
/home/leon/git/swp-report/iMX6_Platform_SDK/output/mx6dq/sdk_unit_test/smart_device_rev_a/libsdk_unit_test.a(multicore_test.o)
                              /home/leon/git/swp-report/iMX6_Platform_SDK/output/mx6dq/sdk_unit_test/smart_device_rev_a/obj/apps/sdk_unit_test/src/all_test.o (multicore_test)
/home/leon/git/swp-report/iMX6_Platform_SDK/output/mx6dq/sdk_unit_test/smart_device_rev_a/libsdk_unit_test.a(audio_test.o)
                              /home/leon/git/swp-report/iMX6_Platform_SDK/output/mx6dq/sdk_unit_test/smart_device_rev_a/obj/apps/sdk_unit_test/src/all_test.o (audio_test)
/home/leon/git/swp-report/iMX6_Platform_SDK/output/mx6dq/sdk_unit_test/smart_device_rev_a/libsdk_unit_test.a(wav_file.o)
                              /home/leon/git/swp-report/iMX6_Platform_SDK/output/mx6dq/sdk_unit_test/smart_device_rev_a/libsdk_unit_test.a(audio_test.o) (wavefile_start)
/home/leon/git/swp-report/iMX6_Platform_SDK/output/mx6dq/sdk_unit_test/smart_device_rev_a/libsdk_unit_test.a(gic_test.o)
                              /home/leon/git/swp-report/iMX6_Platform_SDK/output/mx6dq/sdk_unit_test/smart_device_rev_a/obj/apps/sdk_unit_test/src/all_test.o (gic_test)
/home/leon/git/swp-report/iMX6_Platform_SDK/output/mx6dq/sdk_unit_test/smart_device_rev_a/libsdk_unit_test.a(ocotp_test.o)
                              /home/leon/git/swp-report/iMX6_Platform_SDK/output/mx6dq/sdk_unit_test/smart_device_rev_a/obj/apps/sdk_unit_test/src/all_test.o (ocotp_test)
/home/leon/git/swp-report/iMX6_Platform_SDK/output/mx6dq/sdk_unit_test/smart_device_rev_a/libsdk_unit_test.a(i2c_test.o)
                              /home/leon/git/swp-report/iMX6_Platform_SDK/output/mx6dq/sdk_unit_test/smart_device_rev_a/obj/apps/sdk_unit_test/src/all_test.o (i2c_test)
/home/leon/git/swp-report/iMX6_Platform_SDK/output/mx6dq/sdk_unit_test/smart_device_rev_a/libsdk_unit_test.a(imx6_i2c_device.o)
                              /home/leon/git/swp-report/iMX6_Platform_SDK/output/mx6dq/sdk_unit_test/smart_device_rev_a/libsdk_unit_test.a(i2c_test.o) (i2c_imx6_slave_test)
/home/leon/git/swp-report/iMX6_Platform_SDK/output/mx6dq/sdk_unit_test/smart_device_rev_a/libsdk_unit_test.a(snvs_rtc_test.o)
                              /home/leon/git/swp-report/iMX6_Platform_SDK/output/mx6dq/sdk_unit_test/smart_device_rev_a/obj/apps/sdk_unit_test/src/all_test.o (snvs_rtc_test)
/home/leon/git/swp-report/iMX6_Platform_SDK/output/mx6dq/sdk_unit_test/smart_device_rev_a/libsdk_unit_test.a(snvs_srtc_test.o)
                              /home/leon/git/swp-report/iMX6_Platform_SDK/output/mx6dq/sdk_unit_test/smart_device_rev_a/obj/apps/sdk_unit_test/src/all_test.o (snvs_srtc_test)
/home/leon/git/swp-report/iMX6_Platform_SDK/output/mx6dq/sdk_unit_test/smart_device_rev_a/libsdk_unit_test.a(tempmon_test.o)
                              /home/leon/git/swp-report/iMX6_Platform_SDK/output/mx6dq/sdk_unit_test/smart_device_rev_a/obj/apps/sdk_unit_test/src/all_test.o (tempmon_test)
/home/leon/git/swp-report/iMX6_Platform_SDK/output/mx6dq/sdk_unit_test/smart_device_rev_a/libsdk_unit_test.a(sdma_test.o)
                              /home/leon/git/swp-report/iMX6_Platform_SDK/output/mx6dq/sdk_unit_test/smart_device_rev_a/obj/apps/sdk_unit_test/src/all_test.o (sdma_test)
/home/leon/git/swp-report/iMX6_Platform_SDK/output/mx6dq/sdk_unit_test/smart_device_rev_a/libsdk_unit_test.a(spi_lpb.o)
                              /home/leon/git/swp-report/iMX6_Platform_SDK/output/mx6dq/sdk_unit_test/smart_device_rev_a/libsdk_unit_test.a(sdma_test.o) (ecspi_shp_test)
/home/leon/git/swp-report/iMX6_Platform_SDK/output/mx6dq/sdk_unit_test/smart_device_rev_a/libsdk_unit_test.a(uart_loopback.o)
                              /home/leon/git/swp-report/iMX6_Platform_SDK/output/mx6dq/sdk_unit_test/smart_device_rev_a/libsdk_unit_test.a(sdma_test.o) (uart_app_test)
/home/leon/git/swp-report/iMX6_Platform_SDK/output/mx6dq/sdk_unit_test/smart_device_rev_a/libsdk_unit_test.a(uart_test.o)
                              /home/leon/git/swp-report/iMX6_Platform_SDK/output/mx6dq/sdk_unit_test/smart_device_rev_a/obj/apps/sdk_unit_test/src/all_test.o (uart_test)
/home/leon/git/swp-report/iMX6_Platform_SDK/output/mx6dq/sdk_unit_test/smart_device_rev_a/libsdk_unit_test.a(epit_test.o)
                              /home/leon/git/swp-report/iMX6_Platform_SDK/output/mx6dq/sdk_unit_test/smart_device_rev_a/obj/apps/sdk_unit_test/src/all_test.o (epit_test)
/home/leon/git/swp-report/iMX6_Platform_SDK/output/mx6dq/sdk_unit_test/smart_device_rev_a/libsdk_unit_test.a(gpt_test.o)
                              /home/leon/git/swp-report/iMX6_Platform_SDK/output/mx6dq/sdk_unit_test/smart_device_rev_a/obj/apps/sdk_unit_test/src/all_test.o (gpt_test)
/home/leon/git/swp-report/iMX6_Platform_SDK/output/mx6dq/sdk_unit_test/smart_device_rev_a/libsdk_unit_test.a(timer_test.o)
                              /home/leon/git/swp-report/iMX6_Platform_SDK/output/mx6dq/sdk_unit_test/smart_device_rev_a/obj/apps/sdk_unit_test/src/all_test.o (microseconds_test)
/home/leon/git/swp-report/iMX6_Platform_SDK/output/mx6dq/sdk_unit_test/smart_device_rev_a/libsdk_unit_test.a(usdhc_test.o)
                              /home/leon/git/swp-report/iMX6_Platform_SDK/output/mx6dq/sdk_unit_test/smart_device_rev_a/obj/apps/sdk_unit_test/src/all_test.o (usdhc_test)
/home/leon/git/swp-report/iMX6_Platform_SDK/output/mx6dq/sdk_unit_test/smart_device_rev_a/libsdk_unit_test.a(pwm_test.o)
                              /home/leon/git/swp-report/iMX6_Platform_SDK/output/mx6dq/sdk_unit_test/smart_device_rev_a/obj/apps/sdk_unit_test/src/all_test.o (pwm_test)
/home/leon/git/swp-report/iMX6_Platform_SDK/output/mx6dq/sdk_unit_test/smart_device_rev_a/libsdk_unit_test.a(watchdog_test.o)
                              /home/leon/git/swp-report/iMX6_Platform_SDK/output/mx6dq/sdk_unit_test/smart_device_rev_a/obj/apps/sdk_unit_test/src/all_test.o (wdog_test)
/home/leon/git/swp-report/iMX6_Platform_SDK/output/mx6dq/sdk_unit_test/smart_device_rev_a/libsdk_unit_test.a(hdmi_test.o)
                              /home/leon/git/swp-report/iMX6_Platform_SDK/output/mx6dq/sdk_unit_test/smart_device_rev_a/obj/apps/sdk_unit_test/src/all_test.o (hdmi_test)
/home/leon/git/swp-report/iMX6_Platform_SDK/output/mx6dq/sdk_unit_test/smart_device_rev_a/libsdk_unit_test.a(ips_display.o)
                              /home/leon/git/swp-report/iMX6_Platform_SDK/output/mx6dq/sdk_unit_test/smart_device_rev_a/libsdk_unit_test.a(hdmi_test.o) (ips_hdmi_stream)
/home/leon/git/swp-report/iMX6_Platform_SDK/output/mx6dq/sdk_unit_test/smart_device_rev_a/libsdk_unit_test.a(ips_test.o)
                              /home/leon/git/swp-report/iMX6_Platform_SDK/output/mx6dq/sdk_unit_test/smart_device_rev_a/obj/apps/sdk_unit_test/src/all_test.o (ipu_test)
/home/leon/git/swp-report/iMX6_Platform_SDK/output/mx6dq/sdk_unit_test/smart_device_rev_a/libsdk_unit_test.a(ipu_image.o)
                              /home/leon/git/swp-report/iMX6_Platform_SDK/output/mx6dq/sdk_unit_test/smart_device_rev_a/libsdk_unit_test.a(ips_display.o) (load_centralized_image)
/home/leon/git/swp-report/iMX6_Platform_SDK/output/mx6dq/sdk_unit_test/smart_device_rev_a/libsdk_unit_test.a(keypad_test.o)
                              /home/leon/git/swp-report/iMX6_Platform_SDK/output/mx6dq/sdk_unit_test/smart_device_rev_a/obj/apps/sdk_unit_test/src/all_test.o (keypad_test)
/home/leon/git/swp-report/iMX6_Platform_SDK/output/mx6dq/sdk_unit_test/smart_device_rev_a/libsdk_unit_test.a(camera_test.o)
                              /home/leon/git/swp-report/iMX6_Platform_SDK/output/mx6dq/sdk_unit_test/smart_device_rev_a/obj/apps/sdk_unit_test/src/all_test.o (camera_test)
/home/leon/git/swp-report/iMX6_Platform_SDK/output/mx6dq/sdk_unit_test/smart_device_rev_a/libsdk_unit_test.a(csi_test_mode.o)
                              /home/leon/git/swp-report/iMX6_Platform_SDK/output/mx6dq/sdk_unit_test/smart_device_rev_a/libsdk_unit_test.a(camera_test.o) (csi_test_mode)
/home/leon/git/swp-report/iMX6_Platform_SDK/output/mx6dq/sdk_unit_test/smart_device_rev_a/libsdk_unit_test.a(sensor_capture.o)
                              /home/leon/git/swp-report/iMX6_Platform_SDK/output/mx6dq/sdk_unit_test/smart_device_rev_a/libsdk_unit_test.a(camera_test.o) (sensor_capture)
/home/leon/git/swp-report/iMX6_Platform_SDK/output/mx6dq/sdk_unit_test/smart_device_rev_a/libsdk_unit_test.a(pcie_test_rc.o)
                              /home/leon/git/swp-report/iMX6_Platform_SDK/output/mx6dq/sdk_unit_test/smart_device_rev_a/obj/apps/sdk_unit_test/src/all_test.o (pcie_test)
/home/leon/git/swp-report/iMX6_Platform_SDK/output/mx6dq/sdk_unit_test/smart_device_rev_a/libsdk_unit_test.a(usb_test.o)
                              /home/leon/git/swp-report/iMX6_Platform_SDK/output/mx6dq/sdk_unit_test/smart_device_rev_a/obj/apps/sdk_unit_test/src/all_test.o (usb_test)
/home/leon/git/swp-report/iMX6_Platform_SDK/output/mx6dq/sdk_unit_test/smart_device_rev_a/libsdk_unit_test.a(enet_test.o)
                              /home/leon/git/swp-report/iMX6_Platform_SDK/output/mx6dq/sdk_unit_test/smart_device_rev_a/obj/apps/sdk_unit_test/src/all_test.o (enet_test)
/home/leon/git/swp-report/iMX6_Platform_SDK/output/mx6dq/sdk_unit_test/smart_device_rev_a/libsdk_unit_test.a(spi_test.o)
                              /home/leon/git/swp-report/iMX6_Platform_SDK/output/mx6dq/sdk_unit_test/smart_device_rev_a/obj/apps/sdk_unit_test/src/all_test.o (spi_test)
/home/leon/git/swp-report/iMX6_Platform_SDK/output/mx6dq/sdk_unit_test/smart_device_rev_a/libsdk_unit_test.a(accelerometer_test.o)
                              /home/leon/git/swp-report/iMX6_Platform_SDK/output/mx6dq/sdk_unit_test/smart_device_rev_a/obj/apps/sdk_unit_test/src/all_test.o (accelerometer_test)
/home/leon/git/swp-report/iMX6_Platform_SDK/output/mx6dq/sdk_unit_test/smart_device_rev_a/libsdk_unit_test.a(sata_test.o)
                              /home/leon/git/swp-report/iMX6_Platform_SDK/output/mx6dq/sdk_unit_test/smart_device_rev_a/obj/apps/sdk_unit_test/src/all_test.o (sata_test)
/home/leon/git/swp-report/iMX6_Platform_SDK/output/mx6dq/sdk_unit_test/smart_device_rev_a/libsdk_unit_test.a(at24cxx.o)
                              /home/leon/git/swp-report/iMX6_Platform_SDK/output/mx6dq/sdk_unit_test/smart_device_rev_a/libsdk_unit_test.a(i2c_test.o) (i2c_eeprom_at24cxx_test)
/home/leon/git/swp-report/iMX6_Platform_SDK/output/mx6dq/sdk_unit_test/smart_device_rev_a/libsdk_unit_test.a(mem_2_mem.o)
                              /home/leon/git/swp-report/iMX6_Platform_SDK/output/mx6dq/sdk_unit_test/smart_device_rev_a/libsdk_unit_test.a(sdma_test.o) (mem_2_mem_test)
/home/leon/git/swp-report/iMX6_Platform_SDK/output/mx6dq/sdk_unit_test/smart_device_rev_a/libsdk_unit_test.a(pwm_output.o)
                              /home/leon/git/swp-report/iMX6_Platform_SDK/output/mx6dq/sdk_unit_test/smart_device_rev_a/libsdk_unit_test.a(pwm_test.o) (pwm_output_test)
/home/leon/git/swp-report/iMX6_Platform_SDK/output/mx6dq/sdk_unit_test/smart_device_rev_a/libsdk_unit_test.a(init_dma_data.o)
                              /home/leon/git/swp-report/iMX6_Platform_SDK/output/mx6dq/sdk_unit_test/smart_device_rev_a/libsdk_unit_test.a(hdmi_test.o) (init_dma_data)
/home/leon/git/swp-report/iMX6_Platform_SDK/output/mx6dq/sdk_unit_test/smart_device_rev_a/libsdk_unit_test.a(ips_combiner.o)
                              /home/leon/git/swp-report/iMX6_Platform_SDK/output/mx6dq/sdk_unit_test/smart_device_rev_a/libsdk_unit_test.a(ips_test.o) (ips_combiner_test)
/home/leon/git/swp-report/iMX6_Platform_SDK/output/mx6dq/sdk_unit_test/smart_device_rev_a/libsdk_unit_test.a(ips_csc.o)
                              /home/leon/git/swp-report/iMX6_Platform_SDK/output/mx6dq/sdk_unit_test/smart_device_rev_a/libsdk_unit_test.a(ips_test.o) (ips_csc_test)
/home/leon/git/swp-report/iMX6_Platform_SDK/output/mx6dq/sdk_unit_test/smart_device_rev_a/libsdk_unit_test.a(ips_resize.o)
                              /home/leon/git/swp-report/iMX6_Platform_SDK/output/mx6dq/sdk_unit_test/smart_device_rev_a/libsdk_unit_test.a(ips_test.o) (ips_resize_test)
/home/leon/git/swp-report/iMX6_Platform_SDK/output/mx6dq/sdk_unit_test/smart_device_rev_a/libsdk_unit_test.a(ips_rotate.o)
                              /home/leon/git/swp-report/iMX6_Platform_SDK/output/mx6dq/sdk_unit_test/smart_device_rev_a/libsdk_unit_test.a(ips_test.o) (ips_rotate_test)
/home/leon/git/swp-report/iMX6_Platform_SDK/output/mx6dq/sdk_unit_test/smart_device_rev_a/libsdk_unit_test.a(usb0_device_mouse_test.o)
                              /home/leon/git/swp-report/iMX6_Platform_SDK/output/mx6dq/sdk_unit_test/smart_device_rev_a/libsdk_unit_test.a(usb_test.o) (usb0_device_mouse_test)
/home/leon/git/swp-report/iMX6_Platform_SDK/output/mx6dq/sdk_unit_test/smart_device_rev_a/libsdk_unit_test.a(usb0_host_test.o)
                              /home/leon/git/swp-report/iMX6_Platform_SDK/output/mx6dq/sdk_unit_test/smart_device_rev_a/libsdk_unit_test.a(usb_test.o) (usb0_host_test)
/home/leon/git/swp-report/iMX6_Platform_SDK/output/mx6dq/sdk_unit_test/smart_device_rev_a/libsdk_unit_test.a(usb0_host_testmodes_test.o)
                              /home/leon/git/swp-report/iMX6_Platform_SDK/output/mx6dq/sdk_unit_test/smart_device_rev_a/libsdk_unit_test.a(usb_test.o) (usb0_host_testmodes_test)
/home/leon/git/swp-report/iMX6_Platform_SDK/output/mx6dq/sdk_unit_test/smart_device_rev_a/libsdk_unit_test.a(spi_nor_numonyx.o)
                              /home/leon/git/swp-report/iMX6_Platform_SDK/output/mx6dq/sdk_unit_test/smart_device_rev_a/libsdk_unit_test.a(spi_test.o) (spi_nor_query_numonyx)
/home/leon/riotboard/arm-2012.09/bin/../arm-none-eabi/lib//libm.a(lib_a-sf_cos.o)
                              /home/leon/git/swp-report/iMX6_Platform_SDK/output/mx6dq/sdk_unit_test/smart_device_rev_a/libsdk_unit_test.a(usb0_device_mouse_test.o) (cosf)
/home/leon/riotboard/arm-2012.09/bin/../arm-none-eabi/lib//libm.a(lib_a-sf_fabs.o)
                              /home/leon/git/swp-report/iMX6_Platform_SDK/output/mx6dq/sdk_unit_test/smart_device_rev_a/libsdk_unit_test.a(accelerometer_test.o) (fabsf)
/home/leon/riotboard/arm-2012.09/bin/../arm-none-eabi/lib//libm.a(lib_a-sf_modf.o)
                              /home/leon/git/swp-report/iMX6_Platform_SDK/output/mx6dq/sdk_unit_test/smart_device_rev_a/libsdk_unit_test.a(accelerometer_test.o) (modff)
/home/leon/riotboard/arm-2012.09/bin/../arm-none-eabi/lib//libm.a(lib_a-sf_sin.o)
                              /home/leon/git/swp-report/iMX6_Platform_SDK/output/mx6dq/sdk_unit_test/smart_device_rev_a/libsdk_unit_test.a(usb0_device_mouse_test.o) (sinf)
/home/leon/riotboard/arm-2012.09/bin/../arm-none-eabi/lib//libm.a(lib_a-ef_rem_pio2.o)
                              /home/leon/riotboard/arm-2012.09/bin/../arm-none-eabi/lib//libm.a(lib_a-sf_cos.o) (__ieee754_rem_pio2f)
/home/leon/riotboard/arm-2012.09/bin/../arm-none-eabi/lib//libm.a(lib_a-kf_cos.o)
                              /home/leon/riotboard/arm-2012.09/bin/../arm-none-eabi/lib//libm.a(lib_a-sf_cos.o) (__kernel_cosf)
/home/leon/riotboard/arm-2012.09/bin/../arm-none-eabi/lib//libm.a(lib_a-kf_rem_pio2.o)
                              /home/leon/riotboard/arm-2012.09/bin/../arm-none-eabi/lib//libm.a(lib_a-ef_rem_pio2.o) (__kernel_rem_pio2f)
/home/leon/riotboard/arm-2012.09/bin/../arm-none-eabi/lib//libm.a(lib_a-kf_sin.o)
                              /home/leon/riotboard/arm-2012.09/bin/../arm-none-eabi/lib//libm.a(lib_a-sf_cos.o) (__kernel_sinf)
/home/leon/riotboard/arm-2012.09/bin/../arm-none-eabi/lib//libm.a(lib_a-sf_floor.o)
                              /home/leon/riotboard/arm-2012.09/bin/../arm-none-eabi/lib//libm.a(lib_a-kf_rem_pio2.o) (floorf)
/home/leon/riotboard/arm-2012.09/bin/../arm-none-eabi/lib//libm.a(lib_a-sf_scalbn.o)
                              /home/leon/riotboard/arm-2012.09/bin/../arm-none-eabi/lib//libm.a(lib_a-kf_rem_pio2.o) (scalbnf)
/home/leon/riotboard/arm-2012.09/bin/../arm-none-eabi/lib//libm.a(lib_a-sf_copysign.o)
                              /home/leon/riotboard/arm-2012.09/bin/../arm-none-eabi/lib//libm.a(lib_a-sf_scalbn.o) (copysignf)
/home/leon/riotboard/arm-2012.09/bin/../arm-none-eabi/lib//libc.a(lib_a-assert.o)
                              /home/leon/git/swp-report/iMX6_Platform_SDK/output/mx6dq/lib/libsdk.a(gic.o) (__assert_func)
/home/leon/riotboard/arm-2012.09/bin/../arm-none-eabi/lib//libc.a(lib_a-bzero.o)
                              /home/leon/git/swp-report/iMX6_Platform_SDK/output/mx6dq/lib/libsdk.a(mmu.o) (bzero)
/home/leon/riotboard/arm-2012.09/bin/../arm-none-eabi/lib//libc.a(lib_a-fflush.o)
                              /home/leon/git/swp-report/iMX6_Platform_SDK/output/mx6dq/sdk_unit_test/smart_device_rev_a/libsdk_unit_test.a(accelerometer_test.o) (fflush)
/home/leon/riotboard/arm-2012.09/bin/../arm-none-eabi/lib//libc.a(lib_a-findfp.o)
                              /home/leon/riotboard/arm-2012.09/bin/../arm-none-eabi/lib//libc.a(lib_a-fflush.o) (__sinit)
/home/leon/riotboard/arm-2012.09/bin/../arm-none-eabi/lib//libc.a(lib_a-fiprintf.o)
                              /home/leon/riotboard/arm-2012.09/bin/../arm-none-eabi/lib//libc.a(lib_a-assert.o) (fiprintf)
/home/leon/riotboard/arm-2012.09/bin/../arm-none-eabi/lib//libc.a(lib_a-fputc.o)
                              /home/leon/git/swp-report/iMX6_Platform_SDK/output/mx6dq/lib/libsdk.a(menu.o) (fputc)
/home/leon/riotboard/arm-2012.09/bin/../arm-none-eabi/lib//libc.a(lib_a-fputs.o)
                              /home/leon/git/swp-report/iMX6_Platform_SDK/output/mx6dq/sdk_unit_test/smart_device_rev_a/libsdk_unit_test.a(accelerometer_test.o) (fputs)
/home/leon/riotboard/arm-2012.09/bin/../arm-none-eabi/lib//libc.a(lib_a-freer.o)
                              /home/leon/riotboard/arm-2012.09/bin/../arm-none-eabi/lib//libc.a(lib_a-fflush.o) (_free_r)
/home/leon/riotboard/arm-2012.09/bin/../arm-none-eabi/lib//libc.a(lib_a-fvwrite.o)
                              /home/leon/riotboard/arm-2012.09/bin/../arm-none-eabi/lib//libc.a(lib_a-fputs.o) (__sfvwrite_r)
/home/leon/riotboard/arm-2012.09/bin/../arm-none-eabi/lib//libc.a(lib_a-fwalk.o)
                              /home/leon/riotboard/arm-2012.09/bin/../arm-none-eabi/lib//libc.a(lib_a-findfp.o) (_fwalk)
/home/leon/riotboard/arm-2012.09/bin/../arm-none-eabi/lib//libc.a(lib_a-impure.o)
                              /home/leon/riotboard/arm-2012.09/bin/../arm-none-eabi/lib//libc.a(lib_a-fflush.o) (_global_impure_ptr)
/home/leon/riotboard/arm-2012.09/bin/../arm-none-eabi/lib//libc.a(lib_a-init.o)
                              /home/leon/git/swp-report/iMX6_Platform_SDK/output/mx6dq/lib/libsdk.a(startup.o) (__libc_init_array)
/home/leon/riotboard/arm-2012.09/bin/../arm-none-eabi/lib//libc.a(lib_a-malloc.o)
                              /home/leon/git/swp-report/iMX6_Platform_SDK/output/mx6dq/lib/libsdk.a(system_util.o) (malloc)
/home/leon/riotboard/arm-2012.09/bin/../arm-none-eabi/lib//libc.a(lib_a-mallocr.o)
                              /home/leon/riotboard/arm-2012.09/bin/../arm-none-eabi/lib//libc.a(lib_a-findfp.o) (_malloc_r)
/home/leon/riotboard/arm-2012.09/bin/../arm-none-eabi/lib//libc.a(lib_a-memchr.o)
                              /home/leon/riotboard/arm-2012.09/bin/../arm-none-eabi/lib//libc.a(lib_a-fvwrite.o) (memchr)
/home/leon/riotboard/arm-2012.09/bin/../arm-none-eabi/lib//libc.a(lib_a-memcpy.o)
                              /home/leon/git/swp-report/iMX6_Platform_SDK/output/mx6dq/lib/libsdk.a(menu.o) (memcpy)
/home/leon/riotboard/arm-2012.09/bin/../arm-none-eabi/lib//libc.a(lib_a-memmove.o)
                              /home/leon/riotboard/arm-2012.09/bin/../arm-none-eabi/lib//libc.a(lib_a-fvwrite.o) (memmove)
/home/leon/riotboard/arm-2012.09/bin/../arm-none-eabi/lib//libc.a(lib_a-memset.o)
                              /home/leon/git/swp-report/iMX6_Platform_SDK/output/mx6dq/sdk_unit_test/smart_device_rev_a/obj/apps/common/print_version.o (memset)
/home/leon/riotboard/arm-2012.09/bin/../arm-none-eabi/lib//libc.a(lib_a-mlock.o)
                              /home/leon/riotboard/arm-2012.09/bin/../arm-none-eabi/lib//libc.a(lib_a-freer.o) (__malloc_lock)
/home/leon/riotboard/arm-2012.09/bin/../arm-none-eabi/lib//libc.a(lib_a-printf.o)
                              /home/leon/git/swp-report/iMX6_Platform_SDK/output/mx6dq/sdk_unit_test/smart_device_rev_a/obj/apps/common/print_clock_info.o (printf)
/home/leon/riotboard/arm-2012.09/bin/../arm-none-eabi/lib//libc.a(lib_a-putc.o)
                              /home/leon/riotboard/arm-2012.09/bin/../arm-none-eabi/lib//libc.a(lib_a-fputc.o) (_putc_r)
/home/leon/riotboard/arm-2012.09/bin/../arm-none-eabi/lib//libc.a(lib_a-realloc.o)
                              /home/leon/git/swp-report/iMX6_Platform_SDK/output/mx6dq/lib/libsdk.a(system_util.o) (realloc)
/home/leon/riotboard/arm-2012.09/bin/../arm-none-eabi/lib//libc.a(lib_a-reallocr.o)
                              /home/leon/riotboard/arm-2012.09/bin/../arm-none-eabi/lib//libc.a(lib_a-fvwrite.o) (_realloc_r)
/home/leon/riotboard/arm-2012.09/bin/../arm-none-eabi/lib//libc.a(lib_a-rget.o)
                              /home/leon/git/swp-report/iMX6_Platform_SDK/output/mx6dq/lib/libsdk.a(menu.o) (__srget_r)
/home/leon/riotboard/arm-2012.09/bin/../arm-none-eabi/lib//libc.a(lib_a-sbrkr.o)
                              /home/leon/riotboard/arm-2012.09/bin/../arm-none-eabi/lib//libc.a(lib_a-freer.o) (_sbrk_r)
/home/leon/riotboard/arm-2012.09/bin/../arm-none-eabi/lib//libc.a(lib_a-sprintf.o)
                              /home/leon/git/swp-report/iMX6_Platform_SDK/output/mx6dq/lib/libsdk.a(board_id.o) (sprintf)
/home/leon/riotboard/arm-2012.09/bin/../arm-none-eabi/lib//libc.a(lib_a-stdio.o)
                              /home/leon/riotboard/arm-2012.09/bin/../arm-none-eabi/lib//libc.a(lib_a-findfp.o) (__sread)
/home/leon/riotboard/arm-2012.09/bin/../arm-none-eabi/lib//libc.a(lib_a-strlen.o)
                              /home/leon/git/swp-report/iMX6_Platform_SDK/output/mx6dq/lib/libsdk.a(menu.o) (strlen)
/home/leon/riotboard/arm-2012.09/bin/../arm-none-eabi/lib//libc.a(lib_a-strncasecmp.o)
                              /home/leon/git/swp-report/iMX6_Platform_SDK/output/mx6dq/lib/libsdk.a(menu.o) (strncasecmp)
/home/leon/riotboard/arm-2012.09/bin/../arm-none-eabi/lib//libc.a(lib_a-svfprintf.o)
                              /home/leon/riotboard/arm-2012.09/bin/../arm-none-eabi/lib//libc.a(lib_a-sprintf.o) (_svfprintf_r)
/home/leon/riotboard/arm-2012.09/bin/../arm-none-eabi/lib//libc.a(lib_a-vfiprintf.o)
                              /home/leon/riotboard/arm-2012.09/bin/../arm-none-eabi/lib//libc.a(lib_a-fiprintf.o) (_vfiprintf_r)
/home/leon/riotboard/arm-2012.09/bin/../arm-none-eabi/lib//libc.a(lib_a-vfprintf.o)
                              /home/leon/riotboard/arm-2012.09/bin/../arm-none-eabi/lib//libc.a(lib_a-printf.o) (_vfprintf_r)
/home/leon/riotboard/arm-2012.09/bin/../arm-none-eabi/lib//libc.a(lib_a-vprintf.o)
                              /home/leon/git/swp-report/iMX6_Platform_SDK/output/mx6dq/lib/libsdk.a(text_color.o) (vprintf)
/home/leon/riotboard/arm-2012.09/bin/../arm-none-eabi/lib//libc.a(lib_a-wbuf.o)
                              /home/leon/riotboard/arm-2012.09/bin/../arm-none-eabi/lib//libc.a(lib_a-putc.o) (__swbuf_r)
/home/leon/riotboard/arm-2012.09/bin/../arm-none-eabi/lib//libc.a(lib_a-writer.o)
                              /home/leon/riotboard/arm-2012.09/bin/../arm-none-eabi/lib//libc.a(lib_a-stdio.o) (_write_r)
/home/leon/riotboard/arm-2012.09/bin/../arm-none-eabi/lib//libc.a(lib_a-wsetup.o)
                              /home/leon/riotboard/arm-2012.09/bin/../arm-none-eabi/lib//libc.a(lib_a-fvwrite.o) (__swsetup_r)
/home/leon/riotboard/arm-2012.09/bin/../arm-none-eabi/lib//libc.a(lib_a-abort.o)
                              /home/leon/riotboard/arm-2012.09/bin/../arm-none-eabi/lib//libc.a(lib_a-assert.o) (abort)
/home/leon/riotboard/arm-2012.09/bin/../arm-none-eabi/lib//libc.a(lib_a-closer.o)
                              /home/leon/riotboard/arm-2012.09/bin/../arm-none-eabi/lib//libc.a(lib_a-stdio.o) (_close_r)
/home/leon/riotboard/arm-2012.09/bin/../arm-none-eabi/lib//libc.a(lib_a-ctype_.o)
                              /home/leon/riotboard/arm-2012.09/bin/../arm-none-eabi/lib//libc.a(lib_a-strncasecmp.o) (__ctype_ptr__)
/home/leon/riotboard/arm-2012.09/bin/../arm-none-eabi/lib//libc.a(lib_a-dtoa.o)
                              /home/leon/riotboard/arm-2012.09/bin/../arm-none-eabi/lib//libc.a(lib_a-svfprintf.o) (_dtoa_r)
/home/leon/riotboard/arm-2012.09/bin/../arm-none-eabi/lib//libc.a(lib_a-fclose.o)
                              /home/leon/riotboard/arm-2012.09/bin/../arm-none-eabi/lib//libc.a(lib_a-findfp.o) (fclose)
/home/leon/riotboard/arm-2012.09/bin/../arm-none-eabi/lib//libc.a(lib_a-fputwc.o)
                              /home/leon/riotboard/arm-2012.09/bin/../arm-none-eabi/lib//libc.a(lib_a-vfiprintf.o) (_fputwc_r)
/home/leon/riotboard/arm-2012.09/bin/../arm-none-eabi/lib//libc.a(lib_a-locale.o)
                              /home/leon/riotboard/arm-2012.09/bin/../arm-none-eabi/lib//libc.a(lib_a-fputwc.o) (__locale_mb_cur_max)
/home/leon/riotboard/arm-2012.09/bin/../arm-none-eabi/lib//libc.a(lib_a-lseekr.o)
                              /home/leon/riotboard/arm-2012.09/bin/../arm-none-eabi/lib//libc.a(lib_a-stdio.o) (_lseek_r)
/home/leon/riotboard/arm-2012.09/bin/../arm-none-eabi/lib//libc.a(lib_a-makebuf.o)
                              /home/leon/riotboard/arm-2012.09/bin/../arm-none-eabi/lib//libc.a(lib_a-wsetup.o) (__smakebuf_r)
/home/leon/riotboard/arm-2012.09/bin/../arm-none-eabi/lib//libc.a(lib_a-mprec.o)
                              /home/leon/riotboard/arm-2012.09/bin/../arm-none-eabi/lib//libc.a(lib_a-dtoa.o) (_Balloc)
/home/leon/riotboard/arm-2012.09/bin/../arm-none-eabi/lib//libc.a(lib_a-readr.o)
                              /home/leon/riotboard/arm-2012.09/bin/../arm-none-eabi/lib//libc.a(lib_a-stdio.o) (_read_r)
/home/leon/riotboard/arm-2012.09/bin/../arm-none-eabi/lib//libc.a(lib_a-reent.o)
                              /home/leon/riotboard/arm-2012.09/bin/../arm-none-eabi/lib//libc.a(lib_a-sbrkr.o) (errno)
/home/leon/riotboard/arm-2012.09/bin/../arm-none-eabi/lib//libc.a(lib_a-refill.o)
                              /home/leon/riotboard/arm-2012.09/bin/../arm-none-eabi/lib//libc.a(lib_a-rget.o) (__srefill_r)
/home/leon/riotboard/arm-2012.09/bin/../arm-none-eabi/lib//libc.a(lib_a-s_fpclassify.o)
                              /home/leon/riotboard/arm-2012.09/bin/../arm-none-eabi/lib//libc.a(lib_a-svfprintf.o) (__fpclassifyd)
/home/leon/riotboard/arm-2012.09/bin/../arm-none-eabi/lib//libc.a(lib_a-signal.o)
                              /home/leon/riotboard/arm-2012.09/bin/../arm-none-eabi/lib//libc.a(lib_a-abort.o) (raise)
/home/leon/riotboard/arm-2012.09/bin/../arm-none-eabi/lib//libc.a(lib_a-signalr.o)
                              /home/leon/riotboard/arm-2012.09/bin/../arm-none-eabi/lib//libc.a(lib_a-signal.o) (_kill_r)
/home/leon/riotboard/arm-2012.09/bin/../arm-none-eabi/lib//libc.a(lib_a-strcmp.o)
                              /home/leon/riotboard/arm-2012.09/bin/../arm-none-eabi/lib//libc.a(lib_a-locale.o) (strcmp)
/home/leon/riotboard/arm-2012.09/bin/../arm-none-eabi/lib//libc.a(lib_a-svfiprintf.o)
                              /home/leon/riotboard/arm-2012.09/bin/../arm-none-eabi/lib//libc.a(lib_a-svfprintf.o) (__ssprint_r)
/home/leon/riotboard/arm-2012.09/bin/../arm-none-eabi/lib//libc.a(lib_a-wcrtomb.o)
                              /home/leon/riotboard/arm-2012.09/bin/../arm-none-eabi/lib//libc.a(lib_a-fputwc.o) (_wcrtomb_r)
/home/leon/riotboard/arm-2012.09/bin/../arm-none-eabi/lib//libc.a(lib_a-wctomb_r.o)
                              /home/leon/riotboard/arm-2012.09/bin/../arm-none-eabi/lib//libc.a(lib_a-wcrtomb.o) (__wctomb)
/home/leon/riotboard/arm-2012.09/bin/../arm-none-eabi/lib//libc.a(lib_a-callocr.o)
                              /home/leon/riotboard/arm-2012.09/bin/../arm-none-eabi/lib//libc.a(lib_a-mprec.o) (_calloc_r)
/home/leon/riotboard/arm-2012.09/bin/../arm-none-eabi/lib//libc.a(lib_a-fstatr.o)
                              /home/leon/riotboard/arm-2012.09/bin/../arm-none-eabi/lib//libc.a(lib_a-makebuf.o) (_fstat_r)
/home/leon/riotboard/arm-2012.09/bin/../arm-none-eabi/lib//libc.a(lib_a-isattyr.o)
                              /home/leon/riotboard/arm-2012.09/bin/../arm-none-eabi/lib//libc.a(lib_a-makebuf.o) (_isatty_r)
/home/leon/riotboard/arm-2012.09/bin/../lib/gcc/arm-none-eabi/4.7.2//libgcc.a(_udivsi3.o)
                              /home/leon/git/swp-report/iMX6_Platform_SDK/output/mx6dq/lib/libsdk.a(ccm_pll.o) (__aeabi_uidiv)
/home/leon/riotboard/arm-2012.09/bin/../lib/gcc/arm-none-eabi/4.7.2//libgcc.a(_dvmd_tls.o)
                              /home/leon/riotboard/arm-2012.09/bin/../lib/gcc/arm-none-eabi/4.7.2//libgcc.a(_udivsi3.o) (__aeabi_idiv0)
/home/leon/riotboard/arm-2012.09/bin/../lib/gcc/arm-none-eabi/4.7.2//libgcc.a(_arm_addsubdf3.o)
                              /home/leon/riotboard/arm-2012.09/bin/../arm-none-eabi/lib//libc.a(lib_a-dtoa.o) (__aeabi_dsub)
/home/leon/riotboard/arm-2012.09/bin/../lib/gcc/arm-none-eabi/4.7.2//libgcc.a(_arm_muldivdf3.o)
                              /home/leon/riotboard/arm-2012.09/bin/../arm-none-eabi/lib//libc.a(lib_a-dtoa.o) (__aeabi_dmul)
/home/leon/riotboard/arm-2012.09/bin/../lib/gcc/arm-none-eabi/4.7.2//libgcc.a(_arm_cmpdf2.o)
                              /home/leon/riotboard/arm-2012.09/bin/../arm-none-eabi/lib//libc.a(lib_a-svfprintf.o) (__aeabi_dcmpeq)
/home/leon/riotboard/arm-2012.09/bin/../lib/gcc/arm-none-eabi/4.7.2//libgcc.a(_arm_fixdfsi.o)
                              /home/leon/riotboard/arm-2012.09/bin/../arm-none-eabi/lib//libc.a(lib_a-dtoa.o) (__aeabi_d2iz)
/home/leon/riotboard/arm-2012.09/bin/../lib/gcc/arm-none-eabi/4.7.2//libgcc.a(_arm_addsubsf3.o)
                              /home/leon/riotboard/arm-2012.09/bin/../arm-none-eabi/lib//libm.a(lib_a-sf_cos.o) (__aeabi_fsub)
/home/leon/riotboard/arm-2012.09/bin/../lib/gcc/arm-none-eabi/4.7.2//libgcc.a(_arm_muldivsf3.o)
                              /home/leon/riotboard/arm-2012.09/bin/../arm-none-eabi/lib//libm.a(lib_a-ef_rem_pio2.o) (__aeabi_fmul)
/home/leon/riotboard/arm-2012.09/bin/../lib/gcc/arm-none-eabi/4.7.2//libgcc.a(_arm_cmpsf2.o)
                              /home/leon/riotboard/arm-2012.09/bin/../arm-none-eabi/lib//libm.a(lib_a-ef_rem_pio2.o) (__aeabi_fcmpeq)
/home/leon/riotboard/arm-2012.09/bin/../lib/gcc/arm-none-eabi/4.7.2//libgcc.a(_arm_fixsfsi.o)
                              /home/leon/riotboard/arm-2012.09/bin/../arm-none-eabi/lib//libm.a(lib_a-ef_rem_pio2.o) (__aeabi_f2iz)
/home/leon/riotboard/arm-2012.09/bin/../lib/gcc/arm-none-eabi/4.7.2//libgcc.a(_aeabi_uldivmod.o)
                              /home/leon/git/swp-report/iMX6_Platform_SDK/output/mx6dq/lib/libsdk.a(timer.o) (__aeabi_uldivmod)
/home/leon/riotboard/arm-2012.09/bin/../lib/gcc/arm-none-eabi/4.7.2//libgcc.a(bpabi.o)
                              /home/leon/riotboard/arm-2012.09/bin/../lib/gcc/arm-none-eabi/4.7.2//libgcc.a(_aeabi_uldivmod.o) (__gnu_uldivmod_helper)
/home/leon/riotboard/arm-2012.09/bin/../lib/gcc/arm-none-eabi/4.7.2//libgcc.a(_divdi3.o)
                              /home/leon/riotboard/arm-2012.09/bin/../lib/gcc/arm-none-eabi/4.7.2//libgcc.a(bpabi.o) (__divdi3)
/home/leon/riotboard/arm-2012.09/bin/../lib/gcc/arm-none-eabi/4.7.2//libgcc.a(_udivdi3.o)
                              /home/leon/riotboard/arm-2012.09/bin/../lib/gcc/arm-none-eabi/4.7.2//libgcc.a(bpabi.o) (__udivdi3)
/home/leon/riotboard/arm-2012.09/bin/../lib/gcc/arm-none-eabi/4.7.2//libgcc.a(_clzsi2.o)
                              /home/leon/riotboard/arm-2012.09/bin/../lib/gcc/arm-none-eabi/4.7.2//libgcc.a(_divdi3.o) (__clzsi2)
/home/leon/git/swp-report/iMX6_Platform_SDK/output/mx6dq/lib/libsdk.a(profile.o)
                              /home/leon/git/swp-report/iMX6_Platform_SDK/output/mx6dq/sdk_unit_test/smart_device_rev_a/libsdk_unit_test.a(mem_2_mem.o) (StartPerfCounter)
/home/leon/git/swp-report/iMX6_Platform_SDK/output/mx6dq/lib/libsdk.a(armv7_cache.o)
                              /home/leon/git/swp-report/iMX6_Platform_SDK/output/mx6dq/sdk_unit_test/smart_device_rev_a/libsdk_unit_test.a(cpu_wp_test.o) (arm_dcache_state_query)
/home/leon/git/swp-report/iMX6_Platform_SDK/output/mx6dq/lib/libsdk.a(runtime_support.o)
                              /home/leon/riotboard/arm-2012.09/bin/../arm-none-eabi/lib//libc.a(lib_a-isattyr.o) (_isatty)
/home/leon/git/swp-report/iMX6_Platform_SDK/output/mx6dq/lib/libsdk.a(mma8451.o)
                              /home/leon/git/swp-report/iMX6_Platform_SDK/output/mx6dq/sdk_unit_test/smart_device_rev_a/libsdk_unit_test.a(accelerometer_test.o) (mma8451_init)
/home/leon/git/swp-report/iMX6_Platform_SDK/output/mx6dq/lib/libsdk.a(smd_sensor.o)
                              /home/leon/git/swp-report/iMX6_Platform_SDK/output/mx6dq/sdk_unit_test/smart_device_rev_a/libsdk_unit_test.a(sensor_capture.o) (sensor_config)
/home/leon/git/swp-report/iMX6_Platform_SDK/output/mx6dq/lib/libsdk.a(cpu_get_cores.o)
                              /home/leon/git/swp-report/iMX6_Platform_SDK/output/mx6dq/sdk_unit_test/smart_device_rev_a/libsdk_unit_test.a(multicore_test.o) (cpu_get_cores)
/home/leon/git/swp-report/iMX6_Platform_SDK/output/mx6dq/lib/libsdk.a(cpu_multicore.o)
                              /home/leon/git/swp-report/iMX6_Platform_SDK/output/mx6dq/sdk_unit_test/smart_device_rev_a/libsdk_unit_test.a(multicore_test.o) (cpu_start_secondary)
/home/leon/git/swp-report/iMX6_Platform_SDK/output/mx6dq/lib/libsdk.a(cpu_workpoint.o)
                              /home/leon/git/swp-report/iMX6_Platform_SDK/output/mx6dq/sdk_unit_test/smart_device_rev_a/libsdk_unit_test.a(cpu_wp_test.o) (cpu_workpoint_set)
/home/leon/git/swp-report/iMX6_Platform_SDK/output/mx6dq/lib/libsdk.a(enet_drv.o)
                              /home/leon/git/swp-report/iMX6_Platform_SDK/output/mx6dq/sdk_unit_test/smart_device_rev_a/libsdk_unit_test.a(enet_test.o) (imx_enet_phy_init)
/home/leon/git/swp-report/iMX6_Platform_SDK/output/mx6dq/lib/libsdk.a(gpio.o)
                              /home/leon/git/swp-report/iMX6_Platform_SDK/output/mx6dq/sdk_unit_test/smart_device_rev_a/libsdk_unit_test.a(accelerometer_test.o) (gpio_set_gpio)
/home/leon/git/swp-report/iMX6_Platform_SDK/output/mx6dq/lib/libsdk.a(imx6dq_gpio_map.o)
                              /home/leon/git/swp-report/iMX6_Platform_SDK/output/mx6dq/lib/libsdk.a(gpio.o) (k_gpio_mux_registers)
/home/leon/git/swp-report/iMX6_Platform_SDK/output/mx6dq/lib/libsdk.a(hdmi_tx.o)
                              /home/leon/git/swp-report/iMX6_Platform_SDK/output/mx6dq/sdk_unit_test/smart_device_rev_a/libsdk_unit_test.a(hdmi_test.o) (hdmi_config_input_source)
/home/leon/git/swp-report/iMX6_Platform_SDK/output/mx6dq/lib/libsdk.a(hdmi_tx_audio.o)
                              /home/leon/git/swp-report/iMX6_Platform_SDK/output/mx6dq/sdk_unit_test/smart_device_rev_a/libsdk_unit_test.a(hdmi_test.o) (hdmi_audio_mute)
/home/leon/git/swp-report/iMX6_Platform_SDK/output/mx6dq/lib/libsdk.a(hdmi_tx_phy.o)
                              /home/leon/git/swp-report/iMX6_Platform_SDK/output/mx6dq/sdk_unit_test/smart_device_rev_a/libsdk_unit_test.a(hdmi_test.o) (hdmi_phy_init)
/home/leon/git/swp-report/iMX6_Platform_SDK/output/mx6dq/lib/libsdk.a(imx_i2c.o)
                              /home/leon/git/swp-report/iMX6_Platform_SDK/output/mx6dq/lib/libsdk.a(smd_sensor.o) (i2c_xfer)
/home/leon/git/swp-report/iMX6_Platform_SDK/output/mx6dq/lib/libsdk.a(imx_i2c_slave.o)
                              /home/leon/git/swp-report/iMX6_Platform_SDK/output/mx6dq/sdk_unit_test/smart_device_rev_a/libsdk_unit_test.a(imx6_i2c_device.o) (i2c_slave_xfer)
/home/leon/git/swp-report/iMX6_Platform_SDK/output/mx6dq/lib/libsdk.a(ips_disp_panel.o)
                              /home/leon/git/swp-report/iMX6_Platform_SDK/output/mx6dq/sdk_unit_test/smart_device_rev_a/libsdk_unit_test.a(ips_display.o) (search_panel)
/home/leon/git/swp-report/iMX6_Platform_SDK/output/mx6dq/lib/libsdk.a(ipu_common.o)
                              /home/leon/git/swp-report/iMX6_Platform_SDK/output/mx6dq/sdk_unit_test/smart_device_rev_a/libsdk_unit_test.a(ips_display.o) (ipu_enable_display)
/home/leon/git/swp-report/iMX6_Platform_SDK/output/mx6dq/lib/libsdk.a(ipu_csi.o)
                              /home/leon/git/swp-report/iMX6_Platform_SDK/output/mx6dq/lib/libsdk.a(ipu_common.o) (ipu_csi_config)
/home/leon/git/swp-report/iMX6_Platform_SDK/output/mx6dq/lib/libsdk.a(ipu_dc.o)
                              /home/leon/git/swp-report/iMX6_Platform_SDK/output/mx6dq/lib/libsdk.a(ipu_common.o) (ipu_dc_config)
/home/leon/git/swp-report/iMX6_Platform_SDK/output/mx6dq/lib/libsdk.a(ipu_di.o)
                              /home/leon/git/swp-report/iMX6_Platform_SDK/output/mx6dq/lib/libsdk.a(ipu_common.o) (ipu_di_config)
/home/leon/git/swp-report/iMX6_Platform_SDK/output/mx6dq/lib/libsdk.a(ipu_dmfc.o)
                              /home/leon/git/swp-report/iMX6_Platform_SDK/output/mx6dq/lib/libsdk.a(ipu_common.o) (ipu_dmfc_config)
/home/leon/git/swp-report/iMX6_Platform_SDK/output/mx6dq/lib/libsdk.a(ipu_dp.o)
                              /home/leon/git/swp-report/iMX6_Platform_SDK/output/mx6dq/sdk_unit_test/smart_device_rev_a/libsdk_unit_test.a(ips_combiner.o) (ipu_dp_config)
/home/leon/git/swp-report/iMX6_Platform_SDK/output/mx6dq/lib/libsdk.a(ipu_ic.o)
                              /home/leon/git/swp-report/iMX6_Platform_SDK/output/mx6dq/sdk_unit_test/smart_device_rev_a/libsdk_unit_test.a(ips_csc.o) (ipu_ic_enable)
/home/leon/git/swp-report/iMX6_Platform_SDK/output/mx6dq/lib/libsdk.a(ipu_idmac.o)
                              /home/leon/git/swp-report/iMX6_Platform_SDK/output/mx6dq/lib/libsdk.a(ipu_common.o) (ipu_cpmem_set_field)
/home/leon/git/swp-report/iMX6_Platform_SDK/output/mx6dq/lib/libsdk.a(ipu_vdi.o)
                              /home/leon/git/swp-report/iMX6_Platform_SDK/output/mx6dq/lib/libsdk.a(ipu_common.o) (ips_deinterlace_proc)
/home/leon/git/swp-report/iMX6_Platform_SDK/output/mx6dq/lib/libsdk.a(keypad_port.o)
                              /home/leon/git/swp-report/iMX6_Platform_SDK/output/mx6dq/sdk_unit_test/smart_device_rev_a/libsdk_unit_test.a(keypad_test.o) (kpp_get_keypad_state)
/home/leon/git/swp-report/iMX6_Platform_SDK/output/mx6dq/lib/libsdk.a(ldb.o)
                              /home/leon/git/swp-report/iMX6_Platform_SDK/output/mx6dq/lib/libsdk.a(ips_disp_panel.o) (ldb_config)
/home/leon/git/swp-report/iMX6_Platform_SDK/output/mx6dq/lib/libsdk.a(ocotp.o)
                              /home/leon/git/swp-report/iMX6_Platform_SDK/output/mx6dq/sdk_unit_test/smart_device_rev_a/libsdk_unit_test.a(ocotp_test.o) (ocotp_sense_fuse)
/home/leon/git/swp-report/iMX6_Platform_SDK/output/mx6dq/lib/libsdk.a(pcie.o)
                              /home/leon/git/swp-report/iMX6_Platform_SDK/output/mx6dq/sdk_unit_test/smart_device_rev_a/libsdk_unit_test.a(pcie_test_rc.o) (pcie_func_clk_setup)
/home/leon/git/swp-report/iMX6_Platform_SDK/output/mx6dq/lib/libsdk.a(pcie_phy.o)
                              /home/leon/git/swp-report/iMX6_Platform_SDK/output/mx6dq/lib/libsdk.a(pcie.o) (pcie_phy_cr_read)
/home/leon/git/swp-report/iMX6_Platform_SDK/output/mx6dq/lib/libsdk.a(pcie_prot.o)
                              /home/leon/git/swp-report/iMX6_Platform_SDK/output/mx6dq/sdk_unit_test/smart_device_rev_a/libsdk_unit_test.a(pcie_test_rc.o) (pcie_dump_cfg_header)
/home/leon/git/swp-report/iMX6_Platform_SDK/output/mx6dq/lib/libsdk.a(pmu_driver.o)
                              /home/leon/git/swp-report/iMX6_Platform_SDK/output/mx6dq/lib/libsdk.a(cpu_workpoint.o) (pmu_init)
/home/leon/git/swp-report/iMX6_Platform_SDK/output/mx6dq/lib/libsdk.a(pwm.o)
                              /home/leon/git/swp-report/iMX6_Platform_SDK/output/mx6dq/sdk_unit_test/smart_device_rev_a/libsdk_unit_test.a(pwm_output.o) (pwm_init)
/home/leon/git/swp-report/iMX6_Platform_SDK/output/mx6dq/lib/libsdk.a(rtc.o)
                              /home/leon/git/swp-report/iMX6_Platform_SDK/output/mx6dq/sdk_unit_test/smart_device_rev_a/libsdk_unit_test.a(snvs_rtc_test.o) (rtc_init)
/home/leon/git/swp-report/iMX6_Platform_SDK/output/mx6dq/lib/libsdk.a(srtc.o)
                              /home/leon/git/swp-report/iMX6_Platform_SDK/output/mx6dq/sdk_unit_test/smart_device_rev_a/libsdk_unit_test.a(snvs_srtc_test.o) (srtc_init)
/home/leon/git/swp-report/iMX6_Platform_SDK/output/mx6dq/lib/libsdk.a(sata.o)
                              /home/leon/git/swp-report/iMX6_Platform_SDK/output/mx6dq/sdk_unit_test/smart_device_rev_a/libsdk_unit_test.a(sata_test.o) (sata_disk_read_sector)
/home/leon/git/swp-report/iMX6_Platform_SDK/output/mx6dq/lib/libsdk.a(sdma.o)
                              /home/leon/git/swp-report/iMX6_Platform_SDK/output/mx6dq/sdk_unit_test/smart_device_rev_a/libsdk_unit_test.a(spi_lpb.o) (sdma_channel_start)
/home/leon/git/swp-report/iMX6_Platform_SDK/output/mx6dq/lib/libsdk.a(sdma_script_info.o)
                              /home/leon/git/swp-report/iMX6_Platform_SDK/output/mx6dq/lib/libsdk.a(sdma.o) (script_info)
/home/leon/git/swp-report/iMX6_Platform_SDK/output/mx6dq/lib/libsdk.a(snvs.o)
                              /home/leon/git/swp-report/iMX6_Platform_SDK/output/mx6dq/lib/libsdk.a(rtc.o) (snvs_rtc_counter)
/home/leon/git/swp-report/iMX6_Platform_SDK/output/mx6dq/lib/libsdk.a(ecspi.o)
                              /home/leon/git/swp-report/iMX6_Platform_SDK/output/mx6dq/sdk_unit_test/smart_device_rev_a/libsdk_unit_test.a(spi_test.o) (ecspi_configure)
/home/leon/git/swp-report/iMX6_Platform_SDK/output/mx6dq/lib/libsdk.a(tempmon.o)
                              /home/leon/git/swp-report/iMX6_Platform_SDK/output/mx6dq/sdk_unit_test/smart_device_rev_a/libsdk_unit_test.a(tempmon_test.o) (tempmon_get_temp)
/home/leon/git/swp-report/iMX6_Platform_SDK/output/mx6dq/lib/libsdk.a(gpt.o)
                              /home/leon/git/swp-report/iMX6_Platform_SDK/output/mx6dq/sdk_unit_test/smart_device_rev_a/libsdk_unit_test.a(gpt_test.o) (gpt_get_rollover_event)
/home/leon/git/swp-report/iMX6_Platform_SDK/output/mx6dq/lib/libsdk.a(usb_common.o)
                              /home/leon/git/swp-report/iMX6_Platform_SDK/output/mx6dq/sdk_unit_test/smart_device_rev_a/libsdk_unit_test.a(usb0_device_mouse_test.o) (usb_get_port_speed)
/home/leon/git/swp-report/iMX6_Platform_SDK/output/mx6dq/lib/libsdk.a(usbd_drv.o)
                              /home/leon/git/swp-report/iMX6_Platform_SDK/output/mx6dq/sdk_unit_test/smart_device_rev_a/libsdk_unit_test.a(usb0_device_mouse_test.o) (usbd_device_init)
/home/leon/git/swp-report/iMX6_Platform_SDK/output/mx6dq/lib/libsdk.a(usbh_drv.o)
                              /home/leon/git/swp-report/iMX6_Platform_SDK/output/mx6dq/sdk_unit_test/smart_device_rev_a/libsdk_unit_test.a(usb0_host_test.o) (usbh_init)
/home/leon/git/swp-report/iMX6_Platform_SDK/output/mx6dq/lib/libsdk.a(usdhc.o)
                              /home/leon/git/swp-report/iMX6_Platform_SDK/output/mx6dq/sdk_unit_test/smart_device_rev_a/libsdk_unit_test.a(usdhc_test.o) (set_card_access_mode)
/home/leon/git/swp-report/iMX6_Platform_SDK/output/mx6dq/lib/libsdk.a(usdhc_host.o)
                              /home/leon/git/swp-report/iMX6_Platform_SDK/output/mx6dq/lib/libsdk.a(usdhc.o) (usdhc1_isr)
/home/leon/git/swp-report/iMX6_Platform_SDK/output/mx6dq/lib/libsdk.a(usdhc_mmc.o)
                              /home/leon/git/swp-report/iMX6_Platform_SDK/output/mx6dq/lib/libsdk.a(usdhc.o) (mmc_init)
/home/leon/git/swp-report/iMX6_Platform_SDK/output/mx6dq/lib/libsdk.a(usdhc_sd.o)
                              /home/leon/git/swp-report/iMX6_Platform_SDK/output/mx6dq/lib/libsdk.a(usdhc.o) (sd_init)
/home/leon/git/swp-report/iMX6_Platform_SDK/output/mx6dq/lib/libsdk.a(spinlock.o)
                              /home/leon/git/swp-report/iMX6_Platform_SDK/output/mx6dq/lib/libsdk.a(keypad_port.o) (spinlock_init)
/home/leon/git/swp-report/iMX6_Platform_SDK/output/mx6dq/lib/libsdk.a(spinlock_lock_unlock.o)
                              /home/leon/git/swp-report/iMX6_Platform_SDK/output/mx6dq/lib/libsdk.a(keypad_port.o) (spinlock_lock)
/home/leon/git/swp-report/iMX6_Platform_SDK/output/mx6dq/lib/libsdk.a(camera_profile.o)
                              /home/leon/git/swp-report/iMX6_Platform_SDK/output/mx6dq/lib/libsdk.a(smd_sensor.o) (g_camera_profiles)
/home/leon/git/swp-report/iMX6_Platform_SDK/output/mx6dq/lib/libsdk.a(hdmi_common.o)
                              /home/leon/git/swp-report/iMX6_Platform_SDK/output/mx6dq/lib/libsdk.a(hdmi_tx.o) (isColorSpaceConversion)
/home/leon/git/swp-report/iMX6_Platform_SDK/output/mx6dq/lib/libsdk.a(mx6x_usb.o)
                              /home/leon/git/swp-report/iMX6_Platform_SDK/output/mx6dq/lib/libsdk.a(usbd_drv.o) (usbEnableClocks)
/home/leon/git/swp-report/iMX6_Platform_SDK/output/mx6dq/lib/libboard_smart_device_rev_a.a(board_audio.o)
                              /home/leon/git/swp-report/iMX6_Platform_SDK/output/mx6dq/lib/libsdk.a(smd_sensor.o) (audio_codec_power_on)
/home/leon/git/swp-report/iMX6_Platform_SDK/output/mx6dq/lib/libboard_smart_device_rev_a.a(board_camera.o)
                              /home/leon/git/swp-report/iMX6_Platform_SDK/output/mx6dq/lib/libsdk.a(smd_sensor.o) (g_camera_i2c_port)
/home/leon/git/swp-report/iMX6_Platform_SDK/output/mx6dq/lib/libboard_smart_device_rev_a.a(board_display.o)
                              /home/leon/git/swp-report/iMX6_Platform_SDK/output/mx6dq/lib/libsdk.a(ips_disp_panel.o) (lvds_power_on)
/home/leon/git/swp-report/iMX6_Platform_SDK/output/mx6dq/lib/libboard_smart_device_rev_a.a(board_hdmi.o)
                              /home/leon/git/swp-report/iMX6_Platform_SDK/output/mx6dq/lib/libsdk.a(ips_disp_panel.o) (hdmi_pgm_iomux)
/home/leon/git/swp-report/iMX6_Platform_SDK/output/mx6dq/lib/libboard_smart_device_rev_a.a(board_i2c.o)
                              /home/leon/git/swp-report/iMX6_Platform_SDK/output/mx6dq/sdk_unit_test/smart_device_rev_a/libsdk_unit_test.a(at24cxx.o) (g_at24cx_i2c_device)
/home/leon/git/swp-report/iMX6_Platform_SDK/output/mx6dq/lib/libboard_smart_device_rev_a.a(board_mipi.o)
                              /home/leon/git/swp-report/iMX6_Platform_SDK/output/mx6dq/lib/libsdk.a(ips_disp_panel.o) (mipi_backlight_en)
/home/leon/git/swp-report/iMX6_Platform_SDK/output/mx6dq/lib/libboard_smart_device_rev_a.a(board_network.o)
                              /home/leon/git/swp-report/iMX6_Platform_SDK/output/mx6dq/sdk_unit_test/smart_device_rev_a/libsdk_unit_test.a(enet_test.o) (imx_enet_iomux)
/home/leon/git/swp-report/iMX6_Platform_SDK/output/mx6dq/lib/libboard_smart_device_rev_a.a(board_pcie.o)
                              /home/leon/git/swp-report/iMX6_Platform_SDK/output/mx6dq/sdk_unit_test/smart_device_rev_a/libsdk_unit_test.a(pcie_test_rc.o) (pcie_clk_setup)
/home/leon/git/swp-report/iMX6_Platform_SDK/output/mx6dq/lib/libboard_smart_device_rev_a.a(board_sata.o)
                              /home/leon/git/swp-report/iMX6_Platform_SDK/output/mx6dq/lib/libsdk.a(sata.o) (sata_power_on)
/home/leon/git/swp-report/iMX6_Platform_SDK/output/mx6dq/lib/libboard_smart_device_rev_a.a(board_usb.o)
                              /home/leon/git/swp-report/iMX6_Platform_SDK/output/mx6dq/lib/libsdk.a(usbh_drv.o) (usbEnableVbus)
/home/leon/git/swp-report/iMX6_Platform_SDK/output/mx6dq/lib/libboard_smart_device_rev_a.a(board_usdhc.o)
                              /home/leon/git/swp-report/iMX6_Platform_SDK/output/mx6dq/lib/libsdk.a(usdhc_host.o) (usdhc_gpio_config)
/home/leon/git/swp-report/iMX6_Platform_SDK/output/mx6dq/lib/libboard_smart_device_rev_a.a(ecspi_iomux_config.o)
                              /home/leon/git/swp-report/iMX6_Platform_SDK/output/mx6dq/lib/libsdk.a(ecspi.o) (ecspi_iomux_config)
/home/leon/git/swp-report/iMX6_Platform_SDK/output/mx6dq/lib/libboard_smart_device_rev_a.a(i2c_iomux_config.o)
                              /home/leon/git/swp-report/iMX6_Platform_SDK/output/mx6dq/lib/libsdk.a(imx_i2c.o) (i2c_iomux_config)
/home/leon/git/swp-report/iMX6_Platform_SDK/output/mx6dq/lib/libboard_smart_device_rev_a.a(pwm_iomux_config.o)
                              /home/leon/git/swp-report/iMX6_Platform_SDK/output/mx6dq/sdk_unit_test/smart_device_rev_a/libsdk_unit_test.a(pwm_output.o) (pwm_iomux_config)
/home/leon/git/swp-report/iMX6_Platform_SDK/output/mx6dq/lib/libboard_smart_device_rev_a.a(usdhc_iomux_config.o)
                              /home/leon/git/swp-report/iMX6_Platform_SDK/output/mx6dq/lib/libsdk.a(usdhc_host.o) (usdhc_iomux_config)
/home/leon/riotboard/arm-2012.09/bin/../arm-none-eabi/lib//libstdc++.a(pure.o)
                              /home/leon/git/swp-report/iMX6_Platform_SDK/output/mx6dq/lib/libsdk.a(pmu_driver.o) (__cxa_pure_virtual)
/home/leon/riotboard/arm-2012.09/bin/../arm-none-eabi/lib//libstdc++.a(eh_terminate.o)
                              /home/leon/riotboard/arm-2012.09/bin/../arm-none-eabi/lib//libstdc++.a(pure.o) (std::terminate())
/home/leon/riotboard/arm-2012.09/bin/../arm-none-eabi/lib//libstdc++.a(eh_unex_handler.o)
                              /home/leon/riotboard/arm-2012.09/bin/../arm-none-eabi/lib//libstdc++.a(eh_terminate.o) (__cxxabiv1::__unexpected_handler)
/home/leon/riotboard/arm-2012.09/bin/../arm-none-eabi/lib//libstdc++.a(eh_call.o)
                              /home/leon/riotboard/arm-2012.09/bin/../arm-none-eabi/lib//libstdc++.a(eh_terminate.o) (__cxa_call_unexpected)
/home/leon/riotboard/arm-2012.09/bin/../arm-none-eabi/lib//libstdc++.a(eh_throw.o)
                              /home/leon/riotboard/arm-2012.09/bin/../arm-none-eabi/lib//libstdc++.a(eh_call.o) (__cxa_throw)
/home/leon/riotboard/arm-2012.09/bin/../arm-none-eabi/lib//libstdc++.a(eh_arm.o)
                              /home/leon/riotboard/arm-2012.09/bin/../arm-none-eabi/lib//libstdc++.a(eh_terminate.o) (__cxa_end_cleanup)
/home/leon/riotboard/arm-2012.09/bin/../arm-none-eabi/lib//libstdc++.a(eh_exception.o)
                              /home/leon/riotboard/arm-2012.09/bin/../arm-none-eabi/lib//libstdc++.a(eh_call.o) (std::bad_exception::~bad_exception())
/home/leon/riotboard/arm-2012.09/bin/../arm-none-eabi/lib//libstdc++.a(eh_alloc.o)
                              /home/leon/riotboard/arm-2012.09/bin/../arm-none-eabi/lib//libstdc++.a(eh_call.o) (__cxa_allocate_exception)
/home/leon/riotboard/arm-2012.09/bin/../arm-none-eabi/lib//libstdc++.a(eh_globals.o)
                              /home/leon/riotboard/arm-2012.09/bin/../arm-none-eabi/lib//libstdc++.a(eh_call.o) (__cxa_get_globals_fast)
/home/leon/riotboard/arm-2012.09/bin/../arm-none-eabi/lib//libstdc++.a(si_class_type_info.o)
                              /home/leon/riotboard/arm-2012.09/bin/../arm-none-eabi/lib//libstdc++.a(eh_exception.o) (vtable for __cxxabiv1::__si_class_type_info)
/home/leon/riotboard/arm-2012.09/bin/../arm-none-eabi/lib//libstdc++.a(eh_personality.o)
                              /home/leon/riotboard/arm-2012.09/bin/../arm-none-eabi/lib//libstdc++.a(eh_terminate.o) (__gxx_personality_v0)
/home/leon/riotboard/arm-2012.09/bin/../arm-none-eabi/lib//libstdc++.a(eh_term_handler.o)
                              /home/leon/riotboard/arm-2012.09/bin/../arm-none-eabi/lib//libstdc++.a(eh_terminate.o) (__cxxabiv1::__terminate_handler)
/home/leon/riotboard/arm-2012.09/bin/../arm-none-eabi/lib//libstdc++.a(eh_catch.o)
                              /home/leon/riotboard/arm-2012.09/bin/../arm-none-eabi/lib//libstdc++.a(eh_terminate.o) (__cxa_begin_catch)
/home/leon/riotboard/arm-2012.09/bin/../arm-none-eabi/lib//libstdc++.a(class_type_info.o)
                              /home/leon/riotboard/arm-2012.09/bin/../arm-none-eabi/lib//libstdc++.a(si_class_type_info.o) (__cxxabiv1::__class_type_info::__do_upcast(__cxxabiv1::__class_type_info const*, void**) const)
/home/leon/riotboard/arm-2012.09/bin/../arm-none-eabi/lib//libstdc++.a(vterminate.o)
                              /home/leon/riotboard/arm-2012.09/bin/../arm-none-eabi/lib//libstdc++.a(eh_term_handler.o) (__gnu_cxx::__verbose_terminate_handler())
/home/leon/riotboard/arm-2012.09/bin/../arm-none-eabi/lib//libstdc++.a(cp-demangle.o)
                              /home/leon/riotboard/arm-2012.09/bin/../arm-none-eabi/lib//libstdc++.a(vterminate.o) (__cxa_demangle)
/home/leon/riotboard/arm-2012.09/bin/../arm-none-eabi/lib//libstdc++.a(eh_type.o)
                              /home/leon/riotboard/arm-2012.09/bin/../arm-none-eabi/lib//libstdc++.a(vterminate.o) (__cxa_current_exception_type)
/home/leon/riotboard/arm-2012.09/bin/../arm-none-eabi/lib//libstdc++.a(del_op.o)
                              /home/leon/riotboard/arm-2012.09/bin/../arm-none-eabi/lib//libstdc++.a(eh_exception.o) (operator delete(void*))
/home/leon/riotboard/arm-2012.09/bin/../arm-none-eabi/lib//libstdc++.a(tinfo.o)
                              /home/leon/riotboard/arm-2012.09/bin/../arm-none-eabi/lib//libstdc++.a(class_type_info.o) (std::type_info::~type_info())
/home/leon/riotboard/arm-2012.09/bin/../arm-none-eabi/lib//libc.a(lib_a-fwrite.o)
                              /home/leon/riotboard/arm-2012.09/bin/../arm-none-eabi/lib//libstdc++.a(vterminate.o) (fwrite)
/home/leon/riotboard/arm-2012.09/bin/../arm-none-eabi/lib//libc.a(lib_a-memcmp.o)
                              /home/leon/riotboard/arm-2012.09/bin/../arm-none-eabi/lib//libstdc++.a(cp-demangle.o) (memcmp)
/home/leon/riotboard/arm-2012.09/bin/../arm-none-eabi/lib//libc.a(lib_a-strncmp.o)
                              /home/leon/riotboard/arm-2012.09/bin/../arm-none-eabi/lib//libstdc++.a(cp-demangle.o) (strncmp)
/home/leon/riotboard/arm-2012.09/bin/../arm-none-eabi/lib//libc.a(lib_a-syswrite.o)
                              /home/leon/riotboard/arm-2012.09/bin/../arm-none-eabi/lib//libstdc++.a(pure.o) (write)
/home/leon/riotboard/arm-2012.09/bin/../lib/gcc/arm-none-eabi/4.7.2//libgcc.a(_divsi3.o)
                              /home/leon/git/swp-report/iMX6_Platform_SDK/output/mx6dq/lib/libsdk.a(ipu_common.o) (__aeabi_idiv)
/home/leon/riotboard/arm-2012.09/bin/../lib/gcc/arm-none-eabi/4.7.2//libgcc.a(unwind-arm.o)
                              /home/leon/riotboard/arm-2012.09/bin/../arm-none-eabi/lib//libstdc++.a(eh_throw.o) (__aeabi_unwind_cpp_pr0)
/home/leon/riotboard/arm-2012.09/bin/../lib/gcc/arm-none-eabi/4.7.2//libgcc.a(libunwind.o)
                              /home/leon/riotboard/arm-2012.09/bin/../lib/gcc/arm-none-eabi/4.7.2//libgcc.a(unwind-arm.o) (restore_core_regs)
/home/leon/riotboard/arm-2012.09/bin/../lib/gcc/arm-none-eabi/4.7.2//libgcc.a(pr-support.o)
                              /home/leon/riotboard/arm-2012.09/bin/../lib/gcc/arm-none-eabi/4.7.2//libgcc.a(unwind-arm.o) (__gnu_unwind_execute)
/home/leon/git/swp-report/iMX6_Platform_SDK/output/mx6dq/lib/libsdk.a(max7310.o)
                              /home/leon/git/swp-report/iMX6_Platform_SDK/output/mx6dq/lib/libboard_smart_device_rev_a.a(board_sata.o) (max7310_set_gpio_output)

Allocating common symbols
Common symbol       size              file

errno               0x4               /home/leon/riotboard/arm-2012.09/bin/../arm-none-eabi/lib//libc.a(lib_a-reent.o)

Discarded input sections

 .group         0x00000000        0x8 /home/leon/git/swp-report/iMX6_Platform_SDK/output/mx6dq/lib/libsdk.a(pmu_driver.o)
 .group         0x00000000        0x8 /home/leon/git/swp-report/iMX6_Platform_SDK/output/mx6dq/lib/libsdk.a(pmu_driver.o)
 .group         0x00000000        0x8 /home/leon/git/swp-report/iMX6_Platform_SDK/output/mx6dq/lib/libsdk.a(pmu_driver.o)
 .group         0x00000000        0x8 /home/leon/git/swp-report/iMX6_Platform_SDK/output/mx6dq/lib/libsdk.a(pmu_driver.o)
 .group         0x00000000        0x8 /home/leon/git/swp-report/iMX6_Platform_SDK/output/mx6dq/lib/libsdk.a(pmu_driver.o)
 .group         0x00000000        0x8 /home/leon/git/swp-report/iMX6_Platform_SDK/output/mx6dq/lib/libsdk.a(pmu_driver.o)
 .group         0x00000000        0x8 /home/leon/git/swp-report/iMX6_Platform_SDK/output/mx6dq/lib/libsdk.a(pmu_driver.o)
 .group         0x00000000        0x8 /home/leon/git/swp-report/iMX6_Platform_SDK/output/mx6dq/lib/libsdk.a(pmu_driver.o)
 .group         0x00000000        0x8 /home/leon/git/swp-report/iMX6_Platform_SDK/output/mx6dq/lib/libsdk.a(pmu_driver.o)
 .group         0x00000000        0x8 /home/leon/git/swp-report/iMX6_Platform_SDK/output/mx6dq/lib/libsdk.a(pmu_driver.o)
 .group         0x00000000        0x8 /home/leon/git/swp-report/iMX6_Platform_SDK/output/mx6dq/lib/libsdk.a(pmu_driver.o)
 .group         0x00000000        0x8 /home/leon/git/swp-report/iMX6_Platform_SDK/output/mx6dq/lib/libsdk.a(pmu_driver.o)
 .group         0x00000000        0x8 /home/leon/git/swp-report/iMX6_Platform_SDK/output/mx6dq/lib/libsdk.a(pmu_driver.o)
 .group         0x00000000        0x8 /home/leon/git/swp-report/iMX6_Platform_SDK/output/mx6dq/lib/libsdk.a(pmu_driver.o)
 .group         0x00000000        0x8 /home/leon/git/swp-report/iMX6_Platform_SDK/output/mx6dq/lib/libsdk.a(pmu_driver.o)
 .group         0x00000000        0x8 /home/leon/git/swp-report/iMX6_Platform_SDK/output/mx6dq/lib/libsdk.a(pmu_driver.o)
 .group         0x00000000        0x8 /home/leon/git/swp-report/iMX6_Platform_SDK/output/mx6dq/lib/libsdk.a(pmu_driver.o)
 .group         0x00000000        0x8 /home/leon/git/swp-report/iMX6_Platform_SDK/output/mx6dq/lib/libsdk.a(pmu_driver.o)
 .group         0x00000000        0x8 /home/leon/git/swp-report/iMX6_Platform_SDK/output/mx6dq/lib/libsdk.a(pmu_driver.o)
 .group         0x00000000        0x8 /home/leon/git/swp-report/iMX6_Platform_SDK/output/mx6dq/lib/libsdk.a(pmu_driver.o)
 .group         0x00000000        0x8 /home/leon/git/swp-report/iMX6_Platform_SDK/output/mx6dq/lib/libsdk.a(pmu_driver.o)
 .group         0x00000000        0x8 /home/leon/git/swp-report/iMX6_Platform_SDK/output/mx6dq/lib/libsdk.a(pmu_driver.o)
 .group         0x00000000        0x8 /home/leon/git/swp-report/iMX6_Platform_SDK/output/mx6dq/lib/libsdk.a(pmu_driver.o)
 .group         0x00000000        0x8 /home/leon/git/swp-report/iMX6_Platform_SDK/output/mx6dq/lib/libsdk.a(pmu_driver.o)
 .group         0x00000000        0x8 /home/leon/git/swp-report/iMX6_Platform_SDK/output/mx6dq/lib/libsdk.a(pmu_driver.o)
 .group         0x00000000        0x8 /home/leon/git/swp-report/iMX6_Platform_SDK/output/mx6dq/lib/libsdk.a(pmu_driver.o)
 .group         0x00000000        0x8 /home/leon/git/swp-report/iMX6_Platform_SDK/output/mx6dq/lib/libsdk.a(pmu_driver.o)
 .group         0x00000000        0x8 /home/leon/git/swp-report/iMX6_Platform_SDK/output/mx6dq/lib/libsdk.a(pmu_driver.o)
 .group         0x00000000        0x8 /home/leon/git/swp-report/iMX6_Platform_SDK/output/mx6dq/lib/libsdk.a(pmu_driver.o)
 .group         0x00000000        0x8 /home/leon/git/swp-report/iMX6_Platform_SDK/output/mx6dq/lib/libsdk.a(pmu_driver.o)
 .group         0x00000000        0x8 /home/leon/git/swp-report/iMX6_Platform_SDK/output/mx6dq/lib/libsdk.a(pmu_driver.o)
 .group         0x00000000        0x8 /home/leon/git/swp-report/iMX6_Platform_SDK/output/mx6dq/lib/libsdk.a(pmu_driver.o)
 .group         0x00000000        0x8 /home/leon/git/swp-report/iMX6_Platform_SDK/output/mx6dq/lib/libsdk.a(pmu_driver.o)
 .group         0x00000000        0x8 /home/leon/git/swp-report/iMX6_Platform_SDK/output/mx6dq/lib/libsdk.a(pmu_driver.o)
 .group         0x00000000        0x8 /home/leon/git/swp-report/iMX6_Platform_SDK/output/mx6dq/lib/libsdk.a(pmu_driver.o)
 .group         0x00000000        0x8 /home/leon/git/swp-report/iMX6_Platform_SDK/output/mx6dq/lib/libsdk.a(pmu_driver.o)
 .group         0x00000000        0x8 /home/leon/git/swp-report/iMX6_Platform_SDK/output/mx6dq/lib/libsdk.a(pmu_driver.o)
 .group         0x00000000        0x8 /home/leon/git/swp-report/iMX6_Platform_SDK/output/mx6dq/lib/libsdk.a(pmu_driver.o)
 .group         0x00000000        0x8 /home/leon/git/swp-report/iMX6_Platform_SDK/output/mx6dq/lib/libsdk.a(pmu_driver.o)

Memory Configuration

Name             Origin             Length             Attributes
OCRAM            0x00900000         0x00040000         xrw
DDR              0x10000000         0x40000000         xrw
*default*        0x00000000         0xffffffff

Linker script and memory map

LOAD /home/leon/riotboard/arm-2012.09/bin/../lib/gcc/arm-none-eabi/4.7.2//crtbegin.o
LOAD /home/leon/riotboard/arm-2012.09/bin/../lib/gcc/arm-none-eabi/4.7.2//crti.o
LOAD /home/leon/riotboard/arm-2012.09/bin/../lib/gcc/arm-none-eabi/4.7.2//crtend.o
LOAD /home/leon/riotboard/arm-2012.09/bin/../lib/gcc/arm-none-eabi/4.7.2//crtn.o

.l1_page_table  0x00900000     0x4000
                0x00900000                __l1_page_table_start = .
                0x00904000                . = (. + 0x4000)
 *fill*         0x00900000     0x4000 

.heap.ocram     0x00904000    0x3bfb8
                0x00904000                __heap_ocram_start = .
                0x0093ffb8                . = (. + 0x3bfb8)
 *fill*         0x00904000    0x3bfb8 
                0x0093ffb8                __heap_ocram_end = .

.ram_vectors    0x0093ffb8       0x48
                0x0093ffb8                __ram_vectors_start = .
                0x00940000                . = (. + 0x48)
 *fill*         0x0093ffb8       0x48 
                0x00940000                __ram_vectors_end = .
                0x10000000                _start_image_add = ORIGIN (DDR)

.ivt            0x10000000      0x420
                0x10000400                . = (. + 0x400)
 *fill*         0x10000000      0x400 
 *(.ivt)
 .ivt           0x10000400       0x20 /home/leon/git/swp-report/iMX6_Platform_SDK/output/mx6dq/sdk_unit_test/smart_device_rev_a/obj/apps/common/ivt.o
                0x10000400                input_ivt

.boot_data      0x10000420        0xc
                0x10000420                __start_boot_data = .
 *(.boot_data)
 .boot_data     0x10000420        0xc /home/leon/git/swp-report/iMX6_Platform_SDK/output/mx6dq/sdk_unit_test/smart_device_rev_a/obj/apps/common/ivt.o
                0x10000420                bd

.dcd_hdr        0x10000430        0x4
                0x10000430                __start_dcd = .
 *(.dcd_hdr)
 .dcd_hdr       0x10000430        0x4 /home/leon/git/swp-report/iMX6_Platform_SDK/output/mx6dq/lib/libboard_smart_device_rev_a.a(dcd.o)
                0x10000430                input_dcd_hdr

.dcd_wrt_cmd    0x10000434        0x4
 *(.dcd_wrt_cmd)
 .dcd_wrt_cmd   0x10000434        0x4 /home/leon/git/swp-report/iMX6_Platform_SDK/output/mx6dq/lib/libboard_smart_device_rev_a.a(dcd.o)
                0x10000434                input_dcd_wrt_cmd

.dcd_data       0x10000438      0x298
 *(.dcd_data)
 .dcd_data      0x10000438      0x298 /home/leon/git/swp-report/iMX6_Platform_SDK/output/mx6dq/lib/libboard_smart_device_rev_a.a(dcd.o)
                0x10000438                input_dcd

.text           0x100006d0    0x685e0
 CREATE_OBJECT_SYMBOLS
 *(.startup)
 .startup       0x100006d0      0x138 /home/leon/git/swp-report/iMX6_Platform_SDK/output/mx6dq/lib/libsdk.a(startup.o)
                0x100006d0                _start
 *(.text .text.* .gnu.linkonce.t.*)
 .text          0x10000808      0x128 /home/leon/riotboard/arm-2012.09/bin/../lib/gcc/arm-none-eabi/4.7.2//crtbegin.o
 .text          0x10000930        0x0 /home/leon/riotboard/arm-2012.09/bin/../lib/gcc/arm-none-eabi/4.7.2//crti.o
 .text          0x10000930        0x0 /home/leon/riotboard/arm-2012.09/bin/../lib/gcc/arm-none-eabi/4.7.2//crtend.o
 .text          0x10000930        0x0 /home/leon/riotboard/arm-2012.09/bin/../lib/gcc/arm-none-eabi/4.7.2//crtn.o
 .text          0x10000930        0x0 /home/leon/git/swp-report/iMX6_Platform_SDK/output/mx6dq/sdk_unit_test/smart_device_rev_a/obj/apps/common/ivt.o
 .text          0x10000930       0xbc /home/leon/git/swp-report/iMX6_Platform_SDK/output/mx6dq/sdk_unit_test/smart_device_rev_a/obj/apps/common/platform_init.o
                0x10000930                platform_init
 .text          0x100009ec       0xfc /home/leon/git/swp-report/iMX6_Platform_SDK/output/mx6dq/sdk_unit_test/smart_device_rev_a/obj/apps/common/print_clock_info.o
                0x100009ec                show_freq
                0x10000ad8                show_ddr_config
 .text          0x10000ae8      0x15c /home/leon/git/swp-report/iMX6_Platform_SDK/output/mx6dq/sdk_unit_test/smart_device_rev_a/obj/apps/common/print_version.o
                0x10000ae8                print_version
 .text          0x10000c44       0x50 /home/leon/git/swp-report/iMX6_Platform_SDK/output/mx6dq/sdk_unit_test/smart_device_rev_a/obj/apps/sdk_unit_test/src/all_test.o
                0x10000c44                run_test
                0x10000c78                ALL_test
 .text          0x10000c94       0x2c /home/leon/git/swp-report/iMX6_Platform_SDK/output/mx6dq/sdk_unit_test/smart_device_rev_a/obj/apps/sdk_unit_test/src/unit_test_main.o
                0x10000c94                main
 .text          0x10000cc0      0xcdc /home/leon/git/swp-report/iMX6_Platform_SDK/output/mx6dq/lib/libsdk.a(ccm_pll.o)
                0x10000cc0                ccm_init
                0x10000de4                get_main_clock
                0x10001074                get_peri_clock
                0x10001224                ccm_ccgr_config
                0x1000128c                clock_gating_config
                0x1000170c                ccm_set_lpm_wakeup_source
                0x10001800                ccm_enter_low_power
                0x10001870                ipu_hsp_clk_config
                0x10001890                gpu_clock_config
 .text          0x1000199c      0x164 /home/leon/git/swp-report/iMX6_Platform_SDK/output/mx6dq/lib/libsdk.a(cortexA9.o)
                0x1000199c                arm_set_interrupt_state
                0x100019c0                cpu_get_current
                0x100019cc                enable_neon_fpu
                0x100019e8                disable_strict_align_check
                0x100019fc                disable_L1_cache
                0x10001a1c                get_arm_private_peripheral_base
                0x10001a24                arm_unified_tlb_invalidate
                0x10001a34                arm_unified_tlb_invalidate_is
                0x10001a44                arm_branch_prediction_enable
                0x10001a54                arm_branch_prediction_disable
                0x10001a64                arm_branch_target_cache_invalidate
                0x10001a70                arm_branch_target_cache_invalidate_is
                0x10001a7c                scu_enable
                0x10001a90                scu_join_smp
                0x10001aa0                scu_leave_smp
                0x10001ab0                scu_get_cpus_in_smp
                0x10001ac4                scu_enable_maintenance_broadcast
                0x10001ad4                scu_disable_maintenance_broadcast
                0x10001ae4                scu_secure_invalidate
 .text          0x10001b00      0x5e0 /home/leon/git/swp-report/iMX6_Platform_SDK/output/mx6dq/lib/libsdk.a(gic.o)
                0x10001be4                gic_enable
                0x10001c44                gic_set_irq_security
                0x10001cec                gic_enable_irq
                0x10001d68                gic_set_irq_priority
                0x10001db0                gic_set_cpu_target
                0x10001ebc                gic_send_sgi
                0x10001f10                gic_cpu_enable
                0x10001f70                gic_set_cpu_priority_mask
                0x10001fa4                gic_read_irq_ack
                0x10001fd0                gic_write_end_of_irq
                0x10002000                gic_init
                0x100020a4                gic_init_cpu
 .text          0x100020e0      0x460 /home/leon/git/swp-report/iMX6_Platform_SDK/output/mx6dq/lib/libsdk.a(mmu.o)
                0x100020e0                mmu_enable
                0x10002118                mmu_disable
                0x1000214c                mmu_init
                0x10002268                mmu_map_l1_range
                0x10002480                mmu_virtual_to_physical
 .text          0x10002540        0x0 /home/leon/git/swp-report/iMX6_Platform_SDK/output/mx6dq/lib/libsdk.a(startup.o)
 .text          0x10002540        0x4 /home/leon/git/swp-report/iMX6_Platform_SDK/output/mx6dq/lib/libsdk.a(vectors.o)
                0x10002540                exception_handler
 .text.vectors  0x10002544       0x48 /home/leon/git/swp-report/iMX6_Platform_SDK/output/mx6dq/lib/libsdk.a(vectors.o)
                0x10002544                vectors
 .text          0x1000258c      0xc78 /home/leon/git/swp-report/iMX6_Platform_SDK/output/mx6dq/lib/libsdk.a(menu.o)
                0x10002a34                menu_get_indent
                0x10002a50                menuitem_cmd_showmenu
                0x10002a74                menuitem_cmd_exitmenu
                0x10002a98                menu_append_menuitems
                0x10002bb8                menu_present
                0x10003154                menu_print_menuitem
 .text          0x10003204        0x0 /home/leon/git/swp-report/iMX6_Platform_SDK/output/mx6dq/lib/libsdk.a(sdk_version.o)
 .text          0x10003204      0x914 /home/leon/git/swp-report/iMX6_Platform_SDK/output/mx6dq/lib/libsdk.a(system_util.o)
                0x10003204                _sys_exit
                0x10003220                mybkpt
                0x10003228                is_input_char
                0x100033a8                read_input_string
                0x10003690                get_input_hex
                0x10003910                read_int
                0x10003a74                jump_to_sdp
 .text          0x10003b18       0xe0 /home/leon/git/swp-report/iMX6_Platform_SDK/output/mx6dq/lib/libsdk.a(text_color.o)
                0x10003b18                printf_color
                0x10003bb4                get_color_supported
 .text          0x10003bf8      0x7c4 /home/leon/git/swp-report/iMX6_Platform_SDK/output/mx6dq/lib/libsdk.a(board_id.o)
                0x10003bf8                chip_name
                0x10003d10                chip_revision
                0x10003de8                board_name
                0x10003eec                board_revision
                0x10003fb4                board_description
                0x100040d4                get_board_id
                0x100041b0                show_board_id
 .text          0x100043bc      0x290 /home/leon/git/swp-report/iMX6_Platform_SDK/output/mx6dq/lib/libsdk.a(timer.o)
                0x100043bc                hal_delay_us
                0x1000442c                system_time_init
                0x1000458c                time_get_microseconds
 .text          0x1000464c     0x2820 /home/leon/git/swp-report/iMX6_Platform_SDK/output/mx6dq/lib/libsdk.a(imx_uart.o)
                0x1000464c                uart_get_reffreq
                0x10004748                uart_putchar
                0x10004898                uart_getchar
                0x100049f8                uart_set_FIFO_mode
                0x10005524                uart_set_loopback_mode
                0x10005778                uart_setup_interrupt
                0x10005844                uart_init
 .text          0x10006e6c       0x98 /home/leon/git/swp-report/iMX6_Platform_SDK/output/mx6dq/lib/libsdk.a(arm_abort.o)
                0x10006e6c                common_abort_handler
                0x10006ecc                data_abort_handler
                0x10006ee4                prefetch_abort_handler
 .text          0x10006f04      0x1bc /home/leon/git/swp-report/iMX6_Platform_SDK/output/mx6dq/lib/libsdk.a(interrupt.o)
                0x10006f04                IRQ_HDLR
                0x10006fcc                disable_interrupt
                0x10007008                enable_interrupt
                0x10007060                register_interrupt_routine
                0x10007094                default_interrupt_routine
 .text          0x100070c0      0x8e0 /home/leon/git/swp-report/iMX6_Platform_SDK/output/mx6dq/lib/libsdk.a(epit.o)
                0x100070c0                epit_reload_counter
                0x10007120                epit_get_counter_value
                0x1000717c                epit_set_compare_event
                0x100071dc                epit_get_compare_event
                0x100072d4                epit_counter_disable
                0x10007498                epit_counter_enable
                0x100076f4                epit_setup_interrupt
                0x10007784                epit_init
 .text          0x100079a0      0x4bc /home/leon/git/swp-report/iMX6_Platform_SDK/output/mx6dq/lib/libsdk.a(abort_handler.o)
                0x100079a0                dump_regs
 .text          0x10007e5c       0x20 /home/leon/git/swp-report/iMX6_Platform_SDK/output/mx6dq/lib/libboard_smart_device_rev_a.a(board_io_expanders.o)
                0x10007e5c                board_ioexpander_init
                0x10007e6c                board_ioexpander_iomux_config
 .text          0x10007e7c        0x0 /home/leon/git/swp-report/iMX6_Platform_SDK/output/mx6dq/lib/libboard_smart_device_rev_a.a(hardware_modules.o)
 .text          0x10007e7c        0x0 /home/leon/git/swp-report/iMX6_Platform_SDK/output/mx6dq/lib/libboard_smart_device_rev_a.a(dcd.o)
 .text          0x10007e7c       0x90 /home/leon/git/swp-report/iMX6_Platform_SDK/output/mx6dq/lib/libboard_smart_device_rev_a.a(uart_iomux_config.o)
                0x10007e7c                uart_iomux_config
 .text          0x10007f0c      0x304 /home/leon/git/swp-report/iMX6_Platform_SDK/output/mx6dq/lib/libboard_smart_device_rev_a.a(iomux_config.o)
                0x10007f0c                iomux_config
                0x10007f80                arm_iomux_config
                0x10007f90                asrc_iomux_config
                0x10007fa0                dcic1_iomux_config
                0x10007fb0                dcic2_iomux_config
                0x10007fc0                ecspi2_iomux_config
                0x10007fd0                ecspi3_iomux_config
                0x10007fe0                ecspi4_iomux_config
                0x10007ff0                ecspi5_iomux_config
                0x10008000                eim_iomux_config
                0x10008010                epit1_iomux_config
                0x10008020                epit2_iomux_config
                0x10008030                esai_iomux_config
                0x10008040                flexcan2_iomux_config
                0x10008050                gpmi_iomux_config
                0x10008060                gpt_iomux_config
                0x10008070                hdmi_iomux_config
                0x10008080                ipu2_iomux_config
                0x10008090                ldb_iomux_config
                0x100080a0                mipi_csi_iomux_config
                0x100080b0                mipi_dsi_iomux_config
                0x100080c0                mipi_hsi_iomux_config
                0x100080d0                mlb_iomux_config
                0x100080e0                pcie_iomux_config
                0x100080f0                pmu_iomux_config
                0x10008100                pwm2_iomux_config
                0x10008110                pwm3_iomux_config
                0x10008120                pwm4_iomux_config
                0x10008130                sata_phy_iomux_config
                0x10008140                sdma_iomux_config
                0x10008150                snvs_iomux_config
                0x10008160                spdif_iomux_config
                0x10008170                src_iomux_config
                0x10008180                uart2_iomux_config
                0x10008190                uart3_iomux_config
                0x100081a0                uart4_iomux_config
                0x100081b0                uart5_iomux_config
                0x100081c0                usb_iomux_config
                0x100081d0                usdhc1_iomux_config
                0x100081e0                wdog1_iomux_config
                0x100081f0                wdog2_iomux_config
                0x10008200                xtalosc_iomux_config
 .text          0x10008210      0x5b0 /home/leon/git/swp-report/iMX6_Platform_SDK/output/mx6dq/lib/libboard_smart_device_rev_a.a(ipu1_iomux_config.o)
                0x10008210                ipu1_iomux_config
 .text          0x100087c0      0x190 /home/leon/git/swp-report/iMX6_Platform_SDK/output/mx6dq/lib/libboard_smart_device_rev_a.a(kpp_iomux_config.o)
                0x100087c0                kpp_iomux_config
 .text          0x10008950     0x2884 /home/leon/git/swp-report/iMX6_Platform_SDK/output/mx6dq/lib/libboard_smart_device_rev_a.a(mmdc_iomux_config.o)
                0x10008950                mmdc_iomux_config
 .text          0x1000b1d4       0x34 /home/leon/git/swp-report/iMX6_Platform_SDK/output/mx6dq/lib/libboard_smart_device_rev_a.a(pwm1_iomux_config.o)
                0x1000b1d4                pwm1_iomux_config
 .text          0x1000b208       0x70 /home/leon/git/swp-report/iMX6_Platform_SDK/output/mx6dq/lib/libboard_smart_device_rev_a.a(sjc_iomux_config.o)
                0x1000b208                sjc_iomux_config
 .text          0x1000b278       0x78 /home/leon/git/swp-report/iMX6_Platform_SDK/output/mx6dq/lib/libboard_smart_device_rev_a.a(uart1_iomux_config.o)
                0x1000b278                uart1_iomux_config
 .text          0x1000b2f0      0x178 /home/leon/git/swp-report/iMX6_Platform_SDK/output/mx6dq/lib/libboard_smart_device_rev_a.a(usdhc2_iomux_config.o)
                0x1000b2f0                usdhc2_iomux_config
 .text          0x1000b468      0x178 /home/leon/git/swp-report/iMX6_Platform_SDK/output/mx6dq/lib/libboard_smart_device_rev_a.a(usdhc3_iomux_config.o)
                0x1000b468                usdhc3_iomux_config
 .text          0x1000b5e0      0x178 /home/leon/git/swp-report/iMX6_Platform_SDK/output/mx6dq/lib/libboard_smart_device_rev_a.a(usdhc4_iomux_config.o)
                0x1000b5e0                usdhc4_iomux_config
 .text          0x1000b758       0xa0 /home/leon/git/swp-report/iMX6_Platform_SDK/output/mx6dq/lib/libboard_smart_device_rev_a.a(audmux_iomux_config.o)
                0x1000b758                audmux_iomux_config
 .text          0x1000b7f8       0x34 /home/leon/git/swp-report/iMX6_Platform_SDK/output/mx6dq/lib/libboard_smart_device_rev_a.a(ccm_iomux_config.o)
                0x1000b7f8                ccm_iomux_config
 .text          0x1000b82c       0xe0 /home/leon/git/swp-report/iMX6_Platform_SDK/output/mx6dq/lib/libboard_smart_device_rev_a.a(ecspi1_iomux_config.o)
                0x1000b82c                ecspi1_iomux_config
 .text          0x1000b90c      0x3bc /home/leon/git/swp-report/iMX6_Platform_SDK/output/mx6dq/lib/libboard_smart_device_rev_a.a(enet_iomux_config.o)
                0x1000b90c                enet_iomux_config
 .text          0x1000bcc8       0x68 /home/leon/git/swp-report/iMX6_Platform_SDK/output/mx6dq/lib/libboard_smart_device_rev_a.a(flexcan1_iomux_config.o)
                0x1000bcc8                flexcan1_iomux_config
 .text          0x1000bd30      0x274 /home/leon/git/swp-report/iMX6_Platform_SDK/output/mx6dq/lib/libboard_smart_device_rev_a.a(gpio1_iomux_config.o)
                0x1000bd30                gpio1_iomux_config
 .text          0x1000bfa4      0x164 /home/leon/git/swp-report/iMX6_Platform_SDK/output/mx6dq/lib/libboard_smart_device_rev_a.a(gpio2_iomux_config.o)
                0x1000bfa4                gpio2_iomux_config
 .text          0x1000c108      0x258 /home/leon/git/swp-report/iMX6_Platform_SDK/output/mx6dq/lib/libboard_smart_device_rev_a.a(gpio3_iomux_config.o)
                0x1000c108                gpio3_iomux_config
 .text          0x1000c360       0xa0 /home/leon/git/swp-report/iMX6_Platform_SDK/output/mx6dq/lib/libboard_smart_device_rev_a.a(gpio4_iomux_config.o)
                0x1000c360                gpio4_iomux_config
 .text          0x1000c400       0x50 /home/leon/git/swp-report/iMX6_Platform_SDK/output/mx6dq/lib/libboard_smart_device_rev_a.a(gpio5_iomux_config.o)
                0x1000c400                gpio5_iomux_config
 .text          0x1000c450      0x150 /home/leon/git/swp-report/iMX6_Platform_SDK/output/mx6dq/lib/libboard_smart_device_rev_a.a(gpio6_iomux_config.o)
                0x1000c450                gpio6_iomux_config
 .text          0x1000c5a0       0x7c /home/leon/git/swp-report/iMX6_Platform_SDK/output/mx6dq/lib/libboard_smart_device_rev_a.a(gpio7_iomux_config.o)
                0x1000c5a0                gpio7_iomux_config
 .text          0x1000c61c       0xdc /home/leon/git/swp-report/iMX6_Platform_SDK/output/mx6dq/lib/libboard_smart_device_rev_a.a(gps_iomux_config.o)
                0x1000c61c                gps_iomux_config
 .text          0x1000c6f8       0x78 /home/leon/git/swp-report/iMX6_Platform_SDK/output/mx6dq/lib/libboard_smart_device_rev_a.a(i2c1_iomux_config.o)
                0x1000c6f8                i2c1_iomux_config
 .text          0x1000c770       0x78 /home/leon/git/swp-report/iMX6_Platform_SDK/output/mx6dq/lib/libboard_smart_device_rev_a.a(i2c2_iomux_config.o)
                0x1000c770                i2c2_iomux_config
 .text          0x1000c7e8       0x78 /home/leon/git/swp-report/iMX6_Platform_SDK/output/mx6dq/lib/libboard_smart_device_rev_a.a(i2c3_iomux_config.o)
                0x1000c7e8                i2c3_iomux_config
 .text          0x1000c860      0x1fc /home/leon/git/swp-report/iMX6_Platform_SDK/output/mx6dq/sdk_unit_test/smart_device_rev_a/libsdk_unit_test.a(cpu_wp_test.o)
                0x1000c860                my_memcpy
                0x1000c89c                memcpy_perf_record
                0x1000c984                cpu_wp_test
 .text          0x1000ca5c      0x20c /home/leon/git/swp-report/iMX6_Platform_SDK/output/mx6dq/sdk_unit_test/smart_device_rev_a/libsdk_unit_test.a(multicore_test.o)
                0x1000ca5c                SGI3_ISR
                0x1000caf8                multicore_entry
                0x1000cc50                multicore_test
 .text          0x1000cc68      0x2d0 /home/leon/git/swp-report/iMX6_Platform_SDK/output/mx6dq/sdk_unit_test/smart_device_rev_a/libsdk_unit_test.a(audio_test.o)
                0x1000cc68                audio_test
 .text          0x1000cf38        0x0 /home/leon/git/swp-report/iMX6_Platform_SDK/output/mx6dq/sdk_unit_test/smart_device_rev_a/libsdk_unit_test.a(wav_file.o)
 .text          0x1000cf38       0xc4 /home/leon/git/swp-report/iMX6_Platform_SDK/output/mx6dq/sdk_unit_test/smart_device_rev_a/libsdk_unit_test.a(gic_test.o)
                0x1000cf38                gic_sgi_test_handler
                0x1000cf64                gic_test
 .text          0x1000cffc      0x3ec /home/leon/git/swp-report/iMX6_Platform_SDK/output/mx6dq/sdk_unit_test/smart_device_rev_a/libsdk_unit_test.a(ocotp_test.o)
                0x1000cffc                ocotp_test
 .text          0x1000d3e8      0x128 /home/leon/git/swp-report/iMX6_Platform_SDK/output/mx6dq/sdk_unit_test/smart_device_rev_a/libsdk_unit_test.a(i2c_test.o)
                0x1000d3e8                i2c_test
 .text          0x1000d510      0x884 /home/leon/git/swp-report/iMX6_Platform_SDK/output/mx6dq/sdk_unit_test/smart_device_rev_a/libsdk_unit_test.a(imx6_i2c_device.o)
                0x1000d510                imx6_slave_receive
                0x1000d648                imx6_slave_transmit
                0x1000d834                i2c_imx6_slave_test
 .text          0x1000dd94      0x340 /home/leon/git/swp-report/iMX6_Platform_SDK/output/mx6dq/sdk_unit_test/smart_device_rev_a/libsdk_unit_test.a(snvs_rtc_test.o)
                0x1000dd94                one_time_tick_callback
                0x1000ddc0                periodic_tick_callback
                0x1000de10                one_time_timer_test
                0x1000ded8                periodic_timer_test
                0x1000dfac                snvs_rtc_test
 .text          0x1000e0d4      0x1fc /home/leon/git/swp-report/iMX6_Platform_SDK/output/mx6dq/sdk_unit_test/smart_device_rev_a/libsdk_unit_test.a(snvs_srtc_test.o)
                0x1000e0d4                srtc_one_time_tick_callback
                0x1000e100                srtc_one_time_timer_test
                0x1000e1c4                snvs_srtc_test
 .text          0x1000e2d0      0x290 /home/leon/git/swp-report/iMX6_Platform_SDK/output/mx6dq/sdk_unit_test/smart_device_rev_a/libsdk_unit_test.a(tempmon_test.o)
                0x1000e2d0                over_temp_callback
                0x1000e304                print_current_temp
                0x1000e33c                tempmon_test
 .text          0x1000e560      0x1f4 /home/leon/git/swp-report/iMX6_Platform_SDK/output/mx6dq/sdk_unit_test/smart_device_rev_a/libsdk_unit_test.a(sdma_test.o)
                0x1000e560                sdma_test
 .text          0x1000e754      0xa1c /home/leon/git/swp-report/iMX6_Platform_SDK/output/mx6dq/sdk_unit_test/smart_device_rev_a/libsdk_unit_test.a(spi_lpb.o)
                0x1000e854                ecspi_app_test
                0x1000ece4                ecspi_shp_test
 .text          0x1000f170      0xfbc /home/leon/git/swp-report/iMX6_Platform_SDK/output/mx6dq/sdk_unit_test/smart_device_rev_a/libsdk_unit_test.a(uart_loopback.o)
                0x1000f37c                uart_app_test
                0x1000f7f8                uart_shp_test
                0x1000fc84                uart5_trans_isr
                0x1000fcc0                uart_app_interrupt_test
 .text          0x1001012c      0x24c /home/leon/git/swp-report/iMX6_Platform_SDK/output/mx6dq/sdk_unit_test/smart_device_rev_a/libsdk_unit_test.a(uart_test.o)
                0x1001012c                uart_interrupt_handler
                0x10010184                uart_test
 .text          0x10010378      0x374 /home/leon/git/swp-report/iMX6_Platform_SDK/output/mx6dq/sdk_unit_test/smart_device_rev_a/libsdk_unit_test.a(epit_test.o)
                0x10010378                epit_test
 .text          0x100106ec      0x4fc /home/leon/git/swp-report/iMX6_Platform_SDK/output/mx6dq/sdk_unit_test/smart_device_rev_a/libsdk_unit_test.a(gpt_test.o)
                0x100106ec                gpt_test
                0x10010814                gpt_out_compare_test
                0x1001096c                gpt_interrupt_routine
                0x10010a00                gpt_in_capture_test
 .text          0x10010be8       0xb4 /home/leon/git/swp-report/iMX6_Platform_SDK/output/mx6dq/sdk_unit_test/smart_device_rev_a/libsdk_unit_test.a(timer_test.o)
                0x10010be8                microseconds_test
 .text          0x10010c9c      0xcf4 /home/leon/git/swp-report/iMX6_Platform_SDK/output/mx6dq/sdk_unit_test/smart_device_rev_a/libsdk_unit_test.a(usdhc_test.o)
                0x10010c9c                mmc_sd_test
                0x10010cd0                usdhc_test
 .text          0x10011990      0x1ec /home/leon/git/swp-report/iMX6_Platform_SDK/output/mx6dq/sdk_unit_test/smart_device_rev_a/libsdk_unit_test.a(pwm_test.o)
                0x10011990                pwm_test
 .text          0x10011b7c      0x244 /home/leon/git/swp-report/iMX6_Platform_SDK/output/mx6dq/sdk_unit_test/smart_device_rev_a/libsdk_unit_test.a(watchdog_test.o)
                0x10011d94                wdog_test
 .text          0x10011dc0      0x82c /home/leon/git/swp-report/iMX6_Platform_SDK/output/mx6dq/sdk_unit_test/smart_device_rev_a/libsdk_unit_test.a(hdmi_test.o)
                0x10011dc0                hdmi_test
                0x1001212c                init_hdmi_interrupt
                0x100121dc                hdmi_tx_ISR
                0x1001226c                hdmi_1080P60_video_output
                0x1001242c                hdmi_720P60_video_output
 .text          0x100125ec      0xd18 /home/leon/git/swp-report/iMX6_Platform_SDK/output/mx6dq/sdk_unit_test/smart_device_rev_a/libsdk_unit_test.a(ips_display.o)
                0x100125ec                ips_display_test
                0x10012728                ips_hdmi_stream
                0x10012888                ips_hdmi_720P60_stream
                0x10012b4c                ips_hdmi_1080P60_stream
                0x10012da4                ips_ext_hdmi_transmitter_1080P60_stream
                0x10012fc4                ips_hannstar_xga_yuv_stream
                0x10013264                ips_mipi_wvga_rgb_stream
 .text          0x10013304      0x238 /home/leon/git/swp-report/iMX6_Platform_SDK/output/mx6dq/sdk_unit_test/smart_device_rev_a/libsdk_unit_test.a(ips_test.o)
                0x10013304                ipu_test
 .text          0x1001353c      0x538 /home/leon/git/swp-report/iMX6_Platform_SDK/output/mx6dq/sdk_unit_test/smart_device_rev_a/libsdk_unit_test.a(ipu_image.o)
                0x1001353c                load_centralized_image
                0x10013678                load_foreground_image
                0x100136c4                load_horiz_image
                0x10013834                set_background_margin
                0x10013924                load_vert_image
 .text          0x10013a74      0x2b4 /home/leon/git/swp-report/iMX6_Platform_SDK/output/mx6dq/sdk_unit_test/smart_device_rev_a/libsdk_unit_test.a(keypad_test.o)
                0x10013a74                keypad_test
                0x10013b78                multiple_key_press_test
 .text          0x10013d28      0x204 /home/leon/git/swp-report/iMX6_Platform_SDK/output/mx6dq/sdk_unit_test/smart_device_rev_a/libsdk_unit_test.a(camera_test.o)
                0x10013d28                camera_test
 .text          0x10013f2c      0x2f0 /home/leon/git/swp-report/iMX6_Platform_SDK/output/mx6dq/sdk_unit_test/smart_device_rev_a/libsdk_unit_test.a(csi_test_mode.o)
                0x10013f2c                csi_test_mode
 .text          0x1001421c      0x2b8 /home/leon/git/swp-report/iMX6_Platform_SDK/output/mx6dq/sdk_unit_test/smart_device_rev_a/libsdk_unit_test.a(sensor_capture.o)
                0x1001421c                sensor_capture
 .text          0x100144d4      0x758 /home/leon/git/swp-report/iMX6_Platform_SDK/output/mx6dq/sdk_unit_test/smart_device_rev_a/libsdk_unit_test.a(pcie_test_rc.o)
                0x100144d4                pcie_test
 .text          0x10014c2c      0x194 /home/leon/git/swp-report/iMX6_Platform_SDK/output/mx6dq/sdk_unit_test/smart_device_rev_a/libsdk_unit_test.a(usb_test.o)
                0x10014c2c                usb_test
 .text          0x10014dc0      0x4d0 /home/leon/git/swp-report/iMX6_Platform_SDK/output/mx6dq/sdk_unit_test/smart_device_rev_a/libsdk_unit_test.a(enet_test.o)
                0x10014f64                enet_test
 .text          0x10015290      0x508 /home/leon/git/swp-report/iMX6_Platform_SDK/output/mx6dq/sdk_unit_test/smart_device_rev_a/libsdk_unit_test.a(spi_test.o)
                0x100155a4                spi_test
 .text          0x10015798      0x368 /home/leon/git/swp-report/iMX6_Platform_SDK/output/mx6dq/sdk_unit_test/smart_device_rev_a/libsdk_unit_test.a(accelerometer_test.o)
                0x10015798                accelerometer_test
 .text          0x10015b00      0x33c /home/leon/git/swp-report/iMX6_Platform_SDK/output/mx6dq/sdk_unit_test/smart_device_rev_a/libsdk_unit_test.a(sata_test.o)
                0x10015bc0                sata_test
 .text          0x10015e3c      0x2ac /home/leon/git/swp-report/iMX6_Platform_SDK/output/mx6dq/sdk_unit_test/smart_device_rev_a/libsdk_unit_test.a(at24cxx.o)
                0x10015ef0                i2c_eeprom_at24cxx_test
 .text          0x100160e8      0x404 /home/leon/git/swp-report/iMX6_Platform_SDK/output/mx6dq/sdk_unit_test/smart_device_rev_a/libsdk_unit_test.a(mem_2_mem.o)
                0x100160e8                mem_2_mem_test
 .text          0x100164ec      0x2f4 /home/leon/git/swp-report/iMX6_Platform_SDK/output/mx6dq/sdk_unit_test/smart_device_rev_a/libsdk_unit_test.a(pwm_output.o)
                0x10016578                pwm_output_test
 .text          0x100167e0      0x540 /home/leon/git/swp-report/iMX6_Platform_SDK/output/mx6dq/sdk_unit_test/smart_device_rev_a/libsdk_unit_test.a(init_dma_data.o)
                0x100167e0                init_dma_data
 .text          0x10016d20      0x37c /home/leon/git/swp-report/iMX6_Platform_SDK/output/mx6dq/sdk_unit_test/smart_device_rev_a/libsdk_unit_test.a(ips_combiner.o)
                0x10016d20                ips_combiner_test
 .text          0x1001709c      0x52c /home/leon/git/swp-report/iMX6_Platform_SDK/output/mx6dq/sdk_unit_test/smart_device_rev_a/libsdk_unit_test.a(ips_csc.o)
                0x1001709c                ips_csc_test
 .text          0x100175c8      0x738 /home/leon/git/swp-report/iMX6_Platform_SDK/output/mx6dq/sdk_unit_test/smart_device_rev_a/libsdk_unit_test.a(ips_resize.o)
                0x100175c8                ips_resize_test
 .text          0x10017d00      0x3e8 /home/leon/git/swp-report/iMX6_Platform_SDK/output/mx6dq/sdk_unit_test/smart_device_rev_a/libsdk_unit_test.a(ips_rotate.o)
                0x10017d00                ips_rotate_test
 .text          0x100180e8     0x16bc /home/leon/git/swp-report/iMX6_Platform_SDK/output/mx6dq/sdk_unit_test/smart_device_rev_a/libsdk_unit_test.a(usb0_device_mouse_test.o)
                0x100180e8                usb0_device_mouse_test
                0x10018f88                hid_device_enum
                0x10019568                fillBuffer
 .text          0x100197a4     0x39f0 /home/leon/git/swp-report/iMX6_Platform_SDK/output/mx6dq/sdk_unit_test/smart_device_rev_a/libsdk_unit_test.a(usb0_host_test.o)
                0x100197a4                usb0_host_test
                0x1001a2d8                emuerateDevice
                0x1001a458                usbh_set_device_address
                0x1001ab80                usbh_get_dev_desc
                0x1001b2d0                usbh_get_config_desc
                0x1001ba60                usbh_get_interface_desc
                0x1001c2d0                usbh_set_configuration
                0x1001ca0c                usbh_get_report_desc
 .text          0x1001d194      0x978 /home/leon/git/swp-report/iMX6_Platform_SDK/output/mx6dq/sdk_unit_test/smart_device_rev_a/libsdk_unit_test.a(usb0_host_testmodes_test.o)
                0x1001d194                usb0_host_testmodes_test
 .text          0x1001db0c      0xb00 /home/leon/git/swp-report/iMX6_Platform_SDK/output/mx6dq/sdk_unit_test/smart_device_rev_a/libsdk_unit_test.a(spi_nor_numonyx.o)
                0x1001dde4                spi_nor_query_numonyx
                0x1001deb0                spi_nor_erase_numonyx
                0x1001df3c                spi_nor_read_numonyx
                0x1001e184                spi_nor_write_numonyx
 .text          0x1001e60c       0xa4 /home/leon/riotboard/arm-2012.09/bin/../arm-none-eabi/lib//libm.a(lib_a-sf_cos.o)
                0x1001e60c                cosf
 .text          0x1001e6b0        0x8 /home/leon/riotboard/arm-2012.09/bin/../arm-none-eabi/lib//libm.a(lib_a-sf_fabs.o)
                0x1001e6b0                fabsf
 .text          0x1001e6b8       0x70 /home/leon/riotboard/arm-2012.09/bin/../arm-none-eabi/lib//libm.a(lib_a-sf_modf.o)
                0x1001e6b8                modff
 .text          0x1001e728       0xbc /home/leon/riotboard/arm-2012.09/bin/../arm-none-eabi/lib//libm.a(lib_a-sf_sin.o)
                0x1001e728                sinf
 .text          0x1001e7e4      0x460 /home/leon/riotboard/arm-2012.09/bin/../arm-none-eabi/lib//libm.a(lib_a-ef_rem_pio2.o)
                0x1001e7e4                __ieee754_rem_pio2f
 .text          0x1001ec44      0x214 /home/leon/riotboard/arm-2012.09/bin/../arm-none-eabi/lib//libm.a(lib_a-kf_cos.o)
                0x1001ec44                __kernel_cosf
 .text          0x1001ee58      0x960 /home/leon/riotboard/arm-2012.09/bin/../arm-none-eabi/lib//libm.a(lib_a-kf_rem_pio2.o)
                0x1001ee58                __kernel_rem_pio2f
 .text          0x1001f7b8      0x14c /home/leon/riotboard/arm-2012.09/bin/../arm-none-eabi/lib//libm.a(lib_a-kf_sin.o)
                0x1001f7b8                __kernel_sinf
 .text          0x1001f904       0xd0 /home/leon/riotboard/arm-2012.09/bin/../arm-none-eabi/lib//libm.a(lib_a-sf_floor.o)
                0x1001f904                floorf
 .text          0x1001f9d4      0x120 /home/leon/riotboard/arm-2012.09/bin/../arm-none-eabi/lib//libm.a(lib_a-sf_scalbn.o)
                0x1001f9d4                scalbnf
 .text          0x1001faf4       0x10 /home/leon/riotboard/arm-2012.09/bin/../arm-none-eabi/lib//libm.a(lib_a-sf_copysign.o)
                0x1001faf4                copysignf
 .text          0x1001fb04       0x68 /home/leon/riotboard/arm-2012.09/bin/../arm-none-eabi/lib//libc.a(lib_a-assert.o)
                0x1001fb04                __assert_func
                0x1001fb5c                __assert
 .text          0x1001fb6c       0x20 /home/leon/riotboard/arm-2012.09/bin/../arm-none-eabi/lib//libc.a(lib_a-bzero.o)
                0x1001fb6c                bzero
 .text          0x1001fb8c      0x26c /home/leon/riotboard/arm-2012.09/bin/../arm-none-eabi/lib//libc.a(lib_a-fflush.o)
                0x1001fb8c                _fflush_r
                0x1001fdb8                fflush
 .text          0x1001fdf8      0x2c4 /home/leon/riotboard/arm-2012.09/bin/../arm-none-eabi/lib//libc.a(lib_a-findfp.o)
                0x1001fe08                _cleanup_r
                0x1001fe9c                __sfmoreglue
                0x1001fee4                _cleanup
                0x1001fef4                __sinit
                0x1001ff6c                __sfp
                0x10020064                __sfp_lock_acquire
                0x10020068                __sfp_lock_release
                0x1002006c                __sinit_lock_acquire
                0x10020070                __sinit_lock_release
                0x10020074                __fp_lock_all
                0x10020098                __fp_unlock_all
 .text          0x100200bc       0x70 /home/leon/riotboard/arm-2012.09/bin/../arm-none-eabi/lib//libc.a(lib_a-fiprintf.o)
                0x100200bc                _fiprintf_r
                0x100200ec                fiprintf
 .text          0x1002012c       0x94 /home/leon/riotboard/arm-2012.09/bin/../arm-none-eabi/lib//libc.a(lib_a-fputc.o)
                0x1002012c                _fputc_r
                0x10020170                fputc
 .text          0x100201c0       0xa8 /home/leon/riotboard/arm-2012.09/bin/../arm-none-eabi/lib//libc.a(lib_a-fputs.o)
                0x100201c0                _fputs_r
                0x1002024c                fputs
 .text          0x10020268      0x368 /home/leon/riotboard/arm-2012.09/bin/../arm-none-eabi/lib//libc.a(lib_a-freer.o)
                0x10020268                _malloc_trim_r
                0x10020364                _free_r
 .text          0x100205d0      0x4c4 /home/leon/riotboard/arm-2012.09/bin/../arm-none-eabi/lib//libc.a(lib_a-fvwrite.o)
                0x100205d0                __sfvwrite_r
 .text          0x10020a94      0x114 /home/leon/riotboard/arm-2012.09/bin/../arm-none-eabi/lib//libc.a(lib_a-fwalk.o)
                0x10020a94                _fwalk
                0x10020b1c                _fwalk_reent
 .text          0x10020ba8        0x0 /home/leon/riotboard/arm-2012.09/bin/../arm-none-eabi/lib//libc.a(lib_a-impure.o)
 .text          0x10020ba8       0x88 /home/leon/riotboard/arm-2012.09/bin/../arm-none-eabi/lib//libc.a(lib_a-init.o)
                0x10020ba8                __libc_init_array
 .text          0x10020c30       0x40 /home/leon/riotboard/arm-2012.09/bin/../arm-none-eabi/lib//libc.a(lib_a-malloc.o)
                0x10020c30                malloc
                0x10020c50                free
 .text          0x10020c70      0x71c /home/leon/riotboard/arm-2012.09/bin/../arm-none-eabi/lib//libc.a(lib_a-mallocr.o)
                0x10020c70                _malloc_r
 .text          0x1002138c      0x11c /home/leon/riotboard/arm-2012.09/bin/../arm-none-eabi/lib//libc.a(lib_a-memchr.o)
                0x1002138c                memchr
 .text          0x100214a8      0x20c /home/leon/riotboard/arm-2012.09/bin/../arm-none-eabi/lib//libc.a(lib_a-memcpy.o)
                0x100214a8                memcpy
 .text          0x100216b4      0x134 /home/leon/riotboard/arm-2012.09/bin/../arm-none-eabi/lib//libc.a(lib_a-memmove.o)
                0x100216b4                memmove
 .text          0x100217e8      0x134 /home/leon/riotboard/arm-2012.09/bin/../arm-none-eabi/lib//libc.a(lib_a-memset.o)
                0x100217e8                memset
 .text          0x1002191c        0x8 /home/leon/riotboard/arm-2012.09/bin/../arm-none-eabi/lib//libc.a(lib_a-mlock.o)
                0x1002191c                __malloc_lock
                0x10021920                __malloc_unlock
 .text          0x10021924       0x74 /home/leon/riotboard/arm-2012.09/bin/../arm-none-eabi/lib//libc.a(lib_a-printf.o)
                0x10021924                _printf_r
                0x10021958                printf
 .text          0x10021998      0x170 /home/leon/riotboard/arm-2012.09/bin/../arm-none-eabi/lib//libc.a(lib_a-putc.o)
                0x10021998                _putc_r
                0x10021a48                putc
 .text          0x10021b08       0x28 /home/leon/riotboard/arm-2012.09/bin/../arm-none-eabi/lib//libc.a(lib_a-realloc.o)
                0x10021b08                realloc
 .text          0x10021b30      0x574 /home/leon/riotboard/arm-2012.09/bin/../arm-none-eabi/lib//libc.a(lib_a-reallocr.o)
                0x10021b30                _realloc_r
 .text          0x100220a4       0x6c /home/leon/riotboard/arm-2012.09/bin/../arm-none-eabi/lib//libc.a(lib_a-rget.o)
                0x100220a4                __srget_r
                0x100220fc                __srget
 .text          0x10022110       0x40 /home/leon/riotboard/arm-2012.09/bin/../arm-none-eabi/lib//libc.a(lib_a-sbrkr.o)
                0x10022110                _sbrk_r
 .text          0x10022150       0xdc /home/leon/riotboard/arm-2012.09/bin/../arm-none-eabi/lib//libc.a(lib_a-sprintf.o)
                0x10022150                _sprintf_r
                0x100221b8                sprintf
 .text          0x1002222c       0xdc /home/leon/riotboard/arm-2012.09/bin/../arm-none-eabi/lib//libc.a(lib_a-stdio.o)
                0x1002222c                __sread
                0x10022260                __seofread
                0x10022268                __swrite
                0x100222c0                __sseek
                0x100222f4                __sclose
 .text          0x10022308       0x60 /home/leon/riotboard/arm-2012.09/bin/../arm-none-eabi/lib//libc.a(lib_a-strlen.o)
                0x10022308                strlen
 .text          0x10022368       0x78 /home/leon/riotboard/arm-2012.09/bin/../arm-none-eabi/lib//libc.a(lib_a-strncasecmp.o)
                0x10022368                strncasecmp
 .text          0x100223e0     0x1f7c /home/leon/riotboard/arm-2012.09/bin/../arm-none-eabi/lib//libc.a(lib_a-svfprintf.o)
                0x100223e0                _svfprintf_r
 .text          0x1002435c     0x12c4 /home/leon/riotboard/arm-2012.09/bin/../arm-none-eabi/lib//libc.a(lib_a-vfiprintf.o)
                0x1002435c                __sprint_r
                0x10024418                _vfiprintf_r
                0x100255f4                vfiprintf
 .text          0x10025620     0x2180 /home/leon/riotboard/arm-2012.09/bin/../arm-none-eabi/lib//libc.a(lib_a-vfprintf.o)
                0x10025620                _vfprintf_r
                0x10027774                vfprintf
 .text          0x100277a0       0x4c /home/leon/riotboard/arm-2012.09/bin/../arm-none-eabi/lib//libc.a(lib_a-vprintf.o)
                0x100277a0                vprintf
                0x100277cc                _vprintf_r
 .text          0x100277ec      0x14c /home/leon/riotboard/arm-2012.09/bin/../arm-none-eabi/lib//libc.a(lib_a-wbuf.o)
                0x100277ec                __swbuf_r
                0x1002791c                __swbuf
 .text          0x10027938       0x44 /home/leon/riotboard/arm-2012.09/bin/../arm-none-eabi/lib//libc.a(lib_a-writer.o)
                0x10027938                _write_r
 .text          0x1002797c      0x138 /home/leon/riotboard/arm-2012.09/bin/../arm-none-eabi/lib//libc.a(lib_a-wsetup.o)
                0x1002797c                __swsetup_r
 .text          0x10027ab4       0x14 /home/leon/riotboard/arm-2012.09/bin/../arm-none-eabi/lib//libc.a(lib_a-abort.o)
                0x10027ab4                abort
 .text          0x10027ac8       0x3c /home/leon/riotboard/arm-2012.09/bin/../arm-none-eabi/lib//libc.a(lib_a-closer.o)
                0x10027ac8                _close_r
 .text          0x10027b04        0x0 /home/leon/riotboard/arm-2012.09/bin/../arm-none-eabi/lib//libc.a(lib_a-ctype_.o)
 *fill*         0x10027b04        0x4 
 .text          0x10027b08     0x18a8 /home/leon/riotboard/arm-2012.09/bin/../arm-none-eabi/lib//libc.a(lib_a-dtoa.o)
                0x10027ce8                _dtoa_r
 .text          0x100293b0      0x10c /home/leon/riotboard/arm-2012.09/bin/../arm-none-eabi/lib//libc.a(lib_a-fclose.o)
                0x100293b0                _fclose_r
                0x100294a8                fclose
 .text          0x100294bc      0x19c /home/leon/riotboard/arm-2012.09/bin/../arm-none-eabi/lib//libc.a(lib_a-fputwc.o)
                0x100294bc                _fputwc_r
                0x1002960c                fputwc
 .text          0x10029658       0xd0 /home/leon/riotboard/arm-2012.09/bin/../arm-none-eabi/lib//libc.a(lib_a-locale.o)
                0x10029658                _setlocale_r
                0x100296c4                __locale_charset
                0x100296d0                __locale_mb_cur_max
                0x100296e0                __locale_msgcharset
                0x100296ec                __locale_cjk_lang
                0x100296f4                _localeconv_r
                0x10029700                setlocale
                0x1002971c                localeconv
 .text          0x10029728       0x44 /home/leon/riotboard/arm-2012.09/bin/../arm-none-eabi/lib//libc.a(lib_a-lseekr.o)
                0x10029728                _lseek_r
 .text          0x1002976c      0x15c /home/leon/riotboard/arm-2012.09/bin/../arm-none-eabi/lib//libc.a(lib_a-makebuf.o)
                0x1002976c                __smakebuf_r
 .text          0x100298c8      0xd20 /home/leon/riotboard/arm-2012.09/bin/../arm-none-eabi/lib//libc.a(lib_a-mprec.o)
                0x100298c8                _Balloc
                0x10029954                _Bfree
                0x10029970                __multadd
                0x10029a4c                __s2b
                0x10029b3c                __hi0bits
                0x10029b8c                __lo0bits
                0x10029c20                __i2b
                0x10029c44                __multiply
                0x10029e28                __pow5mult
                0x10029f1c                __lshift
                0x1002a020                __mcmp
                0x1002a084                __mdiff
                0x1002a1d0                __ulp
                0x1002a234                __b2d
                0x1002a300                __d2b
                0x1002a408                __ratio
                0x1002a498                _mprec_log10
                0x1002a4ec                __copybits
                0x1002a560                __any_on
 .text          0x1002a5e8       0x44 /home/leon/riotboard/arm-2012.09/bin/../arm-none-eabi/lib//libc.a(lib_a-readr.o)
                0x1002a5e8                _read_r
 .text          0x1002a62c      0x19c /home/leon/riotboard/arm-2012.09/bin/../arm-none-eabi/lib//libc.a(lib_a-reent.o)
                0x1002a62c                cleanup_glue
                0x1002a658                _reclaim_reent
                0x1002a754                _wrapup_reent
 .text          0x1002a7c8      0x1cc /home/leon/riotboard/arm-2012.09/bin/../arm-none-eabi/lib//libc.a(lib_a-refill.o)
                0x1002a7f0                __srefill_r
 .text          0x1002a994       0x6c /home/leon/riotboard/arm-2012.09/bin/../arm-none-eabi/lib//libc.a(lib_a-s_fpclassify.o)
                0x1002a994                __fpclassifyd
 .text          0x1002aa00      0x24c /home/leon/riotboard/arm-2012.09/bin/../arm-none-eabi/lib//libc.a(lib_a-signal.o)
                0x1002aa00                _init_signal_r
                0x1002aa60                _signal_r
                0x1002aacc                _raise_r
                0x1002ab64                __sigtramp_r
                0x1002abf8                raise
                0x1002ac0c                signal
                0x1002ac28                _init_signal
                0x1002ac38                __sigtramp
 .text          0x1002ac4c       0x50 /home/leon/riotboard/arm-2012.09/bin/../arm-none-eabi/lib//libc.a(lib_a-signalr.o)
                0x1002ac4c                _kill_r
                0x1002ac8c                _getpid_r
 .text          0x1002ac9c      0x230 /home/leon/riotboard/arm-2012.09/bin/../arm-none-eabi/lib//libc.a(lib_a-strcmp.o)
                0x1002ac9c                strcmp
 .text          0x1002aecc     0x1224 /home/leon/riotboard/arm-2012.09/bin/../arm-none-eabi/lib//libc.a(lib_a-svfiprintf.o)
                0x1002aecc                __ssprint_r
                0x1002b070                _svfiprintf_r
 .text          0x1002c0f0      0x134 /home/leon/riotboard/arm-2012.09/bin/../arm-none-eabi/lib//libc.a(lib_a-wcrtomb.o)
                0x1002c0f0                _wcrtomb_r
                0x1002c180                wcrtomb
 .text          0x1002c224       0x7c /home/leon/riotboard/arm-2012.09/bin/../arm-none-eabi/lib//libc.a(lib_a-wctomb_r.o)
                0x1002c224                __ascii_wctomb
                0x1002c250                _wctomb_r
 .text          0x1002c2a0       0x94 /home/leon/riotboard/arm-2012.09/bin/../arm-none-eabi/lib//libc.a(lib_a-callocr.o)
                0x1002c2a0                _calloc_r
 .text          0x1002c334       0x40 /home/leon/riotboard/arm-2012.09/bin/../arm-none-eabi/lib//libc.a(lib_a-fstatr.o)
                0x1002c334                _fstat_r
 .text          0x1002c374       0x3c /home/leon/riotboard/arm-2012.09/bin/../arm-none-eabi/lib//libc.a(lib_a-isattyr.o)
                0x1002c374                _isatty_r
 .text          0x1002c3b0      0x114 /home/leon/riotboard/arm-2012.09/bin/../lib/gcc/arm-none-eabi/4.7.2//libgcc.a(_udivsi3.o)
                0x1002c3b0                __udivsi3
                0x1002c3b0                __aeabi_uidiv
                0x1002c4a4                __aeabi_uidivmod
 .text          0x1002c4c4        0x4 /home/leon/riotboard/arm-2012.09/bin/../lib/gcc/arm-none-eabi/4.7.2//libgcc.a(_dvmd_tls.o)
                0x1002c4c4                __aeabi_ldiv0
                0x1002c4c4                __aeabi_idiv0
 .text          0x1002c4c8      0x41c /home/leon/riotboard/arm-2012.09/bin/../lib/gcc/arm-none-eabi/4.7.2//libgcc.a(_arm_addsubdf3.o)
                0x1002c4c8                __aeabi_drsub
                0x1002c4d0                __aeabi_dsub
                0x1002c4d0                __subdf3
                0x1002c4d4                __adddf3
                0x1002c4d4                __aeabi_dadd
                0x1002c7e4                __aeabi_ui2d
                0x1002c7e4                __floatunsidf
                0x1002c808                __floatsidf
                0x1002c808                __aeabi_i2d
                0x1002c830                __extendsfdf2
                0x1002c830                __aeabi_f2d
                0x1002c870                __aeabi_ul2d
                0x1002c870                __floatundidf
                0x1002c884                __floatdidf
                0x1002c884                __aeabi_l2d
 .text          0x1002c8e4      0x49c /home/leon/riotboard/arm-2012.09/bin/../lib/gcc/arm-none-eabi/4.7.2//libgcc.a(_arm_muldivdf3.o)
                0x1002c8e4                __aeabi_dmul
                0x1002c8e4                __muldf3
                0x1002cb74                __aeabi_ddiv
                0x1002cb74                __divdf3
 .text          0x1002cd80      0x144 /home/leon/riotboard/arm-2012.09/bin/../lib/gcc/arm-none-eabi/4.7.2//libgcc.a(_arm_cmpdf2.o)
                0x1002cd80                __gtdf2
                0x1002cd80                __gedf2
                0x1002cd88                __ltdf2
                0x1002cd88                __ledf2
                0x1002cd90                __cmpdf2
                0x1002cd90                __eqdf2
                0x1002cd90                __nedf2
                0x1002ce18                __aeabi_cdrcmple
                0x1002ce34                __aeabi_cdcmple
                0x1002ce34                __aeabi_cdcmpeq
                0x1002ce4c                __aeabi_dcmpeq
                0x1002ce64                __aeabi_dcmplt
                0x1002ce7c                __aeabi_dcmple
                0x1002ce94                __aeabi_dcmpge
                0x1002ceac                __aeabi_dcmpgt
 .text          0x1002cec4       0x5c /home/leon/riotboard/arm-2012.09/bin/../lib/gcc/arm-none-eabi/4.7.2//libgcc.a(_arm_fixdfsi.o)
                0x1002cec4                __fixdfsi
                0x1002cec4                __aeabi_d2iz
 .text          0x1002cf20      0x2ac /home/leon/riotboard/arm-2012.09/bin/../lib/gcc/arm-none-eabi/4.7.2//libgcc.a(_arm_addsubsf3.o)
                0x1002cf20                __aeabi_frsub
                0x1002cf28                __subsf3
                0x1002cf28                __aeabi_fsub
                0x1002cf2c                __aeabi_fadd
                0x1002cf2c                __addsf3
                0x1002d0e8                __aeabi_ui2f
                0x1002d0e8                __floatunsisf
                0x1002d0f0                __aeabi_i2f
                0x1002d0f0                __floatsisf
                0x1002d110                __floatundisf
                0x1002d110                __aeabi_ul2f
                0x1002d120                __floatdisf
                0x1002d120                __aeabi_l2f
 .text          0x1002d1cc      0x2f8 /home/leon/riotboard/arm-2012.09/bin/../lib/gcc/arm-none-eabi/4.7.2//libgcc.a(_arm_muldivsf3.o)
                0x1002d1cc                __mulsf3
                0x1002d1cc                __aeabi_fmul
                0x1002d364                __divsf3
                0x1002d364                __aeabi_fdiv
 .text          0x1002d4c4      0x114 /home/leon/riotboard/arm-2012.09/bin/../lib/gcc/arm-none-eabi/4.7.2//libgcc.a(_arm_cmpsf2.o)
                0x1002d4c4                __gtsf2
                0x1002d4c4                __gesf2
                0x1002d4cc                __lesf2
                0x1002d4cc                __ltsf2
                0x1002d4d4                __nesf2
                0x1002d4d4                __eqsf2
                0x1002d4d4                __cmpsf2
                0x1002d538                __aeabi_cfrcmple
                0x1002d548                __aeabi_cfcmple
                0x1002d548                __aeabi_cfcmpeq
                0x1002d560                __aeabi_fcmpeq
                0x1002d578                __aeabi_fcmplt
                0x1002d590                __aeabi_fcmple
                0x1002d5a8                __aeabi_fcmpge
                0x1002d5c0                __aeabi_fcmpgt
 .text          0x1002d5d8       0x5c /home/leon/riotboard/arm-2012.09/bin/../lib/gcc/arm-none-eabi/4.7.2//libgcc.a(_arm_fixsfsi.o)
                0x1002d5d8                __fixsfsi
                0x1002d5d8                __aeabi_f2iz
 .text          0x1002d634       0x3c /home/leon/riotboard/arm-2012.09/bin/../lib/gcc/arm-none-eabi/4.7.2//libgcc.a(_aeabi_uldivmod.o)
                0x1002d634                __aeabi_uldivmod
 .text          0x1002d670       0x84 /home/leon/riotboard/arm-2012.09/bin/../lib/gcc/arm-none-eabi/4.7.2//libgcc.a(bpabi.o)
                0x1002d670                __gnu_ldivmod_helper
                0x1002d6b4                __gnu_uldivmod_helper
 .text          0x1002d6f4      0x4f0 /home/leon/riotboard/arm-2012.09/bin/../lib/gcc/arm-none-eabi/4.7.2//libgcc.a(_divdi3.o)
                0x1002d6f4                __divdi3
 .text          0x1002dbe4      0x488 /home/leon/riotboard/arm-2012.09/bin/../lib/gcc/arm-none-eabi/4.7.2//libgcc.a(_udivdi3.o)
                0x1002dbe4                __udivdi3
 .text          0x1002e06c       0x48 /home/leon/riotboard/arm-2012.09/bin/../lib/gcc/arm-none-eabi/4.7.2//libgcc.a(_clzsi2.o)
                0x1002e06c                __clzsi2
 .text          0x1002e0b4       0x64 /home/leon/git/swp-report/iMX6_Platform_SDK/output/mx6dq/lib/libsdk.a(profile.o)
                0x1002e0b4                StartPerfCounter
                0x1002e0dc                StopPerfCounter
 .text          0x1002e118      0x644 /home/leon/git/swp-report/iMX6_Platform_SDK/output/mx6dq/lib/libsdk.a(armv7_cache.o)
                0x1002e118                arm_dcache_state_query
                0x1002e158                arm_dcache_enable
                0x1002e1a0                arm_dcache_disable
                0x1002e1d8                arm_dcache_invalidate
                0x1002e27c                arm_dcache_invalidate_line
                0x1002e2e8                arm_dcache_invalidate_mlines
                0x1002e388                arm_dcache_flush
                0x1002e42c                arm_dcache_flush_line
                0x1002e498                arm_dcache_flush_mlines
                0x1002e538                arm_icache_state_query
                0x1002e578                arm_icache_enable
                0x1002e5c0                arm_icache_disable
                0x1002e5f8                arm_icache_invalidate
                0x1002e624                arm_icache_invalidate_is
                0x1002e650                arm_icache_invalidate_line
                0x1002e6bc                arm_icache_invalidate_mlines
 .text          0x1002e75c      0x610 /home/leon/git/swp-report/iMX6_Platform_SDK/output/mx6dq/lib/libsdk.a(runtime_support.o)
                0x1002e75c                _execve
                0x1002e798                _fork
                0x1002e7c0                _isatty
                0x1002e7e4                _open
                0x1002e810                _close
                0x1002e834                _lseek
                0x1002e860                _fstat
                0x1002e894                _read
                0x1002e964                _write
                0x1002ea50                _raw_puts
                0x1002ead0                _sbrk
                0x1002eb80                _exit
                0x1002eba0                _kill
                0x1002ebd8                _getpid
                0x1002ebf0                _link
                0x1002ec28                _unlink
                0x1002ec5c                _stat
                0x1002ec90                _times
                0x1002ecb4                _gettimeofday
                0x1002ed38                _wait
 .text          0x1002ed6c      0x62c /home/leon/git/swp-report/iMX6_Platform_SDK/output/mx6dq/lib/libsdk.a(mma8451.o)
                0x1002ed6c                mma8451_read_register
                0x1002ee3c                mma8451_write_register
                0x1002ef1c                mma8451_init
                0x1002f0d8                mma8451_get_acceleration
 .text          0x1002f398      0xa88 /home/leon/git/swp-report/iMX6_Platform_SDK/output/mx6dq/lib/libsdk.a(smd_sensor.o)
                0x1002f730                sensor_config
                0x1002f76c                sensor_search
                0x1002f8fc                sensor_init
                0x1002fa70                sensor_af_trigger
                0x1002fb50                sensor_autofocus_init
                0x1002fcd0                camera_strobeflash_on
                0x1002fdac                camera_strobeflash_off
 .text          0x1002fe20       0x78 /home/leon/git/swp-report/iMX6_Platform_SDK/output/mx6dq/lib/libsdk.a(cpu_get_cores.o)
                0x1002fe20                cpu_get_cores
 .text          0x1002fe98      0x2a8 /home/leon/git/swp-report/iMX6_Platform_SDK/output/mx6dq/lib/libsdk.a(cpu_multicore.o)
                0x1002fefc                cpu_start_secondary
                0x10030090                cpu_disable
 .text          0x10030140      0x1cc /home/leon/git/swp-report/iMX6_Platform_SDK/output/mx6dq/lib/libsdk.a(cpu_workpoint.o)
                0x10030140                cpu_workpoint_set
 .text          0x1003030c     0x17e0 /home/leon/git/swp-report/iMX6_Platform_SDK/output/mx6dq/lib/libsdk.a(enet_drv.o)
                0x1003030c                imx_enet_mii_read
                0x1003041c                imx_enet_mii_write
                0x100308f0                enet_phy_rework_ar8031
                0x10030a64                enet_phy_rework_ksz9021
                0x10030b58                imx_enet_phy_init
                0x10030dd8                imx_enet_get_phy_status
                0x10031100                imx_enet_phy_enable_external_loopback
                0x1003121c                imx_enet_poll
                0x10031314                imx_enet_send
                0x1003142c                imx_enet_recv
                0x10031608                imx_enet_init
                0x1003175c                imx_enet_start
                0x100317f0                imx_enet_stop
                0x10031834                imx_enet_isolate_phy
                0x100318d8                imx_enet_unisolate_phy
                0x100319a0                imx_enet_mii_type
 .text          0x10031aec     0x1308 /home/leon/git/swp-report/iMX6_Platform_SDK/output/mx6dq/lib/libsdk.a(gpio.o)
                0x10031b1c                gpio_get_port_count
                0x10031b34                gpio_set_gpio
                0x10031bf8                gpio_set_direction
                0x10031e54                gpio_get_direction
                0x10031f9c                gpio_set_level
                0x100322dc                gpio_get_level
                0x1003243c                gpio_set_interrupt_config
                0x10032840                gpio_set_interrupt_mask
                0x10032a84                gpio_get_interrupt_status
                0x10032be0                gpio_clear_interrupt
 .text          0x10032df4        0x0 /home/leon/git/swp-report/iMX6_Platform_SDK/output/mx6dq/lib/libsdk.a(imx6dq_gpio_map.o)
 .text          0x10032df4     0x1334 /home/leon/git/swp-report/iMX6_Platform_SDK/output/mx6dq/lib/libsdk.a(hdmi_tx.o)
                0x10032df4                hdmi_config_input_source
                0x10032e34                hdmi_video_sample
                0x1003307c                update_csc_coeffs
                0x10033590                hdmi_video_csc
                0x10033730                hdmi_video_packetize
                0x10033afc                preamble_filter_set
                0x10033bbc                hdmi_av_frame_composer
                0x10034004                hdmi_tx_hdcp_config
                0x10034070                hdmi_config_force_video
                0x100340c8                hdmi_config_forced_pixels
 .text          0x10034128      0xd24 /home/leon/git/swp-report/iMX6_Platform_SDK/output/mx6dq/lib/libsdk.a(hdmi_tx_audio.o)
                0x10034128                hdmi_audio_mute
                0x10034178                audio_PacketLayout
                0x100341b8                audio_DMA_InterruptMask
                0x100341e8                audio_DMA_InterruptPolarity
                0x10034218                audio_DMA_ResetFIFO
                0x1003423c                audio_clk_N
                0x1003429c                audio_clk_CTS
                0x1003433c                audio_ComputeN
                0x1003465c                audio_ComputeCTS
                0x10034898                audio_DMA_StartAddr
                0x10034910                audio_DMA_StopAddr
                0x10034988                audio_DMA_LockEnable
                0x100349c8                audio_DMA_BurstMode
                0x10034a08                audio_DMA_IncrType
                0x10034a48                audio_DMA_Threshold
                0x10034a78                audio_DMA_SetCONF1
                0x10034aa8                audio_DMA_Start
                0x10034acc                audio_Configure
                0x10034b84                Audio_ChannelCount
                0x10034c74                audio_Configure_DMA
                0x10034e0c                audio_info_config
 .text          0x10034e4c     0x14fc /home/leon/git/swp-report/iMX6_Platform_SDK/output/mx6dq/lib/libsdk.a(hdmi_tx_phy.o)
                0x10034e4c                hdmi_phy_int_mask
                0x100362b4                hdmi_phy_init
 .text          0x10036348     0x14bc /home/leon/git/swp-report/iMX6_Platform_SDK/output/mx6dq/lib/libsdk.a(imx_i2c.o)
                0x10036378                i2c_get_request_instance
                0x10036cc8                i2c_xfer
                0x10037324                i2c_read
                0x10037354                i2c_write
                0x10037384                i2c_setup_interrupt
                0x10037590                i2c_init
 .text          0x10037804      0xba8 /home/leon/git/swp-report/iMX6_Platform_SDK/output/mx6dq/lib/libsdk.a(imx_i2c_slave.o)
                0x10037804                i2c_slave_interrupt_routine
                0x10037910                i2c_slave_handler
                0x10037e68                i2c_slave_xfer
 .text          0x100383ac      0x474 /home/leon/git/swp-report/iMX6_Platform_SDK/output/mx6dq/lib/libsdk.a(ips_disp_panel.o)
                0x10038640                search_panel
                0x10038700                list_panel
                0x10038798                get_panel_by_id
 .text          0x10038820      0xff4 /home/leon/git/swp-report/iMX6_Platform_SDK/output/mx6dq/lib/libsdk.a(ipu_common.o)
                0x10038820                need_csc
                0x10038888                ipu_write_field
                0x10038940                ipu_read
                0x100389ac                ipu_write
                0x10038a14                ipu_enable_display
                0x10038a80                ipu_disable_display
                0x10038b00                ipu_sw_reset
                0x10038be0                ipu_display_setup
                0x10038d54                ipu_dual_display_setup
                0x10038e58                ipu_capture_setup
                0x100392c4                ipu_capture_streamoff
                0x10039398                ipu_mipi_csi2_setup
                0x10039590                ipu1_ch0_eobnd_isr
                0x1003976c                ipu_ch0_eobnd_interrupt_register
 .text          0x10039814      0xcb8 /home/leon/git/swp-report/iMX6_Platform_SDK/output/mx6dq/lib/libsdk.a(ipu_csi.o)
                0x10039814                ipu_csi_config
                0x10039e58                ipu_smfc_fifo_allocate
                0x10039fb4                ipu_capture_disp_link
                0x1003a0e0                ipu_disable_csi
                0x1003a14c                ipu_disable_smfc
                0x1003a180                ipu_csi_test_mode_color
 .text          0x1003a4cc     0x1bec /home/leon/git/swp-report/iMX6_Platform_SDK/output/mx6dq/lib/libsdk.a(ipu_dc.o)
                0x1003a4cc                ipu_dc_config
                0x1003a7bc                ipu_dc_write_channel_config
                0x1003aa74                ipu_dc_display_config
                0x1003ac08                ipu_dc_map
                0x1003af9c                ipu_dc_microcode_config
                0x1003bd5c                ipu_dc_microcode_event
 .text          0x1003c0b8      0xfec /home/leon/git/swp-report/iMX6_Platform_SDK/output/mx6dq/lib/libsdk.a(ipu_di.o)
                0x1003c0b8                ipu_di_config
                0x1003c6e8                ipu_di_waveform_config
                0x1003c7b0                ipu_di_screen_set
                0x1003c844                ipu_di_pointer_config
                0x1003c9a8                ipu_di_bsclk_gen
                0x1003cae0                ipu_di_sync_config
                0x1003cde8                ipu_di_interface_set
 .text          0x1003d0a4      0x3e0 /home/leon/git/swp-report/iMX6_Platform_SDK/output/mx6dq/lib/libsdk.a(ipu_dmfc.o)
                0x1003d0a4                ipu_dmfc_config
                0x1003d338                ipu_dmfc_alloc
 .text          0x1003d484      0x5b0 /home/leon/git/swp-report/iMX6_Platform_SDK/output/mx6dq/lib/libsdk.a(ipu_dp.o)
                0x1003d484                ipu_dp_config
                0x1003d4d8                ipu_dp_csc_config
                0x1003d890                ipu_dp_fg_config
 .text          0x1003da34     0x16a4 /home/leon/git/swp-report/iMX6_Platform_SDK/output/mx6dq/lib/libsdk.a(ipu_ic.o)
                0x1003da34                ipu_ic_enable
                0x1003da80                ipu_ic_rotation_config
                0x1003dc8c                ipu_ic_resize_config
                0x1003e1e0                ipu_ic_deinterlace_config
                0x1003e3bc                ipu_ic_calc_resize_coeffs
                0x1003e4d4                ipu_ic_config_resize_rate
                0x1003e610                ipu_ic_combine_config
                0x1003e7cc                ipu_ic_csc_config
                0x1003eed8                ipu_ic_task_enable
 .text          0x1003f0d8     0x2e08 /home/leon/git/swp-report/iMX6_Platform_SDK/output/mx6dq/lib/libsdk.a(ipu_idmac.o)
                0x1003f0d8                ipu_cpmem_set_field
                0x1003f204                ipu_cpmem_mod_field
                0x1003f390                ipu_cpmem_read_field
                0x1003f4ec                ipu_channel_buf_ready
                0x1003f664                ipu_channel_buf_not_ready
                0x1003f7dc                ipu_idmac_channel_mode_sel
                0x1003f864                ipu_idmac_channel_enable
                0x1003f8ec                ipu_idmac_channel_busy
                0x1003f9ac                ipu_general_idmac_config
                0x1003ff94                ipu_disp_bg_idmac_config
                0x1004007c                ipu_disp_fg_idmac_config
                0x10040164                ipu_dma_update_buffer
                0x10040280                ipu_idmac_chan_cur_buff
                0x1004032c                ipu_rotate_idmac_config
                0x10040460                ipu_resize_idmac_config
                0x1004059c                ipu_deinterlace_idmac_config
                0x100406f0                ipu_idma_pixel_format_config
 .text          0x10041ee0      0x598 /home/leon/git/swp-report/iMX6_Platform_SDK/output/mx6dq/lib/libsdk.a(ipu_vdi.o)
                0x10041ee0                ipu_deinterlace_3_fields
                0x10041f30                ipu_vdi_set_top_field_man
                0x10041fa4                ipu_vdi_set_motion
                0x100420ac                ipu_vdi_init
                0x100421f0                ipu_vdi_uninit
                0x10042238                ips_deinterlace_proc
 .text          0x10042478      0x520 /home/leon/git/swp-report/iMX6_Platform_SDK/output/mx6dq/lib/libsdk.a(keypad_port.o)
                0x10042498                kpp_scan_matrix
                0x100426dc                kpp_get_keypad_state
                0x1004279c                kpp_wait_for_release_state
                0x100427e4                kpp_interrupt_routine
                0x10042824                kpp_setup_interrupt
                0x10042888                kpp_open
                0x1004294c                kpp_close
 .text          0x10042998      0x4ac /home/leon/git/swp-report/iMX6_Platform_SDK/output/mx6dq/lib/libsdk.a(ldb.o)
                0x10042b68                ldb_config
                0x10042da0                ldb_set_vs_polarity
 .text          0x10042e44      0x3f4 /home/leon/git/swp-report/iMX6_Platform_SDK/output/mx6dq/lib/libsdk.a(ocotp.o)
                0x10042eb0                Delay4Reload
                0x100430f4                ocotp_sense_fuse
                0x10043164                ocotp_fuse_blow_row
                0x100431c0                ocotp_reload_otp_shadow_registers
 .text          0x10043238      0x55c /home/leon/git/swp-report/iMX6_Platform_SDK/output/mx6dq/lib/libsdk.a(pcie.o)
                0x100434ec                pcie_map_space
                0x100435b0                pcie_init
 .text          0x10043794      0x394 /home/leon/git/swp-report/iMX6_Platform_SDK/output/mx6dq/lib/libsdk.a(pcie_phy.o)
                0x100438e0                pcie_phy_cr_read
                0x100439b8                pcie_phy_cr_write
 .text          0x10043b28      0x70c /home/leon/git/swp-report/iMX6_Platform_SDK/output/mx6dq/lib/libsdk.a(pcie_prot.o)
                0x10043ec0                pcie_dump_cfg_header
                0x10043f2c                pcie_enum_resources
                0x100441bc                pcie_cfg_ep_bar
 .text          0x10044234     0x1bf0 /home/leon/git/swp-report/iMX6_Platform_SDK/output/mx6dq/lib/libsdk.a(pmu_driver.o)
                0x100444a0                pmu_init
                0x1004463c                pmu_get_property
                0x1004469c                pmu_set_property
                0x10044700                pmu::Regulator::getProperty(_pmu_regulator_properties, void*)
                0x1004497c                pmu::Regulator::setProperty(_pmu_regulator_properties, void const*)
                0x10044af4                pmu::Regulator::setVoltageRange(unsigned long, unsigned long, unsigned long)
                0x10044b40                pmu::AnalogRegulator::getProperty(_pmu_regulator_properties, void*)
                0x10044c0c                pmu::AnalogRegulator::setProperty(_pmu_regulator_properties, void const*)
                0x10044ccc                pmu::AnalogRegulator::getOutputMillivolts() const
                0x10044d24                pmu::AnalogRegulator::setOutputMillivolts(unsigned long)
                0x10044e0c                pmu::AnalogRegulator::getBrownoutMillivolts() const
                0x10044e7c                pmu::AnalogRegulator::setBrownoutMillivolts(unsigned long)
                0x10044f14                pmu::AnalogRegulator::isBrownoutDetectEnabled() const
                0x10044f58                pmu::AnalogRegulator::setBrownoutDetectIsEnabled(bool)
                0x10044fa4                pmu::AnalogRegulator::isEnabled() const
                0x10044fe8                pmu::AnalogRegulator::setIsEnabled(bool)
                0x10045034                pmu::DigitalRegulator::DigitalRegulator()
                0x10045034                pmu::DigitalRegulator::DigitalRegulator()
                0x10045074                pmu::DigitalRegulator::getProperty(_pmu_regulator_properties, void*)
                0x10045174                pmu::DigitalRegulator::setProperty(_pmu_regulator_properties, void const*)
                0x1004523c                pmu::DigitalRegulator::isBypassed() const
                0x10045288                pmu::DigitalRegulator::setIsBypassed(bool)
                0x1004533c                pmu::DigitalRegulator::getOutputMillivolts() const
                0x100453d8                pmu::DigitalRegulator::setOutputMillivolts(unsigned long)
                0x100454bc                pmu::DigitalRegulator::getBrownoutMillivolts() const
                0x10045530                pmu::DigitalRegulator::setBrownoutMillivolts(unsigned long)
                0x100455c8                pmu::DigitalRegulator::isEnabled() const
                0x10045614                pmu::DigitalRegulator::setIsEnabled(bool)
                0x100456d0                pmu::LDO1p1Regulator::LDO1p1Regulator()
                0x100456d0                pmu::LDO1p1Regulator::LDO1p1Regulator()
                0x10045730                pmu::LDO1p1Regulator::getProperty(_pmu_regulator_properties, void*)
                0x100457c8                pmu::LDO1p1Regulator::getOutputMillivolts() const
                0x10045824                pmu::LDO1p1Regulator::setOutputMillivolts(unsigned long)
                0x10045918                pmu::LDO2p5Regulator::LDO2p5Regulator()
                0x10045918                pmu::LDO2p5Regulator::LDO2p5Regulator()
                0x10045978                pmu::LDO3p0Regulator::LDO3p0Regulator()
                0x10045978                pmu::LDO3p0Regulator::LDO3p0Regulator()
                0x100459d8                pmu::LDO3p0Regulator::getProperty(_pmu_regulator_properties, void*)
                0x10045a44                pmu::LDO3p0Regulator::setProperty(_pmu_regulator_properties, void const*)
                0x10045ab4                pmu::LDOARMRegulator::LDOARMRegulator()
                0x10045ab4                pmu::LDOARMRegulator::LDOARMRegulator()
                0x10045b0c                pmu::LDOARMRegulator::setBrownoutDetectIsEnabled(bool)
                0x10045b58                pmu::LDOARMRegulator::setRampRate(unsigned long)
                0x10045bb8                pmu::LDOGraphicsRegulator::LDOGraphicsRegulator()
                0x10045bb8                pmu::LDOGraphicsRegulator::LDOGraphicsRegulator()
                0x10045c10                pmu::LDOGraphicsRegulator::setBrownoutDetectIsEnabled(bool)
                0x10045c5c                pmu::LDOGraphicsRegulator::setRampRate(unsigned long)
                0x10045cbc                pmu::LDOSoCRegulator::LDOSoCRegulator()
                0x10045cbc                pmu::LDOSoCRegulator::LDOSoCRegulator()
                0x10045d14                pmu::LDOSoCRegulator::setBrownoutDetectIsEnabled(bool)
                0x10045d60                pmu::LDOSoCRegulator::setRampRate(unsigned long)
 .text._ZnwjPv  0x10045e24       0x28 /home/leon/git/swp-report/iMX6_Platform_SDK/output/mx6dq/lib/libsdk.a(pmu_driver.o)
                0x10045e24                operator new(unsigned int, void*)
 .text._ZN3pmu9RegulatorC2Ev
                0x10045e4c       0x64 /home/leon/git/swp-report/iMX6_Platform_SDK/output/mx6dq/lib/libsdk.a(pmu_driver.o)
                0x10045e4c                pmu::Regulator::Regulator()
                0x10045e4c                pmu::Regulator::Regulator()
 .text._ZN3pmu9Regulator18setBrownoutHandlerEPFv9_pmu_regsE
                0x10045eb0       0x2c /home/leon/git/swp-report/iMX6_Platform_SDK/output/mx6dq/lib/libsdk.a(pmu_driver.o)
                0x10045eb0                pmu::Regulator::setBrownoutHandler(void (*)(_pmu_regs))
 .text._ZN3pmu9Regulator18getBrownoutHandlerEv
                0x10045edc       0x28 /home/leon/git/swp-report/iMX6_Platform_SDK/output/mx6dq/lib/libsdk.a(pmu_driver.o)
                0x10045edc                pmu::Regulator::getBrownoutHandler()
 .text._ZN3pmu15AnalogRegulatorC2ERV15_hw_pmu_reg_1p1
                0x10045f04       0x50 /home/leon/git/swp-report/iMX6_Platform_SDK/output/mx6dq/lib/libsdk.a(pmu_driver.o)
                0x10045f04                pmu::AnalogRegulator::AnalogRegulator(_hw_pmu_reg_1p1 volatile&)
                0x10045f04                pmu::AnalogRegulator::AnalogRegulator(_hw_pmu_reg_1p1 volatile&)
 .text._ZNK3pmu15LDO1p1Regulator12isInBrownoutEv
                0x10045f54       0x70 /home/leon/git/swp-report/iMX6_Platform_SDK/output/mx6dq/lib/libsdk.a(pmu_driver.o)
                0x10045f54                pmu::LDO1p1Regulator::isInBrownout() const
 .text._ZNK3pmu15LDO1p1Regulator4isOKEv
                0x10045fc4       0x78 /home/leon/git/swp-report/iMX6_Platform_SDK/output/mx6dq/lib/libsdk.a(pmu_driver.o)
                0x10045fc4                pmu::LDO1p1Regulator::isOK() const
 .text._ZNK3pmu15LDO2p5Regulator12isInBrownoutEv
                0x1004603c       0x70 /home/leon/git/swp-report/iMX6_Platform_SDK/output/mx6dq/lib/libsdk.a(pmu_driver.o)
                0x1004603c                pmu::LDO2p5Regulator::isInBrownout() const
 .text._ZNK3pmu15LDO2p5Regulator4isOKEv
                0x100460ac       0x78 /home/leon/git/swp-report/iMX6_Platform_SDK/output/mx6dq/lib/libsdk.a(pmu_driver.o)
                0x100460ac                pmu::LDO2p5Regulator::isOK() const
 .text._ZNK3pmu15LDO3p0Regulator12isInBrownoutEv
                0x10046124       0x70 /home/leon/git/swp-report/iMX6_Platform_SDK/output/mx6dq/lib/libsdk.a(pmu_driver.o)
                0x10046124                pmu::LDO3p0Regulator::isInBrownout() const
 .text._ZNK3pmu15LDO3p0Regulator4isOKEv
                0x10046194       0x78 /home/leon/git/swp-report/iMX6_Platform_SDK/output/mx6dq/lib/libsdk.a(pmu_driver.o)
                0x10046194                pmu::LDO3p0Regulator::isOK() const
 .text._ZNK3pmu15LDOARMRegulator23isBrownoutDetectEnabledEv
                0x1004620c       0x44 /home/leon/git/swp-report/iMX6_Platform_SDK/output/mx6dq/lib/libsdk.a(pmu_driver.o)
                0x1004620c                pmu::LDOARMRegulator::isBrownoutDetectEnabled() const
 .text._ZNK3pmu15LDOARMRegulator12isInBrownoutEv
                0x10046250       0x6c /home/leon/git/swp-report/iMX6_Platform_SDK/output/mx6dq/lib/libsdk.a(pmu_driver.o)
                0x10046250                pmu::LDOARMRegulator::isInBrownout() const
 .text._ZNK3pmu15LDOARMRegulator4isOKEv
                0x100462bc       0x24 /home/leon/git/swp-report/iMX6_Platform_SDK/output/mx6dq/lib/libsdk.a(pmu_driver.o)
                0x100462bc                pmu::LDOARMRegulator::isOK() const
 .text._ZNK3pmu15LDOARMRegulator11getRampRateEv
                0x100462e0       0x34 /home/leon/git/swp-report/iMX6_Platform_SDK/output/mx6dq/lib/libsdk.a(pmu_driver.o)
                0x100462e0                pmu::LDOARMRegulator::getRampRate() const
 .text._ZNK3pmu15LDOARMRegulator10getTriggerEv
                0x10046314       0x34 /home/leon/git/swp-report/iMX6_Platform_SDK/output/mx6dq/lib/libsdk.a(pmu_driver.o)
                0x10046314                pmu::LDOARMRegulator::getTrigger() const
 .text._ZN3pmu15LDOARMRegulator10setTriggerEm
                0x10046348       0x44 /home/leon/git/swp-report/iMX6_Platform_SDK/output/mx6dq/lib/libsdk.a(pmu_driver.o)
                0x10046348                pmu::LDOARMRegulator::setTrigger(unsigned long)
 .text._ZNK3pmu15LDOARMRegulator11getBrownoutEv
                0x1004638c       0x34 /home/leon/git/swp-report/iMX6_Platform_SDK/output/mx6dq/lib/libsdk.a(pmu_driver.o)
                0x1004638c                pmu::LDOARMRegulator::getBrownout() const
 .text._ZN3pmu15LDOARMRegulator11setBrownoutEm
                0x100463c0       0x44 /home/leon/git/swp-report/iMX6_Platform_SDK/output/mx6dq/lib/libsdk.a(pmu_driver.o)
                0x100463c0                pmu::LDOARMRegulator::setBrownout(unsigned long)
 .text._ZNK3pmu20LDOGraphicsRegulator23isBrownoutDetectEnabledEv
                0x10046404       0x44 /home/leon/git/swp-report/iMX6_Platform_SDK/output/mx6dq/lib/libsdk.a(pmu_driver.o)
                0x10046404                pmu::LDOGraphicsRegulator::isBrownoutDetectEnabled() const
 .text._ZNK3pmu20LDOGraphicsRegulator12isInBrownoutEv
                0x10046448       0x6c /home/leon/git/swp-report/iMX6_Platform_SDK/output/mx6dq/lib/libsdk.a(pmu_driver.o)
                0x10046448                pmu::LDOGraphicsRegulator::isInBrownout() const
 .text._ZNK3pmu20LDOGraphicsRegulator4isOKEv
                0x100464b4       0x24 /home/leon/git/swp-report/iMX6_Platform_SDK/output/mx6dq/lib/libsdk.a(pmu_driver.o)
                0x100464b4                pmu::LDOGraphicsRegulator::isOK() const
 .text._ZNK3pmu20LDOGraphicsRegulator11getRampRateEv
                0x100464d8       0x34 /home/leon/git/swp-report/iMX6_Platform_SDK/output/mx6dq/lib/libsdk.a(pmu_driver.o)
                0x100464d8                pmu::LDOGraphicsRegulator::getRampRate() const
 .text._ZNK3pmu20LDOGraphicsRegulator10getTriggerEv
                0x1004650c       0x34 /home/leon/git/swp-report/iMX6_Platform_SDK/output/mx6dq/lib/libsdk.a(pmu_driver.o)
                0x1004650c                pmu::LDOGraphicsRegulator::getTrigger() const
 .text._ZN3pmu20LDOGraphicsRegulator10setTriggerEm
                0x10046540       0x44 /home/leon/git/swp-report/iMX6_Platform_SDK/output/mx6dq/lib/libsdk.a(pmu_driver.o)
                0x10046540                pmu::LDOGraphicsRegulator::setTrigger(unsigned long)
 .text._ZNK3pmu20LDOGraphicsRegulator11getBrownoutEv
                0x10046584       0x34 /home/leon/git/swp-report/iMX6_Platform_SDK/output/mx6dq/lib/libsdk.a(pmu_driver.o)
                0x10046584                pmu::LDOGraphicsRegulator::getBrownout() const
 .text._ZN3pmu20LDOGraphicsRegulator11setBrownoutEm
                0x100465b8       0x44 /home/leon/git/swp-report/iMX6_Platform_SDK/output/mx6dq/lib/libsdk.a(pmu_driver.o)
                0x100465b8                pmu::LDOGraphicsRegulator::setBrownout(unsigned long)
 .text._ZNK3pmu15LDOSoCRegulator23isBrownoutDetectEnabledEv
                0x100465fc       0x44 /home/leon/git/swp-report/iMX6_Platform_SDK/output/mx6dq/lib/libsdk.a(pmu_driver.o)
                0x100465fc                pmu::LDOSoCRegulator::isBrownoutDetectEnabled() const
 .text._ZNK3pmu15LDOSoCRegulator12isInBrownoutEv
                0x10046640       0x6c /home/leon/git/swp-report/iMX6_Platform_SDK/output/mx6dq/lib/libsdk.a(pmu_driver.o)
                0x10046640                pmu::LDOSoCRegulator::isInBrownout() const
 .text._ZNK3pmu15LDOSoCRegulator4isOKEv
                0x100466ac       0x74 /home/leon/git/swp-report/iMX6_Platform_SDK/output/mx6dq/lib/libsdk.a(pmu_driver.o)
                0x100466ac                pmu::LDOSoCRegulator::isOK() const
 .text._ZNK3pmu15LDOSoCRegulator11getRampRateEv
                0x10046720       0x34 /home/leon/git/swp-report/iMX6_Platform_SDK/output/mx6dq/lib/libsdk.a(pmu_driver.o)
                0x10046720                pmu::LDOSoCRegulator::getRampRate() const
 .text._ZNK3pmu15LDOSoCRegulator10getTriggerEv
                0x10046754       0x34 /home/leon/git/swp-report/iMX6_Platform_SDK/output/mx6dq/lib/libsdk.a(pmu_driver.o)
                0x10046754                pmu::LDOSoCRegulator::getTrigger() const
 .text._ZN3pmu15LDOSoCRegulator10setTriggerEm
                0x10046788       0x44 /home/leon/git/swp-report/iMX6_Platform_SDK/output/mx6dq/lib/libsdk.a(pmu_driver.o)
                0x10046788                pmu::LDOSoCRegulator::setTrigger(unsigned long)
 .text._ZNK3pmu15LDOSoCRegulator11getBrownoutEv
                0x100467cc       0x34 /home/leon/git/swp-report/iMX6_Platform_SDK/output/mx6dq/lib/libsdk.a(pmu_driver.o)
                0x100467cc                pmu::LDOSoCRegulator::getBrownout() const
 .text._ZN3pmu15LDOSoCRegulator11setBrownoutEm
                0x10046800       0x44 /home/leon/git/swp-report/iMX6_Platform_SDK/output/mx6dq/lib/libsdk.a(pmu_driver.o)
                0x10046800                pmu::LDOSoCRegulator::setBrownout(unsigned long)
 .text._ZN3pmu9_pmu_infoC2Ev
                0x10046844       0x84 /home/leon/git/swp-report/iMX6_Platform_SDK/output/mx6dq/lib/libsdk.a(pmu_driver.o)
                0x10046844                pmu::_pmu_info::_pmu_info()
                0x10046844                pmu::_pmu_info::_pmu_info()
 .text._ZN3pmu15AnalogRegulatorC2I15_hw_pmu_reg_2p5EERVT_
                0x100468c8       0x50 /home/leon/git/swp-report/iMX6_Platform_SDK/output/mx6dq/lib/libsdk.a(pmu_driver.o)
                0x100468c8                pmu::AnalogRegulator::AnalogRegulator<_hw_pmu_reg_2p5>(_hw_pmu_reg_2p5 volatile&)
                0x100468c8                pmu::AnalogRegulator::AnalogRegulator<_hw_pmu_reg_2p5>(_hw_pmu_reg_2p5 volatile&)
 .text._ZN3pmu15AnalogRegulatorC2I15_hw_pmu_reg_3p0EERVT_
                0x10046918       0x50 /home/leon/git/swp-report/iMX6_Platform_SDK/output/mx6dq/lib/libsdk.a(pmu_driver.o)
                0x10046918                pmu::AnalogRegulator::AnalogRegulator<_hw_pmu_reg_3p0>(_hw_pmu_reg_3p0 volatile&)
                0x10046918                pmu::AnalogRegulator::AnalogRegulator<_hw_pmu_reg_3p0>(_hw_pmu_reg_3p0 volatile&)
 .text          0x10046968      0xb4c /home/leon/git/swp-report/iMX6_Platform_SDK/output/mx6dq/lib/libsdk.a(pwm.o)
                0x10046968                pwm_init
                0x10046e80                pwm_clear_int_status
                0x10046f6c                pwm_setup_interrupt
                0x10047234                pwm_free_interrupt
                0x100472dc                pwm_isr_test_end
                0x10047320                pwm_enable
                0x100473a8                pwm_disable
                0x10047438                pwm_get_clock_freq
 .text          0x100474b4      0x3b0 /home/leon/git/swp-report/iMX6_Platform_SDK/output/mx6dq/lib/libsdk.a(rtc.o)
                0x100474b4                snvs_rtc_interrupt_handler
                0x100475d0                snvs_rtc_setup_interrupt
                0x10047634                rtc_init
                0x100476b4                rtc_deinit
                0x10047710                rtc_setup_onetime_timer
                0x10047784                rtc_setup_periodic_timer
                0x1004780c                rtc_disable_periodic_timer
 .text          0x10047864      0x210 /home/leon/git/swp-report/iMX6_Platform_SDK/output/mx6dq/lib/libsdk.a(srtc.o)
                0x10047864                snvs_srtc_setup_interrupt
                0x100478c8                snvs_srtc_interrupt_handler
                0x1004798c                srtc_init
                0x100479d0                srtc_deinit
                0x10047a00                srtc_setup_onetime_timer
 .text          0x10047a74     0x2a8c /home/leon/git/swp-report/iMX6_Platform_SDK/output/mx6dq/lib/libsdk.a(sata.o)
                0x10047a74                sata_pio_read_sector
                0x10047c0c                sata_pio_write_sector
                0x10047d98                sata_dma_read_sector
                0x10047f24                sata_dma_write_sector
                0x100480b0                sata_disk_read_sector
                0x100481f8                sata_disk_write_sector
                0x10048354                printf_buffer
                0x100483b4                print_identify_data
                0x10049d1c                sata_init
                0x1004a2a8                sata_deinit
                0x1004a3e4                sata_identify
 .text          0x1004a500     0x1224 /home/leon/git/swp-report/iMX6_Platform_SDK/output/mx6dq/lib/libsdk.a(sdma.o)
                0x1004aa4c                sdma_init
                0x1004ac14                sdma_deinit
                0x1004ad08                sdma_channel_start
                0x1004adb4                sdma_channel_stop
                0x1004ae14                sdma_channel_request
                0x1004b20c                sdma_channel_release
                0x1004b42c                sdma_channel_status
                0x1004b560                sdma_lookup_script
                0x1004b64c                sdma_setup_interrupt
                0x1004b6c0                sdma_channel_isr_attach
 .text          0x1004b724        0x0 /home/leon/git/swp-report/iMX6_Platform_SDK/output/mx6dq/lib/libsdk.a(sdma_script_info.o)
 .text          0x1004b724      0x4e8 /home/leon/git/swp-report/iMX6_Platform_SDK/output/mx6dq/lib/libsdk.a(snvs.o)
                0x1004b724                snvs_rtc_counter
                0x1004b7cc                snvs_rtc_alarm
                0x1004b874                snvs_rtc_periodic_interrupt
                0x1004b958                snvs_rtc_set_counter
                0x1004b9b0                snvs_rtc_set_alarm_timeout
                0x1004ba08                snvs_srtc_counter
                0x1004bab0                snvs_srtc_alarm
                0x1004bb58                snvs_srtc_set_counter
                0x1004bbb0                snvs_srtc_set_alarm_timeout
                0x1004bbec                snvs_init
                0x1004bbfc                snvs_deinit
 .text          0x1004bc0c     0x15e4 /home/leon/git/swp-report/iMX6_Platform_SDK/output/mx6dq/lib/libsdk.a(ecspi.o)
                0x1004c2bc                ecspi_configure
                0x1004cdc4                ecspi_open
                0x1004ce94                ecspi_close
                0x1004cfd0                ecspi_xfer
 .text          0x1004d1f0      0x4e8 /home/leon/git/swp-report/iMX6_Platform_SDK/output/mx6dq/lib/libsdk.a(tempmon.o)
                0x1004d1f0                compute_temp
                0x1004d2a0                compute_alarm
                0x1004d39c                tempmon_init
                0x1004d464                tempmon_get_temp
                0x1004d544                tempmon_set_alarm
                0x1004d66c                tempmon_disable_alarm
 .text          0x1004d6d8      0x528 /home/leon/git/swp-report/iMX6_Platform_SDK/output/mx6dq/lib/libsdk.a(gpt.o)
                0x1004d6f8                gpt_get_rollover_event
                0x1004d744                gpt_get_capture_event
                0x1004d7f4                gpt_set_capture_event
                0x1004d87c                gpt_get_compare_event
                0x1004d8e4                gpt_set_compare_event
                0x1004d9ec                gpt_counter_disable
                0x1004da24                gpt_counter_enable
                0x1004da6c                gpt_setup_interrupt
                0x1004dad0                gpt_init
 .text          0x1004dc00      0x3a8 /home/leon/git/swp-report/iMX6_Platform_SDK/output/mx6dq/lib/libsdk.a(usb_common.o)
                0x1004dc00                usb_get_port_speed
                0x1004dd9c                swap32
                0x1004de18                get_menu_item
 .text          0x1004dfa8     0x2ac4 /home/leon/git/swp-report/iMX6_Platform_SDK/output/mx6dq/lib/libsdk.a(usbd_drv.o)
                0x1004dfa8                usbd_device_init
                0x1004efd0                usbd_bus_reset
                0x1004f33c                usbd_get_setup_packet
                0x1004f8f4                usbd_device_send_control_packet
                0x1004fd08                usbd_device_send_zero_len_packet
                0x10050088                usbd_endpoint_qh_init
                0x100501ac                usbd_dtd_init
                0x100502f8                usbd_add_dtd
                0x1005098c                usbd_reclaim_dtd
 .text          0x10050a6c     0x37f0 /home/leon/git/swp-report/iMX6_Platform_SDK/output/mx6dq/lib/libsdk.a(usbh_drv.o)
                0x10050a6c                usbh_init
                0x100519fc                usbh_periodic_schedule_init
                0x10053254                usbh_bus_reset
                0x10053558                usbh_enable_asynchronous_schedule
                0x1005385c                usbh_disable_asynchronous_schedule
                0x10053b60                usbh_disable_Periodic_list
                0x10053e64                usbh_qtd_init
                0x1005408c                usbh_qh_init
 .text          0x1005425c     0x11b8 /home/leon/git/swp-report/iMX6_Platform_SDK/output/mx6dq/lib/libsdk.a(usdhc.o)
                0x10054474                set_card_access_mode
                0x100544b4                read_usdhc_adma_mode
                0x100544d4                read_usdhc_intr_mode
                0x100544f4                card_init
                0x100546a4                card_emmc_init
                0x10054738                card_cmd_config
                0x1005484c                card_get_cid
                0x100548ec                card_enter_trans
                0x100549c8                card_trans_status
                0x10054ac4                card_get_port
                0x10054bac                card_set_blklen
                0x10054c90                card_data_read
                0x10054f7c                card_data_write
                0x1005527c                card_xfer_result
                0x10055370                card_wait_xfer_done
 .text          0x10055414     0x3484 /home/leon/git/swp-report/iMX6_Platform_SDK/output/mx6dq/lib/libsdk.a(usdhc_host.o)
                0x100567f4                usdhc1_isr
                0x1005680c                usdhc2_isr
                0x10056824                usdhc3_isr
                0x1005683c                usdhc4_isr
                0x10056854                host_init
                0x10056884                host_init_active
                0x1005692c                host_send_cmd
                0x10056d54                host_cfg_clock
                0x100574f0                host_set_bus_width
                0x10057528                host_reset
                0x10057658                host_read_response
                0x10057848                host_cfg_block
                0x10057ac4                host_clear_fifo
                0x10057c70                host_setup_adma
                0x10057e90                host_data_read
                0x10058398                host_data_write
 .text          0x10058898      0xe04 /home/leon/git/swp-report/iMX6_Platform_SDK/output/mx6dq/lib/libsdk.a(usdhc_mmc.o)
                0x10058e38                mmc_init
                0x10058edc                emmc_init
                0x10059008                emmc_print_cfg_info
                0x10059240                mmc_set_boot_bus_width
                0x10059308                mmc_set_boot_partition
                0x10059408                mmc_set_boot_ack
                0x1005948c                mmc_voltage_validation
 .text          0x1005969c      0x800 /home/leon/git/swp-report/iMX6_Platform_SDK/output/mx6dq/lib/libsdk.a(usdhc_sd.o)
                0x10059a30                sd_init
                0x10059ae8                sd_voltage_validation
 .text          0x10059e9c       0x60 /home/leon/git/swp-report/iMX6_Platform_SDK/output/mx6dq/lib/libsdk.a(spinlock.o)
                0x10059e9c                spinlock_init
                0x10059ec4                spinlock_is_locked
 .text          0x10059efc       0x60 /home/leon/git/swp-report/iMX6_Platform_SDK/output/mx6dq/lib/libsdk.a(spinlock_lock_unlock.o)
                0x10059efc                spinlock_lock
                0x10059f28                spinlock_unlock
 .text          0x10059f5c        0x0 /home/leon/git/swp-report/iMX6_Platform_SDK/output/mx6dq/lib/libsdk.a(camera_profile.o)
 .text          0x10059f5c     0x1e94 /home/leon/git/swp-report/iMX6_Platform_SDK/output/mx6dq/lib/libsdk.a(hdmi_common.o)
                0x10059f5c                isColorSpaceConversion
                0x10059f98                isColorSpaceDecimation
                0x10059fd4                isColorSpaceInterpolation
                0x1005a028                isPixelRepetition
                0x1005a060                hdmi_set_video_mode
 .text          0x1005bdf0      0x2fc /home/leon/git/swp-report/iMX6_Platform_SDK/output/mx6dq/lib/libsdk.a(mx6x_usb.o)
                0x1005bdf0                usbEnableClocks
                0x1005bf18                usbEnableTransceiver
 .text          0x1005c0ec      0x144 /home/leon/git/swp-report/iMX6_Platform_SDK/output/mx6dq/lib/libboard_smart_device_rev_a.a(board_audio.o)
                0x1005c0ec                SGTL5000PowerUp_and_clockinit
                0x1005c0fc                spdif_get_tx_clk_freq
                0x1005c118                audio_codec_power_on
                0x1005c154                audio_clock_config
                0x1005c17c                spdif_clk_cfg
                0x1005c1e0                esai_codec_power_on
                0x1005c1f8                esai_clk_sel_gate_on
 .text          0x1005c230      0x388 /home/leon/git/swp-report/iMX6_Platform_SDK/output/mx6dq/lib/libboard_smart_device_rev_a.a(board_camera.o)
                0x1005c230                camera_power_on
                0x1005c240                csi_port0_iomux_config
                0x1005c270                camera_ipu1_iomux_config
                0x1005c40c                sensor_reset
                0x1005c4a4                sensor_standby
                0x1005c520                sensor_clock_setting
 .text          0x1005c5b8      0x3c8 /home/leon/git/swp-report/iMX6_Platform_SDK/output/mx6dq/lib/libboard_smart_device_rev_a.a(board_display.o)
                0x1005c5b8                lvds_power_on
                0x1005c620                disable_para_panel
                0x1005c670                tftlcd_backlight_en
                0x1005c74c                tftlcd_reset
                0x1005c7e4                ldb_clock_config
                0x1005c914                epdc_clock_setting
                0x1005c930                epdc_power_supply
 .text          0x1005c980      0x248 /home/leon/git/swp-report/iMX6_Platform_SDK/output/mx6dq/lib/libboard_smart_device_rev_a.a(board_hdmi.o)
                0x1005c980                hdmi_tx_cec_pgm_iomux
                0x1005c9c4                hdmi_tx_ddc_pgm_iomux
                0x1005ca3c                hdmi_tx_phydtb_pgm_iomux
                0x1005ca8c                hdmi_pgm_iomux
                0x1005caac                ext_hdmi_transmitter_power_on
                0x1005cabc                hdmi_clock_set
 .text          0x1005cbc8        0x0 /home/leon/git/swp-report/iMX6_Platform_SDK/output/mx6dq/lib/libboard_smart_device_rev_a.a(board_i2c.o)
 .text          0x1005cbc8      0x240 /home/leon/git/swp-report/iMX6_Platform_SDK/output/mx6dq/lib/libboard_smart_device_rev_a.a(board_mipi.o)
                0x1005cbc8                mipi_cam_power_on
                0x1005cc70                mipi_backlight_en
                0x1005ccc0                mipi_display_reset
                0x1005cd30                mipi_clock_set
                0x1005cd60                mipi_csi2_clock_set
 .text          0x1005ce08       0x94 /home/leon/git/swp-report/iMX6_Platform_SDK/output/mx6dq/lib/libboard_smart_device_rev_a.a(board_network.o)
                0x1005ce08                imx_ar8031_iomux
                0x1005ce1c                imx_KSZ9021RN_reset
                0x1005ce2c                imx_ar8031_reset
                0x1005ce74                imx_enet_iomux
                0x1005ce88                imx_enet_phy_reset
 .text          0x1005ce9c      0x23c /home/leon/git/swp-report/iMX6_Platform_SDK/output/mx6dq/lib/libboard_smart_device_rev_a.a(board_pcie.o)
                0x1005ce9c                pcie_clk_setup
                0x1005cf38                pcie_card_pwr_setup
                0x1005cfa0                pcie_enable_extrn_125mhz_clk
                0x1005d010                pcie_enable_extrn_100mhz_clk
                0x1005d080                pcie_card_rst
 .text          0x1005d0d8      0x1a0 /home/leon/git/swp-report/iMX6_Platform_SDK/output/mx6dq/lib/libboard_smart_device_rev_a.a(board_sata.o)
                0x1005d0d8                sata_power_on
                0x1005d114                sata_power_off
                0x1005d138                enable_extrn_100mhz_clk
                0x1005d1a8                sata_clock_enable
                0x1005d224                sata_clock_disable
                0x1005d250                sata_get_phy_src_clk
 .text          0x1005d278      0x128 /home/leon/git/swp-report/iMX6_Platform_SDK/output/mx6dq/lib/libboard_smart_device_rev_a.a(board_usb.o)
                0x1005d278                usbEnableVbus
                0x1005d324                usbDisableVbus
                0x1005d390                reset_usb_hub
 .text          0x1005d3a0      0x154 /home/leon/git/swp-report/iMX6_Platform_SDK/output/mx6dq/lib/libboard_smart_device_rev_a.a(board_usdhc.o)
                0x1005d3a0                usdhc_gpio_config
                0x1005d3e4                usdhc_card_detected
                0x1005d46c                usdhc_write_protected
 .text          0x1005d4f4       0x90 /home/leon/git/swp-report/iMX6_Platform_SDK/output/mx6dq/lib/libboard_smart_device_rev_a.a(ecspi_iomux_config.o)
                0x1005d4f4                ecspi_iomux_config
 .text          0x1005d584       0x74 /home/leon/git/swp-report/iMX6_Platform_SDK/output/mx6dq/lib/libboard_smart_device_rev_a.a(i2c_iomux_config.o)
                0x1005d584                i2c_iomux_config
 .text          0x1005d5f8       0x84 /home/leon/git/swp-report/iMX6_Platform_SDK/output/mx6dq/lib/libboard_smart_device_rev_a.a(pwm_iomux_config.o)
                0x1005d5f8                pwm_iomux_config
 .text          0x1005d67c       0x84 /home/leon/git/swp-report/iMX6_Platform_SDK/output/mx6dq/lib/libboard_smart_device_rev_a.a(usdhc_iomux_config.o)
                0x1005d67c                usdhc_iomux_config
 .text          0x1005d700        0x0 /home/leon/riotboard/arm-2012.09/bin/../arm-none-eabi/lib//libstdc++.a(pure.o)
 .text.__cxa_pure_virtual
                0x1005d700       0x1c /home/leon/riotboard/arm-2012.09/bin/../arm-none-eabi/lib//libstdc++.a(pure.o)
                0x1005d700                __cxa_pure_virtual
 .text.__cxa_deleted_virtual
                0x1005d71c       0x1c /home/leon/riotboard/arm-2012.09/bin/../arm-none-eabi/lib//libstdc++.a(pure.o)
                0x1005d71c                __cxa_deleted_virtual
 .text          0x1005d738        0x0 /home/leon/riotboard/arm-2012.09/bin/../arm-none-eabi/lib//libstdc++.a(eh_terminate.o)
 .text._ZN10__cxxabiv111__terminateEPFvvE
                0x1005d738       0x34 /home/leon/riotboard/arm-2012.09/bin/../arm-none-eabi/lib//libstdc++.a(eh_terminate.o)
                0x1005d738                __cxxabiv1::__terminate(void (*)())
 .text._ZSt9terminatev
                0x1005d76c       0x14 /home/leon/riotboard/arm-2012.09/bin/../arm-none-eabi/lib//libstdc++.a(eh_terminate.o)
                0x1005d76c                std::terminate()
 .text._ZN10__cxxabiv112__unexpectedEPFvvE
                0x1005d780       0x10 /home/leon/riotboard/arm-2012.09/bin/../arm-none-eabi/lib//libstdc++.a(eh_terminate.o)
                0x1005d780                __cxxabiv1::__unexpected(void (*)())
 .text._ZSt10unexpectedv
                0x1005d790       0x14 /home/leon/riotboard/arm-2012.09/bin/../arm-none-eabi/lib//libstdc++.a(eh_terminate.o)
                0x1005d790                std::unexpected()
 .text._ZSt13set_terminatePFvvE
                0x1005d7a4       0x18 /home/leon/riotboard/arm-2012.09/bin/../arm-none-eabi/lib//libstdc++.a(eh_terminate.o)
                0x1005d7a4                std::set_terminate(void (*)())
 .text._ZSt14set_unexpectedPFvvE
                0x1005d7bc       0x18 /home/leon/riotboard/arm-2012.09/bin/../arm-none-eabi/lib//libstdc++.a(eh_terminate.o)
                0x1005d7bc                std::set_unexpected(void (*)())
 .text          0x1005d7d4        0x0 /home/leon/riotboard/arm-2012.09/bin/../arm-none-eabi/lib//libstdc++.a(eh_unex_handler.o)
 .text          0x1005d7d4        0x0 /home/leon/riotboard/arm-2012.09/bin/../arm-none-eabi/lib//libstdc++.a(eh_call.o)
 .text._ZN10__cxxabiv1L24__is_gxx_exception_classEPc
                0x1005d7d4       0x70 /home/leon/riotboard/arm-2012.09/bin/../arm-none-eabi/lib//libstdc++.a(eh_call.o)
 .text.__cxa_call_terminate
                0x1005d844       0x2c /home/leon/riotboard/arm-2012.09/bin/../arm-none-eabi/lib//libstdc++.a(eh_call.o)
                0x1005d844                __cxa_call_terminate
 .text.__cxa_call_unexpected
                0x1005d870      0x134 /home/leon/riotboard/arm-2012.09/bin/../arm-none-eabi/lib//libstdc++.a(eh_call.o)
                0x1005d870                __cxa_call_unexpected
 .text          0x1005d9a4        0x0 /home/leon/riotboard/arm-2012.09/bin/../arm-none-eabi/lib//libstdc++.a(eh_throw.o)
 .text._ZL23__gxx_exception_cleanup19_Unwind_Reason_CodeP21_Unwind_Control_Block
                0x1005d9a4       0x3c /home/leon/riotboard/arm-2012.09/bin/../arm-none-eabi/lib//libstdc++.a(eh_throw.o)
 .text.__cxa_throw
                0x1005d9e0       0x94 /home/leon/riotboard/arm-2012.09/bin/../arm-none-eabi/lib//libstdc++.a(eh_throw.o)
                0x1005d9e0                __cxa_throw
 .text.__cxa_rethrow
                0x1005da74       0xb0 /home/leon/riotboard/arm-2012.09/bin/../arm-none-eabi/lib//libstdc++.a(eh_throw.o)
                0x1005da74                __cxa_rethrow
 .text          0x1005db24        0x0 /home/leon/riotboard/arm-2012.09/bin/../arm-none-eabi/lib//libstdc++.a(eh_arm.o)
 .text.__cxa_end_cleanup
                0x1005db24       0x10 /home/leon/riotboard/arm-2012.09/bin/../arm-none-eabi/lib//libstdc++.a(eh_arm.o)
                0x1005db24                __cxa_end_cleanup
 .text.__cxa_type_match
                0x1005db34      0x14c /home/leon/riotboard/arm-2012.09/bin/../arm-none-eabi/lib//libstdc++.a(eh_arm.o)
                0x1005db34                __cxa_type_match
 .text.__cxa_begin_cleanup
                0x1005dc80       0xb0 /home/leon/riotboard/arm-2012.09/bin/../arm-none-eabi/lib//libstdc++.a(eh_arm.o)
                0x1005dc80                __cxa_begin_cleanup
 .text.__gnu_end_cleanup
                0x1005dd30       0xb0 /home/leon/riotboard/arm-2012.09/bin/../arm-none-eabi/lib//libstdc++.a(eh_arm.o)
                0x1005dd30                __gnu_end_cleanup
 .text          0x1005dde0        0x0 /home/leon/riotboard/arm-2012.09/bin/../arm-none-eabi/lib//libstdc++.a(eh_exception.o)
 .text._ZNSt9exceptionD2Ev
                0x1005dde0       0x10 /home/leon/riotboard/arm-2012.09/bin/../arm-none-eabi/lib//libstdc++.a(eh_exception.o)
                0x1005dde0                std::exception::~exception()
                0x1005dde0                std::exception::~exception()
 .text._ZNSt13bad_exceptionD2Ev
                0x1005ddf0       0x10 /home/leon/riotboard/arm-2012.09/bin/../arm-none-eabi/lib//libstdc++.a(eh_exception.o)
                0x1005ddf0                std::bad_exception::~bad_exception()
                0x1005ddf0                std::bad_exception::~bad_exception()
 .text._ZN10__cxxabiv115__forced_unwindD2Ev
                0x1005de00       0x10 /home/leon/riotboard/arm-2012.09/bin/../arm-none-eabi/lib//libstdc++.a(eh_exception.o)
                0x1005de00                __cxxabiv1::__forced_unwind::~__forced_unwind()
                0x1005de00                __cxxabiv1::__forced_unwind::~__forced_unwind()
 .text._ZN10__cxxabiv119__foreign_exceptionD2Ev
                0x1005de10       0x10 /home/leon/riotboard/arm-2012.09/bin/../arm-none-eabi/lib//libstdc++.a(eh_exception.o)
                0x1005de10                __cxxabiv1::__foreign_exception::~__foreign_exception()
                0x1005de10                __cxxabiv1::__foreign_exception::~__foreign_exception()
 .text._ZNKSt9exception4whatEv
                0x1005de20        0xc /home/leon/riotboard/arm-2012.09/bin/../arm-none-eabi/lib//libstdc++.a(eh_exception.o)
                0x1005de20                std::exception::what() const
 .text._ZNKSt13bad_exception4whatEv
                0x1005de2c        0xc /home/leon/riotboard/arm-2012.09/bin/../arm-none-eabi/lib//libstdc++.a(eh_exception.o)
                0x1005de2c                std::bad_exception::what() const
 .text._ZN10__cxxabiv119__foreign_exceptionD0Ev
                0x1005de38       0x24 /home/leon/riotboard/arm-2012.09/bin/../arm-none-eabi/lib//libstdc++.a(eh_exception.o)
                0x1005de38                __cxxabiv1::__foreign_exception::~__foreign_exception()
 .text._ZN10__cxxabiv115__forced_unwindD0Ev
                0x1005de5c       0x24 /home/leon/riotboard/arm-2012.09/bin/../arm-none-eabi/lib//libstdc++.a(eh_exception.o)
                0x1005de5c                __cxxabiv1::__forced_unwind::~__forced_unwind()
 .text._ZNSt9exceptionD0Ev
                0x1005de80       0x24 /home/leon/riotboard/arm-2012.09/bin/../arm-none-eabi/lib//libstdc++.a(eh_exception.o)
                0x1005de80                std::exception::~exception()
 .text._ZNSt13bad_exceptionD0Ev
                0x1005dea4       0x24 /home/leon/riotboard/arm-2012.09/bin/../arm-none-eabi/lib//libstdc++.a(eh_exception.o)
                0x1005dea4                std::bad_exception::~bad_exception()
 .text          0x1005dec8        0x0 /home/leon/riotboard/arm-2012.09/bin/../arm-none-eabi/lib//libstdc++.a(eh_alloc.o)
 .text.__cxa_allocate_exception
                0x1005dec8       0x98 /home/leon/riotboard/arm-2012.09/bin/../arm-none-eabi/lib//libstdc++.a(eh_alloc.o)
                0x1005dec8                __cxa_allocate_exception
 .text.__cxa_free_exception
                0x1005df60       0x54 /home/leon/riotboard/arm-2012.09/bin/../arm-none-eabi/lib//libstdc++.a(eh_alloc.o)
                0x1005df60                __cxa_free_exception
 .text.__cxa_allocate_dependent_exception
                0x1005dfb4       0x90 /home/leon/riotboard/arm-2012.09/bin/../arm-none-eabi/lib//libstdc++.a(eh_alloc.o)
                0x1005dfb4                __cxa_allocate_dependent_exception
 .text.__cxa_free_dependent_exception
                0x1005e044       0x5c /home/leon/riotboard/arm-2012.09/bin/../arm-none-eabi/lib//libstdc++.a(eh_alloc.o)
                0x1005e044                __cxa_free_dependent_exception
 .text          0x1005e0a0        0x0 /home/leon/riotboard/arm-2012.09/bin/../arm-none-eabi/lib//libstdc++.a(eh_globals.o)
 .text.__cxa_get_globals_fast
                0x1005e0a0        0xc /home/leon/riotboard/arm-2012.09/bin/../arm-none-eabi/lib//libstdc++.a(eh_globals.o)
                0x1005e0a0                __cxa_get_globals_fast
 .text.__cxa_get_globals
                0x1005e0ac        0xc /home/leon/riotboard/arm-2012.09/bin/../arm-none-eabi/lib//libstdc++.a(eh_globals.o)
                0x1005e0ac                __cxa_get_globals
 .text          0x1005e0b8        0x0 /home/leon/riotboard/arm-2012.09/bin/../arm-none-eabi/lib//libstdc++.a(si_class_type_info.o)
 .text._ZNK10__cxxabiv120__si_class_type_info12__do_dyncastEiNS_17__class_type_info10__sub_kindEPKS1_PKvS4_S6_RNS1_16__dyncast_resultE
                0x1005e0b8       0xdc /home/leon/riotboard/arm-2012.09/bin/../arm-none-eabi/lib//libstdc++.a(si_class_type_info.o)
                0x1005e0b8                __cxxabiv1::__si_class_type_info::__do_dyncast(int, __cxxabiv1::__class_type_info::__sub_kind, __cxxabiv1::__class_type_info const*, void const*, __cxxabiv1::__class_type_info const*, void const*, __cxxabiv1::__class_type_info::__dyncast_result&) const
 .text._ZN10__cxxabiv120__si_class_type_infoD2Ev
                0x1005e194       0x24 /home/leon/riotboard/arm-2012.09/bin/../arm-none-eabi/lib//libstdc++.a(si_class_type_info.o)
                0x1005e194                __cxxabiv1::__si_class_type_info::~__si_class_type_info()
                0x1005e194                __cxxabiv1::__si_class_type_info::~__si_class_type_info()
 .text._ZN10__cxxabiv120__si_class_type_infoD0Ev
                0x1005e1b8       0x20 /home/leon/riotboard/arm-2012.09/bin/../arm-none-eabi/lib//libstdc++.a(si_class_type_info.o)
                0x1005e1b8                __cxxabiv1::__si_class_type_info::~__si_class_type_info()
 .text._ZNK10__cxxabiv120__si_class_type_info11__do_upcastEPKNS_17__class_type_infoEPKvRNS1_15__upcast_resultE
                0x1005e1d8       0x4c /home/leon/riotboard/arm-2012.09/bin/../arm-none-eabi/lib//libstdc++.a(si_class_type_info.o)
                0x1005e1d8                __cxxabiv1::__si_class_type_info::__do_upcast(__cxxabiv1::__class_type_info const*, void const*, __cxxabiv1::__class_type_info::__upcast_result&) const
 .text._ZNK10__cxxabiv120__si_class_type_info20__do_find_public_srcEiPKvPKNS_17__class_type_infoES2_
                0x1005e224       0x6c /home/leon/riotboard/arm-2012.09/bin/../arm-none-eabi/lib//libstdc++.a(si_class_type_info.o)
                0x1005e224                __cxxabiv1::__si_class_type_info::__do_find_public_src(int, void const*, __cxxabiv1::__class_type_info const*, void const*) const
 .text          0x1005e290        0x0 /home/leon/riotboard/arm-2012.09/bin/../arm-none-eabi/lib//libstdc++.a(eh_personality.o)
 .text._ZL12read_sleb128PKhPl
                0x1005e290       0x44 /home/leon/riotboard/arm-2012.09/bin/../arm-none-eabi/lib//libstdc++.a(eh_personality.o)
 .text._ZL28read_encoded_value_with_basehjPKhPj
                0x1005e2d4      0x170 /home/leon/riotboard/arm-2012.09/bin/../arm-none-eabi/lib//libstdc++.a(eh_personality.o)
 .text._ZL21base_of_encoded_valuehP15_Unwind_Context
                0x1005e444       0x7c /home/leon/riotboard/arm-2012.09/bin/../arm-none-eabi/lib//libstdc++.a(eh_personality.o)
 .text._ZL17parse_lsda_headerP15_Unwind_ContextPKhP16lsda_header_info
                0x1005e4c0       0xd8 /home/leon/riotboard/arm-2012.09/bin/../arm-none-eabi/lib//libstdc++.a(eh_personality.o)
 .text.__gxx_personality_v0
                0x1005e598      0x620 /home/leon/riotboard/arm-2012.09/bin/../arm-none-eabi/lib//libstdc++.a(eh_personality.o)
                0x1005e598                __gxx_personality_v0
 .text          0x1005ebb8        0x0 /home/leon/riotboard/arm-2012.09/bin/../arm-none-eabi/lib//libstdc++.a(eh_term_handler.o)
 .text          0x1005ebb8        0x0 /home/leon/riotboard/arm-2012.09/bin/../arm-none-eabi/lib//libstdc++.a(eh_catch.o)
 .text.__cxa_get_exception_ptr
                0x1005ebb8        0x8 /home/leon/riotboard/arm-2012.09/bin/../arm-none-eabi/lib//libstdc++.a(eh_catch.o)
                0x1005ebb8                __cxa_get_exception_ptr
 .text.__cxa_begin_catch
                0x1005ebc0       0xdc /home/leon/riotboard/arm-2012.09/bin/../arm-none-eabi/lib//libstdc++.a(eh_catch.o)
                0x1005ebc0                __cxa_begin_catch
 .text.__cxa_end_catch
                0x1005ec9c       0xdc /home/leon/riotboard/arm-2012.09/bin/../arm-none-eabi/lib//libstdc++.a(eh_catch.o)
                0x1005ec9c                __cxa_end_catch
 .text._ZSt18uncaught_exceptionv
                0x1005ed78       0x1c /home/leon/riotboard/arm-2012.09/bin/../arm-none-eabi/lib//libstdc++.a(eh_catch.o)
                0x1005ed78                std::uncaught_exception()
 .text          0x1005ed94        0x0 /home/leon/riotboard/arm-2012.09/bin/../arm-none-eabi/lib//libstdc++.a(class_type_info.o)
 .text._ZNK10__cxxabiv117__class_type_info11__do_upcastEPKS0_PPv
                0x1005ed94       0x64 /home/leon/riotboard/arm-2012.09/bin/../arm-none-eabi/lib//libstdc++.a(class_type_info.o)
                0x1005ed94                __cxxabiv1::__class_type_info::__do_upcast(__cxxabiv1::__class_type_info const*, void**) const
 .text._ZNK10__cxxabiv117__class_type_info20__do_find_public_srcEiPKvPKS0_S2_
                0x1005edf8       0x14 /home/leon/riotboard/arm-2012.09/bin/../arm-none-eabi/lib//libstdc++.a(class_type_info.o)
                0x1005edf8                __cxxabiv1::__class_type_info::__do_find_public_src(int, void const*, __cxxabiv1::__class_type_info const*, void const*) const
 .text._ZNK10__cxxabiv117__class_type_info11__do_upcastEPKS0_PKvRNS0_15__upcast_resultE
                0x1005ee0c       0x38 /home/leon/riotboard/arm-2012.09/bin/../arm-none-eabi/lib//libstdc++.a(class_type_info.o)
                0x1005ee0c                __cxxabiv1::__class_type_info::__do_upcast(__cxxabiv1::__class_type_info const*, void const*, __cxxabiv1::__class_type_info::__upcast_result&) const
 .text._ZN10__cxxabiv117__class_type_infoD2Ev
                0x1005ee44       0x24 /home/leon/riotboard/arm-2012.09/bin/../arm-none-eabi/lib//libstdc++.a(class_type_info.o)
                0x1005ee44                __cxxabiv1::__class_type_info::~__class_type_info()
                0x1005ee44                __cxxabiv1::__class_type_info::~__class_type_info()
 .text._ZN10__cxxabiv117__class_type_infoD0Ev
                0x1005ee68       0x20 /home/leon/riotboard/arm-2012.09/bin/../arm-none-eabi/lib//libstdc++.a(class_type_info.o)
                0x1005ee68                __cxxabiv1::__class_type_info::~__class_type_info()
 .text._ZNK10__cxxabiv117__class_type_info12__do_dyncastEiNS0_10__sub_kindEPKS0_PKvS3_S5_RNS0_16__dyncast_resultE
                0x1005ee88       0x7c /home/leon/riotboard/arm-2012.09/bin/../arm-none-eabi/lib//libstdc++.a(class_type_info.o)
                0x1005ee88                __cxxabiv1::__class_type_info::__do_dyncast(int, __cxxabiv1::__class_type_info::__sub_kind, __cxxabiv1::__class_type_info const*, void const*, __cxxabiv1::__class_type_info const*, void const*, __cxxabiv1::__class_type_info::__dyncast_result&) const
 .text._ZNK10__cxxabiv117__class_type_info10__do_catchEPKSt9type_infoPPvj
                0x1005ef04       0x54 /home/leon/riotboard/arm-2012.09/bin/../arm-none-eabi/lib//libstdc++.a(class_type_info.o)
                0x1005ef04                __cxxabiv1::__class_type_info::__do_catch(std::type_info const*, void**, unsigned int) const
 .text          0x1005ef58        0x0 /home/leon/riotboard/arm-2012.09/bin/../arm-none-eabi/lib//libstdc++.a(vterminate.o)
 .text._ZN9__gnu_cxx27__verbose_terminate_handlerEv
                0x1005ef58      0x19c /home/leon/riotboard/arm-2012.09/bin/../arm-none-eabi/lib//libstdc++.a(vterminate.o)
                0x1005ef58                __gnu_cxx::__verbose_terminate_handler()
 .text          0x1005f0f4     0x7c50 /home/leon/riotboard/arm-2012.09/bin/../arm-none-eabi/lib//libstdc++.a(cp-demangle.o)
                0x10066bc8                __cxa_demangle
                0x10066d14                __gcclibcxx_demangle_callback
 .text          0x10066d44        0x0 /home/leon/riotboard/arm-2012.09/bin/../arm-none-eabi/lib//libstdc++.a(eh_type.o)
 .text.__cxa_current_exception_type
                0x10066d44       0x30 /home/leon/riotboard/arm-2012.09/bin/../arm-none-eabi/lib//libstdc++.a(eh_type.o)
                0x10066d44                __cxa_current_exception_type
 .text          0x10066d74        0x0 /home/leon/riotboard/arm-2012.09/bin/../arm-none-eabi/lib//libstdc++.a(del_op.o)
 .text._ZdlPv   0x10066d74       0x14 /home/leon/riotboard/arm-2012.09/bin/../arm-none-eabi/lib//libstdc++.a(del_op.o)
                0x10066d74                operator delete(void*)
 .text          0x10066d88        0x0 /home/leon/riotboard/arm-2012.09/bin/../arm-none-eabi/lib//libstdc++.a(tinfo.o)
 .text._ZNSt9type_infoD2Ev
                0x10066d88       0x10 /home/leon/riotboard/arm-2012.09/bin/../arm-none-eabi/lib//libstdc++.a(tinfo.o)
                0x10066d88                std::type_info::~type_info()
                0x10066d88                std::type_info::~type_info()
 .text._ZNKSt9type_info14__is_pointer_pEv
                0x10066d98        0x8 /home/leon/riotboard/arm-2012.09/bin/../arm-none-eabi/lib//libstdc++.a(tinfo.o)
                0x10066d98                std::type_info::__is_pointer_p() const
 .text._ZNKSt9type_info15__is_function_pEv
                0x10066da0        0x8 /home/leon/riotboard/arm-2012.09/bin/../arm-none-eabi/lib//libstdc++.a(tinfo.o)
                0x10066da0                std::type_info::__is_function_p() const
 .text._ZNKSt9type_info11__do_upcastEPKN10__cxxabiv117__class_type_infoEPPv
                0x10066da8        0x8 /home/leon/riotboard/arm-2012.09/bin/../arm-none-eabi/lib//libstdc++.a(tinfo.o)
                0x10066da8                std::type_info::__do_upcast(__cxxabiv1::__class_type_info const*, void**) const
 .text._ZNSt9type_infoD0Ev
                0x10066db0       0x24 /home/leon/riotboard/arm-2012.09/bin/../arm-none-eabi/lib//libstdc++.a(tinfo.o)
                0x10066db0                std::type_info::~type_info()
 .text._ZNKSt9type_infoeqERKS_
                0x10066dd4       0x4c /home/leon/riotboard/arm-2012.09/bin/../arm-none-eabi/lib//libstdc++.a(tinfo.o)
                0x10066dd4                std::type_info::operator==(std::type_info const&) const
 .text._ZNKSt9type_info10__do_catchEPKS_PPvj
                0x10066e20        0x4 /home/leon/riotboard/arm-2012.09/bin/../arm-none-eabi/lib//libstdc++.a(tinfo.o)
                0x10066e20                std::type_info::__do_catch(std::type_info const*, void**, unsigned int) const
 .text          0x10066e24       0xe8 /home/leon/riotboard/arm-2012.09/bin/../arm-none-eabi/lib//libc.a(lib_a-fwrite.o)
                0x10066e24                _fwrite_r
                0x10066ec8                fwrite
 .text          0x10066f0c       0xb4 /home/leon/riotboard/arm-2012.09/bin/../arm-none-eabi/lib//libc.a(lib_a-memcmp.o)
                0x10066f0c                memcmp
 .text          0x10066fc0      0x140 /home/leon/riotboard/arm-2012.09/bin/../arm-none-eabi/lib//libc.a(lib_a-strncmp.o)
                0x10066fc0                strncmp
 .text          0x10067100       0x30 /home/leon/riotboard/arm-2012.09/bin/../arm-none-eabi/lib//libc.a(lib_a-syswrite.o)
                0x10067100                write
 .text          0x10067130      0x148 /home/leon/riotboard/arm-2012.09/bin/../lib/gcc/arm-none-eabi/4.7.2//libgcc.a(_divsi3.o)
                0x10067130                __aeabi_idiv
                0x10067130                __divsi3
                0x10067258                __aeabi_idivmod
 .text          0x10067278      0xfa8 /home/leon/riotboard/arm-2012.09/bin/../lib/gcc/arm-none-eabi/4.7.2//libgcc.a(unwind-arm.o)
                0x100676f8                _Unwind_GetCFA
                0x10067700                __gnu_Unwind_RaiseException
                0x100677ac                __gnu_Unwind_ForcedUnwind
                0x100677d0                __gnu_Unwind_Resume
                0x10067848                __gnu_Unwind_Resume_or_Rethrow
                0x10067868                _Unwind_Complete
                0x1006786c                _Unwind_DeleteException
                0x10067890                _Unwind_VRS_Get
                0x10067904                _Unwind_VRS_Set
                0x10067da8                __aeabi_unwind_cpp_pr2
                0x10067db0                __aeabi_unwind_cpp_pr1
                0x10067db8                __aeabi_unwind_cpp_pr0
                0x10067dc0                __gnu_Unwind_Backtrace
                0x10067e8c                _Unwind_VRS_Pop
 .text          0x10068220      0x1b0 /home/leon/riotboard/arm-2012.09/bin/../lib/gcc/arm-none-eabi/4.7.2//libgcc.a(libunwind.o)
                0x10068220                __restore_core_regs
                0x10068220                restore_core_regs
                0x1006823c                __gnu_Unwind_Restore_VFP
                0x10068244                __gnu_Unwind_Save_VFP
                0x1006824c                __gnu_Unwind_Restore_VFP_D
                0x10068254                __gnu_Unwind_Save_VFP_D
                0x1006825c                __gnu_Unwind_Restore_VFP_D_16_to_31
                0x10068264                __gnu_Unwind_Save_VFP_D_16_to_31
                0x1006826c                __gnu_Unwind_Restore_WMMXD
                0x100682b0                __gnu_Unwind_Save_WMMXD
                0x100682f4                __gnu_Unwind_Restore_WMMXC
                0x10068308                __gnu_Unwind_Save_WMMXC
                0x1006831c                ___Unwind_RaiseException
                0x1006831c                _Unwind_RaiseException
                0x10068340                ___Unwind_Resume
                0x10068340                _Unwind_Resume
                0x10068364                _Unwind_Resume_or_Rethrow
                0x10068364                ___Unwind_Resume_or_Rethrow
                0x10068388                ___Unwind_ForcedUnwind
                0x10068388                _Unwind_ForcedUnwind
                0x100683ac                _Unwind_Backtrace
                0x100683ac                ___Unwind_Backtrace
 .text          0x100683d0      0x53c /home/leon/riotboard/arm-2012.09/bin/../lib/gcc/arm-none-eabi/4.7.2//libgcc.a(pr-support.o)
                0x10068464                __gnu_unwind_execute
                0x10068880                __gnu_unwind_frame
                0x100688c8                _Unwind_GetRegionStart
                0x100688dc                _Unwind_GetLanguageSpecificData
                0x100688fc                _Unwind_GetDataRelBase
                0x10068904                _Unwind_GetTextRelBase
 .text          0x1006890c      0x264 /home/leon/git/swp-report/iMX6_Platform_SDK/output/mx6dq/lib/libsdk.a(max7310.o)
                0x1006890c                max7310_reg_read
                0x10068970                max7310_reg_write
                0x100689dc                max7310_init
                0x10068abc                max7310_set_gpio_output
 *(.glue_7t)
 .glue_7t       0x00000000        0x0 linker stubs
 *(.glue_7)
 .glue_7        0x00000000        0x0 linker stubs
 *(.vfp11_veneer)
 .vfp11_veneer  0x00000000        0x0 linker stubs
 *(.ARM.extab* .gnu.linkonce.armextab.*)
 .ARM.extab.startup
                0x10068b70        0x0 /home/leon/git/swp-report/iMX6_Platform_SDK/output/mx6dq/lib/libsdk.a(startup.o)
 .ARM.extab     0x10068b70        0x0 /home/leon/riotboard/arm-2012.09/bin/../lib/gcc/arm-none-eabi/4.7.2//libgcc.a(_divdi3.o)
 .ARM.extab     0x10068b70        0x0 /home/leon/riotboard/arm-2012.09/bin/../lib/gcc/arm-none-eabi/4.7.2//libgcc.a(_udivdi3.o)
 .ARM.extab.text.__cxa_pure_virtual
                0x10068b70        0xc /home/leon/riotboard/arm-2012.09/bin/../arm-none-eabi/lib//libstdc++.a(pure.o)
 .ARM.extab.text.__cxa_deleted_virtual
                0x10068b7c        0xc /home/leon/riotboard/arm-2012.09/bin/../arm-none-eabi/lib//libstdc++.a(pure.o)
 .ARM.extab.text._ZN10__cxxabiv111__terminateEPFvvE
                0x10068b88       0x2c /home/leon/riotboard/arm-2012.09/bin/../arm-none-eabi/lib//libstdc++.a(eh_terminate.o)
 .ARM.extab.text._ZSt9terminatev
                0x10068bb4        0x0 /home/leon/riotboard/arm-2012.09/bin/../arm-none-eabi/lib//libstdc++.a(eh_terminate.o)
 .ARM.extab.text._ZN10__cxxabiv112__unexpectedEPFvvE
                0x10068bb4        0xc /home/leon/riotboard/arm-2012.09/bin/../arm-none-eabi/lib//libstdc++.a(eh_terminate.o)
 .ARM.extab.text._ZSt10unexpectedv
                0x10068bc0        0xc /home/leon/riotboard/arm-2012.09/bin/../arm-none-eabi/lib//libstdc++.a(eh_terminate.o)
 .ARM.extab.text._ZSt13set_terminatePFvvE
                0x10068bcc        0x0 /home/leon/riotboard/arm-2012.09/bin/../arm-none-eabi/lib//libstdc++.a(eh_terminate.o)
 .ARM.extab.text._ZSt14set_unexpectedPFvvE
                0x10068bcc        0x0 /home/leon/riotboard/arm-2012.09/bin/../arm-none-eabi/lib//libstdc++.a(eh_terminate.o)
 .ARM.extab.text._ZN10__cxxabiv1L24__is_gxx_exception_classEPc
                0x10068bcc        0x0 /home/leon/riotboard/arm-2012.09/bin/../arm-none-eabi/lib//libstdc++.a(eh_call.o)
 .ARM.extab.text.__cxa_call_terminate
                0x10068bcc        0x0 /home/leon/riotboard/arm-2012.09/bin/../arm-none-eabi/lib//libstdc++.a(eh_call.o)
 .ARM.extab.text.__cxa_call_unexpected
                0x10068bcc       0x28 /home/leon/riotboard/arm-2012.09/bin/../arm-none-eabi/lib//libstdc++.a(eh_call.o)
 .ARM.extab.text._ZL23__gxx_exception_cleanup19_Unwind_Reason_CodeP21_Unwind_Control_Block
                0x10068bf4        0x0 /home/leon/riotboard/arm-2012.09/bin/../arm-none-eabi/lib//libstdc++.a(eh_throw.o)
 .ARM.extab.text.__cxa_throw
                0x10068bf4        0x0 /home/leon/riotboard/arm-2012.09/bin/../arm-none-eabi/lib//libstdc++.a(eh_throw.o)
 .ARM.extab.text.__cxa_rethrow
                0x10068bf4        0x0 /home/leon/riotboard/arm-2012.09/bin/../arm-none-eabi/lib//libstdc++.a(eh_throw.o)
 .ARM.extab.text.__cxa_type_match
                0x10068bf4        0x0 /home/leon/riotboard/arm-2012.09/bin/../arm-none-eabi/lib//libstdc++.a(eh_arm.o)
 .ARM.extab.text.__cxa_begin_cleanup
                0x10068bf4        0x0 /home/leon/riotboard/arm-2012.09/bin/../arm-none-eabi/lib//libstdc++.a(eh_arm.o)
 .ARM.extab.text.__gnu_end_cleanup
                0x10068bf4        0x0 /home/leon/riotboard/arm-2012.09/bin/../arm-none-eabi/lib//libstdc++.a(eh_arm.o)
 .ARM.extab.text._ZNSt9exceptionD2Ev
                0x10068bf4        0x0 /home/leon/riotboard/arm-2012.09/bin/../arm-none-eabi/lib//libstdc++.a(eh_exception.o)
 .ARM.extab.text._ZNSt13bad_exceptionD2Ev
                0x10068bf4        0x0 /home/leon/riotboard/arm-2012.09/bin/../arm-none-eabi/lib//libstdc++.a(eh_exception.o)
 .ARM.extab.text._ZN10__cxxabiv115__forced_unwindD2Ev
                0x10068bf4        0x0 /home/leon/riotboard/arm-2012.09/bin/../arm-none-eabi/lib//libstdc++.a(eh_exception.o)
 .ARM.extab.text._ZN10__cxxabiv119__foreign_exceptionD2Ev
                0x10068bf4        0x0 /home/leon/riotboard/arm-2012.09/bin/../arm-none-eabi/lib//libstdc++.a(eh_exception.o)
 .ARM.extab.text._ZNKSt9exception4whatEv
                0x10068bf4        0x0 /home/leon/riotboard/arm-2012.09/bin/../arm-none-eabi/lib//libstdc++.a(eh_exception.o)
 .ARM.extab.text._ZNKSt13bad_exception4whatEv
                0x10068bf4        0x0 /home/leon/riotboard/arm-2012.09/bin/../arm-none-eabi/lib//libstdc++.a(eh_exception.o)
 .ARM.extab.text._ZN10__cxxabiv119__foreign_exceptionD0Ev
                0x10068bf4        0x0 /home/leon/riotboard/arm-2012.09/bin/../arm-none-eabi/lib//libstdc++.a(eh_exception.o)
 .ARM.extab.text._ZN10__cxxabiv115__forced_unwindD0Ev
                0x10068bf4        0x0 /home/leon/riotboard/arm-2012.09/bin/../arm-none-eabi/lib//libstdc++.a(eh_exception.o)
 .ARM.extab.text._ZNSt9exceptionD0Ev
                0x10068bf4        0x0 /home/leon/riotboard/arm-2012.09/bin/../arm-none-eabi/lib//libstdc++.a(eh_exception.o)
 .ARM.extab.text._ZNSt13bad_exceptionD0Ev
                0x10068bf4        0x0 /home/leon/riotboard/arm-2012.09/bin/../arm-none-eabi/lib//libstdc++.a(eh_exception.o)
 .ARM.extab.text.__cxa_allocate_exception
                0x10068bf4        0x0 /home/leon/riotboard/arm-2012.09/bin/../arm-none-eabi/lib//libstdc++.a(eh_alloc.o)
 .ARM.extab.text.__cxa_free_exception
                0x10068bf4        0x0 /home/leon/riotboard/arm-2012.09/bin/../arm-none-eabi/lib//libstdc++.a(eh_alloc.o)
 .ARM.extab.text.__cxa_allocate_dependent_exception
                0x10068bf4        0x0 /home/leon/riotboard/arm-2012.09/bin/../arm-none-eabi/lib//libstdc++.a(eh_alloc.o)
 .ARM.extab.text.__cxa_free_dependent_exception
                0x10068bf4        0x0 /home/leon/riotboard/arm-2012.09/bin/../arm-none-eabi/lib//libstdc++.a(eh_alloc.o)
 .ARM.extab.text.__cxa_get_globals_fast
                0x10068bf4        0x0 /home/leon/riotboard/arm-2012.09/bin/../arm-none-eabi/lib//libstdc++.a(eh_globals.o)
 .ARM.extab.text.__cxa_get_globals
                0x10068bf4        0x0 /home/leon/riotboard/arm-2012.09/bin/../arm-none-eabi/lib//libstdc++.a(eh_globals.o)
 .ARM.extab.text._ZNK10__cxxabiv120__si_class_type_info12__do_dyncastEiNS_17__class_type_info10__sub_kindEPKS1_PKvS4_S6_RNS1_16__dyncast_resultE
                0x10068bf4        0x0 /home/leon/riotboard/arm-2012.09/bin/../arm-none-eabi/lib//libstdc++.a(si_class_type_info.o)
 .ARM.extab.text._ZN10__cxxabiv120__si_class_type_infoD2Ev
                0x10068bf4        0x0 /home/leon/riotboard/arm-2012.09/bin/../arm-none-eabi/lib//libstdc++.a(si_class_type_info.o)
 .ARM.extab.text._ZN10__cxxabiv120__si_class_type_infoD0Ev
                0x10068bf4        0x0 /home/leon/riotboard/arm-2012.09/bin/../arm-none-eabi/lib//libstdc++.a(si_class_type_info.o)
 .ARM.extab.text._ZNK10__cxxabiv120__si_class_type_info11__do_upcastEPKNS_17__class_type_infoEPKvRNS1_15__upcast_resultE
                0x10068bf4        0x0 /home/leon/riotboard/arm-2012.09/bin/../arm-none-eabi/lib//libstdc++.a(si_class_type_info.o)
 .ARM.extab.text._ZNK10__cxxabiv120__si_class_type_info20__do_find_public_srcEiPKvPKNS_17__class_type_infoES2_
                0x10068bf4        0x0 /home/leon/riotboard/arm-2012.09/bin/../arm-none-eabi/lib//libstdc++.a(si_class_type_info.o)
 .ARM.extab.text._ZL12read_sleb128PKhPl
                0x10068bf4        0x0 /home/leon/riotboard/arm-2012.09/bin/../arm-none-eabi/lib//libstdc++.a(eh_personality.o)
 .ARM.extab.text._ZL28read_encoded_value_with_basehjPKhPj
                0x10068bf4        0x0 /home/leon/riotboard/arm-2012.09/bin/../arm-none-eabi/lib//libstdc++.a(eh_personality.o)
 .ARM.extab.text._ZL21base_of_encoded_valuehP15_Unwind_Context
                0x10068bf4        0xc /home/leon/riotboard/arm-2012.09/bin/../arm-none-eabi/lib//libstdc++.a(eh_personality.o)
 .ARM.extab.text._ZL17parse_lsda_headerP15_Unwind_ContextPKhP16lsda_header_info
                0x10068c00        0x0 /home/leon/riotboard/arm-2012.09/bin/../arm-none-eabi/lib//libstdc++.a(eh_personality.o)
 .ARM.extab.text.__gxx_personality_v0
                0x10068c00       0x20 /home/leon/riotboard/arm-2012.09/bin/../arm-none-eabi/lib//libstdc++.a(eh_personality.o)
 .ARM.extab.text.__cxa_get_exception_ptr
                0x10068c20        0x0 /home/leon/riotboard/arm-2012.09/bin/../arm-none-eabi/lib//libstdc++.a(eh_catch.o)
 .ARM.extab.text.__cxa_begin_catch
                0x10068c20       0x20 /home/leon/riotboard/arm-2012.09/bin/../arm-none-eabi/lib//libstdc++.a(eh_catch.o)
 .ARM.extab.text.__cxa_end_catch
                0x10068c40        0xc /home/leon/riotboard/arm-2012.09/bin/../arm-none-eabi/lib//libstdc++.a(eh_catch.o)
 .ARM.extab.text._ZSt18uncaught_exceptionv
                0x10068c4c        0x0 /home/leon/riotboard/arm-2012.09/bin/../arm-none-eabi/lib//libstdc++.a(eh_catch.o)
 .ARM.extab.text._ZNK10__cxxabiv117__class_type_info11__do_upcastEPKS0_PPv
                0x10068c4c        0x0 /home/leon/riotboard/arm-2012.09/bin/../arm-none-eabi/lib//libstdc++.a(class_type_info.o)
 .ARM.extab.text._ZNK10__cxxabiv117__class_type_info20__do_find_public_srcEiPKvPKS0_S2_
                0x10068c4c        0x0 /home/leon/riotboard/arm-2012.09/bin/../arm-none-eabi/lib//libstdc++.a(class_type_info.o)
 .ARM.extab.text._ZNK10__cxxabiv117__class_type_info11__do_upcastEPKS0_PKvRNS0_15__upcast_resultE
                0x10068c4c        0x0 /home/leon/riotboard/arm-2012.09/bin/../arm-none-eabi/lib//libstdc++.a(class_type_info.o)
 .ARM.extab.text._ZN10__cxxabiv117__class_type_infoD2Ev
                0x10068c4c        0x0 /home/leon/riotboard/arm-2012.09/bin/../arm-none-eabi/lib//libstdc++.a(class_type_info.o)
 .ARM.extab.text._ZN10__cxxabiv117__class_type_infoD0Ev
                0x10068c4c        0x0 /home/leon/riotboard/arm-2012.09/bin/../arm-none-eabi/lib//libstdc++.a(class_type_info.o)
 .ARM.extab.text._ZNK10__cxxabiv117__class_type_info12__do_dyncastEiNS0_10__sub_kindEPKS0_PKvS3_S5_RNS0_16__dyncast_resultE
                0x10068c4c        0x0 /home/leon/riotboard/arm-2012.09/bin/../arm-none-eabi/lib//libstdc++.a(class_type_info.o)
 .ARM.extab.text._ZNK10__cxxabiv117__class_type_info10__do_catchEPKSt9type_infoPPvj
                0x10068c4c        0x0 /home/leon/riotboard/arm-2012.09/bin/../arm-none-eabi/lib//libstdc++.a(class_type_info.o)
 .ARM.extab.text._ZN9__gnu_cxx27__verbose_terminate_handlerEv
                0x10068c4c       0x34 /home/leon/riotboard/arm-2012.09/bin/../arm-none-eabi/lib//libstdc++.a(vterminate.o)
 .ARM.extab.text.__cxa_current_exception_type
                0x10068c80        0x0 /home/leon/riotboard/arm-2012.09/bin/../arm-none-eabi/lib//libstdc++.a(eh_type.o)
 .ARM.extab.text._ZdlPv
                0x10068c80        0x0 /home/leon/riotboard/arm-2012.09/bin/../arm-none-eabi/lib//libstdc++.a(del_op.o)
 .ARM.extab.text._ZNSt9type_infoD2Ev
                0x10068c80        0x0 /home/leon/riotboard/arm-2012.09/bin/../arm-none-eabi/lib//libstdc++.a(tinfo.o)
 .ARM.extab.text._ZNKSt9type_info14__is_pointer_pEv
                0x10068c80        0x0 /home/leon/riotboard/arm-2012.09/bin/../arm-none-eabi/lib//libstdc++.a(tinfo.o)
 .ARM.extab.text._ZNKSt9type_info15__is_function_pEv
                0x10068c80        0x0 /home/leon/riotboard/arm-2012.09/bin/../arm-none-eabi/lib//libstdc++.a(tinfo.o)
 .ARM.extab.text._ZNKSt9type_info11__do_upcastEPKN10__cxxabiv117__class_type_infoEPPv
                0x10068c80        0x0 /home/leon/riotboard/arm-2012.09/bin/../arm-none-eabi/lib//libstdc++.a(tinfo.o)
 .ARM.extab.text._ZNSt9type_infoD0Ev
                0x10068c80        0x0 /home/leon/riotboard/arm-2012.09/bin/../arm-none-eabi/lib//libstdc++.a(tinfo.o)
 .ARM.extab.text._ZNKSt9type_infoeqERKS_
                0x10068c80        0x0 /home/leon/riotboard/arm-2012.09/bin/../arm-none-eabi/lib//libstdc++.a(tinfo.o)
 .ARM.extab.text._ZNKSt9type_info10__do_catchEPKS_PPvj
                0x10068c80        0x0 /home/leon/riotboard/arm-2012.09/bin/../arm-none-eabi/lib//libstdc++.a(tinfo.o)
 .ARM.extab     0x10068c80       0x18 /home/leon/riotboard/arm-2012.09/bin/../lib/gcc/arm-none-eabi/4.7.2//libgcc.a(unwind-arm.o)
 .ARM.extab     0x10068c98       0x18 /home/leon/riotboard/arm-2012.09/bin/../lib/gcc/arm-none-eabi/4.7.2//libgcc.a(pr-support.o)
 *(.gcc_except_table)

.v4_bx          0x10068cb0        0x0
 .v4_bx         0x00000000        0x0 linker stubs

.iplt           0x10068cb0        0x0
 .iplt          0x00000000        0x0 /home/leon/riotboard/arm-2012.09/bin/../lib/gcc/arm-none-eabi/4.7.2//crtbegin.o

.ctors
 *crtbegin.o(.ctors)
 *crtbegin?.o(.ctors)
 *(EXCLUDE_FILE(*crtend?.o *crtend.o) .ctors)
 *(SORT(.ctors.*))
 *(.ctors)

.dtors
 *crtbegin.o(.dtors)
 *crtbegin?.o(.dtors)
 *(EXCLUDE_FILE(*crtend?.o *crtend.o) .dtors)
 *(SORT(.dtors.*))
 *(.dtors)

.rodata         0x10068cb0    0x3be8c
 *(.rodata .rodata.* .gnu.linkonce.r.*)
 .rodata        0x10068cb0       0x9c /home/leon/git/swp-report/iMX6_Platform_SDK/output/mx6dq/sdk_unit_test/smart_device_rev_a/obj/apps/common/print_clock_info.o
 .rodata        0x10068d4c      0x100 /home/leon/git/swp-report/iMX6_Platform_SDK/output/mx6dq/sdk_unit_test/smart_device_rev_a/obj/apps/common/print_version.o
 .rodata        0x10068e4c      0x4ec /home/leon/git/swp-report/iMX6_Platform_SDK/output/mx6dq/sdk_unit_test/smart_device_rev_a/obj/apps/sdk_unit_test/src/all_test.o
                0x10069040                k_menuItems
                0x1006932c                k_mainMenu
 .rodata        0x10069338       0x34 /home/leon/git/swp-report/iMX6_Platform_SDK/output/mx6dq/lib/libsdk.a(ccm_pll.o)
                0x10069338                PLL1_OUTPUT
                0x1006933c                PLL2_OUTPUT
                0x10069350                PLL3_OUTPUT
                0x10069364                PLL4_OUTPUT
                0x10069368                PLL5_OUTPUT
 .rodata        0x1006936c       0x64 /home/leon/git/swp-report/iMX6_Platform_SDK/output/mx6dq/lib/libsdk.a(gic.o)
 .rodata        0x100693d0      0x154 /home/leon/git/swp-report/iMX6_Platform_SDK/output/mx6dq/lib/libsdk.a(menu.o)
 .rodata        0x10069524       0x50 /home/leon/git/swp-report/iMX6_Platform_SDK/output/mx6dq/lib/libsdk.a(sdk_version.o)
                0x10069524                k_sdk_version
                0x10069528                k_sdk_copyright
 .rodata        0x10069574       0xcc /home/leon/git/swp-report/iMX6_Platform_SDK/output/mx6dq/lib/libsdk.a(system_util.o)
 .rodata        0x10069640       0xf4 /home/leon/git/swp-report/iMX6_Platform_SDK/output/mx6dq/lib/libsdk.a(text_color.o)
                0x10069648                g_TextAttributeDefault
                0x10069654                g_TextAttributeBold
                0x10069660                g_TextAttributeDim
                0x1006966c                g_TextAttributeUnderline
                0x10069678                g_TextAttributeBlink
                0x10069684                g_TextAttributeReverse
                0x10069690                g_TextAttributeHidden
                0x1006969c                g_TextColorBlack
                0x100696a8                g_TextColorRed
                0x100696b4                g_TextColorGreen
                0x100696c0                g_TextColorYellow
                0x100696cc                g_TextColorBlue
                0x100696d8                g_TextColorMagenta
                0x100696e4                g_TextColorCyan
                0x100696f0                g_TextColorWhite
                0x10069700                g_TextColorOrange
                0x10069710                g_TextColorLightBlue
                0x10069720                g_TextColorGray
                0x10069730                g_TextColorPurple
 .rodata        0x10069734      0x1f8 /home/leon/git/swp-report/iMX6_Platform_SDK/output/mx6dq/lib/libsdk.a(board_id.o)
 .rodata        0x1006992c       0x20 /home/leon/git/swp-report/iMX6_Platform_SDK/output/mx6dq/lib/libsdk.a(interrupt.o)
 .rodata        0x1006994c      0x230 /home/leon/git/swp-report/iMX6_Platform_SDK/output/mx6dq/lib/libsdk.a(abort_handler.o)
 .rodata        0x10069b7c       0x84 /home/leon/git/swp-report/iMX6_Platform_SDK/output/mx6dq/lib/libboard_smart_device_rev_a.a(uart_iomux_config.o)
 .rodata        0x10069c00       0x3c /home/leon/git/swp-report/iMX6_Platform_SDK/output/mx6dq/sdk_unit_test/smart_device_rev_a/libsdk_unit_test.a(cpu_wp_test.o)
 .rodata        0x10069c3c       0xc4 /home/leon/git/swp-report/iMX6_Platform_SDK/output/mx6dq/sdk_unit_test/smart_device_rev_a/libsdk_unit_test.a(multicore_test.o)
 .rodata        0x10069d00       0xac /home/leon/git/swp-report/iMX6_Platform_SDK/output/mx6dq/sdk_unit_test/smart_device_rev_a/libsdk_unit_test.a(audio_test.o)
 .rodata        0x10069dac       0x64 /home/leon/git/swp-report/iMX6_Platform_SDK/output/mx6dq/sdk_unit_test/smart_device_rev_a/libsdk_unit_test.a(gic_test.o)
 .rodata        0x10069e10      0x1a0 /home/leon/git/swp-report/iMX6_Platform_SDK/output/mx6dq/sdk_unit_test/smart_device_rev_a/libsdk_unit_test.a(ocotp_test.o)
 .rodata        0x10069fb0       0xc4 /home/leon/git/swp-report/iMX6_Platform_SDK/output/mx6dq/sdk_unit_test/smart_device_rev_a/libsdk_unit_test.a(i2c_test.o)
 .rodata        0x1006a074      0x308 /home/leon/git/swp-report/iMX6_Platform_SDK/output/mx6dq/sdk_unit_test/smart_device_rev_a/libsdk_unit_test.a(imx6_i2c_device.o)
 .rodata        0x1006a37c      0x128 /home/leon/git/swp-report/iMX6_Platform_SDK/output/mx6dq/sdk_unit_test/smart_device_rev_a/libsdk_unit_test.a(snvs_rtc_test.o)
 .rodata        0x1006a4a4       0xa4 /home/leon/git/swp-report/iMX6_Platform_SDK/output/mx6dq/sdk_unit_test/smart_device_rev_a/libsdk_unit_test.a(snvs_srtc_test.o)
 .rodata        0x1006a548      0x1a0 /home/leon/git/swp-report/iMX6_Platform_SDK/output/mx6dq/sdk_unit_test/smart_device_rev_a/libsdk_unit_test.a(tempmon_test.o)
 .rodata        0x1006a6e8      0x11c /home/leon/git/swp-report/iMX6_Platform_SDK/output/mx6dq/sdk_unit_test/smart_device_rev_a/libsdk_unit_test.a(sdma_test.o)
 .rodata        0x1006a804      0x154 /home/leon/git/swp-report/iMX6_Platform_SDK/output/mx6dq/sdk_unit_test/smart_device_rev_a/libsdk_unit_test.a(spi_lpb.o)
 .rodata        0x1006a958      0x1f8 /home/leon/git/swp-report/iMX6_Platform_SDK/output/mx6dq/sdk_unit_test/smart_device_rev_a/libsdk_unit_test.a(uart_loopback.o)
 .rodata        0x1006ab50       0xb0 /home/leon/git/swp-report/iMX6_Platform_SDK/output/mx6dq/sdk_unit_test/smart_device_rev_a/libsdk_unit_test.a(uart_test.o)
                0x1006ab50                g_uart_test_name
 .rodata        0x1006ac00      0x164 /home/leon/git/swp-report/iMX6_Platform_SDK/output/mx6dq/sdk_unit_test/smart_device_rev_a/libsdk_unit_test.a(epit_test.o)
 .rodata        0x1006ad64      0x248 /home/leon/git/swp-report/iMX6_Platform_SDK/output/mx6dq/sdk_unit_test/smart_device_rev_a/libsdk_unit_test.a(gpt_test.o)
 .rodata        0x1006afac       0xc0 /home/leon/git/swp-report/iMX6_Platform_SDK/output/mx6dq/sdk_unit_test/smart_device_rev_a/libsdk_unit_test.a(timer_test.o)
 .rodata        0x1006b06c      0x38c /home/leon/git/swp-report/iMX6_Platform_SDK/output/mx6dq/sdk_unit_test/smart_device_rev_a/libsdk_unit_test.a(usdhc_test.o)
 .rodata        0x1006b3f8       0x7c /home/leon/git/swp-report/iMX6_Platform_SDK/output/mx6dq/sdk_unit_test/smart_device_rev_a/libsdk_unit_test.a(pwm_test.o)
 .rodata        0x1006b474       0xc8 /home/leon/git/swp-report/iMX6_Platform_SDK/output/mx6dq/sdk_unit_test/smart_device_rev_a/libsdk_unit_test.a(watchdog_test.o)
 .rodata        0x1006b53c       0x98 /home/leon/git/swp-report/iMX6_Platform_SDK/output/mx6dq/sdk_unit_test/smart_device_rev_a/libsdk_unit_test.a(hdmi_test.o)
 .rodata        0x1006b5d4       0xa0 /home/leon/git/swp-report/iMX6_Platform_SDK/output/mx6dq/sdk_unit_test/smart_device_rev_a/libsdk_unit_test.a(ips_display.o)
 .rodata        0x1006b674      0x134 /home/leon/git/swp-report/iMX6_Platform_SDK/output/mx6dq/sdk_unit_test/smart_device_rev_a/libsdk_unit_test.a(ips_test.o)
 .rodata        0x1006b7a8    0x2f2dc /home/leon/git/swp-report/iMX6_Platform_SDK/output/mx6dq/sdk_unit_test/smart_device_rev_a/libsdk_unit_test.a(ipu_image.o)
                0x1007d5c4                gImage_foretext
 .rodata        0x1009aa84      0x118 /home/leon/git/swp-report/iMX6_Platform_SDK/output/mx6dq/sdk_unit_test/smart_device_rev_a/libsdk_unit_test.a(keypad_test.o)
 .rodata        0x1009ab9c       0x94 /home/leon/git/swp-report/iMX6_Platform_SDK/output/mx6dq/sdk_unit_test/smart_device_rev_a/libsdk_unit_test.a(camera_test.o)
                0x1009ab9c                g_camera_test_name
 .rodata        0x1009ac30      0x118 /home/leon/git/swp-report/iMX6_Platform_SDK/output/mx6dq/sdk_unit_test/smart_device_rev_a/libsdk_unit_test.a(csi_test_mode.o)
 .rodata        0x1009ad48      0x118 /home/leon/git/swp-report/iMX6_Platform_SDK/output/mx6dq/sdk_unit_test/smart_device_rev_a/libsdk_unit_test.a(sensor_capture.o)
 .rodata        0x1009ae60      0x290 /home/leon/git/swp-report/iMX6_Platform_SDK/output/mx6dq/sdk_unit_test/smart_device_rev_a/libsdk_unit_test.a(pcie_test_rc.o)
 .rodata        0x1009b0f0      0x16c /home/leon/git/swp-report/iMX6_Platform_SDK/output/mx6dq/sdk_unit_test/smart_device_rev_a/libsdk_unit_test.a(usb_test.o)
 .rodata        0x1009b25c      0x204 /home/leon/git/swp-report/iMX6_Platform_SDK/output/mx6dq/sdk_unit_test/smart_device_rev_a/libsdk_unit_test.a(enet_test.o)
 .rodata        0x1009b460      0x1d0 /home/leon/git/swp-report/iMX6_Platform_SDK/output/mx6dq/sdk_unit_test/smart_device_rev_a/libsdk_unit_test.a(spi_test.o)
 .rodata        0x1009b630       0xd8 /home/leon/git/swp-report/iMX6_Platform_SDK/output/mx6dq/sdk_unit_test/smart_device_rev_a/libsdk_unit_test.a(accelerometer_test.o)
 .rodata        0x1009b708      0x108 /home/leon/git/swp-report/iMX6_Platform_SDK/output/mx6dq/sdk_unit_test/smart_device_rev_a/libsdk_unit_test.a(sata_test.o)
                0x1009b708                g_sata_test_name
 .rodata        0x1009b810      0x114 /home/leon/git/swp-report/iMX6_Platform_SDK/output/mx6dq/sdk_unit_test/smart_device_rev_a/libsdk_unit_test.a(at24cxx.o)
 .rodata        0x1009b924      0x158 /home/leon/git/swp-report/iMX6_Platform_SDK/output/mx6dq/sdk_unit_test/smart_device_rev_a/libsdk_unit_test.a(mem_2_mem.o)
 .rodata        0x1009ba7c      0x368 /home/leon/git/swp-report/iMX6_Platform_SDK/output/mx6dq/sdk_unit_test/smart_device_rev_a/libsdk_unit_test.a(pwm_output.o)
 .rodata        0x1009bde4     0x403c /home/leon/git/swp-report/iMX6_Platform_SDK/output/mx6dq/sdk_unit_test/smart_device_rev_a/libsdk_unit_test.a(init_dma_data.o)
                0x1009bde4                gAudio_sample
 .rodata        0x1009fe20       0xb0 /home/leon/git/swp-report/iMX6_Platform_SDK/output/mx6dq/sdk_unit_test/smart_device_rev_a/libsdk_unit_test.a(ips_combiner.o)
 .rodata        0x1009fed0       0xe4 /home/leon/git/swp-report/iMX6_Platform_SDK/output/mx6dq/sdk_unit_test/smart_device_rev_a/libsdk_unit_test.a(ips_csc.o)
 .rodata        0x1009ffb4       0x94 /home/leon/git/swp-report/iMX6_Platform_SDK/output/mx6dq/sdk_unit_test/smart_device_rev_a/libsdk_unit_test.a(ips_resize.o)
 .rodata        0x100a0048       0x88 /home/leon/git/swp-report/iMX6_Platform_SDK/output/mx6dq/sdk_unit_test/smart_device_rev_a/libsdk_unit_test.a(ips_rotate.o)
 .rodata        0x100a00d0      0x114 /home/leon/git/swp-report/iMX6_Platform_SDK/output/mx6dq/sdk_unit_test/smart_device_rev_a/libsdk_unit_test.a(usb0_device_mouse_test.o)
 .rodata        0x100a01e4      0x218 /home/leon/git/swp-report/iMX6_Platform_SDK/output/mx6dq/sdk_unit_test/smart_device_rev_a/libsdk_unit_test.a(usb0_host_test.o)
 .rodata        0x100a03fc       0xa8 /home/leon/git/swp-report/iMX6_Platform_SDK/output/mx6dq/sdk_unit_test/smart_device_rev_a/libsdk_unit_test.a(usb0_host_testmodes_test.o)
 .rodata        0x100a04a4      0x118 /home/leon/git/swp-report/iMX6_Platform_SDK/output/mx6dq/sdk_unit_test/smart_device_rev_a/libsdk_unit_test.a(spi_nor_numonyx.o)
 .rodata        0x100a05bc      0x398 /home/leon/riotboard/arm-2012.09/bin/../arm-none-eabi/lib//libm.a(lib_a-ef_rem_pio2.o)
 .rodata        0x100a0954       0x38 /home/leon/riotboard/arm-2012.09/bin/../arm-none-eabi/lib//libm.a(lib_a-kf_rem_pio2.o)
 .rodata.str1.4
                0x100a098c       0x3f /home/leon/riotboard/arm-2012.09/bin/../arm-none-eabi/lib//libc.a(lib_a-assert.o)
                                 0x44 (size before relaxing)
 *fill*         0x100a09cb        0x1 
 .rodata        0x100a09cc        0x4 /home/leon/riotboard/arm-2012.09/bin/../arm-none-eabi/lib//libc.a(lib_a-impure.o)
                0x100a09cc                _global_impure_ptr
 .rodata.str1.4
                0x100a09d0        0x2 /home/leon/riotboard/arm-2012.09/bin/../arm-none-eabi/lib//libc.a(lib_a-impure.o)
                                  0x4 (size before relaxing)
 *fill*         0x100a09d2        0x2 
 .rodata        0x100a09d4       0x20 /home/leon/riotboard/arm-2012.09/bin/../arm-none-eabi/lib//libc.a(lib_a-svfprintf.o)
 .rodata.str1.4
                0x100a09f4       0x42 /home/leon/riotboard/arm-2012.09/bin/../arm-none-eabi/lib//libc.a(lib_a-svfprintf.o)
                                 0x44 (size before relaxing)
 *fill*         0x100a0a36        0x2 
 .rodata        0x100a0a38       0x20 /home/leon/riotboard/arm-2012.09/bin/../arm-none-eabi/lib//libc.a(lib_a-vfiprintf.o)
 .rodata.str1.4
                0x00000000       0x30 /home/leon/riotboard/arm-2012.09/bin/../arm-none-eabi/lib//libc.a(lib_a-vfiprintf.o)
 .rodata        0x100a0a58       0x20 /home/leon/riotboard/arm-2012.09/bin/../arm-none-eabi/lib//libc.a(lib_a-vfprintf.o)
 .rodata.str1.4
                0x00000000       0x44 /home/leon/riotboard/arm-2012.09/bin/../arm-none-eabi/lib//libc.a(lib_a-vfprintf.o)
 .rodata        0x100a0a78      0x104 /home/leon/riotboard/arm-2012.09/bin/../arm-none-eabi/lib//libc.a(lib_a-ctype_.o)
                0x100a0a78                _ctype_
 .rodata.str1.4
                0x100a0b7c       0x10 /home/leon/riotboard/arm-2012.09/bin/../arm-none-eabi/lib//libc.a(lib_a-dtoa.o)
                                 0x14 (size before relaxing)
 .rodata.str1.4
                0x100a0b8c        0xa /home/leon/riotboard/arm-2012.09/bin/../arm-none-eabi/lib//libc.a(lib_a-locale.o)
                                 0x14 (size before relaxing)
 *fill*         0x100a0b96        0x2 
 .rodata        0x100a0b98      0x128 /home/leon/riotboard/arm-2012.09/bin/../arm-none-eabi/lib//libc.a(lib_a-mprec.o)
                0x100a0ba8                __mprec_tens
                0x100a0c70                __mprec_tinytens
                0x100a0c98                __mprec_bigtens
 .rodata        0x100a0cc0       0x20 /home/leon/riotboard/arm-2012.09/bin/../arm-none-eabi/lib//libc.a(lib_a-svfiprintf.o)
 .rodata.str1.4
                0x00000000       0x30 /home/leon/riotboard/arm-2012.09/bin/../arm-none-eabi/lib//libc.a(lib_a-svfiprintf.o)
 .rodata        0x100a0ce0       0x20 /home/leon/git/swp-report/iMX6_Platform_SDK/output/mx6dq/lib/libsdk.a(runtime_support.o)
 .rodata        0x100a0d00       0x34 /home/leon/git/swp-report/iMX6_Platform_SDK/output/mx6dq/lib/libsdk.a(mma8451.o)
 .rodata        0x100a0d34       0xc4 /home/leon/git/swp-report/iMX6_Platform_SDK/output/mx6dq/lib/libsdk.a(smd_sensor.o)
 .rodata        0x100a0df8       0x88 /home/leon/git/swp-report/iMX6_Platform_SDK/output/mx6dq/lib/libsdk.a(cpu_multicore.o)
 .rodata        0x100a0e80       0x48 /home/leon/git/swp-report/iMX6_Platform_SDK/output/mx6dq/lib/libsdk.a(cpu_workpoint.o)
 .rodata        0x100a0ec8      0x1c4 /home/leon/git/swp-report/iMX6_Platform_SDK/output/mx6dq/lib/libsdk.a(enet_drv.o)
 .rodata        0x100a108c       0xe0 /home/leon/git/swp-report/iMX6_Platform_SDK/output/mx6dq/lib/libsdk.a(gpio.o)
 .rodata        0x100a116c      0x380 /home/leon/git/swp-report/iMX6_Platform_SDK/output/mx6dq/lib/libsdk.a(imx6dq_gpio_map.o)
                0x100a116c                k_gpio_mux_registers
 .rodata        0x100a14ec       0xb4 /home/leon/git/swp-report/iMX6_Platform_SDK/output/mx6dq/lib/libsdk.a(hdmi_tx.o)
 .rodata        0x100a15a0       0x3c /home/leon/git/swp-report/iMX6_Platform_SDK/output/mx6dq/lib/libsdk.a(hdmi_tx_audio.o)
 .rodata        0x100a15dc       0xec /home/leon/git/swp-report/iMX6_Platform_SDK/output/mx6dq/lib/libsdk.a(hdmi_tx_phy.o)
 .rodata        0x100a16c8      0x2c4 /home/leon/git/swp-report/iMX6_Platform_SDK/output/mx6dq/lib/libsdk.a(imx_i2c.o)
 .rodata        0x100a198c       0xa4 /home/leon/git/swp-report/iMX6_Platform_SDK/output/mx6dq/lib/libsdk.a(imx_i2c_slave.o)
 .rodata        0x100a1a30       0x54 /home/leon/git/swp-report/iMX6_Platform_SDK/output/mx6dq/lib/libsdk.a(ips_disp_panel.o)
 .rodata        0x100a1a84       0x74 /home/leon/git/swp-report/iMX6_Platform_SDK/output/mx6dq/lib/libsdk.a(ipu_common.o)
 .rodata        0x100a1af8       0xc0 /home/leon/git/swp-report/iMX6_Platform_SDK/output/mx6dq/lib/libsdk.a(ipu_csi.o)
 .rodata        0x100a1bb8       0x9c /home/leon/git/swp-report/iMX6_Platform_SDK/output/mx6dq/lib/libsdk.a(ipu_dc.o)
 .rodata        0x100a1c54       0x18 /home/leon/git/swp-report/iMX6_Platform_SDK/output/mx6dq/lib/libsdk.a(ipu_di.o)
 .rodata        0x100a1c6c       0x78 /home/leon/git/swp-report/iMX6_Platform_SDK/output/mx6dq/lib/libsdk.a(ipu_dp.o)
 .rodata        0x100a1ce4      0x1bc /home/leon/git/swp-report/iMX6_Platform_SDK/output/mx6dq/lib/libsdk.a(ipu_ic.o)
 .rodata        0x100a1ea0       0x38 /home/leon/git/swp-report/iMX6_Platform_SDK/output/mx6dq/lib/libsdk.a(ipu_idmac.o)
 .rodata        0x100a1ed8       0x68 /home/leon/git/swp-report/iMX6_Platform_SDK/output/mx6dq/lib/libsdk.a(ldb.o)
 .rodata        0x100a1f40      0x10c /home/leon/git/swp-report/iMX6_Platform_SDK/output/mx6dq/lib/libsdk.a(pcie.o)
 .rodata        0x100a204c       0xc0 /home/leon/git/swp-report/iMX6_Platform_SDK/output/mx6dq/lib/libsdk.a(pcie_prot.o)
 *fill*         0x100a210c        0x4 
 .rodata        0x100a2110      0x248 /home/leon/git/swp-report/iMX6_Platform_SDK/output/mx6dq/lib/libsdk.a(pmu_driver.o)
                0x100a2110                vtable for pmu::LDOSoCRegulator
                0x100a2168                vtable for pmu::LDOGraphicsRegulator
                0x100a21c0                vtable for pmu::LDOARMRegulator
                0x100a2218                vtable for pmu::DigitalRegulator
                0x100a2270                vtable for pmu::LDO3p0Regulator
                0x100a22a8                vtable for pmu::LDO1p1Regulator
                0x100a22e0                vtable for pmu::AnalogRegulator
                0x100a2318                vtable for pmu::Regulator
 .rodata._ZTVN3pmu15LDO2p5RegulatorE
                0x100a2358       0x38 /home/leon/git/swp-report/iMX6_Platform_SDK/output/mx6dq/lib/libsdk.a(pmu_driver.o)
                0x100a2358                vtable for pmu::LDO2p5Regulator
 .rodata        0x100a2390       0x5c /home/leon/git/swp-report/iMX6_Platform_SDK/output/mx6dq/lib/libsdk.a(pwm.o)
 .rodata        0x100a23ec      0x4ec /home/leon/git/swp-report/iMX6_Platform_SDK/output/mx6dq/lib/libsdk.a(sata.o)
 .rodata        0x100a28d8       0x18 /home/leon/git/swp-report/iMX6_Platform_SDK/output/mx6dq/lib/libsdk.a(sdma.o)
 .rodata        0x100a28f0      0x7ec /home/leon/git/swp-report/iMX6_Platform_SDK/output/mx6dq/lib/libsdk.a(sdma_script_info.o)
                0x100a2ecc                script_info
 .rodata        0x100a30dc       0x74 /home/leon/git/swp-report/iMX6_Platform_SDK/output/mx6dq/lib/libsdk.a(ecspi.o)
 .rodata        0x100a3150       0x94 /home/leon/git/swp-report/iMX6_Platform_SDK/output/mx6dq/lib/libsdk.a(usb_common.o)
 .rodata        0x100a31e4       0x50 /home/leon/git/swp-report/iMX6_Platform_SDK/output/mx6dq/lib/libsdk.a(usbd_drv.o)
 .rodata        0x100a3234       0x28 /home/leon/git/swp-report/iMX6_Platform_SDK/output/mx6dq/lib/libsdk.a(usbh_drv.o)
 .rodata        0x100a325c      0x1cc /home/leon/git/swp-report/iMX6_Platform_SDK/output/mx6dq/lib/libsdk.a(usdhc.o)
 .rodata        0x100a3428       0x1c /home/leon/git/swp-report/iMX6_Platform_SDK/output/mx6dq/lib/libsdk.a(usdhc_host.o)
 .rodata        0x100a3444      0x20c /home/leon/git/swp-report/iMX6_Platform_SDK/output/mx6dq/lib/libsdk.a(usdhc_mmc.o)
 .rodata        0x100a3650       0x58 /home/leon/git/swp-report/iMX6_Platform_SDK/output/mx6dq/lib/libsdk.a(usdhc_sd.o)
                0x100a3650                sd_ocr_value
                0x100a365c                sd_if_cmd_arg
 .rodata        0x100a36a8       0x10 /home/leon/git/swp-report/iMX6_Platform_SDK/output/mx6dq/lib/libsdk.a(hdmi_common.o)
 .rodata        0x100a36b8       0x64 /home/leon/git/swp-report/iMX6_Platform_SDK/output/mx6dq/lib/libboard_smart_device_rev_a.a(board_display.o)
 .rodata        0x100a371c       0x28 /home/leon/git/swp-report/iMX6_Platform_SDK/output/mx6dq/lib/libboard_smart_device_rev_a.a(board_hdmi.o)
 .rodata        0x100a3744       0x70 /home/leon/git/swp-report/iMX6_Platform_SDK/output/mx6dq/lib/libboard_smart_device_rev_a.a(board_i2c.o)
                0x100a3744                g_wm8958_i2c_device
                0x100a374c                g_wm8962_i2c_device
                0x100a3754                g_sgtl5000_i2c_device
                0x100a375c                g_cs42888_i2c_device
                0x100a3764                g_pmic_ltc3589_i2c_device
                0x100a376c                g_pmic_da9053_i2c_device
                0x100a3774                g_pmic_max17135_i2c_device
                0x100a377c                g_pmic_pf0100_i2c_device
                0x100a3784                g_adv7180_i2c_device
                0x100a378c                g_os81050_i2c_device
                0x100a3794                g_p1003_tsc_i2c_device
                0x100a379c                g_at24cx_i2c_device
                0x100a37a4                g_si476x_i2c_device
                0x100a37ac                g_mma8451_i2c_device
 .rodata        0x100a37b4       0x84 /home/leon/git/swp-report/iMX6_Platform_SDK/output/mx6dq/lib/libboard_smart_device_rev_a.a(ecspi_iomux_config.o)
 .rodata        0x100a3838       0x80 /home/leon/git/swp-report/iMX6_Platform_SDK/output/mx6dq/lib/libboard_smart_device_rev_a.a(i2c_iomux_config.o)
 .rodata        0x100a38b8       0x80 /home/leon/git/swp-report/iMX6_Platform_SDK/output/mx6dq/lib/libboard_smart_device_rev_a.a(pwm_iomux_config.o)
 .rodata        0x100a3938       0x84 /home/leon/git/swp-report/iMX6_Platform_SDK/output/mx6dq/lib/libboard_smart_device_rev_a.a(usdhc_iomux_config.o)
 .rodata.str1.4
                0x100a39bc       0x3b /home/leon/riotboard/arm-2012.09/bin/../arm-none-eabi/lib//libstdc++.a(pure.o)
                                 0x3c (size before relaxing)
 *fill*         0x100a39f7        0x1 
 .rodata._ZTVN10__cxxabiv115__forced_unwindE
                0x100a39f8       0x18 /home/leon/riotboard/arm-2012.09/bin/../arm-none-eabi/lib//libstdc++.a(eh_exception.o)
                0x100a39f8                vtable for __cxxabiv1::__forced_unwind
 .rodata._ZTVSt9exception
                0x100a3a10       0x18 /home/leon/riotboard/arm-2012.09/bin/../arm-none-eabi/lib//libstdc++.a(eh_exception.o)
                0x100a3a10                vtable for std::exception
 .rodata._ZTIN10__cxxabiv115__forced_unwindE
                0x100a3a28        0x8 /home/leon/riotboard/arm-2012.09/bin/../arm-none-eabi/lib//libstdc++.a(eh_exception.o)
                0x100a3a28                typeinfo for __cxxabiv1::__forced_unwind
 .rodata._ZTISt9exception
                0x100a3a30        0x8 /home/leon/riotboard/arm-2012.09/bin/../arm-none-eabi/lib//libstdc++.a(eh_exception.o)
                0x100a3a30                typeinfo for std::exception
 .rodata._ZTSSt13bad_exception
                0x100a3a38       0x14 /home/leon/riotboard/arm-2012.09/bin/../arm-none-eabi/lib//libstdc++.a(eh_exception.o)
                0x100a3a38                typeinfo name for std::bad_exception
 .rodata.str1.4
                0x100a3a4c       0x23 /home/leon/riotboard/arm-2012.09/bin/../arm-none-eabi/lib//libstdc++.a(eh_exception.o)
                                 0x24 (size before relaxing)
 *fill*         0x100a3a6f        0x1 
 .rodata._ZTSN10__cxxabiv119__foreign_exceptionE
                0x100a3a70       0x24 /home/leon/riotboard/arm-2012.09/bin/../arm-none-eabi/lib//libstdc++.a(eh_exception.o)
                0x100a3a70                typeinfo name for __cxxabiv1::__foreign_exception
 .rodata._ZTIN10__cxxabiv119__foreign_exceptionE
                0x100a3a94        0x8 /home/leon/riotboard/arm-2012.09/bin/../arm-none-eabi/lib//libstdc++.a(eh_exception.o)
                0x100a3a94                typeinfo for __cxxabiv1::__foreign_exception
 *fill*         0x100a3a9c        0x4 
 .rodata._ZTVSt13bad_exception
                0x100a3aa0       0x18 /home/leon/riotboard/arm-2012.09/bin/../arm-none-eabi/lib//libstdc++.a(eh_exception.o)
                0x100a3aa0                vtable for std::bad_exception
 .rodata._ZTSSt9exception
                0x100a3ab8       0x10 /home/leon/riotboard/arm-2012.09/bin/../arm-none-eabi/lib//libstdc++.a(eh_exception.o)
                0x100a3ab8                typeinfo name for std::exception
 .rodata._ZTVN10__cxxabiv119__foreign_exceptionE
                0x100a3ac8       0x18 /home/leon/riotboard/arm-2012.09/bin/../arm-none-eabi/lib//libstdc++.a(eh_exception.o)
                0x100a3ac8                vtable for __cxxabiv1::__foreign_exception
 .rodata._ZTSN10__cxxabiv115__forced_unwindE
                0x100a3ae0       0x20 /home/leon/riotboard/arm-2012.09/bin/../arm-none-eabi/lib//libstdc++.a(eh_exception.o)
                0x100a3ae0                typeinfo name for __cxxabiv1::__forced_unwind
 .rodata._ZTISt13bad_exception
                0x100a3b00        0xc /home/leon/riotboard/arm-2012.09/bin/../arm-none-eabi/lib//libstdc++.a(eh_exception.o)
                0x100a3b00                typeinfo for std::bad_exception
 *fill*         0x100a3b0c        0x4 
 .rodata._ZTVN10__cxxabiv120__si_class_type_infoE
                0x100a3b10       0x30 /home/leon/riotboard/arm-2012.09/bin/../arm-none-eabi/lib//libstdc++.a(si_class_type_info.o)
                0x100a3b10                vtable for __cxxabiv1::__si_class_type_info
 .rodata._ZTIN10__cxxabiv120__si_class_type_infoE
                0x100a3b40        0xc /home/leon/riotboard/arm-2012.09/bin/../arm-none-eabi/lib//libstdc++.a(si_class_type_info.o)
                0x100a3b40                typeinfo for __cxxabiv1::__si_class_type_info
 .rodata._ZTSN10__cxxabiv120__si_class_type_infoE
                0x100a3b4c       0x28 /home/leon/riotboard/arm-2012.09/bin/../arm-none-eabi/lib//libstdc++.a(si_class_type_info.o)
                0x100a3b4c                typeinfo name for __cxxabiv1::__si_class_type_info
 *fill*         0x100a3b74        0x4 
 .rodata._ZTVN10__cxxabiv117__class_type_infoE
                0x100a3b78       0x30 /home/leon/riotboard/arm-2012.09/bin/../arm-none-eabi/lib//libstdc++.a(class_type_info.o)
                0x100a3b78                vtable for __cxxabiv1::__class_type_info
 .rodata._ZTIN10__cxxabiv117__class_type_infoE
                0x100a3ba8        0xc /home/leon/riotboard/arm-2012.09/bin/../arm-none-eabi/lib//libstdc++.a(class_type_info.o)
                0x100a3ba8                typeinfo for __cxxabiv1::__class_type_info
 .rodata._ZTSN10__cxxabiv117__class_type_infoE
                0x100a3bb4       0x24 /home/leon/riotboard/arm-2012.09/bin/../arm-none-eabi/lib//libstdc++.a(class_type_info.o)
                0x100a3bb4                typeinfo name for __cxxabiv1::__class_type_info
 .rodata.str1.4
                0x100a3bd8       0x94 /home/leon/riotboard/arm-2012.09/bin/../arm-none-eabi/lib//libstdc++.a(vterminate.o)
 .rodata        0x100a3c6c      0x6f8 /home/leon/riotboard/arm-2012.09/bin/../arm-none-eabi/lib//libstdc++.a(cp-demangle.o)
 .rodata.str1.4
                0x100a4364      0x764 /home/leon/riotboard/arm-2012.09/bin/../arm-none-eabi/lib//libstdc++.a(cp-demangle.o)
                                0x7b4 (size before relaxing)
 .rodata._ZTISt9type_info
                0x100a4ac8        0x8 /home/leon/riotboard/arm-2012.09/bin/../arm-none-eabi/lib//libstdc++.a(tinfo.o)
                0x100a4ac8                typeinfo for std::type_info
 .rodata._ZTSSt9type_info
                0x100a4ad0       0x10 /home/leon/riotboard/arm-2012.09/bin/../arm-none-eabi/lib//libstdc++.a(tinfo.o)
                0x100a4ad0                typeinfo name for std::type_info
 .rodata._ZTVSt9type_info
                0x100a4ae0       0x20 /home/leon/riotboard/arm-2012.09/bin/../arm-none-eabi/lib//libstdc++.a(tinfo.o)
                0x100a4ae0                vtable for std::type_info
                0x100a4b00                . = ALIGN (0x4)
 *(.init)
 .init          0x100a4b00        0xc /home/leon/riotboard/arm-2012.09/bin/../lib/gcc/arm-none-eabi/4.7.2//crti.o
                0x100a4b00                _init
 .init          0x100a4b0c        0xc /home/leon/riotboard/arm-2012.09/bin/../lib/gcc/arm-none-eabi/4.7.2//crtn.o
                0x100a4b18                . = ALIGN (0x4)
                0x100a4b18                __init_array_start = .
 *(SORT(.init_array.*))
 *(.init_array)
 .init_array    0x100a4b18        0x4 /home/leon/riotboard/arm-2012.09/bin/../lib/gcc/arm-none-eabi/4.7.2//crtbegin.o
 .init_array    0x100a4b1c        0x4 /home/leon/git/swp-report/iMX6_Platform_SDK/output/mx6dq/lib/libsdk.a(pmu_driver.o)
                0x100a4b20                __init_array_end = .
                0x100a4b20                . = ALIGN (0x4)
 *(.fini)
 .fini          0x100a4b20        0xc /home/leon/riotboard/arm-2012.09/bin/../lib/gcc/arm-none-eabi/4.7.2//crti.o
                0x100a4b20                _fini
 .fini          0x100a4b2c        0xc /home/leon/riotboard/arm-2012.09/bin/../lib/gcc/arm-none-eabi/4.7.2//crtn.o
                0x100a4b38                . = ALIGN (0x4)
                0x100a4b38                __fini_array_start = .
 *(.fini_array)
 .fini_array    0x100a4b38        0x4 /home/leon/riotboard/arm-2012.09/bin/../lib/gcc/arm-none-eabi/4.7.2//crtbegin.o
 *(SORT(.fini_array.*))
                0x100a4b3c                __fini_array_end = .
                0x100a4b3c                PROVIDE (__exidx_start, .)

.eh_frame       0x100a4b3c        0x4
 .eh_frame      0x100a4b3c        0x0 /home/leon/riotboard/arm-2012.09/bin/../lib/gcc/arm-none-eabi/4.7.2//crtbegin.o
 .eh_frame      0x100a4b3c        0x4 /home/leon/riotboard/arm-2012.09/bin/../lib/gcc/arm-none-eabi/4.7.2//crtend.o

.wavedata       0x100a4b40    0xc24e0
 .wavedata      0x100a4b40    0xc24e0 /home/leon/git/swp-report/iMX6_Platform_SDK/output/mx6dq/sdk_unit_test/smart_device_rev_a/libsdk_unit_test.a(wav_file.o)
                0x100a4b40                wavefile_start
                0x10167020                wavefile_end

.ARM.exidx      0x10167020      0x1e0
 *(.ARM.exidx* .gnu.linkonce.armexidx.*)
 .ARM.exidx.startup
                0x10167020        0x8 /home/leon/git/swp-report/iMX6_Platform_SDK/output/mx6dq/lib/libsdk.a(startup.o)
 .ARM.exidx     0x10167028        0x0 /home/leon/riotboard/arm-2012.09/bin/../lib/gcc/arm-none-eabi/4.7.2//libgcc.a(_divdi3.o)
                                  0x8 (size before relaxing)
 .ARM.exidx     0x10167028        0x0 /home/leon/riotboard/arm-2012.09/bin/../lib/gcc/arm-none-eabi/4.7.2//libgcc.a(_udivdi3.o)
                                  0x8 (size before relaxing)
 .ARM.exidx.text.__cxa_pure_virtual
                0x10167028        0x8 /home/leon/riotboard/arm-2012.09/bin/../arm-none-eabi/lib//libstdc++.a(pure.o)
 .ARM.exidx.text.__cxa_deleted_virtual
                0x10167030        0x8 /home/leon/riotboard/arm-2012.09/bin/../arm-none-eabi/lib//libstdc++.a(pure.o)
 .ARM.exidx.text._ZN10__cxxabiv111__terminateEPFvvE
                0x10167038        0x8 /home/leon/riotboard/arm-2012.09/bin/../arm-none-eabi/lib//libstdc++.a(eh_terminate.o)
 .ARM.exidx.text._ZSt9terminatev
                0x10167040        0x8 /home/leon/riotboard/arm-2012.09/bin/../arm-none-eabi/lib//libstdc++.a(eh_terminate.o)
 .ARM.exidx.text._ZN10__cxxabiv112__unexpectedEPFvvE
                0x10167048        0x8 /home/leon/riotboard/arm-2012.09/bin/../arm-none-eabi/lib//libstdc++.a(eh_terminate.o)
 .ARM.exidx.text._ZSt10unexpectedv
                0x10167050        0x8 /home/leon/riotboard/arm-2012.09/bin/../arm-none-eabi/lib//libstdc++.a(eh_terminate.o)
 .ARM.exidx.text._ZSt13set_terminatePFvvE
                0x10167058        0x8 /home/leon/riotboard/arm-2012.09/bin/../arm-none-eabi/lib//libstdc++.a(eh_terminate.o)
 .ARM.exidx.text._ZSt14set_unexpectedPFvvE
                0x10167060        0x0 /home/leon/riotboard/arm-2012.09/bin/../arm-none-eabi/lib//libstdc++.a(eh_terminate.o)
                                  0x8 (size before relaxing)
 .ARM.exidx.text._ZN10__cxxabiv1L24__is_gxx_exception_classEPc
                0x10167060        0x0 /home/leon/riotboard/arm-2012.09/bin/../arm-none-eabi/lib//libstdc++.a(eh_call.o)
                                  0x8 (size before relaxing)
 .ARM.exidx.text.__cxa_call_terminate
                0x10167060        0x0 /home/leon/riotboard/arm-2012.09/bin/../arm-none-eabi/lib//libstdc++.a(eh_call.o)
                                  0x8 (size before relaxing)
 .ARM.exidx.text.__cxa_call_unexpected
                0x10167060        0x8 /home/leon/riotboard/arm-2012.09/bin/../arm-none-eabi/lib//libstdc++.a(eh_call.o)
 .ARM.exidx.text._ZL23__gxx_exception_cleanup19_Unwind_Reason_CodeP21_Unwind_Control_Block
                0x10167068        0x8 /home/leon/riotboard/arm-2012.09/bin/../arm-none-eabi/lib//libstdc++.a(eh_throw.o)
 .ARM.exidx.text.__cxa_throw
                0x10167070        0x8 /home/leon/riotboard/arm-2012.09/bin/../arm-none-eabi/lib//libstdc++.a(eh_throw.o)
 .ARM.exidx.text.__cxa_rethrow
                0x10167078       0x10 /home/leon/riotboard/arm-2012.09/bin/../arm-none-eabi/lib//libstdc++.a(eh_throw.o)
                                  0x8 (size before relaxing)
 .ARM.exidx.text.__cxa_type_match
                0x10167088        0x8 /home/leon/riotboard/arm-2012.09/bin/../arm-none-eabi/lib//libstdc++.a(eh_arm.o)
 .ARM.exidx.text.__cxa_begin_cleanup
                0x10167090        0x8 /home/leon/riotboard/arm-2012.09/bin/../arm-none-eabi/lib//libstdc++.a(eh_arm.o)
 .ARM.exidx.text.__gnu_end_cleanup
                0x10167098        0x0 /home/leon/riotboard/arm-2012.09/bin/../arm-none-eabi/lib//libstdc++.a(eh_arm.o)
                                  0x8 (size before relaxing)
 .ARM.exidx.text._ZNSt9exceptionD2Ev
                0x10167098        0x0 /home/leon/riotboard/arm-2012.09/bin/../arm-none-eabi/lib//libstdc++.a(eh_exception.o)
                                  0x8 (size before relaxing)
 .ARM.exidx.text._ZNSt13bad_exceptionD2Ev
                0x10167098        0x0 /home/leon/riotboard/arm-2012.09/bin/../arm-none-eabi/lib//libstdc++.a(eh_exception.o)
                                  0x8 (size before relaxing)
 .ARM.exidx.text._ZN10__cxxabiv115__forced_unwindD2Ev
                0x10167098        0x0 /home/leon/riotboard/arm-2012.09/bin/../arm-none-eabi/lib//libstdc++.a(eh_exception.o)
                                  0x8 (size before relaxing)
 .ARM.exidx.text._ZN10__cxxabiv119__foreign_exceptionD2Ev
                0x10167098        0x0 /home/leon/riotboard/arm-2012.09/bin/../arm-none-eabi/lib//libstdc++.a(eh_exception.o)
                                  0x8 (size before relaxing)
 .ARM.exidx.text._ZNKSt9exception4whatEv
                0x10167098        0x0 /home/leon/riotboard/arm-2012.09/bin/../arm-none-eabi/lib//libstdc++.a(eh_exception.o)
                                  0x8 (size before relaxing)
 .ARM.exidx.text._ZNKSt13bad_exception4whatEv
                0x10167098        0x0 /home/leon/riotboard/arm-2012.09/bin/../arm-none-eabi/lib//libstdc++.a(eh_exception.o)
                                  0x8 (size before relaxing)
 .ARM.exidx.text._ZN10__cxxabiv119__foreign_exceptionD0Ev
                0x10167098        0x0 /home/leon/riotboard/arm-2012.09/bin/../arm-none-eabi/lib//libstdc++.a(eh_exception.o)
                                  0x8 (size before relaxing)
 .ARM.exidx.text._ZN10__cxxabiv115__forced_unwindD0Ev
                0x10167098        0x0 /home/leon/riotboard/arm-2012.09/bin/../arm-none-eabi/lib//libstdc++.a(eh_exception.o)
                                  0x8 (size before relaxing)
 .ARM.exidx.text._ZNSt9exceptionD0Ev
                0x10167098        0x0 /home/leon/riotboard/arm-2012.09/bin/../arm-none-eabi/lib//libstdc++.a(eh_exception.o)
                                  0x8 (size before relaxing)
 .ARM.exidx.text._ZNSt13bad_exceptionD0Ev
                0x10167098        0x0 /home/leon/riotboard/arm-2012.09/bin/../arm-none-eabi/lib//libstdc++.a(eh_exception.o)
                                  0x8 (size before relaxing)
 .ARM.exidx.text.__cxa_allocate_exception
                0x10167098        0x0 /home/leon/riotboard/arm-2012.09/bin/../arm-none-eabi/lib//libstdc++.a(eh_alloc.o)
                                  0x8 (size before relaxing)
 .ARM.exidx.text.__cxa_free_exception
                0x10167098        0x0 /home/leon/riotboard/arm-2012.09/bin/../arm-none-eabi/lib//libstdc++.a(eh_alloc.o)
                                  0x8 (size before relaxing)
 .ARM.exidx.text.__cxa_allocate_dependent_exception
                0x10167098        0x0 /home/leon/riotboard/arm-2012.09/bin/../arm-none-eabi/lib//libstdc++.a(eh_alloc.o)
                                  0x8 (size before relaxing)
 .ARM.exidx.text.__cxa_free_dependent_exception
                0x10167098        0x0 /home/leon/riotboard/arm-2012.09/bin/../arm-none-eabi/lib//libstdc++.a(eh_alloc.o)
                                  0x8 (size before relaxing)
 .ARM.exidx.text.__cxa_get_globals_fast
                0x10167098        0x0 /home/leon/riotboard/arm-2012.09/bin/../arm-none-eabi/lib//libstdc++.a(eh_globals.o)
                                  0x8 (size before relaxing)
 .ARM.exidx.text.__cxa_get_globals
                0x10167098        0x0 /home/leon/riotboard/arm-2012.09/bin/../arm-none-eabi/lib//libstdc++.a(eh_globals.o)
                                  0x8 (size before relaxing)
 .ARM.exidx.text._ZNK10__cxxabiv120__si_class_type_info12__do_dyncastEiNS_17__class_type_info10__sub_kindEPKS1_PKvS4_S6_RNS1_16__dyncast_resultE
                0x10167098        0x8 /home/leon/riotboard/arm-2012.09/bin/../arm-none-eabi/lib//libstdc++.a(si_class_type_info.o)
 .ARM.exidx.text._ZN10__cxxabiv120__si_class_type_infoD2Ev
                0x101670a0        0x8 /home/leon/riotboard/arm-2012.09/bin/../arm-none-eabi/lib//libstdc++.a(si_class_type_info.o)
 .ARM.exidx.text._ZN10__cxxabiv120__si_class_type_infoD0Ev
                0x101670a8        0x0 /home/leon/riotboard/arm-2012.09/bin/../arm-none-eabi/lib//libstdc++.a(si_class_type_info.o)
                                  0x8 (size before relaxing)
 .ARM.exidx.text._ZNK10__cxxabiv120__si_class_type_info11__do_upcastEPKNS_17__class_type_infoEPKvRNS1_15__upcast_resultE
                0x101670a8        0x8 /home/leon/riotboard/arm-2012.09/bin/../arm-none-eabi/lib//libstdc++.a(si_class_type_info.o)
 .ARM.exidx.text._ZNK10__cxxabiv120__si_class_type_info20__do_find_public_srcEiPKvPKNS_17__class_type_infoES2_
                0x101670b0        0x8 /home/leon/riotboard/arm-2012.09/bin/../arm-none-eabi/lib//libstdc++.a(si_class_type_info.o)
 .ARM.exidx.text._ZL12read_sleb128PKhPl
                0x101670b8        0x8 /home/leon/riotboard/arm-2012.09/bin/../arm-none-eabi/lib//libstdc++.a(eh_personality.o)
 .ARM.exidx.text._ZL28read_encoded_value_with_basehjPKhPj
                0x101670c0        0x8 /home/leon/riotboard/arm-2012.09/bin/../arm-none-eabi/lib//libstdc++.a(eh_personality.o)
 .ARM.exidx.text._ZL21base_of_encoded_valuehP15_Unwind_Context
                0x101670c8        0x8 /home/leon/riotboard/arm-2012.09/bin/../arm-none-eabi/lib//libstdc++.a(eh_personality.o)
 .ARM.exidx.text._ZL17parse_lsda_headerP15_Unwind_ContextPKhP16lsda_header_info
                0x101670d0        0x8 /home/leon/riotboard/arm-2012.09/bin/../arm-none-eabi/lib//libstdc++.a(eh_personality.o)
 .ARM.exidx.text.__gxx_personality_v0
                0x101670d8        0x8 /home/leon/riotboard/arm-2012.09/bin/../arm-none-eabi/lib//libstdc++.a(eh_personality.o)
 .ARM.exidx.text.__cxa_get_exception_ptr
                0x101670e0        0x8 /home/leon/riotboard/arm-2012.09/bin/../arm-none-eabi/lib//libstdc++.a(eh_catch.o)
 .ARM.exidx.text.__cxa_begin_catch
                0x101670e8        0x8 /home/leon/riotboard/arm-2012.09/bin/../arm-none-eabi/lib//libstdc++.a(eh_catch.o)
 .ARM.exidx.text.__cxa_end_catch
                0x101670f0        0x8 /home/leon/riotboard/arm-2012.09/bin/../arm-none-eabi/lib//libstdc++.a(eh_catch.o)
 .ARM.exidx.text._ZSt18uncaught_exceptionv
                0x101670f8        0x8 /home/leon/riotboard/arm-2012.09/bin/../arm-none-eabi/lib//libstdc++.a(eh_catch.o)
 .ARM.exidx.text._ZNK10__cxxabiv117__class_type_info11__do_upcastEPKS0_PPv
                0x10167100        0x8 /home/leon/riotboard/arm-2012.09/bin/../arm-none-eabi/lib//libstdc++.a(class_type_info.o)
 .ARM.exidx.text._ZNK10__cxxabiv117__class_type_info20__do_find_public_srcEiPKvPKS0_S2_
                0x10167108        0x8 /home/leon/riotboard/arm-2012.09/bin/../arm-none-eabi/lib//libstdc++.a(class_type_info.o)
 .ARM.exidx.text._ZNK10__cxxabiv117__class_type_info11__do_upcastEPKS0_PKvRNS0_15__upcast_resultE
                0x10167110        0x8 /home/leon/riotboard/arm-2012.09/bin/../arm-none-eabi/lib//libstdc++.a(class_type_info.o)
 .ARM.exidx.text._ZN10__cxxabiv117__class_type_infoD2Ev
                0x10167118        0x8 /home/leon/riotboard/arm-2012.09/bin/../arm-none-eabi/lib//libstdc++.a(class_type_info.o)
 .ARM.exidx.text._ZN10__cxxabiv117__class_type_infoD0Ev
                0x10167120        0x0 /home/leon/riotboard/arm-2012.09/bin/../arm-none-eabi/lib//libstdc++.a(class_type_info.o)
                                  0x8 (size before relaxing)
 .ARM.exidx.text._ZNK10__cxxabiv117__class_type_info12__do_dyncastEiNS0_10__sub_kindEPKS0_PKvS3_S5_RNS0_16__dyncast_resultE
                0x10167120        0x8 /home/leon/riotboard/arm-2012.09/bin/../arm-none-eabi/lib//libstdc++.a(class_type_info.o)
 .ARM.exidx.text._ZNK10__cxxabiv117__class_type_info10__do_catchEPKSt9type_infoPPvj
                0x10167128        0x8 /home/leon/riotboard/arm-2012.09/bin/../arm-none-eabi/lib//libstdc++.a(class_type_info.o)
 .ARM.exidx.text._ZN9__gnu_cxx27__verbose_terminate_handlerEv
                0x10167130       0x10 /home/leon/riotboard/arm-2012.09/bin/../arm-none-eabi/lib//libstdc++.a(vterminate.o)
                                  0x8 (size before relaxing)
 .ARM.exidx.text.__cxa_current_exception_type
                0x10167140        0x0 /home/leon/riotboard/arm-2012.09/bin/../arm-none-eabi/lib//libstdc++.a(eh_type.o)
                                  0x8 (size before relaxing)
 .ARM.exidx.text._ZdlPv
                0x10167140        0x0 /home/leon/riotboard/arm-2012.09/bin/../arm-none-eabi/lib//libstdc++.a(del_op.o)
                                  0x8 (size before relaxing)
 .ARM.exidx.text._ZNSt9type_infoD2Ev
                0x10167140        0x0 /home/leon/riotboard/arm-2012.09/bin/../arm-none-eabi/lib//libstdc++.a(tinfo.o)
                                  0x8 (size before relaxing)
 .ARM.exidx.text._ZNKSt9type_info14__is_pointer_pEv
                0x10167140        0x0 /home/leon/riotboard/arm-2012.09/bin/../arm-none-eabi/lib//libstdc++.a(tinfo.o)
                                  0x8 (size before relaxing)
 .ARM.exidx.text._ZNKSt9type_info15__is_function_pEv
                0x10167140        0x0 /home/leon/riotboard/arm-2012.09/bin/../arm-none-eabi/lib//libstdc++.a(tinfo.o)
                                  0x8 (size before relaxing)
 .ARM.exidx.text._ZNKSt9type_info11__do_upcastEPKN10__cxxabiv117__class_type_infoEPPv
                0x10167140        0x0 /home/leon/riotboard/arm-2012.09/bin/../arm-none-eabi/lib//libstdc++.a(tinfo.o)
                                  0x8 (size before relaxing)
 .ARM.exidx.text._ZNSt9type_infoD0Ev
                0x10167140        0x0 /home/leon/riotboard/arm-2012.09/bin/../arm-none-eabi/lib//libstdc++.a(tinfo.o)
                                  0x8 (size before relaxing)
 .ARM.exidx.text._ZNKSt9type_infoeqERKS_
                0x10167140        0x0 /home/leon/riotboard/arm-2012.09/bin/../arm-none-eabi/lib//libstdc++.a(tinfo.o)
                                  0x8 (size before relaxing)
 .ARM.exidx.text._ZNKSt9type_info10__do_catchEPKS_PPvj
                0x10167140        0x0 /home/leon/riotboard/arm-2012.09/bin/../arm-none-eabi/lib//libstdc++.a(tinfo.o)
                                  0x8 (size before relaxing)
 .ARM.exidx     0x10167140       0x88 /home/leon/riotboard/arm-2012.09/bin/../lib/gcc/arm-none-eabi/4.7.2//libgcc.a(unwind-arm.o)
                                 0xd8 (size before relaxing)
 .ARM.exidx     0x101671c8       0x38 /home/leon/riotboard/arm-2012.09/bin/../lib/gcc/arm-none-eabi/4.7.2//libgcc.a(pr-support.o)
                                 0x48 (size before relaxing)
                0x10167200                PROVIDE (__exidx_end, .)

.rel.dyn        0x10167200        0x0
 .rel.iplt      0x00000000        0x0 /home/leon/riotboard/arm-2012.09/bin/../lib/gcc/arm-none-eabi/4.7.2//crtbegin.o

.data           0x10167200    0x1f374
 *(.data .data.* .gnu.linkonce.d.*)
 .data          0x10167200        0x4 /home/leon/riotboard/arm-2012.09/bin/../lib/gcc/arm-none-eabi/4.7.2//crtbegin.o
                0x10167200                __dso_handle
 .data          0x10167204        0x0 /home/leon/riotboard/arm-2012.09/bin/../lib/gcc/arm-none-eabi/4.7.2//crti.o
 .data          0x10167204        0x0 /home/leon/riotboard/arm-2012.09/bin/../lib/gcc/arm-none-eabi/4.7.2//crtend.o
 .data          0x10167204        0x0 /home/leon/riotboard/arm-2012.09/bin/../lib/gcc/arm-none-eabi/4.7.2//crtn.o
 .data          0x10167204        0x0 /home/leon/git/swp-report/iMX6_Platform_SDK/output/mx6dq/sdk_unit_test/smart_device_rev_a/obj/apps/common/ivt.o
 .data          0x10167204        0x0 /home/leon/git/swp-report/iMX6_Platform_SDK/output/mx6dq/sdk_unit_test/smart_device_rev_a/obj/apps/common/platform_init.o
 .data          0x10167204        0x0 /home/leon/git/swp-report/iMX6_Platform_SDK/output/mx6dq/sdk_unit_test/smart_device_rev_a/obj/apps/common/print_clock_info.o
 .data          0x10167204        0x0 /home/leon/git/swp-report/iMX6_Platform_SDK/output/mx6dq/sdk_unit_test/smart_device_rev_a/obj/apps/common/print_version.o
 .data          0x10167204        0x0 /home/leon/git/swp-report/iMX6_Platform_SDK/output/mx6dq/sdk_unit_test/smart_device_rev_a/obj/apps/sdk_unit_test/src/all_test.o
 .data          0x10167204        0x0 /home/leon/git/swp-report/iMX6_Platform_SDK/output/mx6dq/sdk_unit_test/smart_device_rev_a/obj/apps/sdk_unit_test/src/unit_test_main.o
 .data          0x10167204        0x0 /home/leon/git/swp-report/iMX6_Platform_SDK/output/mx6dq/lib/libsdk.a(ccm_pll.o)
 .data          0x10167204        0x0 /home/leon/git/swp-report/iMX6_Platform_SDK/output/mx6dq/lib/libsdk.a(cortexA9.o)
 .data          0x10167204        0x0 /home/leon/git/swp-report/iMX6_Platform_SDK/output/mx6dq/lib/libsdk.a(gic.o)
 .data          0x10167204        0x0 /home/leon/git/swp-report/iMX6_Platform_SDK/output/mx6dq/lib/libsdk.a(mmu.o)
 .data          0x10167204        0x0 /home/leon/git/swp-report/iMX6_Platform_SDK/output/mx6dq/lib/libsdk.a(startup.o)
 .data          0x10167204        0x0 /home/leon/git/swp-report/iMX6_Platform_SDK/output/mx6dq/lib/libsdk.a(vectors.o)
 .data          0x10167204        0x4 /home/leon/git/swp-report/iMX6_Platform_SDK/output/mx6dq/lib/libsdk.a(menu.o)
 .data          0x10167208        0x0 /home/leon/git/swp-report/iMX6_Platform_SDK/output/mx6dq/lib/libsdk.a(sdk_version.o)
 .data          0x10167208        0x0 /home/leon/git/swp-report/iMX6_Platform_SDK/output/mx6dq/lib/libsdk.a(system_util.o)
 .data          0x10167208        0x4 /home/leon/git/swp-report/iMX6_Platform_SDK/output/mx6dq/lib/libsdk.a(text_color.o)
                0x10167208                is_color_supported
 .data          0x1016720c        0x0 /home/leon/git/swp-report/iMX6_Platform_SDK/output/mx6dq/lib/libsdk.a(board_id.o)
 .data          0x1016720c        0x0 /home/leon/git/swp-report/iMX6_Platform_SDK/output/mx6dq/lib/libsdk.a(timer.o)
 .data          0x1016720c        0x0 /home/leon/git/swp-report/iMX6_Platform_SDK/output/mx6dq/lib/libsdk.a(imx_uart.o)
 .data          0x1016720c        0x4 /home/leon/git/swp-report/iMX6_Platform_SDK/output/mx6dq/lib/libsdk.a(arm_abort.o)
 .data          0x10167210        0x0 /home/leon/git/swp-report/iMX6_Platform_SDK/output/mx6dq/lib/libsdk.a(interrupt.o)
 .data          0x10167210        0x0 /home/leon/git/swp-report/iMX6_Platform_SDK/output/mx6dq/lib/libsdk.a(epit.o)
 .data          0x10167210        0x0 /home/leon/git/swp-report/iMX6_Platform_SDK/output/mx6dq/lib/libsdk.a(abort_handler.o)
 .data          0x10167210        0x0 /home/leon/git/swp-report/iMX6_Platform_SDK/output/mx6dq/lib/libboard_smart_device_rev_a.a(board_io_expanders.o)
 .data          0x10167210        0x8 /home/leon/git/swp-report/iMX6_Platform_SDK/output/mx6dq/lib/libboard_smart_device_rev_a.a(hardware_modules.o)
                0x10167210                g_debug_uart_port
                0x10167214                g_system_timer_port
 .data          0x10167218        0x0 /home/leon/git/swp-report/iMX6_Platform_SDK/output/mx6dq/lib/libboard_smart_device_rev_a.a(dcd.o)
 .data          0x10167218        0x0 /home/leon/git/swp-report/iMX6_Platform_SDK/output/mx6dq/lib/libboard_smart_device_rev_a.a(uart_iomux_config.o)
 .data          0x10167218        0x0 /home/leon/git/swp-report/iMX6_Platform_SDK/output/mx6dq/lib/libboard_smart_device_rev_a.a(iomux_config.o)
 .data          0x10167218        0x0 /home/leon/git/swp-report/iMX6_Platform_SDK/output/mx6dq/lib/libboard_smart_device_rev_a.a(ipu1_iomux_config.o)
 .data          0x10167218        0x0 /home/leon/git/swp-report/iMX6_Platform_SDK/output/mx6dq/lib/libboard_smart_device_rev_a.a(kpp_iomux_config.o)
 .data          0x10167218        0x0 /home/leon/git/swp-report/iMX6_Platform_SDK/output/mx6dq/lib/libboard_smart_device_rev_a.a(mmdc_iomux_config.o)
 .data          0x10167218        0x0 /home/leon/git/swp-report/iMX6_Platform_SDK/output/mx6dq/lib/libboard_smart_device_rev_a.a(pwm1_iomux_config.o)
 .data          0x10167218        0x0 /home/leon/git/swp-report/iMX6_Platform_SDK/output/mx6dq/lib/libboard_smart_device_rev_a.a(sjc_iomux_config.o)
 .data          0x10167218        0x0 /home/leon/git/swp-report/iMX6_Platform_SDK/output/mx6dq/lib/libboard_smart_device_rev_a.a(uart1_iomux_config.o)
 .data          0x10167218        0x0 /home/leon/git/swp-report/iMX6_Platform_SDK/output/mx6dq/lib/libboard_smart_device_rev_a.a(usdhc2_iomux_config.o)
 .data          0x10167218        0x0 /home/leon/git/swp-report/iMX6_Platform_SDK/output/mx6dq/lib/libboard_smart_device_rev_a.a(usdhc3_iomux_config.o)
 .data          0x10167218        0x0 /home/leon/git/swp-report/iMX6_Platform_SDK/output/mx6dq/lib/libboard_smart_device_rev_a.a(usdhc4_iomux_config.o)
 .data          0x10167218        0x0 /home/leon/git/swp-report/iMX6_Platform_SDK/output/mx6dq/lib/libboard_smart_device_rev_a.a(audmux_iomux_config.o)
 .data          0x10167218        0x0 /home/leon/git/swp-report/iMX6_Platform_SDK/output/mx6dq/lib/libboard_smart_device_rev_a.a(ccm_iomux_config.o)
 .data          0x10167218        0x0 /home/leon/git/swp-report/iMX6_Platform_SDK/output/mx6dq/lib/libboard_smart_device_rev_a.a(ecspi1_iomux_config.o)
 .data          0x10167218        0x0 /home/leon/git/swp-report/iMX6_Platform_SDK/output/mx6dq/lib/libboard_smart_device_rev_a.a(enet_iomux_config.o)
 .data          0x10167218        0x0 /home/leon/git/swp-report/iMX6_Platform_SDK/output/mx6dq/lib/libboard_smart_device_rev_a.a(flexcan1_iomux_config.o)
 .data          0x10167218        0x0 /home/leon/git/swp-report/iMX6_Platform_SDK/output/mx6dq/lib/libboard_smart_device_rev_a.a(gpio1_iomux_config.o)
 .data          0x10167218        0x0 /home/leon/git/swp-report/iMX6_Platform_SDK/output/mx6dq/lib/libboard_smart_device_rev_a.a(gpio2_iomux_config.o)
 .data          0x10167218        0x0 /home/leon/git/swp-report/iMX6_Platform_SDK/output/mx6dq/lib/libboard_smart_device_rev_a.a(gpio3_iomux_config.o)
 .data          0x10167218        0x0 /home/leon/git/swp-report/iMX6_Platform_SDK/output/mx6dq/lib/libboard_smart_device_rev_a.a(gpio4_iomux_config.o)
 .data          0x10167218        0x0 /home/leon/git/swp-report/iMX6_Platform_SDK/output/mx6dq/lib/libboard_smart_device_rev_a.a(gpio5_iomux_config.o)
 .data          0x10167218        0x0 /home/leon/git/swp-report/iMX6_Platform_SDK/output/mx6dq/lib/libboard_smart_device_rev_a.a(gpio6_iomux_config.o)
 .data          0x10167218        0x0 /home/leon/git/swp-report/iMX6_Platform_SDK/output/mx6dq/lib/libboard_smart_device_rev_a.a(gpio7_iomux_config.o)
 .data          0x10167218        0x0 /home/leon/git/swp-report/iMX6_Platform_SDK/output/mx6dq/lib/libboard_smart_device_rev_a.a(gps_iomux_config.o)
 .data          0x10167218        0x0 /home/leon/git/swp-report/iMX6_Platform_SDK/output/mx6dq/lib/libboard_smart_device_rev_a.a(i2c1_iomux_config.o)
 .data          0x10167218        0x0 /home/leon/git/swp-report/iMX6_Platform_SDK/output/mx6dq/lib/libboard_smart_device_rev_a.a(i2c2_iomux_config.o)
 .data          0x10167218        0x0 /home/leon/git/swp-report/iMX6_Platform_SDK/output/mx6dq/lib/libboard_smart_device_rev_a.a(i2c3_iomux_config.o)
 .data          0x10167218        0x0 /home/leon/git/swp-report/iMX6_Platform_SDK/output/mx6dq/sdk_unit_test/smart_device_rev_a/libsdk_unit_test.a(cpu_wp_test.o)
 .data          0x10167218        0x0 /home/leon/git/swp-report/iMX6_Platform_SDK/output/mx6dq/sdk_unit_test/smart_device_rev_a/libsdk_unit_test.a(multicore_test.o)
 .data          0x10167218       0x1c /home/leon/git/swp-report/iMX6_Platform_SDK/output/mx6dq/sdk_unit_test/smart_device_rev_a/libsdk_unit_test.a(audio_test.o)
                0x10167218                pcm_para
                0x10167224                pcm_music
 .data          0x10167234        0x0 /home/leon/git/swp-report/iMX6_Platform_SDK/output/mx6dq/sdk_unit_test/smart_device_rev_a/libsdk_unit_test.a(wav_file.o)
 .data          0x10167234        0x0 /home/leon/git/swp-report/iMX6_Platform_SDK/output/mx6dq/sdk_unit_test/smart_device_rev_a/libsdk_unit_test.a(gic_test.o)
 .data          0x10167234        0x0 /home/leon/git/swp-report/iMX6_Platform_SDK/output/mx6dq/sdk_unit_test/smart_device_rev_a/libsdk_unit_test.a(ocotp_test.o)
 .data          0x10167234        0x0 /home/leon/git/swp-report/iMX6_Platform_SDK/output/mx6dq/sdk_unit_test/smart_device_rev_a/libsdk_unit_test.a(i2c_test.o)
 .data          0x10167234       0x18 /home/leon/git/swp-report/iMX6_Platform_SDK/output/mx6dq/sdk_unit_test/smart_device_rev_a/libsdk_unit_test.a(imx6_i2c_device.o)
 .data          0x1016724c        0x0 /home/leon/git/swp-report/iMX6_Platform_SDK/output/mx6dq/sdk_unit_test/smart_device_rev_a/libsdk_unit_test.a(snvs_rtc_test.o)
 .data          0x1016724c        0x0 /home/leon/git/swp-report/iMX6_Platform_SDK/output/mx6dq/sdk_unit_test/smart_device_rev_a/libsdk_unit_test.a(snvs_srtc_test.o)
 .data          0x1016724c        0x0 /home/leon/git/swp-report/iMX6_Platform_SDK/output/mx6dq/sdk_unit_test/smart_device_rev_a/libsdk_unit_test.a(tempmon_test.o)
 .data          0x1016724c       0x20 /home/leon/git/swp-report/iMX6_Platform_SDK/output/mx6dq/sdk_unit_test/smart_device_rev_a/libsdk_unit_test.a(sdma_test.o)
 .data          0x1016726c        0x0 /home/leon/git/swp-report/iMX6_Platform_SDK/output/mx6dq/sdk_unit_test/smart_device_rev_a/libsdk_unit_test.a(spi_lpb.o)
 .data          0x1016726c        0x8 /home/leon/git/swp-report/iMX6_Platform_SDK/output/mx6dq/sdk_unit_test/smart_device_rev_a/libsdk_unit_test.a(uart_loopback.o)
 .data          0x10167274        0x4 /home/leon/git/swp-report/iMX6_Platform_SDK/output/mx6dq/sdk_unit_test/smart_device_rev_a/libsdk_unit_test.a(uart_test.o)
 .data          0x10167278        0x4 /home/leon/git/swp-report/iMX6_Platform_SDK/output/mx6dq/sdk_unit_test/smart_device_rev_a/libsdk_unit_test.a(epit_test.o)
 .data          0x1016727c        0x0 /home/leon/git/swp-report/iMX6_Platform_SDK/output/mx6dq/sdk_unit_test/smart_device_rev_a/libsdk_unit_test.a(gpt_test.o)
 .data          0x1016727c        0x0 /home/leon/git/swp-report/iMX6_Platform_SDK/output/mx6dq/sdk_unit_test/smart_device_rev_a/libsdk_unit_test.a(timer_test.o)
 .data          0x1016727c       0x68 /home/leon/git/swp-report/iMX6_Platform_SDK/output/mx6dq/sdk_unit_test/smart_device_rev_a/libsdk_unit_test.a(usdhc_test.o)
 .data          0x101672e4        0x8 /home/leon/git/swp-report/iMX6_Platform_SDK/output/mx6dq/sdk_unit_test/smart_device_rev_a/libsdk_unit_test.a(pwm_test.o)
 .data          0x101672ec        0x0 /home/leon/git/swp-report/iMX6_Platform_SDK/output/mx6dq/sdk_unit_test/smart_device_rev_a/libsdk_unit_test.a(watchdog_test.o)
 .data          0x101672ec        0x0 /home/leon/git/swp-report/iMX6_Platform_SDK/output/mx6dq/sdk_unit_test/smart_device_rev_a/libsdk_unit_test.a(hdmi_test.o)
 .data          0x101672ec        0x0 /home/leon/git/swp-report/iMX6_Platform_SDK/output/mx6dq/sdk_unit_test/smart_device_rev_a/libsdk_unit_test.a(ips_display.o)
 .data          0x101672ec       0x28 /home/leon/git/swp-report/iMX6_Platform_SDK/output/mx6dq/sdk_unit_test/smart_device_rev_a/libsdk_unit_test.a(ips_test.o)
 .data          0x10167314        0x0 /home/leon/git/swp-report/iMX6_Platform_SDK/output/mx6dq/sdk_unit_test/smart_device_rev_a/libsdk_unit_test.a(ipu_image.o)
 .data          0x10167314      0x100 /home/leon/git/swp-report/iMX6_Platform_SDK/output/mx6dq/sdk_unit_test/smart_device_rev_a/libsdk_unit_test.a(keypad_test.o)
 .data          0x10167414       0x10 /home/leon/git/swp-report/iMX6_Platform_SDK/output/mx6dq/sdk_unit_test/smart_device_rev_a/libsdk_unit_test.a(camera_test.o)
 .data          0x10167424        0x0 /home/leon/git/swp-report/iMX6_Platform_SDK/output/mx6dq/sdk_unit_test/smart_device_rev_a/libsdk_unit_test.a(csi_test_mode.o)
 .data          0x10167424        0x0 /home/leon/git/swp-report/iMX6_Platform_SDK/output/mx6dq/sdk_unit_test/smart_device_rev_a/libsdk_unit_test.a(sensor_capture.o)
 .data          0x10167424        0x4 /home/leon/git/swp-report/iMX6_Platform_SDK/output/mx6dq/sdk_unit_test/smart_device_rev_a/libsdk_unit_test.a(pcie_test_rc.o)
                0x10167424                res_num
 .data          0x10167428       0x24 /home/leon/git/swp-report/iMX6_Platform_SDK/output/mx6dq/sdk_unit_test/smart_device_rev_a/libsdk_unit_test.a(usb_test.o)
 .data          0x1016744c        0x8 /home/leon/git/swp-report/iMX6_Platform_SDK/output/mx6dq/sdk_unit_test/smart_device_rev_a/libsdk_unit_test.a(enet_test.o)
 .data          0x10167454        0xc /home/leon/git/swp-report/iMX6_Platform_SDK/output/mx6dq/sdk_unit_test/smart_device_rev_a/libsdk_unit_test.a(spi_test.o)
 .data          0x10167460        0x0 /home/leon/git/swp-report/iMX6_Platform_SDK/output/mx6dq/sdk_unit_test/smart_device_rev_a/libsdk_unit_test.a(accelerometer_test.o)
 .data          0x10167460        0x0 /home/leon/git/swp-report/iMX6_Platform_SDK/output/mx6dq/sdk_unit_test/smart_device_rev_a/libsdk_unit_test.a(sata_test.o)
 .data          0x10167460       0x10 /home/leon/git/swp-report/iMX6_Platform_SDK/output/mx6dq/sdk_unit_test/smart_device_rev_a/libsdk_unit_test.a(at24cxx.o)
 .data          0x10167470        0x0 /home/leon/git/swp-report/iMX6_Platform_SDK/output/mx6dq/sdk_unit_test/smart_device_rev_a/libsdk_unit_test.a(mem_2_mem.o)
 .data          0x10167470        0x0 /home/leon/git/swp-report/iMX6_Platform_SDK/output/mx6dq/sdk_unit_test/smart_device_rev_a/libsdk_unit_test.a(pwm_output.o)
 .data          0x10167470        0x0 /home/leon/git/swp-report/iMX6_Platform_SDK/output/mx6dq/sdk_unit_test/smart_device_rev_a/libsdk_unit_test.a(init_dma_data.o)
 .data          0x10167470        0x0 /home/leon/git/swp-report/iMX6_Platform_SDK/output/mx6dq/sdk_unit_test/smart_device_rev_a/libsdk_unit_test.a(ips_combiner.o)
 .data          0x10167470        0x0 /home/leon/git/swp-report/iMX6_Platform_SDK/output/mx6dq/sdk_unit_test/smart_device_rev_a/libsdk_unit_test.a(ips_csc.o)
 .data          0x10167470        0x0 /home/leon/git/swp-report/iMX6_Platform_SDK/output/mx6dq/sdk_unit_test/smart_device_rev_a/libsdk_unit_test.a(ips_resize.o)
 .data          0x10167470        0x0 /home/leon/git/swp-report/iMX6_Platform_SDK/output/mx6dq/sdk_unit_test/smart_device_rev_a/libsdk_unit_test.a(ips_rotate.o)
 .data          0x10167470       0x10 /home/leon/git/swp-report/iMX6_Platform_SDK/output/mx6dq/sdk_unit_test/smart_device_rev_a/libsdk_unit_test.a(usb0_device_mouse_test.o)
                0x10167470                qf_Descriptor
 .data          0x10167480        0x0 /home/leon/git/swp-report/iMX6_Platform_SDK/output/mx6dq/sdk_unit_test/smart_device_rev_a/libsdk_unit_test.a(usb0_host_test.o)
 .data          0x10167480       0x28 /home/leon/git/swp-report/iMX6_Platform_SDK/output/mx6dq/sdk_unit_test/smart_device_rev_a/libsdk_unit_test.a(usb0_host_testmodes_test.o)
 .data          0x101674a8        0x0 /home/leon/git/swp-report/iMX6_Platform_SDK/output/mx6dq/sdk_unit_test/smart_device_rev_a/libsdk_unit_test.a(spi_nor_numonyx.o)
 .data          0x101674a8        0x0 /home/leon/riotboard/arm-2012.09/bin/../arm-none-eabi/lib//libm.a(lib_a-sf_cos.o)
 .data          0x101674a8        0x0 /home/leon/riotboard/arm-2012.09/bin/../arm-none-eabi/lib//libm.a(lib_a-sf_fabs.o)
 .data          0x101674a8        0x0 /home/leon/riotboard/arm-2012.09/bin/../arm-none-eabi/lib//libm.a(lib_a-sf_modf.o)
 .data          0x101674a8        0x0 /home/leon/riotboard/arm-2012.09/bin/../arm-none-eabi/lib//libm.a(lib_a-sf_sin.o)
 .data          0x101674a8        0x0 /home/leon/riotboard/arm-2012.09/bin/../arm-none-eabi/lib//libm.a(lib_a-ef_rem_pio2.o)
 .data          0x101674a8        0x0 /home/leon/riotboard/arm-2012.09/bin/../arm-none-eabi/lib//libm.a(lib_a-kf_cos.o)
 .data          0x101674a8        0x0 /home/leon/riotboard/arm-2012.09/bin/../arm-none-eabi/lib//libm.a(lib_a-kf_rem_pio2.o)
 .data          0x101674a8        0x0 /home/leon/riotboard/arm-2012.09/bin/../arm-none-eabi/lib//libm.a(lib_a-kf_sin.o)
 .data          0x101674a8        0x0 /home/leon/riotboard/arm-2012.09/bin/../arm-none-eabi/lib//libm.a(lib_a-sf_floor.o)
 .data          0x101674a8        0x0 /home/leon/riotboard/arm-2012.09/bin/../arm-none-eabi/lib//libm.a(lib_a-sf_scalbn.o)
 .data          0x101674a8        0x0 /home/leon/riotboard/arm-2012.09/bin/../arm-none-eabi/lib//libm.a(lib_a-sf_copysign.o)
 .data          0x101674a8        0x0 /home/leon/riotboard/arm-2012.09/bin/../arm-none-eabi/lib//libc.a(lib_a-assert.o)
 .data          0x101674a8        0x0 /home/leon/riotboard/arm-2012.09/bin/../arm-none-eabi/lib//libc.a(lib_a-bzero.o)
 .data          0x101674a8        0x0 /home/leon/riotboard/arm-2012.09/bin/../arm-none-eabi/lib//libc.a(lib_a-fflush.o)
 .data          0x101674a8        0x0 /home/leon/riotboard/arm-2012.09/bin/../arm-none-eabi/lib//libc.a(lib_a-findfp.o)
 .data          0x101674a8        0x0 /home/leon/riotboard/arm-2012.09/bin/../arm-none-eabi/lib//libc.a(lib_a-fiprintf.o)
 .data          0x101674a8        0x0 /home/leon/riotboard/arm-2012.09/bin/../arm-none-eabi/lib//libc.a(lib_a-fputc.o)
 .data          0x101674a8        0x0 /home/leon/riotboard/arm-2012.09/bin/../arm-none-eabi/lib//libc.a(lib_a-fputs.o)
 .data          0x101674a8        0x0 /home/leon/riotboard/arm-2012.09/bin/../arm-none-eabi/lib//libc.a(lib_a-freer.o)
 .data          0x101674a8        0x0 /home/leon/riotboard/arm-2012.09/bin/../arm-none-eabi/lib//libc.a(lib_a-fvwrite.o)
 .data          0x101674a8        0x0 /home/leon/riotboard/arm-2012.09/bin/../arm-none-eabi/lib//libc.a(lib_a-fwalk.o)
 .data          0x101674a8      0x430 /home/leon/riotboard/arm-2012.09/bin/../arm-none-eabi/lib//libc.a(lib_a-impure.o)
                0x101674a8                _impure_ptr
 .data          0x101678d8        0x0 /home/leon/riotboard/arm-2012.09/bin/../arm-none-eabi/lib//libc.a(lib_a-init.o)
 .data          0x101678d8        0x0 /home/leon/riotboard/arm-2012.09/bin/../arm-none-eabi/lib//libc.a(lib_a-malloc.o)
 .data          0x101678d8      0x410 /home/leon/riotboard/arm-2012.09/bin/../arm-none-eabi/lib//libc.a(lib_a-mallocr.o)
                0x101678d8                __malloc_av_
                0x10167ce0                __malloc_sbrk_base
                0x10167ce4                __malloc_trim_threshold
 .data          0x10167ce8        0x0 /home/leon/riotboard/arm-2012.09/bin/../arm-none-eabi/lib//libc.a(lib_a-memchr.o)
 .data          0x10167ce8        0x0 /home/leon/riotboard/arm-2012.09/bin/../arm-none-eabi/lib//libc.a(lib_a-memcpy.o)
 .data          0x10167ce8        0x0 /home/leon/riotboard/arm-2012.09/bin/../arm-none-eabi/lib//libc.a(lib_a-memmove.o)
 .data          0x10167ce8        0x0 /home/leon/riotboard/arm-2012.09/bin/../arm-none-eabi/lib//libc.a(lib_a-memset.o)
 .data          0x10167ce8        0x0 /home/leon/riotboard/arm-2012.09/bin/../arm-none-eabi/lib//libc.a(lib_a-mlock.o)
 .data          0x10167ce8        0x0 /home/leon/riotboard/arm-2012.09/bin/../arm-none-eabi/lib//libc.a(lib_a-printf.o)
 .data          0x10167ce8        0x0 /home/leon/riotboard/arm-2012.09/bin/../arm-none-eabi/lib//libc.a(lib_a-putc.o)
 .data          0x10167ce8        0x0 /home/leon/riotboard/arm-2012.09/bin/../arm-none-eabi/lib//libc.a(lib_a-realloc.o)
 .data          0x10167ce8        0x0 /home/leon/riotboard/arm-2012.09/bin/../arm-none-eabi/lib//libc.a(lib_a-reallocr.o)
 .data          0x10167ce8        0x0 /home/leon/riotboard/arm-2012.09/bin/../arm-none-eabi/lib//libc.a(lib_a-rget.o)
 .data          0x10167ce8        0x0 /home/leon/riotboard/arm-2012.09/bin/../arm-none-eabi/lib//libc.a(lib_a-sbrkr.o)
 .data          0x10167ce8        0x0 /home/leon/riotboard/arm-2012.09/bin/../arm-none-eabi/lib//libc.a(lib_a-sprintf.o)
 .data          0x10167ce8        0x0 /home/leon/riotboard/arm-2012.09/bin/../arm-none-eabi/lib//libc.a(lib_a-stdio.o)
 .data          0x10167ce8        0x0 /home/leon/riotboard/arm-2012.09/bin/../arm-none-eabi/lib//libc.a(lib_a-strlen.o)
 .data          0x10167ce8        0x0 /home/leon/riotboard/arm-2012.09/bin/../arm-none-eabi/lib//libc.a(lib_a-strncasecmp.o)
 .data          0x10167ce8        0x0 /home/leon/riotboard/arm-2012.09/bin/../arm-none-eabi/lib//libc.a(lib_a-svfprintf.o)
 .data          0x10167ce8        0x0 /home/leon/riotboard/arm-2012.09/bin/../arm-none-eabi/lib//libc.a(lib_a-vfiprintf.o)
 .data          0x10167ce8        0x0 /home/leon/riotboard/arm-2012.09/bin/../arm-none-eabi/lib//libc.a(lib_a-vfprintf.o)
 .data          0x10167ce8        0x0 /home/leon/riotboard/arm-2012.09/bin/../arm-none-eabi/lib//libc.a(lib_a-vprintf.o)
 .data          0x10167ce8        0x0 /home/leon/riotboard/arm-2012.09/bin/../arm-none-eabi/lib//libc.a(lib_a-wbuf.o)
 .data          0x10167ce8        0x0 /home/leon/riotboard/arm-2012.09/bin/../arm-none-eabi/lib//libc.a(lib_a-writer.o)
 .data          0x10167ce8        0x0 /home/leon/riotboard/arm-2012.09/bin/../arm-none-eabi/lib//libc.a(lib_a-wsetup.o)
 .data          0x10167ce8        0x0 /home/leon/riotboard/arm-2012.09/bin/../arm-none-eabi/lib//libc.a(lib_a-abort.o)
 .data          0x10167ce8        0x0 /home/leon/riotboard/arm-2012.09/bin/../arm-none-eabi/lib//libc.a(lib_a-closer.o)
 .data          0x10167ce8        0x4 /home/leon/riotboard/arm-2012.09/bin/../arm-none-eabi/lib//libc.a(lib_a-ctype_.o)
                0x10167ce8                __ctype_ptr__
 .data          0x10167cec        0x0 /home/leon/riotboard/arm-2012.09/bin/../arm-none-eabi/lib//libc.a(lib_a-dtoa.o)
 .data          0x10167cec        0x0 /home/leon/riotboard/arm-2012.09/bin/../arm-none-eabi/lib//libc.a(lib_a-fclose.o)
 .data          0x10167cec        0x0 /home/leon/riotboard/arm-2012.09/bin/../arm-none-eabi/lib//libc.a(lib_a-fputwc.o)
 .data          0x10167cec       0x7c /home/leon/riotboard/arm-2012.09/bin/../arm-none-eabi/lib//libc.a(lib_a-locale.o)
                0x10167d0c                __mb_cur_max
 .data          0x10167d68        0x0 /home/leon/riotboard/arm-2012.09/bin/../arm-none-eabi/lib//libc.a(lib_a-lseekr.o)
 .data          0x10167d68        0x0 /home/leon/riotboard/arm-2012.09/bin/../arm-none-eabi/lib//libc.a(lib_a-makebuf.o)
 .data          0x10167d68        0x0 /home/leon/riotboard/arm-2012.09/bin/../arm-none-eabi/lib//libc.a(lib_a-mprec.o)
 .data          0x10167d68        0x0 /home/leon/riotboard/arm-2012.09/bin/../arm-none-eabi/lib//libc.a(lib_a-readr.o)
 .data          0x10167d68        0x0 /home/leon/riotboard/arm-2012.09/bin/../arm-none-eabi/lib//libc.a(lib_a-reent.o)
 .data          0x10167d68        0x0 /home/leon/riotboard/arm-2012.09/bin/../arm-none-eabi/lib//libc.a(lib_a-refill.o)
 .data          0x10167d68        0x0 /home/leon/riotboard/arm-2012.09/bin/../arm-none-eabi/lib//libc.a(lib_a-s_fpclassify.o)
 .data          0x10167d68        0x0 /home/leon/riotboard/arm-2012.09/bin/../arm-none-eabi/lib//libc.a(lib_a-signal.o)
 .data          0x10167d68        0x0 /home/leon/riotboard/arm-2012.09/bin/../arm-none-eabi/lib//libc.a(lib_a-signalr.o)
 .data          0x10167d68        0x0 /home/leon/riotboard/arm-2012.09/bin/../arm-none-eabi/lib//libc.a(lib_a-strcmp.o)
 .data          0x10167d68        0x0 /home/leon/riotboard/arm-2012.09/bin/../arm-none-eabi/lib//libc.a(lib_a-svfiprintf.o)
 .data          0x10167d68        0x0 /home/leon/riotboard/arm-2012.09/bin/../arm-none-eabi/lib//libc.a(lib_a-wcrtomb.o)
 .data          0x10167d68        0x4 /home/leon/riotboard/arm-2012.09/bin/../arm-none-eabi/lib//libc.a(lib_a-wctomb_r.o)
                0x10167d68                __wctomb
 .data          0x10167d6c        0x0 /home/leon/riotboard/arm-2012.09/bin/../arm-none-eabi/lib//libc.a(lib_a-callocr.o)
 .data          0x10167d6c        0x0 /home/leon/riotboard/arm-2012.09/bin/../arm-none-eabi/lib//libc.a(lib_a-fstatr.o)
 .data          0x10167d6c        0x0 /home/leon/riotboard/arm-2012.09/bin/../arm-none-eabi/lib//libc.a(lib_a-isattyr.o)
 .data          0x10167d6c        0x0 /home/leon/riotboard/arm-2012.09/bin/../lib/gcc/arm-none-eabi/4.7.2//libgcc.a(_udivsi3.o)
 .data          0x10167d6c        0x0 /home/leon/riotboard/arm-2012.09/bin/../lib/gcc/arm-none-eabi/4.7.2//libgcc.a(_dvmd_tls.o)
 .data          0x10167d6c        0x0 /home/leon/riotboard/arm-2012.09/bin/../lib/gcc/arm-none-eabi/4.7.2//libgcc.a(_arm_addsubdf3.o)
 .data          0x10167d6c        0x0 /home/leon/riotboard/arm-2012.09/bin/../lib/gcc/arm-none-eabi/4.7.2//libgcc.a(_arm_muldivdf3.o)
 .data          0x10167d6c        0x0 /home/leon/riotboard/arm-2012.09/bin/../lib/gcc/arm-none-eabi/4.7.2//libgcc.a(_arm_cmpdf2.o)
 .data          0x10167d6c        0x0 /home/leon/riotboard/arm-2012.09/bin/../lib/gcc/arm-none-eabi/4.7.2//libgcc.a(_arm_fixdfsi.o)
 .data          0x10167d6c        0x0 /home/leon/riotboard/arm-2012.09/bin/../lib/gcc/arm-none-eabi/4.7.2//libgcc.a(_arm_addsubsf3.o)
 .data          0x10167d6c        0x0 /home/leon/riotboard/arm-2012.09/bin/../lib/gcc/arm-none-eabi/4.7.2//libgcc.a(_arm_muldivsf3.o)
 .data          0x10167d6c        0x0 /home/leon/riotboard/arm-2012.09/bin/../lib/gcc/arm-none-eabi/4.7.2//libgcc.a(_arm_cmpsf2.o)
 .data          0x10167d6c        0x0 /home/leon/riotboard/arm-2012.09/bin/../lib/gcc/arm-none-eabi/4.7.2//libgcc.a(_arm_fixsfsi.o)
 .data          0x10167d6c        0x0 /home/leon/riotboard/arm-2012.09/bin/../lib/gcc/arm-none-eabi/4.7.2//libgcc.a(_aeabi_uldivmod.o)
 .data          0x10167d6c        0x0 /home/leon/riotboard/arm-2012.09/bin/../lib/gcc/arm-none-eabi/4.7.2//libgcc.a(bpabi.o)
 .data          0x10167d6c        0x0 /home/leon/riotboard/arm-2012.09/bin/../lib/gcc/arm-none-eabi/4.7.2//libgcc.a(_divdi3.o)
 .data          0x10167d6c        0x0 /home/leon/riotboard/arm-2012.09/bin/../lib/gcc/arm-none-eabi/4.7.2//libgcc.a(_udivdi3.o)
 .data          0x10167d6c        0x0 /home/leon/riotboard/arm-2012.09/bin/../lib/gcc/arm-none-eabi/4.7.2//libgcc.a(_clzsi2.o)
 .data          0x10167d6c        0x0 /home/leon/git/swp-report/iMX6_Platform_SDK/output/mx6dq/lib/libsdk.a(profile.o)
 .data          0x10167d6c        0x0 /home/leon/git/swp-report/iMX6_Platform_SDK/output/mx6dq/lib/libsdk.a(armv7_cache.o)
 .data          0x10167d6c        0x4 /home/leon/git/swp-report/iMX6_Platform_SDK/output/mx6dq/lib/libsdk.a(runtime_support.o)
                0x10167d6c                environ
 .data          0x10167d70        0x0 /home/leon/git/swp-report/iMX6_Platform_SDK/output/mx6dq/lib/libsdk.a(mma8451.o)
 .data          0x10167d70       0x30 /home/leon/git/swp-report/iMX6_Platform_SDK/output/mx6dq/lib/libsdk.a(smd_sensor.o)
                0x10167d70                ov5642_strobe_on
 .data          0x10167da0        0x0 /home/leon/git/swp-report/iMX6_Platform_SDK/output/mx6dq/lib/libsdk.a(cpu_get_cores.o)
 .data          0x10167da0        0x0 /home/leon/git/swp-report/iMX6_Platform_SDK/output/mx6dq/lib/libsdk.a(cpu_multicore.o)
 .data          0x10167da0       0x40 /home/leon/git/swp-report/iMX6_Platform_SDK/output/mx6dq/lib/libsdk.a(cpu_workpoint.o)
 .data          0x10167de0        0x0 /home/leon/git/swp-report/iMX6_Platform_SDK/output/mx6dq/lib/libsdk.a(enet_drv.o)
 .data          0x10167de0        0x0 /home/leon/git/swp-report/iMX6_Platform_SDK/output/mx6dq/lib/libsdk.a(gpio.o)
 .data          0x10167de0        0x0 /home/leon/git/swp-report/iMX6_Platform_SDK/output/mx6dq/lib/libsdk.a(imx6dq_gpio_map.o)
 .data          0x10167de0        0x0 /home/leon/git/swp-report/iMX6_Platform_SDK/output/mx6dq/lib/libsdk.a(hdmi_tx.o)
 .data          0x10167de0        0x0 /home/leon/git/swp-report/iMX6_Platform_SDK/output/mx6dq/lib/libsdk.a(hdmi_tx_audio.o)
 .data          0x10167de0        0x0 /home/leon/git/swp-report/iMX6_Platform_SDK/output/mx6dq/lib/libsdk.a(hdmi_tx_phy.o)
 .data          0x10167de0        0x0 /home/leon/git/swp-report/iMX6_Platform_SDK/output/mx6dq/lib/libsdk.a(imx_i2c.o)
 .data          0x10167de0        0x0 /home/leon/git/swp-report/iMX6_Platform_SDK/output/mx6dq/lib/libsdk.a(imx_i2c_slave.o)
 .data          0x10167de0      0x368 /home/leon/git/swp-report/iMX6_Platform_SDK/output/mx6dq/lib/libsdk.a(ips_disp_panel.o)
                0x10167de0                disp_dev_list
                0x10168144                num_of_panels
 .data          0x10168148        0x0 /home/leon/git/swp-report/iMX6_Platform_SDK/output/mx6dq/lib/libsdk.a(ipu_common.o)
 .data          0x10168148        0x0 /home/leon/git/swp-report/iMX6_Platform_SDK/output/mx6dq/lib/libsdk.a(ipu_csi.o)
 .data          0x10168148        0x0 /home/leon/git/swp-report/iMX6_Platform_SDK/output/mx6dq/lib/libsdk.a(ipu_dc.o)
 .data          0x10168148        0x0 /home/leon/git/swp-report/iMX6_Platform_SDK/output/mx6dq/lib/libsdk.a(ipu_di.o)
 .data          0x10168148        0x0 /home/leon/git/swp-report/iMX6_Platform_SDK/output/mx6dq/lib/libsdk.a(ipu_dmfc.o)
 .data          0x10168148        0x0 /home/leon/git/swp-report/iMX6_Platform_SDK/output/mx6dq/lib/libsdk.a(ipu_dp.o)
 .data          0x10168148        0x0 /home/leon/git/swp-report/iMX6_Platform_SDK/output/mx6dq/lib/libsdk.a(ipu_ic.o)
 .data          0x10168148        0x0 /home/leon/git/swp-report/iMX6_Platform_SDK/output/mx6dq/lib/libsdk.a(ipu_idmac.o)
 .data          0x10168148        0x0 /home/leon/git/swp-report/iMX6_Platform_SDK/output/mx6dq/lib/libsdk.a(ipu_vdi.o)
 .data          0x10168148        0x0 /home/leon/git/swp-report/iMX6_Platform_SDK/output/mx6dq/lib/libsdk.a(keypad_port.o)
 .data          0x10168148        0x0 /home/leon/git/swp-report/iMX6_Platform_SDK/output/mx6dq/lib/libsdk.a(ldb.o)
 .data          0x10168148        0x0 /home/leon/git/swp-report/iMX6_Platform_SDK/output/mx6dq/lib/libsdk.a(ocotp.o)
 .data          0x10168148        0x0 /home/leon/git/swp-report/iMX6_Platform_SDK/output/mx6dq/lib/libsdk.a(pcie.o)
 .data          0x10168148        0x0 /home/leon/git/swp-report/iMX6_Platform_SDK/output/mx6dq/lib/libsdk.a(pcie_phy.o)
 .data          0x10168148        0x0 /home/leon/git/swp-report/iMX6_Platform_SDK/output/mx6dq/lib/libsdk.a(pcie_prot.o)
 .data          0x10168148        0x0 /home/leon/git/swp-report/iMX6_Platform_SDK/output/mx6dq/lib/libsdk.a(pmu_driver.o)
 .data          0x10168148        0x0 /home/leon/git/swp-report/iMX6_Platform_SDK/output/mx6dq/lib/libsdk.a(pwm.o)
 .data          0x10168148        0x0 /home/leon/git/swp-report/iMX6_Platform_SDK/output/mx6dq/lib/libsdk.a(rtc.o)
 .data          0x10168148        0x0 /home/leon/git/swp-report/iMX6_Platform_SDK/output/mx6dq/lib/libsdk.a(srtc.o)
 .data          0x10168148        0x1 /home/leon/git/swp-report/iMX6_Platform_SDK/output/mx6dq/lib/libsdk.a(sata.o)
 .data          0x10168149        0x0 /home/leon/git/swp-report/iMX6_Platform_SDK/output/mx6dq/lib/libsdk.a(sdma.o)
 .data          0x10168149        0x0 /home/leon/git/swp-report/iMX6_Platform_SDK/output/mx6dq/lib/libsdk.a(sdma_script_info.o)
 .data          0x10168149        0x0 /home/leon/git/swp-report/iMX6_Platform_SDK/output/mx6dq/lib/libsdk.a(snvs.o)
 .data          0x10168149        0x0 /home/leon/git/swp-report/iMX6_Platform_SDK/output/mx6dq/lib/libsdk.a(ecspi.o)
 .data          0x10168149        0x0 /home/leon/git/swp-report/iMX6_Platform_SDK/output/mx6dq/lib/libsdk.a(tempmon.o)
 .data          0x10168149        0x0 /home/leon/git/swp-report/iMX6_Platform_SDK/output/mx6dq/lib/libsdk.a(gpt.o)
 .data          0x10168149        0x0 /home/leon/git/swp-report/iMX6_Platform_SDK/output/mx6dq/lib/libsdk.a(usb_common.o)
 .data          0x10168149        0x0 /home/leon/git/swp-report/iMX6_Platform_SDK/output/mx6dq/lib/libsdk.a(usbd_drv.o)
 .data          0x10168149        0x0 /home/leon/git/swp-report/iMX6_Platform_SDK/output/mx6dq/lib/libsdk.a(usbh_drv.o)
 *fill*         0x10168149        0x3 
 .data          0x1016814c       0x58 /home/leon/git/swp-report/iMX6_Platform_SDK/output/mx6dq/lib/libsdk.a(usdhc.o)
                0x1016814c                usdhc_device
                0x1016819c                card_detect_test_en
                0x101681a0                write_protect_test_en
 .data          0x101681a4        0x0 /home/leon/git/swp-report/iMX6_Platform_SDK/output/mx6dq/lib/libsdk.a(usdhc_host.o)
 .data          0x101681a4        0x4 /home/leon/git/swp-report/iMX6_Platform_SDK/output/mx6dq/lib/libsdk.a(usdhc_mmc.o)
 .data          0x101681a8        0x0 /home/leon/git/swp-report/iMX6_Platform_SDK/output/mx6dq/lib/libsdk.a(usdhc_sd.o)
 .data          0x101681a8        0x0 /home/leon/git/swp-report/iMX6_Platform_SDK/output/mx6dq/lib/libsdk.a(spinlock.o)
 .data          0x101681a8        0x0 /home/leon/git/swp-report/iMX6_Platform_SDK/output/mx6dq/lib/libsdk.a(spinlock_lock_unlock.o)
 .data          0x101681a8    0x1e3c0 /home/leon/git/swp-report/iMX6_Platform_SDK/output/mx6dq/lib/libsdk.a(camera_profile.o)
                0x101681a8                g_ov3640_sensor_detection
                0x101681c8                g_ov5640_sensor_detection
                0x101681e8                g_ov5642_sensor_detection
                0x10168208                g_mt9p111_sensor_detection
                0x10168218                g_ov3640_mode_vga_640_480_30fps
                0x10168978                g_ov5640_mode_vga_640_480_30fps
                0x101698f8                g_ov5642_mode_vga_640_480_30fps
                0x1016b818                g_ov5642_af_firmware
                0x101824e8                g_ov5642_af_trigger
                0x10182508                g_ov5642_af_ready
                0x10182518                g_mt9p111_mode_vga_640_480_30fps
                0x10185c58                g_mt9p111_af_firmware
                0x10186398                g_mt9p111_af_trigger
                0x101863c8                g_mt9p111_af_ready
                0x101863d8                g_camera_modes
                0x101863f8                g_camera_profiles
 .data          0x10186568        0x0 /home/leon/git/swp-report/iMX6_Platform_SDK/output/mx6dq/lib/libsdk.a(hdmi_common.o)
 .data          0x10186568        0x0 /home/leon/git/swp-report/iMX6_Platform_SDK/output/mx6dq/lib/libsdk.a(mx6x_usb.o)
 .data          0x10186568        0x0 /home/leon/git/swp-report/iMX6_Platform_SDK/output/mx6dq/lib/libboard_smart_device_rev_a.a(board_audio.o)
 .data          0x10186568        0x1 /home/leon/git/swp-report/iMX6_Platform_SDK/output/mx6dq/lib/libboard_smart_device_rev_a.a(board_camera.o)
                0x10186568                g_camera_i2c_port
 .data          0x10186569        0x0 /home/leon/git/swp-report/iMX6_Platform_SDK/output/mx6dq/lib/libboard_smart_device_rev_a.a(board_display.o)
 .data          0x10186569        0x0 /home/leon/git/swp-report/iMX6_Platform_SDK/output/mx6dq/lib/libboard_smart_device_rev_a.a(board_hdmi.o)
 .data          0x10186569        0x0 /home/leon/git/swp-report/iMX6_Platform_SDK/output/mx6dq/lib/libboard_smart_device_rev_a.a(board_i2c.o)
 .data          0x10186569        0x0 /home/leon/git/swp-report/iMX6_Platform_SDK/output/mx6dq/lib/libboard_smart_device_rev_a.a(board_mipi.o)
 .data          0x10186569        0x0 /home/leon/git/swp-report/iMX6_Platform_SDK/output/mx6dq/lib/libboard_smart_device_rev_a.a(board_network.o)
 .data          0x10186569        0x0 /home/leon/git/swp-report/iMX6_Platform_SDK/output/mx6dq/lib/libboard_smart_device_rev_a.a(board_pcie.o)
 .data          0x10186569        0x0 /home/leon/git/swp-report/iMX6_Platform_SDK/output/mx6dq/lib/libboard_smart_device_rev_a.a(board_sata.o)
 .data          0x10186569        0x0 /home/leon/git/swp-report/iMX6_Platform_SDK/output/mx6dq/lib/libboard_smart_device_rev_a.a(board_usb.o)
 .data          0x10186569        0x0 /home/leon/git/swp-report/iMX6_Platform_SDK/output/mx6dq/lib/libboard_smart_device_rev_a.a(board_usdhc.o)
 .data          0x10186569        0x0 /home/leon/git/swp-report/iMX6_Platform_SDK/output/mx6dq/lib/libboard_smart_device_rev_a.a(ecspi_iomux_config.o)
 .data          0x10186569        0x0 /home/leon/git/swp-report/iMX6_Platform_SDK/output/mx6dq/lib/libboard_smart_device_rev_a.a(i2c_iomux_config.o)
 .data          0x10186569        0x0 /home/leon/git/swp-report/iMX6_Platform_SDK/output/mx6dq/lib/libboard_smart_device_rev_a.a(pwm_iomux_config.o)
 .data          0x10186569        0x0 /home/leon/git/swp-report/iMX6_Platform_SDK/output/mx6dq/lib/libboard_smart_device_rev_a.a(usdhc_iomux_config.o)
 .data          0x10186569        0x0 /home/leon/riotboard/arm-2012.09/bin/../arm-none-eabi/lib//libstdc++.a(pure.o)
 .data          0x10186569        0x0 /home/leon/riotboard/arm-2012.09/bin/../arm-none-eabi/lib//libstdc++.a(eh_terminate.o)
 .data          0x10186569        0x0 /home/leon/riotboard/arm-2012.09/bin/../arm-none-eabi/lib//libstdc++.a(eh_unex_handler.o)
 *fill*         0x10186569        0x3 
 .data._ZN10__cxxabiv120__unexpected_handlerE
                0x1018656c        0x4 /home/leon/riotboard/arm-2012.09/bin/../arm-none-eabi/lib//libstdc++.a(eh_unex_handler.o)
                0x1018656c                __cxxabiv1::__unexpected_handler
 .data          0x10186570        0x0 /home/leon/riotboard/arm-2012.09/bin/../arm-none-eabi/lib//libstdc++.a(eh_call.o)
 .data          0x10186570        0x0 /home/leon/riotboard/arm-2012.09/bin/../arm-none-eabi/lib//libstdc++.a(eh_throw.o)
 .data          0x10186570        0x0 /home/leon/riotboard/arm-2012.09/bin/../arm-none-eabi/lib//libstdc++.a(eh_arm.o)
 .data          0x10186570        0x0 /home/leon/riotboard/arm-2012.09/bin/../arm-none-eabi/lib//libstdc++.a(eh_exception.o)
 .data          0x10186570        0x0 /home/leon/riotboard/arm-2012.09/bin/../arm-none-eabi/lib//libstdc++.a(eh_alloc.o)
 .data          0x10186570        0x0 /home/leon/riotboard/arm-2012.09/bin/../arm-none-eabi/lib//libstdc++.a(eh_globals.o)
 .data          0x10186570        0x0 /home/leon/riotboard/arm-2012.09/bin/../arm-none-eabi/lib//libstdc++.a(si_class_type_info.o)
 .data          0x10186570        0x0 /home/leon/riotboard/arm-2012.09/bin/../arm-none-eabi/lib//libstdc++.a(eh_personality.o)
 .data          0x10186570        0x0 /home/leon/riotboard/arm-2012.09/bin/../arm-none-eabi/lib//libstdc++.a(eh_term_handler.o)
 .data._ZN10__cxxabiv119__terminate_handlerE
                0x10186570        0x4 /home/leon/riotboard/arm-2012.09/bin/../arm-none-eabi/lib//libstdc++.a(eh_term_handler.o)
                0x10186570                __cxxabiv1::__terminate_handler
 .data          0x10186574        0x0 /home/leon/riotboard/arm-2012.09/bin/../arm-none-eabi/lib//libstdc++.a(eh_catch.o)
 .data          0x10186574        0x0 /home/leon/riotboard/arm-2012.09/bin/../arm-none-eabi/lib//libstdc++.a(class_type_info.o)
 .data          0x10186574        0x0 /home/leon/riotboard/arm-2012.09/bin/../arm-none-eabi/lib//libstdc++.a(vterminate.o)
 .data          0x10186574        0x0 /home/leon/riotboard/arm-2012.09/bin/../arm-none-eabi/lib//libstdc++.a(cp-demangle.o)
 .data          0x10186574        0x0 /home/leon/riotboard/arm-2012.09/bin/../arm-none-eabi/lib//libstdc++.a(eh_type.o)
 .data          0x10186574        0x0 /home/leon/riotboard/arm-2012.09/bin/../arm-none-eabi/lib//libstdc++.a(del_op.o)
 .data          0x10186574        0x0 /home/leon/riotboard/arm-2012.09/bin/../arm-none-eabi/lib//libstdc++.a(tinfo.o)
 .data          0x10186574        0x0 /home/leon/riotboard/arm-2012.09/bin/../arm-none-eabi/lib//libc.a(lib_a-fwrite.o)
 .data          0x10186574        0x0 /home/leon/riotboard/arm-2012.09/bin/../arm-none-eabi/lib//libc.a(lib_a-memcmp.o)
 .data          0x10186574        0x0 /home/leon/riotboard/arm-2012.09/bin/../arm-none-eabi/lib//libc.a(lib_a-strncmp.o)
 .data          0x10186574        0x0 /home/leon/riotboard/arm-2012.09/bin/../arm-none-eabi/lib//libc.a(lib_a-syswrite.o)
 .data          0x10186574        0x0 /home/leon/riotboard/arm-2012.09/bin/../lib/gcc/arm-none-eabi/4.7.2//libgcc.a(_divsi3.o)
 .data          0x10186574        0x0 /home/leon/riotboard/arm-2012.09/bin/../lib/gcc/arm-none-eabi/4.7.2//libgcc.a(unwind-arm.o)
 .data          0x10186574        0x0 /home/leon/riotboard/arm-2012.09/bin/../lib/gcc/arm-none-eabi/4.7.2//libgcc.a(libunwind.o)
 .data          0x10186574        0x0 /home/leon/riotboard/arm-2012.09/bin/../lib/gcc/arm-none-eabi/4.7.2//libgcc.a(pr-support.o)
 .data          0x10186574        0x0 /home/leon/git/swp-report/iMX6_Platform_SDK/output/mx6dq/lib/libsdk.a(max7310.o)

.jcr            0x10186574        0x4
 .jcr           0x10186574        0x0 /home/leon/riotboard/arm-2012.09/bin/../lib/gcc/arm-none-eabi/4.7.2//crtbegin.o
 .jcr           0x10186574        0x4 /home/leon/riotboard/arm-2012.09/bin/../lib/gcc/arm-none-eabi/4.7.2//crtend.o

.tm_clone_table
                0x10186578        0x0
 .tm_clone_table
                0x10186578        0x0 /home/leon/riotboard/arm-2012.09/bin/../lib/gcc/arm-none-eabi/4.7.2//crtbegin.o
 .tm_clone_table
                0x10186578        0x0 /home/leon/riotboard/arm-2012.09/bin/../lib/gcc/arm-none-eabi/4.7.2//crtend.o

.igot.plt       0x10186578        0x0
 .igot.plt      0x00000000        0x0 /home/leon/riotboard/arm-2012.09/bin/../lib/gcc/arm-none-eabi/4.7.2//crtbegin.o

.hab.data       0x10400000     0x2000
                0x10400000                __hab_data = .
                0x10402000                . = (. + 0x2000)
 *fill*         0x10400000     0x2000 
                0x10402000                . = ALIGN (0x20)
                0x10402000                __hab_data_end = .
                0x00402000                _image_size = (. - _start_image_add)

.bss            0x10402000    0x48538
                0x10402000                __bss_start__ = .
 *(.shbss)
 *(.bss .bss.* .gnu.linkonce.b.*)
 .bss           0x10402000       0x1c /home/leon/riotboard/arm-2012.09/bin/../lib/gcc/arm-none-eabi/4.7.2//crtbegin.o
 .bss           0x1040201c        0x0 /home/leon/riotboard/arm-2012.09/bin/../lib/gcc/arm-none-eabi/4.7.2//crti.o
 .bss           0x1040201c        0x0 /home/leon/riotboard/arm-2012.09/bin/../lib/gcc/arm-none-eabi/4.7.2//crtend.o
 .bss           0x1040201c        0x0 /home/leon/riotboard/arm-2012.09/bin/../lib/gcc/arm-none-eabi/4.7.2//crtn.o
 .bss           0x1040201c        0x0 /home/leon/git/swp-report/iMX6_Platform_SDK/output/mx6dq/sdk_unit_test/smart_device_rev_a/obj/apps/common/ivt.o
 .bss           0x1040201c        0x0 /home/leon/git/swp-report/iMX6_Platform_SDK/output/mx6dq/sdk_unit_test/smart_device_rev_a/obj/apps/common/platform_init.o
 .bss           0x1040201c        0x0 /home/leon/git/swp-report/iMX6_Platform_SDK/output/mx6dq/sdk_unit_test/smart_device_rev_a/obj/apps/common/print_clock_info.o
 .bss           0x1040201c        0x0 /home/leon/git/swp-report/iMX6_Platform_SDK/output/mx6dq/sdk_unit_test/smart_device_rev_a/obj/apps/common/print_version.o
 .bss           0x1040201c        0x0 /home/leon/git/swp-report/iMX6_Platform_SDK/output/mx6dq/sdk_unit_test/smart_device_rev_a/obj/apps/sdk_unit_test/src/all_test.o
 .bss           0x1040201c        0x0 /home/leon/git/swp-report/iMX6_Platform_SDK/output/mx6dq/sdk_unit_test/smart_device_rev_a/obj/apps/sdk_unit_test/src/unit_test_main.o
 .bss           0x1040201c        0x0 /home/leon/git/swp-report/iMX6_Platform_SDK/output/mx6dq/lib/libsdk.a(ccm_pll.o)
 .bss           0x1040201c        0x0 /home/leon/git/swp-report/iMX6_Platform_SDK/output/mx6dq/lib/libsdk.a(cortexA9.o)
 .bss           0x1040201c        0x0 /home/leon/git/swp-report/iMX6_Platform_SDK/output/mx6dq/lib/libsdk.a(gic.o)
 .bss           0x1040201c        0x0 /home/leon/git/swp-report/iMX6_Platform_SDK/output/mx6dq/lib/libsdk.a(mmu.o)
 .bss           0x1040201c        0x0 /home/leon/git/swp-report/iMX6_Platform_SDK/output/mx6dq/lib/libsdk.a(startup.o)
 .bss           0x1040201c        0x0 /home/leon/git/swp-report/iMX6_Platform_SDK/output/mx6dq/lib/libsdk.a(vectors.o)
 .bss           0x1040201c       0x7c /home/leon/git/swp-report/iMX6_Platform_SDK/output/mx6dq/lib/libsdk.a(menu.o)
 .bss           0x10402098        0x0 /home/leon/git/swp-report/iMX6_Platform_SDK/output/mx6dq/lib/libsdk.a(sdk_version.o)
 .bss           0x10402098        0x0 /home/leon/git/swp-report/iMX6_Platform_SDK/output/mx6dq/lib/libsdk.a(system_util.o)
 .bss           0x10402098        0x0 /home/leon/git/swp-report/iMX6_Platform_SDK/output/mx6dq/lib/libsdk.a(text_color.o)
 .bss           0x10402098        0x0 /home/leon/git/swp-report/iMX6_Platform_SDK/output/mx6dq/lib/libsdk.a(board_id.o)
 .bss           0x10402098        0x4 /home/leon/git/swp-report/iMX6_Platform_SDK/output/mx6dq/lib/libsdk.a(timer.o)
                0x10402098                g_microsecondTimerMultiple
 .bss           0x1040209c        0x0 /home/leon/git/swp-report/iMX6_Platform_SDK/output/mx6dq/lib/libsdk.a(imx_uart.o)
 .bss           0x1040209c        0x0 /home/leon/git/swp-report/iMX6_Platform_SDK/output/mx6dq/lib/libsdk.a(arm_abort.o)
 .bss           0x1040209c      0x290 /home/leon/git/swp-report/iMX6_Platform_SDK/output/mx6dq/lib/libsdk.a(interrupt.o)
                0x1040209c                g_interrupt_handlers
                0x1040231c                g_vectNum
 .bss           0x1040232c        0x0 /home/leon/git/swp-report/iMX6_Platform_SDK/output/mx6dq/lib/libsdk.a(epit.o)
 .bss           0x1040232c        0x0 /home/leon/git/swp-report/iMX6_Platform_SDK/output/mx6dq/lib/libsdk.a(abort_handler.o)
 .bss           0x1040232c        0x4 /home/leon/git/swp-report/iMX6_Platform_SDK/output/mx6dq/lib/libboard_smart_device_rev_a.a(board_io_expanders.o)
                0x1040232c                max7310_i2c_req_array
 .bss           0x10402330        0x0 /home/leon/git/swp-report/iMX6_Platform_SDK/output/mx6dq/lib/libboard_smart_device_rev_a.a(hardware_modules.o)
 .bss           0x10402330        0x0 /home/leon/git/swp-report/iMX6_Platform_SDK/output/mx6dq/lib/libboard_smart_device_rev_a.a(dcd.o)
 .bss           0x10402330        0x0 /home/leon/git/swp-report/iMX6_Platform_SDK/output/mx6dq/lib/libboard_smart_device_rev_a.a(uart_iomux_config.o)
 .bss           0x10402330        0x0 /home/leon/git/swp-report/iMX6_Platform_SDK/output/mx6dq/lib/libboard_smart_device_rev_a.a(iomux_config.o)
 .bss           0x10402330        0x0 /home/leon/git/swp-report/iMX6_Platform_SDK/output/mx6dq/lib/libboard_smart_device_rev_a.a(ipu1_iomux_config.o)
 .bss           0x10402330        0x0 /home/leon/git/swp-report/iMX6_Platform_SDK/output/mx6dq/lib/libboard_smart_device_rev_a.a(kpp_iomux_config.o)
 .bss           0x10402330        0x0 /home/leon/git/swp-report/iMX6_Platform_SDK/output/mx6dq/lib/libboard_smart_device_rev_a.a(mmdc_iomux_config.o)
 .bss           0x10402330        0x0 /home/leon/git/swp-report/iMX6_Platform_SDK/output/mx6dq/lib/libboard_smart_device_rev_a.a(pwm1_iomux_config.o)
 .bss           0x10402330        0x0 /home/leon/git/swp-report/iMX6_Platform_SDK/output/mx6dq/lib/libboard_smart_device_rev_a.a(sjc_iomux_config.o)
 .bss           0x10402330        0x0 /home/leon/git/swp-report/iMX6_Platform_SDK/output/mx6dq/lib/libboard_smart_device_rev_a.a(uart1_iomux_config.o)
 .bss           0x10402330        0x0 /home/leon/git/swp-report/iMX6_Platform_SDK/output/mx6dq/lib/libboard_smart_device_rev_a.a(usdhc2_iomux_config.o)
 .bss           0x10402330        0x0 /home/leon/git/swp-report/iMX6_Platform_SDK/output/mx6dq/lib/libboard_smart_device_rev_a.a(usdhc3_iomux_config.o)
 .bss           0x10402330        0x0 /home/leon/git/swp-report/iMX6_Platform_SDK/output/mx6dq/lib/libboard_smart_device_rev_a.a(usdhc4_iomux_config.o)
 .bss           0x10402330        0x0 /home/leon/git/swp-report/iMX6_Platform_SDK/output/mx6dq/lib/libboard_smart_device_rev_a.a(audmux_iomux_config.o)
 .bss           0x10402330        0x0 /home/leon/git/swp-report/iMX6_Platform_SDK/output/mx6dq/lib/libboard_smart_device_rev_a.a(ccm_iomux_config.o)
 .bss           0x10402330        0x0 /home/leon/git/swp-report/iMX6_Platform_SDK/output/mx6dq/lib/libboard_smart_device_rev_a.a(ecspi1_iomux_config.o)
 .bss           0x10402330        0x0 /home/leon/git/swp-report/iMX6_Platform_SDK/output/mx6dq/lib/libboard_smart_device_rev_a.a(enet_iomux_config.o)
 .bss           0x10402330        0x0 /home/leon/git/swp-report/iMX6_Platform_SDK/output/mx6dq/lib/libboard_smart_device_rev_a.a(flexcan1_iomux_config.o)
 .bss           0x10402330        0x0 /home/leon/git/swp-report/iMX6_Platform_SDK/output/mx6dq/lib/libboard_smart_device_rev_a.a(gpio1_iomux_config.o)
 .bss           0x10402330        0x0 /home/leon/git/swp-report/iMX6_Platform_SDK/output/mx6dq/lib/libboard_smart_device_rev_a.a(gpio2_iomux_config.o)
 .bss           0x10402330        0x0 /home/leon/git/swp-report/iMX6_Platform_SDK/output/mx6dq/lib/libboard_smart_device_rev_a.a(gpio3_iomux_config.o)
 .bss           0x10402330        0x0 /home/leon/git/swp-report/iMX6_Platform_SDK/output/mx6dq/lib/libboard_smart_device_rev_a.a(gpio4_iomux_config.o)
 .bss           0x10402330        0x0 /home/leon/git/swp-report/iMX6_Platform_SDK/output/mx6dq/lib/libboard_smart_device_rev_a.a(gpio5_iomux_config.o)
 .bss           0x10402330        0x0 /home/leon/git/swp-report/iMX6_Platform_SDK/output/mx6dq/lib/libboard_smart_device_rev_a.a(gpio6_iomux_config.o)
 .bss           0x10402330        0x0 /home/leon/git/swp-report/iMX6_Platform_SDK/output/mx6dq/lib/libboard_smart_device_rev_a.a(gpio7_iomux_config.o)
 .bss           0x10402330        0x0 /home/leon/git/swp-report/iMX6_Platform_SDK/output/mx6dq/lib/libboard_smart_device_rev_a.a(gps_iomux_config.o)
 .bss           0x10402330        0x0 /home/leon/git/swp-report/iMX6_Platform_SDK/output/mx6dq/lib/libboard_smart_device_rev_a.a(i2c1_iomux_config.o)
 .bss           0x10402330        0x0 /home/leon/git/swp-report/iMX6_Platform_SDK/output/mx6dq/lib/libboard_smart_device_rev_a.a(i2c2_iomux_config.o)
 .bss           0x10402330        0x0 /home/leon/git/swp-report/iMX6_Platform_SDK/output/mx6dq/lib/libboard_smart_device_rev_a.a(i2c3_iomux_config.o)
 .bss           0x10402330        0x0 /home/leon/git/swp-report/iMX6_Platform_SDK/output/mx6dq/sdk_unit_test/smart_device_rev_a/libsdk_unit_test.a(cpu_wp_test.o)
 .bss           0x10402330        0x4 /home/leon/git/swp-report/iMX6_Platform_SDK/output/mx6dq/sdk_unit_test/smart_device_rev_a/libsdk_unit_test.a(multicore_test.o)
                0x10402330                isTestDone
 .bss           0x10402334        0x4 /home/leon/git/swp-report/iMX6_Platform_SDK/output/mx6dq/sdk_unit_test/smart_device_rev_a/libsdk_unit_test.a(audio_test.o)
 .bss           0x10402338        0x0 /home/leon/git/swp-report/iMX6_Platform_SDK/output/mx6dq/sdk_unit_test/smart_device_rev_a/libsdk_unit_test.a(wav_file.o)
 .bss           0x10402338        0x4 /home/leon/git/swp-report/iMX6_Platform_SDK/output/mx6dq/sdk_unit_test/smart_device_rev_a/libsdk_unit_test.a(gic_test.o)
                0x10402338                gicTestDone
 .bss           0x1040233c        0x0 /home/leon/git/swp-report/iMX6_Platform_SDK/output/mx6dq/sdk_unit_test/smart_device_rev_a/libsdk_unit_test.a(ocotp_test.o)
 .bss           0x1040233c        0x0 /home/leon/git/swp-report/iMX6_Platform_SDK/output/mx6dq/sdk_unit_test/smart_device_rev_a/libsdk_unit_test.a(i2c_test.o)
 .bss           0x1040233c       0x28 /home/leon/git/swp-report/iMX6_Platform_SDK/output/mx6dq/sdk_unit_test/smart_device_rev_a/libsdk_unit_test.a(imx6_i2c_device.o)
 .bss           0x10402364        0x8 /home/leon/git/swp-report/iMX6_Platform_SDK/output/mx6dq/sdk_unit_test/smart_device_rev_a/libsdk_unit_test.a(snvs_rtc_test.o)
 .bss           0x1040236c        0x4 /home/leon/git/swp-report/iMX6_Platform_SDK/output/mx6dq/sdk_unit_test/smart_device_rev_a/libsdk_unit_test.a(snvs_srtc_test.o)
 .bss           0x10402370        0x0 /home/leon/git/swp-report/iMX6_Platform_SDK/output/mx6dq/sdk_unit_test/smart_device_rev_a/libsdk_unit_test.a(tempmon_test.o)
 .bss           0x10402370        0x0 /home/leon/git/swp-report/iMX6_Platform_SDK/output/mx6dq/sdk_unit_test/smart_device_rev_a/libsdk_unit_test.a(sdma_test.o)
 .bss           0x10402370     0x2818 /home/leon/git/swp-report/iMX6_Platform_SDK/output/mx6dq/sdk_unit_test/smart_device_rev_a/libsdk_unit_test.a(spi_lpb.o)
 .bss           0x10404b88     0x281c /home/leon/git/swp-report/iMX6_Platform_SDK/output/mx6dq/sdk_unit_test/smart_device_rev_a/libsdk_unit_test.a(uart_loopback.o)
                0x104073a0                trans_done
 .bss           0x104073a4        0x1 /home/leon/git/swp-report/iMX6_Platform_SDK/output/mx6dq/sdk_unit_test/smart_device_rev_a/libsdk_unit_test.a(uart_test.o)
 .bss           0x104073a5        0x1 /home/leon/git/swp-report/iMX6_Platform_SDK/output/mx6dq/sdk_unit_test/smart_device_rev_a/libsdk_unit_test.a(epit_test.o)
 *fill*         0x104073a6        0x2 
 .bss           0x104073a8        0xc /home/leon/git/swp-report/iMX6_Platform_SDK/output/mx6dq/sdk_unit_test/smart_device_rev_a/libsdk_unit_test.a(gpt_test.o)
 .bss           0x104073b4        0x0 /home/leon/git/swp-report/iMX6_Platform_SDK/output/mx6dq/sdk_unit_test/smart_device_rev_a/libsdk_unit_test.a(timer_test.o)
 .bss           0x104073b4    0x17d00 /home/leon/git/swp-report/iMX6_Platform_SDK/output/mx6dq/sdk_unit_test/smart_device_rev_a/libsdk_unit_test.a(usdhc_test.o)
 .bss           0x1041f0b4        0x0 /home/leon/git/swp-report/iMX6_Platform_SDK/output/mx6dq/sdk_unit_test/smart_device_rev_a/libsdk_unit_test.a(pwm_test.o)
 .bss           0x1041f0b4        0x0 /home/leon/git/swp-report/iMX6_Platform_SDK/output/mx6dq/sdk_unit_test/smart_device_rev_a/libsdk_unit_test.a(watchdog_test.o)
 .bss           0x1041f0b4        0x0 /home/leon/git/swp-report/iMX6_Platform_SDK/output/mx6dq/sdk_unit_test/smart_device_rev_a/libsdk_unit_test.a(hdmi_test.o)
 .bss           0x1041f0b4        0x0 /home/leon/git/swp-report/iMX6_Platform_SDK/output/mx6dq/sdk_unit_test/smart_device_rev_a/libsdk_unit_test.a(ips_display.o)
 .bss           0x1041f0b4        0x0 /home/leon/git/swp-report/iMX6_Platform_SDK/output/mx6dq/sdk_unit_test/smart_device_rev_a/libsdk_unit_test.a(ips_test.o)
 .bss           0x1041f0b4        0x0 /home/leon/git/swp-report/iMX6_Platform_SDK/output/mx6dq/sdk_unit_test/smart_device_rev_a/libsdk_unit_test.a(ipu_image.o)
 .bss           0x1041f0b4        0x0 /home/leon/git/swp-report/iMX6_Platform_SDK/output/mx6dq/sdk_unit_test/smart_device_rev_a/libsdk_unit_test.a(keypad_test.o)
 .bss           0x1041f0b4        0x0 /home/leon/git/swp-report/iMX6_Platform_SDK/output/mx6dq/sdk_unit_test/smart_device_rev_a/libsdk_unit_test.a(camera_test.o)
 .bss           0x1041f0b4        0x0 /home/leon/git/swp-report/iMX6_Platform_SDK/output/mx6dq/sdk_unit_test/smart_device_rev_a/libsdk_unit_test.a(csi_test_mode.o)
 .bss           0x1041f0b4        0x0 /home/leon/git/swp-report/iMX6_Platform_SDK/output/mx6dq/sdk_unit_test/smart_device_rev_a/libsdk_unit_test.a(sensor_capture.o)
 .bss           0x1041f0b4       0x78 /home/leon/git/swp-report/iMX6_Platform_SDK/output/mx6dq/sdk_unit_test/smart_device_rev_a/libsdk_unit_test.a(pcie_test_rc.o)
                0x1041f0b4                ep1_resources
 .bss           0x1041f12c        0x0 /home/leon/git/swp-report/iMX6_Platform_SDK/output/mx6dq/sdk_unit_test/smart_device_rev_a/libsdk_unit_test.a(usb_test.o)
 .bss           0x1041f12c     0x1028 /home/leon/git/swp-report/iMX6_Platform_SDK/output/mx6dq/sdk_unit_test/smart_device_rev_a/libsdk_unit_test.a(enet_test.o)
 .bss           0x10420154      0x404 /home/leon/git/swp-report/iMX6_Platform_SDK/output/mx6dq/sdk_unit_test/smart_device_rev_a/libsdk_unit_test.a(spi_test.o)
                0x10420154                dev_spi_nor
 .bss           0x10420558        0x0 /home/leon/git/swp-report/iMX6_Platform_SDK/output/mx6dq/sdk_unit_test/smart_device_rev_a/libsdk_unit_test.a(accelerometer_test.o)
 .bss           0x10420558      0x400 /home/leon/git/swp-report/iMX6_Platform_SDK/output/mx6dq/sdk_unit_test/smart_device_rev_a/libsdk_unit_test.a(sata_test.o)
 .bss           0x10420958       0x24 /home/leon/git/swp-report/iMX6_Platform_SDK/output/mx6dq/sdk_unit_test/smart_device_rev_a/libsdk_unit_test.a(at24cxx.o)
 .bss           0x1042097c    0x20818 /home/leon/git/swp-report/iMX6_Platform_SDK/output/mx6dq/sdk_unit_test/smart_device_rev_a/libsdk_unit_test.a(mem_2_mem.o)
 .bss           0x10441194        0x4 /home/leon/git/swp-report/iMX6_Platform_SDK/output/mx6dq/sdk_unit_test/smart_device_rev_a/libsdk_unit_test.a(pwm_output.o)
                0x10441194                g_pwm_test_end
 .bss           0x10441198        0x0 /home/leon/git/swp-report/iMX6_Platform_SDK/output/mx6dq/sdk_unit_test/smart_device_rev_a/libsdk_unit_test.a(init_dma_data.o)
 .bss           0x10441198        0x0 /home/leon/git/swp-report/iMX6_Platform_SDK/output/mx6dq/sdk_unit_test/smart_device_rev_a/libsdk_unit_test.a(ips_combiner.o)
 .bss           0x10441198        0x0 /home/leon/git/swp-report/iMX6_Platform_SDK/output/mx6dq/sdk_unit_test/smart_device_rev_a/libsdk_unit_test.a(ips_csc.o)
 .bss           0x10441198        0x0 /home/leon/git/swp-report/iMX6_Platform_SDK/output/mx6dq/sdk_unit_test/smart_device_rev_a/libsdk_unit_test.a(ips_resize.o)
 .bss           0x10441198        0x0 /home/leon/git/swp-report/iMX6_Platform_SDK/output/mx6dq/sdk_unit_test/smart_device_rev_a/libsdk_unit_test.a(ips_rotate.o)
 *fill*         0x10441198      0xe68 
 .bss           0x10442000     0x1000 /home/leon/git/swp-report/iMX6_Platform_SDK/output/mx6dq/sdk_unit_test/smart_device_rev_a/libsdk_unit_test.a(usb0_device_mouse_test.o)
                0x10442000                endpointList
 .bss           0x10443000     0x1000 /home/leon/git/swp-report/iMX6_Platform_SDK/output/mx6dq/sdk_unit_test/smart_device_rev_a/libsdk_unit_test.a(usb0_host_test.o)
                0x10443000                frame_list
 .bss           0x10444000        0x0 /home/leon/git/swp-report/iMX6_Platform_SDK/output/mx6dq/sdk_unit_test/smart_device_rev_a/libsdk_unit_test.a(usb0_host_testmodes_test.o)
 .bss           0x10444000      0x400 /home/leon/git/swp-report/iMX6_Platform_SDK/output/mx6dq/sdk_unit_test/smart_device_rev_a/libsdk_unit_test.a(spi_nor_numonyx.o)
 .bss           0x10444400        0x0 /home/leon/riotboard/arm-2012.09/bin/../arm-none-eabi/lib//libm.a(lib_a-sf_cos.o)
 .bss           0x10444400        0x0 /home/leon/riotboard/arm-2012.09/bin/../arm-none-eabi/lib//libm.a(lib_a-sf_fabs.o)
 .bss           0x10444400        0x0 /home/leon/riotboard/arm-2012.09/bin/../arm-none-eabi/lib//libm.a(lib_a-sf_modf.o)
 .bss           0x10444400        0x0 /home/leon/riotboard/arm-2012.09/bin/../arm-none-eabi/lib//libm.a(lib_a-sf_sin.o)
 .bss           0x10444400        0x0 /home/leon/riotboard/arm-2012.09/bin/../arm-none-eabi/lib//libm.a(lib_a-ef_rem_pio2.o)
 .bss           0x10444400        0x0 /home/leon/riotboard/arm-2012.09/bin/../arm-none-eabi/lib//libm.a(lib_a-kf_cos.o)
 .bss           0x10444400        0x0 /home/leon/riotboard/arm-2012.09/bin/../arm-none-eabi/lib//libm.a(lib_a-kf_rem_pio2.o)
 .bss           0x10444400        0x0 /home/leon/riotboard/arm-2012.09/bin/../arm-none-eabi/lib//libm.a(lib_a-kf_sin.o)
 .bss           0x10444400        0x0 /home/leon/riotboard/arm-2012.09/bin/../arm-none-eabi/lib//libm.a(lib_a-sf_floor.o)
 .bss           0x10444400        0x0 /home/leon/riotboard/arm-2012.09/bin/../arm-none-eabi/lib//libm.a(lib_a-sf_scalbn.o)
 .bss           0x10444400        0x0 /home/leon/riotboard/arm-2012.09/bin/../arm-none-eabi/lib//libm.a(lib_a-sf_copysign.o)
 .bss           0x10444400        0x0 /home/leon/riotboard/arm-2012.09/bin/../arm-none-eabi/lib//libc.a(lib_a-assert.o)
 .bss           0x10444400        0x0 /home/leon/riotboard/arm-2012.09/bin/../arm-none-eabi/lib//libc.a(lib_a-bzero.o)
 .bss           0x10444400        0x0 /home/leon/riotboard/arm-2012.09/bin/../arm-none-eabi/lib//libc.a(lib_a-fflush.o)
 .bss           0x10444400        0x0 /home/leon/riotboard/arm-2012.09/bin/../arm-none-eabi/lib//libc.a(lib_a-findfp.o)
 .bss           0x10444400        0x0 /home/leon/riotboard/arm-2012.09/bin/../arm-none-eabi/lib//libc.a(lib_a-fiprintf.o)
 .bss           0x10444400        0x0 /home/leon/riotboard/arm-2012.09/bin/../arm-none-eabi/lib//libc.a(lib_a-fputc.o)
 .bss           0x10444400        0x0 /home/leon/riotboard/arm-2012.09/bin/../arm-none-eabi/lib//libc.a(lib_a-fputs.o)
 .bss           0x10444400        0x0 /home/leon/riotboard/arm-2012.09/bin/../arm-none-eabi/lib//libc.a(lib_a-freer.o)
 .bss           0x10444400        0x0 /home/leon/riotboard/arm-2012.09/bin/../arm-none-eabi/lib//libc.a(lib_a-fvwrite.o)
 .bss           0x10444400        0x0 /home/leon/riotboard/arm-2012.09/bin/../arm-none-eabi/lib//libc.a(lib_a-fwalk.o)
 .bss           0x10444400        0x0 /home/leon/riotboard/arm-2012.09/bin/../arm-none-eabi/lib//libc.a(lib_a-impure.o)
 .bss           0x10444400        0x0 /home/leon/riotboard/arm-2012.09/bin/../arm-none-eabi/lib//libc.a(lib_a-init.o)
 .bss           0x10444400        0x0 /home/leon/riotboard/arm-2012.09/bin/../arm-none-eabi/lib//libc.a(lib_a-malloc.o)
 .bss           0x10444400       0x34 /home/leon/riotboard/arm-2012.09/bin/../arm-none-eabi/lib//libc.a(lib_a-mallocr.o)
                0x10444400                __malloc_top_pad
                0x10444404                __malloc_current_mallinfo
                0x1044442c                __malloc_max_sbrked_mem
                0x10444430                __malloc_max_total_mem
 .bss           0x10444434        0x0 /home/leon/riotboard/arm-2012.09/bin/../arm-none-eabi/lib//libc.a(lib_a-memchr.o)
 .bss           0x10444434        0x0 /home/leon/riotboard/arm-2012.09/bin/../arm-none-eabi/lib//libc.a(lib_a-memcpy.o)
 .bss           0x10444434        0x0 /home/leon/riotboard/arm-2012.09/bin/../arm-none-eabi/lib//libc.a(lib_a-memmove.o)
 .bss           0x10444434        0x0 /home/leon/riotboard/arm-2012.09/bin/../arm-none-eabi/lib//libc.a(lib_a-memset.o)
 .bss           0x10444434        0x0 /home/leon/riotboard/arm-2012.09/bin/../arm-none-eabi/lib//libc.a(lib_a-mlock.o)
 .bss           0x10444434        0x0 /home/leon/riotboard/arm-2012.09/bin/../arm-none-eabi/lib//libc.a(lib_a-printf.o)
 .bss           0x10444434        0x0 /home/leon/riotboard/arm-2012.09/bin/../arm-none-eabi/lib//libc.a(lib_a-putc.o)
 .bss           0x10444434        0x0 /home/leon/riotboard/arm-2012.09/bin/../arm-none-eabi/lib//libc.a(lib_a-realloc.o)
 .bss           0x10444434        0x0 /home/leon/riotboard/arm-2012.09/bin/../arm-none-eabi/lib//libc.a(lib_a-reallocr.o)
 .bss           0x10444434        0x0 /home/leon/riotboard/arm-2012.09/bin/../arm-none-eabi/lib//libc.a(lib_a-rget.o)
 .bss           0x10444434        0x0 /home/leon/riotboard/arm-2012.09/bin/../arm-none-eabi/lib//libc.a(lib_a-sbrkr.o)
 .bss           0x10444434        0x0 /home/leon/riotboard/arm-2012.09/bin/../arm-none-eabi/lib//libc.a(lib_a-sprintf.o)
 .bss           0x10444434        0x0 /home/leon/riotboard/arm-2012.09/bin/../arm-none-eabi/lib//libc.a(lib_a-stdio.o)
 .bss           0x10444434        0x0 /home/leon/riotboard/arm-2012.09/bin/../arm-none-eabi/lib//libc.a(lib_a-strlen.o)
 .bss           0x10444434        0x0 /home/leon/riotboard/arm-2012.09/bin/../arm-none-eabi/lib//libc.a(lib_a-strncasecmp.o)
 .bss           0x10444434        0x0 /home/leon/riotboard/arm-2012.09/bin/../arm-none-eabi/lib//libc.a(lib_a-svfprintf.o)
 .bss           0x10444434        0x0 /home/leon/riotboard/arm-2012.09/bin/../arm-none-eabi/lib//libc.a(lib_a-vfiprintf.o)
 .bss           0x10444434        0x0 /home/leon/riotboard/arm-2012.09/bin/../arm-none-eabi/lib//libc.a(lib_a-vfprintf.o)
 .bss           0x10444434        0x0 /home/leon/riotboard/arm-2012.09/bin/../arm-none-eabi/lib//libc.a(lib_a-vprintf.o)
 .bss           0x10444434        0x0 /home/leon/riotboard/arm-2012.09/bin/../arm-none-eabi/lib//libc.a(lib_a-wbuf.o)
 .bss           0x10444434        0x0 /home/leon/riotboard/arm-2012.09/bin/../arm-none-eabi/lib//libc.a(lib_a-writer.o)
 .bss           0x10444434        0x0 /home/leon/riotboard/arm-2012.09/bin/../arm-none-eabi/lib//libc.a(lib_a-wsetup.o)
 .bss           0x10444434        0x0 /home/leon/riotboard/arm-2012.09/bin/../arm-none-eabi/lib//libc.a(lib_a-abort.o)
 .bss           0x10444434        0x0 /home/leon/riotboard/arm-2012.09/bin/../arm-none-eabi/lib//libc.a(lib_a-closer.o)
 .bss           0x10444434        0x0 /home/leon/riotboard/arm-2012.09/bin/../arm-none-eabi/lib//libc.a(lib_a-ctype_.o)
 .bss           0x10444434        0x0 /home/leon/riotboard/arm-2012.09/bin/../arm-none-eabi/lib//libc.a(lib_a-dtoa.o)
 .bss           0x10444434        0x0 /home/leon/riotboard/arm-2012.09/bin/../arm-none-eabi/lib//libc.a(lib_a-fclose.o)
 .bss           0x10444434        0x0 /home/leon/riotboard/arm-2012.09/bin/../arm-none-eabi/lib//libc.a(lib_a-fputwc.o)
 .bss           0x10444434        0xc /home/leon/riotboard/arm-2012.09/bin/../arm-none-eabi/lib//libc.a(lib_a-locale.o)
                0x10444434                _PathLocale
                0x10444438                __mlocale_changed
                0x1044443c                __nlocale_changed
 .bss           0x10444440        0x0 /home/leon/riotboard/arm-2012.09/bin/../arm-none-eabi/lib//libc.a(lib_a-lseekr.o)
 .bss           0x10444440        0x0 /home/leon/riotboard/arm-2012.09/bin/../arm-none-eabi/lib//libc.a(lib_a-makebuf.o)
 .bss           0x10444440        0x0 /home/leon/riotboard/arm-2012.09/bin/../arm-none-eabi/lib//libc.a(lib_a-mprec.o)
 .bss           0x10444440        0x0 /home/leon/riotboard/arm-2012.09/bin/../arm-none-eabi/lib//libc.a(lib_a-readr.o)
 .bss           0x10444440        0x0 /home/leon/riotboard/arm-2012.09/bin/../arm-none-eabi/lib//libc.a(lib_a-reent.o)
 .bss           0x10444440        0x0 /home/leon/riotboard/arm-2012.09/bin/../arm-none-eabi/lib//libc.a(lib_a-refill.o)
 .bss           0x10444440        0x0 /home/leon/riotboard/arm-2012.09/bin/../arm-none-eabi/lib//libc.a(lib_a-s_fpclassify.o)
 .bss           0x10444440        0x0 /home/leon/riotboard/arm-2012.09/bin/../arm-none-eabi/lib//libc.a(lib_a-signal.o)
 .bss           0x10444440        0x0 /home/leon/riotboard/arm-2012.09/bin/../arm-none-eabi/lib//libc.a(lib_a-signalr.o)
 .bss           0x10444440        0x0 /home/leon/riotboard/arm-2012.09/bin/../arm-none-eabi/lib//libc.a(lib_a-strcmp.o)
 .bss           0x10444440        0x0 /home/leon/riotboard/arm-2012.09/bin/../arm-none-eabi/lib//libc.a(lib_a-svfiprintf.o)
 .bss           0x10444440        0x0 /home/leon/riotboard/arm-2012.09/bin/../arm-none-eabi/lib//libc.a(lib_a-wcrtomb.o)
 .bss           0x10444440        0x0 /home/leon/riotboard/arm-2012.09/bin/../arm-none-eabi/lib//libc.a(lib_a-wctomb_r.o)
 .bss           0x10444440        0x0 /home/leon/riotboard/arm-2012.09/bin/../arm-none-eabi/lib//libc.a(lib_a-callocr.o)
 .bss           0x10444440        0x0 /home/leon/riotboard/arm-2012.09/bin/../arm-none-eabi/lib//libc.a(lib_a-fstatr.o)
 .bss           0x10444440        0x0 /home/leon/riotboard/arm-2012.09/bin/../arm-none-eabi/lib//libc.a(lib_a-isattyr.o)
 .bss           0x10444440        0x0 /home/leon/riotboard/arm-2012.09/bin/../lib/gcc/arm-none-eabi/4.7.2//libgcc.a(_udivsi3.o)
 .bss           0x10444440        0x0 /home/leon/riotboard/arm-2012.09/bin/../lib/gcc/arm-none-eabi/4.7.2//libgcc.a(_dvmd_tls.o)
 .bss           0x10444440        0x0 /home/leon/riotboard/arm-2012.09/bin/../lib/gcc/arm-none-eabi/4.7.2//libgcc.a(_arm_addsubdf3.o)
 .bss           0x10444440        0x0 /home/leon/riotboard/arm-2012.09/bin/../lib/gcc/arm-none-eabi/4.7.2//libgcc.a(_arm_muldivdf3.o)
 .bss           0x10444440        0x0 /home/leon/riotboard/arm-2012.09/bin/../lib/gcc/arm-none-eabi/4.7.2//libgcc.a(_arm_cmpdf2.o)
 .bss           0x10444440        0x0 /home/leon/riotboard/arm-2012.09/bin/../lib/gcc/arm-none-eabi/4.7.2//libgcc.a(_arm_fixdfsi.o)
 .bss           0x10444440        0x0 /home/leon/riotboard/arm-2012.09/bin/../lib/gcc/arm-none-eabi/4.7.2//libgcc.a(_arm_addsubsf3.o)
 .bss           0x10444440        0x0 /home/leon/riotboard/arm-2012.09/bin/../lib/gcc/arm-none-eabi/4.7.2//libgcc.a(_arm_muldivsf3.o)
 .bss           0x10444440        0x0 /home/leon/riotboard/arm-2012.09/bin/../lib/gcc/arm-none-eabi/4.7.2//libgcc.a(_arm_cmpsf2.o)
 .bss           0x10444440        0x0 /home/leon/riotboard/arm-2012.09/bin/../lib/gcc/arm-none-eabi/4.7.2//libgcc.a(_arm_fixsfsi.o)
 .bss           0x10444440        0x0 /home/leon/riotboard/arm-2012.09/bin/../lib/gcc/arm-none-eabi/4.7.2//libgcc.a(_aeabi_uldivmod.o)
 .bss           0x10444440        0x0 /home/leon/riotboard/arm-2012.09/bin/../lib/gcc/arm-none-eabi/4.7.2//libgcc.a(bpabi.o)
 .bss           0x10444440        0x0 /home/leon/riotboard/arm-2012.09/bin/../lib/gcc/arm-none-eabi/4.7.2//libgcc.a(_divdi3.o)
 .bss           0x10444440        0x0 /home/leon/riotboard/arm-2012.09/bin/../lib/gcc/arm-none-eabi/4.7.2//libgcc.a(_udivdi3.o)
 .bss           0x10444440        0x0 /home/leon/riotboard/arm-2012.09/bin/../lib/gcc/arm-none-eabi/4.7.2//libgcc.a(_clzsi2.o)
 .bss           0x10444440        0x0 /home/leon/git/swp-report/iMX6_Platform_SDK/output/mx6dq/lib/libsdk.a(profile.o)
 .bss           0x10444440        0x0 /home/leon/git/swp-report/iMX6_Platform_SDK/output/mx6dq/lib/libsdk.a(armv7_cache.o)
 .bss           0x10444440        0xc /home/leon/git/swp-report/iMX6_Platform_SDK/output/mx6dq/lib/libsdk.a(runtime_support.o)
                0x10444440                __env
 .bss           0x1044444c        0x0 /home/leon/git/swp-report/iMX6_Platform_SDK/output/mx6dq/lib/libsdk.a(mma8451.o)
 .bss           0x1044444c        0x0 /home/leon/git/swp-report/iMX6_Platform_SDK/output/mx6dq/lib/libsdk.a(smd_sensor.o)
 .bss           0x1044444c        0x0 /home/leon/git/swp-report/iMX6_Platform_SDK/output/mx6dq/lib/libsdk.a(cpu_get_cores.o)
 .bss           0x1044444c       0x20 /home/leon/git/swp-report/iMX6_Platform_SDK/output/mx6dq/lib/libsdk.a(cpu_multicore.o)
 .bss           0x1044446c        0x0 /home/leon/git/swp-report/iMX6_Platform_SDK/output/mx6dq/lib/libsdk.a(cpu_workpoint.o)
 *fill*         0x1044446c       0x14 
 .bss           0x10444480     0x5060 /home/leon/git/swp-report/iMX6_Platform_SDK/output/mx6dq/lib/libsdk.a(enet_drv.o)
 .bss           0x104494e0        0x0 /home/leon/git/swp-report/iMX6_Platform_SDK/output/mx6dq/lib/libsdk.a(gpio.o)
 .bss           0x104494e0        0x0 /home/leon/git/swp-report/iMX6_Platform_SDK/output/mx6dq/lib/libsdk.a(imx6dq_gpio_map.o)
 .bss           0x104494e0        0x0 /home/leon/git/swp-report/iMX6_Platform_SDK/output/mx6dq/lib/libsdk.a(hdmi_tx.o)
 .bss           0x104494e0        0x0 /home/leon/git/swp-report/iMX6_Platform_SDK/output/mx6dq/lib/libsdk.a(hdmi_tx_audio.o)
 .bss           0x104494e0        0x0 /home/leon/git/swp-report/iMX6_Platform_SDK/output/mx6dq/lib/libsdk.a(hdmi_tx_phy.o)
 .bss           0x104494e0        0x0 /home/leon/git/swp-report/iMX6_Platform_SDK/output/mx6dq/lib/libsdk.a(imx_i2c.o)
 .bss           0x104494e0        0xc /home/leon/git/swp-report/iMX6_Platform_SDK/output/mx6dq/lib/libsdk.a(imx_i2c_slave.o)
 .bss           0x104494ec        0x0 /home/leon/git/swp-report/iMX6_Platform_SDK/output/mx6dq/lib/libsdk.a(ips_disp_panel.o)
 .bss           0x104494ec       0x10 /home/leon/git/swp-report/iMX6_Platform_SDK/output/mx6dq/lib/libsdk.a(ipu_common.o)
                0x104494ec                csi_vdi_direct_path
                0x104494f0                csi_dma_band_mode
 .bss           0x104494fc        0x0 /home/leon/git/swp-report/iMX6_Platform_SDK/output/mx6dq/lib/libsdk.a(ipu_csi.o)
 .bss           0x104494fc        0x0 /home/leon/git/swp-report/iMX6_Platform_SDK/output/mx6dq/lib/libsdk.a(ipu_dc.o)
 .bss           0x104494fc        0x0 /home/leon/git/swp-report/iMX6_Platform_SDK/output/mx6dq/lib/libsdk.a(ipu_di.o)
 .bss           0x104494fc        0x0 /home/leon/git/swp-report/iMX6_Platform_SDK/output/mx6dq/lib/libsdk.a(ipu_dmfc.o)
 .bss           0x104494fc        0x0 /home/leon/git/swp-report/iMX6_Platform_SDK/output/mx6dq/lib/libsdk.a(ipu_dp.o)
 .bss           0x104494fc        0x0 /home/leon/git/swp-report/iMX6_Platform_SDK/output/mx6dq/lib/libsdk.a(ipu_ic.o)
 .bss           0x104494fc        0x0 /home/leon/git/swp-report/iMX6_Platform_SDK/output/mx6dq/lib/libsdk.a(ipu_idmac.o)
 .bss           0x104494fc        0x0 /home/leon/git/swp-report/iMX6_Platform_SDK/output/mx6dq/lib/libsdk.a(ipu_vdi.o)
 *fill*         0x104494fc        0x4 
 .bss           0x10449500       0x40 /home/leon/git/swp-report/iMX6_Platform_SDK/output/mx6dq/lib/libsdk.a(keypad_port.o)
 .bss           0x10449540        0x0 /home/leon/git/swp-report/iMX6_Platform_SDK/output/mx6dq/lib/libsdk.a(ldb.o)
 .bss           0x10449540        0x0 /home/leon/git/swp-report/iMX6_Platform_SDK/output/mx6dq/lib/libsdk.a(ocotp.o)
 .bss           0x10449540       0x14 /home/leon/git/swp-report/iMX6_Platform_SDK/output/mx6dq/lib/libsdk.a(pcie.o)
                0x10449540                pcie_func_clk_setup
                0x10449544                pcie_func_pwr_setup
                0x10449548                pcie_func_card_pwr_setup
                0x1044954c                pcie_func_card_ref_clk_setup
                0x10449550                pcie_func_card_rst
 .bss           0x10449554        0x0 /home/leon/git/swp-report/iMX6_Platform_SDK/output/mx6dq/lib/libsdk.a(pcie_phy.o)
 .bss           0x10449554        0x0 /home/leon/git/swp-report/iMX6_Platform_SDK/output/mx6dq/lib/libsdk.a(pcie_prot.o)
 .bss           0x10449554       0xa0 /home/leon/git/swp-report/iMX6_Platform_SDK/output/mx6dq/lib/libsdk.a(pmu_driver.o)
 .bss           0x104495f4        0x8 /home/leon/git/swp-report/iMX6_Platform_SDK/output/mx6dq/lib/libsdk.a(pwm.o)
                0x104495f4                pwm_int_test_end
 .bss           0x104495fc       0x10 /home/leon/git/swp-report/iMX6_Platform_SDK/output/mx6dq/lib/libsdk.a(rtc.o)
 .bss           0x1044960c        0x8 /home/leon/git/swp-report/iMX6_Platform_SDK/output/mx6dq/lib/libsdk.a(srtc.o)
 .bss           0x10449614      0x268 /home/leon/git/swp-report/iMX6_Platform_SDK/output/mx6dq/lib/libsdk.a(sata.o)
                0x10449614                cmdhdr
                0x10449618                cmdtbl
                0x1044961c                hdd_ident
                0x1044981c                ident
 .bss           0x1044987c       0x88 /home/leon/git/swp-report/iMX6_Platform_SDK/output/mx6dq/lib/libsdk.a(sdma.o)
 .bss           0x10449904        0x0 /home/leon/git/swp-report/iMX6_Platform_SDK/output/mx6dq/lib/libsdk.a(sdma_script_info.o)
 .bss           0x10449904        0x0 /home/leon/git/swp-report/iMX6_Platform_SDK/output/mx6dq/lib/libsdk.a(snvs.o)
 .bss           0x10449904        0x0 /home/leon/git/swp-report/iMX6_Platform_SDK/output/mx6dq/lib/libsdk.a(ecspi.o)
 .bss           0x10449904       0x14 /home/leon/git/swp-report/iMX6_Platform_SDK/output/mx6dq/lib/libsdk.a(tempmon.o)
 .bss           0x10449918        0x0 /home/leon/git/swp-report/iMX6_Platform_SDK/output/mx6dq/lib/libsdk.a(gpt.o)
 .bss           0x10449918        0x0 /home/leon/git/swp-report/iMX6_Platform_SDK/output/mx6dq/lib/libsdk.a(usb_common.o)
 .bss           0x10449918        0x0 /home/leon/git/swp-report/iMX6_Platform_SDK/output/mx6dq/lib/libsdk.a(usbd_drv.o)
 .bss           0x10449918        0x0 /home/leon/git/swp-report/iMX6_Platform_SDK/output/mx6dq/lib/libsdk.a(usbh_drv.o)
 .bss           0x10449918        0x8 /home/leon/git/swp-report/iMX6_Platform_SDK/output/mx6dq/lib/libsdk.a(usdhc.o)
 .bss           0x10449920        0x0 /home/leon/git/swp-report/iMX6_Platform_SDK/output/mx6dq/lib/libsdk.a(usdhc_host.o)
 .bss           0x10449920      0x214 /home/leon/git/swp-report/iMX6_Platform_SDK/output/mx6dq/lib/libsdk.a(usdhc_mmc.o)
 .bss           0x10449b34        0x0 /home/leon/git/swp-report/iMX6_Platform_SDK/output/mx6dq/lib/libsdk.a(usdhc_sd.o)
 .bss           0x10449b34        0x0 /home/leon/git/swp-report/iMX6_Platform_SDK/output/mx6dq/lib/libsdk.a(spinlock.o)
 .bss           0x10449b34        0x0 /home/leon/git/swp-report/iMX6_Platform_SDK/output/mx6dq/lib/libsdk.a(spinlock_lock_unlock.o)
 .bss           0x10449b34        0x0 /home/leon/git/swp-report/iMX6_Platform_SDK/output/mx6dq/lib/libsdk.a(camera_profile.o)
 .bss           0x10449b34        0x0 /home/leon/git/swp-report/iMX6_Platform_SDK/output/mx6dq/lib/libsdk.a(hdmi_common.o)
 .bss           0x10449b34        0x0 /home/leon/git/swp-report/iMX6_Platform_SDK/output/mx6dq/lib/libsdk.a(mx6x_usb.o)
 .bss           0x10449b34        0x0 /home/leon/git/swp-report/iMX6_Platform_SDK/output/mx6dq/lib/libboard_smart_device_rev_a.a(board_audio.o)
 .bss           0x10449b34        0x0 /home/leon/git/swp-report/iMX6_Platform_SDK/output/mx6dq/lib/libboard_smart_device_rev_a.a(board_camera.o)
 .bss           0x10449b34        0x0 /home/leon/git/swp-report/iMX6_Platform_SDK/output/mx6dq/lib/libboard_smart_device_rev_a.a(board_display.o)
 .bss           0x10449b34        0x0 /home/leon/git/swp-report/iMX6_Platform_SDK/output/mx6dq/lib/libboard_smart_device_rev_a.a(board_hdmi.o)
 .bss           0x10449b34        0x0 /home/leon/git/swp-report/iMX6_Platform_SDK/output/mx6dq/lib/libboard_smart_device_rev_a.a(board_i2c.o)
 .bss           0x10449b34        0x0 /home/leon/git/swp-report/iMX6_Platform_SDK/output/mx6dq/lib/libboard_smart_device_rev_a.a(board_mipi.o)
 .bss           0x10449b34        0x0 /home/leon/git/swp-report/iMX6_Platform_SDK/output/mx6dq/lib/libboard_smart_device_rev_a.a(board_network.o)
 .bss           0x10449b34        0x0 /home/leon/git/swp-report/iMX6_Platform_SDK/output/mx6dq/lib/libboard_smart_device_rev_a.a(board_pcie.o)
 .bss           0x10449b34        0x0 /home/leon/git/swp-report/iMX6_Platform_SDK/output/mx6dq/lib/libboard_smart_device_rev_a.a(board_sata.o)
 .bss           0x10449b34        0x0 /home/leon/git/swp-report/iMX6_Platform_SDK/output/mx6dq/lib/libboard_smart_device_rev_a.a(board_usb.o)
 .bss           0x10449b34        0x0 /home/leon/git/swp-report/iMX6_Platform_SDK/output/mx6dq/lib/libboard_smart_device_rev_a.a(board_usdhc.o)
 .bss           0x10449b34        0x0 /home/leon/git/swp-report/iMX6_Platform_SDK/output/mx6dq/lib/libboard_smart_device_rev_a.a(ecspi_iomux_config.o)
 .bss           0x10449b34        0x0 /home/leon/git/swp-report/iMX6_Platform_SDK/output/mx6dq/lib/libboard_smart_device_rev_a.a(i2c_iomux_config.o)
 .bss           0x10449b34        0x0 /home/leon/git/swp-report/iMX6_Platform_SDK/output/mx6dq/lib/libboard_smart_device_rev_a.a(pwm_iomux_config.o)
 .bss           0x10449b34        0x0 /home/leon/git/swp-report/iMX6_Platform_SDK/output/mx6dq/lib/libboard_smart_device_rev_a.a(usdhc_iomux_config.o)
 .bss           0x10449b34        0x0 /home/leon/riotboard/arm-2012.09/bin/../arm-none-eabi/lib//libstdc++.a(pure.o)
 .bss           0x10449b34        0x0 /home/leon/riotboard/arm-2012.09/bin/../arm-none-eabi/lib//libstdc++.a(eh_terminate.o)
 .bss           0x10449b34        0x0 /home/leon/riotboard/arm-2012.09/bin/../arm-none-eabi/lib//libstdc++.a(eh_unex_handler.o)
 .bss           0x10449b34        0x0 /home/leon/riotboard/arm-2012.09/bin/../arm-none-eabi/lib//libstdc++.a(eh_call.o)
 .bss           0x10449b34        0x0 /home/leon/riotboard/arm-2012.09/bin/../arm-none-eabi/lib//libstdc++.a(eh_throw.o)
 .bss           0x10449b34        0x0 /home/leon/riotboard/arm-2012.09/bin/../arm-none-eabi/lib//libstdc++.a(eh_arm.o)
 .bss           0x10449b34        0x0 /home/leon/riotboard/arm-2012.09/bin/../arm-none-eabi/lib//libstdc++.a(eh_exception.o)
 .bss           0x10449b34        0x0 /home/leon/riotboard/arm-2012.09/bin/../arm-none-eabi/lib//libstdc++.a(eh_alloc.o)
 .bss._ZL15dependents_used
                0x10449b34        0x4 /home/leon/riotboard/arm-2012.09/bin/../arm-none-eabi/lib//libstdc++.a(eh_alloc.o)
 .bss._ZL17dependents_buffer
                0x10449b38      0x1e0 /home/leon/riotboard/arm-2012.09/bin/../arm-none-eabi/lib//libstdc++.a(eh_alloc.o)
 .bss._ZL14emergency_used
                0x10449d18        0x4 /home/leon/riotboard/arm-2012.09/bin/../arm-none-eabi/lib//libstdc++.a(eh_alloc.o)
 *fill*         0x10449d1c        0x4 
 .bss._ZL16emergency_buffer
                0x10449d20      0x800 /home/leon/riotboard/arm-2012.09/bin/../arm-none-eabi/lib//libstdc++.a(eh_alloc.o)
 .bss           0x1044a520        0x0 /home/leon/riotboard/arm-2012.09/bin/../arm-none-eabi/lib//libstdc++.a(eh_globals.o)
 .bss._ZL10eh_globals
                0x1044a520        0xc /home/leon/riotboard/arm-2012.09/bin/../arm-none-eabi/lib//libstdc++.a(eh_globals.o)
 .bss           0x1044a52c        0x0 /home/leon/riotboard/arm-2012.09/bin/../arm-none-eabi/lib//libstdc++.a(si_class_type_info.o)
 .bss           0x1044a52c        0x0 /home/leon/riotboard/arm-2012.09/bin/../arm-none-eabi/lib//libstdc++.a(eh_personality.o)
 .bss           0x1044a52c        0x0 /home/leon/riotboard/arm-2012.09/bin/../arm-none-eabi/lib//libstdc++.a(eh_term_handler.o)
 .bss           0x1044a52c        0x0 /home/leon/riotboard/arm-2012.09/bin/../arm-none-eabi/lib//libstdc++.a(eh_catch.o)
 .bss           0x1044a52c        0x0 /home/leon/riotboard/arm-2012.09/bin/../arm-none-eabi/lib//libstdc++.a(class_type_info.o)
 .bss           0x1044a52c        0x0 /home/leon/riotboard/arm-2012.09/bin/../arm-none-eabi/lib//libstdc++.a(vterminate.o)
 .bss._ZZN9__gnu_cxx27__verbose_terminate_handlerEvE11terminating
                0x1044a52c        0x1 /home/leon/riotboard/arm-2012.09/bin/../arm-none-eabi/lib//libstdc++.a(vterminate.o)
 .bss           0x1044a52d        0x0 /home/leon/riotboard/arm-2012.09/bin/../arm-none-eabi/lib//libstdc++.a(cp-demangle.o)
 .bss           0x1044a52d        0x0 /home/leon/riotboard/arm-2012.09/bin/../arm-none-eabi/lib//libstdc++.a(eh_type.o)
 .bss           0x1044a52d        0x0 /home/leon/riotboard/arm-2012.09/bin/../arm-none-eabi/lib//libstdc++.a(del_op.o)
 .bss           0x1044a52d        0x0 /home/leon/riotboard/arm-2012.09/bin/../arm-none-eabi/lib//libstdc++.a(tinfo.o)
 .bss           0x1044a52d        0x0 /home/leon/riotboard/arm-2012.09/bin/../arm-none-eabi/lib//libc.a(lib_a-fwrite.o)
 .bss           0x1044a52d        0x0 /home/leon/riotboard/arm-2012.09/bin/../arm-none-eabi/lib//libc.a(lib_a-memcmp.o)
 .bss           0x1044a52d        0x0 /home/leon/riotboard/arm-2012.09/bin/../arm-none-eabi/lib//libc.a(lib_a-strncmp.o)
 .bss           0x1044a52d        0x0 /home/leon/riotboard/arm-2012.09/bin/../arm-none-eabi/lib//libc.a(lib_a-syswrite.o)
 .bss           0x1044a52d        0x0 /home/leon/riotboard/arm-2012.09/bin/../lib/gcc/arm-none-eabi/4.7.2//libgcc.a(_divsi3.o)
 .bss           0x1044a52d        0x0 /home/leon/riotboard/arm-2012.09/bin/../lib/gcc/arm-none-eabi/4.7.2//libgcc.a(unwind-arm.o)
 .bss           0x1044a52d        0x0 /home/leon/riotboard/arm-2012.09/bin/../lib/gcc/arm-none-eabi/4.7.2//libgcc.a(libunwind.o)
 .bss           0x1044a52d        0x0 /home/leon/riotboard/arm-2012.09/bin/../lib/gcc/arm-none-eabi/4.7.2//libgcc.a(pr-support.o)
 *fill*         0x1044a52d        0x3 
 .bss           0x1044a530        0x4 /home/leon/git/swp-report/iMX6_Platform_SDK/output/mx6dq/lib/libsdk.a(max7310.o)
 *(COMMON)
 COMMON         0x1044a534        0x4 /home/leon/riotboard/arm-2012.09/bin/../arm-none-eabi/lib//libc.a(lib_a-reent.o)
                0x1044a534                errno
 *(.bss)
                0x1044a538                __bss_end__ = .

.stacks         0x1044a538     0xc000
                0x1044a538                __stacks_start = .
                0x10456538                . = (. + 0xc000)
 *fill*         0x1044a538     0xc000 
                0x10456538                __stacks_end = .
                0x10456538                top_of_stacks = .
                0x10456540                free_memory_start = ALIGN (0x20)
                0x18456538                . = (. + 0x8000000)
                0x18456538                free_memory_end = .
                0x18456538                _end = .
START GROUP
LOAD /home/leon/git/swp-report/iMX6_Platform_SDK/output/mx6dq/sdk_unit_test/smart_device_rev_a/obj/apps/common/ivt.o
LOAD /home/leon/git/swp-report/iMX6_Platform_SDK/output/mx6dq/sdk_unit_test/smart_device_rev_a/obj/apps/common/platform_init.o
LOAD /home/leon/git/swp-report/iMX6_Platform_SDK/output/mx6dq/sdk_unit_test/smart_device_rev_a/obj/apps/common/print_clock_info.o
LOAD /home/leon/git/swp-report/iMX6_Platform_SDK/output/mx6dq/sdk_unit_test/smart_device_rev_a/obj/apps/common/print_version.o
LOAD /home/leon/git/swp-report/iMX6_Platform_SDK/output/mx6dq/sdk_unit_test/smart_device_rev_a/obj/apps/sdk_unit_test/src/all_test.o
LOAD /home/leon/git/swp-report/iMX6_Platform_SDK/output/mx6dq/sdk_unit_test/smart_device_rev_a/obj/apps/sdk_unit_test/src/unit_test_main.o
LOAD /home/leon/git/swp-report/iMX6_Platform_SDK/output/mx6dq/lib/libsdk.a
LOAD /home/leon/git/swp-report/iMX6_Platform_SDK/output/mx6dq/lib/libboard_smart_device_rev_a.a
LOAD /home/leon/git/swp-report/iMX6_Platform_SDK/output/mx6dq/sdk_unit_test/smart_device_rev_a/libsdk_unit_test.a
LOAD /home/leon/riotboard/arm-2012.09/bin/../arm-none-eabi/lib//libm.a
LOAD /home/leon/riotboard/arm-2012.09/bin/../arm-none-eabi/lib//libstdc++.a
LOAD /home/leon/riotboard/arm-2012.09/bin/../arm-none-eabi/lib//libc.a
LOAD /home/leon/riotboard/arm-2012.09/bin/../lib/gcc/arm-none-eabi/4.7.2//libgcc.a
END GROUP
OUTPUT(/home/leon/git/swp-report/iMX6_Platform_SDK/output/mx6dq/sdk_unit_test/smart_device_rev_a/sdk_unit_test_ALL.elf elf32-littlearm)

.ARM.attributes
                0x00000000       0x3b
 .ARM.attributes
                0x00000000       0x30 /home/leon/riotboard/arm-2012.09/bin/../lib/gcc/arm-none-eabi/4.7.2//crtbegin.o
 .ARM.attributes
                0x00000030       0x16 /home/leon/riotboard/arm-2012.09/bin/../lib/gcc/arm-none-eabi/4.7.2//crti.o
 .ARM.attributes
                0x00000046       0x30 /home/leon/riotboard/arm-2012.09/bin/../lib/gcc/arm-none-eabi/4.7.2//crtend.o
 .ARM.attributes
                0x00000076       0x18 /home/leon/riotboard/arm-2012.09/bin/../lib/gcc/arm-none-eabi/4.7.2//crtn.o
 .ARM.attributes
                0x0000008e       0x39 /home/leon/git/swp-report/iMX6_Platform_SDK/output/mx6dq/sdk_unit_test/smart_device_rev_a/obj/apps/common/ivt.o
 .ARM.attributes
                0x000000c7       0x39 /home/leon/git/swp-report/iMX6_Platform_SDK/output/mx6dq/sdk_unit_test/smart_device_rev_a/obj/apps/common/platform_init.o
 .ARM.attributes
                0x00000100       0x39 /home/leon/git/swp-report/iMX6_Platform_SDK/output/mx6dq/sdk_unit_test/smart_device_rev_a/obj/apps/common/print_clock_info.o
 .ARM.attributes
                0x00000139       0x39 /home/leon/git/swp-report/iMX6_Platform_SDK/output/mx6dq/sdk_unit_test/smart_device_rev_a/obj/apps/common/print_version.o
 .ARM.attributes
                0x00000172       0x39 /home/leon/git/swp-report/iMX6_Platform_SDK/output/mx6dq/sdk_unit_test/smart_device_rev_a/obj/apps/sdk_unit_test/src/all_test.o
 .ARM.attributes
                0x000001ab       0x39 /home/leon/git/swp-report/iMX6_Platform_SDK/output/mx6dq/sdk_unit_test/smart_device_rev_a/obj/apps/sdk_unit_test/src/unit_test_main.o
 .ARM.attributes
                0x000001e4       0x39 /home/leon/git/swp-report/iMX6_Platform_SDK/output/mx6dq/lib/libsdk.a(ccm_pll.o)
 .ARM.attributes
                0x0000021d       0x16 /home/leon/git/swp-report/iMX6_Platform_SDK/output/mx6dq/lib/libsdk.a(cortexA9.o)
 .ARM.attributes
                0x00000233       0x39 /home/leon/git/swp-report/iMX6_Platform_SDK/output/mx6dq/lib/libsdk.a(gic.o)
 .ARM.attributes
                0x0000026c       0x39 /home/leon/git/swp-report/iMX6_Platform_SDK/output/mx6dq/lib/libsdk.a(mmu.o)
 .ARM.attributes
                0x000002a5       0x16 /home/leon/git/swp-report/iMX6_Platform_SDK/output/mx6dq/lib/libsdk.a(startup.o)
 .ARM.attributes
                0x000002bb       0x14 /home/leon/git/swp-report/iMX6_Platform_SDK/output/mx6dq/lib/libsdk.a(vectors.o)
 .ARM.attributes
                0x000002cf       0x39 /home/leon/git/swp-report/iMX6_Platform_SDK/output/mx6dq/lib/libsdk.a(menu.o)
 .ARM.attributes
                0x00000308       0x39 /home/leon/git/swp-report/iMX6_Platform_SDK/output/mx6dq/lib/libsdk.a(sdk_version.o)
 .ARM.attributes
                0x00000341       0x39 /home/leon/git/swp-report/iMX6_Platform_SDK/output/mx6dq/lib/libsdk.a(system_util.o)
 .ARM.attributes
                0x0000037a       0x39 /home/leon/git/swp-report/iMX6_Platform_SDK/output/mx6dq/lib/libsdk.a(text_color.o)
 .ARM.attributes
                0x000003b3       0x39 /home/leon/git/swp-report/iMX6_Platform_SDK/output/mx6dq/lib/libsdk.a(board_id.o)
 .ARM.attributes
                0x000003ec       0x39 /home/leon/git/swp-report/iMX6_Platform_SDK/output/mx6dq/lib/libsdk.a(timer.o)
 .ARM.attributes
                0x00000425       0x39 /home/leon/git/swp-report/iMX6_Platform_SDK/output/mx6dq/lib/libsdk.a(imx_uart.o)
 .ARM.attributes
                0x0000045e       0x14 /home/leon/git/swp-report/iMX6_Platform_SDK/output/mx6dq/lib/libsdk.a(arm_abort.o)
 .ARM.attributes
                0x00000472       0x39 /home/leon/git/swp-report/iMX6_Platform_SDK/output/mx6dq/lib/libsdk.a(interrupt.o)
 .ARM.attributes
                0x000004ab       0x39 /home/leon/git/swp-report/iMX6_Platform_SDK/output/mx6dq/lib/libsdk.a(epit.o)
 .ARM.attributes
                0x000004e4       0x39 /home/leon/git/swp-report/iMX6_Platform_SDK/output/mx6dq/lib/libsdk.a(abort_handler.o)
 .ARM.attributes
                0x0000051d       0x39 /home/leon/git/swp-report/iMX6_Platform_SDK/output/mx6dq/lib/libboard_smart_device_rev_a.a(board_io_expanders.o)
 .ARM.attributes
                0x00000556       0x39 /home/leon/git/swp-report/iMX6_Platform_SDK/output/mx6dq/lib/libboard_smart_device_rev_a.a(hardware_modules.o)
 .ARM.attributes
                0x0000058f       0x39 /home/leon/git/swp-report/iMX6_Platform_SDK/output/mx6dq/lib/libboard_smart_device_rev_a.a(dcd.o)
 .ARM.attributes
                0x000005c8       0x39 /home/leon/git/swp-report/iMX6_Platform_SDK/output/mx6dq/lib/libboard_smart_device_rev_a.a(uart_iomux_config.o)
 .ARM.attributes
                0x00000601       0x39 /home/leon/git/swp-report/iMX6_Platform_SDK/output/mx6dq/lib/libboard_smart_device_rev_a.a(iomux_config.o)
 .ARM.attributes
                0x0000063a       0x39 /home/leon/git/swp-report/iMX6_Platform_SDK/output/mx6dq/lib/libboard_smart_device_rev_a.a(ipu1_iomux_config.o)
 .ARM.attributes
                0x00000673       0x39 /home/leon/git/swp-report/iMX6_Platform_SDK/output/mx6dq/lib/libboard_smart_device_rev_a.a(kpp_iomux_config.o)
 .ARM.attributes
                0x000006ac       0x39 /home/leon/git/swp-report/iMX6_Platform_SDK/output/mx6dq/lib/libboard_smart_device_rev_a.a(mmdc_iomux_config.o)
 .ARM.attributes
                0x000006e5       0x39 /home/leon/git/swp-report/iMX6_Platform_SDK/output/mx6dq/lib/libboard_smart_device_rev_a.a(pwm1_iomux_config.o)
 .ARM.attributes
                0x0000071e       0x39 /home/leon/git/swp-report/iMX6_Platform_SDK/output/mx6dq/lib/libboard_smart_device_rev_a.a(sjc_iomux_config.o)
 .ARM.attributes
                0x00000757       0x39 /home/leon/git/swp-report/iMX6_Platform_SDK/output/mx6dq/lib/libboard_smart_device_rev_a.a(uart1_iomux_config.o)
 .ARM.attributes
                0x00000790       0x39 /home/leon/git/swp-report/iMX6_Platform_SDK/output/mx6dq/lib/libboard_smart_device_rev_a.a(usdhc2_iomux_config.o)
 .ARM.attributes
                0x000007c9       0x39 /home/leon/git/swp-report/iMX6_Platform_SDK/output/mx6dq/lib/libboard_smart_device_rev_a.a(usdhc3_iomux_config.o)
 .ARM.attributes
                0x00000802       0x39 /home/leon/git/swp-report/iMX6_Platform_SDK/output/mx6dq/lib/libboard_smart_device_rev_a.a(usdhc4_iomux_config.o)
 .ARM.attributes
                0x0000083b       0x39 /home/leon/git/swp-report/iMX6_Platform_SDK/output/mx6dq/lib/libboard_smart_device_rev_a.a(audmux_iomux_config.o)
 .ARM.attributes
                0x00000874       0x39 /home/leon/git/swp-report/iMX6_Platform_SDK/output/mx6dq/lib/libboard_smart_device_rev_a.a(ccm_iomux_config.o)
 .ARM.attributes
                0x000008ad       0x39 /home/leon/git/swp-report/iMX6_Platform_SDK/output/mx6dq/lib/libboard_smart_device_rev_a.a(ecspi1_iomux_config.o)
 .ARM.attributes
                0x000008e6       0x39 /home/leon/git/swp-report/iMX6_Platform_SDK/output/mx6dq/lib/libboard_smart_device_rev_a.a(enet_iomux_config.o)
 .ARM.attributes
                0x0000091f       0x39 /home/leon/git/swp-report/iMX6_Platform_SDK/output/mx6dq/lib/libboard_smart_device_rev_a.a(flexcan1_iomux_config.o)
 .ARM.attributes
                0x00000958       0x39 /home/leon/git/swp-report/iMX6_Platform_SDK/output/mx6dq/lib/libboard_smart_device_rev_a.a(gpio1_iomux_config.o)
 .ARM.attributes
                0x00000991       0x39 /home/leon/git/swp-report/iMX6_Platform_SDK/output/mx6dq/lib/libboard_smart_device_rev_a.a(gpio2_iomux_config.o)
 .ARM.attributes
                0x000009ca       0x39 /home/leon/git/swp-report/iMX6_Platform_SDK/output/mx6dq/lib/libboard_smart_device_rev_a.a(gpio3_iomux_config.o)
 .ARM.attributes
                0x00000a03       0x39 /home/leon/git/swp-report/iMX6_Platform_SDK/output/mx6dq/lib/libboard_smart_device_rev_a.a(gpio4_iomux_config.o)
 .ARM.attributes
                0x00000a3c       0x39 /home/leon/git/swp-report/iMX6_Platform_SDK/output/mx6dq/lib/libboard_smart_device_rev_a.a(gpio5_iomux_config.o)
 .ARM.attributes
                0x00000a75       0x39 /home/leon/git/swp-report/iMX6_Platform_SDK/output/mx6dq/lib/libboard_smart_device_rev_a.a(gpio6_iomux_config.o)
 .ARM.attributes
                0x00000aae       0x39 /home/leon/git/swp-report/iMX6_Platform_SDK/output/mx6dq/lib/libboard_smart_device_rev_a.a(gpio7_iomux_config.o)
 .ARM.attributes
                0x00000ae7       0x39 /home/leon/git/swp-report/iMX6_Platform_SDK/output/mx6dq/lib/libboard_smart_device_rev_a.a(gps_iomux_config.o)
 .ARM.attributes
                0x00000b20       0x39 /home/leon/git/swp-report/iMX6_Platform_SDK/output/mx6dq/lib/libboard_smart_device_rev_a.a(i2c1_iomux_config.o)
 .ARM.attributes
                0x00000b59       0x39 /home/leon/git/swp-report/iMX6_Platform_SDK/output/mx6dq/lib/libboard_smart_device_rev_a.a(i2c2_iomux_config.o)
 .ARM.attributes
                0x00000b92       0x39 /home/leon/git/swp-report/iMX6_Platform_SDK/output/mx6dq/lib/libboard_smart_device_rev_a.a(i2c3_iomux_config.o)
 .ARM.attributes
                0x00000bcb       0x39 /home/leon/git/swp-report/iMX6_Platform_SDK/output/mx6dq/sdk_unit_test/smart_device_rev_a/libsdk_unit_test.a(cpu_wp_test.o)
 .ARM.attributes
                0x00000c04       0x39 /home/leon/git/swp-report/iMX6_Platform_SDK/output/mx6dq/sdk_unit_test/smart_device_rev_a/libsdk_unit_test.a(multicore_test.o)
 .ARM.attributes
                0x00000c3d       0x39 /home/leon/git/swp-report/iMX6_Platform_SDK/output/mx6dq/sdk_unit_test/smart_device_rev_a/libsdk_unit_test.a(audio_test.o)
 .ARM.attributes
                0x00000c76       0x14 /home/leon/git/swp-report/iMX6_Platform_SDK/output/mx6dq/sdk_unit_test/smart_device_rev_a/libsdk_unit_test.a(wav_file.o)
 .ARM.attributes
                0x00000c8a       0x39 /home/leon/git/swp-report/iMX6_Platform_SDK/output/mx6dq/sdk_unit_test/smart_device_rev_a/libsdk_unit_test.a(gic_test.o)
 .ARM.attributes
                0x00000cc3       0x39 /home/leon/git/swp-report/iMX6_Platform_SDK/output/mx6dq/sdk_unit_test/smart_device_rev_a/libsdk_unit_test.a(ocotp_test.o)
 .ARM.attributes
                0x00000cfc       0x39 /home/leon/git/swp-report/iMX6_Platform_SDK/output/mx6dq/sdk_unit_test/smart_device_rev_a/libsdk_unit_test.a(i2c_test.o)
 .ARM.attributes
                0x00000d35       0x39 /home/leon/git/swp-report/iMX6_Platform_SDK/output/mx6dq/sdk_unit_test/smart_device_rev_a/libsdk_unit_test.a(imx6_i2c_device.o)
 .ARM.attributes
                0x00000d6e       0x39 /home/leon/git/swp-report/iMX6_Platform_SDK/output/mx6dq/sdk_unit_test/smart_device_rev_a/libsdk_unit_test.a(snvs_rtc_test.o)
 .ARM.attributes
                0x00000da7       0x39 /home/leon/git/swp-report/iMX6_Platform_SDK/output/mx6dq/sdk_unit_test/smart_device_rev_a/libsdk_unit_test.a(snvs_srtc_test.o)
 .ARM.attributes
                0x00000de0       0x39 /home/leon/git/swp-report/iMX6_Platform_SDK/output/mx6dq/sdk_unit_test/smart_device_rev_a/libsdk_unit_test.a(tempmon_test.o)
 .ARM.attributes
                0x00000e19       0x39 /home/leon/git/swp-report/iMX6_Platform_SDK/output/mx6dq/sdk_unit_test/smart_device_rev_a/libsdk_unit_test.a(sdma_test.o)
 .ARM.attributes
                0x00000e52       0x39 /home/leon/git/swp-report/iMX6_Platform_SDK/output/mx6dq/sdk_unit_test/smart_device_rev_a/libsdk_unit_test.a(spi_lpb.o)
 .ARM.attributes
                0x00000e8b       0x39 /home/leon/git/swp-report/iMX6_Platform_SDK/output/mx6dq/sdk_unit_test/smart_device_rev_a/libsdk_unit_test.a(uart_loopback.o)
 .ARM.attributes
                0x00000ec4       0x39 /home/leon/git/swp-report/iMX6_Platform_SDK/output/mx6dq/sdk_unit_test/smart_device_rev_a/libsdk_unit_test.a(uart_test.o)
 .ARM.attributes
                0x00000efd       0x39 /home/leon/git/swp-report/iMX6_Platform_SDK/output/mx6dq/sdk_unit_test/smart_device_rev_a/libsdk_unit_test.a(epit_test.o)
 .ARM.attributes
                0x00000f36       0x39 /home/leon/git/swp-report/iMX6_Platform_SDK/output/mx6dq/sdk_unit_test/smart_device_rev_a/libsdk_unit_test.a(gpt_test.o)
 .ARM.attributes
                0x00000f6f       0x39 /home/leon/git/swp-report/iMX6_Platform_SDK/output/mx6dq/sdk_unit_test/smart_device_rev_a/libsdk_unit_test.a(timer_test.o)
 .ARM.attributes
                0x00000fa8       0x39 /home/leon/git/swp-report/iMX6_Platform_SDK/output/mx6dq/sdk_unit_test/smart_device_rev_a/libsdk_unit_test.a(usdhc_test.o)
 .ARM.attributes
                0x00000fe1       0x39 /home/leon/git/swp-report/iMX6_Platform_SDK/output/mx6dq/sdk_unit_test/smart_device_rev_a/libsdk_unit_test.a(pwm_test.o)
 .ARM.attributes
                0x0000101a       0x39 /home/leon/git/swp-report/iMX6_Platform_SDK/output/mx6dq/sdk_unit_test/smart_device_rev_a/libsdk_unit_test.a(watchdog_test.o)
 .ARM.attributes
                0x00001053       0x39 /home/leon/git/swp-report/iMX6_Platform_SDK/output/mx6dq/sdk_unit_test/smart_device_rev_a/libsdk_unit_test.a(hdmi_test.o)
 .ARM.attributes
                0x0000108c       0x39 /home/leon/git/swp-report/iMX6_Platform_SDK/output/mx6dq/sdk_unit_test/smart_device_rev_a/libsdk_unit_test.a(ips_display.o)
 .ARM.attributes
                0x000010c5       0x39 /home/leon/git/swp-report/iMX6_Platform_SDK/output/mx6dq/sdk_unit_test/smart_device_rev_a/libsdk_unit_test.a(ips_test.o)
 .ARM.attributes
                0x000010fe       0x39 /home/leon/git/swp-report/iMX6_Platform_SDK/output/mx6dq/sdk_unit_test/smart_device_rev_a/libsdk_unit_test.a(ipu_image.o)
 .ARM.attributes
                0x00001137       0x39 /home/leon/git/swp-report/iMX6_Platform_SDK/output/mx6dq/sdk_unit_test/smart_device_rev_a/libsdk_unit_test.a(keypad_test.o)
 .ARM.attributes
                0x00001170       0x39 /home/leon/git/swp-report/iMX6_Platform_SDK/output/mx6dq/sdk_unit_test/smart_device_rev_a/libsdk_unit_test.a(camera_test.o)
 .ARM.attributes
                0x000011a9       0x39 /home/leon/git/swp-report/iMX6_Platform_SDK/output/mx6dq/sdk_unit_test/smart_device_rev_a/libsdk_unit_test.a(csi_test_mode.o)
 .ARM.attributes
                0x000011e2       0x39 /home/leon/git/swp-report/iMX6_Platform_SDK/output/mx6dq/sdk_unit_test/smart_device_rev_a/libsdk_unit_test.a(sensor_capture.o)
 .ARM.attributes
                0x0000121b       0x39 /home/leon/git/swp-report/iMX6_Platform_SDK/output/mx6dq/sdk_unit_test/smart_device_rev_a/libsdk_unit_test.a(pcie_test_rc.o)
 .ARM.attributes
                0x00001254       0x39 /home/leon/git/swp-report/iMX6_Platform_SDK/output/mx6dq/sdk_unit_test/smart_device_rev_a/libsdk_unit_test.a(usb_test.o)
 .ARM.attributes
                0x0000128d       0x39 /home/leon/git/swp-report/iMX6_Platform_SDK/output/mx6dq/sdk_unit_test/smart_device_rev_a/libsdk_unit_test.a(enet_test.o)
 .ARM.attributes
                0x000012c6       0x39 /home/leon/git/swp-report/iMX6_Platform_SDK/output/mx6dq/sdk_unit_test/smart_device_rev_a/libsdk_unit_test.a(spi_test.o)
 .ARM.attributes
                0x000012ff       0x39 /home/leon/git/swp-report/iMX6_Platform_SDK/output/mx6dq/sdk_unit_test/smart_device_rev_a/libsdk_unit_test.a(accelerometer_test.o)
 .ARM.attributes
                0x00001338       0x39 /home/leon/git/swp-report/iMX6_Platform_SDK/output/mx6dq/sdk_unit_test/smart_device_rev_a/libsdk_unit_test.a(sata_test.o)
 .ARM.attributes
                0x00001371       0x39 /home/leon/git/swp-report/iMX6_Platform_SDK/output/mx6dq/sdk_unit_test/smart_device_rev_a/libsdk_unit_test.a(at24cxx.o)
 .ARM.attributes
                0x000013aa       0x39 /home/leon/git/swp-report/iMX6_Platform_SDK/output/mx6dq/sdk_unit_test/smart_device_rev_a/libsdk_unit_test.a(mem_2_mem.o)
 .ARM.attributes
                0x000013e3       0x39 /home/leon/git/swp-report/iMX6_Platform_SDK/output/mx6dq/sdk_unit_test/smart_device_rev_a/libsdk_unit_test.a(pwm_output.o)
 .ARM.attributes
                0x0000141c       0x39 /home/leon/git/swp-report/iMX6_Platform_SDK/output/mx6dq/sdk_unit_test/smart_device_rev_a/libsdk_unit_test.a(init_dma_data.o)
 .ARM.attributes
                0x00001455       0x39 /home/leon/git/swp-report/iMX6_Platform_SDK/output/mx6dq/sdk_unit_test/smart_device_rev_a/libsdk_unit_test.a(ips_combiner.o)
 .ARM.attributes
                0x0000148e       0x39 /home/leon/git/swp-report/iMX6_Platform_SDK/output/mx6dq/sdk_unit_test/smart_device_rev_a/libsdk_unit_test.a(ips_csc.o)
 .ARM.attributes
                0x000014c7       0x39 /home/leon/git/swp-report/iMX6_Platform_SDK/output/mx6dq/sdk_unit_test/smart_device_rev_a/libsdk_unit_test.a(ips_resize.o)
 .ARM.attributes
                0x00001500       0x39 /home/leon/git/swp-report/iMX6_Platform_SDK/output/mx6dq/sdk_unit_test/smart_device_rev_a/libsdk_unit_test.a(ips_rotate.o)
 .ARM.attributes
                0x00001539       0x39 /home/leon/git/swp-report/iMX6_Platform_SDK/output/mx6dq/sdk_unit_test/smart_device_rev_a/libsdk_unit_test.a(usb0_device_mouse_test.o)
 .ARM.attributes
                0x00001572       0x39 /home/leon/git/swp-report/iMX6_Platform_SDK/output/mx6dq/sdk_unit_test/smart_device_rev_a/libsdk_unit_test.a(usb0_host_test.o)
 .ARM.attributes
                0x000015ab       0x39 /home/leon/git/swp-report/iMX6_Platform_SDK/output/mx6dq/sdk_unit_test/smart_device_rev_a/libsdk_unit_test.a(usb0_host_testmodes_test.o)
 .ARM.attributes
                0x000015e4       0x39 /home/leon/git/swp-report/iMX6_Platform_SDK/output/mx6dq/sdk_unit_test/smart_device_rev_a/libsdk_unit_test.a(spi_nor_numonyx.o)
 .ARM.attributes
                0x0000161d       0x30 /home/leon/riotboard/arm-2012.09/bin/../arm-none-eabi/lib//libm.a(lib_a-sf_cos.o)
 .ARM.attributes
                0x0000164d       0x30 /home/leon/riotboard/arm-2012.09/bin/../arm-none-eabi/lib//libm.a(lib_a-sf_fabs.o)
 .ARM.attributes
                0x0000167d       0x30 /home/leon/riotboard/arm-2012.09/bin/../arm-none-eabi/lib//libm.a(lib_a-sf_modf.o)
 .ARM.attributes
                0x000016ad       0x30 /home/leon/riotboard/arm-2012.09/bin/../arm-none-eabi/lib//libm.a(lib_a-sf_sin.o)
 .ARM.attributes
                0x000016dd       0x30 /home/leon/riotboard/arm-2012.09/bin/../arm-none-eabi/lib//libm.a(lib_a-ef_rem_pio2.o)
 .ARM.attributes
                0x0000170d       0x30 /home/leon/riotboard/arm-2012.09/bin/../arm-none-eabi/lib//libm.a(lib_a-kf_cos.o)
 .ARM.attributes
                0x0000173d       0x30 /home/leon/riotboard/arm-2012.09/bin/../arm-none-eabi/lib//libm.a(lib_a-kf_rem_pio2.o)
 .ARM.attributes
                0x0000176d       0x30 /home/leon/riotboard/arm-2012.09/bin/../arm-none-eabi/lib//libm.a(lib_a-kf_sin.o)
 .ARM.attributes
                0x0000179d       0x30 /home/leon/riotboard/arm-2012.09/bin/../arm-none-eabi/lib//libm.a(lib_a-sf_floor.o)
 .ARM.attributes
                0x000017cd       0x30 /home/leon/riotboard/arm-2012.09/bin/../arm-none-eabi/lib//libm.a(lib_a-sf_scalbn.o)
 .ARM.attributes
                0x000017fd       0x30 /home/leon/riotboard/arm-2012.09/bin/../arm-none-eabi/lib//libm.a(lib_a-sf_copysign.o)
 .ARM.attributes
                0x0000182d       0x30 /home/leon/riotboard/arm-2012.09/bin/../arm-none-eabi/lib//libc.a(lib_a-assert.o)
 .ARM.attributes
                0x0000185d       0x30 /home/leon/riotboard/arm-2012.09/bin/../arm-none-eabi/lib//libc.a(lib_a-bzero.o)
 .ARM.attributes
                0x0000188d       0x30 /home/leon/riotboard/arm-2012.09/bin/../arm-none-eabi/lib//libc.a(lib_a-fflush.o)
 .ARM.attributes
                0x000018bd       0x30 /home/leon/riotboard/arm-2012.09/bin/../arm-none-eabi/lib//libc.a(lib_a-findfp.o)
 .ARM.attributes
                0x000018ed       0x30 /home/leon/riotboard/arm-2012.09/bin/../arm-none-eabi/lib//libc.a(lib_a-fiprintf.o)
 .ARM.attributes
                0x0000191d       0x30 /home/leon/riotboard/arm-2012.09/bin/../arm-none-eabi/lib//libc.a(lib_a-fputc.o)
 .ARM.attributes
                0x0000194d       0x30 /home/leon/riotboard/arm-2012.09/bin/../arm-none-eabi/lib//libc.a(lib_a-fputs.o)
 .ARM.attributes
                0x0000197d       0x30 /home/leon/riotboard/arm-2012.09/bin/../arm-none-eabi/lib//libc.a(lib_a-freer.o)
 .ARM.attributes
                0x000019ad       0x30 /home/leon/riotboard/arm-2012.09/bin/../arm-none-eabi/lib//libc.a(lib_a-fvwrite.o)
 .ARM.attributes
                0x000019dd       0x30 /home/leon/riotboard/arm-2012.09/bin/../arm-none-eabi/lib//libc.a(lib_a-fwalk.o)
 .ARM.attributes
                0x00001a0d       0x30 /home/leon/riotboard/arm-2012.09/bin/../arm-none-eabi/lib//libc.a(lib_a-impure.o)
 .ARM.attributes
                0x00001a3d       0x30 /home/leon/riotboard/arm-2012.09/bin/../arm-none-eabi/lib//libc.a(lib_a-init.o)
 .ARM.attributes
                0x00001a6d       0x30 /home/leon/riotboard/arm-2012.09/bin/../arm-none-eabi/lib//libc.a(lib_a-malloc.o)
 .ARM.attributes
                0x00001a9d       0x30 /home/leon/riotboard/arm-2012.09/bin/../arm-none-eabi/lib//libc.a(lib_a-mallocr.o)
 .ARM.attributes
                0x00001acd       0x30 /home/leon/riotboard/arm-2012.09/bin/../arm-none-eabi/lib//libc.a(lib_a-memchr.o)
 .ARM.attributes
                0x00001afd       0x30 /home/leon/riotboard/arm-2012.09/bin/../arm-none-eabi/lib//libc.a(lib_a-memcpy.o)
 .ARM.attributes
                0x00001b2d       0x30 /home/leon/riotboard/arm-2012.09/bin/../arm-none-eabi/lib//libc.a(lib_a-memmove.o)
 .ARM.attributes
                0x00001b5d       0x30 /home/leon/riotboard/arm-2012.09/bin/../arm-none-eabi/lib//libc.a(lib_a-memset.o)
 .ARM.attributes
                0x00001b8d       0x30 /home/leon/riotboard/arm-2012.09/bin/../arm-none-eabi/lib//libc.a(lib_a-mlock.o)
 .ARM.attributes
                0x00001bbd       0x30 /home/leon/riotboard/arm-2012.09/bin/../arm-none-eabi/lib//libc.a(lib_a-printf.o)
 .ARM.attributes
                0x00001bed       0x30 /home/leon/riotboard/arm-2012.09/bin/../arm-none-eabi/lib//libc.a(lib_a-putc.o)
 .ARM.attributes
                0x00001c1d       0x30 /home/leon/riotboard/arm-2012.09/bin/../arm-none-eabi/lib//libc.a(lib_a-realloc.o)
 .ARM.attributes
                0x00001c4d       0x30 /home/leon/riotboard/arm-2012.09/bin/../arm-none-eabi/lib//libc.a(lib_a-reallocr.o)
 .ARM.attributes
                0x00001c7d       0x30 /home/leon/riotboard/arm-2012.09/bin/../arm-none-eabi/lib//libc.a(lib_a-rget.o)
 .ARM.attributes
                0x00001cad       0x30 /home/leon/riotboard/arm-2012.09/bin/../arm-none-eabi/lib//libc.a(lib_a-sbrkr.o)
 .ARM.attributes
                0x00001cdd       0x30 /home/leon/riotboard/arm-2012.09/bin/../arm-none-eabi/lib//libc.a(lib_a-sprintf.o)
 .ARM.attributes
                0x00001d0d       0x30 /home/leon/riotboard/arm-2012.09/bin/../arm-none-eabi/lib//libc.a(lib_a-stdio.o)
 .ARM.attributes
                0x00001d3d       0x30 /home/leon/riotboard/arm-2012.09/bin/../arm-none-eabi/lib//libc.a(lib_a-strlen.o)
 .ARM.attributes
                0x00001d6d       0x30 /home/leon/riotboard/arm-2012.09/bin/../arm-none-eabi/lib//libc.a(lib_a-strncasecmp.o)
 .ARM.attributes
                0x00001d9d       0x30 /home/leon/riotboard/arm-2012.09/bin/../arm-none-eabi/lib//libc.a(lib_a-svfprintf.o)
 .ARM.attributes
                0x00001dcd       0x30 /home/leon/riotboard/arm-2012.09/bin/../arm-none-eabi/lib//libc.a(lib_a-vfiprintf.o)
 .ARM.attributes
                0x00001dfd       0x30 /home/leon/riotboard/arm-2012.09/bin/../arm-none-eabi/lib//libc.a(lib_a-vfprintf.o)
 .ARM.attributes
                0x00001e2d       0x30 /home/leon/riotboard/arm-2012.09/bin/../arm-none-eabi/lib//libc.a(lib_a-vprintf.o)
 .ARM.attributes
                0x00001e5d       0x30 /home/leon/riotboard/arm-2012.09/bin/../arm-none-eabi/lib//libc.a(lib_a-wbuf.o)
 .ARM.attributes
                0x00001e8d       0x30 /home/leon/riotboard/arm-2012.09/bin/../arm-none-eabi/lib//libc.a(lib_a-writer.o)
 .ARM.attributes
                0x00001ebd       0x30 /home/leon/riotboard/arm-2012.09/bin/../arm-none-eabi/lib//libc.a(lib_a-wsetup.o)
 .ARM.attributes
                0x00001eed       0x30 /home/leon/riotboard/arm-2012.09/bin/../arm-none-eabi/lib//libc.a(lib_a-abort.o)
 .ARM.attributes
                0x00001f1d       0x30 /home/leon/riotboard/arm-2012.09/bin/../arm-none-eabi/lib//libc.a(lib_a-closer.o)
 .ARM.attributes
                0x00001f4d       0x30 /home/leon/riotboard/arm-2012.09/bin/../arm-none-eabi/lib//libc.a(lib_a-ctype_.o)
 .ARM.attributes
                0x00001f7d       0x30 /home/leon/riotboard/arm-2012.09/bin/../arm-none-eabi/lib//libc.a(lib_a-dtoa.o)
 .ARM.attributes
                0x00001fad       0x30 /home/leon/riotboard/arm-2012.09/bin/../arm-none-eabi/lib//libc.a(lib_a-fclose.o)
 .ARM.attributes
                0x00001fdd       0x30 /home/leon/riotboard/arm-2012.09/bin/../arm-none-eabi/lib//libc.a(lib_a-fputwc.o)
 .ARM.attributes
                0x0000200d       0x30 /home/leon/riotboard/arm-2012.09/bin/../arm-none-eabi/lib//libc.a(lib_a-locale.o)
 .ARM.attributes
                0x0000203d       0x30 /home/leon/riotboard/arm-2012.09/bin/../arm-none-eabi/lib//libc.a(lib_a-lseekr.o)
 .ARM.attributes
                0x0000206d       0x30 /home/leon/riotboard/arm-2012.09/bin/../arm-none-eabi/lib//libc.a(lib_a-makebuf.o)
 .ARM.attributes
                0x0000209d       0x30 /home/leon/riotboard/arm-2012.09/bin/../arm-none-eabi/lib//libc.a(lib_a-mprec.o)
 .ARM.attributes
                0x000020cd       0x30 /home/leon/riotboard/arm-2012.09/bin/../arm-none-eabi/lib//libc.a(lib_a-readr.o)
 .ARM.attributes
                0x000020fd       0x30 /home/leon/riotboard/arm-2012.09/bin/../arm-none-eabi/lib//libc.a(lib_a-reent.o)
 .ARM.attributes
                0x0000212d       0x30 /home/leon/riotboard/arm-2012.09/bin/../arm-none-eabi/lib//libc.a(lib_a-refill.o)
 .ARM.attributes
                0x0000215d       0x30 /home/leon/riotboard/arm-2012.09/bin/../arm-none-eabi/lib//libc.a(lib_a-s_fpclassify.o)
 .ARM.attributes
                0x0000218d       0x30 /home/leon/riotboard/arm-2012.09/bin/../arm-none-eabi/lib//libc.a(lib_a-signal.o)
 .ARM.attributes
                0x000021bd       0x30 /home/leon/riotboard/arm-2012.09/bin/../arm-none-eabi/lib//libc.a(lib_a-signalr.o)
 .ARM.attributes
                0x000021ed       0x30 /home/leon/riotboard/arm-2012.09/bin/../arm-none-eabi/lib//libc.a(lib_a-strcmp.o)
 .ARM.attributes
                0x0000221d       0x30 /home/leon/riotboard/arm-2012.09/bin/../arm-none-eabi/lib//libc.a(lib_a-svfiprintf.o)
 .ARM.attributes
                0x0000224d       0x30 /home/leon/riotboard/arm-2012.09/bin/../arm-none-eabi/lib//libc.a(lib_a-wcrtomb.o)
 .ARM.attributes
                0x0000227d       0x30 /home/leon/riotboard/arm-2012.09/bin/../arm-none-eabi/lib//libc.a(lib_a-wctomb_r.o)
 .ARM.attributes
                0x000022ad       0x30 /home/leon/riotboard/arm-2012.09/bin/../arm-none-eabi/lib//libc.a(lib_a-callocr.o)
 .ARM.attributes
                0x000022dd       0x30 /home/leon/riotboard/arm-2012.09/bin/../arm-none-eabi/lib//libc.a(lib_a-fstatr.o)
 .ARM.attributes
                0x0000230d       0x30 /home/leon/riotboard/arm-2012.09/bin/../arm-none-eabi/lib//libc.a(lib_a-isattyr.o)
 .ARM.attributes
                0x0000233d       0x18 /home/leon/riotboard/arm-2012.09/bin/../lib/gcc/arm-none-eabi/4.7.2//libgcc.a(_udivsi3.o)
 .ARM.attributes
                0x00002355       0x18 /home/leon/riotboard/arm-2012.09/bin/../lib/gcc/arm-none-eabi/4.7.2//libgcc.a(_dvmd_tls.o)
 .ARM.attributes
                0x0000236d       0x18 /home/leon/riotboard/arm-2012.09/bin/../lib/gcc/arm-none-eabi/4.7.2//libgcc.a(_arm_addsubdf3.o)
 .ARM.attributes
                0x00002385       0x18 /home/leon/riotboard/arm-2012.09/bin/../lib/gcc/arm-none-eabi/4.7.2//libgcc.a(_arm_muldivdf3.o)
 .ARM.attributes
                0x0000239d       0x18 /home/leon/riotboard/arm-2012.09/bin/../lib/gcc/arm-none-eabi/4.7.2//libgcc.a(_arm_cmpdf2.o)
 .ARM.attributes
                0x000023b5       0x18 /home/leon/riotboard/arm-2012.09/bin/../lib/gcc/arm-none-eabi/4.7.2//libgcc.a(_arm_fixdfsi.o)
 .ARM.attributes
                0x000023cd       0x18 /home/leon/riotboard/arm-2012.09/bin/../lib/gcc/arm-none-eabi/4.7.2//libgcc.a(_arm_addsubsf3.o)
 .ARM.attributes
                0x000023e5       0x18 /home/leon/riotboard/arm-2012.09/bin/../lib/gcc/arm-none-eabi/4.7.2//libgcc.a(_arm_muldivsf3.o)
 .ARM.attributes
                0x000023fd       0x18 /home/leon/riotboard/arm-2012.09/bin/../lib/gcc/arm-none-eabi/4.7.2//libgcc.a(_arm_cmpsf2.o)
 .ARM.attributes
                0x00002415       0x18 /home/leon/riotboard/arm-2012.09/bin/../lib/gcc/arm-none-eabi/4.7.2//libgcc.a(_arm_fixsfsi.o)
 .ARM.attributes
                0x0000242d       0x18 /home/leon/riotboard/arm-2012.09/bin/../lib/gcc/arm-none-eabi/4.7.2//libgcc.a(_aeabi_uldivmod.o)
 .ARM.attributes
                0x00002445       0x30 /home/leon/riotboard/arm-2012.09/bin/../lib/gcc/arm-none-eabi/4.7.2//libgcc.a(bpabi.o)
 .ARM.attributes
                0x00002475       0x30 /home/leon/riotboard/arm-2012.09/bin/../lib/gcc/arm-none-eabi/4.7.2//libgcc.a(_divdi3.o)
 .ARM.attributes
                0x000024a5       0x30 /home/leon/riotboard/arm-2012.09/bin/../lib/gcc/arm-none-eabi/4.7.2//libgcc.a(_udivdi3.o)
 .ARM.attributes
                0x000024d5       0x18 /home/leon/riotboard/arm-2012.09/bin/../lib/gcc/arm-none-eabi/4.7.2//libgcc.a(_clzsi2.o)
 .ARM.attributes
                0x000024ed       0x39 /home/leon/git/swp-report/iMX6_Platform_SDK/output/mx6dq/lib/libsdk.a(profile.o)
 .ARM.attributes
                0x00002526       0x39 /home/leon/git/swp-report/iMX6_Platform_SDK/output/mx6dq/lib/libsdk.a(armv7_cache.o)
 .ARM.attributes
                0x0000255f       0x39 /home/leon/git/swp-report/iMX6_Platform_SDK/output/mx6dq/lib/libsdk.a(runtime_support.o)
 .ARM.attributes
                0x00002598       0x39 /home/leon/git/swp-report/iMX6_Platform_SDK/output/mx6dq/lib/libsdk.a(mma8451.o)
 .ARM.attributes
                0x000025d1       0x39 /home/leon/git/swp-report/iMX6_Platform_SDK/output/mx6dq/lib/libsdk.a(smd_sensor.o)
 .ARM.attributes
                0x0000260a       0x39 /home/leon/git/swp-report/iMX6_Platform_SDK/output/mx6dq/lib/libsdk.a(cpu_get_cores.o)
 .ARM.attributes
                0x00002643       0x39 /home/leon/git/swp-report/iMX6_Platform_SDK/output/mx6dq/lib/libsdk.a(cpu_multicore.o)
 .ARM.attributes
                0x0000267c       0x39 /home/leon/git/swp-report/iMX6_Platform_SDK/output/mx6dq/lib/libsdk.a(cpu_workpoint.o)
 .ARM.attributes
                0x000026b5       0x39 /home/leon/git/swp-report/iMX6_Platform_SDK/output/mx6dq/lib/libsdk.a(enet_drv.o)
 .ARM.attributes
                0x000026ee       0x39 /home/leon/git/swp-report/iMX6_Platform_SDK/output/mx6dq/lib/libsdk.a(gpio.o)
 .ARM.attributes
                0x00002727       0x39 /home/leon/git/swp-report/iMX6_Platform_SDK/output/mx6dq/lib/libsdk.a(imx6dq_gpio_map.o)
 .ARM.attributes
                0x00002760       0x39 /home/leon/git/swp-report/iMX6_Platform_SDK/output/mx6dq/lib/libsdk.a(hdmi_tx.o)
 .ARM.attributes
                0x00002799       0x39 /home/leon/git/swp-report/iMX6_Platform_SDK/output/mx6dq/lib/libsdk.a(hdmi_tx_audio.o)
 .ARM.attributes
                0x000027d2       0x39 /home/leon/git/swp-report/iMX6_Platform_SDK/output/mx6dq/lib/libsdk.a(hdmi_tx_phy.o)
 .ARM.attributes
                0x0000280b       0x39 /home/leon/git/swp-report/iMX6_Platform_SDK/output/mx6dq/lib/libsdk.a(imx_i2c.o)
 .ARM.attributes
                0x00002844       0x39 /home/leon/git/swp-report/iMX6_Platform_SDK/output/mx6dq/lib/libsdk.a(imx_i2c_slave.o)
 .ARM.attributes
                0x0000287d       0x39 /home/leon/git/swp-report/iMX6_Platform_SDK/output/mx6dq/lib/libsdk.a(ips_disp_panel.o)
 .ARM.attributes
                0x000028b6       0x39 /home/leon/git/swp-report/iMX6_Platform_SDK/output/mx6dq/lib/libsdk.a(ipu_common.o)
 .ARM.attributes
                0x000028ef       0x39 /home/leon/git/swp-report/iMX6_Platform_SDK/output/mx6dq/lib/libsdk.a(ipu_csi.o)
 .ARM.attributes
                0x00002928       0x39 /home/leon/git/swp-report/iMX6_Platform_SDK/output/mx6dq/lib/libsdk.a(ipu_dc.o)
 .ARM.attributes
                0x00002961       0x39 /home/leon/git/swp-report/iMX6_Platform_SDK/output/mx6dq/lib/libsdk.a(ipu_di.o)
 .ARM.attributes
                0x0000299a       0x39 /home/leon/git/swp-report/iMX6_Platform_SDK/output/mx6dq/lib/libsdk.a(ipu_dmfc.o)
 .ARM.attributes
                0x000029d3       0x39 /home/leon/git/swp-report/iMX6_Platform_SDK/output/mx6dq/lib/libsdk.a(ipu_dp.o)
 .ARM.attributes
                0x00002a0c       0x39 /home/leon/git/swp-report/iMX6_Platform_SDK/output/mx6dq/lib/libsdk.a(ipu_ic.o)
 .ARM.attributes
                0x00002a45       0x39 /home/leon/git/swp-report/iMX6_Platform_SDK/output/mx6dq/lib/libsdk.a(ipu_idmac.o)
 .ARM.attributes
                0x00002a7e       0x39 /home/leon/git/swp-report/iMX6_Platform_SDK/output/mx6dq/lib/libsdk.a(ipu_vdi.o)
 .ARM.attributes
                0x00002ab7       0x39 /home/leon/git/swp-report/iMX6_Platform_SDK/output/mx6dq/lib/libsdk.a(keypad_port.o)
 .ARM.attributes
                0x00002af0       0x39 /home/leon/git/swp-report/iMX6_Platform_SDK/output/mx6dq/lib/libsdk.a(ldb.o)
 .ARM.attributes
                0x00002b29       0x39 /home/leon/git/swp-report/iMX6_Platform_SDK/output/mx6dq/lib/libsdk.a(ocotp.o)
 .ARM.attributes
                0x00002b62       0x39 /home/leon/git/swp-report/iMX6_Platform_SDK/output/mx6dq/lib/libsdk.a(pcie.o)
 .ARM.attributes
                0x00002b9b       0x39 /home/leon/git/swp-report/iMX6_Platform_SDK/output/mx6dq/lib/libsdk.a(pcie_phy.o)
 .ARM.attributes
                0x00002bd4       0x39 /home/leon/git/swp-report/iMX6_Platform_SDK/output/mx6dq/lib/libsdk.a(pcie_prot.o)
 .ARM.attributes
                0x00002c0d       0x39 /home/leon/git/swp-report/iMX6_Platform_SDK/output/mx6dq/lib/libsdk.a(pmu_driver.o)
 .ARM.attributes
                0x00002c46       0x39 /home/leon/git/swp-report/iMX6_Platform_SDK/output/mx6dq/lib/libsdk.a(pwm.o)
 .ARM.attributes
                0x00002c7f       0x39 /home/leon/git/swp-report/iMX6_Platform_SDK/output/mx6dq/lib/libsdk.a(rtc.o)
 .ARM.attributes
                0x00002cb8       0x39 /home/leon/git/swp-report/iMX6_Platform_SDK/output/mx6dq/lib/libsdk.a(srtc.o)
 .ARM.attributes
                0x00002cf1       0x39 /home/leon/git/swp-report/iMX6_Platform_SDK/output/mx6dq/lib/libsdk.a(sata.o)
 .ARM.attributes
                0x00002d2a       0x39 /home/leon/git/swp-report/iMX6_Platform_SDK/output/mx6dq/lib/libsdk.a(sdma.o)
 .ARM.attributes
                0x00002d63       0x39 /home/leon/git/swp-report/iMX6_Platform_SDK/output/mx6dq/lib/libsdk.a(sdma_script_info.o)
 .ARM.attributes
                0x00002d9c       0x39 /home/leon/git/swp-report/iMX6_Platform_SDK/output/mx6dq/lib/libsdk.a(snvs.o)
 .ARM.attributes
                0x00002dd5       0x39 /home/leon/git/swp-report/iMX6_Platform_SDK/output/mx6dq/lib/libsdk.a(ecspi.o)
 .ARM.attributes
                0x00002e0e       0x39 /home/leon/git/swp-report/iMX6_Platform_SDK/output/mx6dq/lib/libsdk.a(tempmon.o)
 .ARM.attributes
                0x00002e47       0x39 /home/leon/git/swp-report/iMX6_Platform_SDK/output/mx6dq/lib/libsdk.a(gpt.o)
 .ARM.attributes
                0x00002e80       0x39 /home/leon/git/swp-report/iMX6_Platform_SDK/output/mx6dq/lib/libsdk.a(usb_common.o)
 .ARM.attributes
                0x00002eb9       0x39 /home/leon/git/swp-report/iMX6_Platform_SDK/output/mx6dq/lib/libsdk.a(usbd_drv.o)
 .ARM.attributes
                0x00002ef2       0x39 /home/leon/git/swp-report/iMX6_Platform_SDK/output/mx6dq/lib/libsdk.a(usbh_drv.o)
 .ARM.attributes
                0x00002f2b       0x39 /home/leon/git/swp-report/iMX6_Platform_SDK/output/mx6dq/lib/libsdk.a(usdhc.o)
 .ARM.attributes
                0x00002f64       0x39 /home/leon/git/swp-report/iMX6_Platform_SDK/output/mx6dq/lib/libsdk.a(usdhc_host.o)
 .ARM.attributes
                0x00002f9d       0x39 /home/leon/git/swp-report/iMX6_Platform_SDK/output/mx6dq/lib/libsdk.a(usdhc_mmc.o)
 .ARM.attributes
                0x00002fd6       0x39 /home/leon/git/swp-report/iMX6_Platform_SDK/output/mx6dq/lib/libsdk.a(usdhc_sd.o)
 .ARM.attributes
                0x0000300f       0x39 /home/leon/git/swp-report/iMX6_Platform_SDK/output/mx6dq/lib/libsdk.a(spinlock.o)
 .ARM.attributes
                0x00003048       0x16 /home/leon/git/swp-report/iMX6_Platform_SDK/output/mx6dq/lib/libsdk.a(spinlock_lock_unlock.o)
 .ARM.attributes
                0x0000305e       0x39 /home/leon/git/swp-report/iMX6_Platform_SDK/output/mx6dq/lib/libsdk.a(camera_profile.o)
 .ARM.attributes
                0x00003097       0x39 /home/leon/git/swp-report/iMX6_Platform_SDK/output/mx6dq/lib/libsdk.a(hdmi_common.o)
 .ARM.attributes
                0x000030d0       0x39 /home/leon/git/swp-report/iMX6_Platform_SDK/output/mx6dq/lib/libsdk.a(mx6x_usb.o)
 .ARM.attributes
                0x00003109       0x39 /home/leon/git/swp-report/iMX6_Platform_SDK/output/mx6dq/lib/libboard_smart_device_rev_a.a(board_audio.o)
 .ARM.attributes
                0x00003142       0x39 /home/leon/git/swp-report/iMX6_Platform_SDK/output/mx6dq/lib/libboard_smart_device_rev_a.a(board_camera.o)
 .ARM.attributes
                0x0000317b       0x39 /home/leon/git/swp-report/iMX6_Platform_SDK/output/mx6dq/lib/libboard_smart_device_rev_a.a(board_display.o)
 .ARM.attributes
                0x000031b4       0x39 /home/leon/git/swp-report/iMX6_Platform_SDK/output/mx6dq/lib/libboard_smart_device_rev_a.a(board_hdmi.o)
 .ARM.attributes
                0x000031ed       0x39 /home/leon/git/swp-report/iMX6_Platform_SDK/output/mx6dq/lib/libboard_smart_device_rev_a.a(board_i2c.o)
 .ARM.attributes
                0x00003226       0x39 /home/leon/git/swp-report/iMX6_Platform_SDK/output/mx6dq/lib/libboard_smart_device_rev_a.a(board_mipi.o)
 .ARM.attributes
                0x0000325f       0x39 /home/leon/git/swp-report/iMX6_Platform_SDK/output/mx6dq/lib/libboard_smart_device_rev_a.a(board_network.o)
 .ARM.attributes
                0x00003298       0x39 /home/leon/git/swp-report/iMX6_Platform_SDK/output/mx6dq/lib/libboard_smart_device_rev_a.a(board_pcie.o)
 .ARM.attributes
                0x000032d1       0x39 /home/leon/git/swp-report/iMX6_Platform_SDK/output/mx6dq/lib/libboard_smart_device_rev_a.a(board_sata.o)
 .ARM.attributes
                0x0000330a       0x39 /home/leon/git/swp-report/iMX6_Platform_SDK/output/mx6dq/lib/libboard_smart_device_rev_a.a(board_usb.o)
 .ARM.attributes
                0x00003343       0x39 /home/leon/git/swp-report/iMX6_Platform_SDK/output/mx6dq/lib/libboard_smart_device_rev_a.a(board_usdhc.o)
 .ARM.attributes
                0x0000337c       0x39 /home/leon/git/swp-report/iMX6_Platform_SDK/output/mx6dq/lib/libboard_smart_device_rev_a.a(ecspi_iomux_config.o)
 .ARM.attributes
                0x000033b5       0x39 /home/leon/git/swp-report/iMX6_Platform_SDK/output/mx6dq/lib/libboard_smart_device_rev_a.a(i2c_iomux_config.o)
 .ARM.attributes
                0x000033ee       0x39 /home/leon/git/swp-report/iMX6_Platform_SDK/output/mx6dq/lib/libboard_smart_device_rev_a.a(pwm_iomux_config.o)
 .ARM.attributes
                0x00003427       0x39 /home/leon/git/swp-report/iMX6_Platform_SDK/output/mx6dq/lib/libboard_smart_device_rev_a.a(usdhc_iomux_config.o)
 .ARM.attributes
                0x00003460       0x30 /home/leon/riotboard/arm-2012.09/bin/../arm-none-eabi/lib//libstdc++.a(pure.o)
 .ARM.attributes
                0x00003490       0x30 /home/leon/riotboard/arm-2012.09/bin/../arm-none-eabi/lib//libstdc++.a(eh_terminate.o)
 .ARM.attributes
                0x000034c0       0x30 /home/leon/riotboard/arm-2012.09/bin/../arm-none-eabi/lib//libstdc++.a(eh_unex_handler.o)
 .ARM.attributes
                0x000034f0       0x30 /home/leon/riotboard/arm-2012.09/bin/../arm-none-eabi/lib//libstdc++.a(eh_call.o)
 .ARM.attributes
                0x00003520       0x30 /home/leon/riotboard/arm-2012.09/bin/../arm-none-eabi/lib//libstdc++.a(eh_throw.o)
 .ARM.attributes
                0x00003550       0x30 /home/leon/riotboard/arm-2012.09/bin/../arm-none-eabi/lib//libstdc++.a(eh_arm.o)
 .ARM.attributes
                0x00003580       0x30 /home/leon/riotboard/arm-2012.09/bin/../arm-none-eabi/lib//libstdc++.a(eh_exception.o)
 .ARM.attributes
                0x000035b0       0x30 /home/leon/riotboard/arm-2012.09/bin/../arm-none-eabi/lib//libstdc++.a(eh_alloc.o)
 .ARM.attributes
                0x000035e0       0x30 /home/leon/riotboard/arm-2012.09/bin/../arm-none-eabi/lib//libstdc++.a(eh_globals.o)
 .ARM.attributes
                0x00003610       0x30 /home/leon/riotboard/arm-2012.09/bin/../arm-none-eabi/lib//libstdc++.a(si_class_type_info.o)
 .ARM.attributes
                0x00003640       0x30 /home/leon/riotboard/arm-2012.09/bin/../arm-none-eabi/lib//libstdc++.a(eh_personality.o)
 .ARM.attributes
                0x00003670       0x30 /home/leon/riotboard/arm-2012.09/bin/../arm-none-eabi/lib//libstdc++.a(eh_term_handler.o)
 .ARM.attributes
                0x000036a0       0x30 /home/leon/riotboard/arm-2012.09/bin/../arm-none-eabi/lib//libstdc++.a(eh_catch.o)
 .ARM.attributes
                0x000036d0       0x30 /home/leon/riotboard/arm-2012.09/bin/../arm-none-eabi/lib//libstdc++.a(class_type_info.o)
 .ARM.attributes
                0x00003700       0x30 /home/leon/riotboard/arm-2012.09/bin/../arm-none-eabi/lib//libstdc++.a(vterminate.o)
 .ARM.attributes
                0x00003730       0x30 /home/leon/riotboard/arm-2012.09/bin/../arm-none-eabi/lib//libstdc++.a(cp-demangle.o)
 .ARM.attributes
                0x00003760       0x30 /home/leon/riotboard/arm-2012.09/bin/../arm-none-eabi/lib//libstdc++.a(eh_type.o)
 .ARM.attributes
                0x00003790       0x30 /home/leon/riotboard/arm-2012.09/bin/../arm-none-eabi/lib//libstdc++.a(del_op.o)
 .ARM.attributes
                0x000037c0       0x30 /home/leon/riotboard/arm-2012.09/bin/../arm-none-eabi/lib//libstdc++.a(tinfo.o)
 .ARM.attributes
                0x000037f0       0x30 /home/leon/riotboard/arm-2012.09/bin/../arm-none-eabi/lib//libc.a(lib_a-fwrite.o)
 .ARM.attributes
                0x00003820       0x30 /home/leon/riotboard/arm-2012.09/bin/../arm-none-eabi/lib//libc.a(lib_a-memcmp.o)
 .ARM.attributes
                0x00003850       0x30 /home/leon/riotboard/arm-2012.09/bin/../arm-none-eabi/lib//libc.a(lib_a-strncmp.o)
 .ARM.attributes
                0x00003880       0x30 /home/leon/riotboard/arm-2012.09/bin/../arm-none-eabi/lib//libc.a(lib_a-syswrite.o)
 .ARM.attributes
                0x000038b0       0x18 /home/leon/riotboard/arm-2012.09/bin/../lib/gcc/arm-none-eabi/4.7.2//libgcc.a(_divsi3.o)
 .ARM.attributes
                0x000038c8       0x30 /home/leon/riotboard/arm-2012.09/bin/../lib/gcc/arm-none-eabi/4.7.2//libgcc.a(unwind-arm.o)
 .ARM.attributes
                0x000038f8       0x1c /home/leon/riotboard/arm-2012.09/bin/../lib/gcc/arm-none-eabi/4.7.2//libgcc.a(libunwind.o)
 .ARM.attributes
                0x00003914       0x30 /home/leon/riotboard/arm-2012.09/bin/../lib/gcc/arm-none-eabi/4.7.2//libgcc.a(pr-support.o)
 .ARM.attributes
                0x00003944       0x39 /home/leon/git/swp-report/iMX6_Platform_SDK/output/mx6dq/lib/libsdk.a(max7310.o)

.comment        0x00000000       0x30
 .comment       0x00000000       0x30 /home/leon/git/swp-report/iMX6_Platform_SDK/output/mx6dq/sdk_unit_test/smart_device_rev_a/obj/apps/common/ivt.o
                                 0x31 (size before relaxing)
 .comment       0x00000000       0x31 /home/leon/git/swp-report/iMX6_Platform_SDK/output/mx6dq/sdk_unit_test/smart_device_rev_a/obj/apps/common/platform_init.o
 .comment       0x00000000       0x31 /home/leon/git/swp-report/iMX6_Platform_SDK/output/mx6dq/sdk_unit_test/smart_device_rev_a/obj/apps/common/print_clock_info.o
 .comment       0x00000000       0x31 /home/leon/git/swp-report/iMX6_Platform_SDK/output/mx6dq/sdk_unit_test/smart_device_rev_a/obj/apps/common/print_version.o
 .comment       0x00000000       0x31 /home/leon/git/swp-report/iMX6_Platform_SDK/output/mx6dq/sdk_unit_test/smart_device_rev_a/obj/apps/sdk_unit_test/src/all_test.o
 .comment       0x00000000       0x31 /home/leon/git/swp-report/iMX6_Platform_SDK/output/mx6dq/sdk_unit_test/smart_device_rev_a/obj/apps/sdk_unit_test/src/unit_test_main.o
 .comment       0x00000000       0x31 /home/leon/git/swp-report/iMX6_Platform_SDK/output/mx6dq/lib/libsdk.a(ccm_pll.o)
 .comment       0x00000000       0x31 /home/leon/git/swp-report/iMX6_Platform_SDK/output/mx6dq/lib/libsdk.a(gic.o)
 .comment       0x00000000       0x31 /home/leon/git/swp-report/iMX6_Platform_SDK/output/mx6dq/lib/libsdk.a(mmu.o)
 .comment       0x00000000       0x31 /home/leon/git/swp-report/iMX6_Platform_SDK/output/mx6dq/lib/libsdk.a(menu.o)
 .comment       0x00000000       0x31 /home/leon/git/swp-report/iMX6_Platform_SDK/output/mx6dq/lib/libsdk.a(sdk_version.o)
 .comment       0x00000000       0x31 /home/leon/git/swp-report/iMX6_Platform_SDK/output/mx6dq/lib/libsdk.a(system_util.o)
 .comment       0x00000000       0x31 /home/leon/git/swp-report/iMX6_Platform_SDK/output/mx6dq/lib/libsdk.a(text_color.o)
 .comment       0x00000000       0x31 /home/leon/git/swp-report/iMX6_Platform_SDK/output/mx6dq/lib/libsdk.a(board_id.o)
 .comment       0x00000000       0x31 /home/leon/git/swp-report/iMX6_Platform_SDK/output/mx6dq/lib/libsdk.a(timer.o)
 .comment       0x00000000       0x31 /home/leon/git/swp-report/iMX6_Platform_SDK/output/mx6dq/lib/libsdk.a(imx_uart.o)
 .comment       0x00000000       0x31 /home/leon/git/swp-report/iMX6_Platform_SDK/output/mx6dq/lib/libsdk.a(interrupt.o)
 .comment       0x00000000       0x31 /home/leon/git/swp-report/iMX6_Platform_SDK/output/mx6dq/lib/libsdk.a(epit.o)
 .comment       0x00000000       0x31 /home/leon/git/swp-report/iMX6_Platform_SDK/output/mx6dq/lib/libsdk.a(abort_handler.o)
 .comment       0x00000000       0x31 /home/leon/git/swp-report/iMX6_Platform_SDK/output/mx6dq/lib/libboard_smart_device_rev_a.a(board_io_expanders.o)
 .comment       0x00000000       0x31 /home/leon/git/swp-report/iMX6_Platform_SDK/output/mx6dq/lib/libboard_smart_device_rev_a.a(hardware_modules.o)
 .comment       0x00000000       0x31 /home/leon/git/swp-report/iMX6_Platform_SDK/output/mx6dq/lib/libboard_smart_device_rev_a.a(dcd.o)
 .comment       0x00000000       0x31 /home/leon/git/swp-report/iMX6_Platform_SDK/output/mx6dq/lib/libboard_smart_device_rev_a.a(uart_iomux_config.o)
 .comment       0x00000000       0x31 /home/leon/git/swp-report/iMX6_Platform_SDK/output/mx6dq/lib/libboard_smart_device_rev_a.a(iomux_config.o)
 .comment       0x00000000       0x31 /home/leon/git/swp-report/iMX6_Platform_SDK/output/mx6dq/lib/libboard_smart_device_rev_a.a(ipu1_iomux_config.o)
 .comment       0x00000000       0x31 /home/leon/git/swp-report/iMX6_Platform_SDK/output/mx6dq/lib/libboard_smart_device_rev_a.a(kpp_iomux_config.o)
 .comment       0x00000000       0x31 /home/leon/git/swp-report/iMX6_Platform_SDK/output/mx6dq/lib/libboard_smart_device_rev_a.a(mmdc_iomux_config.o)
 .comment       0x00000000       0x31 /home/leon/git/swp-report/iMX6_Platform_SDK/output/mx6dq/lib/libboard_smart_device_rev_a.a(pwm1_iomux_config.o)
 .comment       0x00000000       0x31 /home/leon/git/swp-report/iMX6_Platform_SDK/output/mx6dq/lib/libboard_smart_device_rev_a.a(sjc_iomux_config.o)
 .comment       0x00000000       0x31 /home/leon/git/swp-report/iMX6_Platform_SDK/output/mx6dq/lib/libboard_smart_device_rev_a.a(uart1_iomux_config.o)
 .comment       0x00000000       0x31 /home/leon/git/swp-report/iMX6_Platform_SDK/output/mx6dq/lib/libboard_smart_device_rev_a.a(usdhc2_iomux_config.o)
 .comment       0x00000000       0x31 /home/leon/git/swp-report/iMX6_Platform_SDK/output/mx6dq/lib/libboard_smart_device_rev_a.a(usdhc3_iomux_config.o)
 .comment       0x00000000       0x31 /home/leon/git/swp-report/iMX6_Platform_SDK/output/mx6dq/lib/libboard_smart_device_rev_a.a(usdhc4_iomux_config.o)
 .comment       0x00000000       0x31 /home/leon/git/swp-report/iMX6_Platform_SDK/output/mx6dq/lib/libboard_smart_device_rev_a.a(audmux_iomux_config.o)
 .comment       0x00000000       0x31 /home/leon/git/swp-report/iMX6_Platform_SDK/output/mx6dq/lib/libboard_smart_device_rev_a.a(ccm_iomux_config.o)
 .comment       0x00000000       0x31 /home/leon/git/swp-report/iMX6_Platform_SDK/output/mx6dq/lib/libboard_smart_device_rev_a.a(ecspi1_iomux_config.o)
 .comment       0x00000000       0x31 /home/leon/git/swp-report/iMX6_Platform_SDK/output/mx6dq/lib/libboard_smart_device_rev_a.a(enet_iomux_config.o)
 .comment       0x00000000       0x31 /home/leon/git/swp-report/iMX6_Platform_SDK/output/mx6dq/lib/libboard_smart_device_rev_a.a(flexcan1_iomux_config.o)
 .comment       0x00000000       0x31 /home/leon/git/swp-report/iMX6_Platform_SDK/output/mx6dq/lib/libboard_smart_device_rev_a.a(gpio1_iomux_config.o)
 .comment       0x00000000       0x31 /home/leon/git/swp-report/iMX6_Platform_SDK/output/mx6dq/lib/libboard_smart_device_rev_a.a(gpio2_iomux_config.o)
 .comment       0x00000000       0x31 /home/leon/git/swp-report/iMX6_Platform_SDK/output/mx6dq/lib/libboard_smart_device_rev_a.a(gpio3_iomux_config.o)
 .comment       0x00000000       0x31 /home/leon/git/swp-report/iMX6_Platform_SDK/output/mx6dq/lib/libboard_smart_device_rev_a.a(gpio4_iomux_config.o)
 .comment       0x00000000       0x31 /home/leon/git/swp-report/iMX6_Platform_SDK/output/mx6dq/lib/libboard_smart_device_rev_a.a(gpio5_iomux_config.o)
 .comment       0x00000000       0x31 /home/leon/git/swp-report/iMX6_Platform_SDK/output/mx6dq/lib/libboard_smart_device_rev_a.a(gpio6_iomux_config.o)
 .comment       0x00000000       0x31 /home/leon/git/swp-report/iMX6_Platform_SDK/output/mx6dq/lib/libboard_smart_device_rev_a.a(gpio7_iomux_config.o)
 .comment       0x00000000       0x31 /home/leon/git/swp-report/iMX6_Platform_SDK/output/mx6dq/lib/libboard_smart_device_rev_a.a(gps_iomux_config.o)
 .comment       0x00000000       0x31 /home/leon/git/swp-report/iMX6_Platform_SDK/output/mx6dq/lib/libboard_smart_device_rev_a.a(i2c1_iomux_config.o)
 .comment       0x00000000       0x31 /home/leon/git/swp-report/iMX6_Platform_SDK/output/mx6dq/lib/libboard_smart_device_rev_a.a(i2c2_iomux_config.o)
 .comment       0x00000000       0x31 /home/leon/git/swp-report/iMX6_Platform_SDK/output/mx6dq/lib/libboard_smart_device_rev_a.a(i2c3_iomux_config.o)
 .comment       0x00000000       0x31 /home/leon/git/swp-report/iMX6_Platform_SDK/output/mx6dq/sdk_unit_test/smart_device_rev_a/libsdk_unit_test.a(cpu_wp_test.o)
 .comment       0x00000000       0x31 /home/leon/git/swp-report/iMX6_Platform_SDK/output/mx6dq/sdk_unit_test/smart_device_rev_a/libsdk_unit_test.a(multicore_test.o)
 .comment       0x00000000       0x31 /home/leon/git/swp-report/iMX6_Platform_SDK/output/mx6dq/sdk_unit_test/smart_device_rev_a/libsdk_unit_test.a(audio_test.o)
 .comment       0x00000000       0x31 /home/leon/git/swp-report/iMX6_Platform_SDK/output/mx6dq/sdk_unit_test/smart_device_rev_a/libsdk_unit_test.a(gic_test.o)
 .comment       0x00000000       0x31 /home/leon/git/swp-report/iMX6_Platform_SDK/output/mx6dq/sdk_unit_test/smart_device_rev_a/libsdk_unit_test.a(ocotp_test.o)
 .comment       0x00000000       0x31 /home/leon/git/swp-report/iMX6_Platform_SDK/output/mx6dq/sdk_unit_test/smart_device_rev_a/libsdk_unit_test.a(i2c_test.o)
 .comment       0x00000000       0x31 /home/leon/git/swp-report/iMX6_Platform_SDK/output/mx6dq/sdk_unit_test/smart_device_rev_a/libsdk_unit_test.a(imx6_i2c_device.o)
 .comment       0x00000000       0x31 /home/leon/git/swp-report/iMX6_Platform_SDK/output/mx6dq/sdk_unit_test/smart_device_rev_a/libsdk_unit_test.a(snvs_rtc_test.o)
 .comment       0x00000000       0x31 /home/leon/git/swp-report/iMX6_Platform_SDK/output/mx6dq/sdk_unit_test/smart_device_rev_a/libsdk_unit_test.a(snvs_srtc_test.o)
 .comment       0x00000000       0x31 /home/leon/git/swp-report/iMX6_Platform_SDK/output/mx6dq/sdk_unit_test/smart_device_rev_a/libsdk_unit_test.a(tempmon_test.o)
 .comment       0x00000000       0x31 /home/leon/git/swp-report/iMX6_Platform_SDK/output/mx6dq/sdk_unit_test/smart_device_rev_a/libsdk_unit_test.a(sdma_test.o)
 .comment       0x00000000       0x31 /home/leon/git/swp-report/iMX6_Platform_SDK/output/mx6dq/sdk_unit_test/smart_device_rev_a/libsdk_unit_test.a(spi_lpb.o)
 .comment       0x00000000       0x31 /home/leon/git/swp-report/iMX6_Platform_SDK/output/mx6dq/sdk_unit_test/smart_device_rev_a/libsdk_unit_test.a(uart_loopback.o)
 .comment       0x00000000       0x31 /home/leon/git/swp-report/iMX6_Platform_SDK/output/mx6dq/sdk_unit_test/smart_device_rev_a/libsdk_unit_test.a(uart_test.o)
 .comment       0x00000000       0x31 /home/leon/git/swp-report/iMX6_Platform_SDK/output/mx6dq/sdk_unit_test/smart_device_rev_a/libsdk_unit_test.a(epit_test.o)
 .comment       0x00000000       0x31 /home/leon/git/swp-report/iMX6_Platform_SDK/output/mx6dq/sdk_unit_test/smart_device_rev_a/libsdk_unit_test.a(gpt_test.o)
 .comment       0x00000000       0x31 /home/leon/git/swp-report/iMX6_Platform_SDK/output/mx6dq/sdk_unit_test/smart_device_rev_a/libsdk_unit_test.a(timer_test.o)
 .comment       0x00000000       0x31 /home/leon/git/swp-report/iMX6_Platform_SDK/output/mx6dq/sdk_unit_test/smart_device_rev_a/libsdk_unit_test.a(usdhc_test.o)
 .comment       0x00000000       0x31 /home/leon/git/swp-report/iMX6_Platform_SDK/output/mx6dq/sdk_unit_test/smart_device_rev_a/libsdk_unit_test.a(pwm_test.o)
 .comment       0x00000000       0x31 /home/leon/git/swp-report/iMX6_Platform_SDK/output/mx6dq/sdk_unit_test/smart_device_rev_a/libsdk_unit_test.a(watchdog_test.o)
 .comment       0x00000000       0x31 /home/leon/git/swp-report/iMX6_Platform_SDK/output/mx6dq/sdk_unit_test/smart_device_rev_a/libsdk_unit_test.a(hdmi_test.o)
 .comment       0x00000000       0x31 /home/leon/git/swp-report/iMX6_Platform_SDK/output/mx6dq/sdk_unit_test/smart_device_rev_a/libsdk_unit_test.a(ips_display.o)
 .comment       0x00000000       0x31 /home/leon/git/swp-report/iMX6_Platform_SDK/output/mx6dq/sdk_unit_test/smart_device_rev_a/libsdk_unit_test.a(ips_test.o)
 .comment       0x00000000       0x31 /home/leon/git/swp-report/iMX6_Platform_SDK/output/mx6dq/sdk_unit_test/smart_device_rev_a/libsdk_unit_test.a(ipu_image.o)
 .comment       0x00000000       0x31 /home/leon/git/swp-report/iMX6_Platform_SDK/output/mx6dq/sdk_unit_test/smart_device_rev_a/libsdk_unit_test.a(keypad_test.o)
 .comment       0x00000000       0x31 /home/leon/git/swp-report/iMX6_Platform_SDK/output/mx6dq/sdk_unit_test/smart_device_rev_a/libsdk_unit_test.a(camera_test.o)
 .comment       0x00000000       0x31 /home/leon/git/swp-report/iMX6_Platform_SDK/output/mx6dq/sdk_unit_test/smart_device_rev_a/libsdk_unit_test.a(csi_test_mode.o)
 .comment       0x00000000       0x31 /home/leon/git/swp-report/iMX6_Platform_SDK/output/mx6dq/sdk_unit_test/smart_device_rev_a/libsdk_unit_test.a(sensor_capture.o)
 .comment       0x00000000       0x31 /home/leon/git/swp-report/iMX6_Platform_SDK/output/mx6dq/sdk_unit_test/smart_device_rev_a/libsdk_unit_test.a(pcie_test_rc.o)
 .comment       0x00000000       0x31 /home/leon/git/swp-report/iMX6_Platform_SDK/output/mx6dq/sdk_unit_test/smart_device_rev_a/libsdk_unit_test.a(usb_test.o)
 .comment       0x00000000       0x31 /home/leon/git/swp-report/iMX6_Platform_SDK/output/mx6dq/sdk_unit_test/smart_device_rev_a/libsdk_unit_test.a(enet_test.o)
 .comment       0x00000000       0x31 /home/leon/git/swp-report/iMX6_Platform_SDK/output/mx6dq/sdk_unit_test/smart_device_rev_a/libsdk_unit_test.a(spi_test.o)
 .comment       0x00000000       0x31 /home/leon/git/swp-report/iMX6_Platform_SDK/output/mx6dq/sdk_unit_test/smart_device_rev_a/libsdk_unit_test.a(accelerometer_test.o)
 .comment       0x00000000       0x31 /home/leon/git/swp-report/iMX6_Platform_SDK/output/mx6dq/sdk_unit_test/smart_device_rev_a/libsdk_unit_test.a(sata_test.o)
 .comment       0x00000000       0x31 /home/leon/git/swp-report/iMX6_Platform_SDK/output/mx6dq/sdk_unit_test/smart_device_rev_a/libsdk_unit_test.a(at24cxx.o)
 .comment       0x00000000       0x31 /home/leon/git/swp-report/iMX6_Platform_SDK/output/mx6dq/sdk_unit_test/smart_device_rev_a/libsdk_unit_test.a(mem_2_mem.o)
 .comment       0x00000000       0x31 /home/leon/git/swp-report/iMX6_Platform_SDK/output/mx6dq/sdk_unit_test/smart_device_rev_a/libsdk_unit_test.a(pwm_output.o)
 .comment       0x00000000       0x31 /home/leon/git/swp-report/iMX6_Platform_SDK/output/mx6dq/sdk_unit_test/smart_device_rev_a/libsdk_unit_test.a(init_dma_data.o)
 .comment       0x00000000       0x31 /home/leon/git/swp-report/iMX6_Platform_SDK/output/mx6dq/sdk_unit_test/smart_device_rev_a/libsdk_unit_test.a(ips_combiner.o)
 .comment       0x00000000       0x31 /home/leon/git/swp-report/iMX6_Platform_SDK/output/mx6dq/sdk_unit_test/smart_device_rev_a/libsdk_unit_test.a(ips_csc.o)
 .comment       0x00000000       0x31 /home/leon/git/swp-report/iMX6_Platform_SDK/output/mx6dq/sdk_unit_test/smart_device_rev_a/libsdk_unit_test.a(ips_resize.o)
 .comment       0x00000000       0x31 /home/leon/git/swp-report/iMX6_Platform_SDK/output/mx6dq/sdk_unit_test/smart_device_rev_a/libsdk_unit_test.a(ips_rotate.o)
 .comment       0x00000000       0x31 /home/leon/git/swp-report/iMX6_Platform_SDK/output/mx6dq/sdk_unit_test/smart_device_rev_a/libsdk_unit_test.a(usb0_device_mouse_test.o)
 .comment       0x00000000       0x31 /home/leon/git/swp-report/iMX6_Platform_SDK/output/mx6dq/sdk_unit_test/smart_device_rev_a/libsdk_unit_test.a(usb0_host_test.o)
 .comment       0x00000000       0x31 /home/leon/git/swp-report/iMX6_Platform_SDK/output/mx6dq/sdk_unit_test/smart_device_rev_a/libsdk_unit_test.a(usb0_host_testmodes_test.o)
 .comment       0x00000000       0x31 /home/leon/git/swp-report/iMX6_Platform_SDK/output/mx6dq/sdk_unit_test/smart_device_rev_a/libsdk_unit_test.a(spi_nor_numonyx.o)
 .comment       0x00000000       0x31 /home/leon/git/swp-report/iMX6_Platform_SDK/output/mx6dq/lib/libsdk.a(profile.o)
 .comment       0x00000000       0x31 /home/leon/git/swp-report/iMX6_Platform_SDK/output/mx6dq/lib/libsdk.a(armv7_cache.o)
 .comment       0x00000000       0x31 /home/leon/git/swp-report/iMX6_Platform_SDK/output/mx6dq/lib/libsdk.a(runtime_support.o)
 .comment       0x00000000       0x31 /home/leon/git/swp-report/iMX6_Platform_SDK/output/mx6dq/lib/libsdk.a(mma8451.o)
 .comment       0x00000000       0x31 /home/leon/git/swp-report/iMX6_Platform_SDK/output/mx6dq/lib/libsdk.a(smd_sensor.o)
 .comment       0x00000000       0x31 /home/leon/git/swp-report/iMX6_Platform_SDK/output/mx6dq/lib/libsdk.a(cpu_get_cores.o)
 .comment       0x00000000       0x31 /home/leon/git/swp-report/iMX6_Platform_SDK/output/mx6dq/lib/libsdk.a(cpu_multicore.o)
 .comment       0x00000000       0x31 /home/leon/git/swp-report/iMX6_Platform_SDK/output/mx6dq/lib/libsdk.a(cpu_workpoint.o)
 .comment       0x00000000       0x31 /home/leon/git/swp-report/iMX6_Platform_SDK/output/mx6dq/lib/libsdk.a(enet_drv.o)
 .comment       0x00000000       0x31 /home/leon/git/swp-report/iMX6_Platform_SDK/output/mx6dq/lib/libsdk.a(gpio.o)
 .comment       0x00000000       0x31 /home/leon/git/swp-report/iMX6_Platform_SDK/output/mx6dq/lib/libsdk.a(imx6dq_gpio_map.o)
 .comment       0x00000000       0x31 /home/leon/git/swp-report/iMX6_Platform_SDK/output/mx6dq/lib/libsdk.a(hdmi_tx.o)
 .comment       0x00000000       0x31 /home/leon/git/swp-report/iMX6_Platform_SDK/output/mx6dq/lib/libsdk.a(hdmi_tx_audio.o)
 .comment       0x00000000       0x31 /home/leon/git/swp-report/iMX6_Platform_SDK/output/mx6dq/lib/libsdk.a(hdmi_tx_phy.o)
 .comment       0x00000000       0x31 /home/leon/git/swp-report/iMX6_Platform_SDK/output/mx6dq/lib/libsdk.a(imx_i2c.o)
 .comment       0x00000000       0x31 /home/leon/git/swp-report/iMX6_Platform_SDK/output/mx6dq/lib/libsdk.a(imx_i2c_slave.o)
 .comment       0x00000000       0x31 /home/leon/git/swp-report/iMX6_Platform_SDK/output/mx6dq/lib/libsdk.a(ips_disp_panel.o)
 .comment       0x00000000       0x31 /home/leon/git/swp-report/iMX6_Platform_SDK/output/mx6dq/lib/libsdk.a(ipu_common.o)
 .comment       0x00000000       0x31 /home/leon/git/swp-report/iMX6_Platform_SDK/output/mx6dq/lib/libsdk.a(ipu_csi.o)
 .comment       0x00000000       0x31 /home/leon/git/swp-report/iMX6_Platform_SDK/output/mx6dq/lib/libsdk.a(ipu_dc.o)
 .comment       0x00000000       0x31 /home/leon/git/swp-report/iMX6_Platform_SDK/output/mx6dq/lib/libsdk.a(ipu_di.o)
 .comment       0x00000000       0x31 /home/leon/git/swp-report/iMX6_Platform_SDK/output/mx6dq/lib/libsdk.a(ipu_dmfc.o)
 .comment       0x00000000       0x31 /home/leon/git/swp-report/iMX6_Platform_SDK/output/mx6dq/lib/libsdk.a(ipu_dp.o)
 .comment       0x00000000       0x31 /home/leon/git/swp-report/iMX6_Platform_SDK/output/mx6dq/lib/libsdk.a(ipu_ic.o)
 .comment       0x00000000       0x31 /home/leon/git/swp-report/iMX6_Platform_SDK/output/mx6dq/lib/libsdk.a(ipu_idmac.o)
 .comment       0x00000000       0x31 /home/leon/git/swp-report/iMX6_Platform_SDK/output/mx6dq/lib/libsdk.a(ipu_vdi.o)
 .comment       0x00000000       0x31 /home/leon/git/swp-report/iMX6_Platform_SDK/output/mx6dq/lib/libsdk.a(keypad_port.o)
 .comment       0x00000000       0x31 /home/leon/git/swp-report/iMX6_Platform_SDK/output/mx6dq/lib/libsdk.a(ldb.o)
 .comment       0x00000000       0x31 /home/leon/git/swp-report/iMX6_Platform_SDK/output/mx6dq/lib/libsdk.a(ocotp.o)
 .comment       0x00000000       0x31 /home/leon/git/swp-report/iMX6_Platform_SDK/output/mx6dq/lib/libsdk.a(pcie.o)
 .comment       0x00000000       0x31 /home/leon/git/swp-report/iMX6_Platform_SDK/output/mx6dq/lib/libsdk.a(pcie_phy.o)
 .comment       0x00000000       0x31 /home/leon/git/swp-report/iMX6_Platform_SDK/output/mx6dq/lib/libsdk.a(pcie_prot.o)
 .comment       0x00000000       0x31 /home/leon/git/swp-report/iMX6_Platform_SDK/output/mx6dq/lib/libsdk.a(pmu_driver.o)
 .comment       0x00000000       0x31 /home/leon/git/swp-report/iMX6_Platform_SDK/output/mx6dq/lib/libsdk.a(pwm.o)
 .comment       0x00000000       0x31 /home/leon/git/swp-report/iMX6_Platform_SDK/output/mx6dq/lib/libsdk.a(rtc.o)
 .comment       0x00000000       0x31 /home/leon/git/swp-report/iMX6_Platform_SDK/output/mx6dq/lib/libsdk.a(srtc.o)
 .comment       0x00000000       0x31 /home/leon/git/swp-report/iMX6_Platform_SDK/output/mx6dq/lib/libsdk.a(sata.o)
 .comment       0x00000000       0x31 /home/leon/git/swp-report/iMX6_Platform_SDK/output/mx6dq/lib/libsdk.a(sdma.o)
 .comment       0x00000000       0x31 /home/leon/git/swp-report/iMX6_Platform_SDK/output/mx6dq/lib/libsdk.a(sdma_script_info.o)
 .comment       0x00000000       0x31 /home/leon/git/swp-report/iMX6_Platform_SDK/output/mx6dq/lib/libsdk.a(snvs.o)
 .comment       0x00000000       0x31 /home/leon/git/swp-report/iMX6_Platform_SDK/output/mx6dq/lib/libsdk.a(ecspi.o)
 .comment       0x00000000       0x31 /home/leon/git/swp-report/iMX6_Platform_SDK/output/mx6dq/lib/libsdk.a(tempmon.o)
 .comment       0x00000000       0x31 /home/leon/git/swp-report/iMX6_Platform_SDK/output/mx6dq/lib/libsdk.a(gpt.o)
 .comment       0x00000000       0x31 /home/leon/git/swp-report/iMX6_Platform_SDK/output/mx6dq/lib/libsdk.a(usb_common.o)
 .comment       0x00000000       0x31 /home/leon/git/swp-report/iMX6_Platform_SDK/output/mx6dq/lib/libsdk.a(usbd_drv.o)
 .comment       0x00000000       0x31 /home/leon/git/swp-report/iMX6_Platform_SDK/output/mx6dq/lib/libsdk.a(usbh_drv.o)
 .comment       0x00000000       0x31 /home/leon/git/swp-report/iMX6_Platform_SDK/output/mx6dq/lib/libsdk.a(usdhc.o)
 .comment       0x00000000       0x31 /home/leon/git/swp-report/iMX6_Platform_SDK/output/mx6dq/lib/libsdk.a(usdhc_host.o)
 .comment       0x00000000       0x31 /home/leon/git/swp-report/iMX6_Platform_SDK/output/mx6dq/lib/libsdk.a(usdhc_mmc.o)
 .comment       0x00000000       0x31 /home/leon/git/swp-report/iMX6_Platform_SDK/output/mx6dq/lib/libsdk.a(usdhc_sd.o)
 .comment       0x00000000       0x31 /home/leon/git/swp-report/iMX6_Platform_SDK/output/mx6dq/lib/libsdk.a(spinlock.o)
 .comment       0x00000000       0x31 /home/leon/git/swp-report/iMX6_Platform_SDK/output/mx6dq/lib/libsdk.a(camera_profile.o)
 .comment       0x00000000       0x31 /home/leon/git/swp-report/iMX6_Platform_SDK/output/mx6dq/lib/libsdk.a(hdmi_common.o)
 .comment       0x00000000       0x31 /home/leon/git/swp-report/iMX6_Platform_SDK/output/mx6dq/lib/libsdk.a(mx6x_usb.o)
 .comment       0x00000000       0x31 /home/leon/git/swp-report/iMX6_Platform_SDK/output/mx6dq/lib/libboard_smart_device_rev_a.a(board_audio.o)
 .comment       0x00000000       0x31 /home/leon/git/swp-report/iMX6_Platform_SDK/output/mx6dq/lib/libboard_smart_device_rev_a.a(board_camera.o)
 .comment       0x00000000       0x31 /home/leon/git/swp-report/iMX6_Platform_SDK/output/mx6dq/lib/libboard_smart_device_rev_a.a(board_display.o)
 .comment       0x00000000       0x31 /home/leon/git/swp-report/iMX6_Platform_SDK/output/mx6dq/lib/libboard_smart_device_rev_a.a(board_hdmi.o)
 .comment       0x00000000       0x31 /home/leon/git/swp-report/iMX6_Platform_SDK/output/mx6dq/lib/libboard_smart_device_rev_a.a(board_i2c.o)
 .comment       0x00000000       0x31 /home/leon/git/swp-report/iMX6_Platform_SDK/output/mx6dq/lib/libboard_smart_device_rev_a.a(board_mipi.o)
 .comment       0x00000000       0x31 /home/leon/git/swp-report/iMX6_Platform_SDK/output/mx6dq/lib/libboard_smart_device_rev_a.a(board_network.o)
 .comment       0x00000000       0x31 /home/leon/git/swp-report/iMX6_Platform_SDK/output/mx6dq/lib/libboard_smart_device_rev_a.a(board_pcie.o)
 .comment       0x00000000       0x31 /home/leon/git/swp-report/iMX6_Platform_SDK/output/mx6dq/lib/libboard_smart_device_rev_a.a(board_sata.o)
 .comment       0x00000000       0x31 /home/leon/git/swp-report/iMX6_Platform_SDK/output/mx6dq/lib/libboard_smart_device_rev_a.a(board_usb.o)
 .comment       0x00000000       0x31 /home/leon/git/swp-report/iMX6_Platform_SDK/output/mx6dq/lib/libboard_smart_device_rev_a.a(board_usdhc.o)
 .comment       0x00000000       0x31 /home/leon/git/swp-report/iMX6_Platform_SDK/output/mx6dq/lib/libboard_smart_device_rev_a.a(ecspi_iomux_config.o)
 .comment       0x00000000       0x31 /home/leon/git/swp-report/iMX6_Platform_SDK/output/mx6dq/lib/libboard_smart_device_rev_a.a(i2c_iomux_config.o)
 .comment       0x00000000       0x31 /home/leon/git/swp-report/iMX6_Platform_SDK/output/mx6dq/lib/libboard_smart_device_rev_a.a(pwm_iomux_config.o)
 .comment       0x00000000       0x31 /home/leon/git/swp-report/iMX6_Platform_SDK/output/mx6dq/lib/libboard_smart_device_rev_a.a(usdhc_iomux_config.o)
 .comment       0x00000000       0x31 /home/leon/git/swp-report/iMX6_Platform_SDK/output/mx6dq/lib/libsdk.a(max7310.o)

.debug_info     0x00000000    0x6b1c8
 .debug_info    0x00000000      0x228 /home/leon/git/swp-report/iMX6_Platform_SDK/output/mx6dq/sdk_unit_test/smart_device_rev_a/obj/apps/common/ivt.o
 .debug_info    0x00000228      0x198 /home/leon/git/swp-report/iMX6_Platform_SDK/output/mx6dq/sdk_unit_test/smart_device_rev_a/obj/apps/common/platform_init.o
 .debug_info    0x000003c0      0x17b /home/leon/git/swp-report/iMX6_Platform_SDK/output/mx6dq/sdk_unit_test/smart_device_rev_a/obj/apps/common/print_clock_info.o
 .debug_info    0x0000053b      0x1bd /home/leon/git/swp-report/iMX6_Platform_SDK/output/mx6dq/sdk_unit_test/smart_device_rev_a/obj/apps/common/print_version.o
 .debug_info    0x000006f8      0x276 /home/leon/git/swp-report/iMX6_Platform_SDK/output/mx6dq/sdk_unit_test/smart_device_rev_a/obj/apps/sdk_unit_test/src/all_test.o
 .debug_info    0x0000096e       0x9b /home/leon/git/swp-report/iMX6_Platform_SDK/output/mx6dq/sdk_unit_test/smart_device_rev_a/obj/apps/sdk_unit_test/src/unit_test_main.o
 .debug_info    0x00000a09     0x1d6e /home/leon/git/swp-report/iMX6_Platform_SDK/output/mx6dq/lib/libsdk.a(ccm_pll.o)
 .debug_info    0x00002777      0x7f4 /home/leon/git/swp-report/iMX6_Platform_SDK/output/mx6dq/lib/libsdk.a(gic.o)
 .debug_info    0x00002f6b      0x3e7 /home/leon/git/swp-report/iMX6_Platform_SDK/output/mx6dq/lib/libsdk.a(mmu.o)
 .debug_info    0x00003352      0xe7d /home/leon/git/swp-report/iMX6_Platform_SDK/output/mx6dq/lib/libsdk.a(menu.o)
 .debug_info    0x000041cf       0x76 /home/leon/git/swp-report/iMX6_Platform_SDK/output/mx6dq/lib/libsdk.a(sdk_version.o)
 .debug_info    0x00004245     0x1536 /home/leon/git/swp-report/iMX6_Platform_SDK/output/mx6dq/lib/libsdk.a(system_util.o)
 .debug_info    0x0000577b      0x298 /home/leon/git/swp-report/iMX6_Platform_SDK/output/mx6dq/lib/libsdk.a(text_color.o)
 .debug_info    0x00005a13      0x4fe /home/leon/git/swp-report/iMX6_Platform_SDK/output/mx6dq/lib/libsdk.a(board_id.o)
 .debug_info    0x00005f11      0x319 /home/leon/git/swp-report/iMX6_Platform_SDK/output/mx6dq/lib/libsdk.a(timer.o)
 .debug_info    0x0000622a     0x11b6 /home/leon/git/swp-report/iMX6_Platform_SDK/output/mx6dq/lib/libsdk.a(imx_uart.o)
 .debug_info    0x000073e0      0x63b /home/leon/git/swp-report/iMX6_Platform_SDK/output/mx6dq/lib/libsdk.a(interrupt.o)
 .debug_info    0x00007a1b      0x9b7 /home/leon/git/swp-report/iMX6_Platform_SDK/output/mx6dq/lib/libsdk.a(epit.o)
 .debug_info    0x000083d2      0x234 /home/leon/git/swp-report/iMX6_Platform_SDK/output/mx6dq/lib/libsdk.a(abort_handler.o)
 .debug_info    0x00008606      0x1f9 /home/leon/git/swp-report/iMX6_Platform_SDK/output/mx6dq/lib/libboard_smart_device_rev_a.a(board_io_expanders.o)
 .debug_info    0x000087ff       0xa1 /home/leon/git/swp-report/iMX6_Platform_SDK/output/mx6dq/lib/libboard_smart_device_rev_a.a(hardware_modules.o)
 .debug_info    0x000088a0       0xe9 /home/leon/git/swp-report/iMX6_Platform_SDK/output/mx6dq/lib/libboard_smart_device_rev_a.a(dcd.o)
 .debug_info    0x00008989       0xcf /home/leon/git/swp-report/iMX6_Platform_SDK/output/mx6dq/lib/libboard_smart_device_rev_a.a(uart_iomux_config.o)
 .debug_info    0x00008a58      0x3be /home/leon/git/swp-report/iMX6_Platform_SDK/output/mx6dq/lib/libboard_smart_device_rev_a.a(iomux_config.o)
 .debug_info    0x00008e16     0x3eaf /home/leon/git/swp-report/iMX6_Platform_SDK/output/mx6dq/lib/libboard_smart_device_rev_a.a(ipu1_iomux_config.o)
 .debug_info    0x0000ccc5     0x1023 /home/leon/git/swp-report/iMX6_Platform_SDK/output/mx6dq/lib/libboard_smart_device_rev_a.a(kpp_iomux_config.o)
 .debug_info    0x0000dce8     0x41e3 /home/leon/git/swp-report/iMX6_Platform_SDK/output/mx6dq/lib/libboard_smart_device_rev_a.a(mmdc_iomux_config.o)
 .debug_info    0x00011ecb      0x205 /home/leon/git/swp-report/iMX6_Platform_SDK/output/mx6dq/lib/libboard_smart_device_rev_a.a(pwm1_iomux_config.o)
 .debug_info    0x000120d0      0x72b /home/leon/git/swp-report/iMX6_Platform_SDK/output/mx6dq/lib/libboard_smart_device_rev_a.a(sjc_iomux_config.o)
 .debug_info    0x000127fb      0x419 /home/leon/git/swp-report/iMX6_Platform_SDK/output/mx6dq/lib/libboard_smart_device_rev_a.a(uart1_iomux_config.o)
 .debug_info    0x00012c14     0x107b /home/leon/git/swp-report/iMX6_Platform_SDK/output/mx6dq/lib/libboard_smart_device_rev_a.a(usdhc2_iomux_config.o)
 .debug_info    0x00013c8f     0x10db /home/leon/git/swp-report/iMX6_Platform_SDK/output/mx6dq/lib/libboard_smart_device_rev_a.a(usdhc3_iomux_config.o)
 .debug_info    0x00014d6a     0x10db /home/leon/git/swp-report/iMX6_Platform_SDK/output/mx6dq/lib/libboard_smart_device_rev_a.a(usdhc4_iomux_config.o)
 .debug_info    0x00015e45      0x6f7 /home/leon/git/swp-report/iMX6_Platform_SDK/output/mx6dq/lib/libboard_smart_device_rev_a.a(audmux_iomux_config.o)
 .debug_info    0x0001653c      0x205 /home/leon/git/swp-report/iMX6_Platform_SDK/output/mx6dq/lib/libboard_smart_device_rev_a.a(ccm_iomux_config.o)
 .debug_info    0x00016741      0x8af /home/leon/git/swp-report/iMX6_Platform_SDK/output/mx6dq/lib/libboard_smart_device_rev_a.a(ecspi1_iomux_config.o)
 .debug_info    0x00016ff0     0x1c17 /home/leon/git/swp-report/iMX6_Platform_SDK/output/mx6dq/lib/libboard_smart_device_rev_a.a(enet_iomux_config.o)
 .debug_info    0x00018c07      0x419 /home/leon/git/swp-report/iMX6_Platform_SDK/output/mx6dq/lib/libboard_smart_device_rev_a.a(flexcan1_iomux_config.o)
 .debug_info    0x00019020     0x1b85 /home/leon/git/swp-report/iMX6_Platform_SDK/output/mx6dq/lib/libboard_smart_device_rev_a.a(gpio1_iomux_config.o)
 .debug_info    0x0001aba5     0x101b /home/leon/git/swp-report/iMX6_Platform_SDK/output/mx6dq/lib/libboard_smart_device_rev_a.a(gpio2_iomux_config.o)
 .debug_info    0x0001bbc0     0x1a45 /home/leon/git/swp-report/iMX6_Platform_SDK/output/mx6dq/lib/libboard_smart_device_rev_a.a(gpio3_iomux_config.o)
 .debug_info    0x0001d605      0x6f7 /home/leon/git/swp-report/iMX6_Platform_SDK/output/mx6dq/lib/libboard_smart_device_rev_a.a(gpio4_iomux_config.o)
 .debug_info    0x0001dcfc      0x36b /home/leon/git/swp-report/iMX6_Platform_SDK/output/mx6dq/lib/libboard_smart_device_rev_a.a(gpio5_iomux_config.o)
 .debug_info    0x0001e067      0xf15 /home/leon/git/swp-report/iMX6_Platform_SDK/output/mx6dq/lib/libboard_smart_device_rev_a.a(gpio6_iomux_config.o)
 .debug_info    0x0001ef7c      0x551 /home/leon/git/swp-report/iMX6_Platform_SDK/output/mx6dq/lib/libboard_smart_device_rev_a.a(gpio7_iomux_config.o)
 .debug_info    0x0001f4cd      0x86b /home/leon/git/swp-report/iMX6_Platform_SDK/output/mx6dq/lib/libboard_smart_device_rev_a.a(gps_iomux_config.o)
 .debug_info    0x0001fd38      0x487 /home/leon/git/swp-report/iMX6_Platform_SDK/output/mx6dq/lib/libboard_smart_device_rev_a.a(i2c1_iomux_config.o)
 .debug_info    0x000201bf      0x487 /home/leon/git/swp-report/iMX6_Platform_SDK/output/mx6dq/lib/libboard_smart_device_rev_a.a(i2c2_iomux_config.o)
 .debug_info    0x00020646      0x487 /home/leon/git/swp-report/iMX6_Platform_SDK/output/mx6dq/lib/libboard_smart_device_rev_a.a(i2c3_iomux_config.o)
 .debug_info    0x00020acd      0x23d /home/leon/git/swp-report/iMX6_Platform_SDK/output/mx6dq/sdk_unit_test/smart_device_rev_a/libsdk_unit_test.a(cpu_wp_test.o)
 .debug_info    0x00020d0a      0x585 /home/leon/git/swp-report/iMX6_Platform_SDK/output/mx6dq/sdk_unit_test/smart_device_rev_a/libsdk_unit_test.a(multicore_test.o)
 .debug_info    0x0002128f      0xbea /home/leon/git/swp-report/iMX6_Platform_SDK/output/mx6dq/sdk_unit_test/smart_device_rev_a/libsdk_unit_test.a(audio_test.o)
 .debug_info    0x00021e79      0x533 /home/leon/git/swp-report/iMX6_Platform_SDK/output/mx6dq/sdk_unit_test/smart_device_rev_a/libsdk_unit_test.a(gic_test.o)
 .debug_info    0x000223ac      0x9be /home/leon/git/swp-report/iMX6_Platform_SDK/output/mx6dq/sdk_unit_test/smart_device_rev_a/libsdk_unit_test.a(ocotp_test.o)
 .debug_info    0x00022d6a      0x989 /home/leon/git/swp-report/iMX6_Platform_SDK/output/mx6dq/sdk_unit_test/smart_device_rev_a/libsdk_unit_test.a(i2c_test.o)
 .debug_info    0x000236f3      0xc3a /home/leon/git/swp-report/iMX6_Platform_SDK/output/mx6dq/sdk_unit_test/smart_device_rev_a/libsdk_unit_test.a(imx6_i2c_device.o)
 .debug_info    0x0002432d      0xa4f /home/leon/git/swp-report/iMX6_Platform_SDK/output/mx6dq/sdk_unit_test/smart_device_rev_a/libsdk_unit_test.a(snvs_rtc_test.o)
 .debug_info    0x00024d7c      0x9ec /home/leon/git/swp-report/iMX6_Platform_SDK/output/mx6dq/sdk_unit_test/smart_device_rev_a/libsdk_unit_test.a(snvs_srtc_test.o)
 .debug_info    0x00025768      0xa04 /home/leon/git/swp-report/iMX6_Platform_SDK/output/mx6dq/sdk_unit_test/smart_device_rev_a/libsdk_unit_test.a(tempmon_test.o)
 .debug_info    0x0002616c      0x9f7 /home/leon/git/swp-report/iMX6_Platform_SDK/output/mx6dq/sdk_unit_test/smart_device_rev_a/libsdk_unit_test.a(sdma_test.o)
 .debug_info    0x00026b63      0x4b3 /home/leon/git/swp-report/iMX6_Platform_SDK/output/mx6dq/sdk_unit_test/smart_device_rev_a/libsdk_unit_test.a(spi_lpb.o)
 .debug_info    0x00027016      0x577 /home/leon/git/swp-report/iMX6_Platform_SDK/output/mx6dq/sdk_unit_test/smart_device_rev_a/libsdk_unit_test.a(uart_loopback.o)
 .debug_info    0x0002758d      0xad8 /home/leon/git/swp-report/iMX6_Platform_SDK/output/mx6dq/sdk_unit_test/smart_device_rev_a/libsdk_unit_test.a(uart_test.o)
 .debug_info    0x00028065      0xac5 /home/leon/git/swp-report/iMX6_Platform_SDK/output/mx6dq/sdk_unit_test/smart_device_rev_a/libsdk_unit_test.a(epit_test.o)
 .debug_info    0x00028b2a      0xd60 /home/leon/git/swp-report/iMX6_Platform_SDK/output/mx6dq/sdk_unit_test/smart_device_rev_a/libsdk_unit_test.a(gpt_test.o)
 .debug_info    0x0002988a       0xca /home/leon/git/swp-report/iMX6_Platform_SDK/output/mx6dq/sdk_unit_test/smart_device_rev_a/libsdk_unit_test.a(timer_test.o)
 .debug_info    0x00029954      0xd3f /home/leon/git/swp-report/iMX6_Platform_SDK/output/mx6dq/sdk_unit_test/smart_device_rev_a/libsdk_unit_test.a(usdhc_test.o)
 .debug_info    0x0002a693      0xa45 /home/leon/git/swp-report/iMX6_Platform_SDK/output/mx6dq/sdk_unit_test/smart_device_rev_a/libsdk_unit_test.a(pwm_test.o)
 .debug_info    0x0002b0d8      0xa3d /home/leon/git/swp-report/iMX6_Platform_SDK/output/mx6dq/sdk_unit_test/smart_device_rev_a/libsdk_unit_test.a(watchdog_test.o)
 .debug_info    0x0002bb15     0x10f1 /home/leon/git/swp-report/iMX6_Platform_SDK/output/mx6dq/sdk_unit_test/smart_device_rev_a/libsdk_unit_test.a(hdmi_test.o)
 .debug_info    0x0002cc06     0x1059 /home/leon/git/swp-report/iMX6_Platform_SDK/output/mx6dq/sdk_unit_test/smart_device_rev_a/libsdk_unit_test.a(ips_display.o)
 .debug_info    0x0002dc5f      0xbfb /home/leon/git/swp-report/iMX6_Platform_SDK/output/mx6dq/sdk_unit_test/smart_device_rev_a/libsdk_unit_test.a(ips_test.o)
 .debug_info    0x0002e85a      0x50d /home/leon/git/swp-report/iMX6_Platform_SDK/output/mx6dq/sdk_unit_test/smart_device_rev_a/libsdk_unit_test.a(ipu_image.o)
 .debug_info    0x0002ed67      0xa2b /home/leon/git/swp-report/iMX6_Platform_SDK/output/mx6dq/sdk_unit_test/smart_device_rev_a/libsdk_unit_test.a(keypad_test.o)
 .debug_info    0x0002f792      0xa84 /home/leon/git/swp-report/iMX6_Platform_SDK/output/mx6dq/sdk_unit_test/smart_device_rev_a/libsdk_unit_test.a(camera_test.o)
 .debug_info    0x00030216      0xc1b /home/leon/git/swp-report/iMX6_Platform_SDK/output/mx6dq/sdk_unit_test/smart_device_rev_a/libsdk_unit_test.a(csi_test_mode.o)
 .debug_info    0x00030e31      0xdc2 /home/leon/git/swp-report/iMX6_Platform_SDK/output/mx6dq/sdk_unit_test/smart_device_rev_a/libsdk_unit_test.a(sensor_capture.o)
 .debug_info    0x00031bf3      0xc02 /home/leon/git/swp-report/iMX6_Platform_SDK/output/mx6dq/sdk_unit_test/smart_device_rev_a/libsdk_unit_test.a(pcie_test_rc.o)
 .debug_info    0x000327f5      0x1bc /home/leon/git/swp-report/iMX6_Platform_SDK/output/mx6dq/sdk_unit_test/smart_device_rev_a/libsdk_unit_test.a(usb_test.o)
 .debug_info    0x000329b1     0x1d60 /home/leon/git/swp-report/iMX6_Platform_SDK/output/mx6dq/sdk_unit_test/smart_device_rev_a/libsdk_unit_test.a(enet_test.o)
 .debug_info    0x00034711      0xbcf /home/leon/git/swp-report/iMX6_Platform_SDK/output/mx6dq/sdk_unit_test/smart_device_rev_a/libsdk_unit_test.a(spi_test.o)
 .debug_info    0x000352e0      0xaec /home/leon/git/swp-report/iMX6_Platform_SDK/output/mx6dq/sdk_unit_test/smart_device_rev_a/libsdk_unit_test.a(accelerometer_test.o)
 .debug_info    0x00035dcc      0xb9f /home/leon/git/swp-report/iMX6_Platform_SDK/output/mx6dq/sdk_unit_test/smart_device_rev_a/libsdk_unit_test.a(sata_test.o)
 .debug_info    0x0003696b      0x2ee /home/leon/git/swp-report/iMX6_Platform_SDK/output/mx6dq/sdk_unit_test/smart_device_rev_a/libsdk_unit_test.a(at24cxx.o)
 .debug_info    0x00036c59      0x3ee /home/leon/git/swp-report/iMX6_Platform_SDK/output/mx6dq/sdk_unit_test/smart_device_rev_a/libsdk_unit_test.a(mem_2_mem.o)
 .debug_info    0x00037047      0x243 /home/leon/git/swp-report/iMX6_Platform_SDK/output/mx6dq/sdk_unit_test/smart_device_rev_a/libsdk_unit_test.a(pwm_output.o)
 .debug_info    0x0003728a      0x37c /home/leon/git/swp-report/iMX6_Platform_SDK/output/mx6dq/sdk_unit_test/smart_device_rev_a/libsdk_unit_test.a(init_dma_data.o)
 .debug_info    0x00037606      0xc2b /home/leon/git/swp-report/iMX6_Platform_SDK/output/mx6dq/sdk_unit_test/smart_device_rev_a/libsdk_unit_test.a(ips_combiner.o)
 .debug_info    0x00038231      0xe67 /home/leon/git/swp-report/iMX6_Platform_SDK/output/mx6dq/sdk_unit_test/smart_device_rev_a/libsdk_unit_test.a(ips_csc.o)
 .debug_info    0x00039098      0xf5b /home/leon/git/swp-report/iMX6_Platform_SDK/output/mx6dq/sdk_unit_test/smart_device_rev_a/libsdk_unit_test.a(ips_resize.o)
 .debug_info    0x00039ff3      0xe27 /home/leon/git/swp-report/iMX6_Platform_SDK/output/mx6dq/sdk_unit_test/smart_device_rev_a/libsdk_unit_test.a(ips_rotate.o)
 .debug_info    0x0003ae1a     0x2a82 /home/leon/git/swp-report/iMX6_Platform_SDK/output/mx6dq/sdk_unit_test/smart_device_rev_a/libsdk_unit_test.a(usb0_device_mouse_test.o)
 .debug_info    0x0003d89c     0x19b5 /home/leon/git/swp-report/iMX6_Platform_SDK/output/mx6dq/sdk_unit_test/smart_device_rev_a/libsdk_unit_test.a(usb0_host_test.o)
 .debug_info    0x0003f251      0x987 /home/leon/git/swp-report/iMX6_Platform_SDK/output/mx6dq/sdk_unit_test/smart_device_rev_a/libsdk_unit_test.a(usb0_host_testmodes_test.o)
 .debug_info    0x0003fbd8      0x359 /home/leon/git/swp-report/iMX6_Platform_SDK/output/mx6dq/sdk_unit_test/smart_device_rev_a/libsdk_unit_test.a(spi_nor_numonyx.o)
 .debug_info    0x0003ff31       0x6c /home/leon/git/swp-report/iMX6_Platform_SDK/output/mx6dq/lib/libsdk.a(profile.o)
 .debug_info    0x0003ff9d      0x4cd /home/leon/git/swp-report/iMX6_Platform_SDK/output/mx6dq/lib/libsdk.a(armv7_cache.o)
 .debug_info    0x0004046a      0x804 /home/leon/git/swp-report/iMX6_Platform_SDK/output/mx6dq/lib/libsdk.a(runtime_support.o)
 .debug_info    0x00040c6e      0x470 /home/leon/git/swp-report/iMX6_Platform_SDK/output/mx6dq/lib/libsdk.a(mma8451.o)
 .debug_info    0x000410de      0x857 /home/leon/git/swp-report/iMX6_Platform_SDK/output/mx6dq/lib/libsdk.a(smd_sensor.o)
 .debug_info    0x00041935      0x141 /home/leon/git/swp-report/iMX6_Platform_SDK/output/mx6dq/lib/libsdk.a(cpu_get_cores.o)
 .debug_info    0x00041a76      0x58c /home/leon/git/swp-report/iMX6_Platform_SDK/output/mx6dq/lib/libsdk.a(cpu_multicore.o)
 .debug_info    0x00042002      0x43e /home/leon/git/swp-report/iMX6_Platform_SDK/output/mx6dq/lib/libsdk.a(cpu_workpoint.o)
 .debug_info    0x00042440     0x21ec /home/leon/git/swp-report/iMX6_Platform_SDK/output/mx6dq/lib/libsdk.a(enet_drv.o)
 .debug_info    0x0004462c      0x871 /home/leon/git/swp-report/iMX6_Platform_SDK/output/mx6dq/lib/libsdk.a(gpio.o)
 .debug_info    0x00044e9d       0x9f /home/leon/git/swp-report/iMX6_Platform_SDK/output/mx6dq/lib/libsdk.a(imx6dq_gpio_map.o)
 .debug_info    0x00044f3c     0x1f32 /home/leon/git/swp-report/iMX6_Platform_SDK/output/mx6dq/lib/libsdk.a(hdmi_tx.o)
 .debug_info    0x00046e6e      0xf27 /home/leon/git/swp-report/iMX6_Platform_SDK/output/mx6dq/lib/libsdk.a(hdmi_tx_audio.o)
 .debug_info    0x00047d95      0xcb3 /home/leon/git/swp-report/iMX6_Platform_SDK/output/mx6dq/lib/libsdk.a(hdmi_tx_phy.o)
 .debug_info    0x00048a48      0xe21 /home/leon/git/swp-report/iMX6_Platform_SDK/output/mx6dq/lib/libsdk.a(imx_i2c.o)
 .debug_info    0x00049869      0x5ab /home/leon/git/swp-report/iMX6_Platform_SDK/output/mx6dq/lib/libsdk.a(imx_i2c_slave.o)
 .debug_info    0x00049e14      0x698 /home/leon/git/swp-report/iMX6_Platform_SDK/output/mx6dq/lib/libsdk.a(ips_disp_panel.o)
 .debug_info    0x0004a4ac      0xba2 /home/leon/git/swp-report/iMX6_Platform_SDK/output/mx6dq/lib/libsdk.a(ipu_common.o)
 .debug_info    0x0004b04e      0x33a /home/leon/git/swp-report/iMX6_Platform_SDK/output/mx6dq/lib/libsdk.a(ipu_csi.o)
 .debug_info    0x0004b388      0x51a /home/leon/git/swp-report/iMX6_Platform_SDK/output/mx6dq/lib/libsdk.a(ipu_dc.o)
 .debug_info    0x0004b8a2      0x74d /home/leon/git/swp-report/iMX6_Platform_SDK/output/mx6dq/lib/libsdk.a(ipu_di.o)
 .debug_info    0x0004bfef      0x1c6 /home/leon/git/swp-report/iMX6_Platform_SDK/output/mx6dq/lib/libsdk.a(ipu_dmfc.o)
 .debug_info    0x0004c1b5      0x22b /home/leon/git/swp-report/iMX6_Platform_SDK/output/mx6dq/lib/libsdk.a(ipu_dp.o)
 .debug_info    0x0004c3e0      0x7df /home/leon/git/swp-report/iMX6_Platform_SDK/output/mx6dq/lib/libsdk.a(ipu_ic.o)
 .debug_info    0x0004cbbf     0x15fd /home/leon/git/swp-report/iMX6_Platform_SDK/output/mx6dq/lib/libsdk.a(ipu_idmac.o)
 .debug_info    0x0004e1bc      0x7bd /home/leon/git/swp-report/iMX6_Platform_SDK/output/mx6dq/lib/libsdk.a(ipu_vdi.o)
 .debug_info    0x0004e979      0x92c /home/leon/git/swp-report/iMX6_Platform_SDK/output/mx6dq/lib/libsdk.a(keypad_port.o)
 .debug_info    0x0004f2a5      0x45c /home/leon/git/swp-report/iMX6_Platform_SDK/output/mx6dq/lib/libsdk.a(ldb.o)
 .debug_info    0x0004f701      0x4c9 /home/leon/git/swp-report/iMX6_Platform_SDK/output/mx6dq/lib/libsdk.a(ocotp.o)
 .debug_info    0x0004fbca      0xaf9 /home/leon/git/swp-report/iMX6_Platform_SDK/output/mx6dq/lib/libsdk.a(pcie.o)
 .debug_info    0x000506c3      0x262 /home/leon/git/swp-report/iMX6_Platform_SDK/output/mx6dq/lib/libsdk.a(pcie_phy.o)
 .debug_info    0x00050925      0x6d0 /home/leon/git/swp-report/iMX6_Platform_SDK/output/mx6dq/lib/libsdk.a(pcie_prot.o)
 .debug_info    0x00050ff5     0x3664 /home/leon/git/swp-report/iMX6_Platform_SDK/output/mx6dq/lib/libsdk.a(pmu_driver.o)
 .debug_info    0x00054659      0xb20 /home/leon/git/swp-report/iMX6_Platform_SDK/output/mx6dq/lib/libsdk.a(pwm.o)
 .debug_info    0x00055179      0x7d6 /home/leon/git/swp-report/iMX6_Platform_SDK/output/mx6dq/lib/libsdk.a(rtc.o)
 .debug_info    0x0005594f      0x778 /home/leon/git/swp-report/iMX6_Platform_SDK/output/mx6dq/lib/libsdk.a(srtc.o)
 .debug_info    0x000560c7     0x2bdf /home/leon/git/swp-report/iMX6_Platform_SDK/output/mx6dq/lib/libsdk.a(sata.o)
 .debug_info    0x00058ca6     0x126a /home/leon/git/swp-report/iMX6_Platform_SDK/output/mx6dq/lib/libsdk.a(sdma.o)
 .debug_info    0x00059f10      0x1de /home/leon/git/swp-report/iMX6_Platform_SDK/output/mx6dq/lib/libsdk.a(sdma_script_info.o)
 .debug_info    0x0005a0ee      0x6c6 /home/leon/git/swp-report/iMX6_Platform_SDK/output/mx6dq/lib/libsdk.a(snvs.o)
 .debug_info    0x0005a7b4      0x70d /home/leon/git/swp-report/iMX6_Platform_SDK/output/mx6dq/lib/libsdk.a(ecspi.o)
 .debug_info    0x0005aec1      0x86a /home/leon/git/swp-report/iMX6_Platform_SDK/output/mx6dq/lib/libsdk.a(tempmon.o)
 .debug_info    0x0005b72b      0xc85 /home/leon/git/swp-report/iMX6_Platform_SDK/output/mx6dq/lib/libsdk.a(gpt.o)
 .debug_info    0x0005c3b0     0x130c /home/leon/git/swp-report/iMX6_Platform_SDK/output/mx6dq/lib/libsdk.a(usb_common.o)
 .debug_info    0x0005d6bc     0x23a1 /home/leon/git/swp-report/iMX6_Platform_SDK/output/mx6dq/lib/libsdk.a(usbd_drv.o)
 .debug_info    0x0005fa5d     0x1d3c /home/leon/git/swp-report/iMX6_Platform_SDK/output/mx6dq/lib/libsdk.a(usbh_drv.o)
 .debug_info    0x00061799      0xf19 /home/leon/git/swp-report/iMX6_Platform_SDK/output/mx6dq/lib/libsdk.a(usdhc.o)
 .debug_info    0x000626b2     0x1b51 /home/leon/git/swp-report/iMX6_Platform_SDK/output/mx6dq/lib/libsdk.a(usdhc_host.o)
 .debug_info    0x00064203      0x9c7 /home/leon/git/swp-report/iMX6_Platform_SDK/output/mx6dq/lib/libsdk.a(usdhc_mmc.o)
 .debug_info    0x00064bca      0x680 /home/leon/git/swp-report/iMX6_Platform_SDK/output/mx6dq/lib/libsdk.a(usdhc_sd.o)
 .debug_info    0x0006524a      0x138 /home/leon/git/swp-report/iMX6_Platform_SDK/output/mx6dq/lib/libsdk.a(spinlock.o)
 .debug_info    0x00065382      0x476 /home/leon/git/swp-report/iMX6_Platform_SDK/output/mx6dq/lib/libsdk.a(camera_profile.o)
 .debug_info    0x000657f8      0x34b /home/leon/git/swp-report/iMX6_Platform_SDK/output/mx6dq/lib/libsdk.a(hdmi_common.o)
 .debug_info    0x00065b43      0x5e4 /home/leon/git/swp-report/iMX6_Platform_SDK/output/mx6dq/lib/libsdk.a(mx6x_usb.o)
 .debug_info    0x00066127      0x41f /home/leon/git/swp-report/iMX6_Platform_SDK/output/mx6dq/lib/libboard_smart_device_rev_a.a(board_audio.o)
 .debug_info    0x00066546     0x19ef /home/leon/git/swp-report/iMX6_Platform_SDK/output/mx6dq/lib/libboard_smart_device_rev_a.a(board_camera.o)
 .debug_info    0x00067f35      0x714 /home/leon/git/swp-report/iMX6_Platform_SDK/output/mx6dq/lib/libboard_smart_device_rev_a.a(board_display.o)
 .debug_info    0x00068649      0xc38 /home/leon/git/swp-report/iMX6_Platform_SDK/output/mx6dq/lib/libboard_smart_device_rev_a.a(board_hdmi.o)
 .debug_info    0x00069281      0x1d2 /home/leon/git/swp-report/iMX6_Platform_SDK/output/mx6dq/lib/libboard_smart_device_rev_a.a(board_i2c.o)
 .debug_info    0x00069453      0xa0f /home/leon/git/swp-report/iMX6_Platform_SDK/output/mx6dq/lib/libboard_smart_device_rev_a.a(board_mipi.o)
 .debug_info    0x00069e62      0x127 /home/leon/git/swp-report/iMX6_Platform_SDK/output/mx6dq/lib/libboard_smart_device_rev_a.a(board_network.o)
 .debug_info    0x00069f89      0x509 /home/leon/git/swp-report/iMX6_Platform_SDK/output/mx6dq/lib/libboard_smart_device_rev_a.a(board_pcie.o)
 .debug_info    0x0006a492      0x3e1 /home/leon/git/swp-report/iMX6_Platform_SDK/output/mx6dq/lib/libboard_smart_device_rev_a.a(board_sata.o)
 .debug_info    0x0006a873      0x1cc /home/leon/git/swp-report/iMX6_Platform_SDK/output/mx6dq/lib/libboard_smart_device_rev_a.a(board_usb.o)
 .debug_info    0x0006aa3f      0x160 /home/leon/git/swp-report/iMX6_Platform_SDK/output/mx6dq/lib/libboard_smart_device_rev_a.a(board_usdhc.o)
 .debug_info    0x0006ab9f       0xcf /home/leon/git/swp-report/iMX6_Platform_SDK/output/mx6dq/lib/libboard_smart_device_rev_a.a(ecspi_iomux_config.o)
 .debug_info    0x0006ac6e       0xcf /home/leon/git/swp-report/iMX6_Platform_SDK/output/mx6dq/lib/libboard_smart_device_rev_a.a(i2c_iomux_config.o)
 .debug_info    0x0006ad3d       0xcf /home/leon/git/swp-report/iMX6_Platform_SDK/output/mx6dq/lib/libboard_smart_device_rev_a.a(pwm_iomux_config.o)
 .debug_info    0x0006ae0c       0xcf /home/leon/git/swp-report/iMX6_Platform_SDK/output/mx6dq/lib/libboard_smart_device_rev_a.a(usdhc_iomux_config.o)
 .debug_info    0x0006aedb      0x2ed /home/leon/git/swp-report/iMX6_Platform_SDK/output/mx6dq/lib/libsdk.a(max7310.o)

.debug_abbrev   0x00000000     0xde72
 .debug_abbrev  0x00000000       0xe6 /home/leon/git/swp-report/iMX6_Platform_SDK/output/mx6dq/sdk_unit_test/smart_device_rev_a/obj/apps/common/ivt.o
 .debug_abbrev  0x000000e6       0x89 /home/leon/git/swp-report/iMX6_Platform_SDK/output/mx6dq/sdk_unit_test/smart_device_rev_a/obj/apps/common/platform_init.o
 .debug_abbrev  0x0000016f       0xa1 /home/leon/git/swp-report/iMX6_Platform_SDK/output/mx6dq/sdk_unit_test/smart_device_rev_a/obj/apps/common/print_clock_info.o
 .debug_abbrev  0x00000210       0xcf /home/leon/git/swp-report/iMX6_Platform_SDK/output/mx6dq/sdk_unit_test/smart_device_rev_a/obj/apps/common/print_version.o
 .debug_abbrev  0x000002df      0x121 /home/leon/git/swp-report/iMX6_Platform_SDK/output/mx6dq/sdk_unit_test/smart_device_rev_a/obj/apps/sdk_unit_test/src/all_test.o
 .debug_abbrev  0x00000400       0x44 /home/leon/git/swp-report/iMX6_Platform_SDK/output/mx6dq/sdk_unit_test/smart_device_rev_a/obj/apps/sdk_unit_test/src/unit_test_main.o
 .debug_abbrev  0x00000444      0x1b1 /home/leon/git/swp-report/iMX6_Platform_SDK/output/mx6dq/lib/libsdk.a(ccm_pll.o)
 .debug_abbrev  0x000005f5      0x179 /home/leon/git/swp-report/iMX6_Platform_SDK/output/mx6dq/lib/libsdk.a(gic.o)
 .debug_abbrev  0x0000076e      0x172 /home/leon/git/swp-report/iMX6_Platform_SDK/output/mx6dq/lib/libsdk.a(mmu.o)
 .debug_abbrev  0x000008e0      0x2b3 /home/leon/git/swp-report/iMX6_Platform_SDK/output/mx6dq/lib/libsdk.a(menu.o)
 .debug_abbrev  0x00000b93       0x43 /home/leon/git/swp-report/iMX6_Platform_SDK/output/mx6dq/lib/libsdk.a(sdk_version.o)
 .debug_abbrev  0x00000bd6      0x276 /home/leon/git/swp-report/iMX6_Platform_SDK/output/mx6dq/lib/libsdk.a(system_util.o)
 .debug_abbrev  0x00000e4c       0xd0 /home/leon/git/swp-report/iMX6_Platform_SDK/output/mx6dq/lib/libsdk.a(text_color.o)
 .debug_abbrev  0x00000f1c      0x13a /home/leon/git/swp-report/iMX6_Platform_SDK/output/mx6dq/lib/libsdk.a(board_id.o)
 .debug_abbrev  0x00001056      0x122 /home/leon/git/swp-report/iMX6_Platform_SDK/output/mx6dq/lib/libsdk.a(timer.o)
 .debug_abbrev  0x00001178      0x1e3 /home/leon/git/swp-report/iMX6_Platform_SDK/output/mx6dq/lib/libsdk.a(imx_uart.o)
 .debug_abbrev  0x0000135b      0x11a /home/leon/git/swp-report/iMX6_Platform_SDK/output/mx6dq/lib/libsdk.a(interrupt.o)
 .debug_abbrev  0x00001475      0x194 /home/leon/git/swp-report/iMX6_Platform_SDK/output/mx6dq/lib/libsdk.a(epit.o)
 .debug_abbrev  0x00001609       0xc8 /home/leon/git/swp-report/iMX6_Platform_SDK/output/mx6dq/lib/libsdk.a(abort_handler.o)
 .debug_abbrev  0x000016d1       0xb0 /home/leon/git/swp-report/iMX6_Platform_SDK/output/mx6dq/lib/libboard_smart_device_rev_a.a(board_io_expanders.o)
 .debug_abbrev  0x00001781       0x44 /home/leon/git/swp-report/iMX6_Platform_SDK/output/mx6dq/lib/libboard_smart_device_rev_a.a(hardware_modules.o)
 .debug_abbrev  0x000017c5       0x75 /home/leon/git/swp-report/iMX6_Platform_SDK/output/mx6dq/lib/libboard_smart_device_rev_a.a(dcd.o)
 .debug_abbrev  0x0000183a       0x79 /home/leon/git/swp-report/iMX6_Platform_SDK/output/mx6dq/lib/libboard_smart_device_rev_a.a(uart_iomux_config.o)
 .debug_abbrev  0x000018b3       0x42 /home/leon/git/swp-report/iMX6_Platform_SDK/output/mx6dq/lib/libboard_smart_device_rev_a.a(iomux_config.o)
 .debug_abbrev  0x000018f5      0x106 /home/leon/git/swp-report/iMX6_Platform_SDK/output/mx6dq/lib/libboard_smart_device_rev_a.a(ipu1_iomux_config.o)
 .debug_abbrev  0x000019fb       0xf1 /home/leon/git/swp-report/iMX6_Platform_SDK/output/mx6dq/lib/libboard_smart_device_rev_a.a(kpp_iomux_config.o)
 .debug_abbrev  0x00001aec      0x106 /home/leon/git/swp-report/iMX6_Platform_SDK/output/mx6dq/lib/libboard_smart_device_rev_a.a(mmdc_iomux_config.o)
 .debug_abbrev  0x00001bf2       0xf1 /home/leon/git/swp-report/iMX6_Platform_SDK/output/mx6dq/lib/libboard_smart_device_rev_a.a(pwm1_iomux_config.o)
 .debug_abbrev  0x00001ce3       0xa4 /home/leon/git/swp-report/iMX6_Platform_SDK/output/mx6dq/lib/libboard_smart_device_rev_a.a(sjc_iomux_config.o)
 .debug_abbrev  0x00001d87       0xf1 /home/leon/git/swp-report/iMX6_Platform_SDK/output/mx6dq/lib/libboard_smart_device_rev_a.a(uart1_iomux_config.o)
 .debug_abbrev  0x00001e78      0x106 /home/leon/git/swp-report/iMX6_Platform_SDK/output/mx6dq/lib/libboard_smart_device_rev_a.a(usdhc2_iomux_config.o)
 .debug_abbrev  0x00001f7e       0xf1 /home/leon/git/swp-report/iMX6_Platform_SDK/output/mx6dq/lib/libboard_smart_device_rev_a.a(usdhc3_iomux_config.o)
 .debug_abbrev  0x0000206f       0xf1 /home/leon/git/swp-report/iMX6_Platform_SDK/output/mx6dq/lib/libboard_smart_device_rev_a.a(usdhc4_iomux_config.o)
 .debug_abbrev  0x00002160       0xf1 /home/leon/git/swp-report/iMX6_Platform_SDK/output/mx6dq/lib/libboard_smart_device_rev_a.a(audmux_iomux_config.o)
 .debug_abbrev  0x00002251       0xf1 /home/leon/git/swp-report/iMX6_Platform_SDK/output/mx6dq/lib/libboard_smart_device_rev_a.a(ccm_iomux_config.o)
 .debug_abbrev  0x00002342       0xf1 /home/leon/git/swp-report/iMX6_Platform_SDK/output/mx6dq/lib/libboard_smart_device_rev_a.a(ecspi1_iomux_config.o)
 .debug_abbrev  0x00002433      0x106 /home/leon/git/swp-report/iMX6_Platform_SDK/output/mx6dq/lib/libboard_smart_device_rev_a.a(enet_iomux_config.o)
 .debug_abbrev  0x00002539       0xf1 /home/leon/git/swp-report/iMX6_Platform_SDK/output/mx6dq/lib/libboard_smart_device_rev_a.a(flexcan1_iomux_config.o)
 .debug_abbrev  0x0000262a      0x106 /home/leon/git/swp-report/iMX6_Platform_SDK/output/mx6dq/lib/libboard_smart_device_rev_a.a(gpio1_iomux_config.o)
 .debug_abbrev  0x00002730      0x106 /home/leon/git/swp-report/iMX6_Platform_SDK/output/mx6dq/lib/libboard_smart_device_rev_a.a(gpio2_iomux_config.o)
 .debug_abbrev  0x00002836       0xa4 /home/leon/git/swp-report/iMX6_Platform_SDK/output/mx6dq/lib/libboard_smart_device_rev_a.a(gpio3_iomux_config.o)
 .debug_abbrev  0x000028da       0xf1 /home/leon/git/swp-report/iMX6_Platform_SDK/output/mx6dq/lib/libboard_smart_device_rev_a.a(gpio4_iomux_config.o)
 .debug_abbrev  0x000029cb       0xa4 /home/leon/git/swp-report/iMX6_Platform_SDK/output/mx6dq/lib/libboard_smart_device_rev_a.a(gpio5_iomux_config.o)
 .debug_abbrev  0x00002a6f      0x106 /home/leon/git/swp-report/iMX6_Platform_SDK/output/mx6dq/lib/libboard_smart_device_rev_a.a(gpio6_iomux_config.o)
 .debug_abbrev  0x00002b75       0xf1 /home/leon/git/swp-report/iMX6_Platform_SDK/output/mx6dq/lib/libboard_smart_device_rev_a.a(gpio7_iomux_config.o)
 .debug_abbrev  0x00002c66       0xf1 /home/leon/git/swp-report/iMX6_Platform_SDK/output/mx6dq/lib/libboard_smart_device_rev_a.a(gps_iomux_config.o)
 .debug_abbrev  0x00002d57       0xf1 /home/leon/git/swp-report/iMX6_Platform_SDK/output/mx6dq/lib/libboard_smart_device_rev_a.a(i2c1_iomux_config.o)
 .debug_abbrev  0x00002e48       0xf1 /home/leon/git/swp-report/iMX6_Platform_SDK/output/mx6dq/lib/libboard_smart_device_rev_a.a(i2c2_iomux_config.o)
 .debug_abbrev  0x00002f39       0xf1 /home/leon/git/swp-report/iMX6_Platform_SDK/output/mx6dq/lib/libboard_smart_device_rev_a.a(i2c3_iomux_config.o)
 .debug_abbrev  0x0000302a       0xf1 /home/leon/git/swp-report/iMX6_Platform_SDK/output/mx6dq/sdk_unit_test/smart_device_rev_a/libsdk_unit_test.a(cpu_wp_test.o)
 .debug_abbrev  0x0000311b       0xb7 /home/leon/git/swp-report/iMX6_Platform_SDK/output/mx6dq/sdk_unit_test/smart_device_rev_a/libsdk_unit_test.a(multicore_test.o)
 .debug_abbrev  0x000031d2      0x1e0 /home/leon/git/swp-report/iMX6_Platform_SDK/output/mx6dq/sdk_unit_test/smart_device_rev_a/libsdk_unit_test.a(audio_test.o)
 .debug_abbrev  0x000033b2       0x78 /home/leon/git/swp-report/iMX6_Platform_SDK/output/mx6dq/sdk_unit_test/smart_device_rev_a/libsdk_unit_test.a(gic_test.o)
 .debug_abbrev  0x0000342a      0x191 /home/leon/git/swp-report/iMX6_Platform_SDK/output/mx6dq/sdk_unit_test/smart_device_rev_a/libsdk_unit_test.a(ocotp_test.o)
 .debug_abbrev  0x000035bb      0x182 /home/leon/git/swp-report/iMX6_Platform_SDK/output/mx6dq/sdk_unit_test/smart_device_rev_a/libsdk_unit_test.a(i2c_test.o)
 .debug_abbrev  0x0000373d      0x1d4 /home/leon/git/swp-report/iMX6_Platform_SDK/output/mx6dq/sdk_unit_test/smart_device_rev_a/libsdk_unit_test.a(imx6_i2c_device.o)
 .debug_abbrev  0x00003911      0x1d4 /home/leon/git/swp-report/iMX6_Platform_SDK/output/mx6dq/sdk_unit_test/smart_device_rev_a/libsdk_unit_test.a(snvs_rtc_test.o)
 .debug_abbrev  0x00003ae5      0x1d4 /home/leon/git/swp-report/iMX6_Platform_SDK/output/mx6dq/sdk_unit_test/smart_device_rev_a/libsdk_unit_test.a(snvs_srtc_test.o)
 .debug_abbrev  0x00003cb9      0x1a7 /home/leon/git/swp-report/iMX6_Platform_SDK/output/mx6dq/sdk_unit_test/smart_device_rev_a/libsdk_unit_test.a(tempmon_test.o)
 .debug_abbrev  0x00003e60      0x19a /home/leon/git/swp-report/iMX6_Platform_SDK/output/mx6dq/sdk_unit_test/smart_device_rev_a/libsdk_unit_test.a(sdma_test.o)
 .debug_abbrev  0x00003ffa      0x102 /home/leon/git/swp-report/iMX6_Platform_SDK/output/mx6dq/sdk_unit_test/smart_device_rev_a/libsdk_unit_test.a(spi_lpb.o)
 .debug_abbrev  0x000040fc      0x196 /home/leon/git/swp-report/iMX6_Platform_SDK/output/mx6dq/sdk_unit_test/smart_device_rev_a/libsdk_unit_test.a(uart_loopback.o)
 .debug_abbrev  0x00004292      0x1db /home/leon/git/swp-report/iMX6_Platform_SDK/output/mx6dq/sdk_unit_test/smart_device_rev_a/libsdk_unit_test.a(uart_test.o)
 .debug_abbrev  0x0000446d      0x1de /home/leon/git/swp-report/iMX6_Platform_SDK/output/mx6dq/sdk_unit_test/smart_device_rev_a/libsdk_unit_test.a(epit_test.o)
 .debug_abbrev  0x0000464b      0x275 /home/leon/git/swp-report/iMX6_Platform_SDK/output/mx6dq/sdk_unit_test/smart_device_rev_a/libsdk_unit_test.a(gpt_test.o)
 .debug_abbrev  0x000048c0       0x5e /home/leon/git/swp-report/iMX6_Platform_SDK/output/mx6dq/sdk_unit_test/smart_device_rev_a/libsdk_unit_test.a(timer_test.o)
 .debug_abbrev  0x0000491e      0x243 /home/leon/git/swp-report/iMX6_Platform_SDK/output/mx6dq/sdk_unit_test/smart_device_rev_a/libsdk_unit_test.a(usdhc_test.o)
 .debug_abbrev  0x00004b61      0x1b2 /home/leon/git/swp-report/iMX6_Platform_SDK/output/mx6dq/sdk_unit_test/smart_device_rev_a/libsdk_unit_test.a(pwm_test.o)
 .debug_abbrev  0x00004d13      0x1b0 /home/leon/git/swp-report/iMX6_Platform_SDK/output/mx6dq/sdk_unit_test/smart_device_rev_a/libsdk_unit_test.a(watchdog_test.o)
 .debug_abbrev  0x00004ec3      0x15c /home/leon/git/swp-report/iMX6_Platform_SDK/output/mx6dq/sdk_unit_test/smart_device_rev_a/libsdk_unit_test.a(hdmi_test.o)
 .debug_abbrev  0x0000501f      0x1fe /home/leon/git/swp-report/iMX6_Platform_SDK/output/mx6dq/sdk_unit_test/smart_device_rev_a/libsdk_unit_test.a(ips_display.o)
 .debug_abbrev  0x0000521d      0x19a /home/leon/git/swp-report/iMX6_Platform_SDK/output/mx6dq/sdk_unit_test/smart_device_rev_a/libsdk_unit_test.a(ips_test.o)
 .debug_abbrev  0x000053b7      0x10d /home/leon/git/swp-report/iMX6_Platform_SDK/output/mx6dq/sdk_unit_test/smart_device_rev_a/libsdk_unit_test.a(ipu_image.o)
 .debug_abbrev  0x000054c4      0x18f /home/leon/git/swp-report/iMX6_Platform_SDK/output/mx6dq/sdk_unit_test/smart_device_rev_a/libsdk_unit_test.a(keypad_test.o)
 .debug_abbrev  0x00005653      0x1d4 /home/leon/git/swp-report/iMX6_Platform_SDK/output/mx6dq/sdk_unit_test/smart_device_rev_a/libsdk_unit_test.a(camera_test.o)
 .debug_abbrev  0x00005827      0x1c1 /home/leon/git/swp-report/iMX6_Platform_SDK/output/mx6dq/sdk_unit_test/smart_device_rev_a/libsdk_unit_test.a(csi_test_mode.o)
 .debug_abbrev  0x000059e8      0x1cc /home/leon/git/swp-report/iMX6_Platform_SDK/output/mx6dq/sdk_unit_test/smart_device_rev_a/libsdk_unit_test.a(sensor_capture.o)
 .debug_abbrev  0x00005bb4      0x1d0 /home/leon/git/swp-report/iMX6_Platform_SDK/output/mx6dq/sdk_unit_test/smart_device_rev_a/libsdk_unit_test.a(pcie_test_rc.o)
 .debug_abbrev  0x00005d84       0xc1 /home/leon/git/swp-report/iMX6_Platform_SDK/output/mx6dq/sdk_unit_test/smart_device_rev_a/libsdk_unit_test.a(usb_test.o)
 .debug_abbrev  0x00005e45      0x216 /home/leon/git/swp-report/iMX6_Platform_SDK/output/mx6dq/sdk_unit_test/smart_device_rev_a/libsdk_unit_test.a(enet_test.o)
 .debug_abbrev  0x0000605b      0x1f0 /home/leon/git/swp-report/iMX6_Platform_SDK/output/mx6dq/sdk_unit_test/smart_device_rev_a/libsdk_unit_test.a(spi_test.o)
 .debug_abbrev  0x0000624b      0x1bf /home/leon/git/swp-report/iMX6_Platform_SDK/output/mx6dq/sdk_unit_test/smart_device_rev_a/libsdk_unit_test.a(accelerometer_test.o)
 .debug_abbrev  0x0000640a      0x227 /home/leon/git/swp-report/iMX6_Platform_SDK/output/mx6dq/sdk_unit_test/smart_device_rev_a/libsdk_unit_test.a(sata_test.o)
 .debug_abbrev  0x00006631      0x124 /home/leon/git/swp-report/iMX6_Platform_SDK/output/mx6dq/sdk_unit_test/smart_device_rev_a/libsdk_unit_test.a(at24cxx.o)
 .debug_abbrev  0x00006755       0xe5 /home/leon/git/swp-report/iMX6_Platform_SDK/output/mx6dq/sdk_unit_test/smart_device_rev_a/libsdk_unit_test.a(mem_2_mem.o)
 .debug_abbrev  0x0000683a      0x10b /home/leon/git/swp-report/iMX6_Platform_SDK/output/mx6dq/sdk_unit_test/smart_device_rev_a/libsdk_unit_test.a(pwm_output.o)
 .debug_abbrev  0x00006945      0x117 /home/leon/git/swp-report/iMX6_Platform_SDK/output/mx6dq/sdk_unit_test/smart_device_rev_a/libsdk_unit_test.a(init_dma_data.o)
 .debug_abbrev  0x00006a5c      0x1bd /home/leon/git/swp-report/iMX6_Platform_SDK/output/mx6dq/sdk_unit_test/smart_device_rev_a/libsdk_unit_test.a(ips_combiner.o)
 .debug_abbrev  0x00006c19      0x1d5 /home/leon/git/swp-report/iMX6_Platform_SDK/output/mx6dq/sdk_unit_test/smart_device_rev_a/libsdk_unit_test.a(ips_csc.o)
 .debug_abbrev  0x00006dee      0x1ce /home/leon/git/swp-report/iMX6_Platform_SDK/output/mx6dq/sdk_unit_test/smart_device_rev_a/libsdk_unit_test.a(ips_resize.o)
 .debug_abbrev  0x00006fbc      0x1ce /home/leon/git/swp-report/iMX6_Platform_SDK/output/mx6dq/sdk_unit_test/smart_device_rev_a/libsdk_unit_test.a(ips_rotate.o)
 .debug_abbrev  0x0000718a      0x26c /home/leon/git/swp-report/iMX6_Platform_SDK/output/mx6dq/sdk_unit_test/smart_device_rev_a/libsdk_unit_test.a(usb0_device_mouse_test.o)
 .debug_abbrev  0x000073f6      0x1b7 /home/leon/git/swp-report/iMX6_Platform_SDK/output/mx6dq/sdk_unit_test/smart_device_rev_a/libsdk_unit_test.a(usb0_host_test.o)
 .debug_abbrev  0x000075ad      0x129 /home/leon/git/swp-report/iMX6_Platform_SDK/output/mx6dq/sdk_unit_test/smart_device_rev_a/libsdk_unit_test.a(usb0_host_testmodes_test.o)
 .debug_abbrev  0x000076d6      0x15b /home/leon/git/swp-report/iMX6_Platform_SDK/output/mx6dq/sdk_unit_test/smart_device_rev_a/libsdk_unit_test.a(spi_nor_numonyx.o)
 .debug_abbrev  0x00007831       0x60 /home/leon/git/swp-report/iMX6_Platform_SDK/output/mx6dq/lib/libsdk.a(profile.o)
 .debug_abbrev  0x00007891      0x133 /home/leon/git/swp-report/iMX6_Platform_SDK/output/mx6dq/lib/libsdk.a(armv7_cache.o)
 .debug_abbrev  0x000079c4      0x1e2 /home/leon/git/swp-report/iMX6_Platform_SDK/output/mx6dq/lib/libsdk.a(runtime_support.o)
 .debug_abbrev  0x00007ba6       0xf9 /home/leon/git/swp-report/iMX6_Platform_SDK/output/mx6dq/lib/libsdk.a(mma8451.o)
 .debug_abbrev  0x00007c9f      0x19d /home/leon/git/swp-report/iMX6_Platform_SDK/output/mx6dq/lib/libsdk.a(smd_sensor.o)
 .debug_abbrev  0x00007e3c       0xc5 /home/leon/git/swp-report/iMX6_Platform_SDK/output/mx6dq/lib/libsdk.a(cpu_get_cores.o)
 .debug_abbrev  0x00007f01      0x187 /home/leon/git/swp-report/iMX6_Platform_SDK/output/mx6dq/lib/libsdk.a(cpu_multicore.o)
 .debug_abbrev  0x00008088      0x15c /home/leon/git/swp-report/iMX6_Platform_SDK/output/mx6dq/lib/libsdk.a(cpu_workpoint.o)
 .debug_abbrev  0x000081e4      0x2d8 /home/leon/git/swp-report/iMX6_Platform_SDK/output/mx6dq/lib/libsdk.a(enet_drv.o)
 .debug_abbrev  0x000084bc      0x228 /home/leon/git/swp-report/iMX6_Platform_SDK/output/mx6dq/lib/libsdk.a(gpio.o)
 .debug_abbrev  0x000086e4       0x5b /home/leon/git/swp-report/iMX6_Platform_SDK/output/mx6dq/lib/libsdk.a(imx6dq_gpio_map.o)
 .debug_abbrev  0x0000873f      0x1af /home/leon/git/swp-report/iMX6_Platform_SDK/output/mx6dq/lib/libsdk.a(hdmi_tx.o)
 .debug_abbrev  0x000088ee      0x1c1 /home/leon/git/swp-report/iMX6_Platform_SDK/output/mx6dq/lib/libsdk.a(hdmi_tx_audio.o)
 .debug_abbrev  0x00008aaf      0x180 /home/leon/git/swp-report/iMX6_Platform_SDK/output/mx6dq/lib/libsdk.a(hdmi_tx_phy.o)
 .debug_abbrev  0x00008c2f      0x2c9 /home/leon/git/swp-report/iMX6_Platform_SDK/output/mx6dq/lib/libsdk.a(imx_i2c.o)
 .debug_abbrev  0x00008ef8      0x199 /home/leon/git/swp-report/iMX6_Platform_SDK/output/mx6dq/lib/libsdk.a(imx_i2c_slave.o)
 .debug_abbrev  0x00009091      0x1ac /home/leon/git/swp-report/iMX6_Platform_SDK/output/mx6dq/lib/libsdk.a(ips_disp_panel.o)
 .debug_abbrev  0x0000923d      0x212 /home/leon/git/swp-report/iMX6_Platform_SDK/output/mx6dq/lib/libsdk.a(ipu_common.o)
 .debug_abbrev  0x0000944f       0xf9 /home/leon/git/swp-report/iMX6_Platform_SDK/output/mx6dq/lib/libsdk.a(ipu_csi.o)
 .debug_abbrev  0x00009548      0x164 /home/leon/git/swp-report/iMX6_Platform_SDK/output/mx6dq/lib/libsdk.a(ipu_dc.o)
 .debug_abbrev  0x000096ac      0x1ac /home/leon/git/swp-report/iMX6_Platform_SDK/output/mx6dq/lib/libsdk.a(ipu_di.o)
 .debug_abbrev  0x00009858       0x8e /home/leon/git/swp-report/iMX6_Platform_SDK/output/mx6dq/lib/libsdk.a(ipu_dmfc.o)
 .debug_abbrev  0x000098e6       0xc7 /home/leon/git/swp-report/iMX6_Platform_SDK/output/mx6dq/lib/libsdk.a(ipu_dp.o)
 .debug_abbrev  0x000099ad      0x171 /home/leon/git/swp-report/iMX6_Platform_SDK/output/mx6dq/lib/libsdk.a(ipu_ic.o)
 .debug_abbrev  0x00009b1e      0x20c /home/leon/git/swp-report/iMX6_Platform_SDK/output/mx6dq/lib/libsdk.a(ipu_idmac.o)
 .debug_abbrev  0x00009d2a      0x161 /home/leon/git/swp-report/iMX6_Platform_SDK/output/mx6dq/lib/libsdk.a(ipu_vdi.o)
 .debug_abbrev  0x00009e8b      0x1ca /home/leon/git/swp-report/iMX6_Platform_SDK/output/mx6dq/lib/libsdk.a(keypad_port.o)
 .debug_abbrev  0x0000a055      0x144 /home/leon/git/swp-report/iMX6_Platform_SDK/output/mx6dq/lib/libsdk.a(ldb.o)
 .debug_abbrev  0x0000a199      0x1ae /home/leon/git/swp-report/iMX6_Platform_SDK/output/mx6dq/lib/libsdk.a(ocotp.o)
 .debug_abbrev  0x0000a347      0x215 /home/leon/git/swp-report/iMX6_Platform_SDK/output/mx6dq/lib/libsdk.a(pcie.o)
 .debug_abbrev  0x0000a55c      0x124 /home/leon/git/swp-report/iMX6_Platform_SDK/output/mx6dq/lib/libsdk.a(pcie_phy.o)
 .debug_abbrev  0x0000a680      0x142 /home/leon/git/swp-report/iMX6_Platform_SDK/output/mx6dq/lib/libsdk.a(pcie_prot.o)
 .debug_abbrev  0x0000a7c2      0x52d /home/leon/git/swp-report/iMX6_Platform_SDK/output/mx6dq/lib/libsdk.a(pmu_driver.o)
 .debug_abbrev  0x0000acef      0x1f8 /home/leon/git/swp-report/iMX6_Platform_SDK/output/mx6dq/lib/libsdk.a(pwm.o)
 .debug_abbrev  0x0000aee7      0x162 /home/leon/git/swp-report/iMX6_Platform_SDK/output/mx6dq/lib/libsdk.a(rtc.o)
 .debug_abbrev  0x0000b049      0x162 /home/leon/git/swp-report/iMX6_Platform_SDK/output/mx6dq/lib/libsdk.a(srtc.o)
 .debug_abbrev  0x0000b1ab      0x39f /home/leon/git/swp-report/iMX6_Platform_SDK/output/mx6dq/lib/libsdk.a(sata.o)
 .debug_abbrev  0x0000b54a      0x2f2 /home/leon/git/swp-report/iMX6_Platform_SDK/output/mx6dq/lib/libsdk.a(sdma.o)
 .debug_abbrev  0x0000b83c       0xbd /home/leon/git/swp-report/iMX6_Platform_SDK/output/mx6dq/lib/libsdk.a(sdma_script_info.o)
 .debug_abbrev  0x0000b8f9       0xf4 /home/leon/git/swp-report/iMX6_Platform_SDK/output/mx6dq/lib/libsdk.a(snvs.o)
 .debug_abbrev  0x0000b9ed      0x1f9 /home/leon/git/swp-report/iMX6_Platform_SDK/output/mx6dq/lib/libsdk.a(ecspi.o)
 .debug_abbrev  0x0000bbe6      0x1c9 /home/leon/git/swp-report/iMX6_Platform_SDK/output/mx6dq/lib/libsdk.a(tempmon.o)
 .debug_abbrev  0x0000bdaf      0x1f1 /home/leon/git/swp-report/iMX6_Platform_SDK/output/mx6dq/lib/libsdk.a(gpt.o)
 .debug_abbrev  0x0000bfa0      0x223 /home/leon/git/swp-report/iMX6_Platform_SDK/output/mx6dq/lib/libsdk.a(usb_common.o)
 .debug_abbrev  0x0000c1c3      0x21a /home/leon/git/swp-report/iMX6_Platform_SDK/output/mx6dq/lib/libsdk.a(usbd_drv.o)
 .debug_abbrev  0x0000c3dd      0x1c8 /home/leon/git/swp-report/iMX6_Platform_SDK/output/mx6dq/lib/libsdk.a(usbh_drv.o)
 .debug_abbrev  0x0000c5a5      0x20c /home/leon/git/swp-report/iMX6_Platform_SDK/output/mx6dq/lib/libsdk.a(usdhc.o)
 .debug_abbrev  0x0000c7b1      0x296 /home/leon/git/swp-report/iMX6_Platform_SDK/output/mx6dq/lib/libsdk.a(usdhc_host.o)
 .debug_abbrev  0x0000ca47      0x1ac /home/leon/git/swp-report/iMX6_Platform_SDK/output/mx6dq/lib/libsdk.a(usdhc_mmc.o)
 .debug_abbrev  0x0000cbf3      0x143 /home/leon/git/swp-report/iMX6_Platform_SDK/output/mx6dq/lib/libsdk.a(usdhc_sd.o)
 .debug_abbrev  0x0000cd36       0xc9 /home/leon/git/swp-report/iMX6_Platform_SDK/output/mx6dq/lib/libsdk.a(spinlock.o)
 .debug_abbrev  0x0000cdff       0xab /home/leon/git/swp-report/iMX6_Platform_SDK/output/mx6dq/lib/libsdk.a(camera_profile.o)
 .debug_abbrev  0x0000ceaa       0xb9 /home/leon/git/swp-report/iMX6_Platform_SDK/output/mx6dq/lib/libsdk.a(hdmi_common.o)
 .debug_abbrev  0x0000cf63      0x155 /home/leon/git/swp-report/iMX6_Platform_SDK/output/mx6dq/lib/libsdk.a(mx6x_usb.o)
 .debug_abbrev  0x0000d0b8      0x109 /home/leon/git/swp-report/iMX6_Platform_SDK/output/mx6dq/lib/libboard_smart_device_rev_a.a(board_audio.o)
 .debug_abbrev  0x0000d1c1      0x175 /home/leon/git/swp-report/iMX6_Platform_SDK/output/mx6dq/lib/libboard_smart_device_rev_a.a(board_camera.o)
 .debug_abbrev  0x0000d336      0x13a /home/leon/git/swp-report/iMX6_Platform_SDK/output/mx6dq/lib/libboard_smart_device_rev_a.a(board_display.o)
 .debug_abbrev  0x0000d470      0x152 /home/leon/git/swp-report/iMX6_Platform_SDK/output/mx6dq/lib/libboard_smart_device_rev_a.a(board_hdmi.o)
 .debug_abbrev  0x0000d5c2       0x69 /home/leon/git/swp-report/iMX6_Platform_SDK/output/mx6dq/lib/libboard_smart_device_rev_a.a(board_i2c.o)
 .debug_abbrev  0x0000d62b      0x141 /home/leon/git/swp-report/iMX6_Platform_SDK/output/mx6dq/lib/libboard_smart_device_rev_a.a(board_mipi.o)
 .debug_abbrev  0x0000d76c       0x86 /home/leon/git/swp-report/iMX6_Platform_SDK/output/mx6dq/lib/libboard_smart_device_rev_a.a(board_network.o)
 .debug_abbrev  0x0000d7f2      0x119 /home/leon/git/swp-report/iMX6_Platform_SDK/output/mx6dq/lib/libboard_smart_device_rev_a.a(board_pcie.o)
 .debug_abbrev  0x0000d90b      0x102 /home/leon/git/swp-report/iMX6_Platform_SDK/output/mx6dq/lib/libboard_smart_device_rev_a.a(board_sata.o)
 .debug_abbrev  0x0000da0d       0xcd /home/leon/git/swp-report/iMX6_Platform_SDK/output/mx6dq/lib/libboard_smart_device_rev_a.a(board_usb.o)
 .debug_abbrev  0x0000dada       0xbb /home/leon/git/swp-report/iMX6_Platform_SDK/output/mx6dq/lib/libboard_smart_device_rev_a.a(board_usdhc.o)
 .debug_abbrev  0x0000db95       0x79 /home/leon/git/swp-report/iMX6_Platform_SDK/output/mx6dq/lib/libboard_smart_device_rev_a.a(ecspi_iomux_config.o)
 .debug_abbrev  0x0000dc0e       0x79 /home/leon/git/swp-report/iMX6_Platform_SDK/output/mx6dq/lib/libboard_smart_device_rev_a.a(i2c_iomux_config.o)
 .debug_abbrev  0x0000dc87       0x79 /home/leon/git/swp-report/iMX6_Platform_SDK/output/mx6dq/lib/libboard_smart_device_rev_a.a(pwm_iomux_config.o)
 .debug_abbrev  0x0000dd00       0x79 /home/leon/git/swp-report/iMX6_Platform_SDK/output/mx6dq/lib/libboard_smart_device_rev_a.a(usdhc_iomux_config.o)
 .debug_abbrev  0x0000dd79       0xf9 /home/leon/git/swp-report/iMX6_Platform_SDK/output/mx6dq/lib/libsdk.a(max7310.o)

.debug_aranges  0x00000000     0x1590
 .debug_aranges
                0x00000000       0x18 /home/leon/git/swp-report/iMX6_Platform_SDK/output/mx6dq/sdk_unit_test/smart_device_rev_a/obj/apps/common/ivt.o
 .debug_aranges
                0x00000018       0x20 /home/leon/git/swp-report/iMX6_Platform_SDK/output/mx6dq/sdk_unit_test/smart_device_rev_a/obj/apps/common/platform_init.o
 .debug_aranges
                0x00000038       0x20 /home/leon/git/swp-report/iMX6_Platform_SDK/output/mx6dq/sdk_unit_test/smart_device_rev_a/obj/apps/common/print_clock_info.o
 .debug_aranges
                0x00000058       0x20 /home/leon/git/swp-report/iMX6_Platform_SDK/output/mx6dq/sdk_unit_test/smart_device_rev_a/obj/apps/common/print_version.o
 .debug_aranges
                0x00000078       0x20 /home/leon/git/swp-report/iMX6_Platform_SDK/output/mx6dq/sdk_unit_test/smart_device_rev_a/obj/apps/sdk_unit_test/src/all_test.o
 .debug_aranges
                0x00000098       0x20 /home/leon/git/swp-report/iMX6_Platform_SDK/output/mx6dq/sdk_unit_test/smart_device_rev_a/obj/apps/sdk_unit_test/src/unit_test_main.o
 .debug_aranges
                0x000000b8       0x20 /home/leon/git/swp-report/iMX6_Platform_SDK/output/mx6dq/lib/libsdk.a(ccm_pll.o)
 .debug_aranges
                0x000000d8       0x20 /home/leon/git/swp-report/iMX6_Platform_SDK/output/mx6dq/lib/libsdk.a(gic.o)
 .debug_aranges
                0x000000f8       0x20 /home/leon/git/swp-report/iMX6_Platform_SDK/output/mx6dq/lib/libsdk.a(mmu.o)
 .debug_aranges
                0x00000118       0x20 /home/leon/git/swp-report/iMX6_Platform_SDK/output/mx6dq/lib/libsdk.a(menu.o)
 .debug_aranges
                0x00000138       0x18 /home/leon/git/swp-report/iMX6_Platform_SDK/output/mx6dq/lib/libsdk.a(sdk_version.o)
 .debug_aranges
                0x00000150       0x20 /home/leon/git/swp-report/iMX6_Platform_SDK/output/mx6dq/lib/libsdk.a(system_util.o)
 .debug_aranges
                0x00000170       0x20 /home/leon/git/swp-report/iMX6_Platform_SDK/output/mx6dq/lib/libsdk.a(text_color.o)
 .debug_aranges
                0x00000190       0x20 /home/leon/git/swp-report/iMX6_Platform_SDK/output/mx6dq/lib/libsdk.a(board_id.o)
 .debug_aranges
                0x000001b0       0x20 /home/leon/git/swp-report/iMX6_Platform_SDK/output/mx6dq/lib/libsdk.a(timer.o)
 .debug_aranges
                0x000001d0       0x20 /home/leon/git/swp-report/iMX6_Platform_SDK/output/mx6dq/lib/libsdk.a(imx_uart.o)
 .debug_aranges
                0x000001f0       0x20 /home/leon/git/swp-report/iMX6_Platform_SDK/output/mx6dq/lib/libsdk.a(interrupt.o)
 .debug_aranges
                0x00000210       0x20 /home/leon/git/swp-report/iMX6_Platform_SDK/output/mx6dq/lib/libsdk.a(epit.o)
 .debug_aranges
                0x00000230       0x20 /home/leon/git/swp-report/iMX6_Platform_SDK/output/mx6dq/lib/libsdk.a(abort_handler.o)
 .debug_aranges
                0x00000250       0x20 /home/leon/git/swp-report/iMX6_Platform_SDK/output/mx6dq/lib/libboard_smart_device_rev_a.a(board_io_expanders.o)
 .debug_aranges
                0x00000270       0x18 /home/leon/git/swp-report/iMX6_Platform_SDK/output/mx6dq/lib/libboard_smart_device_rev_a.a(hardware_modules.o)
 .debug_aranges
                0x00000288       0x18 /home/leon/git/swp-report/iMX6_Platform_SDK/output/mx6dq/lib/libboard_smart_device_rev_a.a(dcd.o)
 .debug_aranges
                0x000002a0       0x20 /home/leon/git/swp-report/iMX6_Platform_SDK/output/mx6dq/lib/libboard_smart_device_rev_a.a(uart_iomux_config.o)
 .debug_aranges
                0x000002c0       0x20 /home/leon/git/swp-report/iMX6_Platform_SDK/output/mx6dq/lib/libboard_smart_device_rev_a.a(iomux_config.o)
 .debug_aranges
                0x000002e0       0x20 /home/leon/git/swp-report/iMX6_Platform_SDK/output/mx6dq/lib/libboard_smart_device_rev_a.a(ipu1_iomux_config.o)
 .debug_aranges
                0x00000300       0x20 /home/leon/git/swp-report/iMX6_Platform_SDK/output/mx6dq/lib/libboard_smart_device_rev_a.a(kpp_iomux_config.o)
 .debug_aranges
                0x00000320       0x20 /home/leon/git/swp-report/iMX6_Platform_SDK/output/mx6dq/lib/libboard_smart_device_rev_a.a(mmdc_iomux_config.o)
 .debug_aranges
                0x00000340       0x20 /home/leon/git/swp-report/iMX6_Platform_SDK/output/mx6dq/lib/libboard_smart_device_rev_a.a(pwm1_iomux_config.o)
 .debug_aranges
                0x00000360       0x20 /home/leon/git/swp-report/iMX6_Platform_SDK/output/mx6dq/lib/libboard_smart_device_rev_a.a(sjc_iomux_config.o)
 .debug_aranges
                0x00000380       0x20 /home/leon/git/swp-report/iMX6_Platform_SDK/output/mx6dq/lib/libboard_smart_device_rev_a.a(uart1_iomux_config.o)
 .debug_aranges
                0x000003a0       0x20 /home/leon/git/swp-report/iMX6_Platform_SDK/output/mx6dq/lib/libboard_smart_device_rev_a.a(usdhc2_iomux_config.o)
 .debug_aranges
                0x000003c0       0x20 /home/leon/git/swp-report/iMX6_Platform_SDK/output/mx6dq/lib/libboard_smart_device_rev_a.a(usdhc3_iomux_config.o)
 .debug_aranges
                0x000003e0       0x20 /home/leon/git/swp-report/iMX6_Platform_SDK/output/mx6dq/lib/libboard_smart_device_rev_a.a(usdhc4_iomux_config.o)
 .debug_aranges
                0x00000400       0x20 /home/leon/git/swp-report/iMX6_Platform_SDK/output/mx6dq/lib/libboard_smart_device_rev_a.a(audmux_iomux_config.o)
 .debug_aranges
                0x00000420       0x20 /home/leon/git/swp-report/iMX6_Platform_SDK/output/mx6dq/lib/libboard_smart_device_rev_a.a(ccm_iomux_config.o)
 .debug_aranges
                0x00000440       0x20 /home/leon/git/swp-report/iMX6_Platform_SDK/output/mx6dq/lib/libboard_smart_device_rev_a.a(ecspi1_iomux_config.o)
 .debug_aranges
                0x00000460       0x20 /home/leon/git/swp-report/iMX6_Platform_SDK/output/mx6dq/lib/libboard_smart_device_rev_a.a(enet_iomux_config.o)
 .debug_aranges
                0x00000480       0x20 /home/leon/git/swp-report/iMX6_Platform_SDK/output/mx6dq/lib/libboard_smart_device_rev_a.a(flexcan1_iomux_config.o)
 .debug_aranges
                0x000004a0       0x20 /home/leon/git/swp-report/iMX6_Platform_SDK/output/mx6dq/lib/libboard_smart_device_rev_a.a(gpio1_iomux_config.o)
 .debug_aranges
                0x000004c0       0x20 /home/leon/git/swp-report/iMX6_Platform_SDK/output/mx6dq/lib/libboard_smart_device_rev_a.a(gpio2_iomux_config.o)
 .debug_aranges
                0x000004e0       0x20 /home/leon/git/swp-report/iMX6_Platform_SDK/output/mx6dq/lib/libboard_smart_device_rev_a.a(gpio3_iomux_config.o)
 .debug_aranges
                0x00000500       0x20 /home/leon/git/swp-report/iMX6_Platform_SDK/output/mx6dq/lib/libboard_smart_device_rev_a.a(gpio4_iomux_config.o)
 .debug_aranges
                0x00000520       0x20 /home/leon/git/swp-report/iMX6_Platform_SDK/output/mx6dq/lib/libboard_smart_device_rev_a.a(gpio5_iomux_config.o)
 .debug_aranges
                0x00000540       0x20 /home/leon/git/swp-report/iMX6_Platform_SDK/output/mx6dq/lib/libboard_smart_device_rev_a.a(gpio6_iomux_config.o)
 .debug_aranges
                0x00000560       0x20 /home/leon/git/swp-report/iMX6_Platform_SDK/output/mx6dq/lib/libboard_smart_device_rev_a.a(gpio7_iomux_config.o)
 .debug_aranges
                0x00000580       0x20 /home/leon/git/swp-report/iMX6_Platform_SDK/output/mx6dq/lib/libboard_smart_device_rev_a.a(gps_iomux_config.o)
 .debug_aranges
                0x000005a0       0x20 /home/leon/git/swp-report/iMX6_Platform_SDK/output/mx6dq/lib/libboard_smart_device_rev_a.a(i2c1_iomux_config.o)
 .debug_aranges
                0x000005c0       0x20 /home/leon/git/swp-report/iMX6_Platform_SDK/output/mx6dq/lib/libboard_smart_device_rev_a.a(i2c2_iomux_config.o)
 .debug_aranges
                0x000005e0       0x20 /home/leon/git/swp-report/iMX6_Platform_SDK/output/mx6dq/lib/libboard_smart_device_rev_a.a(i2c3_iomux_config.o)
 .debug_aranges
                0x00000600       0x20 /home/leon/git/swp-report/iMX6_Platform_SDK/output/mx6dq/sdk_unit_test/smart_device_rev_a/libsdk_unit_test.a(cpu_wp_test.o)
 .debug_aranges
                0x00000620       0x20 /home/leon/git/swp-report/iMX6_Platform_SDK/output/mx6dq/sdk_unit_test/smart_device_rev_a/libsdk_unit_test.a(multicore_test.o)
 .debug_aranges
                0x00000640       0x20 /home/leon/git/swp-report/iMX6_Platform_SDK/output/mx6dq/sdk_unit_test/smart_device_rev_a/libsdk_unit_test.a(audio_test.o)
 .debug_aranges
                0x00000660       0x20 /home/leon/git/swp-report/iMX6_Platform_SDK/output/mx6dq/sdk_unit_test/smart_device_rev_a/libsdk_unit_test.a(gic_test.o)
 .debug_aranges
                0x00000680       0x20 /home/leon/git/swp-report/iMX6_Platform_SDK/output/mx6dq/sdk_unit_test/smart_device_rev_a/libsdk_unit_test.a(ocotp_test.o)
 .debug_aranges
                0x000006a0       0x20 /home/leon/git/swp-report/iMX6_Platform_SDK/output/mx6dq/sdk_unit_test/smart_device_rev_a/libsdk_unit_test.a(i2c_test.o)
 .debug_aranges
                0x000006c0       0x20 /home/leon/git/swp-report/iMX6_Platform_SDK/output/mx6dq/sdk_unit_test/smart_device_rev_a/libsdk_unit_test.a(imx6_i2c_device.o)
 .debug_aranges
                0x000006e0       0x20 /home/leon/git/swp-report/iMX6_Platform_SDK/output/mx6dq/sdk_unit_test/smart_device_rev_a/libsdk_unit_test.a(snvs_rtc_test.o)
 .debug_aranges
                0x00000700       0x20 /home/leon/git/swp-report/iMX6_Platform_SDK/output/mx6dq/sdk_unit_test/smart_device_rev_a/libsdk_unit_test.a(snvs_srtc_test.o)
 .debug_aranges
                0x00000720       0x20 /home/leon/git/swp-report/iMX6_Platform_SDK/output/mx6dq/sdk_unit_test/smart_device_rev_a/libsdk_unit_test.a(tempmon_test.o)
 .debug_aranges
                0x00000740       0x20 /home/leon/git/swp-report/iMX6_Platform_SDK/output/mx6dq/sdk_unit_test/smart_device_rev_a/libsdk_unit_test.a(sdma_test.o)
 .debug_aranges
                0x00000760       0x20 /home/leon/git/swp-report/iMX6_Platform_SDK/output/mx6dq/sdk_unit_test/smart_device_rev_a/libsdk_unit_test.a(spi_lpb.o)
 .debug_aranges
                0x00000780       0x20 /home/leon/git/swp-report/iMX6_Platform_SDK/output/mx6dq/sdk_unit_test/smart_device_rev_a/libsdk_unit_test.a(uart_loopback.o)
 .debug_aranges
                0x000007a0       0x20 /home/leon/git/swp-report/iMX6_Platform_SDK/output/mx6dq/sdk_unit_test/smart_device_rev_a/libsdk_unit_test.a(uart_test.o)
 .debug_aranges
                0x000007c0       0x20 /home/leon/git/swp-report/iMX6_Platform_SDK/output/mx6dq/sdk_unit_test/smart_device_rev_a/libsdk_unit_test.a(epit_test.o)
 .debug_aranges
                0x000007e0       0x20 /home/leon/git/swp-report/iMX6_Platform_SDK/output/mx6dq/sdk_unit_test/smart_device_rev_a/libsdk_unit_test.a(gpt_test.o)
 .debug_aranges
                0x00000800       0x20 /home/leon/git/swp-report/iMX6_Platform_SDK/output/mx6dq/sdk_unit_test/smart_device_rev_a/libsdk_unit_test.a(timer_test.o)
 .debug_aranges
                0x00000820       0x20 /home/leon/git/swp-report/iMX6_Platform_SDK/output/mx6dq/sdk_unit_test/smart_device_rev_a/libsdk_unit_test.a(usdhc_test.o)
 .debug_aranges
                0x00000840       0x20 /home/leon/git/swp-report/iMX6_Platform_SDK/output/mx6dq/sdk_unit_test/smart_device_rev_a/libsdk_unit_test.a(pwm_test.o)
 .debug_aranges
                0x00000860       0x20 /home/leon/git/swp-report/iMX6_Platform_SDK/output/mx6dq/sdk_unit_test/smart_device_rev_a/libsdk_unit_test.a(watchdog_test.o)
 .debug_aranges
                0x00000880       0x20 /home/leon/git/swp-report/iMX6_Platform_SDK/output/mx6dq/sdk_unit_test/smart_device_rev_a/libsdk_unit_test.a(hdmi_test.o)
 .debug_aranges
                0x000008a0       0x20 /home/leon/git/swp-report/iMX6_Platform_SDK/output/mx6dq/sdk_unit_test/smart_device_rev_a/libsdk_unit_test.a(ips_display.o)
 .debug_aranges
                0x000008c0       0x20 /home/leon/git/swp-report/iMX6_Platform_SDK/output/mx6dq/sdk_unit_test/smart_device_rev_a/libsdk_unit_test.a(ips_test.o)
 .debug_aranges
                0x000008e0       0x20 /home/leon/git/swp-report/iMX6_Platform_SDK/output/mx6dq/sdk_unit_test/smart_device_rev_a/libsdk_unit_test.a(ipu_image.o)
 .debug_aranges
                0x00000900       0x20 /home/leon/git/swp-report/iMX6_Platform_SDK/output/mx6dq/sdk_unit_test/smart_device_rev_a/libsdk_unit_test.a(keypad_test.o)
 .debug_aranges
                0x00000920       0x20 /home/leon/git/swp-report/iMX6_Platform_SDK/output/mx6dq/sdk_unit_test/smart_device_rev_a/libsdk_unit_test.a(camera_test.o)
 .debug_aranges
                0x00000940       0x20 /home/leon/git/swp-report/iMX6_Platform_SDK/output/mx6dq/sdk_unit_test/smart_device_rev_a/libsdk_unit_test.a(csi_test_mode.o)
 .debug_aranges
                0x00000960       0x20 /home/leon/git/swp-report/iMX6_Platform_SDK/output/mx6dq/sdk_unit_test/smart_device_rev_a/libsdk_unit_test.a(sensor_capture.o)
 .debug_aranges
                0x00000980       0x20 /home/leon/git/swp-report/iMX6_Platform_SDK/output/mx6dq/sdk_unit_test/smart_device_rev_a/libsdk_unit_test.a(pcie_test_rc.o)
 .debug_aranges
                0x000009a0       0x20 /home/leon/git/swp-report/iMX6_Platform_SDK/output/mx6dq/sdk_unit_test/smart_device_rev_a/libsdk_unit_test.a(usb_test.o)
 .debug_aranges
                0x000009c0       0x20 /home/leon/git/swp-report/iMX6_Platform_SDK/output/mx6dq/sdk_unit_test/smart_device_rev_a/libsdk_unit_test.a(enet_test.o)
 .debug_aranges
                0x000009e0       0x20 /home/leon/git/swp-report/iMX6_Platform_SDK/output/mx6dq/sdk_unit_test/smart_device_rev_a/libsdk_unit_test.a(spi_test.o)
 .debug_aranges
                0x00000a00       0x20 /home/leon/git/swp-report/iMX6_Platform_SDK/output/mx6dq/sdk_unit_test/smart_device_rev_a/libsdk_unit_test.a(accelerometer_test.o)
 .debug_aranges
                0x00000a20       0x20 /home/leon/git/swp-report/iMX6_Platform_SDK/output/mx6dq/sdk_unit_test/smart_device_rev_a/libsdk_unit_test.a(sata_test.o)
 .debug_aranges
                0x00000a40       0x20 /home/leon/git/swp-report/iMX6_Platform_SDK/output/mx6dq/sdk_unit_test/smart_device_rev_a/libsdk_unit_test.a(at24cxx.o)
 .debug_aranges
                0x00000a60       0x20 /home/leon/git/swp-report/iMX6_Platform_SDK/output/mx6dq/sdk_unit_test/smart_device_rev_a/libsdk_unit_test.a(mem_2_mem.o)
 .debug_aranges
                0x00000a80       0x20 /home/leon/git/swp-report/iMX6_Platform_SDK/output/mx6dq/sdk_unit_test/smart_device_rev_a/libsdk_unit_test.a(pwm_output.o)
 .debug_aranges
                0x00000aa0       0x20 /home/leon/git/swp-report/iMX6_Platform_SDK/output/mx6dq/sdk_unit_test/smart_device_rev_a/libsdk_unit_test.a(init_dma_data.o)
 .debug_aranges
                0x00000ac0       0x20 /home/leon/git/swp-report/iMX6_Platform_SDK/output/mx6dq/sdk_unit_test/smart_device_rev_a/libsdk_unit_test.a(ips_combiner.o)
 .debug_aranges
                0x00000ae0       0x20 /home/leon/git/swp-report/iMX6_Platform_SDK/output/mx6dq/sdk_unit_test/smart_device_rev_a/libsdk_unit_test.a(ips_csc.o)
 .debug_aranges
                0x00000b00       0x20 /home/leon/git/swp-report/iMX6_Platform_SDK/output/mx6dq/sdk_unit_test/smart_device_rev_a/libsdk_unit_test.a(ips_resize.o)
 .debug_aranges
                0x00000b20       0x20 /home/leon/git/swp-report/iMX6_Platform_SDK/output/mx6dq/sdk_unit_test/smart_device_rev_a/libsdk_unit_test.a(ips_rotate.o)
 .debug_aranges
                0x00000b40       0x20 /home/leon/git/swp-report/iMX6_Platform_SDK/output/mx6dq/sdk_unit_test/smart_device_rev_a/libsdk_unit_test.a(usb0_device_mouse_test.o)
 .debug_aranges
                0x00000b60       0x20 /home/leon/git/swp-report/iMX6_Platform_SDK/output/mx6dq/sdk_unit_test/smart_device_rev_a/libsdk_unit_test.a(usb0_host_test.o)
 .debug_aranges
                0x00000b80       0x20 /home/leon/git/swp-report/iMX6_Platform_SDK/output/mx6dq/sdk_unit_test/smart_device_rev_a/libsdk_unit_test.a(usb0_host_testmodes_test.o)
 .debug_aranges
                0x00000ba0       0x20 /home/leon/git/swp-report/iMX6_Platform_SDK/output/mx6dq/sdk_unit_test/smart_device_rev_a/libsdk_unit_test.a(spi_nor_numonyx.o)
 .debug_aranges
                0x00000bc0       0x20 /home/leon/git/swp-report/iMX6_Platform_SDK/output/mx6dq/lib/libsdk.a(profile.o)
 .debug_aranges
                0x00000be0       0x20 /home/leon/git/swp-report/iMX6_Platform_SDK/output/mx6dq/lib/libsdk.a(armv7_cache.o)
 .debug_aranges
                0x00000c00       0x20 /home/leon/git/swp-report/iMX6_Platform_SDK/output/mx6dq/lib/libsdk.a(runtime_support.o)
 .debug_aranges
                0x00000c20       0x20 /home/leon/git/swp-report/iMX6_Platform_SDK/output/mx6dq/lib/libsdk.a(mma8451.o)
 .debug_aranges
                0x00000c40       0x20 /home/leon/git/swp-report/iMX6_Platform_SDK/output/mx6dq/lib/libsdk.a(smd_sensor.o)
 .debug_aranges
                0x00000c60       0x20 /home/leon/git/swp-report/iMX6_Platform_SDK/output/mx6dq/lib/libsdk.a(cpu_get_cores.o)
 .debug_aranges
                0x00000c80       0x20 /home/leon/git/swp-report/iMX6_Platform_SDK/output/mx6dq/lib/libsdk.a(cpu_multicore.o)
 .debug_aranges
                0x00000ca0       0x20 /home/leon/git/swp-report/iMX6_Platform_SDK/output/mx6dq/lib/libsdk.a(cpu_workpoint.o)
 .debug_aranges
                0x00000cc0       0x20 /home/leon/git/swp-report/iMX6_Platform_SDK/output/mx6dq/lib/libsdk.a(enet_drv.o)
 .debug_aranges
                0x00000ce0       0x20 /home/leon/git/swp-report/iMX6_Platform_SDK/output/mx6dq/lib/libsdk.a(gpio.o)
 .debug_aranges
                0x00000d00       0x18 /home/leon/git/swp-report/iMX6_Platform_SDK/output/mx6dq/lib/libsdk.a(imx6dq_gpio_map.o)
 .debug_aranges
                0x00000d18       0x20 /home/leon/git/swp-report/iMX6_Platform_SDK/output/mx6dq/lib/libsdk.a(hdmi_tx.o)
 .debug_aranges
                0x00000d38       0x20 /home/leon/git/swp-report/iMX6_Platform_SDK/output/mx6dq/lib/libsdk.a(hdmi_tx_audio.o)
 .debug_aranges
                0x00000d58       0x20 /home/leon/git/swp-report/iMX6_Platform_SDK/output/mx6dq/lib/libsdk.a(hdmi_tx_phy.o)
 .debug_aranges
                0x00000d78       0x20 /home/leon/git/swp-report/iMX6_Platform_SDK/output/mx6dq/lib/libsdk.a(imx_i2c.o)
 .debug_aranges
                0x00000d98       0x20 /home/leon/git/swp-report/iMX6_Platform_SDK/output/mx6dq/lib/libsdk.a(imx_i2c_slave.o)
 .debug_aranges
                0x00000db8       0x20 /home/leon/git/swp-report/iMX6_Platform_SDK/output/mx6dq/lib/libsdk.a(ips_disp_panel.o)
 .debug_aranges
                0x00000dd8       0x20 /home/leon/git/swp-report/iMX6_Platform_SDK/output/mx6dq/lib/libsdk.a(ipu_common.o)
 .debug_aranges
                0x00000df8       0x20 /home/leon/git/swp-report/iMX6_Platform_SDK/output/mx6dq/lib/libsdk.a(ipu_csi.o)
 .debug_aranges
                0x00000e18       0x20 /home/leon/git/swp-report/iMX6_Platform_SDK/output/mx6dq/lib/libsdk.a(ipu_dc.o)
 .debug_aranges
                0x00000e38       0x20 /home/leon/git/swp-report/iMX6_Platform_SDK/output/mx6dq/lib/libsdk.a(ipu_di.o)
 .debug_aranges
                0x00000e58       0x20 /home/leon/git/swp-report/iMX6_Platform_SDK/output/mx6dq/lib/libsdk.a(ipu_dmfc.o)
 .debug_aranges
                0x00000e78       0x20 /home/leon/git/swp-report/iMX6_Platform_SDK/output/mx6dq/lib/libsdk.a(ipu_dp.o)
 .debug_aranges
                0x00000e98       0x20 /home/leon/git/swp-report/iMX6_Platform_SDK/output/mx6dq/lib/libsdk.a(ipu_ic.o)
 .debug_aranges
                0x00000eb8       0x20 /home/leon/git/swp-report/iMX6_Platform_SDK/output/mx6dq/lib/libsdk.a(ipu_idmac.o)
 .debug_aranges
                0x00000ed8       0x20 /home/leon/git/swp-report/iMX6_Platform_SDK/output/mx6dq/lib/libsdk.a(ipu_vdi.o)
 .debug_aranges
                0x00000ef8       0x20 /home/leon/git/swp-report/iMX6_Platform_SDK/output/mx6dq/lib/libsdk.a(keypad_port.o)
 .debug_aranges
                0x00000f18       0x20 /home/leon/git/swp-report/iMX6_Platform_SDK/output/mx6dq/lib/libsdk.a(ldb.o)
 .debug_aranges
                0x00000f38       0x20 /home/leon/git/swp-report/iMX6_Platform_SDK/output/mx6dq/lib/libsdk.a(ocotp.o)
 .debug_aranges
                0x00000f58       0x20 /home/leon/git/swp-report/iMX6_Platform_SDK/output/mx6dq/lib/libsdk.a(pcie.o)
 .debug_aranges
                0x00000f78       0x20 /home/leon/git/swp-report/iMX6_Platform_SDK/output/mx6dq/lib/libsdk.a(pcie_phy.o)
 .debug_aranges
                0x00000f98       0x20 /home/leon/git/swp-report/iMX6_Platform_SDK/output/mx6dq/lib/libsdk.a(pcie_prot.o)
 .debug_aranges
                0x00000fb8      0x150 /home/leon/git/swp-report/iMX6_Platform_SDK/output/mx6dq/lib/libsdk.a(pmu_driver.o)
 .debug_aranges
                0x00001108       0x20 /home/leon/git/swp-report/iMX6_Platform_SDK/output/mx6dq/lib/libsdk.a(pwm.o)
 .debug_aranges
                0x00001128       0x20 /home/leon/git/swp-report/iMX6_Platform_SDK/output/mx6dq/lib/libsdk.a(rtc.o)
 .debug_aranges
                0x00001148       0x20 /home/leon/git/swp-report/iMX6_Platform_SDK/output/mx6dq/lib/libsdk.a(srtc.o)
 .debug_aranges
                0x00001168       0x20 /home/leon/git/swp-report/iMX6_Platform_SDK/output/mx6dq/lib/libsdk.a(sata.o)
 .debug_aranges
                0x00001188       0x20 /home/leon/git/swp-report/iMX6_Platform_SDK/output/mx6dq/lib/libsdk.a(sdma.o)
 .debug_aranges
                0x000011a8       0x18 /home/leon/git/swp-report/iMX6_Platform_SDK/output/mx6dq/lib/libsdk.a(sdma_script_info.o)
 .debug_aranges
                0x000011c0       0x20 /home/leon/git/swp-report/iMX6_Platform_SDK/output/mx6dq/lib/libsdk.a(snvs.o)
 .debug_aranges
                0x000011e0       0x20 /home/leon/git/swp-report/iMX6_Platform_SDK/output/mx6dq/lib/libsdk.a(ecspi.o)
 .debug_aranges
                0x00001200       0x20 /home/leon/git/swp-report/iMX6_Platform_SDK/output/mx6dq/lib/libsdk.a(tempmon.o)
 .debug_aranges
                0x00001220       0x20 /home/leon/git/swp-report/iMX6_Platform_SDK/output/mx6dq/lib/libsdk.a(gpt.o)
 .debug_aranges
                0x00001240       0x20 /home/leon/git/swp-report/iMX6_Platform_SDK/output/mx6dq/lib/libsdk.a(usb_common.o)
 .debug_aranges
                0x00001260       0x20 /home/leon/git/swp-report/iMX6_Platform_SDK/output/mx6dq/lib/libsdk.a(usbd_drv.o)
 .debug_aranges
                0x00001280       0x20 /home/leon/git/swp-report/iMX6_Platform_SDK/output/mx6dq/lib/libsdk.a(usbh_drv.o)
 .debug_aranges
                0x000012a0       0x20 /home/leon/git/swp-report/iMX6_Platform_SDK/output/mx6dq/lib/libsdk.a(usdhc.o)
 .debug_aranges
                0x000012c0       0x20 /home/leon/git/swp-report/iMX6_Platform_SDK/output/mx6dq/lib/libsdk.a(usdhc_host.o)
 .debug_aranges
                0x000012e0       0x20 /home/leon/git/swp-report/iMX6_Platform_SDK/output/mx6dq/lib/libsdk.a(usdhc_mmc.o)
 .debug_aranges
                0x00001300       0x20 /home/leon/git/swp-report/iMX6_Platform_SDK/output/mx6dq/lib/libsdk.a(usdhc_sd.o)
 .debug_aranges
                0x00001320       0x20 /home/leon/git/swp-report/iMX6_Platform_SDK/output/mx6dq/lib/libsdk.a(spinlock.o)
 .debug_aranges
                0x00001340       0x18 /home/leon/git/swp-report/iMX6_Platform_SDK/output/mx6dq/lib/libsdk.a(camera_profile.o)
 .debug_aranges
                0x00001358       0x20 /home/leon/git/swp-report/iMX6_Platform_SDK/output/mx6dq/lib/libsdk.a(hdmi_common.o)
 .debug_aranges
                0x00001378       0x20 /home/leon/git/swp-report/iMX6_Platform_SDK/output/mx6dq/lib/libsdk.a(mx6x_usb.o)
 .debug_aranges
                0x00001398       0x20 /home/leon/git/swp-report/iMX6_Platform_SDK/output/mx6dq/lib/libboard_smart_device_rev_a.a(board_audio.o)
 .debug_aranges
                0x000013b8       0x20 /home/leon/git/swp-report/iMX6_Platform_SDK/output/mx6dq/lib/libboard_smart_device_rev_a.a(board_camera.o)
 .debug_aranges
                0x000013d8       0x20 /home/leon/git/swp-report/iMX6_Platform_SDK/output/mx6dq/lib/libboard_smart_device_rev_a.a(board_display.o)
 .debug_aranges
                0x000013f8       0x20 /home/leon/git/swp-report/iMX6_Platform_SDK/output/mx6dq/lib/libboard_smart_device_rev_a.a(board_hdmi.o)
 .debug_aranges
                0x00001418       0x18 /home/leon/git/swp-report/iMX6_Platform_SDK/output/mx6dq/lib/libboard_smart_device_rev_a.a(board_i2c.o)
 .debug_aranges
                0x00001430       0x20 /home/leon/git/swp-report/iMX6_Platform_SDK/output/mx6dq/lib/libboard_smart_device_rev_a.a(board_mipi.o)
 .debug_aranges
                0x00001450       0x20 /home/leon/git/swp-report/iMX6_Platform_SDK/output/mx6dq/lib/libboard_smart_device_rev_a.a(board_network.o)
 .debug_aranges
                0x00001470       0x20 /home/leon/git/swp-report/iMX6_Platform_SDK/output/mx6dq/lib/libboard_smart_device_rev_a.a(board_pcie.o)
 .debug_aranges
                0x00001490       0x20 /home/leon/git/swp-report/iMX6_Platform_SDK/output/mx6dq/lib/libboard_smart_device_rev_a.a(board_sata.o)
 .debug_aranges
                0x000014b0       0x20 /home/leon/git/swp-report/iMX6_Platform_SDK/output/mx6dq/lib/libboard_smart_device_rev_a.a(board_usb.o)
 .debug_aranges
                0x000014d0       0x20 /home/leon/git/swp-report/iMX6_Platform_SDK/output/mx6dq/lib/libboard_smart_device_rev_a.a(board_usdhc.o)
 .debug_aranges
                0x000014f0       0x20 /home/leon/git/swp-report/iMX6_Platform_SDK/output/mx6dq/lib/libboard_smart_device_rev_a.a(ecspi_iomux_config.o)
 .debug_aranges
                0x00001510       0x20 /home/leon/git/swp-report/iMX6_Platform_SDK/output/mx6dq/lib/libboard_smart_device_rev_a.a(i2c_iomux_config.o)
 .debug_aranges
                0x00001530       0x20 /home/leon/git/swp-report/iMX6_Platform_SDK/output/mx6dq/lib/libboard_smart_device_rev_a.a(pwm_iomux_config.o)
 .debug_aranges
                0x00001550       0x20 /home/leon/git/swp-report/iMX6_Platform_SDK/output/mx6dq/lib/libboard_smart_device_rev_a.a(usdhc_iomux_config.o)
 .debug_aranges
                0x00001570       0x20 /home/leon/git/swp-report/iMX6_Platform_SDK/output/mx6dq/lib/libsdk.a(max7310.o)

.debug_line     0x00000000    0x1baad
 .debug_line    0x00000000      0x103 /home/leon/git/swp-report/iMX6_Platform_SDK/output/mx6dq/sdk_unit_test/smart_device_rev_a/obj/apps/common/ivt.o
 .debug_line    0x00000103      0x1bc /home/leon/git/swp-report/iMX6_Platform_SDK/output/mx6dq/sdk_unit_test/smart_device_rev_a/obj/apps/common/platform_init.o
 .debug_line    0x000002bf      0x171 /home/leon/git/swp-report/iMX6_Platform_SDK/output/mx6dq/sdk_unit_test/smart_device_rev_a/obj/apps/common/print_clock_info.o
 .debug_line    0x00000430      0x17f /home/leon/git/swp-report/iMX6_Platform_SDK/output/mx6dq/sdk_unit_test/smart_device_rev_a/obj/apps/common/print_version.o
 .debug_line    0x000005af       0xc7 /home/leon/git/swp-report/iMX6_Platform_SDK/output/mx6dq/sdk_unit_test/smart_device_rev_a/obj/apps/sdk_unit_test/src/all_test.o
 .debug_line    0x00000676       0x8a /home/leon/git/swp-report/iMX6_Platform_SDK/output/mx6dq/sdk_unit_test/smart_device_rev_a/obj/apps/sdk_unit_test/src/unit_test_main.o
 .debug_line    0x00000700      0x272 /home/leon/git/swp-report/iMX6_Platform_SDK/output/mx6dq/lib/libsdk.a(ccm_pll.o)
 .debug_line    0x00000972      0x165 /home/leon/git/swp-report/iMX6_Platform_SDK/output/mx6dq/lib/libsdk.a(gic.o)
 .debug_line    0x00000ad7      0x188 /home/leon/git/swp-report/iMX6_Platform_SDK/output/mx6dq/lib/libsdk.a(mmu.o)
 .debug_line    0x00000c5f      0x2e0 /home/leon/git/swp-report/iMX6_Platform_SDK/output/mx6dq/lib/libsdk.a(menu.o)
 .debug_line    0x00000f3f       0x6a /home/leon/git/swp-report/iMX6_Platform_SDK/output/mx6dq/lib/libsdk.a(sdk_version.o)
 .debug_line    0x00000fa9      0x365 /home/leon/git/swp-report/iMX6_Platform_SDK/output/mx6dq/lib/libsdk.a(system_util.o)
 .debug_line    0x0000130e       0xf0 /home/leon/git/swp-report/iMX6_Platform_SDK/output/mx6dq/lib/libsdk.a(text_color.o)
 .debug_line    0x000013fe      0x278 /home/leon/git/swp-report/iMX6_Platform_SDK/output/mx6dq/lib/libsdk.a(board_id.o)
 .debug_line    0x00001676      0x200 /home/leon/git/swp-report/iMX6_Platform_SDK/output/mx6dq/lib/libsdk.a(timer.o)
 .debug_line    0x00001876     0x12ca /home/leon/git/swp-report/iMX6_Platform_SDK/output/mx6dq/lib/libsdk.a(imx_uart.o)
 .debug_line    0x00002b40      0x180 /home/leon/git/swp-report/iMX6_Platform_SDK/output/mx6dq/lib/libsdk.a(interrupt.o)
 .debug_line    0x00002cc0      0x57f /home/leon/git/swp-report/iMX6_Platform_SDK/output/mx6dq/lib/libsdk.a(epit.o)
 .debug_line    0x0000323f      0x24a /home/leon/git/swp-report/iMX6_Platform_SDK/output/mx6dq/lib/libsdk.a(abort_handler.o)
 .debug_line    0x00003489      0x129 /home/leon/git/swp-report/iMX6_Platform_SDK/output/mx6dq/lib/libboard_smart_device_rev_a.a(board_io_expanders.o)
 .debug_line    0x000035b2       0xc8 /home/leon/git/swp-report/iMX6_Platform_SDK/output/mx6dq/lib/libboard_smart_device_rev_a.a(hardware_modules.o)
 .debug_line    0x0000367a      0x110 /home/leon/git/swp-report/iMX6_Platform_SDK/output/mx6dq/lib/libboard_smart_device_rev_a.a(dcd.o)
 .debug_line    0x0000378a       0x9d /home/leon/git/swp-report/iMX6_Platform_SDK/output/mx6dq/lib/libboard_smart_device_rev_a.a(uart_iomux_config.o)
 .debug_line    0x00003827       0xfb /home/leon/git/swp-report/iMX6_Platform_SDK/output/mx6dq/lib/libboard_smart_device_rev_a.a(iomux_config.o)
 .debug_line    0x00003922      0x1e9 /home/leon/git/swp-report/iMX6_Platform_SDK/output/mx6dq/lib/libboard_smart_device_rev_a.a(ipu1_iomux_config.o)
 .debug_line    0x00003b0b      0x138 /home/leon/git/swp-report/iMX6_Platform_SDK/output/mx6dq/lib/libboard_smart_device_rev_a.a(kpp_iomux_config.o)
 .debug_line    0x00003c43      0x689 /home/leon/git/swp-report/iMX6_Platform_SDK/output/mx6dq/lib/libboard_smart_device_rev_a.a(mmdc_iomux_config.o)
 .debug_line    0x000042cc       0xff /home/leon/git/swp-report/iMX6_Platform_SDK/output/mx6dq/lib/libboard_smart_device_rev_a.a(pwm1_iomux_config.o)
 .debug_line    0x000043cb      0x108 /home/leon/git/swp-report/iMX6_Platform_SDK/output/mx6dq/lib/libboard_smart_device_rev_a.a(sjc_iomux_config.o)
 .debug_line    0x000044d3      0x10a /home/leon/git/swp-report/iMX6_Platform_SDK/output/mx6dq/lib/libboard_smart_device_rev_a.a(uart1_iomux_config.o)
 .debug_line    0x000045dd      0x137 /home/leon/git/swp-report/iMX6_Platform_SDK/output/mx6dq/lib/libboard_smart_device_rev_a.a(usdhc2_iomux_config.o)
 .debug_line    0x00004714      0x137 /home/leon/git/swp-report/iMX6_Platform_SDK/output/mx6dq/lib/libboard_smart_device_rev_a.a(usdhc3_iomux_config.o)
 .debug_line    0x0000484b      0x137 /home/leon/git/swp-report/iMX6_Platform_SDK/output/mx6dq/lib/libboard_smart_device_rev_a.a(usdhc4_iomux_config.o)
 .debug_line    0x00004982      0x113 /home/leon/git/swp-report/iMX6_Platform_SDK/output/mx6dq/lib/libboard_smart_device_rev_a.a(audmux_iomux_config.o)
 .debug_line    0x00004a95       0xfc /home/leon/git/swp-report/iMX6_Platform_SDK/output/mx6dq/lib/libboard_smart_device_rev_a.a(ccm_iomux_config.o)
 .debug_line    0x00004b91      0x11d /home/leon/git/swp-report/iMX6_Platform_SDK/output/mx6dq/lib/libboard_smart_device_rev_a.a(ecspi1_iomux_config.o)
 .debug_line    0x00004cae      0x19c /home/leon/git/swp-report/iMX6_Platform_SDK/output/mx6dq/lib/libboard_smart_device_rev_a.a(enet_iomux_config.o)
 .debug_line    0x00004e4a      0x10c /home/leon/git/swp-report/iMX6_Platform_SDK/output/mx6dq/lib/libboard_smart_device_rev_a.a(flexcan1_iomux_config.o)
 .debug_line    0x00004f56      0x160 /home/leon/git/swp-report/iMX6_Platform_SDK/output/mx6dq/lib/libboard_smart_device_rev_a.a(gpio1_iomux_config.o)
 .debug_line    0x000050b6      0x136 /home/leon/git/swp-report/iMX6_Platform_SDK/output/mx6dq/lib/libboard_smart_device_rev_a.a(gpio2_iomux_config.o)
 .debug_line    0x000051ec      0x160 /home/leon/git/swp-report/iMX6_Platform_SDK/output/mx6dq/lib/libboard_smart_device_rev_a.a(gpio3_iomux_config.o)
 .debug_line    0x0000534c      0x112 /home/leon/git/swp-report/iMX6_Platform_SDK/output/mx6dq/lib/libboard_smart_device_rev_a.a(gpio4_iomux_config.o)
 .debug_line    0x0000545e      0x106 /home/leon/git/swp-report/iMX6_Platform_SDK/output/mx6dq/lib/libboard_smart_device_rev_a.a(gpio5_iomux_config.o)
 .debug_line    0x00005564      0x130 /home/leon/git/swp-report/iMX6_Platform_SDK/output/mx6dq/lib/libboard_smart_device_rev_a.a(gpio6_iomux_config.o)
 .debug_line    0x00005694      0x10c /home/leon/git/swp-report/iMX6_Platform_SDK/output/mx6dq/lib/libboard_smart_device_rev_a.a(gpio7_iomux_config.o)
 .debug_line    0x000057a0      0x11a /home/leon/git/swp-report/iMX6_Platform_SDK/output/mx6dq/lib/libboard_smart_device_rev_a.a(gps_iomux_config.o)
 .debug_line    0x000058ba      0x109 /home/leon/git/swp-report/iMX6_Platform_SDK/output/mx6dq/lib/libboard_smart_device_rev_a.a(i2c1_iomux_config.o)
 .debug_line    0x000059c3      0x109 /home/leon/git/swp-report/iMX6_Platform_SDK/output/mx6dq/lib/libboard_smart_device_rev_a.a(i2c2_iomux_config.o)
 .debug_line    0x00005acc      0x109 /home/leon/git/swp-report/iMX6_Platform_SDK/output/mx6dq/lib/libboard_smart_device_rev_a.a(i2c3_iomux_config.o)
 .debug_line    0x00005bd5      0x1f5 /home/leon/git/swp-report/iMX6_Platform_SDK/output/mx6dq/sdk_unit_test/smart_device_rev_a/libsdk_unit_test.a(cpu_wp_test.o)
 .debug_line    0x00005dca      0x1a4 /home/leon/git/swp-report/iMX6_Platform_SDK/output/mx6dq/sdk_unit_test/smart_device_rev_a/libsdk_unit_test.a(multicore_test.o)
 .debug_line    0x00005f6e      0x1fb /home/leon/git/swp-report/iMX6_Platform_SDK/output/mx6dq/sdk_unit_test/smart_device_rev_a/libsdk_unit_test.a(audio_test.o)
 .debug_line    0x00006169      0x125 /home/leon/git/swp-report/iMX6_Platform_SDK/output/mx6dq/sdk_unit_test/smart_device_rev_a/libsdk_unit_test.a(gic_test.o)
 .debug_line    0x0000628e      0x1dc /home/leon/git/swp-report/iMX6_Platform_SDK/output/mx6dq/sdk_unit_test/smart_device_rev_a/libsdk_unit_test.a(ocotp_test.o)
 .debug_line    0x0000646a      0x176 /home/leon/git/swp-report/iMX6_Platform_SDK/output/mx6dq/sdk_unit_test/smart_device_rev_a/libsdk_unit_test.a(i2c_test.o)
 .debug_line    0x000065e0      0x2dd /home/leon/git/swp-report/iMX6_Platform_SDK/output/mx6dq/sdk_unit_test/smart_device_rev_a/libsdk_unit_test.a(imx6_i2c_device.o)
 .debug_line    0x000068bd      0x1a9 /home/leon/git/swp-report/iMX6_Platform_SDK/output/mx6dq/sdk_unit_test/smart_device_rev_a/libsdk_unit_test.a(snvs_rtc_test.o)
 .debug_line    0x00006a66      0x18b /home/leon/git/swp-report/iMX6_Platform_SDK/output/mx6dq/sdk_unit_test/smart_device_rev_a/libsdk_unit_test.a(snvs_srtc_test.o)
 .debug_line    0x00006bf1      0x181 /home/leon/git/swp-report/iMX6_Platform_SDK/output/mx6dq/sdk_unit_test/smart_device_rev_a/libsdk_unit_test.a(tempmon_test.o)
 .debug_line    0x00006d72      0x1a6 /home/leon/git/swp-report/iMX6_Platform_SDK/output/mx6dq/sdk_unit_test/smart_device_rev_a/libsdk_unit_test.a(sdma_test.o)
 .debug_line    0x00006f18      0x217 /home/leon/git/swp-report/iMX6_Platform_SDK/output/mx6dq/sdk_unit_test/smart_device_rev_a/libsdk_unit_test.a(spi_lpb.o)
 .debug_line    0x0000712f      0x313 /home/leon/git/swp-report/iMX6_Platform_SDK/output/mx6dq/sdk_unit_test/smart_device_rev_a/libsdk_unit_test.a(uart_loopback.o)
 .debug_line    0x00007442      0x217 /home/leon/git/swp-report/iMX6_Platform_SDK/output/mx6dq/sdk_unit_test/smart_device_rev_a/libsdk_unit_test.a(uart_test.o)
 .debug_line    0x00007659      0x23f /home/leon/git/swp-report/iMX6_Platform_SDK/output/mx6dq/sdk_unit_test/smart_device_rev_a/libsdk_unit_test.a(epit_test.o)
 .debug_line    0x00007898      0x2d3 /home/leon/git/swp-report/iMX6_Platform_SDK/output/mx6dq/sdk_unit_test/smart_device_rev_a/libsdk_unit_test.a(gpt_test.o)
 .debug_line    0x00007b6b       0xe6 /home/leon/git/swp-report/iMX6_Platform_SDK/output/mx6dq/sdk_unit_test/smart_device_rev_a/libsdk_unit_test.a(timer_test.o)
 .debug_line    0x00007c51      0x395 /home/leon/git/swp-report/iMX6_Platform_SDK/output/mx6dq/sdk_unit_test/smart_device_rev_a/libsdk_unit_test.a(usdhc_test.o)
 .debug_line    0x00007fe6      0x1db /home/leon/git/swp-report/iMX6_Platform_SDK/output/mx6dq/sdk_unit_test/smart_device_rev_a/libsdk_unit_test.a(pwm_test.o)
 .debug_line    0x000081c1      0x1eb /home/leon/git/swp-report/iMX6_Platform_SDK/output/mx6dq/sdk_unit_test/smart_device_rev_a/libsdk_unit_test.a(watchdog_test.o)
 .debug_line    0x000083ac      0x291 /home/leon/git/swp-report/iMX6_Platform_SDK/output/mx6dq/sdk_unit_test/smart_device_rev_a/libsdk_unit_test.a(hdmi_test.o)
 .debug_line    0x0000863d      0x4a1 /home/leon/git/swp-report/iMX6_Platform_SDK/output/mx6dq/sdk_unit_test/smart_device_rev_a/libsdk_unit_test.a(ips_display.o)
 .debug_line    0x00008ade      0x1f4 /home/leon/git/swp-report/iMX6_Platform_SDK/output/mx6dq/sdk_unit_test/smart_device_rev_a/libsdk_unit_test.a(ips_test.o)
 .debug_line    0x00008cd2      0x1e5 /home/leon/git/swp-report/iMX6_Platform_SDK/output/mx6dq/sdk_unit_test/smart_device_rev_a/libsdk_unit_test.a(ipu_image.o)
 .debug_line    0x00008eb7      0x1b2 /home/leon/git/swp-report/iMX6_Platform_SDK/output/mx6dq/sdk_unit_test/smart_device_rev_a/libsdk_unit_test.a(keypad_test.o)
 .debug_line    0x00009069      0x1e3 /home/leon/git/swp-report/iMX6_Platform_SDK/output/mx6dq/sdk_unit_test/smart_device_rev_a/libsdk_unit_test.a(camera_test.o)
 .debug_line    0x0000924c      0x28d /home/leon/git/swp-report/iMX6_Platform_SDK/output/mx6dq/sdk_unit_test/smart_device_rev_a/libsdk_unit_test.a(csi_test_mode.o)
 .debug_line    0x000094d9      0x28c /home/leon/git/swp-report/iMX6_Platform_SDK/output/mx6dq/sdk_unit_test/smart_device_rev_a/libsdk_unit_test.a(sensor_capture.o)
 .debug_line    0x00009765      0x25d /home/leon/git/swp-report/iMX6_Platform_SDK/output/mx6dq/sdk_unit_test/smart_device_rev_a/libsdk_unit_test.a(pcie_test_rc.o)
 .debug_line    0x000099c2       0xef /home/leon/git/swp-report/iMX6_Platform_SDK/output/mx6dq/sdk_unit_test/smart_device_rev_a/libsdk_unit_test.a(usb_test.o)
 .debug_line    0x00009ab1      0x282 /home/leon/git/swp-report/iMX6_Platform_SDK/output/mx6dq/sdk_unit_test/smart_device_rev_a/libsdk_unit_test.a(enet_test.o)
 .debug_line    0x00009d33      0x243 /home/leon/git/swp-report/iMX6_Platform_SDK/output/mx6dq/sdk_unit_test/smart_device_rev_a/libsdk_unit_test.a(spi_test.o)
 .debug_line    0x00009f76      0x2c9 /home/leon/git/swp-report/iMX6_Platform_SDK/output/mx6dq/sdk_unit_test/smart_device_rev_a/libsdk_unit_test.a(accelerometer_test.o)
 .debug_line    0x0000a23f      0x242 /home/leon/git/swp-report/iMX6_Platform_SDK/output/mx6dq/sdk_unit_test/smart_device_rev_a/libsdk_unit_test.a(sata_test.o)
 .debug_line    0x0000a481      0x1f5 /home/leon/git/swp-report/iMX6_Platform_SDK/output/mx6dq/sdk_unit_test/smart_device_rev_a/libsdk_unit_test.a(at24cxx.o)
 .debug_line    0x0000a676      0x1c4 /home/leon/git/swp-report/iMX6_Platform_SDK/output/mx6dq/sdk_unit_test/smart_device_rev_a/libsdk_unit_test.a(mem_2_mem.o)
 .debug_line    0x0000a83a      0x19d /home/leon/git/swp-report/iMX6_Platform_SDK/output/mx6dq/sdk_unit_test/smart_device_rev_a/libsdk_unit_test.a(pwm_output.o)
 .debug_line    0x0000a9d7      0x157 /home/leon/git/swp-report/iMX6_Platform_SDK/output/mx6dq/sdk_unit_test/smart_device_rev_a/libsdk_unit_test.a(init_dma_data.o)
 .debug_line    0x0000ab2e      0x20f /home/leon/git/swp-report/iMX6_Platform_SDK/output/mx6dq/sdk_unit_test/smart_device_rev_a/libsdk_unit_test.a(ips_combiner.o)
 .debug_line    0x0000ad3d      0x21e /home/leon/git/swp-report/iMX6_Platform_SDK/output/mx6dq/sdk_unit_test/smart_device_rev_a/libsdk_unit_test.a(ips_csc.o)
 .debug_line    0x0000af5b      0x249 /home/leon/git/swp-report/iMX6_Platform_SDK/output/mx6dq/sdk_unit_test/smart_device_rev_a/libsdk_unit_test.a(ips_resize.o)
 .debug_line    0x0000b1a4      0x1fd /home/leon/git/swp-report/iMX6_Platform_SDK/output/mx6dq/sdk_unit_test/smart_device_rev_a/libsdk_unit_test.a(ips_rotate.o)
 .debug_line    0x0000b3a1      0x618 /home/leon/git/swp-report/iMX6_Platform_SDK/output/mx6dq/sdk_unit_test/smart_device_rev_a/libsdk_unit_test.a(usb0_device_mouse_test.o)
 .debug_line    0x0000b9b9     0x10df /home/leon/git/swp-report/iMX6_Platform_SDK/output/mx6dq/sdk_unit_test/smart_device_rev_a/libsdk_unit_test.a(usb0_host_test.o)
 .debug_line    0x0000ca98      0x4c8 /home/leon/git/swp-report/iMX6_Platform_SDK/output/mx6dq/sdk_unit_test/smart_device_rev_a/libsdk_unit_test.a(usb0_host_testmodes_test.o)
 .debug_line    0x0000cf60      0x22d /home/leon/git/swp-report/iMX6_Platform_SDK/output/mx6dq/sdk_unit_test/smart_device_rev_a/libsdk_unit_test.a(spi_nor_numonyx.o)
 .debug_line    0x0000d18d       0x86 /home/leon/git/swp-report/iMX6_Platform_SDK/output/mx6dq/lib/libsdk.a(profile.o)
 .debug_line    0x0000d213      0x1aa /home/leon/git/swp-report/iMX6_Platform_SDK/output/mx6dq/lib/libsdk.a(armv7_cache.o)
 .debug_line    0x0000d3bd      0x234 /home/leon/git/swp-report/iMX6_Platform_SDK/output/mx6dq/lib/libsdk.a(runtime_support.o)
 .debug_line    0x0000d5f1      0x22f /home/leon/git/swp-report/iMX6_Platform_SDK/output/mx6dq/lib/libsdk.a(mma8451.o)
 .debug_line    0x0000d820      0x262 /home/leon/git/swp-report/iMX6_Platform_SDK/output/mx6dq/lib/libsdk.a(smd_sensor.o)
 .debug_line    0x0000da82      0x1a6 /home/leon/git/swp-report/iMX6_Platform_SDK/output/mx6dq/lib/libsdk.a(cpu_get_cores.o)
 .debug_line    0x0000dc28      0x1dc /home/leon/git/swp-report/iMX6_Platform_SDK/output/mx6dq/lib/libsdk.a(cpu_multicore.o)
 .debug_line    0x0000de04      0x219 /home/leon/git/swp-report/iMX6_Platform_SDK/output/mx6dq/lib/libsdk.a(cpu_workpoint.o)
 .debug_line    0x0000e01d      0x379 /home/leon/git/swp-report/iMX6_Platform_SDK/output/mx6dq/lib/libsdk.a(enet_drv.o)
 .debug_line    0x0000e396      0x7ba /home/leon/git/swp-report/iMX6_Platform_SDK/output/mx6dq/lib/libsdk.a(gpio.o)
 .debug_line    0x0000eb50       0xcf /home/leon/git/swp-report/iMX6_Platform_SDK/output/mx6dq/lib/libsdk.a(imx6dq_gpio_map.o)
 .debug_line    0x0000ec1f      0x2ca /home/leon/git/swp-report/iMX6_Platform_SDK/output/mx6dq/lib/libsdk.a(hdmi_tx.o)
 .debug_line    0x0000eee9      0x2cb /home/leon/git/swp-report/iMX6_Platform_SDK/output/mx6dq/lib/libsdk.a(hdmi_tx_audio.o)
 .debug_line    0x0000f1b4      0x2ea /home/leon/git/swp-report/iMX6_Platform_SDK/output/mx6dq/lib/libsdk.a(hdmi_tx_phy.o)
 .debug_line    0x0000f49e      0x892 /home/leon/git/swp-report/iMX6_Platform_SDK/output/mx6dq/lib/libsdk.a(imx_i2c.o)
 .debug_line    0x0000fd30      0x4d6 /home/leon/git/swp-report/iMX6_Platform_SDK/output/mx6dq/lib/libsdk.a(imx_i2c_slave.o)
 .debug_line    0x00010206      0x22d /home/leon/git/swp-report/iMX6_Platform_SDK/output/mx6dq/lib/libsdk.a(ips_disp_panel.o)
 .debug_line    0x00010433      0x33d /home/leon/git/swp-report/iMX6_Platform_SDK/output/mx6dq/lib/libsdk.a(ipu_common.o)
 .debug_line    0x00010770      0x1d0 /home/leon/git/swp-report/iMX6_Platform_SDK/output/mx6dq/lib/libsdk.a(ipu_csi.o)
 .debug_line    0x00010940      0x317 /home/leon/git/swp-report/iMX6_Platform_SDK/output/mx6dq/lib/libsdk.a(ipu_dc.o)
 .debug_line    0x00010c57      0x24d /home/leon/git/swp-report/iMX6_Platform_SDK/output/mx6dq/lib/libsdk.a(ipu_di.o)
 .debug_line    0x00010ea4      0x14b /home/leon/git/swp-report/iMX6_Platform_SDK/output/mx6dq/lib/libsdk.a(ipu_dmfc.o)
 .debug_line    0x00010fef      0x188 /home/leon/git/swp-report/iMX6_Platform_SDK/output/mx6dq/lib/libsdk.a(ipu_dp.o)
 .debug_line    0x00011177      0x309 /home/leon/git/swp-report/iMX6_Platform_SDK/output/mx6dq/lib/libsdk.a(ipu_ic.o)
 .debug_line    0x00011480      0xc78 /home/leon/git/swp-report/iMX6_Platform_SDK/output/mx6dq/lib/libsdk.a(ipu_idmac.o)
 .debug_line    0x000120f8      0x18e /home/leon/git/swp-report/iMX6_Platform_SDK/output/mx6dq/lib/libsdk.a(ipu_vdi.o)
 .debug_line    0x00012286      0x28a /home/leon/git/swp-report/iMX6_Platform_SDK/output/mx6dq/lib/libsdk.a(keypad_port.o)
 .debug_line    0x00012510      0x1de /home/leon/git/swp-report/iMX6_Platform_SDK/output/mx6dq/lib/libsdk.a(ldb.o)
 .debug_line    0x000126ee      0x1ad /home/leon/git/swp-report/iMX6_Platform_SDK/output/mx6dq/lib/libsdk.a(ocotp.o)
 .debug_line    0x0001289b      0x1f5 /home/leon/git/swp-report/iMX6_Platform_SDK/output/mx6dq/lib/libsdk.a(pcie.o)
 .debug_line    0x00012a90      0x182 /home/leon/git/swp-report/iMX6_Platform_SDK/output/mx6dq/lib/libsdk.a(pcie_phy.o)
 .debug_line    0x00012c12      0x197 /home/leon/git/swp-report/iMX6_Platform_SDK/output/mx6dq/lib/libsdk.a(pcie_prot.o)
 .debug_line    0x00012da9      0x910 /home/leon/git/swp-report/iMX6_Platform_SDK/output/mx6dq/lib/libsdk.a(pmu_driver.o)
 .debug_line    0x000136b9      0x5ec /home/leon/git/swp-report/iMX6_Platform_SDK/output/mx6dq/lib/libsdk.a(pwm.o)
 .debug_line    0x00013ca5      0x253 /home/leon/git/swp-report/iMX6_Platform_SDK/output/mx6dq/lib/libsdk.a(rtc.o)
 .debug_line    0x00013ef8      0x238 /home/leon/git/swp-report/iMX6_Platform_SDK/output/mx6dq/lib/libsdk.a(srtc.o)
 .debug_line    0x00014130      0x5e3 /home/leon/git/swp-report/iMX6_Platform_SDK/output/mx6dq/lib/libsdk.a(sata.o)
 .debug_line    0x00014713      0x400 /home/leon/git/swp-report/iMX6_Platform_SDK/output/mx6dq/lib/libsdk.a(sdma.o)
 .debug_line    0x00014b13      0x149 /home/leon/git/swp-report/iMX6_Platform_SDK/output/mx6dq/lib/libsdk.a(sdma_script_info.o)
 .debug_line    0x00014c5c      0x1be /home/leon/git/swp-report/iMX6_Platform_SDK/output/mx6dq/lib/libsdk.a(snvs.o)
 .debug_line    0x00014e1a      0x97c /home/leon/git/swp-report/iMX6_Platform_SDK/output/mx6dq/lib/libsdk.a(ecspi.o)
 .debug_line    0x00015796      0x279 /home/leon/git/swp-report/iMX6_Platform_SDK/output/mx6dq/lib/libsdk.a(tempmon.o)
 .debug_line    0x00015a0f      0x27f /home/leon/git/swp-report/iMX6_Platform_SDK/output/mx6dq/lib/libsdk.a(gpt.o)
 .debug_line    0x00015c8e      0x2a8 /home/leon/git/swp-report/iMX6_Platform_SDK/output/mx6dq/lib/libsdk.a(usb_common.o)
 .debug_line    0x00015f36      0xcc4 /home/leon/git/swp-report/iMX6_Platform_SDK/output/mx6dq/lib/libsdk.a(usbd_drv.o)
 .debug_line    0x00016bfa     0x1252 /home/leon/git/swp-report/iMX6_Platform_SDK/output/mx6dq/lib/libsdk.a(usbh_drv.o)
 .debug_line    0x00017e4c      0x37f /home/leon/git/swp-report/iMX6_Platform_SDK/output/mx6dq/lib/libsdk.a(usdhc.o)
 .debug_line    0x000181cb     0x14a4 /home/leon/git/swp-report/iMX6_Platform_SDK/output/mx6dq/lib/libsdk.a(usdhc_host.o)
 .debug_line    0x0001966f      0x348 /home/leon/git/swp-report/iMX6_Platform_SDK/output/mx6dq/lib/libsdk.a(usdhc_mmc.o)
 .debug_line    0x000199b7      0x202 /home/leon/git/swp-report/iMX6_Platform_SDK/output/mx6dq/lib/libsdk.a(usdhc_sd.o)
 .debug_line    0x00019bb9      0x11f /home/leon/git/swp-report/iMX6_Platform_SDK/output/mx6dq/lib/libsdk.a(spinlock.o)
 .debug_line    0x00019cd8      0x11f /home/leon/git/swp-report/iMX6_Platform_SDK/output/mx6dq/lib/libsdk.a(camera_profile.o)
 .debug_line    0x00019df7      0x59e /home/leon/git/swp-report/iMX6_Platform_SDK/output/mx6dq/lib/libsdk.a(hdmi_common.o)
 .debug_line    0x0001a395      0x270 /home/leon/git/swp-report/iMX6_Platform_SDK/output/mx6dq/lib/libsdk.a(mx6x_usb.o)
 .debug_line    0x0001a605      0x17b /home/leon/git/swp-report/iMX6_Platform_SDK/output/mx6dq/lib/libboard_smart_device_rev_a.a(board_audio.o)
 .debug_line    0x0001a780      0x240 /home/leon/git/swp-report/iMX6_Platform_SDK/output/mx6dq/lib/libboard_smart_device_rev_a.a(board_camera.o)
 .debug_line    0x0001a9c0      0x187 /home/leon/git/swp-report/iMX6_Platform_SDK/output/mx6dq/lib/libboard_smart_device_rev_a.a(board_display.o)
 .debug_line    0x0001ab47      0x172 /home/leon/git/swp-report/iMX6_Platform_SDK/output/mx6dq/lib/libboard_smart_device_rev_a.a(board_hdmi.o)
 .debug_line    0x0001acb9      0x10a /home/leon/git/swp-report/iMX6_Platform_SDK/output/mx6dq/lib/libboard_smart_device_rev_a.a(board_i2c.o)
 .debug_line    0x0001adc3      0x17c /home/leon/git/swp-report/iMX6_Platform_SDK/output/mx6dq/lib/libboard_smart_device_rev_a.a(board_mipi.o)
 .debug_line    0x0001af3f       0xd3 /home/leon/git/swp-report/iMX6_Platform_SDK/output/mx6dq/lib/libboard_smart_device_rev_a.a(board_network.o)
 .debug_line    0x0001b012      0x208 /home/leon/git/swp-report/iMX6_Platform_SDK/output/mx6dq/lib/libboard_smart_device_rev_a.a(board_pcie.o)
 .debug_line    0x0001b21a      0x236 /home/leon/git/swp-report/iMX6_Platform_SDK/output/mx6dq/lib/libboard_smart_device_rev_a.a(board_sata.o)
 .debug_line    0x0001b450      0x121 /home/leon/git/swp-report/iMX6_Platform_SDK/output/mx6dq/lib/libboard_smart_device_rev_a.a(board_usb.o)
 .debug_line    0x0001b571      0x139 /home/leon/git/swp-report/iMX6_Platform_SDK/output/mx6dq/lib/libboard_smart_device_rev_a.a(board_usdhc.o)
 .debug_line    0x0001b6aa       0x9e /home/leon/git/swp-report/iMX6_Platform_SDK/output/mx6dq/lib/libboard_smart_device_rev_a.a(ecspi_iomux_config.o)
 .debug_line    0x0001b748       0x99 /home/leon/git/swp-report/iMX6_Platform_SDK/output/mx6dq/lib/libboard_smart_device_rev_a.a(i2c_iomux_config.o)
 .debug_line    0x0001b7e1       0x9b /home/leon/git/swp-report/iMX6_Platform_SDK/output/mx6dq/lib/libboard_smart_device_rev_a.a(pwm_iomux_config.o)
 .debug_line    0x0001b87c       0x9d /home/leon/git/swp-report/iMX6_Platform_SDK/output/mx6dq/lib/libboard_smart_device_rev_a.a(usdhc_iomux_config.o)
 .debug_line    0x0001b919      0x194 /home/leon/git/swp-report/iMX6_Platform_SDK/output/mx6dq/lib/libsdk.a(max7310.o)

.debug_str      0x00000000    0x277d5
 .debug_str     0x00000000      0x141 /home/leon/git/swp-report/iMX6_Platform_SDK/output/mx6dq/sdk_unit_test/smart_device_rev_a/obj/apps/common/ivt.o
                                0x1ad (size before relaxing)
 .debug_str     0x00000141      0x1f4 /home/leon/git/swp-report/iMX6_Platform_SDK/output/mx6dq/sdk_unit_test/smart_device_rev_a/obj/apps/common/platform_init.o
                                0x2a3 (size before relaxing)
 .debug_str     0x00000335      0x170 /home/leon/git/swp-report/iMX6_Platform_SDK/output/mx6dq/sdk_unit_test/smart_device_rev_a/obj/apps/common/print_clock_info.o
                                0x277 (size before relaxing)
 .debug_str     0x000004a5      0x11a /home/leon/git/swp-report/iMX6_Platform_SDK/output/mx6dq/sdk_unit_test/smart_device_rev_a/obj/apps/common/print_version.o
                                0x20c (size before relaxing)
 .debug_str     0x000005bf      0x1ee /home/leon/git/swp-report/iMX6_Platform_SDK/output/mx6dq/sdk_unit_test/smart_device_rev_a/obj/apps/sdk_unit_test/src/all_test.o
                                0x2d1 (size before relaxing)
 .debug_str     0x000007ad       0x54 /home/leon/git/swp-report/iMX6_Platform_SDK/output/mx6dq/sdk_unit_test/smart_device_rev_a/obj/apps/sdk_unit_test/src/unit_test_main.o
                                0x140 (size before relaxing)
 .debug_str     0x00000801      0xec7 /home/leon/git/swp-report/iMX6_Platform_SDK/output/mx6dq/lib/libsdk.a(ccm_pll.o)
                               0x10fc (size before relaxing)
 .debug_str     0x000016c8      0x4e1 /home/leon/git/swp-report/iMX6_Platform_SDK/output/mx6dq/lib/libsdk.a(gic.o)
                                0x5f2 (size before relaxing)
 .debug_str     0x00001ba9      0x1a8 /home/leon/git/swp-report/iMX6_Platform_SDK/output/mx6dq/lib/libsdk.a(mmu.o)
                                0x35e (size before relaxing)
 .debug_str     0x00001d51      0x5e9 /home/leon/git/swp-report/iMX6_Platform_SDK/output/mx6dq/lib/libsdk.a(menu.o)
                                0x85d (size before relaxing)
 .debug_str     0x0000233a       0x4a /home/leon/git/swp-report/iMX6_Platform_SDK/output/mx6dq/lib/libsdk.a(sdk_version.o)
                                 0x82 (size before relaxing)
 .debug_str     0x00002384      0x10f /home/leon/git/swp-report/iMX6_Platform_SDK/output/mx6dq/lib/libsdk.a(system_util.o)
                                0x7ac (size before relaxing)
 .debug_str     0x00002493      0x19c /home/leon/git/swp-report/iMX6_Platform_SDK/output/mx6dq/lib/libsdk.a(text_color.o)
                                0x305 (size before relaxing)
 .debug_str     0x0000262f      0x21c /home/leon/git/swp-report/iMX6_Platform_SDK/output/mx6dq/lib/libsdk.a(board_id.o)
                                0x3d2 (size before relaxing)
 .debug_str     0x0000284b      0x2ba /home/leon/git/swp-report/iMX6_Platform_SDK/output/mx6dq/lib/libsdk.a(timer.o)
                                0x3f8 (size before relaxing)
 .debug_str     0x00002b05     0x104c /home/leon/git/swp-report/iMX6_Platform_SDK/output/mx6dq/lib/libsdk.a(imx_uart.o)
                               0x12ee (size before relaxing)
 .debug_str     0x00003b51       0xd7 /home/leon/git/swp-report/iMX6_Platform_SDK/output/mx6dq/lib/libsdk.a(interrupt.o)
                                0xc85 (size before relaxing)
 .debug_str     0x00003c28      0x283 /home/leon/git/swp-report/iMX6_Platform_SDK/output/mx6dq/lib/libsdk.a(epit.o)
                                0xf06 (size before relaxing)
 .debug_str     0x00003eab       0xbc /home/leon/git/swp-report/iMX6_Platform_SDK/output/mx6dq/lib/libsdk.a(abort_handler.o)
                                0x1a1 (size before relaxing)
 .debug_str     0x00003f67      0x13d /home/leon/git/swp-report/iMX6_Platform_SDK/output/mx6dq/lib/libboard_smart_device_rev_a.a(board_io_expanders.o)
                                0x240 (size before relaxing)
 .debug_str     0x000040a4       0x4c /home/leon/git/swp-report/iMX6_Platform_SDK/output/mx6dq/lib/libboard_smart_device_rev_a.a(hardware_modules.o)
                                0x152 (size before relaxing)
 .debug_str     0x000040f0       0xb2 /home/leon/git/swp-report/iMX6_Platform_SDK/output/mx6dq/lib/libboard_smart_device_rev_a.a(dcd.o)
                                0x161 (size before relaxing)
 .debug_str     0x000041a2       0xc8 /home/leon/git/swp-report/iMX6_Platform_SDK/output/mx6dq/lib/libboard_smart_device_rev_a.a(uart_iomux_config.o)
                                0x17e (size before relaxing)
 .debug_str     0x0000426a      0x355 /home/leon/git/swp-report/iMX6_Platform_SDK/output/mx6dq/lib/libboard_smart_device_rev_a.a(iomux_config.o)
                                0x37f (size before relaxing)
 .debug_str     0x000045bf     0x27dd /home/leon/git/swp-report/iMX6_Platform_SDK/output/mx6dq/lib/libboard_smart_device_rev_a.a(ipu1_iomux_config.o)
                               0x285e (size before relaxing)
 .debug_str     0x00006d9c      0xa07 /home/leon/git/swp-report/iMX6_Platform_SDK/output/mx6dq/lib/libboard_smart_device_rev_a.a(kpp_iomux_config.o)
                                0xa84 (size before relaxing)
 .debug_str     0x000077a3     0x21a5 /home/leon/git/swp-report/iMX6_Platform_SDK/output/mx6dq/lib/libboard_smart_device_rev_a.a(mmdc_iomux_config.o)
                               0x2218 (size before relaxing)
 .debug_str     0x00009948      0x165 /home/leon/git/swp-report/iMX6_Platform_SDK/output/mx6dq/lib/libboard_smart_device_rev_a.a(pwm1_iomux_config.o)
                                0x1e2 (size before relaxing)
 .debug_str     0x00009aad      0x333 /home/leon/git/swp-report/iMX6_Platform_SDK/output/mx6dq/lib/libboard_smart_device_rev_a.a(sjc_iomux_config.o)
                                0x3a2 (size before relaxing)
 .debug_str     0x00009de0      0x2f9 /home/leon/git/swp-report/iMX6_Platform_SDK/output/mx6dq/lib/libboard_smart_device_rev_a.a(uart1_iomux_config.o)
                                0x37c (size before relaxing)
 .debug_str     0x0000a0d9      0x9df /home/leon/git/swp-report/iMX6_Platform_SDK/output/mx6dq/lib/libboard_smart_device_rev_a.a(usdhc2_iomux_config.o)
                                0xa5c (size before relaxing)
 .debug_str     0x0000aab8      0x9af /home/leon/git/swp-report/iMX6_Platform_SDK/output/mx6dq/lib/libboard_smart_device_rev_a.a(usdhc3_iomux_config.o)
                                0xa2c (size before relaxing)
 .debug_str     0x0000b467      0x9af /home/leon/git/swp-report/iMX6_Platform_SDK/output/mx6dq/lib/libboard_smart_device_rev_a.a(usdhc4_iomux_config.o)
                                0xa2c (size before relaxing)
 .debug_str     0x0000be16      0x463 /home/leon/git/swp-report/iMX6_Platform_SDK/output/mx6dq/lib/libboard_smart_device_rev_a.a(audmux_iomux_config.o)
                                0x4e0 (size before relaxing)
 .debug_str     0x0000c279      0x151 /home/leon/git/swp-report/iMX6_Platform_SDK/output/mx6dq/lib/libboard_smart_device_rev_a.a(ccm_iomux_config.o)
                                0x1ce (size before relaxing)
 .debug_str     0x0000c3ca      0x609 /home/leon/git/swp-report/iMX6_Platform_SDK/output/mx6dq/lib/libboard_smart_device_rev_a.a(ecspi1_iomux_config.o)
                                0x68c (size before relaxing)
 .debug_str     0x0000c9d3     0x1360 /home/leon/git/swp-report/iMX6_Platform_SDK/output/mx6dq/lib/libboard_smart_device_rev_a.a(enet_iomux_config.o)
                               0x13f7 (size before relaxing)
 .debug_str     0x0000dd33      0x2ae /home/leon/git/swp-report/iMX6_Platform_SDK/output/mx6dq/lib/libboard_smart_device_rev_a.a(flexcan1_iomux_config.o)
                                0x331 (size before relaxing)
 .debug_str     0x0000dfe1      0xcdd /home/leon/git/swp-report/iMX6_Platform_SDK/output/mx6dq/lib/libboard_smart_device_rev_a.a(gpio1_iomux_config.o)
                               0x10ca (size before relaxing)
 .debug_str     0x0000ecbe      0x9dd /home/leon/git/swp-report/iMX6_Platform_SDK/output/mx6dq/lib/libboard_smart_device_rev_a.a(gpio2_iomux_config.o)
                                0xa5a (size before relaxing)
 .debug_str     0x0000f69b     0x1059 /home/leon/git/swp-report/iMX6_Platform_SDK/output/mx6dq/lib/libboard_smart_device_rev_a.a(gpio3_iomux_config.o)
                               0x10d6 (size before relaxing)
 .debug_str     0x000106f4      0x249 /home/leon/git/swp-report/iMX6_Platform_SDK/output/mx6dq/lib/libboard_smart_device_rev_a.a(gpio4_iomux_config.o)
                                0x48a (size before relaxing)
 .debug_str     0x0001093d      0x255 /home/leon/git/swp-report/iMX6_Platform_SDK/output/mx6dq/lib/libboard_smart_device_rev_a.a(gpio5_iomux_config.o)
                                0x2d2 (size before relaxing)
 .debug_str     0x00010b92      0x8e3 /home/leon/git/swp-report/iMX6_Platform_SDK/output/mx6dq/lib/libboard_smart_device_rev_a.a(gpio6_iomux_config.o)
                                0x960 (size before relaxing)
 .debug_str     0x00011475      0x31f /home/leon/git/swp-report/iMX6_Platform_SDK/output/mx6dq/lib/libboard_smart_device_rev_a.a(gpio7_iomux_config.o)
                                0x39c (size before relaxing)
 .debug_str     0x00011794      0x5a7 /home/leon/git/swp-report/iMX6_Platform_SDK/output/mx6dq/lib/libboard_smart_device_rev_a.a(gps_iomux_config.o)
                                0x62a (size before relaxing)
 .debug_str     0x00011d3b      0x359 /home/leon/git/swp-report/iMX6_Platform_SDK/output/mx6dq/lib/libboard_smart_device_rev_a.a(i2c1_iomux_config.o)
                                0x3dc (size before relaxing)
 .debug_str     0x00012094      0x335 /home/leon/git/swp-report/iMX6_Platform_SDK/output/mx6dq/lib/libboard_smart_device_rev_a.a(i2c2_iomux_config.o)
                                0x3b8 (size before relaxing)
 .debug_str     0x000123c9      0x31d /home/leon/git/swp-report/iMX6_Platform_SDK/output/mx6dq/lib/libboard_smart_device_rev_a.a(i2c3_iomux_config.o)
                                0x3a0 (size before relaxing)
 .debug_str     0x000126e6      0x16f /home/leon/git/swp-report/iMX6_Platform_SDK/output/mx6dq/sdk_unit_test/smart_device_rev_a/libsdk_unit_test.a(cpu_wp_test.o)
                                0x304 (size before relaxing)
 .debug_str     0x00012855       0xf8 /home/leon/git/swp-report/iMX6_Platform_SDK/output/mx6dq/sdk_unit_test/smart_device_rev_a/libsdk_unit_test.a(multicore_test.o)
                                0xcab (size before relaxing)
 .debug_str     0x0001294d      0x218 /home/leon/git/swp-report/iMX6_Platform_SDK/output/mx6dq/sdk_unit_test/smart_device_rev_a/libsdk_unit_test.a(audio_test.o)
                                0x6a4 (size before relaxing)
 .debug_str     0x00012b65       0xa9 /home/leon/git/swp-report/iMX6_Platform_SDK/output/mx6dq/sdk_unit_test/smart_device_rev_a/libsdk_unit_test.a(gic_test.o)
                                0xc7d (size before relaxing)
 .debug_str     0x00012c0e       0xa3 /home/leon/git/swp-report/iMX6_Platform_SDK/output/mx6dq/sdk_unit_test/smart_device_rev_a/libsdk_unit_test.a(ocotp_test.o)
                                0x521 (size before relaxing)
 .debug_str     0x00012cb1       0x96 /home/leon/git/swp-report/iMX6_Platform_SDK/output/mx6dq/sdk_unit_test/smart_device_rev_a/libsdk_unit_test.a(i2c_test.o)
                                0x505 (size before relaxing)
 .debug_str     0x00012d47      0x181 /home/leon/git/swp-report/iMX6_Platform_SDK/output/mx6dq/sdk_unit_test/smart_device_rev_a/libsdk_unit_test.a(imx6_i2c_device.o)
                                0x702 (size before relaxing)
 .debug_str     0x00012ec8       0xeb /home/leon/git/swp-report/iMX6_Platform_SDK/output/mx6dq/sdk_unit_test/smart_device_rev_a/libsdk_unit_test.a(snvs_rtc_test.o)
                                0x585 (size before relaxing)
 .debug_str     0x00012fb3       0x96 /home/leon/git/swp-report/iMX6_Platform_SDK/output/mx6dq/sdk_unit_test/smart_device_rev_a/libsdk_unit_test.a(snvs_srtc_test.o)
                                0x558 (size before relaxing)
 .debug_str     0x00013049       0xe4 /home/leon/git/swp-report/iMX6_Platform_SDK/output/mx6dq/sdk_unit_test/smart_device_rev_a/libsdk_unit_test.a(tempmon_test.o)
                                0x556 (size before relaxing)
 .debug_str     0x0001312d       0xb1 /home/leon/git/swp-report/iMX6_Platform_SDK/output/mx6dq/sdk_unit_test/smart_device_rev_a/libsdk_unit_test.a(sdma_test.o)
                                0x527 (size before relaxing)
 .debug_str     0x000131de      0x3a9 /home/leon/git/swp-report/iMX6_Platform_SDK/output/mx6dq/sdk_unit_test/smart_device_rev_a/libsdk_unit_test.a(spi_lpb.o)
                                0x4ee (size before relaxing)
 .debug_str     0x00013587      0x11c /home/leon/git/swp-report/iMX6_Platform_SDK/output/mx6dq/sdk_unit_test/smart_device_rev_a/libsdk_unit_test.a(uart_loopback.o)
                                0x5de (size before relaxing)
 .debug_str     0x000136a3      0x100 /home/leon/git/swp-report/iMX6_Platform_SDK/output/mx6dq/sdk_unit_test/smart_device_rev_a/libsdk_unit_test.a(uart_test.o)
                                0x6aa (size before relaxing)
 .debug_str     0x000137a3       0xe5 /home/leon/git/swp-report/iMX6_Platform_SDK/output/mx6dq/sdk_unit_test/smart_device_rev_a/libsdk_unit_test.a(epit_test.o)
                                0x66a (size before relaxing)
 .debug_str     0x00013888      0x272 /home/leon/git/swp-report/iMX6_Platform_SDK/output/mx6dq/sdk_unit_test/smart_device_rev_a/libsdk_unit_test.a(gpt_test.o)
                                0x954 (size before relaxing)
 .debug_str     0x00013afa       0x74 /home/leon/git/swp-report/iMX6_Platform_SDK/output/mx6dq/sdk_unit_test/smart_device_rev_a/libsdk_unit_test.a(timer_test.o)
                                0x16d (size before relaxing)
 .debug_str     0x00013b6e      0x1aa /home/leon/git/swp-report/iMX6_Platform_SDK/output/mx6dq/sdk_unit_test/smart_device_rev_a/libsdk_unit_test.a(usdhc_test.o)
                                0x6cf (size before relaxing)
 .debug_str     0x00013d18       0xbc /home/leon/git/swp-report/iMX6_Platform_SDK/output/mx6dq/sdk_unit_test/smart_device_rev_a/libsdk_unit_test.a(pwm_test.o)
                                0x5b2 (size before relaxing)
 .debug_str     0x00013dd4       0xd3 /home/leon/git/swp-report/iMX6_Platform_SDK/output/mx6dq/sdk_unit_test/smart_device_rev_a/libsdk_unit_test.a(watchdog_test.o)
                                0x552 (size before relaxing)
 .debug_str     0x00013ea7      0xa40 /home/leon/git/swp-report/iMX6_Platform_SDK/output/mx6dq/sdk_unit_test/smart_device_rev_a/libsdk_unit_test.a(hdmi_test.o)
                               0x1613 (size before relaxing)
 .debug_str     0x000148e7      0x44c /home/leon/git/swp-report/iMX6_Platform_SDK/output/mx6dq/sdk_unit_test/smart_device_rev_a/libsdk_unit_test.a(ips_display.o)
                                0x92c (size before relaxing)
 .debug_str     0x00014d33       0x6a /home/leon/git/swp-report/iMX6_Platform_SDK/output/mx6dq/sdk_unit_test/smart_device_rev_a/libsdk_unit_test.a(ips_test.o)
                                0x673 (size before relaxing)
 .debug_str     0x00014d9d      0x113 /home/leon/git/swp-report/iMX6_Platform_SDK/output/mx6dq/sdk_unit_test/smart_device_rev_a/libsdk_unit_test.a(ipu_image.o)
                                0x33d (size before relaxing)
 .debug_str     0x00014eb0       0xe7 /home/leon/git/swp-report/iMX6_Platform_SDK/output/mx6dq/sdk_unit_test/smart_device_rev_a/libsdk_unit_test.a(keypad_test.o)
                                0x557 (size before relaxing)
 .debug_str     0x00014f97       0xe2 /home/leon/git/swp-report/iMX6_Platform_SDK/output/mx6dq/sdk_unit_test/smart_device_rev_a/libsdk_unit_test.a(camera_test.o)
                                0x5f7 (size before relaxing)
 .debug_str     0x00015079       0xee /home/leon/git/swp-report/iMX6_Platform_SDK/output/mx6dq/sdk_unit_test/smart_device_rev_a/libsdk_unit_test.a(csi_test_mode.o)
                                0x784 (size before relaxing)
 .debug_str     0x00015167      0x145 /home/leon/git/swp-report/iMX6_Platform_SDK/output/mx6dq/sdk_unit_test/smart_device_rev_a/libsdk_unit_test.a(sensor_capture.o)
                                0x8a3 (size before relaxing)
 .debug_str     0x000152ac      0x2f0 /home/leon/git/swp-report/iMX6_Platform_SDK/output/mx6dq/sdk_unit_test/smart_device_rev_a/libsdk_unit_test.a(pcie_test_rc.o)
                                0x782 (size before relaxing)
 .debug_str     0x0001559c      0x165 /home/leon/git/swp-report/iMX6_Platform_SDK/output/mx6dq/sdk_unit_test/smart_device_rev_a/libsdk_unit_test.a(usb_test.o)
                                0x20e (size before relaxing)
 .debug_str     0x00015701      0xe12 /home/leon/git/swp-report/iMX6_Platform_SDK/output/mx6dq/sdk_unit_test/smart_device_rev_a/libsdk_unit_test.a(enet_test.o)
                               0x1036 (size before relaxing)
 .debug_str     0x00016513      0x165 /home/leon/git/swp-report/iMX6_Platform_SDK/output/mx6dq/sdk_unit_test/smart_device_rev_a/libsdk_unit_test.a(spi_test.o)
                                0x613 (size before relaxing)
 .debug_str     0x00016678      0x183 /home/leon/git/swp-report/iMX6_Platform_SDK/output/mx6dq/sdk_unit_test/smart_device_rev_a/libsdk_unit_test.a(accelerometer_test.o)
                                0x642 (size before relaxing)
 .debug_str     0x000167fb      0x1b4 /home/leon/git/swp-report/iMX6_Platform_SDK/output/mx6dq/sdk_unit_test/smart_device_rev_a/libsdk_unit_test.a(sata_test.o)
                                0x6d6 (size before relaxing)
 .debug_str     0x000169af       0xac /home/leon/git/swp-report/iMX6_Platform_SDK/output/mx6dq/sdk_unit_test/smart_device_rev_a/libsdk_unit_test.a(at24cxx.o)
                                0x2df (size before relaxing)
 .debug_str     0x00016a5b       0x83 /home/leon/git/swp-report/iMX6_Platform_SDK/output/mx6dq/sdk_unit_test/smart_device_rev_a/libsdk_unit_test.a(mem_2_mem.o)
                                0x4f5 (size before relaxing)
 .debug_str     0x00016ade      0x156 /home/leon/git/swp-report/iMX6_Platform_SDK/output/mx6dq/sdk_unit_test/smart_device_rev_a/libsdk_unit_test.a(pwm_output.o)
                                0x289 (size before relaxing)
 .debug_str     0x00016c34      0x136 /home/leon/git/swp-report/iMX6_Platform_SDK/output/mx6dq/sdk_unit_test/smart_device_rev_a/libsdk_unit_test.a(init_dma_data.o)
                                0x2b0 (size before relaxing)
 .debug_str     0x00016d6a       0x9e /home/leon/git/swp-report/iMX6_Platform_SDK/output/mx6dq/sdk_unit_test/smart_device_rev_a/libsdk_unit_test.a(ips_combiner.o)
                                0x7ba (size before relaxing)
 .debug_str     0x00016e08      0x3f5 /home/leon/git/swp-report/iMX6_Platform_SDK/output/mx6dq/sdk_unit_test/smart_device_rev_a/libsdk_unit_test.a(ips_csc.o)
                                0xb2e (size before relaxing)
 .debug_str     0x000171fd       0xde /home/leon/git/swp-report/iMX6_Platform_SDK/output/mx6dq/sdk_unit_test/smart_device_rev_a/libsdk_unit_test.a(ips_resize.o)
                                0xb5a (size before relaxing)
 .debug_str     0x000172db       0x5e /home/leon/git/swp-report/iMX6_Platform_SDK/output/mx6dq/sdk_unit_test/smart_device_rev_a/libsdk_unit_test.a(ips_rotate.o)
                                0xaf0 (size before relaxing)
 .debug_str     0x00017339      0xc3a /home/leon/git/swp-report/iMX6_Platform_SDK/output/mx6dq/sdk_unit_test/smart_device_rev_a/libsdk_unit_test.a(usb0_device_mouse_test.o)
                               0x121f (size before relaxing)
 .debug_str     0x00017f73      0x466 /home/leon/git/swp-report/iMX6_Platform_SDK/output/mx6dq/sdk_unit_test/smart_device_rev_a/libsdk_unit_test.a(usb0_host_test.o)
                                0xa0b (size before relaxing)
 .debug_str     0x000183d9       0x84 /home/leon/git/swp-report/iMX6_Platform_SDK/output/mx6dq/sdk_unit_test/smart_device_rev_a/libsdk_unit_test.a(usb0_host_testmodes_test.o)
                                0x370 (size before relaxing)
 .debug_str     0x0001845d      0x138 /home/leon/git/swp-report/iMX6_Platform_SDK/output/mx6dq/sdk_unit_test/smart_device_rev_a/libsdk_unit_test.a(spi_nor_numonyx.o)
                                0x2af (size before relaxing)
 .debug_str     0x00018595       0x6a /home/leon/git/swp-report/iMX6_Platform_SDK/output/mx6dq/lib/libsdk.a(profile.o)
                                 0x8b (size before relaxing)
 .debug_str     0x000185ff      0x1e7 /home/leon/git/swp-report/iMX6_Platform_SDK/output/mx6dq/lib/libsdk.a(armv7_cache.o)
                                0x2aa (size before relaxing)
 .debug_str     0x000187e6      0x1fd /home/leon/git/swp-report/iMX6_Platform_SDK/output/mx6dq/lib/libsdk.a(runtime_support.o)
                                0x3ac (size before relaxing)
 .debug_str     0x000189e3      0x316 /home/leon/git/swp-report/iMX6_Platform_SDK/output/mx6dq/lib/libsdk.a(mma8451.o)
                                0x4e1 (size before relaxing)
 .debug_str     0x00018cf9      0x27b /home/leon/git/swp-report/iMX6_Platform_SDK/output/mx6dq/lib/libsdk.a(smd_sensor.o)
                                0x524 (size before relaxing)
 .debug_str     0x00018f74      0x118 /home/leon/git/swp-report/iMX6_Platform_SDK/output/mx6dq/lib/libsdk.a(cpu_get_cores.o)
                                0x20a (size before relaxing)
 .debug_str     0x0001908c      0x377 /home/leon/git/swp-report/iMX6_Platform_SDK/output/mx6dq/lib/libsdk.a(cpu_multicore.o)
                                0x494 (size before relaxing)
 .debug_str     0x00019403      0x485 /home/leon/git/swp-report/iMX6_Platform_SDK/output/mx6dq/lib/libsdk.a(cpu_workpoint.o)
                                0x641 (size before relaxing)
 .debug_str     0x00019888      0x2b1 /home/leon/git/swp-report/iMX6_Platform_SDK/output/mx6dq/lib/libsdk.a(enet_drv.o)
                               0x1153 (size before relaxing)
 .debug_str     0x00019b39      0x37a /home/leon/git/swp-report/iMX6_Platform_SDK/output/mx6dq/lib/libsdk.a(gpio.o)
                                0x48b (size before relaxing)
 .debug_str     0x00019eb3       0x53 /home/leon/git/swp-report/iMX6_Platform_SDK/output/mx6dq/lib/libsdk.a(imx6dq_gpio_map.o)
                                0x10a (size before relaxing)
 .debug_str     0x00019f06     0x1b0d /home/leon/git/swp-report/iMX6_Platform_SDK/output/mx6dq/lib/libsdk.a(hdmi_tx.o)
                               0x1f9b (size before relaxing)
 .debug_str     0x0001ba13      0xb79 /home/leon/git/swp-report/iMX6_Platform_SDK/output/mx6dq/lib/libsdk.a(hdmi_tx_audio.o)
                                0xd5b (size before relaxing)
 .debug_str     0x0001c58c      0x8d9 /home/leon/git/swp-report/iMX6_Platform_SDK/output/mx6dq/lib/libsdk.a(hdmi_tx_phy.o)
                                0xa56 (size before relaxing)
 .debug_str     0x0001ce65      0x2c8 /home/leon/git/swp-report/iMX6_Platform_SDK/output/mx6dq/lib/libsdk.a(imx_i2c.o)
                               0x1099 (size before relaxing)
 .debug_str     0x0001d12d      0x10b /home/leon/git/swp-report/iMX6_Platform_SDK/output/mx6dq/lib/libsdk.a(imx_i2c_slave.o)
                                0x3e9 (size before relaxing)
 .debug_str     0x0001d238      0x451 /home/leon/git/swp-report/iMX6_Platform_SDK/output/mx6dq/lib/libsdk.a(ips_disp_panel.o)
                                0x66a (size before relaxing)
 .debug_str     0x0001d689      0x2cc /home/leon/git/swp-report/iMX6_Platform_SDK/output/mx6dq/lib/libsdk.a(ipu_common.o)
                                0xa48 (size before relaxing)
 .debug_str     0x0001d955      0x238 /home/leon/git/swp-report/iMX6_Platform_SDK/output/mx6dq/lib/libsdk.a(ipu_csi.o)
                                0x430 (size before relaxing)
 .debug_str     0x0001db8d      0x22e /home/leon/git/swp-report/iMX6_Platform_SDK/output/mx6dq/lib/libsdk.a(ipu_dc.o)
                                0x442 (size before relaxing)
 .debug_str     0x0001ddbb      0x29f /home/leon/git/swp-report/iMX6_Platform_SDK/output/mx6dq/lib/libsdk.a(ipu_di.o)
                                0x4f1 (size before relaxing)
 .debug_str     0x0001e05a       0x70 /home/leon/git/swp-report/iMX6_Platform_SDK/output/mx6dq/lib/libsdk.a(ipu_dmfc.o)
                                0x399 (size before relaxing)
 .debug_str     0x0001e0ca       0x9e /home/leon/git/swp-report/iMX6_Platform_SDK/output/mx6dq/lib/libsdk.a(ipu_dp.o)
                                0x1e2 (size before relaxing)
 .debug_str     0x0001e168      0x2b2 /home/leon/git/swp-report/iMX6_Platform_SDK/output/mx6dq/lib/libsdk.a(ipu_ic.o)
                                0x581 (size before relaxing)
 .debug_str     0x0001e41a      0x24a /home/leon/git/swp-report/iMX6_Platform_SDK/output/mx6dq/lib/libsdk.a(ipu_idmac.o)
                                0x88f (size before relaxing)
 .debug_str     0x0001e664      0x293 /home/leon/git/swp-report/iMX6_Platform_SDK/output/mx6dq/lib/libsdk.a(ipu_vdi.o)
                                0x942 (size before relaxing)
 .debug_str     0x0001e8f7      0x323 /home/leon/git/swp-report/iMX6_Platform_SDK/output/mx6dq/lib/libsdk.a(keypad_port.o)
                                0xee3 (size before relaxing)
 .debug_str     0x0001ec1a      0x1a4 /home/leon/git/swp-report/iMX6_Platform_SDK/output/mx6dq/lib/libsdk.a(ldb.o)
                                0x42f (size before relaxing)
 .debug_str     0x0001edbe      0x2df /home/leon/git/swp-report/iMX6_Platform_SDK/output/mx6dq/lib/libsdk.a(ocotp.o)
                                0x3d6 (size before relaxing)
 .debug_str     0x0001f09d      0x8d9 /home/leon/git/swp-report/iMX6_Platform_SDK/output/mx6dq/lib/libsdk.a(pcie.o)
                                0xaa2 (size before relaxing)
 .debug_str     0x0001f976      0x171 /home/leon/git/swp-report/iMX6_Platform_SDK/output/mx6dq/lib/libsdk.a(pcie_phy.o)
                                0x279 (size before relaxing)
 .debug_str     0x0001fae7      0x29c /home/leon/git/swp-report/iMX6_Platform_SDK/output/mx6dq/lib/libsdk.a(pcie_prot.o)
                                0x4a3 (size before relaxing)
 .debug_str     0x0001fd83     0x1c36 /home/leon/git/swp-report/iMX6_Platform_SDK/output/mx6dq/lib/libsdk.a(pmu_driver.o)
                               0x2b40 (size before relaxing)
 .debug_str     0x000219b9      0x271 /home/leon/git/swp-report/iMX6_Platform_SDK/output/mx6dq/lib/libsdk.a(pwm.o)
                                0xfb4 (size before relaxing)
 .debug_str     0x00021c2a      0x211 /home/leon/git/swp-report/iMX6_Platform_SDK/output/mx6dq/lib/libsdk.a(rtc.o)
                                0xe35 (size before relaxing)
 .debug_str     0x00021e3b      0x14f /home/leon/git/swp-report/iMX6_Platform_SDK/output/mx6dq/lib/libsdk.a(srtc.o)
                                0xd86 (size before relaxing)
 .debug_str     0x00021f8a     0x13a3 /home/leon/git/swp-report/iMX6_Platform_SDK/output/mx6dq/lib/libsdk.a(sata.o)
                               0x175b (size before relaxing)
 .debug_str     0x0002332d      0x702 /home/leon/git/swp-report/iMX6_Platform_SDK/output/mx6dq/lib/libsdk.a(sdma.o)
                               0x15e6 (size before relaxing)
 .debug_str     0x00023a2f       0x5e /home/leon/git/swp-report/iMX6_Platform_SDK/output/mx6dq/lib/libsdk.a(sdma_script_info.o)
                                0x2dc (size before relaxing)
 .debug_str     0x00023a8d      0x3fa /home/leon/git/swp-report/iMX6_Platform_SDK/output/mx6dq/lib/libsdk.a(snvs.o)
                                0x50b (size before relaxing)
 .debug_str     0x00023e87      0x2e1 /home/leon/git/swp-report/iMX6_Platform_SDK/output/mx6dq/lib/libsdk.a(ecspi.o)
                                0x4a7 (size before relaxing)
 .debug_str     0x00024168      0x2e3 /home/leon/git/swp-report/iMX6_Platform_SDK/output/mx6dq/lib/libsdk.a(tempmon.o)
                                0xe8c (size before relaxing)
 .debug_str     0x0002444b      0x339 /home/leon/git/swp-report/iMX6_Platform_SDK/output/mx6dq/lib/libsdk.a(gpt.o)
                               0x110b (size before relaxing)
 .debug_str     0x00024784       0xca /home/leon/git/swp-report/iMX6_Platform_SDK/output/mx6dq/lib/libsdk.a(usb_common.o)
                                0x79d (size before relaxing)
 .debug_str     0x0002484e      0x4b3 /home/leon/git/swp-report/iMX6_Platform_SDK/output/mx6dq/lib/libsdk.a(usbd_drv.o)
                                0xef2 (size before relaxing)
 .debug_str     0x00024d01      0x2ef /home/leon/git/swp-report/iMX6_Platform_SDK/output/mx6dq/lib/libsdk.a(usbh_drv.o)
                                0xaab (size before relaxing)
 .debug_str     0x00024ff0      0x57c /home/leon/git/swp-report/iMX6_Platform_SDK/output/mx6dq/lib/libsdk.a(usdhc.o)
                               0x1201 (size before relaxing)
 .debug_str     0x0002556c      0xb3c /home/leon/git/swp-report/iMX6_Platform_SDK/output/mx6dq/lib/libsdk.a(usdhc_host.o)
                                0xfad (size before relaxing)
 .debug_str     0x000260a8      0x224 /home/leon/git/swp-report/iMX6_Platform_SDK/output/mx6dq/lib/libsdk.a(usdhc_mmc.o)
                                0x72e (size before relaxing)
 .debug_str     0x000262cc       0xae /home/leon/git/swp-report/iMX6_Platform_SDK/output/mx6dq/lib/libsdk.a(usdhc_sd.o)
                                0x58d (size before relaxing)
 .debug_str     0x0002637a       0x72 /home/leon/git/swp-report/iMX6_Platform_SDK/output/mx6dq/lib/libsdk.a(spinlock.o)
                                0x18c (size before relaxing)
 .debug_str     0x000263ec      0x1c6 /home/leon/git/swp-report/iMX6_Platform_SDK/output/mx6dq/lib/libsdk.a(camera_profile.o)
                                0x4be (size before relaxing)
 .debug_str     0x000265b2       0xbd /home/leon/git/swp-report/iMX6_Platform_SDK/output/mx6dq/lib/libsdk.a(hdmi_common.o)
                                0x39d (size before relaxing)
 .debug_str     0x0002666f      0x1b6 /home/leon/git/swp-report/iMX6_Platform_SDK/output/mx6dq/lib/libsdk.a(mx6x_usb.o)
                                0x3df (size before relaxing)
 .debug_str     0x00026825      0x188 /home/leon/git/swp-report/iMX6_Platform_SDK/output/mx6dq/lib/libboard_smart_device_rev_a.a(board_audio.o)
                                0x40c (size before relaxing)
 .debug_str     0x000269ad      0x247 /home/leon/git/swp-report/iMX6_Platform_SDK/output/mx6dq/lib/libboard_smart_device_rev_a.a(board_camera.o)
                               0x1183 (size before relaxing)
 .debug_str     0x00026bf4       0xc1 /home/leon/git/swp-report/iMX6_Platform_SDK/output/mx6dq/lib/libboard_smart_device_rev_a.a(board_display.o)
                                0x58b (size before relaxing)
 .debug_str     0x00026cb5      0x247 /home/leon/git/swp-report/iMX6_Platform_SDK/output/mx6dq/lib/libboard_smart_device_rev_a.a(board_hdmi.o)
                                0x96e (size before relaxing)
 .debug_str     0x00026efc      0x154 /home/leon/git/swp-report/iMX6_Platform_SDK/output/mx6dq/lib/libboard_smart_device_rev_a.a(board_i2c.o)
                                0x29f (size before relaxing)
 .debug_str     0x00027050      0x108 /home/leon/git/swp-report/iMX6_Platform_SDK/output/mx6dq/lib/libboard_smart_device_rev_a.a(board_mipi.o)
                                0x6de (size before relaxing)
 .debug_str     0x00027158       0xa1 /home/leon/git/swp-report/iMX6_Platform_SDK/output/mx6dq/lib/libboard_smart_device_rev_a.a(board_network.o)
                                0x1d5 (size before relaxing)
 .debug_str     0x000271f9      0x15e /home/leon/git/swp-report/iMX6_Platform_SDK/output/mx6dq/lib/libboard_smart_device_rev_a.a(board_pcie.o)
                                0x401 (size before relaxing)
 .debug_str     0x00027357       0x9d /home/leon/git/swp-report/iMX6_Platform_SDK/output/mx6dq/lib/libboard_smart_device_rev_a.a(board_sata.o)
                                0x42c (size before relaxing)
 .debug_str     0x000273f4       0x70 /home/leon/git/swp-report/iMX6_Platform_SDK/output/mx6dq/lib/libboard_smart_device_rev_a.a(board_usb.o)
                                0x231 (size before relaxing)
 .debug_str     0x00027464       0x83 /home/leon/git/swp-report/iMX6_Platform_SDK/output/mx6dq/lib/libboard_smart_device_rev_a.a(board_usdhc.o)
                                0x1d1 (size before relaxing)
 .debug_str     0x000274e7       0x79 /home/leon/git/swp-report/iMX6_Platform_SDK/output/mx6dq/lib/libboard_smart_device_rev_a.a(ecspi_iomux_config.o)
                                0x180 (size before relaxing)
 .debug_str     0x00027560       0x75 /home/leon/git/swp-report/iMX6_Platform_SDK/output/mx6dq/lib/libboard_smart_device_rev_a.a(i2c_iomux_config.o)
                                0x17c (size before relaxing)
 .debug_str     0x000275d5       0x75 /home/leon/git/swp-report/iMX6_Platform_SDK/output/mx6dq/lib/libboard_smart_device_rev_a.a(pwm_iomux_config.o)
                                0x17c (size before relaxing)
 .debug_str     0x0002764a       0x79 /home/leon/git/swp-report/iMX6_Platform_SDK/output/mx6dq/lib/libboard_smart_device_rev_a.a(usdhc_iomux_config.o)
                                0x180 (size before relaxing)
 .debug_str     0x000276c3      0x112 /home/leon/git/swp-report/iMX6_Platform_SDK/output/mx6dq/lib/libsdk.a(max7310.o)
                                0x2ab (size before relaxing)

.debug_loc      0x00000000     0x9a2c
 .debug_loc     0x00000000       0x2c /home/leon/git/swp-report/iMX6_Platform_SDK/output/mx6dq/sdk_unit_test/smart_device_rev_a/obj/apps/common/platform_init.o
 .debug_loc     0x0000002c       0x58 /home/leon/git/swp-report/iMX6_Platform_SDK/output/mx6dq/sdk_unit_test/smart_device_rev_a/obj/apps/common/print_clock_info.o
 .debug_loc     0x00000084       0x2c /home/leon/git/swp-report/iMX6_Platform_SDK/output/mx6dq/sdk_unit_test/smart_device_rev_a/obj/apps/common/print_version.o
 .debug_loc     0x000000b0       0x58 /home/leon/git/swp-report/iMX6_Platform_SDK/output/mx6dq/sdk_unit_test/smart_device_rev_a/obj/apps/sdk_unit_test/src/all_test.o
 .debug_loc     0x00000108       0x2c /home/leon/git/swp-report/iMX6_Platform_SDK/output/mx6dq/sdk_unit_test/smart_device_rev_a/obj/apps/sdk_unit_test/src/unit_test_main.o
 .debug_loc     0x00000134      0x18c /home/leon/git/swp-report/iMX6_Platform_SDK/output/mx6dq/lib/libsdk.a(ccm_pll.o)
 .debug_loc     0x000002c0      0x2ec /home/leon/git/swp-report/iMX6_Platform_SDK/output/mx6dq/lib/libsdk.a(gic.o)
 .debug_loc     0x000005ac       0xdc /home/leon/git/swp-report/iMX6_Platform_SDK/output/mx6dq/lib/libsdk.a(mmu.o)
 .debug_loc     0x00000688      0x1e4 /home/leon/git/swp-report/iMX6_Platform_SDK/output/mx6dq/lib/libsdk.a(menu.o)
 .debug_loc     0x0000086c      0x108 /home/leon/git/swp-report/iMX6_Platform_SDK/output/mx6dq/lib/libsdk.a(system_util.o)
 .debug_loc     0x00000974       0x58 /home/leon/git/swp-report/iMX6_Platform_SDK/output/mx6dq/lib/libsdk.a(text_color.o)
 .debug_loc     0x000009cc      0x134 /home/leon/git/swp-report/iMX6_Platform_SDK/output/mx6dq/lib/libsdk.a(board_id.o)
 .debug_loc     0x00000b00       0xb0 /home/leon/git/swp-report/iMX6_Platform_SDK/output/mx6dq/lib/libsdk.a(timer.o)
 .debug_loc     0x00000bb0      0x134 /home/leon/git/swp-report/iMX6_Platform_SDK/output/mx6dq/lib/libsdk.a(imx_uart.o)
 .debug_loc     0x00000ce4       0xdc /home/leon/git/swp-report/iMX6_Platform_SDK/output/mx6dq/lib/libsdk.a(interrupt.o)
 .debug_loc     0x00000dc0      0x160 /home/leon/git/swp-report/iMX6_Platform_SDK/output/mx6dq/lib/libsdk.a(epit.o)
 .debug_loc     0x00000f20       0x2c /home/leon/git/swp-report/iMX6_Platform_SDK/output/mx6dq/lib/libsdk.a(abort_handler.o)
 .debug_loc     0x00000f4c       0x58 /home/leon/git/swp-report/iMX6_Platform_SDK/output/mx6dq/lib/libboard_smart_device_rev_a.a(board_io_expanders.o)
 .debug_loc     0x00000fa4       0x2c /home/leon/git/swp-report/iMX6_Platform_SDK/output/mx6dq/lib/libboard_smart_device_rev_a.a(uart_iomux_config.o)
 .debug_loc     0x00000fd0      0x738 /home/leon/git/swp-report/iMX6_Platform_SDK/output/mx6dq/lib/libboard_smart_device_rev_a.a(iomux_config.o)
 .debug_loc     0x00001708       0x2c /home/leon/git/swp-report/iMX6_Platform_SDK/output/mx6dq/lib/libboard_smart_device_rev_a.a(ipu1_iomux_config.o)
 .debug_loc     0x00001734       0x2c /home/leon/git/swp-report/iMX6_Platform_SDK/output/mx6dq/lib/libboard_smart_device_rev_a.a(kpp_iomux_config.o)
 .debug_loc     0x00001760       0x2c /home/leon/git/swp-report/iMX6_Platform_SDK/output/mx6dq/lib/libboard_smart_device_rev_a.a(mmdc_iomux_config.o)
 .debug_loc     0x0000178c       0x2c /home/leon/git/swp-report/iMX6_Platform_SDK/output/mx6dq/lib/libboard_smart_device_rev_a.a(pwm1_iomux_config.o)
 .debug_loc     0x000017b8       0x2c /home/leon/git/swp-report/iMX6_Platform_SDK/output/mx6dq/lib/libboard_smart_device_rev_a.a(sjc_iomux_config.o)
 .debug_loc     0x000017e4       0x2c /home/leon/git/swp-report/iMX6_Platform_SDK/output/mx6dq/lib/libboard_smart_device_rev_a.a(uart1_iomux_config.o)
 .debug_loc     0x00001810       0x2c /home/leon/git/swp-report/iMX6_Platform_SDK/output/mx6dq/lib/libboard_smart_device_rev_a.a(usdhc2_iomux_config.o)
 .debug_loc     0x0000183c       0x2c /home/leon/git/swp-report/iMX6_Platform_SDK/output/mx6dq/lib/libboard_smart_device_rev_a.a(usdhc3_iomux_config.o)
 .debug_loc     0x00001868       0x2c /home/leon/git/swp-report/iMX6_Platform_SDK/output/mx6dq/lib/libboard_smart_device_rev_a.a(usdhc4_iomux_config.o)
 .debug_loc     0x00001894       0x2c /home/leon/git/swp-report/iMX6_Platform_SDK/output/mx6dq/lib/libboard_smart_device_rev_a.a(audmux_iomux_config.o)
 .debug_loc     0x000018c0       0x2c /home/leon/git/swp-report/iMX6_Platform_SDK/output/mx6dq/lib/libboard_smart_device_rev_a.a(ccm_iomux_config.o)
 .debug_loc     0x000018ec       0x2c /home/leon/git/swp-report/iMX6_Platform_SDK/output/mx6dq/lib/libboard_smart_device_rev_a.a(ecspi1_iomux_config.o)
 .debug_loc     0x00001918       0x2c /home/leon/git/swp-report/iMX6_Platform_SDK/output/mx6dq/lib/libboard_smart_device_rev_a.a(enet_iomux_config.o)
 .debug_loc     0x00001944       0x2c /home/leon/git/swp-report/iMX6_Platform_SDK/output/mx6dq/lib/libboard_smart_device_rev_a.a(flexcan1_iomux_config.o)
 .debug_loc     0x00001970       0x2c /home/leon/git/swp-report/iMX6_Platform_SDK/output/mx6dq/lib/libboard_smart_device_rev_a.a(gpio1_iomux_config.o)
 .debug_loc     0x0000199c       0x2c /home/leon/git/swp-report/iMX6_Platform_SDK/output/mx6dq/lib/libboard_smart_device_rev_a.a(gpio2_iomux_config.o)
 .debug_loc     0x000019c8       0x2c /home/leon/git/swp-report/iMX6_Platform_SDK/output/mx6dq/lib/libboard_smart_device_rev_a.a(gpio3_iomux_config.o)
 .debug_loc     0x000019f4       0x2c /home/leon/git/swp-report/iMX6_Platform_SDK/output/mx6dq/lib/libboard_smart_device_rev_a.a(gpio4_iomux_config.o)
 .debug_loc     0x00001a20       0x2c /home/leon/git/swp-report/iMX6_Platform_SDK/output/mx6dq/lib/libboard_smart_device_rev_a.a(gpio5_iomux_config.o)
 .debug_loc     0x00001a4c       0x2c /home/leon/git/swp-report/iMX6_Platform_SDK/output/mx6dq/lib/libboard_smart_device_rev_a.a(gpio6_iomux_config.o)
 .debug_loc     0x00001a78       0x2c /home/leon/git/swp-report/iMX6_Platform_SDK/output/mx6dq/lib/libboard_smart_device_rev_a.a(gpio7_iomux_config.o)
 .debug_loc     0x00001aa4       0x2c /home/leon/git/swp-report/iMX6_Platform_SDK/output/mx6dq/lib/libboard_smart_device_rev_a.a(gps_iomux_config.o)
 .debug_loc     0x00001ad0       0x2c /home/leon/git/swp-report/iMX6_Platform_SDK/output/mx6dq/lib/libboard_smart_device_rev_a.a(i2c1_iomux_config.o)
 .debug_loc     0x00001afc       0x2c /home/leon/git/swp-report/iMX6_Platform_SDK/output/mx6dq/lib/libboard_smart_device_rev_a.a(i2c2_iomux_config.o)
 .debug_loc     0x00001b28       0x2c /home/leon/git/swp-report/iMX6_Platform_SDK/output/mx6dq/lib/libboard_smart_device_rev_a.a(i2c3_iomux_config.o)
 .debug_loc     0x00001b54       0x84 /home/leon/git/swp-report/iMX6_Platform_SDK/output/mx6dq/sdk_unit_test/smart_device_rev_a/libsdk_unit_test.a(cpu_wp_test.o)
 .debug_loc     0x00001bd8       0x84 /home/leon/git/swp-report/iMX6_Platform_SDK/output/mx6dq/sdk_unit_test/smart_device_rev_a/libsdk_unit_test.a(multicore_test.o)
 .debug_loc     0x00001c5c       0x2c /home/leon/git/swp-report/iMX6_Platform_SDK/output/mx6dq/sdk_unit_test/smart_device_rev_a/libsdk_unit_test.a(audio_test.o)
 .debug_loc     0x00001c88       0x58 /home/leon/git/swp-report/iMX6_Platform_SDK/output/mx6dq/sdk_unit_test/smart_device_rev_a/libsdk_unit_test.a(gic_test.o)
 .debug_loc     0x00001ce0       0x2c /home/leon/git/swp-report/iMX6_Platform_SDK/output/mx6dq/sdk_unit_test/smart_device_rev_a/libsdk_unit_test.a(ocotp_test.o)
 .debug_loc     0x00001d0c       0x2c /home/leon/git/swp-report/iMX6_Platform_SDK/output/mx6dq/sdk_unit_test/smart_device_rev_a/libsdk_unit_test.a(i2c_test.o)
 .debug_loc     0x00001d38       0x84 /home/leon/git/swp-report/iMX6_Platform_SDK/output/mx6dq/sdk_unit_test/smart_device_rev_a/libsdk_unit_test.a(imx6_i2c_device.o)
 .debug_loc     0x00001dbc       0xdc /home/leon/git/swp-report/iMX6_Platform_SDK/output/mx6dq/sdk_unit_test/smart_device_rev_a/libsdk_unit_test.a(snvs_rtc_test.o)
 .debug_loc     0x00001e98       0x84 /home/leon/git/swp-report/iMX6_Platform_SDK/output/mx6dq/sdk_unit_test/smart_device_rev_a/libsdk_unit_test.a(snvs_srtc_test.o)
 .debug_loc     0x00001f1c       0x84 /home/leon/git/swp-report/iMX6_Platform_SDK/output/mx6dq/sdk_unit_test/smart_device_rev_a/libsdk_unit_test.a(tempmon_test.o)
 .debug_loc     0x00001fa0       0x2c /home/leon/git/swp-report/iMX6_Platform_SDK/output/mx6dq/sdk_unit_test/smart_device_rev_a/libsdk_unit_test.a(sdma_test.o)
 .debug_loc     0x00001fcc       0x84 /home/leon/git/swp-report/iMX6_Platform_SDK/output/mx6dq/sdk_unit_test/smart_device_rev_a/libsdk_unit_test.a(spi_lpb.o)
 .debug_loc     0x00002050      0x134 /home/leon/git/swp-report/iMX6_Platform_SDK/output/mx6dq/sdk_unit_test/smart_device_rev_a/libsdk_unit_test.a(uart_loopback.o)
 .debug_loc     0x00002184       0x58 /home/leon/git/swp-report/iMX6_Platform_SDK/output/mx6dq/sdk_unit_test/smart_device_rev_a/libsdk_unit_test.a(uart_test.o)
 .debug_loc     0x000021dc       0xb0 /home/leon/git/swp-report/iMX6_Platform_SDK/output/mx6dq/sdk_unit_test/smart_device_rev_a/libsdk_unit_test.a(epit_test.o)
 .debug_loc     0x0000228c       0xb0 /home/leon/git/swp-report/iMX6_Platform_SDK/output/mx6dq/sdk_unit_test/smart_device_rev_a/libsdk_unit_test.a(gpt_test.o)
 .debug_loc     0x0000233c       0x2c /home/leon/git/swp-report/iMX6_Platform_SDK/output/mx6dq/sdk_unit_test/smart_device_rev_a/libsdk_unit_test.a(timer_test.o)
 .debug_loc     0x00002368      0x1e4 /home/leon/git/swp-report/iMX6_Platform_SDK/output/mx6dq/sdk_unit_test/smart_device_rev_a/libsdk_unit_test.a(usdhc_test.o)
 .debug_loc     0x0000254c       0x2c /home/leon/git/swp-report/iMX6_Platform_SDK/output/mx6dq/sdk_unit_test/smart_device_rev_a/libsdk_unit_test.a(pwm_test.o)
 .debug_loc     0x00002578       0x58 /home/leon/git/swp-report/iMX6_Platform_SDK/output/mx6dq/sdk_unit_test/smart_device_rev_a/libsdk_unit_test.a(watchdog_test.o)
 .debug_loc     0x000025d0       0xdc /home/leon/git/swp-report/iMX6_Platform_SDK/output/mx6dq/sdk_unit_test/smart_device_rev_a/libsdk_unit_test.a(hdmi_test.o)
 .debug_loc     0x000026ac      0x134 /home/leon/git/swp-report/iMX6_Platform_SDK/output/mx6dq/sdk_unit_test/smart_device_rev_a/libsdk_unit_test.a(ips_display.o)
 .debug_loc     0x000027e0       0x2c /home/leon/git/swp-report/iMX6_Platform_SDK/output/mx6dq/sdk_unit_test/smart_device_rev_a/libsdk_unit_test.a(ips_test.o)
 .debug_loc     0x0000280c       0xdc /home/leon/git/swp-report/iMX6_Platform_SDK/output/mx6dq/sdk_unit_test/smart_device_rev_a/libsdk_unit_test.a(ipu_image.o)
 .debug_loc     0x000028e8       0x58 /home/leon/git/swp-report/iMX6_Platform_SDK/output/mx6dq/sdk_unit_test/smart_device_rev_a/libsdk_unit_test.a(keypad_test.o)
 .debug_loc     0x00002940       0x2c /home/leon/git/swp-report/iMX6_Platform_SDK/output/mx6dq/sdk_unit_test/smart_device_rev_a/libsdk_unit_test.a(camera_test.o)
 .debug_loc     0x0000296c       0x2c /home/leon/git/swp-report/iMX6_Platform_SDK/output/mx6dq/sdk_unit_test/smart_device_rev_a/libsdk_unit_test.a(csi_test_mode.o)
 .debug_loc     0x00002998       0x2c /home/leon/git/swp-report/iMX6_Platform_SDK/output/mx6dq/sdk_unit_test/smart_device_rev_a/libsdk_unit_test.a(sensor_capture.o)
 .debug_loc     0x000029c4       0x2c /home/leon/git/swp-report/iMX6_Platform_SDK/output/mx6dq/sdk_unit_test/smart_device_rev_a/libsdk_unit_test.a(pcie_test_rc.o)
 .debug_loc     0x000029f0       0x2c /home/leon/git/swp-report/iMX6_Platform_SDK/output/mx6dq/sdk_unit_test/smart_device_rev_a/libsdk_unit_test.a(usb_test.o)
 .debug_loc     0x00002a1c       0x84 /home/leon/git/swp-report/iMX6_Platform_SDK/output/mx6dq/sdk_unit_test/smart_device_rev_a/libsdk_unit_test.a(enet_test.o)
 .debug_loc     0x00002aa0       0x58 /home/leon/git/swp-report/iMX6_Platform_SDK/output/mx6dq/sdk_unit_test/smart_device_rev_a/libsdk_unit_test.a(spi_test.o)
 .debug_loc     0x00002af8       0x2c /home/leon/git/swp-report/iMX6_Platform_SDK/output/mx6dq/sdk_unit_test/smart_device_rev_a/libsdk_unit_test.a(accelerometer_test.o)
 .debug_loc     0x00002b24       0x58 /home/leon/git/swp-report/iMX6_Platform_SDK/output/mx6dq/sdk_unit_test/smart_device_rev_a/libsdk_unit_test.a(sata_test.o)
 .debug_loc     0x00002b7c       0x84 /home/leon/git/swp-report/iMX6_Platform_SDK/output/mx6dq/sdk_unit_test/smart_device_rev_a/libsdk_unit_test.a(at24cxx.o)
 .debug_loc     0x00002c00       0x2c /home/leon/git/swp-report/iMX6_Platform_SDK/output/mx6dq/sdk_unit_test/smart_device_rev_a/libsdk_unit_test.a(mem_2_mem.o)
 .debug_loc     0x00002c2c       0x58 /home/leon/git/swp-report/iMX6_Platform_SDK/output/mx6dq/sdk_unit_test/smart_device_rev_a/libsdk_unit_test.a(pwm_output.o)
 .debug_loc     0x00002c84       0x2c /home/leon/git/swp-report/iMX6_Platform_SDK/output/mx6dq/sdk_unit_test/smart_device_rev_a/libsdk_unit_test.a(init_dma_data.o)
 .debug_loc     0x00002cb0       0x2c /home/leon/git/swp-report/iMX6_Platform_SDK/output/mx6dq/sdk_unit_test/smart_device_rev_a/libsdk_unit_test.a(ips_combiner.o)
 .debug_loc     0x00002cdc       0x2c /home/leon/git/swp-report/iMX6_Platform_SDK/output/mx6dq/sdk_unit_test/smart_device_rev_a/libsdk_unit_test.a(ips_csc.o)
 .debug_loc     0x00002d08       0x2c /home/leon/git/swp-report/iMX6_Platform_SDK/output/mx6dq/sdk_unit_test/smart_device_rev_a/libsdk_unit_test.a(ips_resize.o)
 .debug_loc     0x00002d34       0x2c /home/leon/git/swp-report/iMX6_Platform_SDK/output/mx6dq/sdk_unit_test/smart_device_rev_a/libsdk_unit_test.a(ips_rotate.o)
 .debug_loc     0x00002d60       0x84 /home/leon/git/swp-report/iMX6_Platform_SDK/output/mx6dq/sdk_unit_test/smart_device_rev_a/libsdk_unit_test.a(usb0_device_mouse_test.o)
 .debug_loc     0x00002de4      0x160 /home/leon/git/swp-report/iMX6_Platform_SDK/output/mx6dq/sdk_unit_test/smart_device_rev_a/libsdk_unit_test.a(usb0_host_test.o)
 .debug_loc     0x00002f44       0x2c /home/leon/git/swp-report/iMX6_Platform_SDK/output/mx6dq/sdk_unit_test/smart_device_rev_a/libsdk_unit_test.a(usb0_host_testmodes_test.o)
 .debug_loc     0x00002f70      0x160 /home/leon/git/swp-report/iMX6_Platform_SDK/output/mx6dq/sdk_unit_test/smart_device_rev_a/libsdk_unit_test.a(spi_nor_numonyx.o)
 .debug_loc     0x000030d0       0x58 /home/leon/git/swp-report/iMX6_Platform_SDK/output/mx6dq/lib/libsdk.a(profile.o)
 .debug_loc     0x00003128      0x2c0 /home/leon/git/swp-report/iMX6_Platform_SDK/output/mx6dq/lib/libsdk.a(armv7_cache.o)
 .debug_loc     0x000033e8      0x370 /home/leon/git/swp-report/iMX6_Platform_SDK/output/mx6dq/lib/libsdk.a(runtime_support.o)
 .debug_loc     0x00003758       0xb0 /home/leon/git/swp-report/iMX6_Platform_SDK/output/mx6dq/lib/libsdk.a(mma8451.o)
 .debug_loc     0x00003808      0x1b8 /home/leon/git/swp-report/iMX6_Platform_SDK/output/mx6dq/lib/libsdk.a(smd_sensor.o)
 .debug_loc     0x000039c0       0x2c /home/leon/git/swp-report/iMX6_Platform_SDK/output/mx6dq/lib/libsdk.a(cpu_get_cores.o)
 .debug_loc     0x000039ec       0x84 /home/leon/git/swp-report/iMX6_Platform_SDK/output/mx6dq/lib/libsdk.a(cpu_multicore.o)
 .debug_loc     0x00003a70       0x2c /home/leon/git/swp-report/iMX6_Platform_SDK/output/mx6dq/lib/libsdk.a(cpu_workpoint.o)
 .debug_loc     0x00003a9c      0x344 /home/leon/git/swp-report/iMX6_Platform_SDK/output/mx6dq/lib/libsdk.a(enet_drv.o)
 .debug_loc     0x00003de0      0x1e4 /home/leon/git/swp-report/iMX6_Platform_SDK/output/mx6dq/lib/libsdk.a(gpio.o)
 .debug_loc     0x00003fc4      0x1b8 /home/leon/git/swp-report/iMX6_Platform_SDK/output/mx6dq/lib/libsdk.a(hdmi_tx.o)
 .debug_loc     0x0000417c      0x39c /home/leon/git/swp-report/iMX6_Platform_SDK/output/mx6dq/lib/libsdk.a(hdmi_tx_audio.o)
 .debug_loc     0x00004518      0x39c /home/leon/git/swp-report/iMX6_Platform_SDK/output/mx6dq/lib/libsdk.a(hdmi_tx_phy.o)
 .debug_loc     0x000048b4      0x268 /home/leon/git/swp-report/iMX6_Platform_SDK/output/mx6dq/lib/libsdk.a(imx_i2c.o)
 .debug_loc     0x00004b1c       0x84 /home/leon/git/swp-report/iMX6_Platform_SDK/output/mx6dq/lib/libsdk.a(imx_i2c_slave.o)
 .debug_loc     0x00004ba0      0x2ec /home/leon/git/swp-report/iMX6_Platform_SDK/output/mx6dq/lib/libsdk.a(ips_disp_panel.o)
 .debug_loc     0x00004e8c      0x268 /home/leon/git/swp-report/iMX6_Platform_SDK/output/mx6dq/lib/libsdk.a(ipu_common.o)
 .debug_loc     0x000050f4      0x108 /home/leon/git/swp-report/iMX6_Platform_SDK/output/mx6dq/lib/libsdk.a(ipu_csi.o)
 .debug_loc     0x000051fc      0x108 /home/leon/git/swp-report/iMX6_Platform_SDK/output/mx6dq/lib/libsdk.a(ipu_dc.o)
 .debug_loc     0x00005304      0x134 /home/leon/git/swp-report/iMX6_Platform_SDK/output/mx6dq/lib/libsdk.a(ipu_di.o)
 .debug_loc     0x00005438       0x58 /home/leon/git/swp-report/iMX6_Platform_SDK/output/mx6dq/lib/libsdk.a(ipu_dmfc.o)
 .debug_loc     0x00005490       0x84 /home/leon/git/swp-report/iMX6_Platform_SDK/output/mx6dq/lib/libsdk.a(ipu_dp.o)
 .debug_loc     0x00005514      0x18c /home/leon/git/swp-report/iMX6_Platform_SDK/output/mx6dq/lib/libsdk.a(ipu_ic.o)
 .debug_loc     0x000056a0      0x2ec /home/leon/git/swp-report/iMX6_Platform_SDK/output/mx6dq/lib/libsdk.a(ipu_idmac.o)
 .debug_loc     0x0000598c      0x160 /home/leon/git/swp-report/iMX6_Platform_SDK/output/mx6dq/lib/libsdk.a(ipu_vdi.o)
 .debug_loc     0x00005aec      0x160 /home/leon/git/swp-report/iMX6_Platform_SDK/output/mx6dq/lib/libsdk.a(keypad_port.o)
 .debug_loc     0x00005c4c       0x84 /home/leon/git/swp-report/iMX6_Platform_SDK/output/mx6dq/lib/libsdk.a(ldb.o)
 .debug_loc     0x00005cd0      0x134 /home/leon/git/swp-report/iMX6_Platform_SDK/output/mx6dq/lib/libsdk.a(ocotp.o)
 .debug_loc     0x00005e04       0xdc /home/leon/git/swp-report/iMX6_Platform_SDK/output/mx6dq/lib/libsdk.a(pcie.o)
 .debug_loc     0x00005ee0       0xb0 /home/leon/git/swp-report/iMX6_Platform_SDK/output/mx6dq/lib/libsdk.a(pcie_phy.o)
 .debug_loc     0x00005f90       0xdc /home/leon/git/swp-report/iMX6_Platform_SDK/output/mx6dq/lib/libsdk.a(pcie_prot.o)
 .debug_loc     0x0000606c      0xf20 /home/leon/git/swp-report/iMX6_Platform_SDK/output/mx6dq/lib/libsdk.a(pmu_driver.o)
 .debug_loc     0x00006f8c      0x160 /home/leon/git/swp-report/iMX6_Platform_SDK/output/mx6dq/lib/libsdk.a(pwm.o)
 .debug_loc     0x000070ec      0x134 /home/leon/git/swp-report/iMX6_Platform_SDK/output/mx6dq/lib/libsdk.a(rtc.o)
 .debug_loc     0x00007220       0xdc /home/leon/git/swp-report/iMX6_Platform_SDK/output/mx6dq/lib/libsdk.a(srtc.o)
 .debug_loc     0x000072fc      0x4a4 /home/leon/git/swp-report/iMX6_Platform_SDK/output/mx6dq/lib/libsdk.a(sata.o)
 .debug_loc     0x000077a0      0x2c0 /home/leon/git/swp-report/iMX6_Platform_SDK/output/mx6dq/lib/libsdk.a(sdma.o)
 .debug_loc     0x00007a60      0x1e4 /home/leon/git/swp-report/iMX6_Platform_SDK/output/mx6dq/lib/libsdk.a(snvs.o)
 .debug_loc     0x00007c44      0x134 /home/leon/git/swp-report/iMX6_Platform_SDK/output/mx6dq/lib/libsdk.a(ecspi.o)
 .debug_loc     0x00007d78      0x134 /home/leon/git/swp-report/iMX6_Platform_SDK/output/mx6dq/lib/libsdk.a(tempmon.o)
 .debug_loc     0x00007eac      0x1b8 /home/leon/git/swp-report/iMX6_Platform_SDK/output/mx6dq/lib/libsdk.a(gpt.o)
 .debug_loc     0x00008064       0x84 /home/leon/git/swp-report/iMX6_Platform_SDK/output/mx6dq/lib/libsdk.a(usb_common.o)
 .debug_loc     0x000080e8      0x18c /home/leon/git/swp-report/iMX6_Platform_SDK/output/mx6dq/lib/libsdk.a(usbd_drv.o)
 .debug_loc     0x00008274      0x160 /home/leon/git/swp-report/iMX6_Platform_SDK/output/mx6dq/lib/libsdk.a(usbh_drv.o)
 .debug_loc     0x000083d4      0x318 /home/leon/git/swp-report/iMX6_Platform_SDK/output/mx6dq/lib/libsdk.a(usdhc.o)
 .debug_loc     0x000086ec      0x44c /home/leon/git/swp-report/iMX6_Platform_SDK/output/mx6dq/lib/libsdk.a(usdhc_host.o)
 .debug_loc     0x00008b38      0x23c /home/leon/git/swp-report/iMX6_Platform_SDK/output/mx6dq/lib/libsdk.a(usdhc_mmc.o)
 .debug_loc     0x00008d74       0xb0 /home/leon/git/swp-report/iMX6_Platform_SDK/output/mx6dq/lib/libsdk.a(usdhc_sd.o)
 .debug_loc     0x00008e24       0x58 /home/leon/git/swp-report/iMX6_Platform_SDK/output/mx6dq/lib/libsdk.a(spinlock.o)
 .debug_loc     0x00008e7c       0xdc /home/leon/git/swp-report/iMX6_Platform_SDK/output/mx6dq/lib/libsdk.a(hdmi_common.o)
 .debug_loc     0x00008f58       0x58 /home/leon/git/swp-report/iMX6_Platform_SDK/output/mx6dq/lib/libsdk.a(mx6x_usb.o)
 .debug_loc     0x00008fb0      0x134 /home/leon/git/swp-report/iMX6_Platform_SDK/output/mx6dq/lib/libboard_smart_device_rev_a.a(board_audio.o)
 .debug_loc     0x000090e4      0x108 /home/leon/git/swp-report/iMX6_Platform_SDK/output/mx6dq/lib/libboard_smart_device_rev_a.a(board_camera.o)
 .debug_loc     0x000091ec      0x134 /home/leon/git/swp-report/iMX6_Platform_SDK/output/mx6dq/lib/libboard_smart_device_rev_a.a(board_display.o)
 .debug_loc     0x00009320      0x108 /home/leon/git/swp-report/iMX6_Platform_SDK/output/mx6dq/lib/libboard_smart_device_rev_a.a(board_hdmi.o)
 .debug_loc     0x00009428       0xdc /home/leon/git/swp-report/iMX6_Platform_SDK/output/mx6dq/lib/libboard_smart_device_rev_a.a(board_mipi.o)
 .debug_loc     0x00009504       0xdc /home/leon/git/swp-report/iMX6_Platform_SDK/output/mx6dq/lib/libboard_smart_device_rev_a.a(board_network.o)
 .debug_loc     0x000095e0       0xdc /home/leon/git/swp-report/iMX6_Platform_SDK/output/mx6dq/lib/libboard_smart_device_rev_a.a(board_pcie.o)
 .debug_loc     0x000096bc      0x108 /home/leon/git/swp-report/iMX6_Platform_SDK/output/mx6dq/lib/libboard_smart_device_rev_a.a(board_sata.o)
 .debug_loc     0x000097c4       0x84 /home/leon/git/swp-report/iMX6_Platform_SDK/output/mx6dq/lib/libboard_smart_device_rev_a.a(board_usb.o)
 .debug_loc     0x00009848       0x84 /home/leon/git/swp-report/iMX6_Platform_SDK/output/mx6dq/lib/libboard_smart_device_rev_a.a(board_usdhc.o)
 .debug_loc     0x000098cc       0x2c /home/leon/git/swp-report/iMX6_Platform_SDK/output/mx6dq/lib/libboard_smart_device_rev_a.a(ecspi_iomux_config.o)
 .debug_loc     0x000098f8       0x2c /home/leon/git/swp-report/iMX6_Platform_SDK/output/mx6dq/lib/libboard_smart_device_rev_a.a(i2c_iomux_config.o)
 .debug_loc     0x00009924       0x2c /home/leon/git/swp-report/iMX6_Platform_SDK/output/mx6dq/lib/libboard_smart_device_rev_a.a(pwm_iomux_config.o)
 .debug_loc     0x00009950       0x2c /home/leon/git/swp-report/iMX6_Platform_SDK/output/mx6dq/lib/libboard_smart_device_rev_a.a(usdhc_iomux_config.o)
 .debug_loc     0x0000997c       0xb0 /home/leon/git/swp-report/iMX6_Platform_SDK/output/mx6dq/lib/libsdk.a(max7310.o)

.debug_frame    0x00000000     0x9ec0
 .debug_frame   0x00000000       0x30 /home/leon/git/swp-report/iMX6_Platform_SDK/output/mx6dq/sdk_unit_test/smart_device_rev_a/obj/apps/common/platform_init.o
 .debug_frame   0x00000030       0x50 /home/leon/git/swp-report/iMX6_Platform_SDK/output/mx6dq/sdk_unit_test/smart_device_rev_a/obj/apps/common/print_clock_info.o
 .debug_frame   0x00000080       0x30 /home/leon/git/swp-report/iMX6_Platform_SDK/output/mx6dq/sdk_unit_test/smart_device_rev_a/obj/apps/common/print_version.o
 .debug_frame   0x000000b0       0x50 /home/leon/git/swp-report/iMX6_Platform_SDK/output/mx6dq/sdk_unit_test/smart_device_rev_a/obj/apps/sdk_unit_test/src/all_test.o
 .debug_frame   0x00000100       0x30 /home/leon/git/swp-report/iMX6_Platform_SDK/output/mx6dq/sdk_unit_test/smart_device_rev_a/obj/apps/sdk_unit_test/src/unit_test_main.o
 .debug_frame   0x00000130      0x130 /home/leon/git/swp-report/iMX6_Platform_SDK/output/mx6dq/lib/libsdk.a(ccm_pll.o)
 .debug_frame   0x00000260      0x230 /home/leon/git/swp-report/iMX6_Platform_SDK/output/mx6dq/lib/libsdk.a(gic.o)
 .debug_frame   0x00000490       0xb0 /home/leon/git/swp-report/iMX6_Platform_SDK/output/mx6dq/lib/libsdk.a(mmu.o)
 .debug_frame   0x00000540      0x170 /home/leon/git/swp-report/iMX6_Platform_SDK/output/mx6dq/lib/libsdk.a(menu.o)
 .debug_frame   0x000006b0       0xe0 /home/leon/git/swp-report/iMX6_Platform_SDK/output/mx6dq/lib/libsdk.a(system_util.o)
 .debug_frame   0x00000790       0x54 /home/leon/git/swp-report/iMX6_Platform_SDK/output/mx6dq/lib/libsdk.a(text_color.o)
 .debug_frame   0x000007e4       0xf0 /home/leon/git/swp-report/iMX6_Platform_SDK/output/mx6dq/lib/libsdk.a(board_id.o)
 .debug_frame   0x000008d4       0x94 /home/leon/git/swp-report/iMX6_Platform_SDK/output/mx6dq/lib/libsdk.a(timer.o)
 .debug_frame   0x00000968       0xf0 /home/leon/git/swp-report/iMX6_Platform_SDK/output/mx6dq/lib/libsdk.a(imx_uart.o)
 .debug_frame   0x00000a58       0xb8 /home/leon/git/swp-report/iMX6_Platform_SDK/output/mx6dq/lib/libsdk.a(interrupt.o)
 .debug_frame   0x00000b10      0x110 /home/leon/git/swp-report/iMX6_Platform_SDK/output/mx6dq/lib/libsdk.a(epit.o)
 .debug_frame   0x00000c20       0x38 /home/leon/git/swp-report/iMX6_Platform_SDK/output/mx6dq/lib/libsdk.a(abort_handler.o)
 .debug_frame   0x00000c58       0x50 /home/leon/git/swp-report/iMX6_Platform_SDK/output/mx6dq/lib/libboard_smart_device_rev_a.a(board_io_expanders.o)
 .debug_frame   0x00000ca8       0x30 /home/leon/git/swp-report/iMX6_Platform_SDK/output/mx6dq/lib/libboard_smart_device_rev_a.a(uart_iomux_config.o)
 .debug_frame   0x00000cd8      0x550 /home/leon/git/swp-report/iMX6_Platform_SDK/output/mx6dq/lib/libboard_smart_device_rev_a.a(iomux_config.o)
 .debug_frame   0x00001228       0x30 /home/leon/git/swp-report/iMX6_Platform_SDK/output/mx6dq/lib/libboard_smart_device_rev_a.a(ipu1_iomux_config.o)
 .debug_frame   0x00001258       0x30 /home/leon/git/swp-report/iMX6_Platform_SDK/output/mx6dq/lib/libboard_smart_device_rev_a.a(kpp_iomux_config.o)
 .debug_frame   0x00001288       0x30 /home/leon/git/swp-report/iMX6_Platform_SDK/output/mx6dq/lib/libboard_smart_device_rev_a.a(mmdc_iomux_config.o)
 .debug_frame   0x000012b8       0x30 /home/leon/git/swp-report/iMX6_Platform_SDK/output/mx6dq/lib/libboard_smart_device_rev_a.a(pwm1_iomux_config.o)
 .debug_frame   0x000012e8       0x30 /home/leon/git/swp-report/iMX6_Platform_SDK/output/mx6dq/lib/libboard_smart_device_rev_a.a(sjc_iomux_config.o)
 .debug_frame   0x00001318       0x30 /home/leon/git/swp-report/iMX6_Platform_SDK/output/mx6dq/lib/libboard_smart_device_rev_a.a(uart1_iomux_config.o)
 .debug_frame   0x00001348       0x30 /home/leon/git/swp-report/iMX6_Platform_SDK/output/mx6dq/lib/libboard_smart_device_rev_a.a(usdhc2_iomux_config.o)
 .debug_frame   0x00001378       0x30 /home/leon/git/swp-report/iMX6_Platform_SDK/output/mx6dq/lib/libboard_smart_device_rev_a.a(usdhc3_iomux_config.o)
 .debug_frame   0x000013a8       0x30 /home/leon/git/swp-report/iMX6_Platform_SDK/output/mx6dq/lib/libboard_smart_device_rev_a.a(usdhc4_iomux_config.o)
 .debug_frame   0x000013d8       0x30 /home/leon/git/swp-report/iMX6_Platform_SDK/output/mx6dq/lib/libboard_smart_device_rev_a.a(audmux_iomux_config.o)
 .debug_frame   0x00001408       0x30 /home/leon/git/swp-report/iMX6_Platform_SDK/output/mx6dq/lib/libboard_smart_device_rev_a.a(ccm_iomux_config.o)
 .debug_frame   0x00001438       0x30 /home/leon/git/swp-report/iMX6_Platform_SDK/output/mx6dq/lib/libboard_smart_device_rev_a.a(ecspi1_iomux_config.o)
 .debug_frame   0x00001468       0x30 /home/leon/git/swp-report/iMX6_Platform_SDK/output/mx6dq/lib/libboard_smart_device_rev_a.a(enet_iomux_config.o)
 .debug_frame   0x00001498       0x30 /home/leon/git/swp-report/iMX6_Platform_SDK/output/mx6dq/lib/libboard_smart_device_rev_a.a(flexcan1_iomux_config.o)
 .debug_frame   0x000014c8       0x30 /home/leon/git/swp-report/iMX6_Platform_SDK/output/mx6dq/lib/libboard_smart_device_rev_a.a(gpio1_iomux_config.o)
 .debug_frame   0x000014f8       0x30 /home/leon/git/swp-report/iMX6_Platform_SDK/output/mx6dq/lib/libboard_smart_device_rev_a.a(gpio2_iomux_config.o)
 .debug_frame   0x00001528       0x30 /home/leon/git/swp-report/iMX6_Platform_SDK/output/mx6dq/lib/libboard_smart_device_rev_a.a(gpio3_iomux_config.o)
 .debug_frame   0x00001558       0x30 /home/leon/git/swp-report/iMX6_Platform_SDK/output/mx6dq/lib/libboard_smart_device_rev_a.a(gpio4_iomux_config.o)
 .debug_frame   0x00001588       0x30 /home/leon/git/swp-report/iMX6_Platform_SDK/output/mx6dq/lib/libboard_smart_device_rev_a.a(gpio5_iomux_config.o)
 .debug_frame   0x000015b8       0x30 /home/leon/git/swp-report/iMX6_Platform_SDK/output/mx6dq/lib/libboard_smart_device_rev_a.a(gpio6_iomux_config.o)
 .debug_frame   0x000015e8       0x30 /home/leon/git/swp-report/iMX6_Platform_SDK/output/mx6dq/lib/libboard_smart_device_rev_a.a(gpio7_iomux_config.o)
 .debug_frame   0x00001618       0x30 /home/leon/git/swp-report/iMX6_Platform_SDK/output/mx6dq/lib/libboard_smart_device_rev_a.a(gps_iomux_config.o)
 .debug_frame   0x00001648       0x30 /home/leon/git/swp-report/iMX6_Platform_SDK/output/mx6dq/lib/libboard_smart_device_rev_a.a(i2c1_iomux_config.o)
 .debug_frame   0x00001678       0x30 /home/leon/git/swp-report/iMX6_Platform_SDK/output/mx6dq/lib/libboard_smart_device_rev_a.a(i2c2_iomux_config.o)
 .debug_frame   0x000016a8       0x30 /home/leon/git/swp-report/iMX6_Platform_SDK/output/mx6dq/lib/libboard_smart_device_rev_a.a(i2c3_iomux_config.o)
 .debug_frame   0x000016d8       0x70 /home/leon/git/swp-report/iMX6_Platform_SDK/output/mx6dq/sdk_unit_test/smart_device_rev_a/libsdk_unit_test.a(cpu_wp_test.o)
 .debug_frame   0x00001748       0x70 /home/leon/git/swp-report/iMX6_Platform_SDK/output/mx6dq/sdk_unit_test/smart_device_rev_a/libsdk_unit_test.a(multicore_test.o)
 .debug_frame   0x000017b8       0x30 /home/leon/git/swp-report/iMX6_Platform_SDK/output/mx6dq/sdk_unit_test/smart_device_rev_a/libsdk_unit_test.a(audio_test.o)
 .debug_frame   0x000017e8       0x50 /home/leon/git/swp-report/iMX6_Platform_SDK/output/mx6dq/sdk_unit_test/smart_device_rev_a/libsdk_unit_test.a(gic_test.o)
 .debug_frame   0x00001838       0x30 /home/leon/git/swp-report/iMX6_Platform_SDK/output/mx6dq/sdk_unit_test/smart_device_rev_a/libsdk_unit_test.a(ocotp_test.o)
 .debug_frame   0x00001868       0x30 /home/leon/git/swp-report/iMX6_Platform_SDK/output/mx6dq/sdk_unit_test/smart_device_rev_a/libsdk_unit_test.a(i2c_test.o)
 .debug_frame   0x00001898       0x70 /home/leon/git/swp-report/iMX6_Platform_SDK/output/mx6dq/sdk_unit_test/smart_device_rev_a/libsdk_unit_test.a(imx6_i2c_device.o)
 .debug_frame   0x00001908       0xb0 /home/leon/git/swp-report/iMX6_Platform_SDK/output/mx6dq/sdk_unit_test/smart_device_rev_a/libsdk_unit_test.a(snvs_rtc_test.o)
 .debug_frame   0x000019b8       0x70 /home/leon/git/swp-report/iMX6_Platform_SDK/output/mx6dq/sdk_unit_test/smart_device_rev_a/libsdk_unit_test.a(snvs_srtc_test.o)
 .debug_frame   0x00001a28       0x70 /home/leon/git/swp-report/iMX6_Platform_SDK/output/mx6dq/sdk_unit_test/smart_device_rev_a/libsdk_unit_test.a(tempmon_test.o)
 .debug_frame   0x00001a98       0x30 /home/leon/git/swp-report/iMX6_Platform_SDK/output/mx6dq/sdk_unit_test/smart_device_rev_a/libsdk_unit_test.a(sdma_test.o)
 .debug_frame   0x00001ac8       0x70 /home/leon/git/swp-report/iMX6_Platform_SDK/output/mx6dq/sdk_unit_test/smart_device_rev_a/libsdk_unit_test.a(spi_lpb.o)
 .debug_frame   0x00001b38       0xf0 /home/leon/git/swp-report/iMX6_Platform_SDK/output/mx6dq/sdk_unit_test/smart_device_rev_a/libsdk_unit_test.a(uart_loopback.o)
 .debug_frame   0x00001c28       0x50 /home/leon/git/swp-report/iMX6_Platform_SDK/output/mx6dq/sdk_unit_test/smart_device_rev_a/libsdk_unit_test.a(uart_test.o)
 .debug_frame   0x00001c78       0x90 /home/leon/git/swp-report/iMX6_Platform_SDK/output/mx6dq/sdk_unit_test/smart_device_rev_a/libsdk_unit_test.a(epit_test.o)
 .debug_frame   0x00001d08       0x90 /home/leon/git/swp-report/iMX6_Platform_SDK/output/mx6dq/sdk_unit_test/smart_device_rev_a/libsdk_unit_test.a(gpt_test.o)
 .debug_frame   0x00001d98       0x38 /home/leon/git/swp-report/iMX6_Platform_SDK/output/mx6dq/sdk_unit_test/smart_device_rev_a/libsdk_unit_test.a(timer_test.o)
 .debug_frame   0x00001dd0      0x170 /home/leon/git/swp-report/iMX6_Platform_SDK/output/mx6dq/sdk_unit_test/smart_device_rev_a/libsdk_unit_test.a(usdhc_test.o)
 .debug_frame   0x00001f40       0x30 /home/leon/git/swp-report/iMX6_Platform_SDK/output/mx6dq/sdk_unit_test/smart_device_rev_a/libsdk_unit_test.a(pwm_test.o)
 .debug_frame   0x00001f70       0x50 /home/leon/git/swp-report/iMX6_Platform_SDK/output/mx6dq/sdk_unit_test/smart_device_rev_a/libsdk_unit_test.a(watchdog_test.o)
 .debug_frame   0x00001fc0       0xb0 /home/leon/git/swp-report/iMX6_Platform_SDK/output/mx6dq/sdk_unit_test/smart_device_rev_a/libsdk_unit_test.a(hdmi_test.o)
 .debug_frame   0x00002070       0xf0 /home/leon/git/swp-report/iMX6_Platform_SDK/output/mx6dq/sdk_unit_test/smart_device_rev_a/libsdk_unit_test.a(ips_display.o)
 .debug_frame   0x00002160       0x30 /home/leon/git/swp-report/iMX6_Platform_SDK/output/mx6dq/sdk_unit_test/smart_device_rev_a/libsdk_unit_test.a(ips_test.o)
 .debug_frame   0x00002190       0xb0 /home/leon/git/swp-report/iMX6_Platform_SDK/output/mx6dq/sdk_unit_test/smart_device_rev_a/libsdk_unit_test.a(ipu_image.o)
 .debug_frame   0x00002240       0x50 /home/leon/git/swp-report/iMX6_Platform_SDK/output/mx6dq/sdk_unit_test/smart_device_rev_a/libsdk_unit_test.a(keypad_test.o)
 .debug_frame   0x00002290       0x30 /home/leon/git/swp-report/iMX6_Platform_SDK/output/mx6dq/sdk_unit_test/smart_device_rev_a/libsdk_unit_test.a(camera_test.o)
 .debug_frame   0x000022c0       0x30 /home/leon/git/swp-report/iMX6_Platform_SDK/output/mx6dq/sdk_unit_test/smart_device_rev_a/libsdk_unit_test.a(csi_test_mode.o)
 .debug_frame   0x000022f0       0x30 /home/leon/git/swp-report/iMX6_Platform_SDK/output/mx6dq/sdk_unit_test/smart_device_rev_a/libsdk_unit_test.a(sensor_capture.o)
 .debug_frame   0x00002320       0x30 /home/leon/git/swp-report/iMX6_Platform_SDK/output/mx6dq/sdk_unit_test/smart_device_rev_a/libsdk_unit_test.a(pcie_test_rc.o)
 .debug_frame   0x00002350       0x30 /home/leon/git/swp-report/iMX6_Platform_SDK/output/mx6dq/sdk_unit_test/smart_device_rev_a/libsdk_unit_test.a(usb_test.o)
 .debug_frame   0x00002380       0x70 /home/leon/git/swp-report/iMX6_Platform_SDK/output/mx6dq/sdk_unit_test/smart_device_rev_a/libsdk_unit_test.a(enet_test.o)
 .debug_frame   0x000023f0       0x50 /home/leon/git/swp-report/iMX6_Platform_SDK/output/mx6dq/sdk_unit_test/smart_device_rev_a/libsdk_unit_test.a(spi_test.o)
 .debug_frame   0x00002440       0x38 /home/leon/git/swp-report/iMX6_Platform_SDK/output/mx6dq/sdk_unit_test/smart_device_rev_a/libsdk_unit_test.a(accelerometer_test.o)
 .debug_frame   0x00002478       0x50 /home/leon/git/swp-report/iMX6_Platform_SDK/output/mx6dq/sdk_unit_test/smart_device_rev_a/libsdk_unit_test.a(sata_test.o)
 .debug_frame   0x000024c8       0x70 /home/leon/git/swp-report/iMX6_Platform_SDK/output/mx6dq/sdk_unit_test/smart_device_rev_a/libsdk_unit_test.a(at24cxx.o)
 .debug_frame   0x00002538       0x34 /home/leon/git/swp-report/iMX6_Platform_SDK/output/mx6dq/sdk_unit_test/smart_device_rev_a/libsdk_unit_test.a(mem_2_mem.o)
 .debug_frame   0x0000256c       0x54 /home/leon/git/swp-report/iMX6_Platform_SDK/output/mx6dq/sdk_unit_test/smart_device_rev_a/libsdk_unit_test.a(pwm_output.o)
 .debug_frame   0x000025c0       0x34 /home/leon/git/swp-report/iMX6_Platform_SDK/output/mx6dq/sdk_unit_test/smart_device_rev_a/libsdk_unit_test.a(init_dma_data.o)
 .debug_frame   0x000025f4       0x30 /home/leon/git/swp-report/iMX6_Platform_SDK/output/mx6dq/sdk_unit_test/smart_device_rev_a/libsdk_unit_test.a(ips_combiner.o)
 .debug_frame   0x00002624       0x30 /home/leon/git/swp-report/iMX6_Platform_SDK/output/mx6dq/sdk_unit_test/smart_device_rev_a/libsdk_unit_test.a(ips_csc.o)
 .debug_frame   0x00002654       0x34 /home/leon/git/swp-report/iMX6_Platform_SDK/output/mx6dq/sdk_unit_test/smart_device_rev_a/libsdk_unit_test.a(ips_resize.o)
 .debug_frame   0x00002688       0x30 /home/leon/git/swp-report/iMX6_Platform_SDK/output/mx6dq/sdk_unit_test/smart_device_rev_a/libsdk_unit_test.a(ips_rotate.o)
 .debug_frame   0x000026b8       0x70 /home/leon/git/swp-report/iMX6_Platform_SDK/output/mx6dq/sdk_unit_test/smart_device_rev_a/libsdk_unit_test.a(usb0_device_mouse_test.o)
 .debug_frame   0x00002728      0x110 /home/leon/git/swp-report/iMX6_Platform_SDK/output/mx6dq/sdk_unit_test/smart_device_rev_a/libsdk_unit_test.a(usb0_host_test.o)
 .debug_frame   0x00002838       0x30 /home/leon/git/swp-report/iMX6_Platform_SDK/output/mx6dq/sdk_unit_test/smart_device_rev_a/libsdk_unit_test.a(usb0_host_testmodes_test.o)
 .debug_frame   0x00002868      0x110 /home/leon/git/swp-report/iMX6_Platform_SDK/output/mx6dq/sdk_unit_test/smart_device_rev_a/libsdk_unit_test.a(spi_nor_numonyx.o)
 .debug_frame   0x00002978       0x28 /home/leon/riotboard/arm-2012.09/bin/../arm-none-eabi/lib//libm.a(lib_a-sf_cos.o)
 .debug_frame   0x000029a0       0x20 /home/leon/riotboard/arm-2012.09/bin/../arm-none-eabi/lib//libm.a(lib_a-sf_fabs.o)
 .debug_frame   0x000029c0       0x28 /home/leon/riotboard/arm-2012.09/bin/../arm-none-eabi/lib//libm.a(lib_a-sf_modf.o)
 .debug_frame   0x000029e8       0x28 /home/leon/riotboard/arm-2012.09/bin/../arm-none-eabi/lib//libm.a(lib_a-sf_sin.o)
 .debug_frame   0x00002a10       0x38 /home/leon/riotboard/arm-2012.09/bin/../arm-none-eabi/lib//libm.a(lib_a-ef_rem_pio2.o)
 .debug_frame   0x00002a48       0x34 /home/leon/riotboard/arm-2012.09/bin/../arm-none-eabi/lib//libm.a(lib_a-kf_cos.o)
 .debug_frame   0x00002a7c       0x3c /home/leon/riotboard/arm-2012.09/bin/../arm-none-eabi/lib//libm.a(lib_a-kf_rem_pio2.o)
 .debug_frame   0x00002ab8       0x34 /home/leon/riotboard/arm-2012.09/bin/../arm-none-eabi/lib//libm.a(lib_a-kf_sin.o)
 .debug_frame   0x00002aec       0x30 /home/leon/riotboard/arm-2012.09/bin/../arm-none-eabi/lib//libm.a(lib_a-sf_floor.o)
 .debug_frame   0x00002b1c       0x28 /home/leon/riotboard/arm-2012.09/bin/../arm-none-eabi/lib//libm.a(lib_a-sf_scalbn.o)
 .debug_frame   0x00002b44       0x20 /home/leon/riotboard/arm-2012.09/bin/../arm-none-eabi/lib//libm.a(lib_a-sf_copysign.o)
 .debug_frame   0x00002b64       0x40 /home/leon/riotboard/arm-2012.09/bin/../arm-none-eabi/lib//libc.a(lib_a-assert.o)
 .debug_frame   0x00002ba4       0x20 /home/leon/riotboard/arm-2012.09/bin/../arm-none-eabi/lib//libc.a(lib_a-bzero.o)
 .debug_frame   0x00002bc4       0x48 /home/leon/riotboard/arm-2012.09/bin/../arm-none-eabi/lib//libc.a(lib_a-fflush.o)
 .debug_frame   0x00002c0c      0x134 /home/leon/riotboard/arm-2012.09/bin/../arm-none-eabi/lib//libc.a(lib_a-findfp.o)
 .debug_frame   0x00002d40       0x54 /home/leon/riotboard/arm-2012.09/bin/../arm-none-eabi/lib//libc.a(lib_a-fiprintf.o)
 .debug_frame   0x00002d94       0x48 /home/leon/riotboard/arm-2012.09/bin/../arm-none-eabi/lib//libc.a(lib_a-fputc.o)
 .debug_frame   0x00002ddc       0x3c /home/leon/riotboard/arm-2012.09/bin/../arm-none-eabi/lib//libc.a(lib_a-fputs.o)
 .debug_frame   0x00002e18       0x50 /home/leon/riotboard/arm-2012.09/bin/../arm-none-eabi/lib//libc.a(lib_a-freer.o)
 .debug_frame   0x00002e68       0x38 /home/leon/riotboard/arm-2012.09/bin/../arm-none-eabi/lib//libc.a(lib_a-fvwrite.o)
 .debug_frame   0x00002ea0       0x54 /home/leon/riotboard/arm-2012.09/bin/../arm-none-eabi/lib//libc.a(lib_a-fwalk.o)
 .debug_frame   0x00002ef4       0x2c /home/leon/riotboard/arm-2012.09/bin/../arm-none-eabi/lib//libc.a(lib_a-init.o)
 .debug_frame   0x00002f20       0x40 /home/leon/riotboard/arm-2012.09/bin/../arm-none-eabi/lib//libc.a(lib_a-malloc.o)
 .debug_frame   0x00002f60       0x38 /home/leon/riotboard/arm-2012.09/bin/../arm-none-eabi/lib//libc.a(lib_a-mallocr.o)
 .debug_frame   0x00002f98       0x2c /home/leon/riotboard/arm-2012.09/bin/../arm-none-eabi/lib//libc.a(lib_a-memchr.o)
 .debug_frame   0x00002fc4       0x30 /home/leon/riotboard/arm-2012.09/bin/../arm-none-eabi/lib//libc.a(lib_a-memcpy.o)
 .debug_frame   0x00002ff4       0x2c /home/leon/riotboard/arm-2012.09/bin/../arm-none-eabi/lib//libc.a(lib_a-memmove.o)
 .debug_frame   0x00003020       0x28 /home/leon/riotboard/arm-2012.09/bin/../arm-none-eabi/lib//libc.a(lib_a-memset.o)
 .debug_frame   0x00003048       0x30 /home/leon/riotboard/arm-2012.09/bin/../arm-none-eabi/lib//libc.a(lib_a-mlock.o)
 .debug_frame   0x00003078       0x58 /home/leon/riotboard/arm-2012.09/bin/../arm-none-eabi/lib//libc.a(lib_a-printf.o)
 .debug_frame   0x000030d0       0x48 /home/leon/riotboard/arm-2012.09/bin/../arm-none-eabi/lib//libc.a(lib_a-putc.o)
 .debug_frame   0x00003118       0x28 /home/leon/riotboard/arm-2012.09/bin/../arm-none-eabi/lib//libc.a(lib_a-realloc.o)
 .debug_frame   0x00003140       0x38 /home/leon/riotboard/arm-2012.09/bin/../arm-none-eabi/lib//libc.a(lib_a-reallocr.o)
 .debug_frame   0x00003178       0x3c /home/leon/riotboard/arm-2012.09/bin/../arm-none-eabi/lib//libc.a(lib_a-rget.o)
 .debug_frame   0x000031b4       0x2c /home/leon/riotboard/arm-2012.09/bin/../arm-none-eabi/lib//libc.a(lib_a-sbrkr.o)
 .debug_frame   0x000031e0       0x5c /home/leon/riotboard/arm-2012.09/bin/../arm-none-eabi/lib//libc.a(lib_a-sprintf.o)
 .debug_frame   0x0000323c       0x88 /home/leon/riotboard/arm-2012.09/bin/../arm-none-eabi/lib//libc.a(lib_a-stdio.o)
 .debug_frame   0x000032c4       0x20 /home/leon/riotboard/arm-2012.09/bin/../arm-none-eabi/lib//libc.a(lib_a-strlen.o)
 .debug_frame   0x000032e4       0x28 /home/leon/riotboard/arm-2012.09/bin/../arm-none-eabi/lib//libc.a(lib_a-strncasecmp.o)
 .debug_frame   0x0000330c       0x3c /home/leon/riotboard/arm-2012.09/bin/../arm-none-eabi/lib//libc.a(lib_a-svfprintf.o)
 .debug_frame   0x00003348       0x7c /home/leon/riotboard/arm-2012.09/bin/../arm-none-eabi/lib//libc.a(lib_a-vfiprintf.o)
 .debug_frame   0x000033c4       0x58 /home/leon/riotboard/arm-2012.09/bin/../arm-none-eabi/lib//libc.a(lib_a-vfprintf.o)
 .debug_frame   0x0000341c       0x40 /home/leon/riotboard/arm-2012.09/bin/../arm-none-eabi/lib//libc.a(lib_a-vprintf.o)
 .debug_frame   0x0000345c       0x3c /home/leon/riotboard/arm-2012.09/bin/../arm-none-eabi/lib//libc.a(lib_a-wbuf.o)
 .debug_frame   0x00003498       0x2c /home/leon/riotboard/arm-2012.09/bin/../arm-none-eabi/lib//libc.a(lib_a-writer.o)
 .debug_frame   0x000034c4       0x2c /home/leon/riotboard/arm-2012.09/bin/../arm-none-eabi/lib//libc.a(lib_a-wsetup.o)
 .debug_frame   0x000034f0       0x28 /home/leon/riotboard/arm-2012.09/bin/../arm-none-eabi/lib//libc.a(lib_a-abort.o)
 .debug_frame   0x00003518       0x2c /home/leon/riotboard/arm-2012.09/bin/../arm-none-eabi/lib//libc.a(lib_a-closer.o)
 .debug_frame   0x00003544       0x64 /home/leon/riotboard/arm-2012.09/bin/../arm-none-eabi/lib//libc.a(lib_a-dtoa.o)
 .debug_frame   0x000035a8       0x3c /home/leon/riotboard/arm-2012.09/bin/../arm-none-eabi/lib//libc.a(lib_a-fclose.o)
 .debug_frame   0x000035e4       0x50 /home/leon/riotboard/arm-2012.09/bin/../arm-none-eabi/lib//libc.a(lib_a-fputwc.o)
 .debug_frame   0x00003634       0x98 /home/leon/riotboard/arm-2012.09/bin/../arm-none-eabi/lib//libc.a(lib_a-locale.o)
 .debug_frame   0x000036cc       0x2c /home/leon/riotboard/arm-2012.09/bin/../arm-none-eabi/lib//libc.a(lib_a-lseekr.o)
 .debug_frame   0x000036f8       0x30 /home/leon/riotboard/arm-2012.09/bin/../arm-none-eabi/lib//libc.a(lib_a-makebuf.o)
 .debug_frame   0x00003728      0x220 /home/leon/riotboard/arm-2012.09/bin/../arm-none-eabi/lib//libc.a(lib_a-mprec.o)
 .debug_frame   0x00003948       0x2c /home/leon/riotboard/arm-2012.09/bin/../arm-none-eabi/lib//libc.a(lib_a-readr.o)
 .debug_frame   0x00003974       0x68 /home/leon/riotboard/arm-2012.09/bin/../arm-none-eabi/lib//libc.a(lib_a-reent.o)
 .debug_frame   0x000039dc       0x44 /home/leon/riotboard/arm-2012.09/bin/../arm-none-eabi/lib//libc.a(lib_a-refill.o)
 .debug_frame   0x00003a20       0x20 /home/leon/riotboard/arm-2012.09/bin/../arm-none-eabi/lib//libc.a(lib_a-s_fpclassify.o)
 .debug_frame   0x00003a40       0xc0 /home/leon/riotboard/arm-2012.09/bin/../arm-none-eabi/lib//libc.a(lib_a-signal.o)
 .debug_frame   0x00003b00       0x44 /home/leon/riotboard/arm-2012.09/bin/../arm-none-eabi/lib//libc.a(lib_a-signalr.o)
 .debug_frame   0x00003b44       0x30 /home/leon/riotboard/arm-2012.09/bin/../arm-none-eabi/lib//libc.a(lib_a-strcmp.o)
 .debug_frame   0x00003b74       0x64 /home/leon/riotboard/arm-2012.09/bin/../arm-none-eabi/lib//libc.a(lib_a-svfiprintf.o)
 .debug_frame   0x00003bd8       0x58 /home/leon/riotboard/arm-2012.09/bin/../arm-none-eabi/lib//libc.a(lib_a-wcrtomb.o)
 .debug_frame   0x00003c30       0x44 /home/leon/riotboard/arm-2012.09/bin/../arm-none-eabi/lib//libc.a(lib_a-wctomb_r.o)
 .debug_frame   0x00003c74       0x28 /home/leon/riotboard/arm-2012.09/bin/../arm-none-eabi/lib//libc.a(lib_a-callocr.o)
 .debug_frame   0x00003c9c       0x2c /home/leon/riotboard/arm-2012.09/bin/../arm-none-eabi/lib//libc.a(lib_a-fstatr.o)
 .debug_frame   0x00003cc8       0x2c /home/leon/riotboard/arm-2012.09/bin/../arm-none-eabi/lib//libc.a(lib_a-isattyr.o)
 .debug_frame   0x00003cf4       0x20 /home/leon/riotboard/arm-2012.09/bin/../lib/gcc/arm-none-eabi/4.7.2//libgcc.a(_udivsi3.o)
 .debug_frame   0x00003d14       0x54 /home/leon/riotboard/arm-2012.09/bin/../lib/gcc/arm-none-eabi/4.7.2//libgcc.a(bpabi.o)
 .debug_frame   0x00003d68       0x38 /home/leon/riotboard/arm-2012.09/bin/../lib/gcc/arm-none-eabi/4.7.2//libgcc.a(_divdi3.o)
 .debug_frame   0x00003da0       0x38 /home/leon/riotboard/arm-2012.09/bin/../lib/gcc/arm-none-eabi/4.7.2//libgcc.a(_udivdi3.o)
 .debug_frame   0x00003dd8       0x50 /home/leon/git/swp-report/iMX6_Platform_SDK/output/mx6dq/lib/libsdk.a(profile.o)
 .debug_frame   0x00003e28      0x210 /home/leon/git/swp-report/iMX6_Platform_SDK/output/mx6dq/lib/libsdk.a(armv7_cache.o)
 .debug_frame   0x00004038      0x290 /home/leon/git/swp-report/iMX6_Platform_SDK/output/mx6dq/lib/libsdk.a(runtime_support.o)
 .debug_frame   0x000042c8       0x90 /home/leon/git/swp-report/iMX6_Platform_SDK/output/mx6dq/lib/libsdk.a(mma8451.o)
 .debug_frame   0x00004358      0x150 /home/leon/git/swp-report/iMX6_Platform_SDK/output/mx6dq/lib/libsdk.a(smd_sensor.o)
 .debug_frame   0x000044a8       0x30 /home/leon/git/swp-report/iMX6_Platform_SDK/output/mx6dq/lib/libsdk.a(cpu_get_cores.o)
 .debug_frame   0x000044d8       0x70 /home/leon/git/swp-report/iMX6_Platform_SDK/output/mx6dq/lib/libsdk.a(cpu_multicore.o)
 .debug_frame   0x00004548       0x30 /home/leon/git/swp-report/iMX6_Platform_SDK/output/mx6dq/lib/libsdk.a(cpu_workpoint.o)
 .debug_frame   0x00004578      0x270 /home/leon/git/swp-report/iMX6_Platform_SDK/output/mx6dq/lib/libsdk.a(enet_drv.o)
 .debug_frame   0x000047e8      0x178 /home/leon/git/swp-report/iMX6_Platform_SDK/output/mx6dq/lib/libsdk.a(gpio.o)
 .debug_frame   0x00004960      0x150 /home/leon/git/swp-report/iMX6_Platform_SDK/output/mx6dq/lib/libsdk.a(hdmi_tx.o)
 .debug_frame   0x00004ab0      0x2b0 /home/leon/git/swp-report/iMX6_Platform_SDK/output/mx6dq/lib/libsdk.a(hdmi_tx_audio.o)
 .debug_frame   0x00004d60      0x2b0 /home/leon/git/swp-report/iMX6_Platform_SDK/output/mx6dq/lib/libsdk.a(hdmi_tx_phy.o)
 .debug_frame   0x00005010      0x1d8 /home/leon/git/swp-report/iMX6_Platform_SDK/output/mx6dq/lib/libsdk.a(imx_i2c.o)
 .debug_frame   0x000051e8       0x70 /home/leon/git/swp-report/iMX6_Platform_SDK/output/mx6dq/lib/libsdk.a(imx_i2c_slave.o)
 .debug_frame   0x00005258      0x230 /home/leon/git/swp-report/iMX6_Platform_SDK/output/mx6dq/lib/libsdk.a(ips_disp_panel.o)
 .debug_frame   0x00005488      0x1d0 /home/leon/git/swp-report/iMX6_Platform_SDK/output/mx6dq/lib/libsdk.a(ipu_common.o)
 .debug_frame   0x00005658       0xd0 /home/leon/git/swp-report/iMX6_Platform_SDK/output/mx6dq/lib/libsdk.a(ipu_csi.o)
 .debug_frame   0x00005728       0xd0 /home/leon/git/swp-report/iMX6_Platform_SDK/output/mx6dq/lib/libsdk.a(ipu_dc.o)
 .debug_frame   0x000057f8       0xf4 /home/leon/git/swp-report/iMX6_Platform_SDK/output/mx6dq/lib/libsdk.a(ipu_di.o)
 .debug_frame   0x000058ec       0x50 /home/leon/git/swp-report/iMX6_Platform_SDK/output/mx6dq/lib/libsdk.a(ipu_dmfc.o)
 .debug_frame   0x0000593c       0x70 /home/leon/git/swp-report/iMX6_Platform_SDK/output/mx6dq/lib/libsdk.a(ipu_dp.o)
 .debug_frame   0x000059ac      0x130 /home/leon/git/swp-report/iMX6_Platform_SDK/output/mx6dq/lib/libsdk.a(ipu_ic.o)
 .debug_frame   0x00005adc      0x230 /home/leon/git/swp-report/iMX6_Platform_SDK/output/mx6dq/lib/libsdk.a(ipu_idmac.o)
 .debug_frame   0x00005d0c      0x110 /home/leon/git/swp-report/iMX6_Platform_SDK/output/mx6dq/lib/libsdk.a(ipu_vdi.o)
 .debug_frame   0x00005e1c      0x110 /home/leon/git/swp-report/iMX6_Platform_SDK/output/mx6dq/lib/libsdk.a(keypad_port.o)
 .debug_frame   0x00005f2c       0x70 /home/leon/git/swp-report/iMX6_Platform_SDK/output/mx6dq/lib/libsdk.a(ldb.o)
 .debug_frame   0x00005f9c       0xf0 /home/leon/git/swp-report/iMX6_Platform_SDK/output/mx6dq/lib/libsdk.a(ocotp.o)
 .debug_frame   0x0000608c       0xb0 /home/leon/git/swp-report/iMX6_Platform_SDK/output/mx6dq/lib/libsdk.a(pcie.o)
 .debug_frame   0x0000613c       0x90 /home/leon/git/swp-report/iMX6_Platform_SDK/output/mx6dq/lib/libsdk.a(pcie_phy.o)
 .debug_frame   0x000061cc       0xb0 /home/leon/git/swp-report/iMX6_Platform_SDK/output/mx6dq/lib/libsdk.a(pcie_prot.o)
 .debug_frame   0x0000627c      0xb10 /home/leon/git/swp-report/iMX6_Platform_SDK/output/mx6dq/lib/libsdk.a(pmu_driver.o)
 .debug_frame   0x00006d8c      0x110 /home/leon/git/swp-report/iMX6_Platform_SDK/output/mx6dq/lib/libsdk.a(pwm.o)
 .debug_frame   0x00006e9c       0xf0 /home/leon/git/swp-report/iMX6_Platform_SDK/output/mx6dq/lib/libsdk.a(rtc.o)
 .debug_frame   0x00006f8c       0xb0 /home/leon/git/swp-report/iMX6_Platform_SDK/output/mx6dq/lib/libsdk.a(srtc.o)
 .debug_frame   0x0000703c      0x37c /home/leon/git/swp-report/iMX6_Platform_SDK/output/mx6dq/lib/libsdk.a(sata.o)
 .debug_frame   0x000073b8      0x210 /home/leon/git/swp-report/iMX6_Platform_SDK/output/mx6dq/lib/libsdk.a(sdma.o)
 .debug_frame   0x000075c8      0x17c /home/leon/git/swp-report/iMX6_Platform_SDK/output/mx6dq/lib/libsdk.a(snvs.o)
 .debug_frame   0x00007744       0xf0 /home/leon/git/swp-report/iMX6_Platform_SDK/output/mx6dq/lib/libsdk.a(ecspi.o)
 .debug_frame   0x00007834       0xf0 /home/leon/git/swp-report/iMX6_Platform_SDK/output/mx6dq/lib/libsdk.a(tempmon.o)
 .debug_frame   0x00007924      0x150 /home/leon/git/swp-report/iMX6_Platform_SDK/output/mx6dq/lib/libsdk.a(gpt.o)
 .debug_frame   0x00007a74       0x70 /home/leon/git/swp-report/iMX6_Platform_SDK/output/mx6dq/lib/libsdk.a(usb_common.o)
 .debug_frame   0x00007ae4      0x130 /home/leon/git/swp-report/iMX6_Platform_SDK/output/mx6dq/lib/libsdk.a(usbd_drv.o)
 .debug_frame   0x00007c14      0x110 /home/leon/git/swp-report/iMX6_Platform_SDK/output/mx6dq/lib/libsdk.a(usbh_drv.o)
 .debug_frame   0x00007d24      0x250 /home/leon/git/swp-report/iMX6_Platform_SDK/output/mx6dq/lib/libsdk.a(usdhc.o)
 .debug_frame   0x00007f74      0x330 /home/leon/git/swp-report/iMX6_Platform_SDK/output/mx6dq/lib/libsdk.a(usdhc_host.o)
 .debug_frame   0x000082a4      0x1b0 /home/leon/git/swp-report/iMX6_Platform_SDK/output/mx6dq/lib/libsdk.a(usdhc_mmc.o)
 .debug_frame   0x00008454       0x90 /home/leon/git/swp-report/iMX6_Platform_SDK/output/mx6dq/lib/libsdk.a(usdhc_sd.o)
 .debug_frame   0x000084e4       0x50 /home/leon/git/swp-report/iMX6_Platform_SDK/output/mx6dq/lib/libsdk.a(spinlock.o)
 .debug_frame   0x00008534       0xb0 /home/leon/git/swp-report/iMX6_Platform_SDK/output/mx6dq/lib/libsdk.a(hdmi_common.o)
 .debug_frame   0x000085e4       0x50 /home/leon/git/swp-report/iMX6_Platform_SDK/output/mx6dq/lib/libsdk.a(mx6x_usb.o)
 .debug_frame   0x00008634       0xf0 /home/leon/git/swp-report/iMX6_Platform_SDK/output/mx6dq/lib/libboard_smart_device_rev_a.a(board_audio.o)
 .debug_frame   0x00008724       0xd0 /home/leon/git/swp-report/iMX6_Platform_SDK/output/mx6dq/lib/libboard_smart_device_rev_a.a(board_camera.o)
 .debug_frame   0x000087f4       0xf0 /home/leon/git/swp-report/iMX6_Platform_SDK/output/mx6dq/lib/libboard_smart_device_rev_a.a(board_display.o)
 .debug_frame   0x000088e4       0xd0 /home/leon/git/swp-report/iMX6_Platform_SDK/output/mx6dq/lib/libboard_smart_device_rev_a.a(board_hdmi.o)
 .debug_frame   0x000089b4       0xb0 /home/leon/git/swp-report/iMX6_Platform_SDK/output/mx6dq/lib/libboard_smart_device_rev_a.a(board_mipi.o)
 .debug_frame   0x00008a64       0xb0 /home/leon/git/swp-report/iMX6_Platform_SDK/output/mx6dq/lib/libboard_smart_device_rev_a.a(board_network.o)
 .debug_frame   0x00008b14       0xb0 /home/leon/git/swp-report/iMX6_Platform_SDK/output/mx6dq/lib/libboard_smart_device_rev_a.a(board_pcie.o)
 .debug_frame   0x00008bc4       0xd0 /home/leon/git/swp-report/iMX6_Platform_SDK/output/mx6dq/lib/libboard_smart_device_rev_a.a(board_sata.o)
 .debug_frame   0x00008c94       0x70 /home/leon/git/swp-report/iMX6_Platform_SDK/output/mx6dq/lib/libboard_smart_device_rev_a.a(board_usb.o)
 .debug_frame   0x00008d04       0x70 /home/leon/git/swp-report/iMX6_Platform_SDK/output/mx6dq/lib/libboard_smart_device_rev_a.a(board_usdhc.o)
 .debug_frame   0x00008d74       0x30 /home/leon/git/swp-report/iMX6_Platform_SDK/output/mx6dq/lib/libboard_smart_device_rev_a.a(ecspi_iomux_config.o)
 .debug_frame   0x00008da4       0x30 /home/leon/git/swp-report/iMX6_Platform_SDK/output/mx6dq/lib/libboard_smart_device_rev_a.a(i2c_iomux_config.o)
 .debug_frame   0x00008dd4       0x30 /home/leon/git/swp-report/iMX6_Platform_SDK/output/mx6dq/lib/libboard_smart_device_rev_a.a(pwm_iomux_config.o)
 .debug_frame   0x00008e04       0x30 /home/leon/git/swp-report/iMX6_Platform_SDK/output/mx6dq/lib/libboard_smart_device_rev_a.a(usdhc_iomux_config.o)
 .debug_frame   0x00008e34       0x40 /home/leon/riotboard/arm-2012.09/bin/../arm-none-eabi/lib//libstdc++.a(pure.o)
 .debug_frame   0x00008e74       0x90 /home/leon/riotboard/arm-2012.09/bin/../arm-none-eabi/lib//libstdc++.a(eh_terminate.o)
 .debug_frame   0x00008f04       0x60 /home/leon/riotboard/arm-2012.09/bin/../arm-none-eabi/lib//libstdc++.a(eh_call.o)
 .debug_frame   0x00008f64       0x5c /home/leon/riotboard/arm-2012.09/bin/../arm-none-eabi/lib//libstdc++.a(eh_throw.o)
 .debug_frame   0x00008fc0       0x60 /home/leon/riotboard/arm-2012.09/bin/../arm-none-eabi/lib//libstdc++.a(eh_arm.o)
 .debug_frame   0x00009020       0xd0 /home/leon/riotboard/arm-2012.09/bin/../arm-none-eabi/lib//libstdc++.a(eh_exception.o)
 .debug_frame   0x000090f0       0x74 /home/leon/riotboard/arm-2012.09/bin/../arm-none-eabi/lib//libstdc++.a(eh_alloc.o)
 .debug_frame   0x00009164       0x30 /home/leon/riotboard/arm-2012.09/bin/../arm-none-eabi/lib//libstdc++.a(eh_globals.o)
 .debug_frame   0x00009194       0xa8 /home/leon/riotboard/arm-2012.09/bin/../arm-none-eabi/lib//libstdc++.a(si_class_type_info.o)
 .debug_frame   0x0000923c       0xa8 /home/leon/riotboard/arm-2012.09/bin/../arm-none-eabi/lib//libstdc++.a(eh_personality.o)
 .debug_frame   0x000092e4       0x68 /home/leon/riotboard/arm-2012.09/bin/../arm-none-eabi/lib//libstdc++.a(eh_catch.o)
 .debug_frame   0x0000934c       0xc8 /home/leon/riotboard/arm-2012.09/bin/../arm-none-eabi/lib//libstdc++.a(class_type_info.o)
 .debug_frame   0x00009414       0x30 /home/leon/riotboard/arm-2012.09/bin/../arm-none-eabi/lib//libstdc++.a(vterminate.o)
 .debug_frame   0x00009444      0x4b0 /home/leon/riotboard/arm-2012.09/bin/../arm-none-eabi/lib//libstdc++.a(cp-demangle.o)
 .debug_frame   0x000098f4       0x28 /home/leon/riotboard/arm-2012.09/bin/../arm-none-eabi/lib//libstdc++.a(eh_type.o)
 .debug_frame   0x0000991c       0x28 /home/leon/riotboard/arm-2012.09/bin/../arm-none-eabi/lib//libstdc++.a(del_op.o)
 .debug_frame   0x00009944       0x90 /home/leon/riotboard/arm-2012.09/bin/../arm-none-eabi/lib//libstdc++.a(tinfo.o)
 .debug_frame   0x000099d4       0x50 /home/leon/riotboard/arm-2012.09/bin/../arm-none-eabi/lib//libc.a(lib_a-fwrite.o)
 .debug_frame   0x00009a24       0x28 /home/leon/riotboard/arm-2012.09/bin/../arm-none-eabi/lib//libc.a(lib_a-memcmp.o)
 .debug_frame   0x00009a4c       0x28 /home/leon/riotboard/arm-2012.09/bin/../arm-none-eabi/lib//libc.a(lib_a-strncmp.o)
 .debug_frame   0x00009a74       0x28 /home/leon/riotboard/arm-2012.09/bin/../arm-none-eabi/lib//libc.a(lib_a-syswrite.o)
 .debug_frame   0x00009a9c       0x20 /home/leon/riotboard/arm-2012.09/bin/../lib/gcc/arm-none-eabi/4.7.2//libgcc.a(_divsi3.o)
 .debug_frame   0x00009abc      0x290 /home/leon/riotboard/arm-2012.09/bin/../lib/gcc/arm-none-eabi/4.7.2//libgcc.a(unwind-arm.o)
 .debug_frame   0x00009d4c       0xe4 /home/leon/riotboard/arm-2012.09/bin/../lib/gcc/arm-none-eabi/4.7.2//libgcc.a(pr-support.o)
 .debug_frame   0x00009e30       0x90 /home/leon/git/swp-report/iMX6_Platform_SDK/output/mx6dq/lib/libsdk.a(max7310.o)

.debug_ranges   0x00000000      0x1a0
 .debug_ranges  0x00000000       0x30 /home/leon/git/swp-report/iMX6_Platform_SDK/output/mx6dq/lib/libsdk.a(menu.o)
 .debug_ranges  0x00000030       0x18 /home/leon/git/swp-report/iMX6_Platform_SDK/output/mx6dq/lib/libsdk.a(system_util.o)
 .debug_ranges  0x00000048       0x18 /home/leon/git/swp-report/iMX6_Platform_SDK/output/mx6dq/sdk_unit_test/smart_device_rev_a/libsdk_unit_test.a(sata_test.o)
 .debug_ranges  0x00000060      0x140 /home/leon/git/swp-report/iMX6_Platform_SDK/output/mx6dq/lib/libsdk.a(pmu_driver.o)

Cross Reference Table

Symbol                                            File
ALL_test                                          /home/leon/git/swp-report/iMX6_Platform_SDK/output/mx6dq/sdk_unit_test/smart_device_rev_a/obj/apps/sdk_unit_test/src/all_test.o
                                                  /home/leon/git/swp-report/iMX6_Platform_SDK/output/mx6dq/sdk_unit_test/smart_device_rev_a/obj/apps/sdk_unit_test/src/unit_test_main.o
Audio_ChannelCount                                /home/leon/git/swp-report/iMX6_Platform_SDK/output/mx6dq/lib/libsdk.a(hdmi_tx_audio.o)
Delay4Reload                                      /home/leon/git/swp-report/iMX6_Platform_SDK/output/mx6dq/lib/libsdk.a(ocotp.o)
IRQ_HDLR                                          /home/leon/git/swp-report/iMX6_Platform_SDK/output/mx6dq/lib/libsdk.a(interrupt.o)
                                                  /home/leon/git/swp-report/iMX6_Platform_SDK/output/mx6dq/lib/libsdk.a(vectors.o)
PLL1_OUTPUT                                       /home/leon/git/swp-report/iMX6_Platform_SDK/output/mx6dq/lib/libsdk.a(ccm_pll.o)
PLL2_OUTPUT                                       /home/leon/git/swp-report/iMX6_Platform_SDK/output/mx6dq/lib/libsdk.a(ccm_pll.o)
PLL3_OUTPUT                                       /home/leon/git/swp-report/iMX6_Platform_SDK/output/mx6dq/lib/libsdk.a(ccm_pll.o)
PLL4_OUTPUT                                       /home/leon/git/swp-report/iMX6_Platform_SDK/output/mx6dq/lib/libsdk.a(ccm_pll.o)
PLL5_OUTPUT                                       /home/leon/git/swp-report/iMX6_Platform_SDK/output/mx6dq/lib/libsdk.a(ccm_pll.o)
SGI3_ISR                                          /home/leon/git/swp-report/iMX6_Platform_SDK/output/mx6dq/sdk_unit_test/smart_device_rev_a/libsdk_unit_test.a(multicore_test.o)
SGTL5000PowerUp_and_clockinit                     /home/leon/git/swp-report/iMX6_Platform_SDK/output/mx6dq/lib/libboard_smart_device_rev_a.a(board_audio.o)
StartPerfCounter                                  /home/leon/git/swp-report/iMX6_Platform_SDK/output/mx6dq/lib/libsdk.a(profile.o)
                                                  /home/leon/git/swp-report/iMX6_Platform_SDK/output/mx6dq/sdk_unit_test/smart_device_rev_a/libsdk_unit_test.a(mem_2_mem.o)
StopPerfCounter                                   /home/leon/git/swp-report/iMX6_Platform_SDK/output/mx6dq/lib/libsdk.a(profile.o)
                                                  /home/leon/git/swp-report/iMX6_Platform_SDK/output/mx6dq/sdk_unit_test/smart_device_rev_a/libsdk_unit_test.a(mem_2_mem.o)
_Balloc                                           /home/leon/riotboard/arm-2012.09/bin/../arm-none-eabi/lib//libc.a(lib_a-mprec.o)
                                                  /home/leon/riotboard/arm-2012.09/bin/../arm-none-eabi/lib//libc.a(lib_a-dtoa.o)
_Bfree                                            /home/leon/riotboard/arm-2012.09/bin/../arm-none-eabi/lib//libc.a(lib_a-mprec.o)
                                                  /home/leon/riotboard/arm-2012.09/bin/../arm-none-eabi/lib//libc.a(lib_a-dtoa.o)
_ITM_deregisterTMCloneTable                       /home/leon/riotboard/arm-2012.09/bin/../lib/gcc/arm-none-eabi/4.7.2//crtbegin.o
_ITM_registerTMCloneTable                         /home/leon/riotboard/arm-2012.09/bin/../lib/gcc/arm-none-eabi/4.7.2//crtbegin.o
_Jv_RegisterClasses                               /home/leon/riotboard/arm-2012.09/bin/../lib/gcc/arm-none-eabi/4.7.2//crtbegin.o
_PathLocale                                       /home/leon/riotboard/arm-2012.09/bin/../arm-none-eabi/lib//libc.a(lib_a-locale.o)
_Unwind_Backtrace                                 /home/leon/riotboard/arm-2012.09/bin/../lib/gcc/arm-none-eabi/4.7.2//libgcc.a(libunwind.o)
_Unwind_Complete                                  /home/leon/riotboard/arm-2012.09/bin/../lib/gcc/arm-none-eabi/4.7.2//libgcc.a(unwind-arm.o)
                                                  /home/leon/riotboard/arm-2012.09/bin/../arm-none-eabi/lib//libstdc++.a(eh_catch.o)
_Unwind_DeleteException                           /home/leon/riotboard/arm-2012.09/bin/../lib/gcc/arm-none-eabi/4.7.2//libgcc.a(unwind-arm.o)
                                                  /home/leon/riotboard/arm-2012.09/bin/../arm-none-eabi/lib//libstdc++.a(eh_catch.o)
_Unwind_ForcedUnwind                              /home/leon/riotboard/arm-2012.09/bin/../lib/gcc/arm-none-eabi/4.7.2//libgcc.a(libunwind.o)
_Unwind_GetCFA                                    /home/leon/riotboard/arm-2012.09/bin/../lib/gcc/arm-none-eabi/4.7.2//libgcc.a(unwind-arm.o)
_Unwind_GetDataRelBase                            /home/leon/riotboard/arm-2012.09/bin/../lib/gcc/arm-none-eabi/4.7.2//libgcc.a(pr-support.o)
                                                  /home/leon/riotboard/arm-2012.09/bin/../arm-none-eabi/lib//libstdc++.a(eh_personality.o)
_Unwind_GetLanguageSpecificData                   /home/leon/riotboard/arm-2012.09/bin/../lib/gcc/arm-none-eabi/4.7.2//libgcc.a(pr-support.o)
                                                  /home/leon/riotboard/arm-2012.09/bin/../arm-none-eabi/lib//libstdc++.a(eh_personality.o)
_Unwind_GetRegionStart                            /home/leon/riotboard/arm-2012.09/bin/../lib/gcc/arm-none-eabi/4.7.2//libgcc.a(pr-support.o)
                                                  /home/leon/riotboard/arm-2012.09/bin/../arm-none-eabi/lib//libstdc++.a(eh_personality.o)
_Unwind_GetTextRelBase                            /home/leon/riotboard/arm-2012.09/bin/../lib/gcc/arm-none-eabi/4.7.2//libgcc.a(pr-support.o)
                                                  /home/leon/riotboard/arm-2012.09/bin/../arm-none-eabi/lib//libstdc++.a(eh_personality.o)
_Unwind_RaiseException                            /home/leon/riotboard/arm-2012.09/bin/../lib/gcc/arm-none-eabi/4.7.2//libgcc.a(libunwind.o)
                                                  /home/leon/riotboard/arm-2012.09/bin/../arm-none-eabi/lib//libstdc++.a(eh_throw.o)
_Unwind_Resume                                    /home/leon/riotboard/arm-2012.09/bin/../lib/gcc/arm-none-eabi/4.7.2//libgcc.a(libunwind.o)
                                                  /home/leon/riotboard/arm-2012.09/bin/../arm-none-eabi/lib//libstdc++.a(eh_arm.o)
_Unwind_Resume_or_Rethrow                         /home/leon/riotboard/arm-2012.09/bin/../lib/gcc/arm-none-eabi/4.7.2//libgcc.a(libunwind.o)
                                                  /home/leon/riotboard/arm-2012.09/bin/../arm-none-eabi/lib//libstdc++.a(eh_throw.o)
_Unwind_VRS_Get                                   /home/leon/riotboard/arm-2012.09/bin/../lib/gcc/arm-none-eabi/4.7.2//libgcc.a(unwind-arm.o)
                                                  /home/leon/riotboard/arm-2012.09/bin/../lib/gcc/arm-none-eabi/4.7.2//libgcc.a(pr-support.o)
                                                  /home/leon/riotboard/arm-2012.09/bin/../arm-none-eabi/lib//libstdc++.a(eh_personality.o)
_Unwind_VRS_Pop                                   /home/leon/riotboard/arm-2012.09/bin/../lib/gcc/arm-none-eabi/4.7.2//libgcc.a(unwind-arm.o)
                                                  /home/leon/riotboard/arm-2012.09/bin/../lib/gcc/arm-none-eabi/4.7.2//libgcc.a(pr-support.o)
_Unwind_VRS_Set                                   /home/leon/riotboard/arm-2012.09/bin/../lib/gcc/arm-none-eabi/4.7.2//libgcc.a(unwind-arm.o)
                                                  /home/leon/riotboard/arm-2012.09/bin/../lib/gcc/arm-none-eabi/4.7.2//libgcc.a(pr-support.o)
                                                  /home/leon/riotboard/arm-2012.09/bin/../arm-none-eabi/lib//libstdc++.a(eh_personality.o)
__TMC_END__                                       /home/leon/riotboard/arm-2012.09/bin/../lib/gcc/arm-none-eabi/4.7.2//crtend.o
                                                  /home/leon/riotboard/arm-2012.09/bin/../lib/gcc/arm-none-eabi/4.7.2//crtbegin.o
___Unwind_Backtrace                               /home/leon/riotboard/arm-2012.09/bin/../lib/gcc/arm-none-eabi/4.7.2//libgcc.a(libunwind.o)
___Unwind_ForcedUnwind                            /home/leon/riotboard/arm-2012.09/bin/../lib/gcc/arm-none-eabi/4.7.2//libgcc.a(libunwind.o)
___Unwind_RaiseException                          /home/leon/riotboard/arm-2012.09/bin/../lib/gcc/arm-none-eabi/4.7.2//libgcc.a(libunwind.o)
___Unwind_Resume                                  /home/leon/riotboard/arm-2012.09/bin/../lib/gcc/arm-none-eabi/4.7.2//libgcc.a(libunwind.o)
___Unwind_Resume_or_Rethrow                       /home/leon/riotboard/arm-2012.09/bin/../lib/gcc/arm-none-eabi/4.7.2//libgcc.a(libunwind.o)
__adddf3                                          /home/leon/riotboard/arm-2012.09/bin/../lib/gcc/arm-none-eabi/4.7.2//libgcc.a(_arm_addsubdf3.o)
__addsf3                                          /home/leon/riotboard/arm-2012.09/bin/../lib/gcc/arm-none-eabi/4.7.2//libgcc.a(_arm_addsubsf3.o)
__aeabi_cdcmpeq                                   /home/leon/riotboard/arm-2012.09/bin/../lib/gcc/arm-none-eabi/4.7.2//libgcc.a(_arm_cmpdf2.o)
__aeabi_cdcmple                                   /home/leon/riotboard/arm-2012.09/bin/../lib/gcc/arm-none-eabi/4.7.2//libgcc.a(_arm_cmpdf2.o)
__aeabi_cdrcmple                                  /home/leon/riotboard/arm-2012.09/bin/../lib/gcc/arm-none-eabi/4.7.2//libgcc.a(_arm_cmpdf2.o)
__aeabi_cfcmpeq                                   /home/leon/riotboard/arm-2012.09/bin/../lib/gcc/arm-none-eabi/4.7.2//libgcc.a(_arm_cmpsf2.o)
__aeabi_cfcmple                                   /home/leon/riotboard/arm-2012.09/bin/../lib/gcc/arm-none-eabi/4.7.2//libgcc.a(_arm_cmpsf2.o)
__aeabi_cfrcmple                                  /home/leon/riotboard/arm-2012.09/bin/../lib/gcc/arm-none-eabi/4.7.2//libgcc.a(_arm_cmpsf2.o)
__aeabi_d2iz                                      /home/leon/riotboard/arm-2012.09/bin/../lib/gcc/arm-none-eabi/4.7.2//libgcc.a(_arm_fixdfsi.o)
                                                  /home/leon/riotboard/arm-2012.09/bin/../arm-none-eabi/lib//libc.a(lib_a-dtoa.o)
__aeabi_dadd                                      /home/leon/riotboard/arm-2012.09/bin/../lib/gcc/arm-none-eabi/4.7.2//libgcc.a(_arm_addsubdf3.o)
                                                  /home/leon/riotboard/arm-2012.09/bin/../arm-none-eabi/lib//libc.a(lib_a-dtoa.o)
__aeabi_dcmpeq                                    /home/leon/riotboard/arm-2012.09/bin/../lib/gcc/arm-none-eabi/4.7.2//libgcc.a(_arm_cmpdf2.o)
                                                  /home/leon/riotboard/arm-2012.09/bin/../arm-none-eabi/lib//libc.a(lib_a-dtoa.o)
                                                  /home/leon/riotboard/arm-2012.09/bin/../arm-none-eabi/lib//libc.a(lib_a-vfprintf.o)
                                                  /home/leon/riotboard/arm-2012.09/bin/../arm-none-eabi/lib//libc.a(lib_a-svfprintf.o)
__aeabi_dcmpge                                    /home/leon/riotboard/arm-2012.09/bin/../lib/gcc/arm-none-eabi/4.7.2//libgcc.a(_arm_cmpdf2.o)
                                                  /home/leon/riotboard/arm-2012.09/bin/../arm-none-eabi/lib//libc.a(lib_a-dtoa.o)
__aeabi_dcmpgt                                    /home/leon/riotboard/arm-2012.09/bin/../lib/gcc/arm-none-eabi/4.7.2//libgcc.a(_arm_cmpdf2.o)
                                                  /home/leon/riotboard/arm-2012.09/bin/../arm-none-eabi/lib//libc.a(lib_a-dtoa.o)
__aeabi_dcmple                                    /home/leon/riotboard/arm-2012.09/bin/../lib/gcc/arm-none-eabi/4.7.2//libgcc.a(_arm_cmpdf2.o)
__aeabi_dcmplt                                    /home/leon/riotboard/arm-2012.09/bin/../lib/gcc/arm-none-eabi/4.7.2//libgcc.a(_arm_cmpdf2.o)
                                                  /home/leon/riotboard/arm-2012.09/bin/../arm-none-eabi/lib//libc.a(lib_a-dtoa.o)
                                                  /home/leon/riotboard/arm-2012.09/bin/../arm-none-eabi/lib//libc.a(lib_a-vfprintf.o)
                                                  /home/leon/riotboard/arm-2012.09/bin/../arm-none-eabi/lib//libc.a(lib_a-svfprintf.o)
__aeabi_ddiv                                      /home/leon/riotboard/arm-2012.09/bin/../lib/gcc/arm-none-eabi/4.7.2//libgcc.a(_arm_muldivdf3.o)
                                                  /home/leon/riotboard/arm-2012.09/bin/../arm-none-eabi/lib//libc.a(lib_a-mprec.o)
                                                  /home/leon/riotboard/arm-2012.09/bin/../arm-none-eabi/lib//libc.a(lib_a-dtoa.o)
__aeabi_dmul                                      /home/leon/riotboard/arm-2012.09/bin/../lib/gcc/arm-none-eabi/4.7.2//libgcc.a(_arm_muldivdf3.o)
                                                  /home/leon/riotboard/arm-2012.09/bin/../arm-none-eabi/lib//libc.a(lib_a-mprec.o)
                                                  /home/leon/riotboard/arm-2012.09/bin/../arm-none-eabi/lib//libc.a(lib_a-dtoa.o)
__aeabi_drsub                                     /home/leon/riotboard/arm-2012.09/bin/../lib/gcc/arm-none-eabi/4.7.2//libgcc.a(_arm_addsubdf3.o)
__aeabi_dsub                                      /home/leon/riotboard/arm-2012.09/bin/../lib/gcc/arm-none-eabi/4.7.2//libgcc.a(_arm_addsubdf3.o)
                                                  /home/leon/riotboard/arm-2012.09/bin/../arm-none-eabi/lib//libc.a(lib_a-dtoa.o)
__aeabi_f2d                                       /home/leon/riotboard/arm-2012.09/bin/../lib/gcc/arm-none-eabi/4.7.2//libgcc.a(_arm_addsubdf3.o)
__aeabi_f2iz                                      /home/leon/riotboard/arm-2012.09/bin/../lib/gcc/arm-none-eabi/4.7.2//libgcc.a(_arm_fixsfsi.o)
                                                  /home/leon/riotboard/arm-2012.09/bin/../arm-none-eabi/lib//libm.a(lib_a-kf_sin.o)
                                                  /home/leon/riotboard/arm-2012.09/bin/../arm-none-eabi/lib//libm.a(lib_a-kf_rem_pio2.o)
                                                  /home/leon/riotboard/arm-2012.09/bin/../arm-none-eabi/lib//libm.a(lib_a-kf_cos.o)
                                                  /home/leon/riotboard/arm-2012.09/bin/../arm-none-eabi/lib//libm.a(lib_a-ef_rem_pio2.o)
__aeabi_fadd                                      /home/leon/riotboard/arm-2012.09/bin/../lib/gcc/arm-none-eabi/4.7.2//libgcc.a(_arm_addsubsf3.o)
                                                  /home/leon/riotboard/arm-2012.09/bin/../arm-none-eabi/lib//libm.a(lib_a-sf_scalbn.o)
                                                  /home/leon/riotboard/arm-2012.09/bin/../arm-none-eabi/lib//libm.a(lib_a-sf_floor.o)
                                                  /home/leon/riotboard/arm-2012.09/bin/../arm-none-eabi/lib//libm.a(lib_a-kf_sin.o)
                                                  /home/leon/riotboard/arm-2012.09/bin/../arm-none-eabi/lib//libm.a(lib_a-kf_rem_pio2.o)
                                                  /home/leon/riotboard/arm-2012.09/bin/../arm-none-eabi/lib//libm.a(lib_a-kf_cos.o)
                                                  /home/leon/riotboard/arm-2012.09/bin/../arm-none-eabi/lib//libm.a(lib_a-ef_rem_pio2.o)
__aeabi_fcmpeq                                    /home/leon/riotboard/arm-2012.09/bin/../lib/gcc/arm-none-eabi/4.7.2//libgcc.a(_arm_cmpsf2.o)
                                                  /home/leon/riotboard/arm-2012.09/bin/../arm-none-eabi/lib//libm.a(lib_a-kf_rem_pio2.o)
                                                  /home/leon/riotboard/arm-2012.09/bin/../arm-none-eabi/lib//libm.a(lib_a-ef_rem_pio2.o)
__aeabi_fcmpge                                    /home/leon/riotboard/arm-2012.09/bin/../lib/gcc/arm-none-eabi/4.7.2//libgcc.a(_arm_cmpsf2.o)
                                                  /home/leon/riotboard/arm-2012.09/bin/../arm-none-eabi/lib//libm.a(lib_a-kf_rem_pio2.o)
__aeabi_fcmpgt                                    /home/leon/riotboard/arm-2012.09/bin/../lib/gcc/arm-none-eabi/4.7.2//libgcc.a(_arm_cmpsf2.o)
                                                  /home/leon/riotboard/arm-2012.09/bin/../arm-none-eabi/lib//libm.a(lib_a-sf_floor.o)
__aeabi_fcmple                                    /home/leon/riotboard/arm-2012.09/bin/../lib/gcc/arm-none-eabi/4.7.2//libgcc.a(_arm_cmpsf2.o)
__aeabi_fcmplt                                    /home/leon/riotboard/arm-2012.09/bin/../lib/gcc/arm-none-eabi/4.7.2//libgcc.a(_arm_cmpsf2.o)
__aeabi_fdiv                                      /home/leon/riotboard/arm-2012.09/bin/../lib/gcc/arm-none-eabi/4.7.2//libgcc.a(_arm_muldivsf3.o)
__aeabi_fmul                                      /home/leon/riotboard/arm-2012.09/bin/../lib/gcc/arm-none-eabi/4.7.2//libgcc.a(_arm_muldivsf3.o)
                                                  /home/leon/riotboard/arm-2012.09/bin/../arm-none-eabi/lib//libm.a(lib_a-sf_scalbn.o)
                                                  /home/leon/riotboard/arm-2012.09/bin/../arm-none-eabi/lib//libm.a(lib_a-kf_sin.o)
                                                  /home/leon/riotboard/arm-2012.09/bin/../arm-none-eabi/lib//libm.a(lib_a-kf_rem_pio2.o)
                                                  /home/leon/riotboard/arm-2012.09/bin/../arm-none-eabi/lib//libm.a(lib_a-kf_cos.o)
                                                  /home/leon/riotboard/arm-2012.09/bin/../arm-none-eabi/lib//libm.a(lib_a-ef_rem_pio2.o)
__aeabi_frsub                                     /home/leon/riotboard/arm-2012.09/bin/../lib/gcc/arm-none-eabi/4.7.2//libgcc.a(_arm_addsubsf3.o)
__aeabi_fsub                                      /home/leon/riotboard/arm-2012.09/bin/../lib/gcc/arm-none-eabi/4.7.2//libgcc.a(_arm_addsubsf3.o)
                                                  /home/leon/riotboard/arm-2012.09/bin/../arm-none-eabi/lib//libm.a(lib_a-kf_sin.o)
                                                  /home/leon/riotboard/arm-2012.09/bin/../arm-none-eabi/lib//libm.a(lib_a-kf_rem_pio2.o)
                                                  /home/leon/riotboard/arm-2012.09/bin/../arm-none-eabi/lib//libm.a(lib_a-kf_cos.o)
                                                  /home/leon/riotboard/arm-2012.09/bin/../arm-none-eabi/lib//libm.a(lib_a-ef_rem_pio2.o)
                                                  /home/leon/riotboard/arm-2012.09/bin/../arm-none-eabi/lib//libm.a(lib_a-sf_sin.o)
                                                  /home/leon/riotboard/arm-2012.09/bin/../arm-none-eabi/lib//libm.a(lib_a-sf_modf.o)
                                                  /home/leon/riotboard/arm-2012.09/bin/../arm-none-eabi/lib//libm.a(lib_a-sf_cos.o)
__aeabi_i2d                                       /home/leon/riotboard/arm-2012.09/bin/../lib/gcc/arm-none-eabi/4.7.2//libgcc.a(_arm_addsubdf3.o)
                                                  /home/leon/riotboard/arm-2012.09/bin/../arm-none-eabi/lib//libc.a(lib_a-dtoa.o)
__aeabi_i2f                                       /home/leon/riotboard/arm-2012.09/bin/../lib/gcc/arm-none-eabi/4.7.2//libgcc.a(_arm_addsubsf3.o)
                                                  /home/leon/riotboard/arm-2012.09/bin/../arm-none-eabi/lib//libm.a(lib_a-kf_rem_pio2.o)
                                                  /home/leon/riotboard/arm-2012.09/bin/../arm-none-eabi/lib//libm.a(lib_a-ef_rem_pio2.o)
__aeabi_idiv                                      /home/leon/riotboard/arm-2012.09/bin/../lib/gcc/arm-none-eabi/4.7.2//libgcc.a(_divsi3.o)
                                                  /home/leon/git/swp-report/iMX6_Platform_SDK/output/mx6dq/lib/libsdk.a(usdhc_host.o)
                                                  /home/leon/git/swp-report/iMX6_Platform_SDK/output/mx6dq/lib/libsdk.a(ipu_ic.o)
                                                  /home/leon/git/swp-report/iMX6_Platform_SDK/output/mx6dq/lib/libsdk.a(ipu_common.o)
__aeabi_idiv0                                     /home/leon/riotboard/arm-2012.09/bin/../lib/gcc/arm-none-eabi/4.7.2//libgcc.a(_dvmd_tls.o)
                                                  /home/leon/riotboard/arm-2012.09/bin/../lib/gcc/arm-none-eabi/4.7.2//libgcc.a(_divsi3.o)
                                                  /home/leon/riotboard/arm-2012.09/bin/../lib/gcc/arm-none-eabi/4.7.2//libgcc.a(_udivsi3.o)
__aeabi_idivmod                                   /home/leon/riotboard/arm-2012.09/bin/../lib/gcc/arm-none-eabi/4.7.2//libgcc.a(_divsi3.o)
                                                  /home/leon/git/swp-report/iMX6_Platform_SDK/output/mx6dq/lib/libsdk.a(usdhc_host.o)
                                                  /home/leon/git/swp-report/iMX6_Platform_SDK/output/mx6dq/lib/libsdk.a(ipu_common.o)
__aeabi_l2d                                       /home/leon/riotboard/arm-2012.09/bin/../lib/gcc/arm-none-eabi/4.7.2//libgcc.a(_arm_addsubdf3.o)
__aeabi_l2f                                       /home/leon/riotboard/arm-2012.09/bin/../lib/gcc/arm-none-eabi/4.7.2//libgcc.a(_arm_addsubsf3.o)
__aeabi_ldiv0                                     /home/leon/riotboard/arm-2012.09/bin/../lib/gcc/arm-none-eabi/4.7.2//libgcc.a(_dvmd_tls.o)
                                                  /home/leon/riotboard/arm-2012.09/bin/../lib/gcc/arm-none-eabi/4.7.2//libgcc.a(_aeabi_uldivmod.o)
__aeabi_ui2d                                      /home/leon/riotboard/arm-2012.09/bin/../lib/gcc/arm-none-eabi/4.7.2//libgcc.a(_arm_addsubdf3.o)
                                                  /home/leon/riotboard/arm-2012.09/bin/../arm-none-eabi/lib//libc.a(lib_a-dtoa.o)
__aeabi_ui2f                                      /home/leon/riotboard/arm-2012.09/bin/../lib/gcc/arm-none-eabi/4.7.2//libgcc.a(_arm_addsubsf3.o)
__aeabi_uidiv                                     /home/leon/riotboard/arm-2012.09/bin/../lib/gcc/arm-none-eabi/4.7.2//libgcc.a(_udivsi3.o)
                                                  /home/leon/riotboard/arm-2012.09/bin/../arm-none-eabi/lib//libc.a(lib_a-fwrite.o)
                                                  /home/leon/git/swp-report/iMX6_Platform_SDK/output/mx6dq/lib/libsdk.a(sata.o)
                                                  /home/leon/git/swp-report/iMX6_Platform_SDK/output/mx6dq/lib/libsdk.a(imx_i2c.o)
                                                  /home/leon/riotboard/arm-2012.09/bin/../lib/gcc/arm-none-eabi/4.7.2//libgcc.a(_udivdi3.o)
                                                  /home/leon/riotboard/arm-2012.09/bin/../lib/gcc/arm-none-eabi/4.7.2//libgcc.a(_divdi3.o)
                                                  /home/leon/riotboard/arm-2012.09/bin/../arm-none-eabi/lib//libc.a(lib_a-dtoa.o)
                                                  /home/leon/git/swp-report/iMX6_Platform_SDK/output/mx6dq/sdk_unit_test/smart_device_rev_a/libsdk_unit_test.a(ips_resize.o)
                                                  /home/leon/git/swp-report/iMX6_Platform_SDK/output/mx6dq/sdk_unit_test/smart_device_rev_a/libsdk_unit_test.a(gpt_test.o)
                                                  /home/leon/git/swp-report/iMX6_Platform_SDK/output/mx6dq/lib/libsdk.a(ccm_pll.o)
__aeabi_uidivmod                                  /home/leon/riotboard/arm-2012.09/bin/../lib/gcc/arm-none-eabi/4.7.2//libgcc.a(_udivsi3.o)
                                                  /home/leon/git/swp-report/iMX6_Platform_SDK/output/mx6dq/lib/libsdk.a(sata.o)
                                                  /home/leon/riotboard/arm-2012.09/bin/../lib/gcc/arm-none-eabi/4.7.2//libgcc.a(_udivdi3.o)
                                                  /home/leon/riotboard/arm-2012.09/bin/../lib/gcc/arm-none-eabi/4.7.2//libgcc.a(_divdi3.o)
__aeabi_ul2d                                      /home/leon/riotboard/arm-2012.09/bin/../lib/gcc/arm-none-eabi/4.7.2//libgcc.a(_arm_addsubdf3.o)
__aeabi_ul2f                                      /home/leon/riotboard/arm-2012.09/bin/../lib/gcc/arm-none-eabi/4.7.2//libgcc.a(_arm_addsubsf3.o)
__aeabi_uldivmod                                  /home/leon/riotboard/arm-2012.09/bin/../lib/gcc/arm-none-eabi/4.7.2//libgcc.a(_aeabi_uldivmod.o)
                                                  /home/leon/git/swp-report/iMX6_Platform_SDK/output/mx6dq/lib/libsdk.a(runtime_support.o)
                                                  /home/leon/riotboard/arm-2012.09/bin/../arm-none-eabi/lib//libc.a(lib_a-svfiprintf.o)
                                                  /home/leon/riotboard/arm-2012.09/bin/../arm-none-eabi/lib//libc.a(lib_a-vfprintf.o)
                                                  /home/leon/riotboard/arm-2012.09/bin/../arm-none-eabi/lib//libc.a(lib_a-vfiprintf.o)
                                                  /home/leon/riotboard/arm-2012.09/bin/../arm-none-eabi/lib//libc.a(lib_a-svfprintf.o)
                                                  /home/leon/git/swp-report/iMX6_Platform_SDK/output/mx6dq/lib/libsdk.a(timer.o)
__aeabi_unwind_cpp_pr0                            /home/leon/riotboard/arm-2012.09/bin/../lib/gcc/arm-none-eabi/4.7.2//libgcc.a(unwind-arm.o)
                                                  /home/leon/riotboard/arm-2012.09/bin/../lib/gcc/arm-none-eabi/4.7.2//libgcc.a(pr-support.o)
                                                  /home/leon/riotboard/arm-2012.09/bin/../arm-none-eabi/lib//libstdc++.a(class_type_info.o)
                                                  /home/leon/riotboard/arm-2012.09/bin/../arm-none-eabi/lib//libstdc++.a(eh_personality.o)
                                                  /home/leon/riotboard/arm-2012.09/bin/../arm-none-eabi/lib//libstdc++.a(si_class_type_info.o)
                                                  /home/leon/riotboard/arm-2012.09/bin/../arm-none-eabi/lib//libstdc++.a(eh_arm.o)
                                                  /home/leon/riotboard/arm-2012.09/bin/../arm-none-eabi/lib//libstdc++.a(eh_throw.o)
__aeabi_unwind_cpp_pr1                            /home/leon/riotboard/arm-2012.09/bin/../lib/gcc/arm-none-eabi/4.7.2//libgcc.a(unwind-arm.o)
                                                  /home/leon/riotboard/arm-2012.09/bin/../lib/gcc/arm-none-eabi/4.7.2//libgcc.a(pr-support.o)
                                                  /home/leon/riotboard/arm-2012.09/bin/../arm-none-eabi/lib//libstdc++.a(eh_catch.o)
                                                  /home/leon/riotboard/arm-2012.09/bin/../arm-none-eabi/lib//libstdc++.a(eh_personality.o)
                                                  /home/leon/riotboard/arm-2012.09/bin/../arm-none-eabi/lib//libstdc++.a(eh_terminate.o)
                                                  /home/leon/riotboard/arm-2012.09/bin/../arm-none-eabi/lib//libstdc++.a(pure.o)
__aeabi_unwind_cpp_pr2                            /home/leon/riotboard/arm-2012.09/bin/../lib/gcc/arm-none-eabi/4.7.2//libgcc.a(unwind-arm.o)
__any_on                                          /home/leon/riotboard/arm-2012.09/bin/../arm-none-eabi/lib//libc.a(lib_a-mprec.o)
__ascii_wctomb                                    /home/leon/riotboard/arm-2012.09/bin/../arm-none-eabi/lib//libc.a(lib_a-wctomb_r.o)
__assert                                          /home/leon/riotboard/arm-2012.09/bin/../arm-none-eabi/lib//libc.a(lib_a-assert.o)
__assert_func                                     /home/leon/riotboard/arm-2012.09/bin/../arm-none-eabi/lib//libc.a(lib_a-assert.o)
                                                  /home/leon/git/swp-report/iMX6_Platform_SDK/output/mx6dq/lib/libboard_smart_device_rev_a.a(usdhc_iomux_config.o)
                                                  /home/leon/git/swp-report/iMX6_Platform_SDK/output/mx6dq/lib/libboard_smart_device_rev_a.a(pwm_iomux_config.o)
                                                  /home/leon/git/swp-report/iMX6_Platform_SDK/output/mx6dq/lib/libboard_smart_device_rev_a.a(i2c_iomux_config.o)
                                                  /home/leon/git/swp-report/iMX6_Platform_SDK/output/mx6dq/lib/libboard_smart_device_rev_a.a(ecspi_iomux_config.o)
                                                  /home/leon/git/swp-report/iMX6_Platform_SDK/output/mx6dq/lib/libsdk.a(cpu_multicore.o)
                                                  /home/leon/git/swp-report/iMX6_Platform_SDK/output/mx6dq/lib/libboard_smart_device_rev_a.a(uart_iomux_config.o)
                                                  /home/leon/git/swp-report/iMX6_Platform_SDK/output/mx6dq/lib/libsdk.a(gic.o)
__b2d                                             /home/leon/riotboard/arm-2012.09/bin/../arm-none-eabi/lib//libc.a(lib_a-mprec.o)
__bss_end__                                       /home/leon/git/swp-report/iMX6_Platform_SDK/output/mx6dq/lib/libsdk.a(startup.o)
__bss_start__                                     /home/leon/git/swp-report/iMX6_Platform_SDK/output/mx6dq/lib/libsdk.a(startup.o)
__clzsi2                                          /home/leon/riotboard/arm-2012.09/bin/../lib/gcc/arm-none-eabi/4.7.2//libgcc.a(_clzsi2.o)
                                                  /home/leon/riotboard/arm-2012.09/bin/../lib/gcc/arm-none-eabi/4.7.2//libgcc.a(_udivdi3.o)
                                                  /home/leon/riotboard/arm-2012.09/bin/../lib/gcc/arm-none-eabi/4.7.2//libgcc.a(_divdi3.o)
__cmpdf2                                          /home/leon/riotboard/arm-2012.09/bin/../lib/gcc/arm-none-eabi/4.7.2//libgcc.a(_arm_cmpdf2.o)
__cmpsf2                                          /home/leon/riotboard/arm-2012.09/bin/../lib/gcc/arm-none-eabi/4.7.2//libgcc.a(_arm_cmpsf2.o)
__copybits                                        /home/leon/riotboard/arm-2012.09/bin/../arm-none-eabi/lib//libc.a(lib_a-mprec.o)
__ctype_ptr__                                     /home/leon/riotboard/arm-2012.09/bin/../arm-none-eabi/lib//libc.a(lib_a-ctype_.o)
                                                  /home/leon/riotboard/arm-2012.09/bin/../arm-none-eabi/lib//libc.a(lib_a-strncasecmp.o)
__cxa_allocate_dependent_exception                /home/leon/riotboard/arm-2012.09/bin/../arm-none-eabi/lib//libstdc++.a(eh_alloc.o)
__cxa_allocate_exception                          /home/leon/riotboard/arm-2012.09/bin/../arm-none-eabi/lib//libstdc++.a(eh_alloc.o)
                                                  /home/leon/riotboard/arm-2012.09/bin/../arm-none-eabi/lib//libstdc++.a(eh_call.o)
__cxa_begin_catch                                 /home/leon/riotboard/arm-2012.09/bin/../arm-none-eabi/lib//libstdc++.a(eh_catch.o)
                                                  /home/leon/riotboard/arm-2012.09/bin/../arm-none-eabi/lib//libstdc++.a(vterminate.o)
                                                  /home/leon/riotboard/arm-2012.09/bin/../arm-none-eabi/lib//libstdc++.a(eh_personality.o)
                                                  /home/leon/riotboard/arm-2012.09/bin/../arm-none-eabi/lib//libstdc++.a(eh_throw.o)
                                                  /home/leon/riotboard/arm-2012.09/bin/../arm-none-eabi/lib//libstdc++.a(eh_call.o)
                                                  /home/leon/riotboard/arm-2012.09/bin/../arm-none-eabi/lib//libstdc++.a(eh_terminate.o)
__cxa_begin_cleanup                               /home/leon/riotboard/arm-2012.09/bin/../arm-none-eabi/lib//libstdc++.a(eh_arm.o)
                                                  /home/leon/riotboard/arm-2012.09/bin/../lib/gcc/arm-none-eabi/4.7.2//libgcc.a(unwind-arm.o)
                                                  /home/leon/riotboard/arm-2012.09/bin/../arm-none-eabi/lib//libstdc++.a(eh_personality.o)
__cxa_call_terminate                              /home/leon/riotboard/arm-2012.09/bin/../arm-none-eabi/lib//libstdc++.a(eh_call.o)
                                                  /home/leon/riotboard/arm-2012.09/bin/../arm-none-eabi/lib//libstdc++.a(eh_personality.o)
__cxa_call_unexpected                             /home/leon/riotboard/arm-2012.09/bin/../arm-none-eabi/lib//libstdc++.a(eh_call.o)
                                                  /home/leon/riotboard/arm-2012.09/bin/../lib/gcc/arm-none-eabi/4.7.2//libgcc.a(unwind-arm.o)
                                                  /home/leon/riotboard/arm-2012.09/bin/../arm-none-eabi/lib//libstdc++.a(eh_catch.o)
                                                  /home/leon/riotboard/arm-2012.09/bin/../arm-none-eabi/lib//libstdc++.a(eh_terminate.o)
__cxa_current_exception_type                      /home/leon/riotboard/arm-2012.09/bin/../arm-none-eabi/lib//libstdc++.a(eh_type.o)
                                                  /home/leon/riotboard/arm-2012.09/bin/../arm-none-eabi/lib//libstdc++.a(vterminate.o)
__cxa_deleted_virtual                             /home/leon/riotboard/arm-2012.09/bin/../arm-none-eabi/lib//libstdc++.a(pure.o)
__cxa_demangle                                    /home/leon/riotboard/arm-2012.09/bin/../arm-none-eabi/lib//libstdc++.a(cp-demangle.o)
                                                  /home/leon/riotboard/arm-2012.09/bin/../arm-none-eabi/lib//libstdc++.a(vterminate.o)
__cxa_end_catch                                   /home/leon/riotboard/arm-2012.09/bin/../arm-none-eabi/lib//libstdc++.a(eh_catch.o)
                                                  /home/leon/riotboard/arm-2012.09/bin/../arm-none-eabi/lib//libstdc++.a(vterminate.o)
                                                  /home/leon/riotboard/arm-2012.09/bin/../arm-none-eabi/lib//libstdc++.a(eh_call.o)
                                                  /home/leon/riotboard/arm-2012.09/bin/../arm-none-eabi/lib//libstdc++.a(eh_terminate.o)
__cxa_end_cleanup                                 /home/leon/riotboard/arm-2012.09/bin/../arm-none-eabi/lib//libstdc++.a(eh_arm.o)
                                                  /home/leon/riotboard/arm-2012.09/bin/../arm-none-eabi/lib//libstdc++.a(vterminate.o)
                                                  /home/leon/riotboard/arm-2012.09/bin/../arm-none-eabi/lib//libstdc++.a(eh_catch.o)
                                                  /home/leon/riotboard/arm-2012.09/bin/../arm-none-eabi/lib//libstdc++.a(eh_call.o)
                                                  /home/leon/riotboard/arm-2012.09/bin/../arm-none-eabi/lib//libstdc++.a(eh_terminate.o)
__cxa_free_dependent_exception                    /home/leon/riotboard/arm-2012.09/bin/../arm-none-eabi/lib//libstdc++.a(eh_alloc.o)
__cxa_free_exception                              /home/leon/riotboard/arm-2012.09/bin/../arm-none-eabi/lib//libstdc++.a(eh_alloc.o)
                                                  /home/leon/riotboard/arm-2012.09/bin/../arm-none-eabi/lib//libstdc++.a(eh_throw.o)
__cxa_get_exception_ptr                           /home/leon/riotboard/arm-2012.09/bin/../arm-none-eabi/lib//libstdc++.a(eh_catch.o)
__cxa_get_globals                                 /home/leon/riotboard/arm-2012.09/bin/../arm-none-eabi/lib//libstdc++.a(eh_globals.o)
                                                  /home/leon/riotboard/arm-2012.09/bin/../arm-none-eabi/lib//libstdc++.a(eh_type.o)
                                                  /home/leon/riotboard/arm-2012.09/bin/../arm-none-eabi/lib//libstdc++.a(eh_catch.o)
                                                  /home/leon/riotboard/arm-2012.09/bin/../arm-none-eabi/lib//libstdc++.a(eh_alloc.o)
                                                  /home/leon/riotboard/arm-2012.09/bin/../arm-none-eabi/lib//libstdc++.a(eh_arm.o)
                                                  /home/leon/riotboard/arm-2012.09/bin/../arm-none-eabi/lib//libstdc++.a(eh_throw.o)
__cxa_get_globals_fast                            /home/leon/riotboard/arm-2012.09/bin/../arm-none-eabi/lib//libstdc++.a(eh_globals.o)
                                                  /home/leon/riotboard/arm-2012.09/bin/../arm-none-eabi/lib//libstdc++.a(eh_catch.o)
                                                  /home/leon/riotboard/arm-2012.09/bin/../arm-none-eabi/lib//libstdc++.a(eh_call.o)
__cxa_pure_virtual                                /home/leon/riotboard/arm-2012.09/bin/../arm-none-eabi/lib//libstdc++.a(pure.o)
                                                  /home/leon/riotboard/arm-2012.09/bin/../arm-none-eabi/lib//libstdc++.a(eh_exception.o)
                                                  /home/leon/git/swp-report/iMX6_Platform_SDK/output/mx6dq/lib/libsdk.a(pmu_driver.o)
__cxa_rethrow                                     /home/leon/riotboard/arm-2012.09/bin/../arm-none-eabi/lib//libstdc++.a(eh_throw.o)
                                                  /home/leon/riotboard/arm-2012.09/bin/../arm-none-eabi/lib//libstdc++.a(vterminate.o)
                                                  /home/leon/riotboard/arm-2012.09/bin/../arm-none-eabi/lib//libstdc++.a(eh_call.o)
__cxa_throw                                       /home/leon/riotboard/arm-2012.09/bin/../arm-none-eabi/lib//libstdc++.a(eh_throw.o)
                                                  /home/leon/riotboard/arm-2012.09/bin/../arm-none-eabi/lib//libstdc++.a(eh_call.o)
__cxa_type_match                                  /home/leon/riotboard/arm-2012.09/bin/../arm-none-eabi/lib//libstdc++.a(eh_arm.o)
                                                  /home/leon/riotboard/arm-2012.09/bin/../lib/gcc/arm-none-eabi/4.7.2//libgcc.a(unwind-arm.o)
                                                  /home/leon/riotboard/arm-2012.09/bin/../arm-none-eabi/lib//libstdc++.a(eh_personality.o)
                                                  /home/leon/riotboard/arm-2012.09/bin/../arm-none-eabi/lib//libstdc++.a(eh_call.o)
__cxxabiv1::__class_type_info::__do_catch(std::type_info const*, void**, unsigned int) const /home/leon/riotboard/arm-2012.09/bin/../arm-none-eabi/lib//libstdc++.a(class_type_info.o)
                                                  /home/leon/riotboard/arm-2012.09/bin/../arm-none-eabi/lib//libstdc++.a(si_class_type_info.o)
__cxxabiv1::__class_type_info::__do_dyncast(int, __cxxabiv1::__class_type_info::__sub_kind, __cxxabiv1::__class_type_info const*, void const*, __cxxabiv1::__class_type_info const*, void const*, __cxxabiv1::__class_type_info::__dyncast_result&) const /home/leon/riotboard/arm-2012.09/bin/../arm-none-eabi/lib//libstdc++.a(class_type_info.o)
__cxxabiv1::__class_type_info::__do_find_public_src(int, void const*, __cxxabiv1::__class_type_info const*, void const*) const /home/leon/riotboard/arm-2012.09/bin/../arm-none-eabi/lib//libstdc++.a(class_type_info.o)
__cxxabiv1::__class_type_info::__do_upcast(__cxxabiv1::__class_type_info const*, void const*, __cxxabiv1::__class_type_info::__upcast_result&) const /home/leon/riotboard/arm-2012.09/bin/../arm-none-eabi/lib//libstdc++.a(class_type_info.o)
                                                  /home/leon/riotboard/arm-2012.09/bin/../arm-none-eabi/lib//libstdc++.a(si_class_type_info.o)
__cxxabiv1::__class_type_info::__do_upcast(__cxxabiv1::__class_type_info const*, void**) const /home/leon/riotboard/arm-2012.09/bin/../arm-none-eabi/lib//libstdc++.a(class_type_info.o)
                                                  /home/leon/riotboard/arm-2012.09/bin/../arm-none-eabi/lib//libstdc++.a(si_class_type_info.o)
__cxxabiv1::__class_type_info::~__class_type_info() /home/leon/riotboard/arm-2012.09/bin/../arm-none-eabi/lib//libstdc++.a(class_type_info.o)
__cxxabiv1::__class_type_info::~__class_type_info() /home/leon/riotboard/arm-2012.09/bin/../arm-none-eabi/lib//libstdc++.a(class_type_info.o)
                                                  /home/leon/riotboard/arm-2012.09/bin/../arm-none-eabi/lib//libstdc++.a(si_class_type_info.o)
__cxxabiv1::__class_type_info::~__class_type_info() /home/leon/riotboard/arm-2012.09/bin/../arm-none-eabi/lib//libstdc++.a(class_type_info.o)
__cxxabiv1::__forced_unwind::~__forced_unwind()   /home/leon/riotboard/arm-2012.09/bin/../arm-none-eabi/lib//libstdc++.a(eh_exception.o)
__cxxabiv1::__forced_unwind::~__forced_unwind()   /home/leon/riotboard/arm-2012.09/bin/../arm-none-eabi/lib//libstdc++.a(eh_exception.o)
__cxxabiv1::__forced_unwind::~__forced_unwind()   /home/leon/riotboard/arm-2012.09/bin/../arm-none-eabi/lib//libstdc++.a(eh_exception.o)
__cxxabiv1::__foreign_exception::~__foreign_exception() /home/leon/riotboard/arm-2012.09/bin/../arm-none-eabi/lib//libstdc++.a(eh_exception.o)
__cxxabiv1::__foreign_exception::~__foreign_exception() /home/leon/riotboard/arm-2012.09/bin/../arm-none-eabi/lib//libstdc++.a(eh_exception.o)
__cxxabiv1::__foreign_exception::~__foreign_exception() /home/leon/riotboard/arm-2012.09/bin/../arm-none-eabi/lib//libstdc++.a(eh_exception.o)
__cxxabiv1::__si_class_type_info::__do_dyncast(int, __cxxabiv1::__class_type_info::__sub_kind, __cxxabiv1::__class_type_info const*, void const*, __cxxabiv1::__class_type_info const*, void const*, __cxxabiv1::__class_type_info::__dyncast_result&) const /home/leon/riotboard/arm-2012.09/bin/../arm-none-eabi/lib//libstdc++.a(si_class_type_info.o)
__cxxabiv1::__si_class_type_info::__do_find_public_src(int, void const*, __cxxabiv1::__class_type_info const*, void const*) const /home/leon/riotboard/arm-2012.09/bin/../arm-none-eabi/lib//libstdc++.a(si_class_type_info.o)
__cxxabiv1::__si_class_type_info::__do_upcast(__cxxabiv1::__class_type_info const*, void const*, __cxxabiv1::__class_type_info::__upcast_result&) const /home/leon/riotboard/arm-2012.09/bin/../arm-none-eabi/lib//libstdc++.a(si_class_type_info.o)
__cxxabiv1::__si_class_type_info::~__si_class_type_info() /home/leon/riotboard/arm-2012.09/bin/../arm-none-eabi/lib//libstdc++.a(si_class_type_info.o)
__cxxabiv1::__si_class_type_info::~__si_class_type_info() /home/leon/riotboard/arm-2012.09/bin/../arm-none-eabi/lib//libstdc++.a(si_class_type_info.o)
__cxxabiv1::__si_class_type_info::~__si_class_type_info() /home/leon/riotboard/arm-2012.09/bin/../arm-none-eabi/lib//libstdc++.a(si_class_type_info.o)
__cxxabiv1::__terminate(void (*)())               /home/leon/riotboard/arm-2012.09/bin/../arm-none-eabi/lib//libstdc++.a(eh_terminate.o)
                                                  /home/leon/riotboard/arm-2012.09/bin/../arm-none-eabi/lib//libstdc++.a(eh_throw.o)
                                                  /home/leon/riotboard/arm-2012.09/bin/../arm-none-eabi/lib//libstdc++.a(eh_call.o)
__cxxabiv1::__terminate_handler                   /home/leon/riotboard/arm-2012.09/bin/../arm-none-eabi/lib//libstdc++.a(eh_term_handler.o)
                                                  /home/leon/riotboard/arm-2012.09/bin/../arm-none-eabi/lib//libstdc++.a(eh_throw.o)
                                                  /home/leon/riotboard/arm-2012.09/bin/../arm-none-eabi/lib//libstdc++.a(eh_terminate.o)
__cxxabiv1::__unexpected(void (*)())              /home/leon/riotboard/arm-2012.09/bin/../arm-none-eabi/lib//libstdc++.a(eh_terminate.o)
                                                  /home/leon/riotboard/arm-2012.09/bin/../arm-none-eabi/lib//libstdc++.a(eh_call.o)
__cxxabiv1::__unexpected_handler                  /home/leon/riotboard/arm-2012.09/bin/../arm-none-eabi/lib//libstdc++.a(eh_unex_handler.o)
                                                  /home/leon/riotboard/arm-2012.09/bin/../arm-none-eabi/lib//libstdc++.a(eh_throw.o)
                                                  /home/leon/riotboard/arm-2012.09/bin/../arm-none-eabi/lib//libstdc++.a(eh_terminate.o)
__d2b                                             /home/leon/riotboard/arm-2012.09/bin/../arm-none-eabi/lib//libc.a(lib_a-mprec.o)
                                                  /home/leon/riotboard/arm-2012.09/bin/../arm-none-eabi/lib//libc.a(lib_a-dtoa.o)
__deregister_frame_info                           /home/leon/riotboard/arm-2012.09/bin/../lib/gcc/arm-none-eabi/4.7.2//crtbegin.o
__divdf3                                          /home/leon/riotboard/arm-2012.09/bin/../lib/gcc/arm-none-eabi/4.7.2//libgcc.a(_arm_muldivdf3.o)
__divdi3                                          /home/leon/riotboard/arm-2012.09/bin/../lib/gcc/arm-none-eabi/4.7.2//libgcc.a(_divdi3.o)
                                                  /home/leon/riotboard/arm-2012.09/bin/../lib/gcc/arm-none-eabi/4.7.2//libgcc.a(bpabi.o)
__divsf3                                          /home/leon/riotboard/arm-2012.09/bin/../lib/gcc/arm-none-eabi/4.7.2//libgcc.a(_arm_muldivsf3.o)
__divsi3                                          /home/leon/riotboard/arm-2012.09/bin/../lib/gcc/arm-none-eabi/4.7.2//libgcc.a(_divsi3.o)
__dso_handle                                      /home/leon/riotboard/arm-2012.09/bin/../lib/gcc/arm-none-eabi/4.7.2//crtbegin.o
__env                                             /home/leon/git/swp-report/iMX6_Platform_SDK/output/mx6dq/lib/libsdk.a(runtime_support.o)
__eqdf2                                           /home/leon/riotboard/arm-2012.09/bin/../lib/gcc/arm-none-eabi/4.7.2//libgcc.a(_arm_cmpdf2.o)
__eqsf2                                           /home/leon/riotboard/arm-2012.09/bin/../lib/gcc/arm-none-eabi/4.7.2//libgcc.a(_arm_cmpsf2.o)
__exidx_end                                       /home/leon/riotboard/arm-2012.09/bin/../lib/gcc/arm-none-eabi/4.7.2//libgcc.a(unwind-arm.o)
__exidx_start                                     /home/leon/riotboard/arm-2012.09/bin/../lib/gcc/arm-none-eabi/4.7.2//libgcc.a(unwind-arm.o)
__extendsfdf2                                     /home/leon/riotboard/arm-2012.09/bin/../lib/gcc/arm-none-eabi/4.7.2//libgcc.a(_arm_addsubdf3.o)
__fixdfsi                                         /home/leon/riotboard/arm-2012.09/bin/../lib/gcc/arm-none-eabi/4.7.2//libgcc.a(_arm_fixdfsi.o)
__fixsfsi                                         /home/leon/riotboard/arm-2012.09/bin/../lib/gcc/arm-none-eabi/4.7.2//libgcc.a(_arm_fixsfsi.o)
__floatdidf                                       /home/leon/riotboard/arm-2012.09/bin/../lib/gcc/arm-none-eabi/4.7.2//libgcc.a(_arm_addsubdf3.o)
__floatdisf                                       /home/leon/riotboard/arm-2012.09/bin/../lib/gcc/arm-none-eabi/4.7.2//libgcc.a(_arm_addsubsf3.o)
__floatsidf                                       /home/leon/riotboard/arm-2012.09/bin/../lib/gcc/arm-none-eabi/4.7.2//libgcc.a(_arm_addsubdf3.o)
__floatsisf                                       /home/leon/riotboard/arm-2012.09/bin/../lib/gcc/arm-none-eabi/4.7.2//libgcc.a(_arm_addsubsf3.o)
__floatundidf                                     /home/leon/riotboard/arm-2012.09/bin/../lib/gcc/arm-none-eabi/4.7.2//libgcc.a(_arm_addsubdf3.o)
__floatundisf                                     /home/leon/riotboard/arm-2012.09/bin/../lib/gcc/arm-none-eabi/4.7.2//libgcc.a(_arm_addsubsf3.o)
__floatunsidf                                     /home/leon/riotboard/arm-2012.09/bin/../lib/gcc/arm-none-eabi/4.7.2//libgcc.a(_arm_addsubdf3.o)
__floatunsisf                                     /home/leon/riotboard/arm-2012.09/bin/../lib/gcc/arm-none-eabi/4.7.2//libgcc.a(_arm_addsubsf3.o)
__fp_lock_all                                     /home/leon/riotboard/arm-2012.09/bin/../arm-none-eabi/lib//libc.a(lib_a-findfp.o)
__fp_unlock_all                                   /home/leon/riotboard/arm-2012.09/bin/../arm-none-eabi/lib//libc.a(lib_a-findfp.o)
__fpclassifyd                                     /home/leon/riotboard/arm-2012.09/bin/../arm-none-eabi/lib//libc.a(lib_a-s_fpclassify.o)
                                                  /home/leon/riotboard/arm-2012.09/bin/../arm-none-eabi/lib//libc.a(lib_a-vfprintf.o)
                                                  /home/leon/riotboard/arm-2012.09/bin/../arm-none-eabi/lib//libc.a(lib_a-svfprintf.o)
__gcclibcxx_demangle_callback                     /home/leon/riotboard/arm-2012.09/bin/../arm-none-eabi/lib//libstdc++.a(cp-demangle.o)
__gedf2                                           /home/leon/riotboard/arm-2012.09/bin/../lib/gcc/arm-none-eabi/4.7.2//libgcc.a(_arm_cmpdf2.o)
__gesf2                                           /home/leon/riotboard/arm-2012.09/bin/../lib/gcc/arm-none-eabi/4.7.2//libgcc.a(_arm_cmpsf2.o)
__gnu_Unwind_Backtrace                            /home/leon/riotboard/arm-2012.09/bin/../lib/gcc/arm-none-eabi/4.7.2//libgcc.a(unwind-arm.o)
                                                  /home/leon/riotboard/arm-2012.09/bin/../lib/gcc/arm-none-eabi/4.7.2//libgcc.a(libunwind.o)
__gnu_Unwind_Find_exidx                           /home/leon/riotboard/arm-2012.09/bin/../lib/gcc/arm-none-eabi/4.7.2//libgcc.a(unwind-arm.o)
__gnu_Unwind_ForcedUnwind                         /home/leon/riotboard/arm-2012.09/bin/../lib/gcc/arm-none-eabi/4.7.2//libgcc.a(unwind-arm.o)
                                                  /home/leon/riotboard/arm-2012.09/bin/../lib/gcc/arm-none-eabi/4.7.2//libgcc.a(libunwind.o)
__gnu_Unwind_RaiseException                       /home/leon/riotboard/arm-2012.09/bin/../lib/gcc/arm-none-eabi/4.7.2//libgcc.a(unwind-arm.o)
                                                  /home/leon/riotboard/arm-2012.09/bin/../lib/gcc/arm-none-eabi/4.7.2//libgcc.a(libunwind.o)
__gnu_Unwind_Restore_VFP                          /home/leon/riotboard/arm-2012.09/bin/../lib/gcc/arm-none-eabi/4.7.2//libgcc.a(libunwind.o)
                                                  /home/leon/riotboard/arm-2012.09/bin/../lib/gcc/arm-none-eabi/4.7.2//libgcc.a(unwind-arm.o)
__gnu_Unwind_Restore_VFP_D                        /home/leon/riotboard/arm-2012.09/bin/../lib/gcc/arm-none-eabi/4.7.2//libgcc.a(libunwind.o)
                                                  /home/leon/riotboard/arm-2012.09/bin/../lib/gcc/arm-none-eabi/4.7.2//libgcc.a(unwind-arm.o)
__gnu_Unwind_Restore_VFP_D_16_to_31               /home/leon/riotboard/arm-2012.09/bin/../lib/gcc/arm-none-eabi/4.7.2//libgcc.a(libunwind.o)
                                                  /home/leon/riotboard/arm-2012.09/bin/../lib/gcc/arm-none-eabi/4.7.2//libgcc.a(unwind-arm.o)
__gnu_Unwind_Restore_WMMXC                        /home/leon/riotboard/arm-2012.09/bin/../lib/gcc/arm-none-eabi/4.7.2//libgcc.a(libunwind.o)
                                                  /home/leon/riotboard/arm-2012.09/bin/../lib/gcc/arm-none-eabi/4.7.2//libgcc.a(unwind-arm.o)
__gnu_Unwind_Restore_WMMXD                        /home/leon/riotboard/arm-2012.09/bin/../lib/gcc/arm-none-eabi/4.7.2//libgcc.a(libunwind.o)
                                                  /home/leon/riotboard/arm-2012.09/bin/../lib/gcc/arm-none-eabi/4.7.2//libgcc.a(unwind-arm.o)
__gnu_Unwind_Resume                               /home/leon/riotboard/arm-2012.09/bin/../lib/gcc/arm-none-eabi/4.7.2//libgcc.a(unwind-arm.o)
                                                  /home/leon/riotboard/arm-2012.09/bin/../lib/gcc/arm-none-eabi/4.7.2//libgcc.a(libunwind.o)
__gnu_Unwind_Resume_or_Rethrow                    /home/leon/riotboard/arm-2012.09/bin/../lib/gcc/arm-none-eabi/4.7.2//libgcc.a(unwind-arm.o)
                                                  /home/leon/riotboard/arm-2012.09/bin/../lib/gcc/arm-none-eabi/4.7.2//libgcc.a(libunwind.o)
__gnu_Unwind_Save_VFP                             /home/leon/riotboard/arm-2012.09/bin/../lib/gcc/arm-none-eabi/4.7.2//libgcc.a(libunwind.o)
                                                  /home/leon/riotboard/arm-2012.09/bin/../lib/gcc/arm-none-eabi/4.7.2//libgcc.a(unwind-arm.o)
__gnu_Unwind_Save_VFP_D                           /home/leon/riotboard/arm-2012.09/bin/../lib/gcc/arm-none-eabi/4.7.2//libgcc.a(libunwind.o)
                                                  /home/leon/riotboard/arm-2012.09/bin/../lib/gcc/arm-none-eabi/4.7.2//libgcc.a(unwind-arm.o)
__gnu_Unwind_Save_VFP_D_16_to_31                  /home/leon/riotboard/arm-2012.09/bin/../lib/gcc/arm-none-eabi/4.7.2//libgcc.a(libunwind.o)
                                                  /home/leon/riotboard/arm-2012.09/bin/../lib/gcc/arm-none-eabi/4.7.2//libgcc.a(unwind-arm.o)
__gnu_Unwind_Save_WMMXC                           /home/leon/riotboard/arm-2012.09/bin/../lib/gcc/arm-none-eabi/4.7.2//libgcc.a(libunwind.o)
                                                  /home/leon/riotboard/arm-2012.09/bin/../lib/gcc/arm-none-eabi/4.7.2//libgcc.a(unwind-arm.o)
__gnu_Unwind_Save_WMMXD                           /home/leon/riotboard/arm-2012.09/bin/../lib/gcc/arm-none-eabi/4.7.2//libgcc.a(libunwind.o)
                                                  /home/leon/riotboard/arm-2012.09/bin/../lib/gcc/arm-none-eabi/4.7.2//libgcc.a(unwind-arm.o)
__gnu_cxx::__verbose_terminate_handler()          /home/leon/riotboard/arm-2012.09/bin/../arm-none-eabi/lib//libstdc++.a(vterminate.o)
                                                  /home/leon/riotboard/arm-2012.09/bin/../arm-none-eabi/lib//libstdc++.a(eh_term_handler.o)
__gnu_end_cleanup                                 /home/leon/riotboard/arm-2012.09/bin/../arm-none-eabi/lib//libstdc++.a(eh_arm.o)
__gnu_ldivmod_helper                              /home/leon/riotboard/arm-2012.09/bin/../lib/gcc/arm-none-eabi/4.7.2//libgcc.a(bpabi.o)
__gnu_uldivmod_helper                             /home/leon/riotboard/arm-2012.09/bin/../lib/gcc/arm-none-eabi/4.7.2//libgcc.a(bpabi.o)
                                                  /home/leon/riotboard/arm-2012.09/bin/../lib/gcc/arm-none-eabi/4.7.2//libgcc.a(_aeabi_uldivmod.o)
__gnu_unwind_execute                              /home/leon/riotboard/arm-2012.09/bin/../lib/gcc/arm-none-eabi/4.7.2//libgcc.a(pr-support.o)
                                                  /home/leon/riotboard/arm-2012.09/bin/../lib/gcc/arm-none-eabi/4.7.2//libgcc.a(unwind-arm.o)
__gnu_unwind_frame                                /home/leon/riotboard/arm-2012.09/bin/../lib/gcc/arm-none-eabi/4.7.2//libgcc.a(pr-support.o)
                                                  /home/leon/riotboard/arm-2012.09/bin/../arm-none-eabi/lib//libstdc++.a(eh_personality.o)
__gtdf2                                           /home/leon/riotboard/arm-2012.09/bin/../lib/gcc/arm-none-eabi/4.7.2//libgcc.a(_arm_cmpdf2.o)
__gtsf2                                           /home/leon/riotboard/arm-2012.09/bin/../lib/gcc/arm-none-eabi/4.7.2//libgcc.a(_arm_cmpsf2.o)
__gxx_personality_v0                              /home/leon/riotboard/arm-2012.09/bin/../arm-none-eabi/lib//libstdc++.a(eh_personality.o)
                                                  /home/leon/riotboard/arm-2012.09/bin/../arm-none-eabi/lib//libstdc++.a(vterminate.o)
                                                  /home/leon/riotboard/arm-2012.09/bin/../arm-none-eabi/lib//libstdc++.a(eh_catch.o)
                                                  /home/leon/riotboard/arm-2012.09/bin/../arm-none-eabi/lib//libstdc++.a(eh_call.o)
                                                  /home/leon/riotboard/arm-2012.09/bin/../arm-none-eabi/lib//libstdc++.a(eh_terminate.o)
__hab_data                                        /home/leon/git/swp-report/iMX6_Platform_SDK/output/mx6dq/sdk_unit_test/smart_device_rev_a/obj/apps/common/ivt.o
__hi0bits                                         /home/leon/riotboard/arm-2012.09/bin/../arm-none-eabi/lib//libc.a(lib_a-mprec.o)
                                                  /home/leon/riotboard/arm-2012.09/bin/../arm-none-eabi/lib//libc.a(lib_a-dtoa.o)
__i2b                                             /home/leon/riotboard/arm-2012.09/bin/../arm-none-eabi/lib//libc.a(lib_a-mprec.o)
                                                  /home/leon/riotboard/arm-2012.09/bin/../arm-none-eabi/lib//libc.a(lib_a-dtoa.o)
__ieee754_rem_pio2f                               /home/leon/riotboard/arm-2012.09/bin/../arm-none-eabi/lib//libm.a(lib_a-ef_rem_pio2.o)
                                                  /home/leon/riotboard/arm-2012.09/bin/../arm-none-eabi/lib//libm.a(lib_a-sf_sin.o)
                                                  /home/leon/riotboard/arm-2012.09/bin/../arm-none-eabi/lib//libm.a(lib_a-sf_cos.o)
__init_array_end                                  /home/leon/riotboard/arm-2012.09/bin/../arm-none-eabi/lib//libc.a(lib_a-init.o)
__init_array_start                                /home/leon/riotboard/arm-2012.09/bin/../arm-none-eabi/lib//libc.a(lib_a-init.o)
__kernel_cosf                                     /home/leon/riotboard/arm-2012.09/bin/../arm-none-eabi/lib//libm.a(lib_a-kf_cos.o)
                                                  /home/leon/riotboard/arm-2012.09/bin/../arm-none-eabi/lib//libm.a(lib_a-sf_sin.o)
                                                  /home/leon/riotboard/arm-2012.09/bin/../arm-none-eabi/lib//libm.a(lib_a-sf_cos.o)
__kernel_rem_pio2f                                /home/leon/riotboard/arm-2012.09/bin/../arm-none-eabi/lib//libm.a(lib_a-kf_rem_pio2.o)
                                                  /home/leon/riotboard/arm-2012.09/bin/../arm-none-eabi/lib//libm.a(lib_a-ef_rem_pio2.o)
__kernel_sinf                                     /home/leon/riotboard/arm-2012.09/bin/../arm-none-eabi/lib//libm.a(lib_a-kf_sin.o)
                                                  /home/leon/riotboard/arm-2012.09/bin/../arm-none-eabi/lib//libm.a(lib_a-sf_sin.o)
                                                  /home/leon/riotboard/arm-2012.09/bin/../arm-none-eabi/lib//libm.a(lib_a-sf_cos.o)
__l1_page_table_start                             /home/leon/git/swp-report/iMX6_Platform_SDK/output/mx6dq/lib/libsdk.a(mmu.o)
__ledf2                                           /home/leon/riotboard/arm-2012.09/bin/../lib/gcc/arm-none-eabi/4.7.2//libgcc.a(_arm_cmpdf2.o)
__lesf2                                           /home/leon/riotboard/arm-2012.09/bin/../lib/gcc/arm-none-eabi/4.7.2//libgcc.a(_arm_cmpsf2.o)
__libc_init_array                                 /home/leon/riotboard/arm-2012.09/bin/../arm-none-eabi/lib//libc.a(lib_a-init.o)
                                                  /home/leon/git/swp-report/iMX6_Platform_SDK/output/mx6dq/lib/libsdk.a(startup.o)
__lo0bits                                         /home/leon/riotboard/arm-2012.09/bin/../arm-none-eabi/lib//libc.a(lib_a-mprec.o)
__locale_charset                                  /home/leon/riotboard/arm-2012.09/bin/../arm-none-eabi/lib//libc.a(lib_a-locale.o)
                                                  /home/leon/riotboard/arm-2012.09/bin/../arm-none-eabi/lib//libc.a(lib_a-wctomb_r.o)
                                                  /home/leon/riotboard/arm-2012.09/bin/../arm-none-eabi/lib//libc.a(lib_a-wcrtomb.o)
__locale_cjk_lang                                 /home/leon/riotboard/arm-2012.09/bin/../arm-none-eabi/lib//libc.a(lib_a-locale.o)
__locale_mb_cur_max                               /home/leon/riotboard/arm-2012.09/bin/../arm-none-eabi/lib//libc.a(lib_a-locale.o)
                                                  /home/leon/riotboard/arm-2012.09/bin/../arm-none-eabi/lib//libc.a(lib_a-fputwc.o)
__locale_msgcharset                               /home/leon/riotboard/arm-2012.09/bin/../arm-none-eabi/lib//libc.a(lib_a-locale.o)
__lshift                                          /home/leon/riotboard/arm-2012.09/bin/../arm-none-eabi/lib//libc.a(lib_a-mprec.o)
                                                  /home/leon/riotboard/arm-2012.09/bin/../arm-none-eabi/lib//libc.a(lib_a-dtoa.o)
__ltdf2                                           /home/leon/riotboard/arm-2012.09/bin/../lib/gcc/arm-none-eabi/4.7.2//libgcc.a(_arm_cmpdf2.o)
__ltsf2                                           /home/leon/riotboard/arm-2012.09/bin/../lib/gcc/arm-none-eabi/4.7.2//libgcc.a(_arm_cmpsf2.o)
__malloc_av_                                      /home/leon/riotboard/arm-2012.09/bin/../arm-none-eabi/lib//libc.a(lib_a-mallocr.o)
                                                  /home/leon/riotboard/arm-2012.09/bin/../arm-none-eabi/lib//libc.a(lib_a-reallocr.o)
                                                  /home/leon/riotboard/arm-2012.09/bin/../arm-none-eabi/lib//libc.a(lib_a-freer.o)
__malloc_current_mallinfo                         /home/leon/riotboard/arm-2012.09/bin/../arm-none-eabi/lib//libc.a(lib_a-mallocr.o)
                                                  /home/leon/riotboard/arm-2012.09/bin/../arm-none-eabi/lib//libc.a(lib_a-freer.o)
__malloc_lock                                     /home/leon/riotboard/arm-2012.09/bin/../arm-none-eabi/lib//libc.a(lib_a-mlock.o)
                                                  /home/leon/riotboard/arm-2012.09/bin/../arm-none-eabi/lib//libc.a(lib_a-reallocr.o)
                                                  /home/leon/riotboard/arm-2012.09/bin/../arm-none-eabi/lib//libc.a(lib_a-mallocr.o)
                                                  /home/leon/riotboard/arm-2012.09/bin/../arm-none-eabi/lib//libc.a(lib_a-freer.o)
__malloc_max_sbrked_mem                           /home/leon/riotboard/arm-2012.09/bin/../arm-none-eabi/lib//libc.a(lib_a-mallocr.o)
__malloc_max_total_mem                            /home/leon/riotboard/arm-2012.09/bin/../arm-none-eabi/lib//libc.a(lib_a-mallocr.o)
__malloc_sbrk_base                                /home/leon/riotboard/arm-2012.09/bin/../arm-none-eabi/lib//libc.a(lib_a-mallocr.o)
                                                  /home/leon/riotboard/arm-2012.09/bin/../arm-none-eabi/lib//libc.a(lib_a-freer.o)
__malloc_top_pad                                  /home/leon/riotboard/arm-2012.09/bin/../arm-none-eabi/lib//libc.a(lib_a-mallocr.o)
                                                  /home/leon/riotboard/arm-2012.09/bin/../arm-none-eabi/lib//libc.a(lib_a-freer.o)
__malloc_trim_threshold                           /home/leon/riotboard/arm-2012.09/bin/../arm-none-eabi/lib//libc.a(lib_a-mallocr.o)
                                                  /home/leon/riotboard/arm-2012.09/bin/../arm-none-eabi/lib//libc.a(lib_a-freer.o)
__malloc_unlock                                   /home/leon/riotboard/arm-2012.09/bin/../arm-none-eabi/lib//libc.a(lib_a-mlock.o)
                                                  /home/leon/riotboard/arm-2012.09/bin/../arm-none-eabi/lib//libc.a(lib_a-reallocr.o)
                                                  /home/leon/riotboard/arm-2012.09/bin/../arm-none-eabi/lib//libc.a(lib_a-mallocr.o)
                                                  /home/leon/riotboard/arm-2012.09/bin/../arm-none-eabi/lib//libc.a(lib_a-freer.o)
__mb_cur_max                                      /home/leon/riotboard/arm-2012.09/bin/../arm-none-eabi/lib//libc.a(lib_a-locale.o)
__mcmp                                            /home/leon/riotboard/arm-2012.09/bin/../arm-none-eabi/lib//libc.a(lib_a-mprec.o)
                                                  /home/leon/riotboard/arm-2012.09/bin/../arm-none-eabi/lib//libc.a(lib_a-dtoa.o)
__mdiff                                           /home/leon/riotboard/arm-2012.09/bin/../arm-none-eabi/lib//libc.a(lib_a-mprec.o)
                                                  /home/leon/riotboard/arm-2012.09/bin/../arm-none-eabi/lib//libc.a(lib_a-dtoa.o)
__mlocale_changed                                 /home/leon/riotboard/arm-2012.09/bin/../arm-none-eabi/lib//libc.a(lib_a-locale.o)
__mprec_bigtens                                   /home/leon/riotboard/arm-2012.09/bin/../arm-none-eabi/lib//libc.a(lib_a-mprec.o)
                                                  /home/leon/riotboard/arm-2012.09/bin/../arm-none-eabi/lib//libc.a(lib_a-dtoa.o)
__mprec_tens                                      /home/leon/riotboard/arm-2012.09/bin/../arm-none-eabi/lib//libc.a(lib_a-mprec.o)
                                                  /home/leon/riotboard/arm-2012.09/bin/../arm-none-eabi/lib//libc.a(lib_a-dtoa.o)
__mprec_tinytens                                  /home/leon/riotboard/arm-2012.09/bin/../arm-none-eabi/lib//libc.a(lib_a-mprec.o)
__muldf3                                          /home/leon/riotboard/arm-2012.09/bin/../lib/gcc/arm-none-eabi/4.7.2//libgcc.a(_arm_muldivdf3.o)
__mulsf3                                          /home/leon/riotboard/arm-2012.09/bin/../lib/gcc/arm-none-eabi/4.7.2//libgcc.a(_arm_muldivsf3.o)
__multadd                                         /home/leon/riotboard/arm-2012.09/bin/../arm-none-eabi/lib//libc.a(lib_a-mprec.o)
                                                  /home/leon/riotboard/arm-2012.09/bin/../arm-none-eabi/lib//libc.a(lib_a-dtoa.o)
__multiply                                        /home/leon/riotboard/arm-2012.09/bin/../arm-none-eabi/lib//libc.a(lib_a-mprec.o)
                                                  /home/leon/riotboard/arm-2012.09/bin/../arm-none-eabi/lib//libc.a(lib_a-dtoa.o)
__nedf2                                           /home/leon/riotboard/arm-2012.09/bin/../lib/gcc/arm-none-eabi/4.7.2//libgcc.a(_arm_cmpdf2.o)
__nesf2                                           /home/leon/riotboard/arm-2012.09/bin/../lib/gcc/arm-none-eabi/4.7.2//libgcc.a(_arm_cmpsf2.o)
__nlocale_changed                                 /home/leon/riotboard/arm-2012.09/bin/../arm-none-eabi/lib//libc.a(lib_a-locale.o)
__pow5mult                                        /home/leon/riotboard/arm-2012.09/bin/../arm-none-eabi/lib//libc.a(lib_a-mprec.o)
                                                  /home/leon/riotboard/arm-2012.09/bin/../arm-none-eabi/lib//libc.a(lib_a-dtoa.o)
__preinit_array_end                               /home/leon/riotboard/arm-2012.09/bin/../arm-none-eabi/lib//libc.a(lib_a-init.o)
__preinit_array_start                             /home/leon/riotboard/arm-2012.09/bin/../arm-none-eabi/lib//libc.a(lib_a-init.o)
__ram_vectors_end                                 /home/leon/git/swp-report/iMX6_Platform_SDK/output/mx6dq/lib/libsdk.a(startup.o)
__ram_vectors_start                               /home/leon/git/swp-report/iMX6_Platform_SDK/output/mx6dq/lib/libsdk.a(startup.o)
__ratio                                           /home/leon/riotboard/arm-2012.09/bin/../arm-none-eabi/lib//libc.a(lib_a-mprec.o)
__register_frame_info                             /home/leon/riotboard/arm-2012.09/bin/../lib/gcc/arm-none-eabi/4.7.2//crtbegin.o
__restore_core_regs                               /home/leon/riotboard/arm-2012.09/bin/../lib/gcc/arm-none-eabi/4.7.2//libgcc.a(libunwind.o)
__s2b                                             /home/leon/riotboard/arm-2012.09/bin/../arm-none-eabi/lib//libc.a(lib_a-mprec.o)
__sclose                                          /home/leon/riotboard/arm-2012.09/bin/../arm-none-eabi/lib//libc.a(lib_a-stdio.o)
                                                  /home/leon/riotboard/arm-2012.09/bin/../arm-none-eabi/lib//libc.a(lib_a-findfp.o)
__seofread                                        /home/leon/riotboard/arm-2012.09/bin/../arm-none-eabi/lib//libc.a(lib_a-stdio.o)
__sfmoreglue                                      /home/leon/riotboard/arm-2012.09/bin/../arm-none-eabi/lib//libc.a(lib_a-findfp.o)
__sfp                                             /home/leon/riotboard/arm-2012.09/bin/../arm-none-eabi/lib//libc.a(lib_a-findfp.o)
__sfp_lock_acquire                                /home/leon/riotboard/arm-2012.09/bin/../arm-none-eabi/lib//libc.a(lib_a-findfp.o)
                                                  /home/leon/riotboard/arm-2012.09/bin/../arm-none-eabi/lib//libc.a(lib_a-fclose.o)
                                                  /home/leon/riotboard/arm-2012.09/bin/../arm-none-eabi/lib//libc.a(lib_a-fwalk.o)
__sfp_lock_release                                /home/leon/riotboard/arm-2012.09/bin/../arm-none-eabi/lib//libc.a(lib_a-findfp.o)
                                                  /home/leon/riotboard/arm-2012.09/bin/../arm-none-eabi/lib//libc.a(lib_a-fclose.o)
                                                  /home/leon/riotboard/arm-2012.09/bin/../arm-none-eabi/lib//libc.a(lib_a-fwalk.o)
__sfvwrite_r                                      /home/leon/riotboard/arm-2012.09/bin/../arm-none-eabi/lib//libc.a(lib_a-fvwrite.o)
                                                  /home/leon/riotboard/arm-2012.09/bin/../arm-none-eabi/lib//libc.a(lib_a-fwrite.o)
                                                  /home/leon/riotboard/arm-2012.09/bin/../arm-none-eabi/lib//libc.a(lib_a-vfiprintf.o)
                                                  /home/leon/riotboard/arm-2012.09/bin/../arm-none-eabi/lib//libc.a(lib_a-fputs.o)
__sigtramp                                        /home/leon/riotboard/arm-2012.09/bin/../arm-none-eabi/lib//libc.a(lib_a-signal.o)
__sigtramp_r                                      /home/leon/riotboard/arm-2012.09/bin/../arm-none-eabi/lib//libc.a(lib_a-signal.o)
__sinit                                           /home/leon/riotboard/arm-2012.09/bin/../arm-none-eabi/lib//libc.a(lib_a-findfp.o)
                                                  /home/leon/riotboard/arm-2012.09/bin/../arm-none-eabi/lib//libc.a(lib_a-fwrite.o)
                                                  /home/leon/riotboard/arm-2012.09/bin/../arm-none-eabi/lib//libc.a(lib_a-refill.o)
                                                  /home/leon/riotboard/arm-2012.09/bin/../arm-none-eabi/lib//libc.a(lib_a-fputwc.o)
                                                  /home/leon/riotboard/arm-2012.09/bin/../arm-none-eabi/lib//libc.a(lib_a-fclose.o)
                                                  /home/leon/riotboard/arm-2012.09/bin/../arm-none-eabi/lib//libc.a(lib_a-wsetup.o)
                                                  /home/leon/riotboard/arm-2012.09/bin/../arm-none-eabi/lib//libc.a(lib_a-wbuf.o)
                                                  /home/leon/riotboard/arm-2012.09/bin/../arm-none-eabi/lib//libc.a(lib_a-vfprintf.o)
                                                  /home/leon/riotboard/arm-2012.09/bin/../arm-none-eabi/lib//libc.a(lib_a-vfiprintf.o)
                                                  /home/leon/riotboard/arm-2012.09/bin/../arm-none-eabi/lib//libc.a(lib_a-rget.o)
                                                  /home/leon/riotboard/arm-2012.09/bin/../arm-none-eabi/lib//libc.a(lib_a-putc.o)
                                                  /home/leon/riotboard/arm-2012.09/bin/../arm-none-eabi/lib//libc.a(lib_a-fputs.o)
                                                  /home/leon/riotboard/arm-2012.09/bin/../arm-none-eabi/lib//libc.a(lib_a-fputc.o)
                                                  /home/leon/riotboard/arm-2012.09/bin/../arm-none-eabi/lib//libc.a(lib_a-fflush.o)
__sinit_lock_acquire                              /home/leon/riotboard/arm-2012.09/bin/../arm-none-eabi/lib//libc.a(lib_a-findfp.o)
__sinit_lock_release                              /home/leon/riotboard/arm-2012.09/bin/../arm-none-eabi/lib//libc.a(lib_a-findfp.o)
__smakebuf_r                                      /home/leon/riotboard/arm-2012.09/bin/../arm-none-eabi/lib//libc.a(lib_a-makebuf.o)
                                                  /home/leon/riotboard/arm-2012.09/bin/../arm-none-eabi/lib//libc.a(lib_a-refill.o)
                                                  /home/leon/riotboard/arm-2012.09/bin/../arm-none-eabi/lib//libc.a(lib_a-wsetup.o)
__sprint_r                                        /home/leon/riotboard/arm-2012.09/bin/../arm-none-eabi/lib//libc.a(lib_a-vfiprintf.o)
                                                  /home/leon/riotboard/arm-2012.09/bin/../arm-none-eabi/lib//libc.a(lib_a-vfprintf.o)
__sread                                           /home/leon/riotboard/arm-2012.09/bin/../arm-none-eabi/lib//libc.a(lib_a-stdio.o)
                                                  /home/leon/riotboard/arm-2012.09/bin/../arm-none-eabi/lib//libc.a(lib_a-findfp.o)
__srefill_r                                       /home/leon/riotboard/arm-2012.09/bin/../arm-none-eabi/lib//libc.a(lib_a-refill.o)
                                                  /home/leon/riotboard/arm-2012.09/bin/../arm-none-eabi/lib//libc.a(lib_a-rget.o)
__srget                                           /home/leon/riotboard/arm-2012.09/bin/../arm-none-eabi/lib//libc.a(lib_a-rget.o)
__srget_r                                         /home/leon/riotboard/arm-2012.09/bin/../arm-none-eabi/lib//libc.a(lib_a-rget.o)
                                                  /home/leon/git/swp-report/iMX6_Platform_SDK/output/mx6dq/lib/libsdk.a(usb_common.o)
                                                  /home/leon/git/swp-report/iMX6_Platform_SDK/output/mx6dq/sdk_unit_test/smart_device_rev_a/libsdk_unit_test.a(usb0_device_mouse_test.o)
                                                  /home/leon/git/swp-report/iMX6_Platform_SDK/output/mx6dq/sdk_unit_test/smart_device_rev_a/libsdk_unit_test.a(ips_rotate.o)
                                                  /home/leon/git/swp-report/iMX6_Platform_SDK/output/mx6dq/sdk_unit_test/smart_device_rev_a/libsdk_unit_test.a(ips_resize.o)
                                                  /home/leon/git/swp-report/iMX6_Platform_SDK/output/mx6dq/sdk_unit_test/smart_device_rev_a/libsdk_unit_test.a(ips_csc.o)
                                                  /home/leon/git/swp-report/iMX6_Platform_SDK/output/mx6dq/sdk_unit_test/smart_device_rev_a/libsdk_unit_test.a(ips_combiner.o)
                                                  /home/leon/git/swp-report/iMX6_Platform_SDK/output/mx6dq/sdk_unit_test/smart_device_rev_a/libsdk_unit_test.a(sata_test.o)
                                                  /home/leon/git/swp-report/iMX6_Platform_SDK/output/mx6dq/sdk_unit_test/smart_device_rev_a/libsdk_unit_test.a(accelerometer_test.o)
                                                  /home/leon/git/swp-report/iMX6_Platform_SDK/output/mx6dq/sdk_unit_test/smart_device_rev_a/libsdk_unit_test.a(spi_test.o)
                                                  /home/leon/git/swp-report/iMX6_Platform_SDK/output/mx6dq/sdk_unit_test/smart_device_rev_a/libsdk_unit_test.a(pcie_test_rc.o)
                                                  /home/leon/git/swp-report/iMX6_Platform_SDK/output/mx6dq/sdk_unit_test/smart_device_rev_a/libsdk_unit_test.a(sensor_capture.o)
                                                  /home/leon/git/swp-report/iMX6_Platform_SDK/output/mx6dq/sdk_unit_test/smart_device_rev_a/libsdk_unit_test.a(csi_test_mode.o)
                                                  /home/leon/git/swp-report/iMX6_Platform_SDK/output/mx6dq/sdk_unit_test/smart_device_rev_a/libsdk_unit_test.a(camera_test.o)
                                                  /home/leon/git/swp-report/iMX6_Platform_SDK/output/mx6dq/sdk_unit_test/smart_device_rev_a/libsdk_unit_test.a(keypad_test.o)
                                                  /home/leon/git/swp-report/iMX6_Platform_SDK/output/mx6dq/sdk_unit_test/smart_device_rev_a/libsdk_unit_test.a(ips_test.o)
                                                  /home/leon/git/swp-report/iMX6_Platform_SDK/output/mx6dq/sdk_unit_test/smart_device_rev_a/libsdk_unit_test.a(ips_display.o)
                                                  /home/leon/git/swp-report/iMX6_Platform_SDK/output/mx6dq/sdk_unit_test/smart_device_rev_a/libsdk_unit_test.a(watchdog_test.o)
                                                  /home/leon/git/swp-report/iMX6_Platform_SDK/output/mx6dq/sdk_unit_test/smart_device_rev_a/libsdk_unit_test.a(pwm_test.o)
                                                  /home/leon/git/swp-report/iMX6_Platform_SDK/output/mx6dq/sdk_unit_test/smart_device_rev_a/libsdk_unit_test.a(usdhc_test.o)
                                                  /home/leon/git/swp-report/iMX6_Platform_SDK/output/mx6dq/sdk_unit_test/smart_device_rev_a/libsdk_unit_test.a(gpt_test.o)
                                                  /home/leon/git/swp-report/iMX6_Platform_SDK/output/mx6dq/sdk_unit_test/smart_device_rev_a/libsdk_unit_test.a(epit_test.o)
                                                  /home/leon/git/swp-report/iMX6_Platform_SDK/output/mx6dq/sdk_unit_test/smart_device_rev_a/libsdk_unit_test.a(uart_test.o)
                                                  /home/leon/git/swp-report/iMX6_Platform_SDK/output/mx6dq/sdk_unit_test/smart_device_rev_a/libsdk_unit_test.a(sdma_test.o)
                                                  /home/leon/git/swp-report/iMX6_Platform_SDK/output/mx6dq/sdk_unit_test/smart_device_rev_a/libsdk_unit_test.a(tempmon_test.o)
                                                  /home/leon/git/swp-report/iMX6_Platform_SDK/output/mx6dq/sdk_unit_test/smart_device_rev_a/libsdk_unit_test.a(snvs_srtc_test.o)
                                                  /home/leon/git/swp-report/iMX6_Platform_SDK/output/mx6dq/sdk_unit_test/smart_device_rev_a/libsdk_unit_test.a(snvs_rtc_test.o)
                                                  /home/leon/git/swp-report/iMX6_Platform_SDK/output/mx6dq/sdk_unit_test/smart_device_rev_a/libsdk_unit_test.a(imx6_i2c_device.o)
                                                  /home/leon/git/swp-report/iMX6_Platform_SDK/output/mx6dq/sdk_unit_test/smart_device_rev_a/libsdk_unit_test.a(i2c_test.o)
                                                  /home/leon/git/swp-report/iMX6_Platform_SDK/output/mx6dq/sdk_unit_test/smart_device_rev_a/libsdk_unit_test.a(ocotp_test.o)
                                                  /home/leon/git/swp-report/iMX6_Platform_SDK/output/mx6dq/sdk_unit_test/smart_device_rev_a/libsdk_unit_test.a(audio_test.o)
                                                  /home/leon/git/swp-report/iMX6_Platform_SDK/output/mx6dq/lib/libsdk.a(system_util.o)
                                                  /home/leon/git/swp-report/iMX6_Platform_SDK/output/mx6dq/lib/libsdk.a(menu.o)
__sseek                                           /home/leon/riotboard/arm-2012.09/bin/../arm-none-eabi/lib//libc.a(lib_a-stdio.o)
                                                  /home/leon/riotboard/arm-2012.09/bin/../arm-none-eabi/lib//libc.a(lib_a-makebuf.o)
                                                  /home/leon/riotboard/arm-2012.09/bin/../arm-none-eabi/lib//libc.a(lib_a-findfp.o)
__ssprint_r                                       /home/leon/riotboard/arm-2012.09/bin/../arm-none-eabi/lib//libc.a(lib_a-svfiprintf.o)
                                                  /home/leon/riotboard/arm-2012.09/bin/../arm-none-eabi/lib//libc.a(lib_a-svfprintf.o)
__stacks_start                                    /home/leon/git/swp-report/iMX6_Platform_SDK/output/mx6dq/lib/libsdk.a(startup.o)
__start_boot_data                                 /home/leon/git/swp-report/iMX6_Platform_SDK/output/mx6dq/sdk_unit_test/smart_device_rev_a/obj/apps/common/ivt.o
__subdf3                                          /home/leon/riotboard/arm-2012.09/bin/../lib/gcc/arm-none-eabi/4.7.2//libgcc.a(_arm_addsubdf3.o)
__subsf3                                          /home/leon/riotboard/arm-2012.09/bin/../lib/gcc/arm-none-eabi/4.7.2//libgcc.a(_arm_addsubsf3.o)
__swbuf                                           /home/leon/riotboard/arm-2012.09/bin/../arm-none-eabi/lib//libc.a(lib_a-wbuf.o)
__swbuf_r                                         /home/leon/riotboard/arm-2012.09/bin/../arm-none-eabi/lib//libc.a(lib_a-wbuf.o)
                                                  /home/leon/riotboard/arm-2012.09/bin/../arm-none-eabi/lib//libc.a(lib_a-fputwc.o)
                                                  /home/leon/riotboard/arm-2012.09/bin/../arm-none-eabi/lib//libc.a(lib_a-putc.o)
__swrite                                          /home/leon/riotboard/arm-2012.09/bin/../arm-none-eabi/lib//libc.a(lib_a-stdio.o)
                                                  /home/leon/riotboard/arm-2012.09/bin/../arm-none-eabi/lib//libc.a(lib_a-findfp.o)
__swsetup_r                                       /home/leon/riotboard/arm-2012.09/bin/../arm-none-eabi/lib//libc.a(lib_a-wsetup.o)
                                                  /home/leon/riotboard/arm-2012.09/bin/../arm-none-eabi/lib//libc.a(lib_a-wbuf.o)
                                                  /home/leon/riotboard/arm-2012.09/bin/../arm-none-eabi/lib//libc.a(lib_a-vfprintf.o)
                                                  /home/leon/riotboard/arm-2012.09/bin/../arm-none-eabi/lib//libc.a(lib_a-vfiprintf.o)
                                                  /home/leon/riotboard/arm-2012.09/bin/../arm-none-eabi/lib//libc.a(lib_a-fvwrite.o)
__udivdi3                                         /home/leon/riotboard/arm-2012.09/bin/../lib/gcc/arm-none-eabi/4.7.2//libgcc.a(_udivdi3.o)
                                                  /home/leon/riotboard/arm-2012.09/bin/../lib/gcc/arm-none-eabi/4.7.2//libgcc.a(bpabi.o)
__udivsi3                                         /home/leon/riotboard/arm-2012.09/bin/../lib/gcc/arm-none-eabi/4.7.2//libgcc.a(_udivsi3.o)
__ulp                                             /home/leon/riotboard/arm-2012.09/bin/../arm-none-eabi/lib//libc.a(lib_a-mprec.o)
__wctomb                                          /home/leon/riotboard/arm-2012.09/bin/../arm-none-eabi/lib//libc.a(lib_a-wctomb_r.o)
                                                  /home/leon/riotboard/arm-2012.09/bin/../arm-none-eabi/lib//libc.a(lib_a-wcrtomb.o)
_calloc_r                                         /home/leon/riotboard/arm-2012.09/bin/../arm-none-eabi/lib//libc.a(lib_a-callocr.o)
                                                  /home/leon/riotboard/arm-2012.09/bin/../arm-none-eabi/lib//libc.a(lib_a-mprec.o)
_cleanup                                          /home/leon/riotboard/arm-2012.09/bin/../arm-none-eabi/lib//libc.a(lib_a-findfp.o)
_cleanup_r                                        /home/leon/riotboard/arm-2012.09/bin/../arm-none-eabi/lib//libc.a(lib_a-findfp.o)
                                                  /home/leon/riotboard/arm-2012.09/bin/../arm-none-eabi/lib//libc.a(lib_a-makebuf.o)
_close                                            /home/leon/git/swp-report/iMX6_Platform_SDK/output/mx6dq/lib/libsdk.a(runtime_support.o)
                                                  /home/leon/riotboard/arm-2012.09/bin/../arm-none-eabi/lib//libc.a(lib_a-closer.o)
_close_r                                          /home/leon/riotboard/arm-2012.09/bin/../arm-none-eabi/lib//libc.a(lib_a-closer.o)
                                                  /home/leon/riotboard/arm-2012.09/bin/../arm-none-eabi/lib//libc.a(lib_a-stdio.o)
_ctype_                                           /home/leon/riotboard/arm-2012.09/bin/../arm-none-eabi/lib//libc.a(lib_a-ctype_.o)
_dtoa_r                                           /home/leon/riotboard/arm-2012.09/bin/../arm-none-eabi/lib//libc.a(lib_a-dtoa.o)
                                                  /home/leon/riotboard/arm-2012.09/bin/../arm-none-eabi/lib//libc.a(lib_a-vfprintf.o)
                                                  /home/leon/riotboard/arm-2012.09/bin/../arm-none-eabi/lib//libc.a(lib_a-svfprintf.o)
_execve                                           /home/leon/git/swp-report/iMX6_Platform_SDK/output/mx6dq/lib/libsdk.a(runtime_support.o)
_exit                                             /home/leon/git/swp-report/iMX6_Platform_SDK/output/mx6dq/lib/libsdk.a(runtime_support.o)
                                                  /home/leon/riotboard/arm-2012.09/bin/../arm-none-eabi/lib//libc.a(lib_a-abort.o)
_fclose_r                                         /home/leon/riotboard/arm-2012.09/bin/../arm-none-eabi/lib//libc.a(lib_a-fclose.o)
_fflush_r                                         /home/leon/riotboard/arm-2012.09/bin/../arm-none-eabi/lib//libc.a(lib_a-fflush.o)
                                                  /home/leon/riotboard/arm-2012.09/bin/../arm-none-eabi/lib//libc.a(lib_a-refill.o)
                                                  /home/leon/riotboard/arm-2012.09/bin/../arm-none-eabi/lib//libc.a(lib_a-fclose.o)
                                                  /home/leon/riotboard/arm-2012.09/bin/../arm-none-eabi/lib//libc.a(lib_a-wbuf.o)
                                                  /home/leon/riotboard/arm-2012.09/bin/../arm-none-eabi/lib//libc.a(lib_a-vfprintf.o)
                                                  /home/leon/riotboard/arm-2012.09/bin/../arm-none-eabi/lib//libc.a(lib_a-vfiprintf.o)
                                                  /home/leon/riotboard/arm-2012.09/bin/../arm-none-eabi/lib//libc.a(lib_a-fvwrite.o)
_fini                                             /home/leon/riotboard/arm-2012.09/bin/../lib/gcc/arm-none-eabi/4.7.2//crti.o
_fiprintf_r                                       /home/leon/riotboard/arm-2012.09/bin/../arm-none-eabi/lib//libc.a(lib_a-fiprintf.o)
_fork                                             /home/leon/git/swp-report/iMX6_Platform_SDK/output/mx6dq/lib/libsdk.a(runtime_support.o)
_fputc_r                                          /home/leon/riotboard/arm-2012.09/bin/../arm-none-eabi/lib//libc.a(lib_a-fputc.o)
_fputs_r                                          /home/leon/riotboard/arm-2012.09/bin/../arm-none-eabi/lib//libc.a(lib_a-fputs.o)
_fputwc_r                                         /home/leon/riotboard/arm-2012.09/bin/../arm-none-eabi/lib//libc.a(lib_a-fputwc.o)
                                                  /home/leon/riotboard/arm-2012.09/bin/../arm-none-eabi/lib//libc.a(lib_a-vfiprintf.o)
_free_r                                           /home/leon/riotboard/arm-2012.09/bin/../arm-none-eabi/lib//libc.a(lib_a-freer.o)
                                                  /home/leon/riotboard/arm-2012.09/bin/../arm-none-eabi/lib//libc.a(lib_a-svfiprintf.o)
                                                  /home/leon/riotboard/arm-2012.09/bin/../arm-none-eabi/lib//libc.a(lib_a-refill.o)
                                                  /home/leon/riotboard/arm-2012.09/bin/../arm-none-eabi/lib//libc.a(lib_a-reent.o)
                                                  /home/leon/riotboard/arm-2012.09/bin/../arm-none-eabi/lib//libc.a(lib_a-fclose.o)
                                                  /home/leon/riotboard/arm-2012.09/bin/../arm-none-eabi/lib//libc.a(lib_a-wsetup.o)
                                                  /home/leon/riotboard/arm-2012.09/bin/../arm-none-eabi/lib//libc.a(lib_a-reallocr.o)
                                                  /home/leon/riotboard/arm-2012.09/bin/../arm-none-eabi/lib//libc.a(lib_a-mallocr.o)
                                                  /home/leon/riotboard/arm-2012.09/bin/../arm-none-eabi/lib//libc.a(lib_a-malloc.o)
                                                  /home/leon/riotboard/arm-2012.09/bin/../arm-none-eabi/lib//libc.a(lib_a-fvwrite.o)
                                                  /home/leon/riotboard/arm-2012.09/bin/../arm-none-eabi/lib//libc.a(lib_a-fflush.o)
_fstat                                            /home/leon/git/swp-report/iMX6_Platform_SDK/output/mx6dq/lib/libsdk.a(runtime_support.o)
                                                  /home/leon/riotboard/arm-2012.09/bin/../arm-none-eabi/lib//libc.a(lib_a-fstatr.o)
_fstat_r                                          /home/leon/riotboard/arm-2012.09/bin/../arm-none-eabi/lib//libc.a(lib_a-fstatr.o)
                                                  /home/leon/riotboard/arm-2012.09/bin/../arm-none-eabi/lib//libc.a(lib_a-makebuf.o)
_fwalk                                            /home/leon/riotboard/arm-2012.09/bin/../arm-none-eabi/lib//libc.a(lib_a-fwalk.o)
                                                  /home/leon/riotboard/arm-2012.09/bin/../arm-none-eabi/lib//libc.a(lib_a-refill.o)
                                                  /home/leon/riotboard/arm-2012.09/bin/../arm-none-eabi/lib//libc.a(lib_a-findfp.o)
_fwalk_reent                                      /home/leon/riotboard/arm-2012.09/bin/../arm-none-eabi/lib//libc.a(lib_a-fwalk.o)
                                                  /home/leon/riotboard/arm-2012.09/bin/../arm-none-eabi/lib//libc.a(lib_a-fflush.o)
_fwrite_r                                         /home/leon/riotboard/arm-2012.09/bin/../arm-none-eabi/lib//libc.a(lib_a-fwrite.o)
_getpid                                           /home/leon/git/swp-report/iMX6_Platform_SDK/output/mx6dq/lib/libsdk.a(runtime_support.o)
                                                  /home/leon/riotboard/arm-2012.09/bin/../arm-none-eabi/lib//libc.a(lib_a-signalr.o)
_getpid_r                                         /home/leon/riotboard/arm-2012.09/bin/../arm-none-eabi/lib//libc.a(lib_a-signalr.o)
                                                  /home/leon/riotboard/arm-2012.09/bin/../arm-none-eabi/lib//libc.a(lib_a-signal.o)
_gettimeofday                                     /home/leon/git/swp-report/iMX6_Platform_SDK/output/mx6dq/lib/libsdk.a(runtime_support.o)
_global_impure_ptr                                /home/leon/riotboard/arm-2012.09/bin/../arm-none-eabi/lib//libc.a(lib_a-impure.o)
                                                  /home/leon/riotboard/arm-2012.09/bin/../arm-none-eabi/lib//libc.a(lib_a-refill.o)
                                                  /home/leon/riotboard/arm-2012.09/bin/../arm-none-eabi/lib//libc.a(lib_a-findfp.o)
                                                  /home/leon/riotboard/arm-2012.09/bin/../arm-none-eabi/lib//libc.a(lib_a-fflush.o)
_image_size                                       /home/leon/git/swp-report/iMX6_Platform_SDK/output/mx6dq/sdk_unit_test/smart_device_rev_a/obj/apps/common/ivt.o
_impure_ptr                                       /home/leon/riotboard/arm-2012.09/bin/../arm-none-eabi/lib//libc.a(lib_a-impure.o)
                                                  /home/leon/riotboard/arm-2012.09/bin/../arm-none-eabi/lib//libc.a(lib_a-syswrite.o)
                                                  /home/leon/riotboard/arm-2012.09/bin/../arm-none-eabi/lib//libc.a(lib_a-fwrite.o)
                                                  /home/leon/riotboard/arm-2012.09/bin/../arm-none-eabi/lib//libstdc++.a(vterminate.o)
                                                  /home/leon/git/swp-report/iMX6_Platform_SDK/output/mx6dq/lib/libsdk.a(usb_common.o)
                                                  /home/leon/riotboard/arm-2012.09/bin/../arm-none-eabi/lib//libc.a(lib_a-wcrtomb.o)
                                                  /home/leon/riotboard/arm-2012.09/bin/../arm-none-eabi/lib//libc.a(lib_a-signal.o)
                                                  /home/leon/riotboard/arm-2012.09/bin/../arm-none-eabi/lib//libc.a(lib_a-reent.o)
                                                  /home/leon/riotboard/arm-2012.09/bin/../arm-none-eabi/lib//libc.a(lib_a-locale.o)
                                                  /home/leon/riotboard/arm-2012.09/bin/../arm-none-eabi/lib//libc.a(lib_a-fputwc.o)
                                                  /home/leon/riotboard/arm-2012.09/bin/../arm-none-eabi/lib//libc.a(lib_a-fclose.o)
                                                  /home/leon/riotboard/arm-2012.09/bin/../arm-none-eabi/lib//libc.a(lib_a-wsetup.o)
                                                  /home/leon/riotboard/arm-2012.09/bin/../arm-none-eabi/lib//libc.a(lib_a-wbuf.o)
                                                  /home/leon/riotboard/arm-2012.09/bin/../arm-none-eabi/lib//libc.a(lib_a-vprintf.o)
                                                  /home/leon/riotboard/arm-2012.09/bin/../arm-none-eabi/lib//libc.a(lib_a-vfprintf.o)
                                                  /home/leon/riotboard/arm-2012.09/bin/../arm-none-eabi/lib//libc.a(lib_a-vfiprintf.o)
                                                  /home/leon/riotboard/arm-2012.09/bin/../arm-none-eabi/lib//libc.a(lib_a-sprintf.o)
                                                  /home/leon/riotboard/arm-2012.09/bin/../arm-none-eabi/lib//libc.a(lib_a-rget.o)
                                                  /home/leon/riotboard/arm-2012.09/bin/../arm-none-eabi/lib//libc.a(lib_a-realloc.o)
                                                  /home/leon/riotboard/arm-2012.09/bin/../arm-none-eabi/lib//libc.a(lib_a-putc.o)
                                                  /home/leon/riotboard/arm-2012.09/bin/../arm-none-eabi/lib//libc.a(lib_a-printf.o)
                                                  /home/leon/riotboard/arm-2012.09/bin/../arm-none-eabi/lib//libc.a(lib_a-malloc.o)
                                                  /home/leon/riotboard/arm-2012.09/bin/../arm-none-eabi/lib//libc.a(lib_a-fputs.o)
                                                  /home/leon/riotboard/arm-2012.09/bin/../arm-none-eabi/lib//libc.a(lib_a-fputc.o)
                                                  /home/leon/riotboard/arm-2012.09/bin/../arm-none-eabi/lib//libc.a(lib_a-fiprintf.o)
                                                  /home/leon/riotboard/arm-2012.09/bin/../arm-none-eabi/lib//libc.a(lib_a-findfp.o)
                                                  /home/leon/riotboard/arm-2012.09/bin/../arm-none-eabi/lib//libc.a(lib_a-fflush.o)
                                                  /home/leon/riotboard/arm-2012.09/bin/../arm-none-eabi/lib//libc.a(lib_a-assert.o)
                                                  /home/leon/git/swp-report/iMX6_Platform_SDK/output/mx6dq/sdk_unit_test/smart_device_rev_a/libsdk_unit_test.a(usb0_device_mouse_test.o)
                                                  /home/leon/git/swp-report/iMX6_Platform_SDK/output/mx6dq/sdk_unit_test/smart_device_rev_a/libsdk_unit_test.a(ips_rotate.o)
                                                  /home/leon/git/swp-report/iMX6_Platform_SDK/output/mx6dq/sdk_unit_test/smart_device_rev_a/libsdk_unit_test.a(ips_resize.o)
                                                  /home/leon/git/swp-report/iMX6_Platform_SDK/output/mx6dq/sdk_unit_test/smart_device_rev_a/libsdk_unit_test.a(ips_csc.o)
                                                  /home/leon/git/swp-report/iMX6_Platform_SDK/output/mx6dq/sdk_unit_test/smart_device_rev_a/libsdk_unit_test.a(ips_combiner.o)
                                                  /home/leon/git/swp-report/iMX6_Platform_SDK/output/mx6dq/sdk_unit_test/smart_device_rev_a/libsdk_unit_test.a(sata_test.o)
                                                  /home/leon/git/swp-report/iMX6_Platform_SDK/output/mx6dq/sdk_unit_test/smart_device_rev_a/libsdk_unit_test.a(accelerometer_test.o)
                                                  /home/leon/git/swp-report/iMX6_Platform_SDK/output/mx6dq/sdk_unit_test/smart_device_rev_a/libsdk_unit_test.a(spi_test.o)
                                                  /home/leon/git/swp-report/iMX6_Platform_SDK/output/mx6dq/sdk_unit_test/smart_device_rev_a/libsdk_unit_test.a(pcie_test_rc.o)
                                                  /home/leon/git/swp-report/iMX6_Platform_SDK/output/mx6dq/sdk_unit_test/smart_device_rev_a/libsdk_unit_test.a(sensor_capture.o)
                                                  /home/leon/git/swp-report/iMX6_Platform_SDK/output/mx6dq/sdk_unit_test/smart_device_rev_a/libsdk_unit_test.a(csi_test_mode.o)
                                                  /home/leon/git/swp-report/iMX6_Platform_SDK/output/mx6dq/sdk_unit_test/smart_device_rev_a/libsdk_unit_test.a(camera_test.o)
                                                  /home/leon/git/swp-report/iMX6_Platform_SDK/output/mx6dq/sdk_unit_test/smart_device_rev_a/libsdk_unit_test.a(keypad_test.o)
                                                  /home/leon/git/swp-report/iMX6_Platform_SDK/output/mx6dq/sdk_unit_test/smart_device_rev_a/libsdk_unit_test.a(ips_test.o)
                                                  /home/leon/git/swp-report/iMX6_Platform_SDK/output/mx6dq/sdk_unit_test/smart_device_rev_a/libsdk_unit_test.a(ips_display.o)
                                                  /home/leon/git/swp-report/iMX6_Platform_SDK/output/mx6dq/sdk_unit_test/smart_device_rev_a/libsdk_unit_test.a(watchdog_test.o)
                                                  /home/leon/git/swp-report/iMX6_Platform_SDK/output/mx6dq/sdk_unit_test/smart_device_rev_a/libsdk_unit_test.a(pwm_test.o)
                                                  /home/leon/git/swp-report/iMX6_Platform_SDK/output/mx6dq/sdk_unit_test/smart_device_rev_a/libsdk_unit_test.a(usdhc_test.o)
                                                  /home/leon/git/swp-report/iMX6_Platform_SDK/output/mx6dq/sdk_unit_test/smart_device_rev_a/libsdk_unit_test.a(gpt_test.o)
                                                  /home/leon/git/swp-report/iMX6_Platform_SDK/output/mx6dq/sdk_unit_test/smart_device_rev_a/libsdk_unit_test.a(epit_test.o)
                                                  /home/leon/git/swp-report/iMX6_Platform_SDK/output/mx6dq/sdk_unit_test/smart_device_rev_a/libsdk_unit_test.a(uart_test.o)
                                                  /home/leon/git/swp-report/iMX6_Platform_SDK/output/mx6dq/sdk_unit_test/smart_device_rev_a/libsdk_unit_test.a(sdma_test.o)
                                                  /home/leon/git/swp-report/iMX6_Platform_SDK/output/mx6dq/sdk_unit_test/smart_device_rev_a/libsdk_unit_test.a(tempmon_test.o)
                                                  /home/leon/git/swp-report/iMX6_Platform_SDK/output/mx6dq/sdk_unit_test/smart_device_rev_a/libsdk_unit_test.a(snvs_srtc_test.o)
                                                  /home/leon/git/swp-report/iMX6_Platform_SDK/output/mx6dq/sdk_unit_test/smart_device_rev_a/libsdk_unit_test.a(snvs_rtc_test.o)
                                                  /home/leon/git/swp-report/iMX6_Platform_SDK/output/mx6dq/sdk_unit_test/smart_device_rev_a/libsdk_unit_test.a(imx6_i2c_device.o)
                                                  /home/leon/git/swp-report/iMX6_Platform_SDK/output/mx6dq/sdk_unit_test/smart_device_rev_a/libsdk_unit_test.a(i2c_test.o)
                                                  /home/leon/git/swp-report/iMX6_Platform_SDK/output/mx6dq/sdk_unit_test/smart_device_rev_a/libsdk_unit_test.a(ocotp_test.o)
                                                  /home/leon/git/swp-report/iMX6_Platform_SDK/output/mx6dq/sdk_unit_test/smart_device_rev_a/libsdk_unit_test.a(audio_test.o)
                                                  /home/leon/git/swp-report/iMX6_Platform_SDK/output/mx6dq/lib/libsdk.a(system_util.o)
                                                  /home/leon/git/swp-report/iMX6_Platform_SDK/output/mx6dq/lib/libsdk.a(menu.o)
_init                                             /home/leon/riotboard/arm-2012.09/bin/../lib/gcc/arm-none-eabi/4.7.2//crti.o
                                                  /home/leon/riotboard/arm-2012.09/bin/../arm-none-eabi/lib//libc.a(lib_a-init.o)
_init_signal                                      /home/leon/riotboard/arm-2012.09/bin/../arm-none-eabi/lib//libc.a(lib_a-signal.o)
_init_signal_r                                    /home/leon/riotboard/arm-2012.09/bin/../arm-none-eabi/lib//libc.a(lib_a-signal.o)
_isatty                                           /home/leon/git/swp-report/iMX6_Platform_SDK/output/mx6dq/lib/libsdk.a(runtime_support.o)
                                                  /home/leon/riotboard/arm-2012.09/bin/../arm-none-eabi/lib//libc.a(lib_a-isattyr.o)
_isatty_r                                         /home/leon/riotboard/arm-2012.09/bin/../arm-none-eabi/lib//libc.a(lib_a-isattyr.o)
                                                  /home/leon/riotboard/arm-2012.09/bin/../arm-none-eabi/lib//libc.a(lib_a-makebuf.o)
_kill                                             /home/leon/git/swp-report/iMX6_Platform_SDK/output/mx6dq/lib/libsdk.a(runtime_support.o)
                                                  /home/leon/riotboard/arm-2012.09/bin/../arm-none-eabi/lib//libc.a(lib_a-signalr.o)
_kill_r                                           /home/leon/riotboard/arm-2012.09/bin/../arm-none-eabi/lib//libc.a(lib_a-signalr.o)
                                                  /home/leon/riotboard/arm-2012.09/bin/../arm-none-eabi/lib//libc.a(lib_a-signal.o)
_link                                             /home/leon/git/swp-report/iMX6_Platform_SDK/output/mx6dq/lib/libsdk.a(runtime_support.o)
_localeconv_r                                     /home/leon/riotboard/arm-2012.09/bin/../arm-none-eabi/lib//libc.a(lib_a-locale.o)
                                                  /home/leon/riotboard/arm-2012.09/bin/../arm-none-eabi/lib//libc.a(lib_a-vfprintf.o)
                                                  /home/leon/riotboard/arm-2012.09/bin/../arm-none-eabi/lib//libc.a(lib_a-svfprintf.o)
_lseek                                            /home/leon/git/swp-report/iMX6_Platform_SDK/output/mx6dq/lib/libsdk.a(runtime_support.o)
                                                  /home/leon/riotboard/arm-2012.09/bin/../arm-none-eabi/lib//libc.a(lib_a-lseekr.o)
_lseek_r                                          /home/leon/riotboard/arm-2012.09/bin/../arm-none-eabi/lib//libc.a(lib_a-lseekr.o)
                                                  /home/leon/riotboard/arm-2012.09/bin/../arm-none-eabi/lib//libc.a(lib_a-stdio.o)
_malloc_r                                         /home/leon/riotboard/arm-2012.09/bin/../arm-none-eabi/lib//libc.a(lib_a-mallocr.o)
                                                  /home/leon/riotboard/arm-2012.09/bin/../arm-none-eabi/lib//libc.a(lib_a-callocr.o)
                                                  /home/leon/riotboard/arm-2012.09/bin/../arm-none-eabi/lib//libc.a(lib_a-svfiprintf.o)
                                                  /home/leon/riotboard/arm-2012.09/bin/../arm-none-eabi/lib//libc.a(lib_a-signal.o)
                                                  /home/leon/riotboard/arm-2012.09/bin/../arm-none-eabi/lib//libc.a(lib_a-makebuf.o)
                                                  /home/leon/riotboard/arm-2012.09/bin/../arm-none-eabi/lib//libc.a(lib_a-svfprintf.o)
                                                  /home/leon/riotboard/arm-2012.09/bin/../arm-none-eabi/lib//libc.a(lib_a-reallocr.o)
                                                  /home/leon/riotboard/arm-2012.09/bin/../arm-none-eabi/lib//libc.a(lib_a-malloc.o)
                                                  /home/leon/riotboard/arm-2012.09/bin/../arm-none-eabi/lib//libc.a(lib_a-fvwrite.o)
                                                  /home/leon/riotboard/arm-2012.09/bin/../arm-none-eabi/lib//libc.a(lib_a-findfp.o)
_malloc_trim_r                                    /home/leon/riotboard/arm-2012.09/bin/../arm-none-eabi/lib//libc.a(lib_a-freer.o)
_mprec_log10                                      /home/leon/riotboard/arm-2012.09/bin/../arm-none-eabi/lib//libc.a(lib_a-mprec.o)
_open                                             /home/leon/git/swp-report/iMX6_Platform_SDK/output/mx6dq/lib/libsdk.a(runtime_support.o)
_printf_r                                         /home/leon/riotboard/arm-2012.09/bin/../arm-none-eabi/lib//libc.a(lib_a-printf.o)
_putc_r                                           /home/leon/riotboard/arm-2012.09/bin/../arm-none-eabi/lib//libc.a(lib_a-putc.o)
                                                  /home/leon/riotboard/arm-2012.09/bin/../arm-none-eabi/lib//libc.a(lib_a-fputc.o)
_raise_r                                          /home/leon/riotboard/arm-2012.09/bin/../arm-none-eabi/lib//libc.a(lib_a-signal.o)
_raw_puts                                         /home/leon/git/swp-report/iMX6_Platform_SDK/output/mx6dq/lib/libsdk.a(runtime_support.o)
_read                                             /home/leon/git/swp-report/iMX6_Platform_SDK/output/mx6dq/lib/libsdk.a(runtime_support.o)
                                                  /home/leon/riotboard/arm-2012.09/bin/../arm-none-eabi/lib//libc.a(lib_a-readr.o)
_read_r                                           /home/leon/riotboard/arm-2012.09/bin/../arm-none-eabi/lib//libc.a(lib_a-readr.o)
                                                  /home/leon/riotboard/arm-2012.09/bin/../arm-none-eabi/lib//libc.a(lib_a-stdio.o)
_realloc_r                                        /home/leon/riotboard/arm-2012.09/bin/../arm-none-eabi/lib//libc.a(lib_a-reallocr.o)
                                                  /home/leon/riotboard/arm-2012.09/bin/../arm-none-eabi/lib//libc.a(lib_a-svfiprintf.o)
                                                  /home/leon/riotboard/arm-2012.09/bin/../arm-none-eabi/lib//libc.a(lib_a-realloc.o)
                                                  /home/leon/riotboard/arm-2012.09/bin/../arm-none-eabi/lib//libc.a(lib_a-fvwrite.o)
_reclaim_reent                                    /home/leon/riotboard/arm-2012.09/bin/../arm-none-eabi/lib//libc.a(lib_a-reent.o)
_sbrk                                             /home/leon/git/swp-report/iMX6_Platform_SDK/output/mx6dq/lib/libsdk.a(runtime_support.o)
                                                  /home/leon/riotboard/arm-2012.09/bin/../arm-none-eabi/lib//libc.a(lib_a-sbrkr.o)
_sbrk_r                                           /home/leon/riotboard/arm-2012.09/bin/../arm-none-eabi/lib//libc.a(lib_a-sbrkr.o)
                                                  /home/leon/riotboard/arm-2012.09/bin/../arm-none-eabi/lib//libc.a(lib_a-mallocr.o)
                                                  /home/leon/riotboard/arm-2012.09/bin/../arm-none-eabi/lib//libc.a(lib_a-freer.o)
_setlocale_r                                      /home/leon/riotboard/arm-2012.09/bin/../arm-none-eabi/lib//libc.a(lib_a-locale.o)
_signal_r                                         /home/leon/riotboard/arm-2012.09/bin/../arm-none-eabi/lib//libc.a(lib_a-signal.o)
_sprintf_r                                        /home/leon/riotboard/arm-2012.09/bin/../arm-none-eabi/lib//libc.a(lib_a-sprintf.o)
_start                                            /home/leon/git/swp-report/iMX6_Platform_SDK/output/mx6dq/lib/libsdk.a(startup.o)
                                                  /home/leon/git/swp-report/iMX6_Platform_SDK/output/mx6dq/lib/libsdk.a(cpu_multicore.o)
                                                  /home/leon/git/swp-report/iMX6_Platform_SDK/output/mx6dq/lib/libsdk.a(vectors.o)
                                                  /home/leon/git/swp-report/iMX6_Platform_SDK/output/mx6dq/sdk_unit_test/smart_device_rev_a/obj/apps/common/ivt.o
_start_image_add                                  /home/leon/git/swp-report/iMX6_Platform_SDK/output/mx6dq/sdk_unit_test/smart_device_rev_a/obj/apps/common/ivt.o
_stat                                             /home/leon/git/swp-report/iMX6_Platform_SDK/output/mx6dq/lib/libsdk.a(runtime_support.o)
_svfiprintf_r                                     /home/leon/riotboard/arm-2012.09/bin/../arm-none-eabi/lib//libc.a(lib_a-svfiprintf.o)
_svfprintf_r                                      /home/leon/riotboard/arm-2012.09/bin/../arm-none-eabi/lib//libc.a(lib_a-svfprintf.o)
                                                  /home/leon/riotboard/arm-2012.09/bin/../arm-none-eabi/lib//libc.a(lib_a-sprintf.o)
_sys_exit                                         /home/leon/git/swp-report/iMX6_Platform_SDK/output/mx6dq/lib/libsdk.a(system_util.o)
                                                  /home/leon/git/swp-report/iMX6_Platform_SDK/output/mx6dq/lib/libsdk.a(runtime_support.o)
                                                  /home/leon/git/swp-report/iMX6_Platform_SDK/output/mx6dq/lib/libsdk.a(startup.o)
_times                                            /home/leon/git/swp-report/iMX6_Platform_SDK/output/mx6dq/lib/libsdk.a(runtime_support.o)
_unlink                                           /home/leon/git/swp-report/iMX6_Platform_SDK/output/mx6dq/lib/libsdk.a(runtime_support.o)
_vfiprintf_r                                      /home/leon/riotboard/arm-2012.09/bin/../arm-none-eabi/lib//libc.a(lib_a-vfiprintf.o)
                                                  /home/leon/riotboard/arm-2012.09/bin/../arm-none-eabi/lib//libc.a(lib_a-fiprintf.o)
_vfprintf_r                                       /home/leon/riotboard/arm-2012.09/bin/../arm-none-eabi/lib//libc.a(lib_a-vfprintf.o)
                                                  /home/leon/riotboard/arm-2012.09/bin/../arm-none-eabi/lib//libc.a(lib_a-vprintf.o)
                                                  /home/leon/riotboard/arm-2012.09/bin/../arm-none-eabi/lib//libc.a(lib_a-printf.o)
_vprintf_r                                        /home/leon/riotboard/arm-2012.09/bin/../arm-none-eabi/lib//libc.a(lib_a-vprintf.o)
_wait                                             /home/leon/git/swp-report/iMX6_Platform_SDK/output/mx6dq/lib/libsdk.a(runtime_support.o)
_wcrtomb_r                                        /home/leon/riotboard/arm-2012.09/bin/../arm-none-eabi/lib//libc.a(lib_a-wcrtomb.o)
                                                  /home/leon/riotboard/arm-2012.09/bin/../arm-none-eabi/lib//libc.a(lib_a-fputwc.o)
_wctomb_r                                         /home/leon/riotboard/arm-2012.09/bin/../arm-none-eabi/lib//libc.a(lib_a-wctomb_r.o)
_wrapup_reent                                     /home/leon/riotboard/arm-2012.09/bin/../arm-none-eabi/lib//libc.a(lib_a-reent.o)
_write                                            /home/leon/git/swp-report/iMX6_Platform_SDK/output/mx6dq/lib/libsdk.a(runtime_support.o)
                                                  /home/leon/riotboard/arm-2012.09/bin/../arm-none-eabi/lib//libc.a(lib_a-writer.o)
_write_r                                          /home/leon/riotboard/arm-2012.09/bin/../arm-none-eabi/lib//libc.a(lib_a-writer.o)
                                                  /home/leon/riotboard/arm-2012.09/bin/../arm-none-eabi/lib//libc.a(lib_a-syswrite.o)
                                                  /home/leon/riotboard/arm-2012.09/bin/../arm-none-eabi/lib//libc.a(lib_a-stdio.o)
abort                                             /home/leon/riotboard/arm-2012.09/bin/../arm-none-eabi/lib//libc.a(lib_a-abort.o)
                                                  /home/leon/riotboard/arm-2012.09/bin/../lib/gcc/arm-none-eabi/4.7.2//libgcc.a(pr-support.o)
                                                  /home/leon/riotboard/arm-2012.09/bin/../lib/gcc/arm-none-eabi/4.7.2//libgcc.a(unwind-arm.o)
                                                  /home/leon/riotboard/arm-2012.09/bin/../arm-none-eabi/lib//libstdc++.a(vterminate.o)
                                                  /home/leon/riotboard/arm-2012.09/bin/../arm-none-eabi/lib//libstdc++.a(eh_personality.o)
                                                  /home/leon/riotboard/arm-2012.09/bin/../arm-none-eabi/lib//libstdc++.a(eh_terminate.o)
                                                  /home/leon/git/swp-report/iMX6_Platform_SDK/output/mx6dq/lib/libsdk.a(runtime_support.o)
                                                  /home/leon/riotboard/arm-2012.09/bin/../arm-none-eabi/lib//libc.a(lib_a-assert.o)
accelerometer_test                                /home/leon/git/swp-report/iMX6_Platform_SDK/output/mx6dq/sdk_unit_test/smart_device_rev_a/libsdk_unit_test.a(accelerometer_test.o)
                                                  /home/leon/git/swp-report/iMX6_Platform_SDK/output/mx6dq/sdk_unit_test/smart_device_rev_a/obj/apps/sdk_unit_test/src/all_test.o
arm_branch_prediction_disable                     /home/leon/git/swp-report/iMX6_Platform_SDK/output/mx6dq/lib/libsdk.a(cortexA9.o)
arm_branch_prediction_enable                      /home/leon/git/swp-report/iMX6_Platform_SDK/output/mx6dq/lib/libsdk.a(cortexA9.o)
arm_branch_target_cache_invalidate                /home/leon/git/swp-report/iMX6_Platform_SDK/output/mx6dq/lib/libsdk.a(cortexA9.o)
arm_branch_target_cache_invalidate_is             /home/leon/git/swp-report/iMX6_Platform_SDK/output/mx6dq/lib/libsdk.a(cortexA9.o)
arm_dcache_disable                                /home/leon/git/swp-report/iMX6_Platform_SDK/output/mx6dq/lib/libsdk.a(armv7_cache.o)
                                                  /home/leon/git/swp-report/iMX6_Platform_SDK/output/mx6dq/sdk_unit_test/smart_device_rev_a/libsdk_unit_test.a(cpu_wp_test.o)
arm_dcache_enable                                 /home/leon/git/swp-report/iMX6_Platform_SDK/output/mx6dq/lib/libsdk.a(armv7_cache.o)
arm_dcache_flush                                  /home/leon/git/swp-report/iMX6_Platform_SDK/output/mx6dq/lib/libsdk.a(armv7_cache.o)
                                                  /home/leon/git/swp-report/iMX6_Platform_SDK/output/mx6dq/sdk_unit_test/smart_device_rev_a/libsdk_unit_test.a(cpu_wp_test.o)
arm_dcache_flush_line                             /home/leon/git/swp-report/iMX6_Platform_SDK/output/mx6dq/lib/libsdk.a(armv7_cache.o)
arm_dcache_flush_mlines                           /home/leon/git/swp-report/iMX6_Platform_SDK/output/mx6dq/lib/libsdk.a(armv7_cache.o)
                                                  /home/leon/git/swp-report/iMX6_Platform_SDK/output/mx6dq/lib/libsdk.a(usdhc.o)
arm_dcache_invalidate                             /home/leon/git/swp-report/iMX6_Platform_SDK/output/mx6dq/lib/libsdk.a(armv7_cache.o)
                                                  /home/leon/git/swp-report/iMX6_Platform_SDK/output/mx6dq/sdk_unit_test/smart_device_rev_a/libsdk_unit_test.a(cpu_wp_test.o)
arm_dcache_invalidate_line                        /home/leon/git/swp-report/iMX6_Platform_SDK/output/mx6dq/lib/libsdk.a(armv7_cache.o)
arm_dcache_invalidate_mlines                      /home/leon/git/swp-report/iMX6_Platform_SDK/output/mx6dq/lib/libsdk.a(armv7_cache.o)
                                                  /home/leon/git/swp-report/iMX6_Platform_SDK/output/mx6dq/lib/libsdk.a(usdhc.o)
arm_dcache_state_query                            /home/leon/git/swp-report/iMX6_Platform_SDK/output/mx6dq/lib/libsdk.a(armv7_cache.o)
                                                  /home/leon/git/swp-report/iMX6_Platform_SDK/output/mx6dq/lib/libsdk.a(usdhc.o)
                                                  /home/leon/git/swp-report/iMX6_Platform_SDK/output/mx6dq/sdk_unit_test/smart_device_rev_a/libsdk_unit_test.a(cpu_wp_test.o)
arm_icache_disable                                /home/leon/git/swp-report/iMX6_Platform_SDK/output/mx6dq/lib/libsdk.a(armv7_cache.o)
arm_icache_enable                                 /home/leon/git/swp-report/iMX6_Platform_SDK/output/mx6dq/lib/libsdk.a(armv7_cache.o)
arm_icache_invalidate                             /home/leon/git/swp-report/iMX6_Platform_SDK/output/mx6dq/lib/libsdk.a(armv7_cache.o)
arm_icache_invalidate_is                          /home/leon/git/swp-report/iMX6_Platform_SDK/output/mx6dq/lib/libsdk.a(armv7_cache.o)
arm_icache_invalidate_line                        /home/leon/git/swp-report/iMX6_Platform_SDK/output/mx6dq/lib/libsdk.a(armv7_cache.o)
arm_icache_invalidate_mlines                      /home/leon/git/swp-report/iMX6_Platform_SDK/output/mx6dq/lib/libsdk.a(armv7_cache.o)
arm_icache_state_query                            /home/leon/git/swp-report/iMX6_Platform_SDK/output/mx6dq/lib/libsdk.a(armv7_cache.o)
arm_iomux_config                                  /home/leon/git/swp-report/iMX6_Platform_SDK/output/mx6dq/lib/libboard_smart_device_rev_a.a(iomux_config.o)
arm_set_interrupt_state                           /home/leon/git/swp-report/iMX6_Platform_SDK/output/mx6dq/lib/libsdk.a(cortexA9.o)
                                                  /home/leon/git/swp-report/iMX6_Platform_SDK/output/mx6dq/sdk_unit_test/smart_device_rev_a/obj/apps/common/platform_init.o
arm_unified_tlb_invalidate                        /home/leon/git/swp-report/iMX6_Platform_SDK/output/mx6dq/lib/libsdk.a(cortexA9.o)
                                                  /home/leon/git/swp-report/iMX6_Platform_SDK/output/mx6dq/lib/libsdk.a(mmu.o)
arm_unified_tlb_invalidate_is                     /home/leon/git/swp-report/iMX6_Platform_SDK/output/mx6dq/lib/libsdk.a(cortexA9.o)
asrc_iomux_config                                 /home/leon/git/swp-report/iMX6_Platform_SDK/output/mx6dq/lib/libboard_smart_device_rev_a.a(iomux_config.o)
audio_ComputeCTS                                  /home/leon/git/swp-report/iMX6_Platform_SDK/output/mx6dq/lib/libsdk.a(hdmi_tx_audio.o)
audio_ComputeN                                    /home/leon/git/swp-report/iMX6_Platform_SDK/output/mx6dq/lib/libsdk.a(hdmi_tx_audio.o)
audio_Configure                                   /home/leon/git/swp-report/iMX6_Platform_SDK/output/mx6dq/lib/libsdk.a(hdmi_tx_audio.o)
                                                  /home/leon/git/swp-report/iMX6_Platform_SDK/output/mx6dq/sdk_unit_test/smart_device_rev_a/libsdk_unit_test.a(hdmi_test.o)
audio_Configure_DMA                               /home/leon/git/swp-report/iMX6_Platform_SDK/output/mx6dq/lib/libsdk.a(hdmi_tx_audio.o)
                                                  /home/leon/git/swp-report/iMX6_Platform_SDK/output/mx6dq/sdk_unit_test/smart_device_rev_a/libsdk_unit_test.a(hdmi_test.o)
audio_DMA_BurstMode                               /home/leon/git/swp-report/iMX6_Platform_SDK/output/mx6dq/lib/libsdk.a(hdmi_tx_audio.o)
audio_DMA_IncrType                                /home/leon/git/swp-report/iMX6_Platform_SDK/output/mx6dq/lib/libsdk.a(hdmi_tx_audio.o)
audio_DMA_InterruptMask                           /home/leon/git/swp-report/iMX6_Platform_SDK/output/mx6dq/lib/libsdk.a(hdmi_tx_audio.o)
audio_DMA_InterruptPolarity                       /home/leon/git/swp-report/iMX6_Platform_SDK/output/mx6dq/lib/libsdk.a(hdmi_tx_audio.o)
audio_DMA_LockEnable                              /home/leon/git/swp-report/iMX6_Platform_SDK/output/mx6dq/lib/libsdk.a(hdmi_tx_audio.o)
audio_DMA_ResetFIFO                               /home/leon/git/swp-report/iMX6_Platform_SDK/output/mx6dq/lib/libsdk.a(hdmi_tx_audio.o)
audio_DMA_SetCONF1                                /home/leon/git/swp-report/iMX6_Platform_SDK/output/mx6dq/lib/libsdk.a(hdmi_tx_audio.o)
audio_DMA_Start                                   /home/leon/git/swp-report/iMX6_Platform_SDK/output/mx6dq/lib/libsdk.a(hdmi_tx_audio.o)
audio_DMA_StartAddr                               /home/leon/git/swp-report/iMX6_Platform_SDK/output/mx6dq/lib/libsdk.a(hdmi_tx_audio.o)
audio_DMA_StopAddr                                /home/leon/git/swp-report/iMX6_Platform_SDK/output/mx6dq/lib/libsdk.a(hdmi_tx_audio.o)
audio_DMA_Threshold                               /home/leon/git/swp-report/iMX6_Platform_SDK/output/mx6dq/lib/libsdk.a(hdmi_tx_audio.o)
audio_PacketLayout                                /home/leon/git/swp-report/iMX6_Platform_SDK/output/mx6dq/lib/libsdk.a(hdmi_tx_audio.o)
audio_clk_CTS                                     /home/leon/git/swp-report/iMX6_Platform_SDK/output/mx6dq/lib/libsdk.a(hdmi_tx_audio.o)
audio_clk_N                                       /home/leon/git/swp-report/iMX6_Platform_SDK/output/mx6dq/lib/libsdk.a(hdmi_tx_audio.o)
audio_clock_config                                /home/leon/git/swp-report/iMX6_Platform_SDK/output/mx6dq/lib/libboard_smart_device_rev_a.a(board_audio.o)
audio_codec_power_on                              /home/leon/git/swp-report/iMX6_Platform_SDK/output/mx6dq/lib/libboard_smart_device_rev_a.a(board_audio.o)
                                                  /home/leon/git/swp-report/iMX6_Platform_SDK/output/mx6dq/lib/libsdk.a(smd_sensor.o)
audio_info_config                                 /home/leon/git/swp-report/iMX6_Platform_SDK/output/mx6dq/lib/libsdk.a(hdmi_tx_audio.o)
audio_test                                        /home/leon/git/swp-report/iMX6_Platform_SDK/output/mx6dq/sdk_unit_test/smart_device_rev_a/libsdk_unit_test.a(audio_test.o)
                                                  /home/leon/git/swp-report/iMX6_Platform_SDK/output/mx6dq/sdk_unit_test/smart_device_rev_a/obj/apps/sdk_unit_test/src/all_test.o
audmux_iomux_config                               /home/leon/git/swp-report/iMX6_Platform_SDK/output/mx6dq/lib/libboard_smart_device_rev_a.a(audmux_iomux_config.o)
                                                  /home/leon/git/swp-report/iMX6_Platform_SDK/output/mx6dq/lib/libboard_smart_device_rev_a.a(iomux_config.o)
bd                                                /home/leon/git/swp-report/iMX6_Platform_SDK/output/mx6dq/sdk_unit_test/smart_device_rev_a/obj/apps/common/ivt.o
board_description                                 /home/leon/git/swp-report/iMX6_Platform_SDK/output/mx6dq/lib/libsdk.a(board_id.o)
board_ioexpander_init                             /home/leon/git/swp-report/iMX6_Platform_SDK/output/mx6dq/lib/libboard_smart_device_rev_a.a(board_io_expanders.o)
                                                  /home/leon/git/swp-report/iMX6_Platform_SDK/output/mx6dq/sdk_unit_test/smart_device_rev_a/obj/apps/common/platform_init.o
board_ioexpander_iomux_config                     /home/leon/git/swp-report/iMX6_Platform_SDK/output/mx6dq/lib/libboard_smart_device_rev_a.a(board_io_expanders.o)
                                                  /home/leon/git/swp-report/iMX6_Platform_SDK/output/mx6dq/lib/libboard_smart_device_rev_a.a(board_sata.o)
board_name                                        /home/leon/git/swp-report/iMX6_Platform_SDK/output/mx6dq/lib/libsdk.a(board_id.o)
                                                  /home/leon/git/swp-report/iMX6_Platform_SDK/output/mx6dq/sdk_unit_test/smart_device_rev_a/obj/apps/common/print_version.o
board_revision                                    /home/leon/git/swp-report/iMX6_Platform_SDK/output/mx6dq/lib/libsdk.a(board_id.o)
                                                  /home/leon/git/swp-report/iMX6_Platform_SDK/output/mx6dq/sdk_unit_test/smart_device_rev_a/obj/apps/common/print_version.o
bzero                                             /home/leon/riotboard/arm-2012.09/bin/../arm-none-eabi/lib//libc.a(lib_a-bzero.o)
                                                  /home/leon/git/swp-report/iMX6_Platform_SDK/output/mx6dq/lib/libsdk.a(mmu.o)
camera_ipu1_iomux_config                          /home/leon/git/swp-report/iMX6_Platform_SDK/output/mx6dq/lib/libboard_smart_device_rev_a.a(board_camera.o)
camera_power_on                                   /home/leon/git/swp-report/iMX6_Platform_SDK/output/mx6dq/lib/libboard_smart_device_rev_a.a(board_camera.o)
                                                  /home/leon/git/swp-report/iMX6_Platform_SDK/output/mx6dq/lib/libsdk.a(smd_sensor.o)
camera_strobeflash_off                            /home/leon/git/swp-report/iMX6_Platform_SDK/output/mx6dq/lib/libsdk.a(smd_sensor.o)
camera_strobeflash_on                             /home/leon/git/swp-report/iMX6_Platform_SDK/output/mx6dq/lib/libsdk.a(smd_sensor.o)
camera_test                                       /home/leon/git/swp-report/iMX6_Platform_SDK/output/mx6dq/sdk_unit_test/smart_device_rev_a/libsdk_unit_test.a(camera_test.o)
                                                  /home/leon/git/swp-report/iMX6_Platform_SDK/output/mx6dq/sdk_unit_test/smart_device_rev_a/obj/apps/sdk_unit_test/src/all_test.o
card_cmd_config                                   /home/leon/git/swp-report/iMX6_Platform_SDK/output/mx6dq/lib/libsdk.a(usdhc.o)
                                                  /home/leon/git/swp-report/iMX6_Platform_SDK/output/mx6dq/lib/libsdk.a(usdhc_sd.o)
                                                  /home/leon/git/swp-report/iMX6_Platform_SDK/output/mx6dq/lib/libsdk.a(usdhc_mmc.o)
card_data_read                                    /home/leon/git/swp-report/iMX6_Platform_SDK/output/mx6dq/lib/libsdk.a(usdhc.o)
                                                  /home/leon/git/swp-report/iMX6_Platform_SDK/output/mx6dq/sdk_unit_test/smart_device_rev_a/libsdk_unit_test.a(usdhc_test.o)
card_data_write                                   /home/leon/git/swp-report/iMX6_Platform_SDK/output/mx6dq/lib/libsdk.a(usdhc.o)
                                                  /home/leon/git/swp-report/iMX6_Platform_SDK/output/mx6dq/sdk_unit_test/smart_device_rev_a/libsdk_unit_test.a(usdhc_test.o)
card_detect_test_en                               /home/leon/git/swp-report/iMX6_Platform_SDK/output/mx6dq/lib/libsdk.a(usdhc.o)
card_emmc_init                                    /home/leon/git/swp-report/iMX6_Platform_SDK/output/mx6dq/lib/libsdk.a(usdhc.o)
                                                  /home/leon/git/swp-report/iMX6_Platform_SDK/output/mx6dq/sdk_unit_test/smart_device_rev_a/libsdk_unit_test.a(usdhc_test.o)
card_enter_trans                                  /home/leon/git/swp-report/iMX6_Platform_SDK/output/mx6dq/lib/libsdk.a(usdhc.o)
                                                  /home/leon/git/swp-report/iMX6_Platform_SDK/output/mx6dq/lib/libsdk.a(usdhc_sd.o)
                                                  /home/leon/git/swp-report/iMX6_Platform_SDK/output/mx6dq/lib/libsdk.a(usdhc_mmc.o)
card_get_cid                                      /home/leon/git/swp-report/iMX6_Platform_SDK/output/mx6dq/lib/libsdk.a(usdhc.o)
                                                  /home/leon/git/swp-report/iMX6_Platform_SDK/output/mx6dq/lib/libsdk.a(usdhc_sd.o)
                                                  /home/leon/git/swp-report/iMX6_Platform_SDK/output/mx6dq/lib/libsdk.a(usdhc_mmc.o)
card_get_port                                     /home/leon/git/swp-report/iMX6_Platform_SDK/output/mx6dq/lib/libsdk.a(usdhc.o)
                                                  /home/leon/git/swp-report/iMX6_Platform_SDK/output/mx6dq/lib/libsdk.a(usdhc_sd.o)
                                                  /home/leon/git/swp-report/iMX6_Platform_SDK/output/mx6dq/lib/libsdk.a(usdhc_mmc.o)
                                                  /home/leon/git/swp-report/iMX6_Platform_SDK/output/mx6dq/lib/libsdk.a(usdhc_host.o)
card_init                                         /home/leon/git/swp-report/iMX6_Platform_SDK/output/mx6dq/lib/libsdk.a(usdhc.o)
                                                  /home/leon/git/swp-report/iMX6_Platform_SDK/output/mx6dq/sdk_unit_test/smart_device_rev_a/libsdk_unit_test.a(usdhc_test.o)
card_set_blklen                                   /home/leon/git/swp-report/iMX6_Platform_SDK/output/mx6dq/lib/libsdk.a(usdhc.o)
card_trans_status                                 /home/leon/git/swp-report/iMX6_Platform_SDK/output/mx6dq/lib/libsdk.a(usdhc.o)
                                                  /home/leon/git/swp-report/iMX6_Platform_SDK/output/mx6dq/lib/libsdk.a(usdhc_mmc.o)
card_wait_xfer_done                               /home/leon/git/swp-report/iMX6_Platform_SDK/output/mx6dq/lib/libsdk.a(usdhc.o)
card_xfer_result                                  /home/leon/git/swp-report/iMX6_Platform_SDK/output/mx6dq/lib/libsdk.a(usdhc.o)
                                                  /home/leon/git/swp-report/iMX6_Platform_SDK/output/mx6dq/sdk_unit_test/smart_device_rev_a/libsdk_unit_test.a(usdhc_test.o)
ccm_ccgr_config                                   /home/leon/git/swp-report/iMX6_Platform_SDK/output/mx6dq/lib/libsdk.a(ccm_pll.o)
ccm_enter_low_power                               /home/leon/git/swp-report/iMX6_Platform_SDK/output/mx6dq/lib/libsdk.a(ccm_pll.o)
ccm_init                                          /home/leon/git/swp-report/iMX6_Platform_SDK/output/mx6dq/lib/libsdk.a(ccm_pll.o)
                                                  /home/leon/git/swp-report/iMX6_Platform_SDK/output/mx6dq/sdk_unit_test/smart_device_rev_a/obj/apps/common/platform_init.o
ccm_iomux_config                                  /home/leon/git/swp-report/iMX6_Platform_SDK/output/mx6dq/lib/libboard_smart_device_rev_a.a(ccm_iomux_config.o)
                                                  /home/leon/git/swp-report/iMX6_Platform_SDK/output/mx6dq/lib/libboard_smart_device_rev_a.a(board_audio.o)
                                                  /home/leon/git/swp-report/iMX6_Platform_SDK/output/mx6dq/lib/libboard_smart_device_rev_a.a(iomux_config.o)
ccm_set_lpm_wakeup_source                         /home/leon/git/swp-report/iMX6_Platform_SDK/output/mx6dq/lib/libsdk.a(ccm_pll.o)
chip_name                                         /home/leon/git/swp-report/iMX6_Platform_SDK/output/mx6dq/lib/libsdk.a(board_id.o)
                                                  /home/leon/git/swp-report/iMX6_Platform_SDK/output/mx6dq/sdk_unit_test/smart_device_rev_a/obj/apps/common/print_version.o
chip_revision                                     /home/leon/git/swp-report/iMX6_Platform_SDK/output/mx6dq/lib/libsdk.a(board_id.o)
                                                  /home/leon/git/swp-report/iMX6_Platform_SDK/output/mx6dq/sdk_unit_test/smart_device_rev_a/obj/apps/common/print_version.o
cleanup_glue                                      /home/leon/riotboard/arm-2012.09/bin/../arm-none-eabi/lib//libc.a(lib_a-reent.o)
clock_gating_config                               /home/leon/git/swp-report/iMX6_Platform_SDK/output/mx6dq/lib/libsdk.a(ccm_pll.o)
                                                  /home/leon/git/swp-report/iMX6_Platform_SDK/output/mx6dq/lib/libboard_smart_device_rev_a.a(board_sata.o)
                                                  /home/leon/git/swp-report/iMX6_Platform_SDK/output/mx6dq/lib/libboard_smart_device_rev_a.a(board_audio.o)
                                                  /home/leon/git/swp-report/iMX6_Platform_SDK/output/mx6dq/lib/libsdk.a(gpt.o)
                                                  /home/leon/git/swp-report/iMX6_Platform_SDK/output/mx6dq/lib/libsdk.a(ecspi.o)
                                                  /home/leon/git/swp-report/iMX6_Platform_SDK/output/mx6dq/lib/libsdk.a(imx_i2c.o)
                                                  /home/leon/git/swp-report/iMX6_Platform_SDK/output/mx6dq/lib/libsdk.a(epit.o)
                                                  /home/leon/git/swp-report/iMX6_Platform_SDK/output/mx6dq/lib/libsdk.a(imx_uart.o)
cmdhdr                                            /home/leon/git/swp-report/iMX6_Platform_SDK/output/mx6dq/lib/libsdk.a(sata.o)
cmdtbl                                            /home/leon/git/swp-report/iMX6_Platform_SDK/output/mx6dq/lib/libsdk.a(sata.o)
common_abort_handler                              /home/leon/git/swp-report/iMX6_Platform_SDK/output/mx6dq/lib/libsdk.a(arm_abort.o)
compute_alarm                                     /home/leon/git/swp-report/iMX6_Platform_SDK/output/mx6dq/lib/libsdk.a(tempmon.o)
compute_temp                                      /home/leon/git/swp-report/iMX6_Platform_SDK/output/mx6dq/lib/libsdk.a(tempmon.o)
copysignf                                         /home/leon/riotboard/arm-2012.09/bin/../arm-none-eabi/lib//libm.a(lib_a-sf_copysign.o)
                                                  /home/leon/riotboard/arm-2012.09/bin/../arm-none-eabi/lib//libm.a(lib_a-sf_scalbn.o)
cosf                                              /home/leon/riotboard/arm-2012.09/bin/../arm-none-eabi/lib//libm.a(lib_a-sf_cos.o)
                                                  /home/leon/git/swp-report/iMX6_Platform_SDK/output/mx6dq/sdk_unit_test/smart_device_rev_a/libsdk_unit_test.a(usb0_device_mouse_test.o)
cpu_disable                                       /home/leon/git/swp-report/iMX6_Platform_SDK/output/mx6dq/lib/libsdk.a(cpu_multicore.o)
                                                  /home/leon/git/swp-report/iMX6_Platform_SDK/output/mx6dq/sdk_unit_test/smart_device_rev_a/libsdk_unit_test.a(multicore_test.o)
cpu_get_cores                                     /home/leon/git/swp-report/iMX6_Platform_SDK/output/mx6dq/lib/libsdk.a(cpu_get_cores.o)
                                                  /home/leon/git/swp-report/iMX6_Platform_SDK/output/mx6dq/lib/libsdk.a(cpu_multicore.o)
                                                  /home/leon/git/swp-report/iMX6_Platform_SDK/output/mx6dq/sdk_unit_test/smart_device_rev_a/libsdk_unit_test.a(multicore_test.o)
cpu_get_current                                   /home/leon/git/swp-report/iMX6_Platform_SDK/output/mx6dq/lib/libsdk.a(cortexA9.o)
                                                  /home/leon/git/swp-report/iMX6_Platform_SDK/output/mx6dq/lib/libsdk.a(spinlock_lock_unlock.o)
                                                  /home/leon/git/swp-report/iMX6_Platform_SDK/output/mx6dq/lib/libsdk.a(cpu_multicore.o)
                                                  /home/leon/git/swp-report/iMX6_Platform_SDK/output/mx6dq/sdk_unit_test/smart_device_rev_a/libsdk_unit_test.a(multicore_test.o)
cpu_start_secondary                               /home/leon/git/swp-report/iMX6_Platform_SDK/output/mx6dq/lib/libsdk.a(cpu_multicore.o)
                                                  /home/leon/git/swp-report/iMX6_Platform_SDK/output/mx6dq/sdk_unit_test/smart_device_rev_a/libsdk_unit_test.a(multicore_test.o)
cpu_workpoint_set                                 /home/leon/git/swp-report/iMX6_Platform_SDK/output/mx6dq/lib/libsdk.a(cpu_workpoint.o)
                                                  /home/leon/git/swp-report/iMX6_Platform_SDK/output/mx6dq/sdk_unit_test/smart_device_rev_a/libsdk_unit_test.a(cpu_wp_test.o)
cpu_wp_test                                       /home/leon/git/swp-report/iMX6_Platform_SDK/output/mx6dq/sdk_unit_test/smart_device_rev_a/libsdk_unit_test.a(cpu_wp_test.o)
                                                  /home/leon/git/swp-report/iMX6_Platform_SDK/output/mx6dq/sdk_unit_test/smart_device_rev_a/obj/apps/sdk_unit_test/src/all_test.o
csi_dma_band_mode                                 /home/leon/git/swp-report/iMX6_Platform_SDK/output/mx6dq/lib/libsdk.a(ipu_common.o)
                                                  /home/leon/git/swp-report/iMX6_Platform_SDK/output/mx6dq/sdk_unit_test/smart_device_rev_a/libsdk_unit_test.a(csi_test_mode.o)
                                                  /home/leon/git/swp-report/iMX6_Platform_SDK/output/mx6dq/sdk_unit_test/smart_device_rev_a/libsdk_unit_test.a(camera_test.o)
csi_port0_iomux_config                            /home/leon/git/swp-report/iMX6_Platform_SDK/output/mx6dq/lib/libboard_smart_device_rev_a.a(board_camera.o)
                                                  /home/leon/git/swp-report/iMX6_Platform_SDK/output/mx6dq/lib/libsdk.a(smd_sensor.o)
csi_test_mode                                     /home/leon/git/swp-report/iMX6_Platform_SDK/output/mx6dq/sdk_unit_test/smart_device_rev_a/libsdk_unit_test.a(csi_test_mode.o)
                                                  /home/leon/git/swp-report/iMX6_Platform_SDK/output/mx6dq/sdk_unit_test/smart_device_rev_a/libsdk_unit_test.a(camera_test.o)
csi_vdi_direct_path                               /home/leon/git/swp-report/iMX6_Platform_SDK/output/mx6dq/lib/libsdk.a(ipu_common.o)
                                                  /home/leon/git/swp-report/iMX6_Platform_SDK/output/mx6dq/lib/libsdk.a(ipu_idmac.o)
                                                  /home/leon/git/swp-report/iMX6_Platform_SDK/output/mx6dq/lib/libsdk.a(ipu_csi.o)
data_abort_handler                                /home/leon/git/swp-report/iMX6_Platform_SDK/output/mx6dq/lib/libsdk.a(arm_abort.o)
                                                  /home/leon/git/swp-report/iMX6_Platform_SDK/output/mx6dq/lib/libsdk.a(vectors.o)
dcic1_iomux_config                                /home/leon/git/swp-report/iMX6_Platform_SDK/output/mx6dq/lib/libboard_smart_device_rev_a.a(iomux_config.o)
dcic2_iomux_config                                /home/leon/git/swp-report/iMX6_Platform_SDK/output/mx6dq/lib/libboard_smart_device_rev_a.a(iomux_config.o)
default_interrupt_routine                         /home/leon/git/swp-report/iMX6_Platform_SDK/output/mx6dq/lib/libsdk.a(interrupt.o)
dev_spi_nor                                       /home/leon/git/swp-report/iMX6_Platform_SDK/output/mx6dq/sdk_unit_test/smart_device_rev_a/libsdk_unit_test.a(spi_test.o)
                                                  /home/leon/git/swp-report/iMX6_Platform_SDK/output/mx6dq/sdk_unit_test/smart_device_rev_a/libsdk_unit_test.a(spi_nor_numonyx.o)
disable_L1_cache                                  /home/leon/git/swp-report/iMX6_Platform_SDK/output/mx6dq/lib/libsdk.a(cortexA9.o)
disable_interrupt                                 /home/leon/git/swp-report/iMX6_Platform_SDK/output/mx6dq/lib/libsdk.a(interrupt.o)
                                                  /home/leon/git/swp-report/iMX6_Platform_SDK/output/mx6dq/lib/libsdk.a(usdhc.o)
                                                  /home/leon/git/swp-report/iMX6_Platform_SDK/output/mx6dq/lib/libsdk.a(gpt.o)
                                                  /home/leon/git/swp-report/iMX6_Platform_SDK/output/mx6dq/lib/libsdk.a(tempmon.o)
                                                  /home/leon/git/swp-report/iMX6_Platform_SDK/output/mx6dq/lib/libsdk.a(srtc.o)
                                                  /home/leon/git/swp-report/iMX6_Platform_SDK/output/mx6dq/lib/libsdk.a(rtc.o)
                                                  /home/leon/git/swp-report/iMX6_Platform_SDK/output/mx6dq/lib/libsdk.a(pwm.o)
                                                  /home/leon/git/swp-report/iMX6_Platform_SDK/output/mx6dq/lib/libsdk.a(keypad_port.o)
                                                  /home/leon/git/swp-report/iMX6_Platform_SDK/output/mx6dq/lib/libsdk.a(imx_i2c.o)
                                                  /home/leon/git/swp-report/iMX6_Platform_SDK/output/mx6dq/sdk_unit_test/smart_device_rev_a/libsdk_unit_test.a(hdmi_test.o)
                                                  /home/leon/git/swp-report/iMX6_Platform_SDK/output/mx6dq/lib/libsdk.a(epit.o)
                                                  /home/leon/git/swp-report/iMX6_Platform_SDK/output/mx6dq/lib/libsdk.a(imx_uart.o)
disable_para_panel                                /home/leon/git/swp-report/iMX6_Platform_SDK/output/mx6dq/lib/libboard_smart_device_rev_a.a(board_display.o)
disable_strict_align_check                        /home/leon/git/swp-report/iMX6_Platform_SDK/output/mx6dq/lib/libsdk.a(cortexA9.o)
                                                  /home/leon/git/swp-report/iMX6_Platform_SDK/output/mx6dq/sdk_unit_test/smart_device_rev_a/obj/apps/common/platform_init.o
disp_dev_list                                     /home/leon/git/swp-report/iMX6_Platform_SDK/output/mx6dq/lib/libsdk.a(ips_disp_panel.o)
dump_regs                                         /home/leon/git/swp-report/iMX6_Platform_SDK/output/mx6dq/lib/libsdk.a(abort_handler.o)
                                                  /home/leon/git/swp-report/iMX6_Platform_SDK/output/mx6dq/lib/libsdk.a(arm_abort.o)
ecspi1_iomux_config                               /home/leon/git/swp-report/iMX6_Platform_SDK/output/mx6dq/lib/libboard_smart_device_rev_a.a(ecspi1_iomux_config.o)
                                                  /home/leon/git/swp-report/iMX6_Platform_SDK/output/mx6dq/lib/libboard_smart_device_rev_a.a(ecspi_iomux_config.o)
                                                  /home/leon/git/swp-report/iMX6_Platform_SDK/output/mx6dq/lib/libboard_smart_device_rev_a.a(iomux_config.o)
ecspi2_iomux_config                               /home/leon/git/swp-report/iMX6_Platform_SDK/output/mx6dq/lib/libboard_smart_device_rev_a.a(iomux_config.o)
                                                  /home/leon/git/swp-report/iMX6_Platform_SDK/output/mx6dq/lib/libboard_smart_device_rev_a.a(ecspi_iomux_config.o)
ecspi3_iomux_config                               /home/leon/git/swp-report/iMX6_Platform_SDK/output/mx6dq/lib/libboard_smart_device_rev_a.a(iomux_config.o)
                                                  /home/leon/git/swp-report/iMX6_Platform_SDK/output/mx6dq/lib/libboard_smart_device_rev_a.a(ecspi_iomux_config.o)
ecspi4_iomux_config                               /home/leon/git/swp-report/iMX6_Platform_SDK/output/mx6dq/lib/libboard_smart_device_rev_a.a(iomux_config.o)
                                                  /home/leon/git/swp-report/iMX6_Platform_SDK/output/mx6dq/lib/libboard_smart_device_rev_a.a(ecspi_iomux_config.o)
ecspi5_iomux_config                               /home/leon/git/swp-report/iMX6_Platform_SDK/output/mx6dq/lib/libboard_smart_device_rev_a.a(iomux_config.o)
                                                  /home/leon/git/swp-report/iMX6_Platform_SDK/output/mx6dq/lib/libboard_smart_device_rev_a.a(ecspi_iomux_config.o)
ecspi_app_test                                    /home/leon/git/swp-report/iMX6_Platform_SDK/output/mx6dq/sdk_unit_test/smart_device_rev_a/libsdk_unit_test.a(spi_lpb.o)
ecspi_close                                       /home/leon/git/swp-report/iMX6_Platform_SDK/output/mx6dq/lib/libsdk.a(ecspi.o)
                                                  /home/leon/git/swp-report/iMX6_Platform_SDK/output/mx6dq/sdk_unit_test/smart_device_rev_a/libsdk_unit_test.a(spi_test.o)
ecspi_configure                                   /home/leon/git/swp-report/iMX6_Platform_SDK/output/mx6dq/lib/libsdk.a(ecspi.o)
                                                  /home/leon/git/swp-report/iMX6_Platform_SDK/output/mx6dq/sdk_unit_test/smart_device_rev_a/libsdk_unit_test.a(spi_test.o)
ecspi_iomux_config                                /home/leon/git/swp-report/iMX6_Platform_SDK/output/mx6dq/lib/libboard_smart_device_rev_a.a(ecspi_iomux_config.o)
                                                  /home/leon/git/swp-report/iMX6_Platform_SDK/output/mx6dq/lib/libsdk.a(ecspi.o)
ecspi_open                                        /home/leon/git/swp-report/iMX6_Platform_SDK/output/mx6dq/lib/libsdk.a(ecspi.o)
                                                  /home/leon/git/swp-report/iMX6_Platform_SDK/output/mx6dq/sdk_unit_test/smart_device_rev_a/libsdk_unit_test.a(spi_test.o)
ecspi_shp_test                                    /home/leon/git/swp-report/iMX6_Platform_SDK/output/mx6dq/sdk_unit_test/smart_device_rev_a/libsdk_unit_test.a(spi_lpb.o)
                                                  /home/leon/git/swp-report/iMX6_Platform_SDK/output/mx6dq/sdk_unit_test/smart_device_rev_a/libsdk_unit_test.a(sdma_test.o)
ecspi_xfer                                        /home/leon/git/swp-report/iMX6_Platform_SDK/output/mx6dq/lib/libsdk.a(ecspi.o)
                                                  /home/leon/git/swp-report/iMX6_Platform_SDK/output/mx6dq/sdk_unit_test/smart_device_rev_a/libsdk_unit_test.a(spi_nor_numonyx.o)
eim_iomux_config                                  /home/leon/git/swp-report/iMX6_Platform_SDK/output/mx6dq/lib/libboard_smart_device_rev_a.a(iomux_config.o)
emmc_init                                         /home/leon/git/swp-report/iMX6_Platform_SDK/output/mx6dq/lib/libsdk.a(usdhc_mmc.o)
                                                  /home/leon/git/swp-report/iMX6_Platform_SDK/output/mx6dq/lib/libsdk.a(usdhc.o)
emmc_print_cfg_info                               /home/leon/git/swp-report/iMX6_Platform_SDK/output/mx6dq/lib/libsdk.a(usdhc_mmc.o)
                                                  /home/leon/git/swp-report/iMX6_Platform_SDK/output/mx6dq/sdk_unit_test/smart_device_rev_a/libsdk_unit_test.a(usdhc_test.o)
emuerateDevice                                    /home/leon/git/swp-report/iMX6_Platform_SDK/output/mx6dq/sdk_unit_test/smart_device_rev_a/libsdk_unit_test.a(usb0_host_test.o)
enable_extrn_100mhz_clk                           /home/leon/git/swp-report/iMX6_Platform_SDK/output/mx6dq/lib/libboard_smart_device_rev_a.a(board_sata.o)
enable_interrupt                                  /home/leon/git/swp-report/iMX6_Platform_SDK/output/mx6dq/lib/libsdk.a(interrupt.o)
                                                  /home/leon/git/swp-report/iMX6_Platform_SDK/output/mx6dq/lib/libsdk.a(usdhc.o)
                                                  /home/leon/git/swp-report/iMX6_Platform_SDK/output/mx6dq/lib/libsdk.a(gpt.o)
                                                  /home/leon/git/swp-report/iMX6_Platform_SDK/output/mx6dq/lib/libsdk.a(tempmon.o)
                                                  /home/leon/git/swp-report/iMX6_Platform_SDK/output/mx6dq/lib/libsdk.a(sdma.o)
                                                  /home/leon/git/swp-report/iMX6_Platform_SDK/output/mx6dq/lib/libsdk.a(srtc.o)
                                                  /home/leon/git/swp-report/iMX6_Platform_SDK/output/mx6dq/lib/libsdk.a(rtc.o)
                                                  /home/leon/git/swp-report/iMX6_Platform_SDK/output/mx6dq/lib/libsdk.a(pwm.o)
                                                  /home/leon/git/swp-report/iMX6_Platform_SDK/output/mx6dq/lib/libsdk.a(keypad_port.o)
                                                  /home/leon/git/swp-report/iMX6_Platform_SDK/output/mx6dq/lib/libsdk.a(ipu_common.o)
                                                  /home/leon/git/swp-report/iMX6_Platform_SDK/output/mx6dq/lib/libsdk.a(imx_i2c.o)
                                                  /home/leon/git/swp-report/iMX6_Platform_SDK/output/mx6dq/sdk_unit_test/smart_device_rev_a/libsdk_unit_test.a(hdmi_test.o)
                                                  /home/leon/git/swp-report/iMX6_Platform_SDK/output/mx6dq/sdk_unit_test/smart_device_rev_a/libsdk_unit_test.a(gic_test.o)
                                                  /home/leon/git/swp-report/iMX6_Platform_SDK/output/mx6dq/lib/libsdk.a(epit.o)
                                                  /home/leon/git/swp-report/iMX6_Platform_SDK/output/mx6dq/lib/libsdk.a(imx_uart.o)
enable_neon_fpu                                   /home/leon/git/swp-report/iMX6_Platform_SDK/output/mx6dq/lib/libsdk.a(cortexA9.o)
                                                  /home/leon/git/swp-report/iMX6_Platform_SDK/output/mx6dq/sdk_unit_test/smart_device_rev_a/obj/apps/common/platform_init.o
endpointList                                      /home/leon/git/swp-report/iMX6_Platform_SDK/output/mx6dq/sdk_unit_test/smart_device_rev_a/libsdk_unit_test.a(usb0_device_mouse_test.o)
enet_iomux_config                                 /home/leon/git/swp-report/iMX6_Platform_SDK/output/mx6dq/lib/libboard_smart_device_rev_a.a(enet_iomux_config.o)
                                                  /home/leon/git/swp-report/iMX6_Platform_SDK/output/mx6dq/lib/libboard_smart_device_rev_a.a(board_network.o)
                                                  /home/leon/git/swp-report/iMX6_Platform_SDK/output/mx6dq/lib/libboard_smart_device_rev_a.a(iomux_config.o)
enet_phy_rework_ar8031                            /home/leon/git/swp-report/iMX6_Platform_SDK/output/mx6dq/lib/libsdk.a(enet_drv.o)
enet_phy_rework_ksz9021                           /home/leon/git/swp-report/iMX6_Platform_SDK/output/mx6dq/lib/libsdk.a(enet_drv.o)
enet_test                                         /home/leon/git/swp-report/iMX6_Platform_SDK/output/mx6dq/sdk_unit_test/smart_device_rev_a/libsdk_unit_test.a(enet_test.o)
                                                  /home/leon/git/swp-report/iMX6_Platform_SDK/output/mx6dq/sdk_unit_test/smart_device_rev_a/obj/apps/sdk_unit_test/src/all_test.o
environ                                           /home/leon/git/swp-report/iMX6_Platform_SDK/output/mx6dq/lib/libsdk.a(runtime_support.o)
ep1_resources                                     /home/leon/git/swp-report/iMX6_Platform_SDK/output/mx6dq/sdk_unit_test/smart_device_rev_a/libsdk_unit_test.a(pcie_test_rc.o)
epdc_clock_setting                                /home/leon/git/swp-report/iMX6_Platform_SDK/output/mx6dq/lib/libboard_smart_device_rev_a.a(board_display.o)
epdc_power_supply                                 /home/leon/git/swp-report/iMX6_Platform_SDK/output/mx6dq/lib/libboard_smart_device_rev_a.a(board_display.o)
epit1_iomux_config                                /home/leon/git/swp-report/iMX6_Platform_SDK/output/mx6dq/lib/libboard_smart_device_rev_a.a(iomux_config.o)
epit2_iomux_config                                /home/leon/git/swp-report/iMX6_Platform_SDK/output/mx6dq/lib/libboard_smart_device_rev_a.a(iomux_config.o)
epit_counter_disable                              /home/leon/git/swp-report/iMX6_Platform_SDK/output/mx6dq/lib/libsdk.a(epit.o)
                                                  /home/leon/git/swp-report/iMX6_Platform_SDK/output/mx6dq/sdk_unit_test/smart_device_rev_a/libsdk_unit_test.a(epit_test.o)
                                                  /home/leon/git/swp-report/iMX6_Platform_SDK/output/mx6dq/sdk_unit_test/smart_device_rev_a/libsdk_unit_test.a(cpu_wp_test.o)
                                                  /home/leon/git/swp-report/iMX6_Platform_SDK/output/mx6dq/lib/libsdk.a(timer.o)
epit_counter_enable                               /home/leon/git/swp-report/iMX6_Platform_SDK/output/mx6dq/lib/libsdk.a(epit.o)
                                                  /home/leon/git/swp-report/iMX6_Platform_SDK/output/mx6dq/sdk_unit_test/smart_device_rev_a/libsdk_unit_test.a(epit_test.o)
                                                  /home/leon/git/swp-report/iMX6_Platform_SDK/output/mx6dq/sdk_unit_test/smart_device_rev_a/libsdk_unit_test.a(cpu_wp_test.o)
                                                  /home/leon/git/swp-report/iMX6_Platform_SDK/output/mx6dq/lib/libsdk.a(timer.o)
epit_get_compare_event                            /home/leon/git/swp-report/iMX6_Platform_SDK/output/mx6dq/lib/libsdk.a(epit.o)
                                                  /home/leon/git/swp-report/iMX6_Platform_SDK/output/mx6dq/sdk_unit_test/smart_device_rev_a/libsdk_unit_test.a(epit_test.o)
                                                  /home/leon/git/swp-report/iMX6_Platform_SDK/output/mx6dq/lib/libsdk.a(timer.o)
epit_get_counter_value                            /home/leon/git/swp-report/iMX6_Platform_SDK/output/mx6dq/lib/libsdk.a(epit.o)
                                                  /home/leon/git/swp-report/iMX6_Platform_SDK/output/mx6dq/sdk_unit_test/smart_device_rev_a/libsdk_unit_test.a(cpu_wp_test.o)
epit_init                                         /home/leon/git/swp-report/iMX6_Platform_SDK/output/mx6dq/lib/libsdk.a(epit.o)
                                                  /home/leon/git/swp-report/iMX6_Platform_SDK/output/mx6dq/sdk_unit_test/smart_device_rev_a/libsdk_unit_test.a(epit_test.o)
                                                  /home/leon/git/swp-report/iMX6_Platform_SDK/output/mx6dq/sdk_unit_test/smart_device_rev_a/libsdk_unit_test.a(cpu_wp_test.o)
                                                  /home/leon/git/swp-report/iMX6_Platform_SDK/output/mx6dq/lib/libsdk.a(timer.o)
epit_reload_counter                               /home/leon/git/swp-report/iMX6_Platform_SDK/output/mx6dq/lib/libsdk.a(epit.o)
epit_set_compare_event                            /home/leon/git/swp-report/iMX6_Platform_SDK/output/mx6dq/lib/libsdk.a(epit.o)
epit_setup_interrupt                              /home/leon/git/swp-report/iMX6_Platform_SDK/output/mx6dq/lib/libsdk.a(epit.o)
                                                  /home/leon/git/swp-report/iMX6_Platform_SDK/output/mx6dq/sdk_unit_test/smart_device_rev_a/libsdk_unit_test.a(epit_test.o)
                                                  /home/leon/git/swp-report/iMX6_Platform_SDK/output/mx6dq/sdk_unit_test/smart_device_rev_a/libsdk_unit_test.a(cpu_wp_test.o)
epit_test                                         /home/leon/git/swp-report/iMX6_Platform_SDK/output/mx6dq/sdk_unit_test/smart_device_rev_a/libsdk_unit_test.a(epit_test.o)
                                                  /home/leon/git/swp-report/iMX6_Platform_SDK/output/mx6dq/sdk_unit_test/smart_device_rev_a/obj/apps/sdk_unit_test/src/all_test.o
errno                                             /home/leon/git/swp-report/iMX6_Platform_SDK/output/mx6dq/lib/libsdk.a(runtime_support.o)
                                                  /home/leon/riotboard/arm-2012.09/bin/../arm-none-eabi/lib//libc.a(lib_a-isattyr.o)
                                                  /home/leon/riotboard/arm-2012.09/bin/../arm-none-eabi/lib//libc.a(lib_a-fstatr.o)
                                                  /home/leon/riotboard/arm-2012.09/bin/../arm-none-eabi/lib//libc.a(lib_a-signalr.o)
                                                  /home/leon/riotboard/arm-2012.09/bin/../arm-none-eabi/lib//libc.a(lib_a-reent.o)
                                                  /home/leon/riotboard/arm-2012.09/bin/../arm-none-eabi/lib//libc.a(lib_a-readr.o)
                                                  /home/leon/riotboard/arm-2012.09/bin/../arm-none-eabi/lib//libc.a(lib_a-lseekr.o)
                                                  /home/leon/riotboard/arm-2012.09/bin/../arm-none-eabi/lib//libc.a(lib_a-closer.o)
                                                  /home/leon/riotboard/arm-2012.09/bin/../arm-none-eabi/lib//libc.a(lib_a-writer.o)
                                                  /home/leon/riotboard/arm-2012.09/bin/../arm-none-eabi/lib//libc.a(lib_a-sbrkr.o)
esai_clk_sel_gate_on                              /home/leon/git/swp-report/iMX6_Platform_SDK/output/mx6dq/lib/libboard_smart_device_rev_a.a(board_audio.o)
esai_codec_power_on                               /home/leon/git/swp-report/iMX6_Platform_SDK/output/mx6dq/lib/libboard_smart_device_rev_a.a(board_audio.o)
esai_iomux_config                                 /home/leon/git/swp-report/iMX6_Platform_SDK/output/mx6dq/lib/libboard_smart_device_rev_a.a(iomux_config.o)
exception_handler                                 /home/leon/git/swp-report/iMX6_Platform_SDK/output/mx6dq/lib/libsdk.a(vectors.o)
ext_hdmi_transmitter_power_on                     /home/leon/git/swp-report/iMX6_Platform_SDK/output/mx6dq/lib/libboard_smart_device_rev_a.a(board_hdmi.o)
                                                  /home/leon/git/swp-report/iMX6_Platform_SDK/output/mx6dq/lib/libsdk.a(ips_disp_panel.o)
fabsf                                             /home/leon/riotboard/arm-2012.09/bin/../arm-none-eabi/lib//libm.a(lib_a-sf_fabs.o)
                                                  /home/leon/riotboard/arm-2012.09/bin/../arm-none-eabi/lib//libm.a(lib_a-ef_rem_pio2.o)
                                                  /home/leon/git/swp-report/iMX6_Platform_SDK/output/mx6dq/sdk_unit_test/smart_device_rev_a/libsdk_unit_test.a(accelerometer_test.o)
fclose                                            /home/leon/riotboard/arm-2012.09/bin/../arm-none-eabi/lib//libc.a(lib_a-fclose.o)
                                                  /home/leon/riotboard/arm-2012.09/bin/../arm-none-eabi/lib//libc.a(lib_a-findfp.o)
fflush                                            /home/leon/riotboard/arm-2012.09/bin/../arm-none-eabi/lib//libc.a(lib_a-fflush.o)
                                                  /home/leon/riotboard/arm-2012.09/bin/../arm-none-eabi/lib//libc.a(lib_a-refill.o)
                                                  /home/leon/git/swp-report/iMX6_Platform_SDK/output/mx6dq/sdk_unit_test/smart_device_rev_a/libsdk_unit_test.a(accelerometer_test.o)
fillBuffer                                        /home/leon/git/swp-report/iMX6_Platform_SDK/output/mx6dq/sdk_unit_test/smart_device_rev_a/libsdk_unit_test.a(usb0_device_mouse_test.o)
fiprintf                                          /home/leon/riotboard/arm-2012.09/bin/../arm-none-eabi/lib//libc.a(lib_a-fiprintf.o)
                                                  /home/leon/riotboard/arm-2012.09/bin/../arm-none-eabi/lib//libc.a(lib_a-assert.o)
flexcan1_iomux_config                             /home/leon/git/swp-report/iMX6_Platform_SDK/output/mx6dq/lib/libboard_smart_device_rev_a.a(flexcan1_iomux_config.o)
                                                  /home/leon/git/swp-report/iMX6_Platform_SDK/output/mx6dq/lib/libboard_smart_device_rev_a.a(iomux_config.o)
flexcan2_iomux_config                             /home/leon/git/swp-report/iMX6_Platform_SDK/output/mx6dq/lib/libboard_smart_device_rev_a.a(iomux_config.o)
floorf                                            /home/leon/riotboard/arm-2012.09/bin/../arm-none-eabi/lib//libm.a(lib_a-sf_floor.o)
                                                  /home/leon/riotboard/arm-2012.09/bin/../arm-none-eabi/lib//libm.a(lib_a-kf_rem_pio2.o)
fputc                                             /home/leon/riotboard/arm-2012.09/bin/../arm-none-eabi/lib//libc.a(lib_a-fputc.o)
                                                  /home/leon/riotboard/arm-2012.09/bin/../arm-none-eabi/lib//libstdc++.a(vterminate.o)
                                                  /home/leon/git/swp-report/iMX6_Platform_SDK/output/mx6dq/lib/libsdk.a(system_util.o)
                                                  /home/leon/git/swp-report/iMX6_Platform_SDK/output/mx6dq/lib/libsdk.a(menu.o)
fputs                                             /home/leon/riotboard/arm-2012.09/bin/../arm-none-eabi/lib//libc.a(lib_a-fputs.o)
                                                  /home/leon/riotboard/arm-2012.09/bin/../arm-none-eabi/lib//libstdc++.a(vterminate.o)
                                                  /home/leon/git/swp-report/iMX6_Platform_SDK/output/mx6dq/sdk_unit_test/smart_device_rev_a/libsdk_unit_test.a(accelerometer_test.o)
fputwc                                            /home/leon/riotboard/arm-2012.09/bin/../arm-none-eabi/lib//libc.a(lib_a-fputwc.o)
frame_list                                        /home/leon/git/swp-report/iMX6_Platform_SDK/output/mx6dq/sdk_unit_test/smart_device_rev_a/libsdk_unit_test.a(usb0_host_test.o)
free                                              /home/leon/riotboard/arm-2012.09/bin/../arm-none-eabi/lib//libc.a(lib_a-malloc.o)
                                                  /home/leon/riotboard/arm-2012.09/bin/../arm-none-eabi/lib//libstdc++.a(del_op.o)
                                                  /home/leon/riotboard/arm-2012.09/bin/../arm-none-eabi/lib//libstdc++.a(cp-demangle.o)
                                                  /home/leon/riotboard/arm-2012.09/bin/../arm-none-eabi/lib//libstdc++.a(vterminate.o)
                                                  /home/leon/riotboard/arm-2012.09/bin/../arm-none-eabi/lib//libstdc++.a(eh_alloc.o)
                                                  /home/leon/git/swp-report/iMX6_Platform_SDK/output/mx6dq/lib/libsdk.a(usbh_drv.o)
                                                  /home/leon/git/swp-report/iMX6_Platform_SDK/output/mx6dq/lib/libsdk.a(usbd_drv.o)
                                                  /home/leon/git/swp-report/iMX6_Platform_SDK/output/mx6dq/sdk_unit_test/smart_device_rev_a/libsdk_unit_test.a(usb0_host_test.o)
                                                  /home/leon/git/swp-report/iMX6_Platform_SDK/output/mx6dq/sdk_unit_test/smart_device_rev_a/libsdk_unit_test.a(audio_test.o)
free_memory_end                                   /home/leon/git/swp-report/iMX6_Platform_SDK/output/mx6dq/lib/libsdk.a(runtime_support.o)
free_memory_start                                 /home/leon/git/swp-report/iMX6_Platform_SDK/output/mx6dq/lib/libsdk.a(runtime_support.o)
fwrite                                            /home/leon/riotboard/arm-2012.09/bin/../arm-none-eabi/lib//libc.a(lib_a-fwrite.o)
                                                  /home/leon/riotboard/arm-2012.09/bin/../arm-none-eabi/lib//libstdc++.a(vterminate.o)
gAudio_sample                                     /home/leon/git/swp-report/iMX6_Platform_SDK/output/mx6dq/sdk_unit_test/smart_device_rev_a/libsdk_unit_test.a(init_dma_data.o)
gImage_foretext                                   /home/leon/git/swp-report/iMX6_Platform_SDK/output/mx6dq/sdk_unit_test/smart_device_rev_a/libsdk_unit_test.a(ipu_image.o)
g_TextAttributeBlink                              /home/leon/git/swp-report/iMX6_Platform_SDK/output/mx6dq/lib/libsdk.a(text_color.o)
g_TextAttributeBold                               /home/leon/git/swp-report/iMX6_Platform_SDK/output/mx6dq/lib/libsdk.a(text_color.o)
                                                  /home/leon/git/swp-report/iMX6_Platform_SDK/output/mx6dq/lib/libsdk.a(system_util.o)
                                                  /home/leon/git/swp-report/iMX6_Platform_SDK/output/mx6dq/lib/libsdk.a(menu.o)
g_TextAttributeDefault                            /home/leon/git/swp-report/iMX6_Platform_SDK/output/mx6dq/lib/libsdk.a(text_color.o)
                                                  /home/leon/git/swp-report/iMX6_Platform_SDK/output/mx6dq/lib/libsdk.a(menu.o)
g_TextAttributeDim                                /home/leon/git/swp-report/iMX6_Platform_SDK/output/mx6dq/lib/libsdk.a(text_color.o)
g_TextAttributeHidden                             /home/leon/git/swp-report/iMX6_Platform_SDK/output/mx6dq/lib/libsdk.a(text_color.o)
g_TextAttributeReverse                            /home/leon/git/swp-report/iMX6_Platform_SDK/output/mx6dq/lib/libsdk.a(text_color.o)
g_TextAttributeUnderline                          /home/leon/git/swp-report/iMX6_Platform_SDK/output/mx6dq/lib/libsdk.a(text_color.o)
g_TextColorBlack                                  /home/leon/git/swp-report/iMX6_Platform_SDK/output/mx6dq/lib/libsdk.a(text_color.o)
g_TextColorBlue                                   /home/leon/git/swp-report/iMX6_Platform_SDK/output/mx6dq/lib/libsdk.a(text_color.o)
                                                  /home/leon/git/swp-report/iMX6_Platform_SDK/output/mx6dq/lib/libsdk.a(menu.o)
g_TextColorCyan                                   /home/leon/git/swp-report/iMX6_Platform_SDK/output/mx6dq/lib/libsdk.a(text_color.o)
g_TextColorGray                                   /home/leon/git/swp-report/iMX6_Platform_SDK/output/mx6dq/lib/libsdk.a(text_color.o)
g_TextColorGreen                                  /home/leon/git/swp-report/iMX6_Platform_SDK/output/mx6dq/lib/libsdk.a(text_color.o)
g_TextColorLightBlue                              /home/leon/git/swp-report/iMX6_Platform_SDK/output/mx6dq/lib/libsdk.a(text_color.o)
g_TextColorMagenta                                /home/leon/git/swp-report/iMX6_Platform_SDK/output/mx6dq/lib/libsdk.a(text_color.o)
                                                  /home/leon/git/swp-report/iMX6_Platform_SDK/output/mx6dq/lib/libsdk.a(menu.o)
g_TextColorOrange                                 /home/leon/git/swp-report/iMX6_Platform_SDK/output/mx6dq/lib/libsdk.a(text_color.o)
g_TextColorPurple                                 /home/leon/git/swp-report/iMX6_Platform_SDK/output/mx6dq/lib/libsdk.a(text_color.o)
g_TextColorRed                                    /home/leon/git/swp-report/iMX6_Platform_SDK/output/mx6dq/lib/libsdk.a(text_color.o)
                                                  /home/leon/git/swp-report/iMX6_Platform_SDK/output/mx6dq/lib/libsdk.a(system_util.o)
                                                  /home/leon/git/swp-report/iMX6_Platform_SDK/output/mx6dq/lib/libsdk.a(menu.o)
g_TextColorWhite                                  /home/leon/git/swp-report/iMX6_Platform_SDK/output/mx6dq/lib/libsdk.a(text_color.o)
g_TextColorYellow                                 /home/leon/git/swp-report/iMX6_Platform_SDK/output/mx6dq/lib/libsdk.a(text_color.o)
                                                  /home/leon/git/swp-report/iMX6_Platform_SDK/output/mx6dq/lib/libsdk.a(menu.o)
g_adv7180_i2c_device                              /home/leon/git/swp-report/iMX6_Platform_SDK/output/mx6dq/lib/libboard_smart_device_rev_a.a(board_i2c.o)
g_at24cx_i2c_device                               /home/leon/git/swp-report/iMX6_Platform_SDK/output/mx6dq/lib/libboard_smart_device_rev_a.a(board_i2c.o)
                                                  /home/leon/git/swp-report/iMX6_Platform_SDK/output/mx6dq/sdk_unit_test/smart_device_rev_a/libsdk_unit_test.a(at24cxx.o)
g_camera_i2c_port                                 /home/leon/git/swp-report/iMX6_Platform_SDK/output/mx6dq/lib/libboard_smart_device_rev_a.a(board_camera.o)
                                                  /home/leon/git/swp-report/iMX6_Platform_SDK/output/mx6dq/lib/libsdk.a(smd_sensor.o)
g_camera_modes                                    /home/leon/git/swp-report/iMX6_Platform_SDK/output/mx6dq/lib/libsdk.a(camera_profile.o)
g_camera_profiles                                 /home/leon/git/swp-report/iMX6_Platform_SDK/output/mx6dq/lib/libsdk.a(camera_profile.o)
                                                  /home/leon/git/swp-report/iMX6_Platform_SDK/output/mx6dq/lib/libsdk.a(smd_sensor.o)
g_camera_test_name                                /home/leon/git/swp-report/iMX6_Platform_SDK/output/mx6dq/sdk_unit_test/smart_device_rev_a/libsdk_unit_test.a(camera_test.o)
g_cs42888_i2c_device                              /home/leon/git/swp-report/iMX6_Platform_SDK/output/mx6dq/lib/libboard_smart_device_rev_a.a(board_i2c.o)
g_debug_uart_port                                 /home/leon/git/swp-report/iMX6_Platform_SDK/output/mx6dq/lib/libboard_smart_device_rev_a.a(hardware_modules.o)
                                                  /home/leon/git/swp-report/iMX6_Platform_SDK/output/mx6dq/lib/libsdk.a(runtime_support.o)
                                                  /home/leon/git/swp-report/iMX6_Platform_SDK/output/mx6dq/sdk_unit_test/smart_device_rev_a/libsdk_unit_test.a(csi_test_mode.o)
                                                  /home/leon/git/swp-report/iMX6_Platform_SDK/output/mx6dq/lib/libsdk.a(system_util.o)
                                                  /home/leon/git/swp-report/iMX6_Platform_SDK/output/mx6dq/sdk_unit_test/smart_device_rev_a/obj/apps/common/print_clock_info.o
                                                  /home/leon/git/swp-report/iMX6_Platform_SDK/output/mx6dq/sdk_unit_test/smart_device_rev_a/obj/apps/common/platform_init.o
g_interrupt_handlers                              /home/leon/git/swp-report/iMX6_Platform_SDK/output/mx6dq/lib/libsdk.a(interrupt.o)
g_microsecondTimerMultiple                        /home/leon/git/swp-report/iMX6_Platform_SDK/output/mx6dq/lib/libsdk.a(timer.o)
g_mma8451_i2c_device                              /home/leon/git/swp-report/iMX6_Platform_SDK/output/mx6dq/lib/libboard_smart_device_rev_a.a(board_i2c.o)
                                                  /home/leon/git/swp-report/iMX6_Platform_SDK/output/mx6dq/sdk_unit_test/smart_device_rev_a/libsdk_unit_test.a(accelerometer_test.o)
g_mt9p111_af_firmware                             /home/leon/git/swp-report/iMX6_Platform_SDK/output/mx6dq/lib/libsdk.a(camera_profile.o)
g_mt9p111_af_ready                                /home/leon/git/swp-report/iMX6_Platform_SDK/output/mx6dq/lib/libsdk.a(camera_profile.o)
g_mt9p111_af_trigger                              /home/leon/git/swp-report/iMX6_Platform_SDK/output/mx6dq/lib/libsdk.a(camera_profile.o)
g_mt9p111_mode_vga_640_480_30fps                  /home/leon/git/swp-report/iMX6_Platform_SDK/output/mx6dq/lib/libsdk.a(camera_profile.o)
g_mt9p111_sensor_detection                        /home/leon/git/swp-report/iMX6_Platform_SDK/output/mx6dq/lib/libsdk.a(camera_profile.o)
g_os81050_i2c_device                              /home/leon/git/swp-report/iMX6_Platform_SDK/output/mx6dq/lib/libboard_smart_device_rev_a.a(board_i2c.o)
g_ov3640_mode_vga_640_480_30fps                   /home/leon/git/swp-report/iMX6_Platform_SDK/output/mx6dq/lib/libsdk.a(camera_profile.o)
g_ov3640_sensor_detection                         /home/leon/git/swp-report/iMX6_Platform_SDK/output/mx6dq/lib/libsdk.a(camera_profile.o)
g_ov5640_mode_vga_640_480_30fps                   /home/leon/git/swp-report/iMX6_Platform_SDK/output/mx6dq/lib/libsdk.a(camera_profile.o)
g_ov5640_sensor_detection                         /home/leon/git/swp-report/iMX6_Platform_SDK/output/mx6dq/lib/libsdk.a(camera_profile.o)
g_ov5642_af_firmware                              /home/leon/git/swp-report/iMX6_Platform_SDK/output/mx6dq/lib/libsdk.a(camera_profile.o)
g_ov5642_af_ready                                 /home/leon/git/swp-report/iMX6_Platform_SDK/output/mx6dq/lib/libsdk.a(camera_profile.o)
g_ov5642_af_trigger                               /home/leon/git/swp-report/iMX6_Platform_SDK/output/mx6dq/lib/libsdk.a(camera_profile.o)
g_ov5642_mode_vga_640_480_30fps                   /home/leon/git/swp-report/iMX6_Platform_SDK/output/mx6dq/lib/libsdk.a(camera_profile.o)
g_ov5642_sensor_detection                         /home/leon/git/swp-report/iMX6_Platform_SDK/output/mx6dq/lib/libsdk.a(camera_profile.o)
g_p1003_tsc_i2c_device                            /home/leon/git/swp-report/iMX6_Platform_SDK/output/mx6dq/lib/libboard_smart_device_rev_a.a(board_i2c.o)
g_pmic_da9053_i2c_device                          /home/leon/git/swp-report/iMX6_Platform_SDK/output/mx6dq/lib/libboard_smart_device_rev_a.a(board_i2c.o)
g_pmic_ltc3589_i2c_device                         /home/leon/git/swp-report/iMX6_Platform_SDK/output/mx6dq/lib/libboard_smart_device_rev_a.a(board_i2c.o)
g_pmic_max17135_i2c_device                        /home/leon/git/swp-report/iMX6_Platform_SDK/output/mx6dq/lib/libboard_smart_device_rev_a.a(board_i2c.o)
g_pmic_pf0100_i2c_device                          /home/leon/git/swp-report/iMX6_Platform_SDK/output/mx6dq/lib/libboard_smart_device_rev_a.a(board_i2c.o)
g_pwm_test_end                                    /home/leon/git/swp-report/iMX6_Platform_SDK/output/mx6dq/sdk_unit_test/smart_device_rev_a/libsdk_unit_test.a(pwm_output.o)
                                                  /home/leon/git/swp-report/iMX6_Platform_SDK/output/mx6dq/lib/libsdk.a(pwm.o)
g_sata_test_name                                  /home/leon/git/swp-report/iMX6_Platform_SDK/output/mx6dq/sdk_unit_test/smart_device_rev_a/libsdk_unit_test.a(sata_test.o)
g_sgtl5000_i2c_device                             /home/leon/git/swp-report/iMX6_Platform_SDK/output/mx6dq/lib/libboard_smart_device_rev_a.a(board_i2c.o)
g_si476x_i2c_device                               /home/leon/git/swp-report/iMX6_Platform_SDK/output/mx6dq/lib/libboard_smart_device_rev_a.a(board_i2c.o)
g_system_timer_port                               /home/leon/git/swp-report/iMX6_Platform_SDK/output/mx6dq/lib/libboard_smart_device_rev_a.a(hardware_modules.o)
                                                  /home/leon/git/swp-report/iMX6_Platform_SDK/output/mx6dq/lib/libsdk.a(timer.o)
g_uart_test_name                                  /home/leon/git/swp-report/iMX6_Platform_SDK/output/mx6dq/sdk_unit_test/smart_device_rev_a/libsdk_unit_test.a(uart_test.o)
g_vectNum                                         /home/leon/git/swp-report/iMX6_Platform_SDK/output/mx6dq/lib/libsdk.a(interrupt.o)
g_wm8958_i2c_device                               /home/leon/git/swp-report/iMX6_Platform_SDK/output/mx6dq/lib/libboard_smart_device_rev_a.a(board_i2c.o)
g_wm8962_i2c_device                               /home/leon/git/swp-report/iMX6_Platform_SDK/output/mx6dq/lib/libboard_smart_device_rev_a.a(board_i2c.o)
get_arm_private_peripheral_base                   /home/leon/git/swp-report/iMX6_Platform_SDK/output/mx6dq/lib/libsdk.a(cortexA9.o)
                                                  /home/leon/git/swp-report/iMX6_Platform_SDK/output/mx6dq/lib/libsdk.a(gic.o)
get_board_id                                      /home/leon/git/swp-report/iMX6_Platform_SDK/output/mx6dq/lib/libsdk.a(board_id.o)
                                                  /home/leon/git/swp-report/iMX6_Platform_SDK/output/mx6dq/sdk_unit_test/smart_device_rev_a/obj/apps/common/print_version.o
get_color_supported                               /home/leon/git/swp-report/iMX6_Platform_SDK/output/mx6dq/lib/libsdk.a(text_color.o)
get_input_hex                                     /home/leon/git/swp-report/iMX6_Platform_SDK/output/mx6dq/lib/libsdk.a(system_util.o)
                                                  /home/leon/git/swp-report/iMX6_Platform_SDK/output/mx6dq/sdk_unit_test/smart_device_rev_a/libsdk_unit_test.a(ocotp_test.o)
get_main_clock                                    /home/leon/git/swp-report/iMX6_Platform_SDK/output/mx6dq/lib/libsdk.a(ccm_pll.o)
                                                  /home/leon/git/swp-report/iMX6_Platform_SDK/output/mx6dq/lib/libsdk.a(pwm.o)
                                                  /home/leon/git/swp-report/iMX6_Platform_SDK/output/mx6dq/lib/libsdk.a(imx_i2c.o)
                                                  /home/leon/git/swp-report/iMX6_Platform_SDK/output/mx6dq/lib/libsdk.a(enet_drv.o)
                                                  /home/leon/git/swp-report/iMX6_Platform_SDK/output/mx6dq/sdk_unit_test/smart_device_rev_a/libsdk_unit_test.a(mem_2_mem.o)
                                                  /home/leon/git/swp-report/iMX6_Platform_SDK/output/mx6dq/sdk_unit_test/smart_device_rev_a/libsdk_unit_test.a(gpt_test.o)
                                                  /home/leon/git/swp-report/iMX6_Platform_SDK/output/mx6dq/sdk_unit_test/smart_device_rev_a/libsdk_unit_test.a(epit_test.o)
                                                  /home/leon/git/swp-report/iMX6_Platform_SDK/output/mx6dq/sdk_unit_test/smart_device_rev_a/libsdk_unit_test.a(cpu_wp_test.o)
                                                  /home/leon/git/swp-report/iMX6_Platform_SDK/output/mx6dq/lib/libsdk.a(timer.o)
                                                  /home/leon/git/swp-report/iMX6_Platform_SDK/output/mx6dq/sdk_unit_test/smart_device_rev_a/obj/apps/common/print_clock_info.o
get_menu_item                                     /home/leon/git/swp-report/iMX6_Platform_SDK/output/mx6dq/lib/libsdk.a(usb_common.o)
                                                  /home/leon/git/swp-report/iMX6_Platform_SDK/output/mx6dq/sdk_unit_test/smart_device_rev_a/libsdk_unit_test.a(usb0_host_testmodes_test.o)
                                                  /home/leon/git/swp-report/iMX6_Platform_SDK/output/mx6dq/sdk_unit_test/smart_device_rev_a/libsdk_unit_test.a(usb_test.o)
get_panel_by_id                                   /home/leon/git/swp-report/iMX6_Platform_SDK/output/mx6dq/lib/libsdk.a(ips_disp_panel.o)
get_peri_clock                                    /home/leon/git/swp-report/iMX6_Platform_SDK/output/mx6dq/lib/libsdk.a(ccm_pll.o)
                                                  /home/leon/git/swp-report/iMX6_Platform_SDK/output/mx6dq/lib/libsdk.a(imx_uart.o)
                                                  /home/leon/git/swp-report/iMX6_Platform_SDK/output/mx6dq/sdk_unit_test/smart_device_rev_a/obj/apps/common/print_clock_info.o
gicTestDone                                       /home/leon/git/swp-report/iMX6_Platform_SDK/output/mx6dq/sdk_unit_test/smart_device_rev_a/libsdk_unit_test.a(gic_test.o)
gic_cpu_enable                                    /home/leon/git/swp-report/iMX6_Platform_SDK/output/mx6dq/lib/libsdk.a(gic.o)
gic_enable                                        /home/leon/git/swp-report/iMX6_Platform_SDK/output/mx6dq/lib/libsdk.a(gic.o)
gic_enable_irq                                    /home/leon/git/swp-report/iMX6_Platform_SDK/output/mx6dq/lib/libsdk.a(gic.o)
                                                  /home/leon/git/swp-report/iMX6_Platform_SDK/output/mx6dq/lib/libsdk.a(interrupt.o)
gic_init                                          /home/leon/git/swp-report/iMX6_Platform_SDK/output/mx6dq/lib/libsdk.a(gic.o)
                                                  /home/leon/git/swp-report/iMX6_Platform_SDK/output/mx6dq/sdk_unit_test/smart_device_rev_a/obj/apps/common/platform_init.o
gic_init_cpu                                      /home/leon/git/swp-report/iMX6_Platform_SDK/output/mx6dq/lib/libsdk.a(gic.o)
                                                  /home/leon/git/swp-report/iMX6_Platform_SDK/output/mx6dq/sdk_unit_test/smart_device_rev_a/libsdk_unit_test.a(multicore_test.o)
gic_read_irq_ack                                  /home/leon/git/swp-report/iMX6_Platform_SDK/output/mx6dq/lib/libsdk.a(gic.o)
                                                  /home/leon/git/swp-report/iMX6_Platform_SDK/output/mx6dq/lib/libsdk.a(interrupt.o)
gic_send_sgi                                      /home/leon/git/swp-report/iMX6_Platform_SDK/output/mx6dq/lib/libsdk.a(gic.o)
                                                  /home/leon/git/swp-report/iMX6_Platform_SDK/output/mx6dq/sdk_unit_test/smart_device_rev_a/libsdk_unit_test.a(gic_test.o)
                                                  /home/leon/git/swp-report/iMX6_Platform_SDK/output/mx6dq/sdk_unit_test/smart_device_rev_a/libsdk_unit_test.a(multicore_test.o)
gic_set_cpu_priority_mask                         /home/leon/git/swp-report/iMX6_Platform_SDK/output/mx6dq/lib/libsdk.a(gic.o)
gic_set_cpu_target                                /home/leon/git/swp-report/iMX6_Platform_SDK/output/mx6dq/lib/libsdk.a(gic.o)
                                                  /home/leon/git/swp-report/iMX6_Platform_SDK/output/mx6dq/lib/libsdk.a(interrupt.o)
gic_set_irq_priority                              /home/leon/git/swp-report/iMX6_Platform_SDK/output/mx6dq/lib/libsdk.a(gic.o)
                                                  /home/leon/git/swp-report/iMX6_Platform_SDK/output/mx6dq/lib/libsdk.a(interrupt.o)
gic_set_irq_security                              /home/leon/git/swp-report/iMX6_Platform_SDK/output/mx6dq/lib/libsdk.a(gic.o)
                                                  /home/leon/git/swp-report/iMX6_Platform_SDK/output/mx6dq/lib/libsdk.a(interrupt.o)
gic_sgi_test_handler                              /home/leon/git/swp-report/iMX6_Platform_SDK/output/mx6dq/sdk_unit_test/smart_device_rev_a/libsdk_unit_test.a(gic_test.o)
gic_test                                          /home/leon/git/swp-report/iMX6_Platform_SDK/output/mx6dq/sdk_unit_test/smart_device_rev_a/libsdk_unit_test.a(gic_test.o)
                                                  /home/leon/git/swp-report/iMX6_Platform_SDK/output/mx6dq/sdk_unit_test/smart_device_rev_a/obj/apps/sdk_unit_test/src/all_test.o
gic_write_end_of_irq                              /home/leon/git/swp-report/iMX6_Platform_SDK/output/mx6dq/lib/libsdk.a(gic.o)
                                                  /home/leon/git/swp-report/iMX6_Platform_SDK/output/mx6dq/lib/libsdk.a(interrupt.o)
gpio1_iomux_config                                /home/leon/git/swp-report/iMX6_Platform_SDK/output/mx6dq/lib/libboard_smart_device_rev_a.a(gpio1_iomux_config.o)
                                                  /home/leon/git/swp-report/iMX6_Platform_SDK/output/mx6dq/lib/libboard_smart_device_rev_a.a(iomux_config.o)
gpio2_iomux_config                                /home/leon/git/swp-report/iMX6_Platform_SDK/output/mx6dq/lib/libboard_smart_device_rev_a.a(gpio2_iomux_config.o)
                                                  /home/leon/git/swp-report/iMX6_Platform_SDK/output/mx6dq/lib/libboard_smart_device_rev_a.a(iomux_config.o)
gpio3_iomux_config                                /home/leon/git/swp-report/iMX6_Platform_SDK/output/mx6dq/lib/libboard_smart_device_rev_a.a(gpio3_iomux_config.o)
                                                  /home/leon/git/swp-report/iMX6_Platform_SDK/output/mx6dq/lib/libboard_smart_device_rev_a.a(iomux_config.o)
gpio4_iomux_config                                /home/leon/git/swp-report/iMX6_Platform_SDK/output/mx6dq/lib/libboard_smart_device_rev_a.a(gpio4_iomux_config.o)
                                                  /home/leon/git/swp-report/iMX6_Platform_SDK/output/mx6dq/lib/libboard_smart_device_rev_a.a(iomux_config.o)
gpio5_iomux_config                                /home/leon/git/swp-report/iMX6_Platform_SDK/output/mx6dq/lib/libboard_smart_device_rev_a.a(gpio5_iomux_config.o)
                                                  /home/leon/git/swp-report/iMX6_Platform_SDK/output/mx6dq/lib/libboard_smart_device_rev_a.a(iomux_config.o)
gpio6_iomux_config                                /home/leon/git/swp-report/iMX6_Platform_SDK/output/mx6dq/lib/libboard_smart_device_rev_a.a(gpio6_iomux_config.o)
                                                  /home/leon/git/swp-report/iMX6_Platform_SDK/output/mx6dq/lib/libboard_smart_device_rev_a.a(iomux_config.o)
gpio7_iomux_config                                /home/leon/git/swp-report/iMX6_Platform_SDK/output/mx6dq/lib/libboard_smart_device_rev_a.a(gpio7_iomux_config.o)
                                                  /home/leon/git/swp-report/iMX6_Platform_SDK/output/mx6dq/lib/libboard_smart_device_rev_a.a(iomux_config.o)
gpio_clear_interrupt                              /home/leon/git/swp-report/iMX6_Platform_SDK/output/mx6dq/lib/libsdk.a(gpio.o)
gpio_get_direction                                /home/leon/git/swp-report/iMX6_Platform_SDK/output/mx6dq/lib/libsdk.a(gpio.o)
gpio_get_interrupt_status                         /home/leon/git/swp-report/iMX6_Platform_SDK/output/mx6dq/lib/libsdk.a(gpio.o)
gpio_get_level                                    /home/leon/git/swp-report/iMX6_Platform_SDK/output/mx6dq/lib/libsdk.a(gpio.o)
                                                  /home/leon/git/swp-report/iMX6_Platform_SDK/output/mx6dq/lib/libboard_smart_device_rev_a.a(board_usdhc.o)
gpio_get_port_count                               /home/leon/git/swp-report/iMX6_Platform_SDK/output/mx6dq/lib/libsdk.a(gpio.o)
gpio_set_direction                                /home/leon/git/swp-report/iMX6_Platform_SDK/output/mx6dq/lib/libsdk.a(gpio.o)
                                                  /home/leon/git/swp-report/iMX6_Platform_SDK/output/mx6dq/lib/libboard_smart_device_rev_a.a(board_usb.o)
                                                  /home/leon/git/swp-report/iMX6_Platform_SDK/output/mx6dq/lib/libboard_smart_device_rev_a.a(board_sata.o)
                                                  /home/leon/git/swp-report/iMX6_Platform_SDK/output/mx6dq/lib/libboard_smart_device_rev_a.a(board_pcie.o)
                                                  /home/leon/git/swp-report/iMX6_Platform_SDK/output/mx6dq/lib/libboard_smart_device_rev_a.a(board_network.o)
                                                  /home/leon/git/swp-report/iMX6_Platform_SDK/output/mx6dq/lib/libboard_smart_device_rev_a.a(board_mipi.o)
                                                  /home/leon/git/swp-report/iMX6_Platform_SDK/output/mx6dq/lib/libboard_smart_device_rev_a.a(board_display.o)
                                                  /home/leon/git/swp-report/iMX6_Platform_SDK/output/mx6dq/lib/libboard_smart_device_rev_a.a(board_camera.o)
                                                  /home/leon/git/swp-report/iMX6_Platform_SDK/output/mx6dq/lib/libboard_smart_device_rev_a.a(board_audio.o)
                                                  /home/leon/git/swp-report/iMX6_Platform_SDK/output/mx6dq/sdk_unit_test/smart_device_rev_a/libsdk_unit_test.a(accelerometer_test.o)
gpio_set_gpio                                     /home/leon/git/swp-report/iMX6_Platform_SDK/output/mx6dq/lib/libsdk.a(gpio.o)
                                                  /home/leon/git/swp-report/iMX6_Platform_SDK/output/mx6dq/lib/libboard_smart_device_rev_a.a(board_usb.o)
                                                  /home/leon/git/swp-report/iMX6_Platform_SDK/output/mx6dq/lib/libboard_smart_device_rev_a.a(board_sata.o)
                                                  /home/leon/git/swp-report/iMX6_Platform_SDK/output/mx6dq/lib/libboard_smart_device_rev_a.a(board_pcie.o)
                                                  /home/leon/git/swp-report/iMX6_Platform_SDK/output/mx6dq/lib/libboard_smart_device_rev_a.a(board_mipi.o)
                                                  /home/leon/git/swp-report/iMX6_Platform_SDK/output/mx6dq/lib/libboard_smart_device_rev_a.a(board_display.o)
                                                  /home/leon/git/swp-report/iMX6_Platform_SDK/output/mx6dq/lib/libboard_smart_device_rev_a.a(board_audio.o)
                                                  /home/leon/git/swp-report/iMX6_Platform_SDK/output/mx6dq/sdk_unit_test/smart_device_rev_a/libsdk_unit_test.a(accelerometer_test.o)
gpio_set_interrupt_config                         /home/leon/git/swp-report/iMX6_Platform_SDK/output/mx6dq/lib/libsdk.a(gpio.o)
gpio_set_interrupt_mask                           /home/leon/git/swp-report/iMX6_Platform_SDK/output/mx6dq/lib/libsdk.a(gpio.o)
gpio_set_level                                    /home/leon/git/swp-report/iMX6_Platform_SDK/output/mx6dq/lib/libsdk.a(gpio.o)
                                                  /home/leon/git/swp-report/iMX6_Platform_SDK/output/mx6dq/lib/libboard_smart_device_rev_a.a(board_usb.o)
                                                  /home/leon/git/swp-report/iMX6_Platform_SDK/output/mx6dq/lib/libboard_smart_device_rev_a.a(board_sata.o)
                                                  /home/leon/git/swp-report/iMX6_Platform_SDK/output/mx6dq/lib/libboard_smart_device_rev_a.a(board_pcie.o)
                                                  /home/leon/git/swp-report/iMX6_Platform_SDK/output/mx6dq/lib/libboard_smart_device_rev_a.a(board_network.o)
                                                  /home/leon/git/swp-report/iMX6_Platform_SDK/output/mx6dq/lib/libboard_smart_device_rev_a.a(board_mipi.o)
                                                  /home/leon/git/swp-report/iMX6_Platform_SDK/output/mx6dq/lib/libboard_smart_device_rev_a.a(board_display.o)
                                                  /home/leon/git/swp-report/iMX6_Platform_SDK/output/mx6dq/lib/libboard_smart_device_rev_a.a(board_camera.o)
                                                  /home/leon/git/swp-report/iMX6_Platform_SDK/output/mx6dq/lib/libboard_smart_device_rev_a.a(board_audio.o)
                                                  /home/leon/git/swp-report/iMX6_Platform_SDK/output/mx6dq/sdk_unit_test/smart_device_rev_a/libsdk_unit_test.a(accelerometer_test.o)
gpmi_iomux_config                                 /home/leon/git/swp-report/iMX6_Platform_SDK/output/mx6dq/lib/libboard_smart_device_rev_a.a(iomux_config.o)
gps_iomux_config                                  /home/leon/git/swp-report/iMX6_Platform_SDK/output/mx6dq/lib/libboard_smart_device_rev_a.a(gps_iomux_config.o)
                                                  /home/leon/git/swp-report/iMX6_Platform_SDK/output/mx6dq/lib/libboard_smart_device_rev_a.a(iomux_config.o)
gpt_counter_disable                               /home/leon/git/swp-report/iMX6_Platform_SDK/output/mx6dq/lib/libsdk.a(gpt.o)
                                                  /home/leon/git/swp-report/iMX6_Platform_SDK/output/mx6dq/sdk_unit_test/smart_device_rev_a/libsdk_unit_test.a(gpt_test.o)
gpt_counter_enable                                /home/leon/git/swp-report/iMX6_Platform_SDK/output/mx6dq/lib/libsdk.a(gpt.o)
                                                  /home/leon/git/swp-report/iMX6_Platform_SDK/output/mx6dq/sdk_unit_test/smart_device_rev_a/libsdk_unit_test.a(gpt_test.o)
gpt_get_capture_event                             /home/leon/git/swp-report/iMX6_Platform_SDK/output/mx6dq/lib/libsdk.a(gpt.o)
                                                  /home/leon/git/swp-report/iMX6_Platform_SDK/output/mx6dq/sdk_unit_test/smart_device_rev_a/libsdk_unit_test.a(gpt_test.o)
gpt_get_compare_event                             /home/leon/git/swp-report/iMX6_Platform_SDK/output/mx6dq/lib/libsdk.a(gpt.o)
                                                  /home/leon/git/swp-report/iMX6_Platform_SDK/output/mx6dq/sdk_unit_test/smart_device_rev_a/libsdk_unit_test.a(gpt_test.o)
gpt_get_rollover_event                            /home/leon/git/swp-report/iMX6_Platform_SDK/output/mx6dq/lib/libsdk.a(gpt.o)
                                                  /home/leon/git/swp-report/iMX6_Platform_SDK/output/mx6dq/sdk_unit_test/smart_device_rev_a/libsdk_unit_test.a(gpt_test.o)
gpt_in_capture_test                               /home/leon/git/swp-report/iMX6_Platform_SDK/output/mx6dq/sdk_unit_test/smart_device_rev_a/libsdk_unit_test.a(gpt_test.o)
gpt_init                                          /home/leon/git/swp-report/iMX6_Platform_SDK/output/mx6dq/lib/libsdk.a(gpt.o)
                                                  /home/leon/git/swp-report/iMX6_Platform_SDK/output/mx6dq/sdk_unit_test/smart_device_rev_a/libsdk_unit_test.a(gpt_test.o)
gpt_interrupt_routine                             /home/leon/git/swp-report/iMX6_Platform_SDK/output/mx6dq/sdk_unit_test/smart_device_rev_a/libsdk_unit_test.a(gpt_test.o)
gpt_iomux_config                                  /home/leon/git/swp-report/iMX6_Platform_SDK/output/mx6dq/lib/libboard_smart_device_rev_a.a(iomux_config.o)
gpt_out_compare_test                              /home/leon/git/swp-report/iMX6_Platform_SDK/output/mx6dq/sdk_unit_test/smart_device_rev_a/libsdk_unit_test.a(gpt_test.o)
gpt_set_capture_event                             /home/leon/git/swp-report/iMX6_Platform_SDK/output/mx6dq/lib/libsdk.a(gpt.o)
                                                  /home/leon/git/swp-report/iMX6_Platform_SDK/output/mx6dq/sdk_unit_test/smart_device_rev_a/libsdk_unit_test.a(gpt_test.o)
gpt_set_compare_event                             /home/leon/git/swp-report/iMX6_Platform_SDK/output/mx6dq/lib/libsdk.a(gpt.o)
                                                  /home/leon/git/swp-report/iMX6_Platform_SDK/output/mx6dq/sdk_unit_test/smart_device_rev_a/libsdk_unit_test.a(gpt_test.o)
gpt_setup_interrupt                               /home/leon/git/swp-report/iMX6_Platform_SDK/output/mx6dq/lib/libsdk.a(gpt.o)
                                                  /home/leon/git/swp-report/iMX6_Platform_SDK/output/mx6dq/sdk_unit_test/smart_device_rev_a/libsdk_unit_test.a(gpt_test.o)
gpt_test                                          /home/leon/git/swp-report/iMX6_Platform_SDK/output/mx6dq/sdk_unit_test/smart_device_rev_a/libsdk_unit_test.a(gpt_test.o)
                                                  /home/leon/git/swp-report/iMX6_Platform_SDK/output/mx6dq/sdk_unit_test/smart_device_rev_a/obj/apps/sdk_unit_test/src/all_test.o
gpu_clock_config                                  /home/leon/git/swp-report/iMX6_Platform_SDK/output/mx6dq/lib/libsdk.a(ccm_pll.o)
hal_delay_us                                      /home/leon/git/swp-report/iMX6_Platform_SDK/output/mx6dq/lib/libsdk.a(timer.o)
                                                  /home/leon/git/swp-report/iMX6_Platform_SDK/output/mx6dq/lib/libboard_smart_device_rev_a.a(board_sata.o)
                                                  /home/leon/git/swp-report/iMX6_Platform_SDK/output/mx6dq/lib/libboard_smart_device_rev_a.a(board_pcie.o)
                                                  /home/leon/git/swp-report/iMX6_Platform_SDK/output/mx6dq/lib/libboard_smart_device_rev_a.a(board_network.o)
                                                  /home/leon/git/swp-report/iMX6_Platform_SDK/output/mx6dq/lib/libboard_smart_device_rev_a.a(board_mipi.o)
                                                  /home/leon/git/swp-report/iMX6_Platform_SDK/output/mx6dq/lib/libboard_smart_device_rev_a.a(board_display.o)
                                                  /home/leon/git/swp-report/iMX6_Platform_SDK/output/mx6dq/lib/libboard_smart_device_rev_a.a(board_camera.o)
                                                  /home/leon/git/swp-report/iMX6_Platform_SDK/output/mx6dq/lib/libsdk.a(usdhc_sd.o)
                                                  /home/leon/git/swp-report/iMX6_Platform_SDK/output/mx6dq/lib/libsdk.a(usdhc_mmc.o)
                                                  /home/leon/git/swp-report/iMX6_Platform_SDK/output/mx6dq/lib/libsdk.a(usdhc_host.o)
                                                  /home/leon/git/swp-report/iMX6_Platform_SDK/output/mx6dq/lib/libsdk.a(ecspi.o)
                                                  /home/leon/git/swp-report/iMX6_Platform_SDK/output/mx6dq/lib/libsdk.a(sata.o)
                                                  /home/leon/git/swp-report/iMX6_Platform_SDK/output/mx6dq/lib/libsdk.a(pcie.o)
                                                  /home/leon/git/swp-report/iMX6_Platform_SDK/output/mx6dq/lib/libsdk.a(keypad_port.o)
                                                  /home/leon/git/swp-report/iMX6_Platform_SDK/output/mx6dq/lib/libsdk.a(ipu_common.o)
                                                  /home/leon/git/swp-report/iMX6_Platform_SDK/output/mx6dq/lib/libsdk.a(hdmi_tx_phy.o)
                                                  /home/leon/git/swp-report/iMX6_Platform_SDK/output/mx6dq/lib/libsdk.a(enet_drv.o)
                                                  /home/leon/git/swp-report/iMX6_Platform_SDK/output/mx6dq/lib/libsdk.a(smd_sensor.o)
                                                  /home/leon/git/swp-report/iMX6_Platform_SDK/output/mx6dq/sdk_unit_test/smart_device_rev_a/libsdk_unit_test.a(spi_nor_numonyx.o)
                                                  /home/leon/git/swp-report/iMX6_Platform_SDK/output/mx6dq/sdk_unit_test/smart_device_rev_a/libsdk_unit_test.a(at24cxx.o)
                                                  /home/leon/git/swp-report/iMX6_Platform_SDK/output/mx6dq/sdk_unit_test/smart_device_rev_a/libsdk_unit_test.a(accelerometer_test.o)
                                                  /home/leon/git/swp-report/iMX6_Platform_SDK/output/mx6dq/sdk_unit_test/smart_device_rev_a/libsdk_unit_test.a(enet_test.o)
                                                  /home/leon/git/swp-report/iMX6_Platform_SDK/output/mx6dq/sdk_unit_test/smart_device_rev_a/libsdk_unit_test.a(csi_test_mode.o)
                                                  /home/leon/git/swp-report/iMX6_Platform_SDK/output/mx6dq/sdk_unit_test/smart_device_rev_a/libsdk_unit_test.a(keypad_test.o)
                                                  /home/leon/git/swp-report/iMX6_Platform_SDK/output/mx6dq/sdk_unit_test/smart_device_rev_a/libsdk_unit_test.a(hdmi_test.o)
                                                  /home/leon/git/swp-report/iMX6_Platform_SDK/output/mx6dq/sdk_unit_test/smart_device_rev_a/libsdk_unit_test.a(timer_test.o)
                                                  /home/leon/git/swp-report/iMX6_Platform_SDK/output/mx6dq/sdk_unit_test/smart_device_rev_a/libsdk_unit_test.a(gpt_test.o)
                                                  /home/leon/git/swp-report/iMX6_Platform_SDK/output/mx6dq/sdk_unit_test/smart_device_rev_a/libsdk_unit_test.a(epit_test.o)
                                                  /home/leon/git/swp-report/iMX6_Platform_SDK/output/mx6dq/sdk_unit_test/smart_device_rev_a/libsdk_unit_test.a(cpu_wp_test.o)
hdd_ident                                         /home/leon/git/swp-report/iMX6_Platform_SDK/output/mx6dq/lib/libsdk.a(sata.o)
hdmi_1080P60_video_output                         /home/leon/git/swp-report/iMX6_Platform_SDK/output/mx6dq/sdk_unit_test/smart_device_rev_a/libsdk_unit_test.a(hdmi_test.o)
hdmi_720P60_video_output                          /home/leon/git/swp-report/iMX6_Platform_SDK/output/mx6dq/sdk_unit_test/smart_device_rev_a/libsdk_unit_test.a(hdmi_test.o)
hdmi_audio_mute                                   /home/leon/git/swp-report/iMX6_Platform_SDK/output/mx6dq/lib/libsdk.a(hdmi_tx_audio.o)
                                                  /home/leon/git/swp-report/iMX6_Platform_SDK/output/mx6dq/sdk_unit_test/smart_device_rev_a/libsdk_unit_test.a(hdmi_test.o)
hdmi_av_frame_composer                            /home/leon/git/swp-report/iMX6_Platform_SDK/output/mx6dq/lib/libsdk.a(hdmi_tx.o)
                                                  /home/leon/git/swp-report/iMX6_Platform_SDK/output/mx6dq/sdk_unit_test/smart_device_rev_a/libsdk_unit_test.a(hdmi_test.o)
hdmi_clock_set                                    /home/leon/git/swp-report/iMX6_Platform_SDK/output/mx6dq/lib/libboard_smart_device_rev_a.a(board_hdmi.o)
                                                  /home/leon/git/swp-report/iMX6_Platform_SDK/output/mx6dq/lib/libsdk.a(ips_disp_panel.o)
hdmi_config_force_video                           /home/leon/git/swp-report/iMX6_Platform_SDK/output/mx6dq/lib/libsdk.a(hdmi_tx.o)
hdmi_config_forced_pixels                         /home/leon/git/swp-report/iMX6_Platform_SDK/output/mx6dq/lib/libsdk.a(hdmi_tx.o)
hdmi_config_input_source                          /home/leon/git/swp-report/iMX6_Platform_SDK/output/mx6dq/lib/libsdk.a(hdmi_tx.o)
                                                  /home/leon/git/swp-report/iMX6_Platform_SDK/output/mx6dq/sdk_unit_test/smart_device_rev_a/libsdk_unit_test.a(hdmi_test.o)
hdmi_iomux_config                                 /home/leon/git/swp-report/iMX6_Platform_SDK/output/mx6dq/lib/libboard_smart_device_rev_a.a(iomux_config.o)
hdmi_pgm_iomux                                    /home/leon/git/swp-report/iMX6_Platform_SDK/output/mx6dq/lib/libboard_smart_device_rev_a.a(board_hdmi.o)
                                                  /home/leon/git/swp-report/iMX6_Platform_SDK/output/mx6dq/lib/libsdk.a(ips_disp_panel.o)
hdmi_phy_init                                     /home/leon/git/swp-report/iMX6_Platform_SDK/output/mx6dq/lib/libsdk.a(hdmi_tx_phy.o)
                                                  /home/leon/git/swp-report/iMX6_Platform_SDK/output/mx6dq/sdk_unit_test/smart_device_rev_a/libsdk_unit_test.a(hdmi_test.o)
hdmi_phy_int_mask                                 /home/leon/git/swp-report/iMX6_Platform_SDK/output/mx6dq/lib/libsdk.a(hdmi_tx_phy.o)
hdmi_set_video_mode                               /home/leon/git/swp-report/iMX6_Platform_SDK/output/mx6dq/lib/libsdk.a(hdmi_common.o)
                                                  /home/leon/git/swp-report/iMX6_Platform_SDK/output/mx6dq/lib/libsdk.a(hdmi_tx.o)
hdmi_test                                         /home/leon/git/swp-report/iMX6_Platform_SDK/output/mx6dq/sdk_unit_test/smart_device_rev_a/libsdk_unit_test.a(hdmi_test.o)
                                                  /home/leon/git/swp-report/iMX6_Platform_SDK/output/mx6dq/sdk_unit_test/smart_device_rev_a/obj/apps/sdk_unit_test/src/all_test.o
hdmi_tx_ISR                                       /home/leon/git/swp-report/iMX6_Platform_SDK/output/mx6dq/sdk_unit_test/smart_device_rev_a/libsdk_unit_test.a(hdmi_test.o)
hdmi_tx_cec_pgm_iomux                             /home/leon/git/swp-report/iMX6_Platform_SDK/output/mx6dq/lib/libboard_smart_device_rev_a.a(board_hdmi.o)
hdmi_tx_ddc_pgm_iomux                             /home/leon/git/swp-report/iMX6_Platform_SDK/output/mx6dq/lib/libboard_smart_device_rev_a.a(board_hdmi.o)
hdmi_tx_hdcp_config                               /home/leon/git/swp-report/iMX6_Platform_SDK/output/mx6dq/lib/libsdk.a(hdmi_tx.o)
                                                  /home/leon/git/swp-report/iMX6_Platform_SDK/output/mx6dq/sdk_unit_test/smart_device_rev_a/libsdk_unit_test.a(hdmi_test.o)
hdmi_tx_phydtb_pgm_iomux                          /home/leon/git/swp-report/iMX6_Platform_SDK/output/mx6dq/lib/libboard_smart_device_rev_a.a(board_hdmi.o)
hdmi_video_csc                                    /home/leon/git/swp-report/iMX6_Platform_SDK/output/mx6dq/lib/libsdk.a(hdmi_tx.o)
                                                  /home/leon/git/swp-report/iMX6_Platform_SDK/output/mx6dq/sdk_unit_test/smart_device_rev_a/libsdk_unit_test.a(hdmi_test.o)
hdmi_video_packetize                              /home/leon/git/swp-report/iMX6_Platform_SDK/output/mx6dq/lib/libsdk.a(hdmi_tx.o)
                                                  /home/leon/git/swp-report/iMX6_Platform_SDK/output/mx6dq/sdk_unit_test/smart_device_rev_a/libsdk_unit_test.a(hdmi_test.o)
hdmi_video_sample                                 /home/leon/git/swp-report/iMX6_Platform_SDK/output/mx6dq/lib/libsdk.a(hdmi_tx.o)
                                                  /home/leon/git/swp-report/iMX6_Platform_SDK/output/mx6dq/sdk_unit_test/smart_device_rev_a/libsdk_unit_test.a(hdmi_test.o)
hid_device_enum                                   /home/leon/git/swp-report/iMX6_Platform_SDK/output/mx6dq/sdk_unit_test/smart_device_rev_a/libsdk_unit_test.a(usb0_device_mouse_test.o)
host_cfg_block                                    /home/leon/git/swp-report/iMX6_Platform_SDK/output/mx6dq/lib/libsdk.a(usdhc_host.o)
                                                  /home/leon/git/swp-report/iMX6_Platform_SDK/output/mx6dq/lib/libsdk.a(usdhc_mmc.o)
                                                  /home/leon/git/swp-report/iMX6_Platform_SDK/output/mx6dq/lib/libsdk.a(usdhc.o)
host_cfg_clock                                    /home/leon/git/swp-report/iMX6_Platform_SDK/output/mx6dq/lib/libsdk.a(usdhc_host.o)
                                                  /home/leon/git/swp-report/iMX6_Platform_SDK/output/mx6dq/lib/libsdk.a(usdhc_sd.o)
                                                  /home/leon/git/swp-report/iMX6_Platform_SDK/output/mx6dq/lib/libsdk.a(usdhc_mmc.o)
                                                  /home/leon/git/swp-report/iMX6_Platform_SDK/output/mx6dq/lib/libsdk.a(usdhc.o)
host_clear_fifo                                   /home/leon/git/swp-report/iMX6_Platform_SDK/output/mx6dq/lib/libsdk.a(usdhc_host.o)
                                                  /home/leon/git/swp-report/iMX6_Platform_SDK/output/mx6dq/lib/libsdk.a(usdhc.o)
host_data_read                                    /home/leon/git/swp-report/iMX6_Platform_SDK/output/mx6dq/lib/libsdk.a(usdhc_host.o)
                                                  /home/leon/git/swp-report/iMX6_Platform_SDK/output/mx6dq/lib/libsdk.a(usdhc_mmc.o)
                                                  /home/leon/git/swp-report/iMX6_Platform_SDK/output/mx6dq/lib/libsdk.a(usdhc.o)
host_data_write                                   /home/leon/git/swp-report/iMX6_Platform_SDK/output/mx6dq/lib/libsdk.a(usdhc_host.o)
                                                  /home/leon/git/swp-report/iMX6_Platform_SDK/output/mx6dq/lib/libsdk.a(usdhc.o)
host_init                                         /home/leon/git/swp-report/iMX6_Platform_SDK/output/mx6dq/lib/libsdk.a(usdhc_host.o)
                                                  /home/leon/git/swp-report/iMX6_Platform_SDK/output/mx6dq/lib/libsdk.a(usdhc.o)
host_init_active                                  /home/leon/git/swp-report/iMX6_Platform_SDK/output/mx6dq/lib/libsdk.a(usdhc_host.o)
                                                  /home/leon/git/swp-report/iMX6_Platform_SDK/output/mx6dq/lib/libsdk.a(usdhc.o)
host_read_response                                /home/leon/git/swp-report/iMX6_Platform_SDK/output/mx6dq/lib/libsdk.a(usdhc_host.o)
                                                  /home/leon/git/swp-report/iMX6_Platform_SDK/output/mx6dq/lib/libsdk.a(usdhc_sd.o)
                                                  /home/leon/git/swp-report/iMX6_Platform_SDK/output/mx6dq/lib/libsdk.a(usdhc_mmc.o)
                                                  /home/leon/git/swp-report/iMX6_Platform_SDK/output/mx6dq/lib/libsdk.a(usdhc.o)
host_reset                                        /home/leon/git/swp-report/iMX6_Platform_SDK/output/mx6dq/lib/libsdk.a(usdhc_host.o)
                                                  /home/leon/git/swp-report/iMX6_Platform_SDK/output/mx6dq/lib/libsdk.a(usdhc.o)
host_send_cmd                                     /home/leon/git/swp-report/iMX6_Platform_SDK/output/mx6dq/lib/libsdk.a(usdhc_host.o)
                                                  /home/leon/git/swp-report/iMX6_Platform_SDK/output/mx6dq/lib/libsdk.a(usdhc_sd.o)
                                                  /home/leon/git/swp-report/iMX6_Platform_SDK/output/mx6dq/lib/libsdk.a(usdhc_mmc.o)
                                                  /home/leon/git/swp-report/iMX6_Platform_SDK/output/mx6dq/lib/libsdk.a(usdhc.o)
host_set_bus_width                                /home/leon/git/swp-report/iMX6_Platform_SDK/output/mx6dq/lib/libsdk.a(usdhc_host.o)
                                                  /home/leon/git/swp-report/iMX6_Platform_SDK/output/mx6dq/lib/libsdk.a(usdhc_sd.o)
                                                  /home/leon/git/swp-report/iMX6_Platform_SDK/output/mx6dq/lib/libsdk.a(usdhc_mmc.o)
host_setup_adma                                   /home/leon/git/swp-report/iMX6_Platform_SDK/output/mx6dq/lib/libsdk.a(usdhc_host.o)
                                                  /home/leon/git/swp-report/iMX6_Platform_SDK/output/mx6dq/lib/libsdk.a(usdhc.o)
i2c1_iomux_config                                 /home/leon/git/swp-report/iMX6_Platform_SDK/output/mx6dq/lib/libboard_smart_device_rev_a.a(i2c1_iomux_config.o)
                                                  /home/leon/git/swp-report/iMX6_Platform_SDK/output/mx6dq/lib/libboard_smart_device_rev_a.a(i2c_iomux_config.o)
                                                  /home/leon/git/swp-report/iMX6_Platform_SDK/output/mx6dq/lib/libboard_smart_device_rev_a.a(iomux_config.o)
i2c2_iomux_config                                 /home/leon/git/swp-report/iMX6_Platform_SDK/output/mx6dq/lib/libboard_smart_device_rev_a.a(i2c2_iomux_config.o)
                                                  /home/leon/git/swp-report/iMX6_Platform_SDK/output/mx6dq/lib/libboard_smart_device_rev_a.a(i2c_iomux_config.o)
                                                  /home/leon/git/swp-report/iMX6_Platform_SDK/output/mx6dq/lib/libboard_smart_device_rev_a.a(iomux_config.o)
i2c3_iomux_config                                 /home/leon/git/swp-report/iMX6_Platform_SDK/output/mx6dq/lib/libboard_smart_device_rev_a.a(i2c3_iomux_config.o)
                                                  /home/leon/git/swp-report/iMX6_Platform_SDK/output/mx6dq/lib/libboard_smart_device_rev_a.a(i2c_iomux_config.o)
                                                  /home/leon/git/swp-report/iMX6_Platform_SDK/output/mx6dq/lib/libboard_smart_device_rev_a.a(iomux_config.o)
i2c_eeprom_at24cxx_test                           /home/leon/git/swp-report/iMX6_Platform_SDK/output/mx6dq/sdk_unit_test/smart_device_rev_a/libsdk_unit_test.a(at24cxx.o)
                                                  /home/leon/git/swp-report/iMX6_Platform_SDK/output/mx6dq/sdk_unit_test/smart_device_rev_a/libsdk_unit_test.a(i2c_test.o)
i2c_get_request_instance                          /home/leon/git/swp-report/iMX6_Platform_SDK/output/mx6dq/lib/libsdk.a(imx_i2c.o)
                                                  /home/leon/git/swp-report/iMX6_Platform_SDK/output/mx6dq/lib/libsdk.a(imx_i2c_slave.o)
i2c_imx6_slave_test                               /home/leon/git/swp-report/iMX6_Platform_SDK/output/mx6dq/sdk_unit_test/smart_device_rev_a/libsdk_unit_test.a(imx6_i2c_device.o)
                                                  /home/leon/git/swp-report/iMX6_Platform_SDK/output/mx6dq/sdk_unit_test/smart_device_rev_a/libsdk_unit_test.a(i2c_test.o)
i2c_init                                          /home/leon/git/swp-report/iMX6_Platform_SDK/output/mx6dq/lib/libsdk.a(imx_i2c.o)
                                                  /home/leon/git/swp-report/iMX6_Platform_SDK/output/mx6dq/lib/libsdk.a(max7310.o)
                                                  /home/leon/git/swp-report/iMX6_Platform_SDK/output/mx6dq/lib/libsdk.a(smd_sensor.o)
                                                  /home/leon/git/swp-report/iMX6_Platform_SDK/output/mx6dq/lib/libsdk.a(mma8451.o)
                                                  /home/leon/git/swp-report/iMX6_Platform_SDK/output/mx6dq/sdk_unit_test/smart_device_rev_a/libsdk_unit_test.a(at24cxx.o)
                                                  /home/leon/git/swp-report/iMX6_Platform_SDK/output/mx6dq/sdk_unit_test/smart_device_rev_a/libsdk_unit_test.a(imx6_i2c_device.o)
i2c_iomux_config                                  /home/leon/git/swp-report/iMX6_Platform_SDK/output/mx6dq/lib/libboard_smart_device_rev_a.a(i2c_iomux_config.o)
                                                  /home/leon/git/swp-report/iMX6_Platform_SDK/output/mx6dq/lib/libsdk.a(imx_i2c.o)
i2c_read                                          /home/leon/git/swp-report/iMX6_Platform_SDK/output/mx6dq/lib/libsdk.a(imx_i2c.o)
                                                  /home/leon/git/swp-report/iMX6_Platform_SDK/output/mx6dq/lib/libsdk.a(max7310.o)
                                                  /home/leon/git/swp-report/iMX6_Platform_SDK/output/mx6dq/lib/libsdk.a(mma8451.o)
                                                  /home/leon/git/swp-report/iMX6_Platform_SDK/output/mx6dq/sdk_unit_test/smart_device_rev_a/libsdk_unit_test.a(at24cxx.o)
i2c_setup_interrupt                               /home/leon/git/swp-report/iMX6_Platform_SDK/output/mx6dq/lib/libsdk.a(imx_i2c.o)
                                                  /home/leon/git/swp-report/iMX6_Platform_SDK/output/mx6dq/lib/libsdk.a(imx_i2c_slave.o)
i2c_slave_handler                                 /home/leon/git/swp-report/iMX6_Platform_SDK/output/mx6dq/lib/libsdk.a(imx_i2c_slave.o)
i2c_slave_interrupt_routine                       /home/leon/git/swp-report/iMX6_Platform_SDK/output/mx6dq/lib/libsdk.a(imx_i2c_slave.o)
i2c_slave_xfer                                    /home/leon/git/swp-report/iMX6_Platform_SDK/output/mx6dq/lib/libsdk.a(imx_i2c_slave.o)
                                                  /home/leon/git/swp-report/iMX6_Platform_SDK/output/mx6dq/sdk_unit_test/smart_device_rev_a/libsdk_unit_test.a(imx6_i2c_device.o)
i2c_test                                          /home/leon/git/swp-report/iMX6_Platform_SDK/output/mx6dq/sdk_unit_test/smart_device_rev_a/libsdk_unit_test.a(i2c_test.o)
                                                  /home/leon/git/swp-report/iMX6_Platform_SDK/output/mx6dq/sdk_unit_test/smart_device_rev_a/obj/apps/sdk_unit_test/src/all_test.o
i2c_write                                         /home/leon/git/swp-report/iMX6_Platform_SDK/output/mx6dq/lib/libsdk.a(imx_i2c.o)
                                                  /home/leon/git/swp-report/iMX6_Platform_SDK/output/mx6dq/lib/libsdk.a(max7310.o)
                                                  /home/leon/git/swp-report/iMX6_Platform_SDK/output/mx6dq/lib/libsdk.a(mma8451.o)
                                                  /home/leon/git/swp-report/iMX6_Platform_SDK/output/mx6dq/sdk_unit_test/smart_device_rev_a/libsdk_unit_test.a(at24cxx.o)
i2c_xfer                                          /home/leon/git/swp-report/iMX6_Platform_SDK/output/mx6dq/lib/libsdk.a(imx_i2c.o)
                                                  /home/leon/git/swp-report/iMX6_Platform_SDK/output/mx6dq/lib/libsdk.a(smd_sensor.o)
ident                                             /home/leon/git/swp-report/iMX6_Platform_SDK/output/mx6dq/lib/libsdk.a(sata.o)
imx6_slave_receive                                /home/leon/git/swp-report/iMX6_Platform_SDK/output/mx6dq/sdk_unit_test/smart_device_rev_a/libsdk_unit_test.a(imx6_i2c_device.o)
imx6_slave_transmit                               /home/leon/git/swp-report/iMX6_Platform_SDK/output/mx6dq/sdk_unit_test/smart_device_rev_a/libsdk_unit_test.a(imx6_i2c_device.o)
imx_KSZ9021RN_reset                               /home/leon/git/swp-report/iMX6_Platform_SDK/output/mx6dq/lib/libboard_smart_device_rev_a.a(board_network.o)
imx_ar8031_iomux                                  /home/leon/git/swp-report/iMX6_Platform_SDK/output/mx6dq/lib/libboard_smart_device_rev_a.a(board_network.o)
imx_ar8031_reset                                  /home/leon/git/swp-report/iMX6_Platform_SDK/output/mx6dq/lib/libboard_smart_device_rev_a.a(board_network.o)
imx_enet_get_phy_status                           /home/leon/git/swp-report/iMX6_Platform_SDK/output/mx6dq/lib/libsdk.a(enet_drv.o)
imx_enet_init                                     /home/leon/git/swp-report/iMX6_Platform_SDK/output/mx6dq/lib/libsdk.a(enet_drv.o)
                                                  /home/leon/git/swp-report/iMX6_Platform_SDK/output/mx6dq/sdk_unit_test/smart_device_rev_a/libsdk_unit_test.a(enet_test.o)
imx_enet_iomux                                    /home/leon/git/swp-report/iMX6_Platform_SDK/output/mx6dq/lib/libboard_smart_device_rev_a.a(board_network.o)
                                                  /home/leon/git/swp-report/iMX6_Platform_SDK/output/mx6dq/sdk_unit_test/smart_device_rev_a/libsdk_unit_test.a(enet_test.o)
imx_enet_isolate_phy                              /home/leon/git/swp-report/iMX6_Platform_SDK/output/mx6dq/lib/libsdk.a(enet_drv.o)
imx_enet_mii_read                                 /home/leon/git/swp-report/iMX6_Platform_SDK/output/mx6dq/lib/libsdk.a(enet_drv.o)
imx_enet_mii_type                                 /home/leon/git/swp-report/iMX6_Platform_SDK/output/mx6dq/lib/libsdk.a(enet_drv.o)
                                                  /home/leon/git/swp-report/iMX6_Platform_SDK/output/mx6dq/sdk_unit_test/smart_device_rev_a/libsdk_unit_test.a(enet_test.o)
imx_enet_mii_write                                /home/leon/git/swp-report/iMX6_Platform_SDK/output/mx6dq/lib/libsdk.a(enet_drv.o)
imx_enet_phy_enable_external_loopback             /home/leon/git/swp-report/iMX6_Platform_SDK/output/mx6dq/lib/libsdk.a(enet_drv.o)
                                                  /home/leon/git/swp-report/iMX6_Platform_SDK/output/mx6dq/sdk_unit_test/smart_device_rev_a/libsdk_unit_test.a(enet_test.o)
imx_enet_phy_init                                 /home/leon/git/swp-report/iMX6_Platform_SDK/output/mx6dq/lib/libsdk.a(enet_drv.o)
                                                  /home/leon/git/swp-report/iMX6_Platform_SDK/output/mx6dq/sdk_unit_test/smart_device_rev_a/libsdk_unit_test.a(enet_test.o)
imx_enet_phy_reset                                /home/leon/git/swp-report/iMX6_Platform_SDK/output/mx6dq/lib/libboard_smart_device_rev_a.a(board_network.o)
                                                  /home/leon/git/swp-report/iMX6_Platform_SDK/output/mx6dq/sdk_unit_test/smart_device_rev_a/libsdk_unit_test.a(enet_test.o)
imx_enet_poll                                     /home/leon/git/swp-report/iMX6_Platform_SDK/output/mx6dq/lib/libsdk.a(enet_drv.o)
                                                  /home/leon/git/swp-report/iMX6_Platform_SDK/output/mx6dq/sdk_unit_test/smart_device_rev_a/libsdk_unit_test.a(enet_test.o)
imx_enet_recv                                     /home/leon/git/swp-report/iMX6_Platform_SDK/output/mx6dq/lib/libsdk.a(enet_drv.o)
                                                  /home/leon/git/swp-report/iMX6_Platform_SDK/output/mx6dq/sdk_unit_test/smart_device_rev_a/libsdk_unit_test.a(enet_test.o)
imx_enet_send                                     /home/leon/git/swp-report/iMX6_Platform_SDK/output/mx6dq/lib/libsdk.a(enet_drv.o)
                                                  /home/leon/git/swp-report/iMX6_Platform_SDK/output/mx6dq/sdk_unit_test/smart_device_rev_a/libsdk_unit_test.a(enet_test.o)
imx_enet_start                                    /home/leon/git/swp-report/iMX6_Platform_SDK/output/mx6dq/lib/libsdk.a(enet_drv.o)
                                                  /home/leon/git/swp-report/iMX6_Platform_SDK/output/mx6dq/sdk_unit_test/smart_device_rev_a/libsdk_unit_test.a(enet_test.o)
imx_enet_stop                                     /home/leon/git/swp-report/iMX6_Platform_SDK/output/mx6dq/lib/libsdk.a(enet_drv.o)
                                                  /home/leon/git/swp-report/iMX6_Platform_SDK/output/mx6dq/sdk_unit_test/smart_device_rev_a/libsdk_unit_test.a(enet_test.o)
imx_enet_unisolate_phy                            /home/leon/git/swp-report/iMX6_Platform_SDK/output/mx6dq/lib/libsdk.a(enet_drv.o)
init_dma_data                                     /home/leon/git/swp-report/iMX6_Platform_SDK/output/mx6dq/sdk_unit_test/smart_device_rev_a/libsdk_unit_test.a(init_dma_data.o)
                                                  /home/leon/git/swp-report/iMX6_Platform_SDK/output/mx6dq/sdk_unit_test/smart_device_rev_a/libsdk_unit_test.a(hdmi_test.o)
init_hdmi_interrupt                               /home/leon/git/swp-report/iMX6_Platform_SDK/output/mx6dq/sdk_unit_test/smart_device_rev_a/libsdk_unit_test.a(hdmi_test.o)
input_dcd                                         /home/leon/git/swp-report/iMX6_Platform_SDK/output/mx6dq/lib/libboard_smart_device_rev_a.a(dcd.o)
input_dcd_hdr                                     /home/leon/git/swp-report/iMX6_Platform_SDK/output/mx6dq/lib/libboard_smart_device_rev_a.a(dcd.o)
                                                  /home/leon/git/swp-report/iMX6_Platform_SDK/output/mx6dq/sdk_unit_test/smart_device_rev_a/obj/apps/common/ivt.o
input_dcd_wrt_cmd                                 /home/leon/git/swp-report/iMX6_Platform_SDK/output/mx6dq/lib/libboard_smart_device_rev_a.a(dcd.o)
input_ivt                                         /home/leon/git/swp-report/iMX6_Platform_SDK/output/mx6dq/sdk_unit_test/smart_device_rev_a/obj/apps/common/ivt.o
iomux_config                                      /home/leon/git/swp-report/iMX6_Platform_SDK/output/mx6dq/lib/libboard_smart_device_rev_a.a(iomux_config.o)
ips_combiner_test                                 /home/leon/git/swp-report/iMX6_Platform_SDK/output/mx6dq/sdk_unit_test/smart_device_rev_a/libsdk_unit_test.a(ips_combiner.o)
                                                  /home/leon/git/swp-report/iMX6_Platform_SDK/output/mx6dq/sdk_unit_test/smart_device_rev_a/libsdk_unit_test.a(ips_test.o)
ips_csc_test                                      /home/leon/git/swp-report/iMX6_Platform_SDK/output/mx6dq/sdk_unit_test/smart_device_rev_a/libsdk_unit_test.a(ips_csc.o)
                                                  /home/leon/git/swp-report/iMX6_Platform_SDK/output/mx6dq/sdk_unit_test/smart_device_rev_a/libsdk_unit_test.a(ips_test.o)
ips_deinterlace_proc                              /home/leon/git/swp-report/iMX6_Platform_SDK/output/mx6dq/lib/libsdk.a(ipu_vdi.o)
                                                  /home/leon/git/swp-report/iMX6_Platform_SDK/output/mx6dq/lib/libsdk.a(ipu_common.o)
ips_display_test                                  /home/leon/git/swp-report/iMX6_Platform_SDK/output/mx6dq/sdk_unit_test/smart_device_rev_a/libsdk_unit_test.a(ips_display.o)
                                                  /home/leon/git/swp-report/iMX6_Platform_SDK/output/mx6dq/sdk_unit_test/smart_device_rev_a/libsdk_unit_test.a(ips_test.o)
ips_ext_hdmi_transmitter_1080P60_stream           /home/leon/git/swp-report/iMX6_Platform_SDK/output/mx6dq/sdk_unit_test/smart_device_rev_a/libsdk_unit_test.a(ips_display.o)
ips_hannstar_xga_yuv_stream                       /home/leon/git/swp-report/iMX6_Platform_SDK/output/mx6dq/sdk_unit_test/smart_device_rev_a/libsdk_unit_test.a(ips_display.o)
ips_hdmi_1080P60_stream                           /home/leon/git/swp-report/iMX6_Platform_SDK/output/mx6dq/sdk_unit_test/smart_device_rev_a/libsdk_unit_test.a(ips_display.o)
                                                  /home/leon/git/swp-report/iMX6_Platform_SDK/output/mx6dq/sdk_unit_test/smart_device_rev_a/libsdk_unit_test.a(hdmi_test.o)
ips_hdmi_720P60_stream                            /home/leon/git/swp-report/iMX6_Platform_SDK/output/mx6dq/sdk_unit_test/smart_device_rev_a/libsdk_unit_test.a(ips_display.o)
                                                  /home/leon/git/swp-report/iMX6_Platform_SDK/output/mx6dq/sdk_unit_test/smart_device_rev_a/libsdk_unit_test.a(hdmi_test.o)
ips_hdmi_stream                                   /home/leon/git/swp-report/iMX6_Platform_SDK/output/mx6dq/sdk_unit_test/smart_device_rev_a/libsdk_unit_test.a(ips_display.o)
                                                  /home/leon/git/swp-report/iMX6_Platform_SDK/output/mx6dq/sdk_unit_test/smart_device_rev_a/libsdk_unit_test.a(hdmi_test.o)
ips_mipi_wvga_rgb_stream                          /home/leon/git/swp-report/iMX6_Platform_SDK/output/mx6dq/sdk_unit_test/smart_device_rev_a/libsdk_unit_test.a(ips_display.o)
ips_resize_test                                   /home/leon/git/swp-report/iMX6_Platform_SDK/output/mx6dq/sdk_unit_test/smart_device_rev_a/libsdk_unit_test.a(ips_resize.o)
                                                  /home/leon/git/swp-report/iMX6_Platform_SDK/output/mx6dq/sdk_unit_test/smart_device_rev_a/libsdk_unit_test.a(ips_test.o)
ips_rotate_test                                   /home/leon/git/swp-report/iMX6_Platform_SDK/output/mx6dq/sdk_unit_test/smart_device_rev_a/libsdk_unit_test.a(ips_rotate.o)
                                                  /home/leon/git/swp-report/iMX6_Platform_SDK/output/mx6dq/sdk_unit_test/smart_device_rev_a/libsdk_unit_test.a(ips_test.o)
ipu1_ch0_eobnd_isr                                /home/leon/git/swp-report/iMX6_Platform_SDK/output/mx6dq/lib/libsdk.a(ipu_common.o)
ipu1_iomux_config                                 /home/leon/git/swp-report/iMX6_Platform_SDK/output/mx6dq/lib/libboard_smart_device_rev_a.a(ipu1_iomux_config.o)
                                                  /home/leon/git/swp-report/iMX6_Platform_SDK/output/mx6dq/lib/libboard_smart_device_rev_a.a(board_hdmi.o)
                                                  /home/leon/git/swp-report/iMX6_Platform_SDK/output/mx6dq/lib/libsdk.a(ips_disp_panel.o)
                                                  /home/leon/git/swp-report/iMX6_Platform_SDK/output/mx6dq/sdk_unit_test/smart_device_rev_a/libsdk_unit_test.a(sensor_capture.o)
                                                  /home/leon/git/swp-report/iMX6_Platform_SDK/output/mx6dq/sdk_unit_test/smart_device_rev_a/libsdk_unit_test.a(csi_test_mode.o)
                                                  /home/leon/git/swp-report/iMX6_Platform_SDK/output/mx6dq/sdk_unit_test/smart_device_rev_a/libsdk_unit_test.a(ips_test.o)
                                                  /home/leon/git/swp-report/iMX6_Platform_SDK/output/mx6dq/lib/libboard_smart_device_rev_a.a(iomux_config.o)
ipu2_iomux_config                                 /home/leon/git/swp-report/iMX6_Platform_SDK/output/mx6dq/lib/libboard_smart_device_rev_a.a(iomux_config.o)
ipu_capture_disp_link                             /home/leon/git/swp-report/iMX6_Platform_SDK/output/mx6dq/lib/libsdk.a(ipu_csi.o)
                                                  /home/leon/git/swp-report/iMX6_Platform_SDK/output/mx6dq/lib/libsdk.a(ipu_common.o)
ipu_capture_setup                                 /home/leon/git/swp-report/iMX6_Platform_SDK/output/mx6dq/lib/libsdk.a(ipu_common.o)
                                                  /home/leon/git/swp-report/iMX6_Platform_SDK/output/mx6dq/sdk_unit_test/smart_device_rev_a/libsdk_unit_test.a(sensor_capture.o)
                                                  /home/leon/git/swp-report/iMX6_Platform_SDK/output/mx6dq/sdk_unit_test/smart_device_rev_a/libsdk_unit_test.a(csi_test_mode.o)
ipu_capture_streamoff                             /home/leon/git/swp-report/iMX6_Platform_SDK/output/mx6dq/lib/libsdk.a(ipu_common.o)
                                                  /home/leon/git/swp-report/iMX6_Platform_SDK/output/mx6dq/sdk_unit_test/smart_device_rev_a/libsdk_unit_test.a(sensor_capture.o)
                                                  /home/leon/git/swp-report/iMX6_Platform_SDK/output/mx6dq/sdk_unit_test/smart_device_rev_a/libsdk_unit_test.a(csi_test_mode.o)
ipu_ch0_eobnd_interrupt_register                  /home/leon/git/swp-report/iMX6_Platform_SDK/output/mx6dq/lib/libsdk.a(ipu_common.o)
ipu_channel_buf_not_ready                         /home/leon/git/swp-report/iMX6_Platform_SDK/output/mx6dq/lib/libsdk.a(ipu_idmac.o)
ipu_channel_buf_ready                             /home/leon/git/swp-report/iMX6_Platform_SDK/output/mx6dq/lib/libsdk.a(ipu_idmac.o)
                                                  /home/leon/git/swp-report/iMX6_Platform_SDK/output/mx6dq/lib/libsdk.a(ipu_vdi.o)
                                                  /home/leon/git/swp-report/iMX6_Platform_SDK/output/mx6dq/lib/libsdk.a(ipu_common.o)
                                                  /home/leon/git/swp-report/iMX6_Platform_SDK/output/mx6dq/sdk_unit_test/smart_device_rev_a/libsdk_unit_test.a(ips_rotate.o)
                                                  /home/leon/git/swp-report/iMX6_Platform_SDK/output/mx6dq/sdk_unit_test/smart_device_rev_a/libsdk_unit_test.a(ips_resize.o)
                                                  /home/leon/git/swp-report/iMX6_Platform_SDK/output/mx6dq/sdk_unit_test/smart_device_rev_a/libsdk_unit_test.a(ips_csc.o)
ipu_cpmem_mod_field                               /home/leon/git/swp-report/iMX6_Platform_SDK/output/mx6dq/lib/libsdk.a(ipu_idmac.o)
                                                  /home/leon/git/swp-report/iMX6_Platform_SDK/output/mx6dq/sdk_unit_test/smart_device_rev_a/libsdk_unit_test.a(ips_display.o)
ipu_cpmem_read_field                              /home/leon/git/swp-report/iMX6_Platform_SDK/output/mx6dq/lib/libsdk.a(ipu_idmac.o)
ipu_cpmem_set_field                               /home/leon/git/swp-report/iMX6_Platform_SDK/output/mx6dq/lib/libsdk.a(ipu_idmac.o)
                                                  /home/leon/git/swp-report/iMX6_Platform_SDK/output/mx6dq/lib/libsdk.a(ipu_common.o)
ipu_csi_config                                    /home/leon/git/swp-report/iMX6_Platform_SDK/output/mx6dq/lib/libsdk.a(ipu_csi.o)
                                                  /home/leon/git/swp-report/iMX6_Platform_SDK/output/mx6dq/lib/libsdk.a(ipu_common.o)
ipu_csi_test_mode_color                           /home/leon/git/swp-report/iMX6_Platform_SDK/output/mx6dq/lib/libsdk.a(ipu_csi.o)
                                                  /home/leon/git/swp-report/iMX6_Platform_SDK/output/mx6dq/sdk_unit_test/smart_device_rev_a/libsdk_unit_test.a(csi_test_mode.o)
ipu_dc_config                                     /home/leon/git/swp-report/iMX6_Platform_SDK/output/mx6dq/lib/libsdk.a(ipu_dc.o)
                                                  /home/leon/git/swp-report/iMX6_Platform_SDK/output/mx6dq/lib/libsdk.a(ipu_common.o)
ipu_dc_display_config                             /home/leon/git/swp-report/iMX6_Platform_SDK/output/mx6dq/lib/libsdk.a(ipu_dc.o)
ipu_dc_map                                        /home/leon/git/swp-report/iMX6_Platform_SDK/output/mx6dq/lib/libsdk.a(ipu_dc.o)
ipu_dc_microcode_config                           /home/leon/git/swp-report/iMX6_Platform_SDK/output/mx6dq/lib/libsdk.a(ipu_dc.o)
ipu_dc_microcode_event                            /home/leon/git/swp-report/iMX6_Platform_SDK/output/mx6dq/lib/libsdk.a(ipu_dc.o)
ipu_dc_write_channel_config                       /home/leon/git/swp-report/iMX6_Platform_SDK/output/mx6dq/lib/libsdk.a(ipu_dc.o)
ipu_deinterlace_3_fields                          /home/leon/git/swp-report/iMX6_Platform_SDK/output/mx6dq/lib/libsdk.a(ipu_vdi.o)
ipu_deinterlace_idmac_config                      /home/leon/git/swp-report/iMX6_Platform_SDK/output/mx6dq/lib/libsdk.a(ipu_idmac.o)
                                                  /home/leon/git/swp-report/iMX6_Platform_SDK/output/mx6dq/lib/libsdk.a(ipu_vdi.o)
ipu_di_bsclk_gen                                  /home/leon/git/swp-report/iMX6_Platform_SDK/output/mx6dq/lib/libsdk.a(ipu_di.o)
ipu_di_config                                     /home/leon/git/swp-report/iMX6_Platform_SDK/output/mx6dq/lib/libsdk.a(ipu_di.o)
                                                  /home/leon/git/swp-report/iMX6_Platform_SDK/output/mx6dq/lib/libsdk.a(ipu_common.o)
ipu_di_interface_set                              /home/leon/git/swp-report/iMX6_Platform_SDK/output/mx6dq/lib/libsdk.a(ipu_di.o)
ipu_di_pointer_config                             /home/leon/git/swp-report/iMX6_Platform_SDK/output/mx6dq/lib/libsdk.a(ipu_di.o)
ipu_di_screen_set                                 /home/leon/git/swp-report/iMX6_Platform_SDK/output/mx6dq/lib/libsdk.a(ipu_di.o)
ipu_di_sync_config                                /home/leon/git/swp-report/iMX6_Platform_SDK/output/mx6dq/lib/libsdk.a(ipu_di.o)
ipu_di_waveform_config                            /home/leon/git/swp-report/iMX6_Platform_SDK/output/mx6dq/lib/libsdk.a(ipu_di.o)
ipu_disable_csi                                   /home/leon/git/swp-report/iMX6_Platform_SDK/output/mx6dq/lib/libsdk.a(ipu_csi.o)
                                                  /home/leon/git/swp-report/iMX6_Platform_SDK/output/mx6dq/lib/libsdk.a(ipu_common.o)
ipu_disable_display                               /home/leon/git/swp-report/iMX6_Platform_SDK/output/mx6dq/lib/libsdk.a(ipu_common.o)
ipu_disable_smfc                                  /home/leon/git/swp-report/iMX6_Platform_SDK/output/mx6dq/lib/libsdk.a(ipu_csi.o)
                                                  /home/leon/git/swp-report/iMX6_Platform_SDK/output/mx6dq/lib/libsdk.a(ipu_common.o)
ipu_disp_bg_idmac_config                          /home/leon/git/swp-report/iMX6_Platform_SDK/output/mx6dq/lib/libsdk.a(ipu_idmac.o)
                                                  /home/leon/git/swp-report/iMX6_Platform_SDK/output/mx6dq/lib/libsdk.a(ipu_common.o)
ipu_disp_fg_idmac_config                          /home/leon/git/swp-report/iMX6_Platform_SDK/output/mx6dq/lib/libsdk.a(ipu_idmac.o)
                                                  /home/leon/git/swp-report/iMX6_Platform_SDK/output/mx6dq/lib/libsdk.a(ipu_common.o)
ipu_display_setup                                 /home/leon/git/swp-report/iMX6_Platform_SDK/output/mx6dq/lib/libsdk.a(ipu_common.o)
                                                  /home/leon/git/swp-report/iMX6_Platform_SDK/output/mx6dq/sdk_unit_test/smart_device_rev_a/libsdk_unit_test.a(ips_rotate.o)
                                                  /home/leon/git/swp-report/iMX6_Platform_SDK/output/mx6dq/sdk_unit_test/smart_device_rev_a/libsdk_unit_test.a(ips_resize.o)
                                                  /home/leon/git/swp-report/iMX6_Platform_SDK/output/mx6dq/sdk_unit_test/smart_device_rev_a/libsdk_unit_test.a(ips_csc.o)
                                                  /home/leon/git/swp-report/iMX6_Platform_SDK/output/mx6dq/sdk_unit_test/smart_device_rev_a/libsdk_unit_test.a(ips_display.o)
ipu_dma_update_buffer                             /home/leon/git/swp-report/iMX6_Platform_SDK/output/mx6dq/lib/libsdk.a(ipu_idmac.o)
ipu_dmfc_alloc                                    /home/leon/git/swp-report/iMX6_Platform_SDK/output/mx6dq/lib/libsdk.a(ipu_dmfc.o)
                                                  /home/leon/git/swp-report/iMX6_Platform_SDK/output/mx6dq/sdk_unit_test/smart_device_rev_a/libsdk_unit_test.a(ips_display.o)
ipu_dmfc_config                                   /home/leon/git/swp-report/iMX6_Platform_SDK/output/mx6dq/lib/libsdk.a(ipu_dmfc.o)
                                                  /home/leon/git/swp-report/iMX6_Platform_SDK/output/mx6dq/lib/libsdk.a(ipu_common.o)
ipu_dp_config                                     /home/leon/git/swp-report/iMX6_Platform_SDK/output/mx6dq/lib/libsdk.a(ipu_dp.o)
                                                  /home/leon/git/swp-report/iMX6_Platform_SDK/output/mx6dq/lib/libsdk.a(ipu_common.o)
                                                  /home/leon/git/swp-report/iMX6_Platform_SDK/output/mx6dq/sdk_unit_test/smart_device_rev_a/libsdk_unit_test.a(ips_combiner.o)
ipu_dp_csc_config                                 /home/leon/git/swp-report/iMX6_Platform_SDK/output/mx6dq/lib/libsdk.a(ipu_dp.o)
ipu_dp_fg_config                                  /home/leon/git/swp-report/iMX6_Platform_SDK/output/mx6dq/lib/libsdk.a(ipu_dp.o)
ipu_dual_display_setup                            /home/leon/git/swp-report/iMX6_Platform_SDK/output/mx6dq/lib/libsdk.a(ipu_common.o)
                                                  /home/leon/git/swp-report/iMX6_Platform_SDK/output/mx6dq/sdk_unit_test/smart_device_rev_a/libsdk_unit_test.a(ips_combiner.o)
ipu_enable_display                                /home/leon/git/swp-report/iMX6_Platform_SDK/output/mx6dq/lib/libsdk.a(ipu_common.o)
                                                  /home/leon/git/swp-report/iMX6_Platform_SDK/output/mx6dq/sdk_unit_test/smart_device_rev_a/libsdk_unit_test.a(ips_rotate.o)
                                                  /home/leon/git/swp-report/iMX6_Platform_SDK/output/mx6dq/sdk_unit_test/smart_device_rev_a/libsdk_unit_test.a(ips_resize.o)
                                                  /home/leon/git/swp-report/iMX6_Platform_SDK/output/mx6dq/sdk_unit_test/smart_device_rev_a/libsdk_unit_test.a(ips_csc.o)
                                                  /home/leon/git/swp-report/iMX6_Platform_SDK/output/mx6dq/sdk_unit_test/smart_device_rev_a/libsdk_unit_test.a(ips_combiner.o)
                                                  /home/leon/git/swp-report/iMX6_Platform_SDK/output/mx6dq/sdk_unit_test/smart_device_rev_a/libsdk_unit_test.a(sensor_capture.o)
                                                  /home/leon/git/swp-report/iMX6_Platform_SDK/output/mx6dq/sdk_unit_test/smart_device_rev_a/libsdk_unit_test.a(csi_test_mode.o)
                                                  /home/leon/git/swp-report/iMX6_Platform_SDK/output/mx6dq/sdk_unit_test/smart_device_rev_a/libsdk_unit_test.a(ips_display.o)
ipu_general_idmac_config                          /home/leon/git/swp-report/iMX6_Platform_SDK/output/mx6dq/lib/libsdk.a(ipu_idmac.o)
                                                  /home/leon/git/swp-report/iMX6_Platform_SDK/output/mx6dq/lib/libsdk.a(ipu_common.o)
ipu_hsp_clk_config                                /home/leon/git/swp-report/iMX6_Platform_SDK/output/mx6dq/lib/libsdk.a(ccm_pll.o)
ipu_ic_calc_resize_coeffs                         /home/leon/git/swp-report/iMX6_Platform_SDK/output/mx6dq/lib/libsdk.a(ipu_ic.o)
ipu_ic_combine_config                             /home/leon/git/swp-report/iMX6_Platform_SDK/output/mx6dq/lib/libsdk.a(ipu_ic.o)
ipu_ic_config_resize_rate                         /home/leon/git/swp-report/iMX6_Platform_SDK/output/mx6dq/lib/libsdk.a(ipu_ic.o)
ipu_ic_csc_config                                 /home/leon/git/swp-report/iMX6_Platform_SDK/output/mx6dq/lib/libsdk.a(ipu_ic.o)
                                                  /home/leon/git/swp-report/iMX6_Platform_SDK/output/mx6dq/sdk_unit_test/smart_device_rev_a/libsdk_unit_test.a(ips_csc.o)
ipu_ic_deinterlace_config                         /home/leon/git/swp-report/iMX6_Platform_SDK/output/mx6dq/lib/libsdk.a(ipu_ic.o)
                                                  /home/leon/git/swp-report/iMX6_Platform_SDK/output/mx6dq/lib/libsdk.a(ipu_vdi.o)
ipu_ic_enable                                     /home/leon/git/swp-report/iMX6_Platform_SDK/output/mx6dq/lib/libsdk.a(ipu_ic.o)
                                                  /home/leon/git/swp-report/iMX6_Platform_SDK/output/mx6dq/lib/libsdk.a(ipu_vdi.o)
                                                  /home/leon/git/swp-report/iMX6_Platform_SDK/output/mx6dq/sdk_unit_test/smart_device_rev_a/libsdk_unit_test.a(ips_rotate.o)
                                                  /home/leon/git/swp-report/iMX6_Platform_SDK/output/mx6dq/sdk_unit_test/smart_device_rev_a/libsdk_unit_test.a(ips_resize.o)
                                                  /home/leon/git/swp-report/iMX6_Platform_SDK/output/mx6dq/sdk_unit_test/smart_device_rev_a/libsdk_unit_test.a(ips_csc.o)
ipu_ic_resize_config                              /home/leon/git/swp-report/iMX6_Platform_SDK/output/mx6dq/lib/libsdk.a(ipu_ic.o)
                                                  /home/leon/git/swp-report/iMX6_Platform_SDK/output/mx6dq/sdk_unit_test/smart_device_rev_a/libsdk_unit_test.a(ips_resize.o)
                                                  /home/leon/git/swp-report/iMX6_Platform_SDK/output/mx6dq/sdk_unit_test/smart_device_rev_a/libsdk_unit_test.a(ips_csc.o)
ipu_ic_rotation_config                            /home/leon/git/swp-report/iMX6_Platform_SDK/output/mx6dq/lib/libsdk.a(ipu_ic.o)
                                                  /home/leon/git/swp-report/iMX6_Platform_SDK/output/mx6dq/sdk_unit_test/smart_device_rev_a/libsdk_unit_test.a(ips_rotate.o)
                                                  /home/leon/git/swp-report/iMX6_Platform_SDK/output/mx6dq/sdk_unit_test/smart_device_rev_a/libsdk_unit_test.a(ips_resize.o)
ipu_ic_task_enable                                /home/leon/git/swp-report/iMX6_Platform_SDK/output/mx6dq/lib/libsdk.a(ipu_ic.o)
                                                  /home/leon/git/swp-report/iMX6_Platform_SDK/output/mx6dq/lib/libsdk.a(ipu_vdi.o)
                                                  /home/leon/git/swp-report/iMX6_Platform_SDK/output/mx6dq/sdk_unit_test/smart_device_rev_a/libsdk_unit_test.a(ips_rotate.o)
                                                  /home/leon/git/swp-report/iMX6_Platform_SDK/output/mx6dq/sdk_unit_test/smart_device_rev_a/libsdk_unit_test.a(ips_resize.o)
                                                  /home/leon/git/swp-report/iMX6_Platform_SDK/output/mx6dq/sdk_unit_test/smart_device_rev_a/libsdk_unit_test.a(ips_csc.o)
ipu_idma_pixel_format_config                      /home/leon/git/swp-report/iMX6_Platform_SDK/output/mx6dq/lib/libsdk.a(ipu_idmac.o)
ipu_idmac_chan_cur_buff                           /home/leon/git/swp-report/iMX6_Platform_SDK/output/mx6dq/lib/libsdk.a(ipu_idmac.o)
ipu_idmac_channel_busy                            /home/leon/git/swp-report/iMX6_Platform_SDK/output/mx6dq/lib/libsdk.a(ipu_idmac.o)
                                                  /home/leon/git/swp-report/iMX6_Platform_SDK/output/mx6dq/lib/libsdk.a(ipu_vdi.o)
                                                  /home/leon/git/swp-report/iMX6_Platform_SDK/output/mx6dq/sdk_unit_test/smart_device_rev_a/libsdk_unit_test.a(ips_rotate.o)
                                                  /home/leon/git/swp-report/iMX6_Platform_SDK/output/mx6dq/sdk_unit_test/smart_device_rev_a/libsdk_unit_test.a(ips_resize.o)
                                                  /home/leon/git/swp-report/iMX6_Platform_SDK/output/mx6dq/sdk_unit_test/smart_device_rev_a/libsdk_unit_test.a(ips_csc.o)
ipu_idmac_channel_enable                          /home/leon/git/swp-report/iMX6_Platform_SDK/output/mx6dq/lib/libsdk.a(ipu_idmac.o)
                                                  /home/leon/git/swp-report/iMX6_Platform_SDK/output/mx6dq/lib/libsdk.a(ipu_common.o)
                                                  /home/leon/git/swp-report/iMX6_Platform_SDK/output/mx6dq/sdk_unit_test/smart_device_rev_a/libsdk_unit_test.a(ips_csc.o)
ipu_idmac_channel_mode_sel                        /home/leon/git/swp-report/iMX6_Platform_SDK/output/mx6dq/lib/libsdk.a(ipu_idmac.o)
ipu_mipi_csi2_setup                               /home/leon/git/swp-report/iMX6_Platform_SDK/output/mx6dq/lib/libsdk.a(ipu_common.o)
ipu_read                                          /home/leon/git/swp-report/iMX6_Platform_SDK/output/mx6dq/lib/libsdk.a(ipu_common.o)
                                                  /home/leon/git/swp-report/iMX6_Platform_SDK/output/mx6dq/lib/libsdk.a(ipu_vdi.o)
ipu_resize_idmac_config                           /home/leon/git/swp-report/iMX6_Platform_SDK/output/mx6dq/lib/libsdk.a(ipu_idmac.o)
                                                  /home/leon/git/swp-report/iMX6_Platform_SDK/output/mx6dq/sdk_unit_test/smart_device_rev_a/libsdk_unit_test.a(ips_resize.o)
                                                  /home/leon/git/swp-report/iMX6_Platform_SDK/output/mx6dq/sdk_unit_test/smart_device_rev_a/libsdk_unit_test.a(ips_csc.o)
ipu_rotate_idmac_config                           /home/leon/git/swp-report/iMX6_Platform_SDK/output/mx6dq/lib/libsdk.a(ipu_idmac.o)
                                                  /home/leon/git/swp-report/iMX6_Platform_SDK/output/mx6dq/sdk_unit_test/smart_device_rev_a/libsdk_unit_test.a(ips_rotate.o)
                                                  /home/leon/git/swp-report/iMX6_Platform_SDK/output/mx6dq/sdk_unit_test/smart_device_rev_a/libsdk_unit_test.a(ips_resize.o)
ipu_smfc_fifo_allocate                            /home/leon/git/swp-report/iMX6_Platform_SDK/output/mx6dq/lib/libsdk.a(ipu_csi.o)
                                                  /home/leon/git/swp-report/iMX6_Platform_SDK/output/mx6dq/lib/libsdk.a(ipu_common.o)
ipu_sw_reset                                      /home/leon/git/swp-report/iMX6_Platform_SDK/output/mx6dq/lib/libsdk.a(ipu_common.o)
                                                  /home/leon/git/swp-report/iMX6_Platform_SDK/output/mx6dq/sdk_unit_test/smart_device_rev_a/libsdk_unit_test.a(ips_resize.o)
                                                  /home/leon/git/swp-report/iMX6_Platform_SDK/output/mx6dq/sdk_unit_test/smart_device_rev_a/libsdk_unit_test.a(ips_csc.o)
                                                  /home/leon/git/swp-report/iMX6_Platform_SDK/output/mx6dq/sdk_unit_test/smart_device_rev_a/libsdk_unit_test.a(ips_combiner.o)
                                                  /home/leon/git/swp-report/iMX6_Platform_SDK/output/mx6dq/sdk_unit_test/smart_device_rev_a/libsdk_unit_test.a(sensor_capture.o)
                                                  /home/leon/git/swp-report/iMX6_Platform_SDK/output/mx6dq/sdk_unit_test/smart_device_rev_a/libsdk_unit_test.a(csi_test_mode.o)
                                                  /home/leon/git/swp-report/iMX6_Platform_SDK/output/mx6dq/sdk_unit_test/smart_device_rev_a/libsdk_unit_test.a(ips_display.o)
ipu_test                                          /home/leon/git/swp-report/iMX6_Platform_SDK/output/mx6dq/sdk_unit_test/smart_device_rev_a/libsdk_unit_test.a(ips_test.o)
                                                  /home/leon/git/swp-report/iMX6_Platform_SDK/output/mx6dq/sdk_unit_test/smart_device_rev_a/obj/apps/sdk_unit_test/src/all_test.o
ipu_vdi_init                                      /home/leon/git/swp-report/iMX6_Platform_SDK/output/mx6dq/lib/libsdk.a(ipu_vdi.o)
ipu_vdi_set_motion                                /home/leon/git/swp-report/iMX6_Platform_SDK/output/mx6dq/lib/libsdk.a(ipu_vdi.o)
ipu_vdi_set_top_field_man                         /home/leon/git/swp-report/iMX6_Platform_SDK/output/mx6dq/lib/libsdk.a(ipu_vdi.o)
ipu_vdi_uninit                                    /home/leon/git/swp-report/iMX6_Platform_SDK/output/mx6dq/lib/libsdk.a(ipu_vdi.o)
ipu_write                                         /home/leon/git/swp-report/iMX6_Platform_SDK/output/mx6dq/lib/libsdk.a(ipu_common.o)
                                                  /home/leon/git/swp-report/iMX6_Platform_SDK/output/mx6dq/lib/libsdk.a(ipu_vdi.o)
ipu_write_field                                   /home/leon/git/swp-report/iMX6_Platform_SDK/output/mx6dq/lib/libsdk.a(ipu_common.o)
                                                  /home/leon/git/swp-report/iMX6_Platform_SDK/output/mx6dq/lib/libsdk.a(ipu_vdi.o)
                                                  /home/leon/git/swp-report/iMX6_Platform_SDK/output/mx6dq/lib/libsdk.a(ipu_idmac.o)
                                                  /home/leon/git/swp-report/iMX6_Platform_SDK/output/mx6dq/lib/libsdk.a(ipu_ic.o)
                                                  /home/leon/git/swp-report/iMX6_Platform_SDK/output/mx6dq/lib/libsdk.a(ipu_dp.o)
                                                  /home/leon/git/swp-report/iMX6_Platform_SDK/output/mx6dq/lib/libsdk.a(ipu_dmfc.o)
                                                  /home/leon/git/swp-report/iMX6_Platform_SDK/output/mx6dq/lib/libsdk.a(ipu_di.o)
                                                  /home/leon/git/swp-report/iMX6_Platform_SDK/output/mx6dq/lib/libsdk.a(ipu_dc.o)
                                                  /home/leon/git/swp-report/iMX6_Platform_SDK/output/mx6dq/lib/libsdk.a(ipu_csi.o)
isColorSpaceConversion                            /home/leon/git/swp-report/iMX6_Platform_SDK/output/mx6dq/lib/libsdk.a(hdmi_common.o)
                                                  /home/leon/git/swp-report/iMX6_Platform_SDK/output/mx6dq/lib/libsdk.a(hdmi_tx.o)
isColorSpaceDecimation                            /home/leon/git/swp-report/iMX6_Platform_SDK/output/mx6dq/lib/libsdk.a(hdmi_common.o)
                                                  /home/leon/git/swp-report/iMX6_Platform_SDK/output/mx6dq/lib/libsdk.a(hdmi_tx.o)
isColorSpaceInterpolation                         /home/leon/git/swp-report/iMX6_Platform_SDK/output/mx6dq/lib/libsdk.a(hdmi_common.o)
                                                  /home/leon/git/swp-report/iMX6_Platform_SDK/output/mx6dq/lib/libsdk.a(hdmi_tx.o)
isPixelRepetition                                 /home/leon/git/swp-report/iMX6_Platform_SDK/output/mx6dq/lib/libsdk.a(hdmi_common.o)
isTestDone                                        /home/leon/git/swp-report/iMX6_Platform_SDK/output/mx6dq/sdk_unit_test/smart_device_rev_a/libsdk_unit_test.a(multicore_test.o)
is_color_supported                                /home/leon/git/swp-report/iMX6_Platform_SDK/output/mx6dq/lib/libsdk.a(text_color.o)
is_input_char                                     /home/leon/git/swp-report/iMX6_Platform_SDK/output/mx6dq/lib/libsdk.a(system_util.o)
                                                  /home/leon/git/swp-report/iMX6_Platform_SDK/output/mx6dq/sdk_unit_test/smart_device_rev_a/libsdk_unit_test.a(enet_test.o)
                                                  /home/leon/git/swp-report/iMX6_Platform_SDK/output/mx6dq/sdk_unit_test/smart_device_rev_a/libsdk_unit_test.a(sensor_capture.o)
jump_to_sdp                                       /home/leon/git/swp-report/iMX6_Platform_SDK/output/mx6dq/lib/libsdk.a(system_util.o)
k_gpio_mux_registers                              /home/leon/git/swp-report/iMX6_Platform_SDK/output/mx6dq/lib/libsdk.a(imx6dq_gpio_map.o)
                                                  /home/leon/git/swp-report/iMX6_Platform_SDK/output/mx6dq/lib/libsdk.a(gpio.o)
k_mainMenu                                        /home/leon/git/swp-report/iMX6_Platform_SDK/output/mx6dq/sdk_unit_test/smart_device_rev_a/obj/apps/sdk_unit_test/src/all_test.o
k_menuItems                                       /home/leon/git/swp-report/iMX6_Platform_SDK/output/mx6dq/sdk_unit_test/smart_device_rev_a/obj/apps/sdk_unit_test/src/all_test.o
k_sdk_copyright                                   /home/leon/git/swp-report/iMX6_Platform_SDK/output/mx6dq/lib/libsdk.a(sdk_version.o)
                                                  /home/leon/git/swp-report/iMX6_Platform_SDK/output/mx6dq/sdk_unit_test/smart_device_rev_a/obj/apps/common/print_version.o
k_sdk_version                                     /home/leon/git/swp-report/iMX6_Platform_SDK/output/mx6dq/lib/libsdk.a(sdk_version.o)
                                                  /home/leon/git/swp-report/iMX6_Platform_SDK/output/mx6dq/sdk_unit_test/smart_device_rev_a/obj/apps/common/print_version.o
keypad_test                                       /home/leon/git/swp-report/iMX6_Platform_SDK/output/mx6dq/sdk_unit_test/smart_device_rev_a/libsdk_unit_test.a(keypad_test.o)
                                                  /home/leon/git/swp-report/iMX6_Platform_SDK/output/mx6dq/sdk_unit_test/smart_device_rev_a/obj/apps/sdk_unit_test/src/all_test.o
kpp_close                                         /home/leon/git/swp-report/iMX6_Platform_SDK/output/mx6dq/lib/libsdk.a(keypad_port.o)
                                                  /home/leon/git/swp-report/iMX6_Platform_SDK/output/mx6dq/sdk_unit_test/smart_device_rev_a/libsdk_unit_test.a(keypad_test.o)
kpp_get_keypad_state                              /home/leon/git/swp-report/iMX6_Platform_SDK/output/mx6dq/lib/libsdk.a(keypad_port.o)
                                                  /home/leon/git/swp-report/iMX6_Platform_SDK/output/mx6dq/sdk_unit_test/smart_device_rev_a/libsdk_unit_test.a(keypad_test.o)
kpp_interrupt_routine                             /home/leon/git/swp-report/iMX6_Platform_SDK/output/mx6dq/lib/libsdk.a(keypad_port.o)
kpp_iomux_config                                  /home/leon/git/swp-report/iMX6_Platform_SDK/output/mx6dq/lib/libboard_smart_device_rev_a.a(kpp_iomux_config.o)
                                                  /home/leon/git/swp-report/iMX6_Platform_SDK/output/mx6dq/lib/libsdk.a(keypad_port.o)
                                                  /home/leon/git/swp-report/iMX6_Platform_SDK/output/mx6dq/lib/libboard_smart_device_rev_a.a(iomux_config.o)
kpp_open                                          /home/leon/git/swp-report/iMX6_Platform_SDK/output/mx6dq/lib/libsdk.a(keypad_port.o)
                                                  /home/leon/git/swp-report/iMX6_Platform_SDK/output/mx6dq/sdk_unit_test/smart_device_rev_a/libsdk_unit_test.a(keypad_test.o)
kpp_scan_matrix                                   /home/leon/git/swp-report/iMX6_Platform_SDK/output/mx6dq/lib/libsdk.a(keypad_port.o)
kpp_setup_interrupt                               /home/leon/git/swp-report/iMX6_Platform_SDK/output/mx6dq/lib/libsdk.a(keypad_port.o)
kpp_wait_for_release_state                        /home/leon/git/swp-report/iMX6_Platform_SDK/output/mx6dq/lib/libsdk.a(keypad_port.o)
                                                  /home/leon/git/swp-report/iMX6_Platform_SDK/output/mx6dq/sdk_unit_test/smart_device_rev_a/libsdk_unit_test.a(keypad_test.o)
ldb_clock_config                                  /home/leon/git/swp-report/iMX6_Platform_SDK/output/mx6dq/lib/libboard_smart_device_rev_a.a(board_display.o)
                                                  /home/leon/git/swp-report/iMX6_Platform_SDK/output/mx6dq/lib/libsdk.a(ips_disp_panel.o)
ldb_config                                        /home/leon/git/swp-report/iMX6_Platform_SDK/output/mx6dq/lib/libsdk.a(ldb.o)
                                                  /home/leon/git/swp-report/iMX6_Platform_SDK/output/mx6dq/lib/libsdk.a(ips_disp_panel.o)
ldb_iomux_config                                  /home/leon/git/swp-report/iMX6_Platform_SDK/output/mx6dq/lib/libboard_smart_device_rev_a.a(iomux_config.o)
                                                  /home/leon/git/swp-report/iMX6_Platform_SDK/output/mx6dq/lib/libsdk.a(ips_disp_panel.o)
ldb_set_vs_polarity                               /home/leon/git/swp-report/iMX6_Platform_SDK/output/mx6dq/lib/libsdk.a(ldb.o)
list_panel                                        /home/leon/git/swp-report/iMX6_Platform_SDK/output/mx6dq/lib/libsdk.a(ips_disp_panel.o)
load_centralized_image                            /home/leon/git/swp-report/iMX6_Platform_SDK/output/mx6dq/sdk_unit_test/smart_device_rev_a/libsdk_unit_test.a(ipu_image.o)
                                                  /home/leon/git/swp-report/iMX6_Platform_SDK/output/mx6dq/sdk_unit_test/smart_device_rev_a/libsdk_unit_test.a(ips_rotate.o)
                                                  /home/leon/git/swp-report/iMX6_Platform_SDK/output/mx6dq/sdk_unit_test/smart_device_rev_a/libsdk_unit_test.a(ips_combiner.o)
                                                  /home/leon/git/swp-report/iMX6_Platform_SDK/output/mx6dq/sdk_unit_test/smart_device_rev_a/libsdk_unit_test.a(ips_display.o)
load_foreground_image                             /home/leon/git/swp-report/iMX6_Platform_SDK/output/mx6dq/sdk_unit_test/smart_device_rev_a/libsdk_unit_test.a(ipu_image.o)
                                                  /home/leon/git/swp-report/iMX6_Platform_SDK/output/mx6dq/sdk_unit_test/smart_device_rev_a/libsdk_unit_test.a(ips_combiner.o)
load_horiz_image                                  /home/leon/git/swp-report/iMX6_Platform_SDK/output/mx6dq/sdk_unit_test/smart_device_rev_a/libsdk_unit_test.a(ipu_image.o)
                                                  /home/leon/git/swp-report/iMX6_Platform_SDK/output/mx6dq/sdk_unit_test/smart_device_rev_a/libsdk_unit_test.a(ips_csc.o)
load_vert_image                                   /home/leon/git/swp-report/iMX6_Platform_SDK/output/mx6dq/sdk_unit_test/smart_device_rev_a/libsdk_unit_test.a(ipu_image.o)
localeconv                                        /home/leon/riotboard/arm-2012.09/bin/../arm-none-eabi/lib//libc.a(lib_a-locale.o)
lvds_power_on                                     /home/leon/git/swp-report/iMX6_Platform_SDK/output/mx6dq/lib/libboard_smart_device_rev_a.a(board_display.o)
                                                  /home/leon/git/swp-report/iMX6_Platform_SDK/output/mx6dq/lib/libsdk.a(ips_disp_panel.o)
main                                              /home/leon/git/swp-report/iMX6_Platform_SDK/output/mx6dq/sdk_unit_test/smart_device_rev_a/obj/apps/sdk_unit_test/src/unit_test_main.o
                                                  /home/leon/git/swp-report/iMX6_Platform_SDK/output/mx6dq/lib/libsdk.a(startup.o)
malloc                                            /home/leon/riotboard/arm-2012.09/bin/../arm-none-eabi/lib//libc.a(lib_a-malloc.o)
                                                  /home/leon/riotboard/arm-2012.09/bin/../arm-none-eabi/lib//libstdc++.a(eh_alloc.o)
                                                  /home/leon/git/swp-report/iMX6_Platform_SDK/output/mx6dq/lib/libsdk.a(usbh_drv.o)
                                                  /home/leon/git/swp-report/iMX6_Platform_SDK/output/mx6dq/lib/libsdk.a(usbd_drv.o)
                                                  /home/leon/git/swp-report/iMX6_Platform_SDK/output/mx6dq/sdk_unit_test/smart_device_rev_a/libsdk_unit_test.a(usb0_host_test.o)
                                                  /home/leon/git/swp-report/iMX6_Platform_SDK/output/mx6dq/sdk_unit_test/smart_device_rev_a/libsdk_unit_test.a(usb0_device_mouse_test.o)
                                                  /home/leon/git/swp-report/iMX6_Platform_SDK/output/mx6dq/sdk_unit_test/smart_device_rev_a/libsdk_unit_test.a(audio_test.o)
                                                  /home/leon/git/swp-report/iMX6_Platform_SDK/output/mx6dq/lib/libsdk.a(system_util.o)
max7310_i2c_req_array                             /home/leon/git/swp-report/iMX6_Platform_SDK/output/mx6dq/lib/libboard_smart_device_rev_a.a(board_io_expanders.o)
                                                  /home/leon/git/swp-report/iMX6_Platform_SDK/output/mx6dq/lib/libsdk.a(max7310.o)
max7310_init                                      /home/leon/git/swp-report/iMX6_Platform_SDK/output/mx6dq/lib/libsdk.a(max7310.o)
max7310_reg_read                                  /home/leon/git/swp-report/iMX6_Platform_SDK/output/mx6dq/lib/libsdk.a(max7310.o)
max7310_reg_write                                 /home/leon/git/swp-report/iMX6_Platform_SDK/output/mx6dq/lib/libsdk.a(max7310.o)
max7310_set_gpio_output                           /home/leon/git/swp-report/iMX6_Platform_SDK/output/mx6dq/lib/libsdk.a(max7310.o)
                                                  /home/leon/git/swp-report/iMX6_Platform_SDK/output/mx6dq/lib/libboard_smart_device_rev_a.a(board_sata.o)
mem_2_mem_test                                    /home/leon/git/swp-report/iMX6_Platform_SDK/output/mx6dq/sdk_unit_test/smart_device_rev_a/libsdk_unit_test.a(mem_2_mem.o)
                                                  /home/leon/git/swp-report/iMX6_Platform_SDK/output/mx6dq/sdk_unit_test/smart_device_rev_a/libsdk_unit_test.a(sdma_test.o)
memchr                                            /home/leon/riotboard/arm-2012.09/bin/../arm-none-eabi/lib//libc.a(lib_a-memchr.o)
                                                  /home/leon/riotboard/arm-2012.09/bin/../arm-none-eabi/lib//libc.a(lib_a-svfiprintf.o)
                                                  /home/leon/riotboard/arm-2012.09/bin/../arm-none-eabi/lib//libc.a(lib_a-vfprintf.o)
                                                  /home/leon/riotboard/arm-2012.09/bin/../arm-none-eabi/lib//libc.a(lib_a-vfiprintf.o)
                                                  /home/leon/riotboard/arm-2012.09/bin/../arm-none-eabi/lib//libc.a(lib_a-svfprintf.o)
                                                  /home/leon/riotboard/arm-2012.09/bin/../arm-none-eabi/lib//libc.a(lib_a-fvwrite.o)
memcmp                                            /home/leon/riotboard/arm-2012.09/bin/../arm-none-eabi/lib//libc.a(lib_a-memcmp.o)
                                                  /home/leon/riotboard/arm-2012.09/bin/../arm-none-eabi/lib//libstdc++.a(cp-demangle.o)
memcpy                                            /home/leon/riotboard/arm-2012.09/bin/../arm-none-eabi/lib//libc.a(lib_a-memcpy.o)
                                                  /home/leon/riotboard/arm-2012.09/bin/../lib/gcc/arm-none-eabi/4.7.2//libgcc.a(unwind-arm.o)
                                                  /home/leon/riotboard/arm-2012.09/bin/../arm-none-eabi/lib//libstdc++.a(cp-demangle.o)
                                                  /home/leon/git/swp-report/iMX6_Platform_SDK/output/mx6dq/lib/libsdk.a(usbd_drv.o)
                                                  /home/leon/git/swp-report/iMX6_Platform_SDK/output/mx6dq/lib/libsdk.a(sata.o)
                                                  /home/leon/git/swp-report/iMX6_Platform_SDK/output/mx6dq/lib/libsdk.a(keypad_port.o)
                                                  /home/leon/git/swp-report/iMX6_Platform_SDK/output/mx6dq/lib/libsdk.a(ipu_common.o)
                                                  /home/leon/git/swp-report/iMX6_Platform_SDK/output/mx6dq/lib/libsdk.a(enet_drv.o)
                                                  /home/leon/riotboard/arm-2012.09/bin/../arm-none-eabi/lib//libc.a(lib_a-svfiprintf.o)
                                                  /home/leon/riotboard/arm-2012.09/bin/../arm-none-eabi/lib//libc.a(lib_a-mprec.o)
                                                  /home/leon/riotboard/arm-2012.09/bin/../arm-none-eabi/lib//libc.a(lib_a-dtoa.o)
                                                  /home/leon/riotboard/arm-2012.09/bin/../arm-none-eabi/lib//libc.a(lib_a-fvwrite.o)
                                                  /home/leon/git/swp-report/iMX6_Platform_SDK/output/mx6dq/sdk_unit_test/smart_device_rev_a/libsdk_unit_test.a(usb0_device_mouse_test.o)
                                                  /home/leon/git/swp-report/iMX6_Platform_SDK/output/mx6dq/sdk_unit_test/smart_device_rev_a/libsdk_unit_test.a(ips_rotate.o)
                                                  /home/leon/git/swp-report/iMX6_Platform_SDK/output/mx6dq/sdk_unit_test/smart_device_rev_a/libsdk_unit_test.a(ips_resize.o)
                                                  /home/leon/git/swp-report/iMX6_Platform_SDK/output/mx6dq/sdk_unit_test/smart_device_rev_a/libsdk_unit_test.a(ips_csc.o)
                                                  /home/leon/git/swp-report/iMX6_Platform_SDK/output/mx6dq/sdk_unit_test/smart_device_rev_a/libsdk_unit_test.a(pwm_output.o)
                                                  /home/leon/git/swp-report/iMX6_Platform_SDK/output/mx6dq/sdk_unit_test/smart_device_rev_a/libsdk_unit_test.a(enet_test.o)
                                                  /home/leon/git/swp-report/iMX6_Platform_SDK/output/mx6dq/sdk_unit_test/smart_device_rev_a/libsdk_unit_test.a(ipu_image.o)
                                                  /home/leon/git/swp-report/iMX6_Platform_SDK/output/mx6dq/lib/libsdk.a(menu.o)
memcpy_perf_record                                /home/leon/git/swp-report/iMX6_Platform_SDK/output/mx6dq/sdk_unit_test/smart_device_rev_a/libsdk_unit_test.a(cpu_wp_test.o)
memmove                                           /home/leon/riotboard/arm-2012.09/bin/../arm-none-eabi/lib//libc.a(lib_a-memmove.o)
                                                  /home/leon/riotboard/arm-2012.09/bin/../arm-none-eabi/lib//libc.a(lib_a-svfiprintf.o)
                                                  /home/leon/riotboard/arm-2012.09/bin/../arm-none-eabi/lib//libc.a(lib_a-reallocr.o)
                                                  /home/leon/riotboard/arm-2012.09/bin/../arm-none-eabi/lib//libc.a(lib_a-fvwrite.o)
memset                                            /home/leon/riotboard/arm-2012.09/bin/../arm-none-eabi/lib//libc.a(lib_a-memset.o)
                                                  /home/leon/riotboard/arm-2012.09/bin/../arm-none-eabi/lib//libstdc++.a(eh_alloc.o)
                                                  /home/leon/git/swp-report/iMX6_Platform_SDK/output/mx6dq/lib/libsdk.a(sata.o)
                                                  /home/leon/git/swp-report/iMX6_Platform_SDK/output/mx6dq/lib/libsdk.a(pmu_driver.o)
                                                  /home/leon/git/swp-report/iMX6_Platform_SDK/output/mx6dq/lib/libsdk.a(keypad_port.o)
                                                  /home/leon/git/swp-report/iMX6_Platform_SDK/output/mx6dq/lib/libsdk.a(ipu_vdi.o)
                                                  /home/leon/git/swp-report/iMX6_Platform_SDK/output/mx6dq/lib/libsdk.a(ipu_idmac.o)
                                                  /home/leon/git/swp-report/iMX6_Platform_SDK/output/mx6dq/lib/libsdk.a(ipu_di.o)
                                                  /home/leon/git/swp-report/iMX6_Platform_SDK/output/mx6dq/lib/libsdk.a(ipu_common.o)
                                                  /home/leon/git/swp-report/iMX6_Platform_SDK/output/mx6dq/lib/libsdk.a(mma8451.o)
                                                  /home/leon/riotboard/arm-2012.09/bin/../arm-none-eabi/lib//libc.a(lib_a-callocr.o)
                                                  /home/leon/riotboard/arm-2012.09/bin/../arm-none-eabi/lib//libc.a(lib_a-findfp.o)
                                                  /home/leon/git/swp-report/iMX6_Platform_SDK/output/mx6dq/sdk_unit_test/smart_device_rev_a/libsdk_unit_test.a(spi_nor_numonyx.o)
                                                  /home/leon/git/swp-report/iMX6_Platform_SDK/output/mx6dq/sdk_unit_test/smart_device_rev_a/libsdk_unit_test.a(ips_rotate.o)
                                                  /home/leon/git/swp-report/iMX6_Platform_SDK/output/mx6dq/sdk_unit_test/smart_device_rev_a/libsdk_unit_test.a(ips_resize.o)
                                                  /home/leon/git/swp-report/iMX6_Platform_SDK/output/mx6dq/sdk_unit_test/smart_device_rev_a/libsdk_unit_test.a(ips_csc.o)
                                                  /home/leon/git/swp-report/iMX6_Platform_SDK/output/mx6dq/sdk_unit_test/smart_device_rev_a/libsdk_unit_test.a(mem_2_mem.o)
                                                  /home/leon/git/swp-report/iMX6_Platform_SDK/output/mx6dq/sdk_unit_test/smart_device_rev_a/libsdk_unit_test.a(sata_test.o)
                                                  /home/leon/git/swp-report/iMX6_Platform_SDK/output/mx6dq/sdk_unit_test/smart_device_rev_a/libsdk_unit_test.a(accelerometer_test.o)
                                                  /home/leon/git/swp-report/iMX6_Platform_SDK/output/mx6dq/sdk_unit_test/smart_device_rev_a/libsdk_unit_test.a(spi_test.o)
                                                  /home/leon/git/swp-report/iMX6_Platform_SDK/output/mx6dq/sdk_unit_test/smart_device_rev_a/libsdk_unit_test.a(enet_test.o)
                                                  /home/leon/git/swp-report/iMX6_Platform_SDK/output/mx6dq/sdk_unit_test/smart_device_rev_a/libsdk_unit_test.a(ipu_image.o)
                                                  /home/leon/git/swp-report/iMX6_Platform_SDK/output/mx6dq/sdk_unit_test/smart_device_rev_a/libsdk_unit_test.a(ips_display.o)
                                                  /home/leon/git/swp-report/iMX6_Platform_SDK/output/mx6dq/sdk_unit_test/smart_device_rev_a/libsdk_unit_test.a(hdmi_test.o)
                                                  /home/leon/git/swp-report/iMX6_Platform_SDK/output/mx6dq/sdk_unit_test/smart_device_rev_a/libsdk_unit_test.a(usdhc_test.o)
                                                  /home/leon/git/swp-report/iMX6_Platform_SDK/output/mx6dq/sdk_unit_test/smart_device_rev_a/libsdk_unit_test.a(uart_loopback.o)
                                                  /home/leon/git/swp-report/iMX6_Platform_SDK/output/mx6dq/sdk_unit_test/smart_device_rev_a/libsdk_unit_test.a(spi_lpb.o)
                                                  /home/leon/git/swp-report/iMX6_Platform_SDK/output/mx6dq/sdk_unit_test/smart_device_rev_a/libsdk_unit_test.a(imx6_i2c_device.o)
                                                  /home/leon/git/swp-report/iMX6_Platform_SDK/output/mx6dq/lib/libsdk.a(board_id.o)
                                                  /home/leon/git/swp-report/iMX6_Platform_SDK/output/mx6dq/lib/libsdk.a(menu.o)
                                                  /home/leon/git/swp-report/iMX6_Platform_SDK/output/mx6dq/sdk_unit_test/smart_device_rev_a/obj/apps/common/print_version.o
menu_append_menuitems                             /home/leon/git/swp-report/iMX6_Platform_SDK/output/mx6dq/lib/libsdk.a(menu.o)
menu_get_indent                                   /home/leon/git/swp-report/iMX6_Platform_SDK/output/mx6dq/lib/libsdk.a(menu.o)
                                                  /home/leon/git/swp-report/iMX6_Platform_SDK/output/mx6dq/lib/libsdk.a(usdhc.o)
                                                  /home/leon/git/swp-report/iMX6_Platform_SDK/output/mx6dq/sdk_unit_test/smart_device_rev_a/libsdk_unit_test.a(usdhc_test.o)
                                                  /home/leon/git/swp-report/iMX6_Platform_SDK/output/mx6dq/sdk_unit_test/smart_device_rev_a/libsdk_unit_test.a(uart_test.o)
menu_present                                      /home/leon/git/swp-report/iMX6_Platform_SDK/output/mx6dq/lib/libsdk.a(menu.o)
                                                  /home/leon/git/swp-report/iMX6_Platform_SDK/output/mx6dq/sdk_unit_test/smart_device_rev_a/obj/apps/sdk_unit_test/src/all_test.o
menu_print_menuitem                               /home/leon/git/swp-report/iMX6_Platform_SDK/output/mx6dq/lib/libsdk.a(menu.o)
menuitem_cmd_exitmenu                             /home/leon/git/swp-report/iMX6_Platform_SDK/output/mx6dq/lib/libsdk.a(menu.o)
                                                  /home/leon/git/swp-report/iMX6_Platform_SDK/output/mx6dq/sdk_unit_test/smart_device_rev_a/obj/apps/sdk_unit_test/src/all_test.o
menuitem_cmd_showmenu                             /home/leon/git/swp-report/iMX6_Platform_SDK/output/mx6dq/lib/libsdk.a(menu.o)
microseconds_test                                 /home/leon/git/swp-report/iMX6_Platform_SDK/output/mx6dq/sdk_unit_test/smart_device_rev_a/libsdk_unit_test.a(timer_test.o)
                                                  /home/leon/git/swp-report/iMX6_Platform_SDK/output/mx6dq/sdk_unit_test/smart_device_rev_a/obj/apps/sdk_unit_test/src/all_test.o
mipi_backlight_en                                 /home/leon/git/swp-report/iMX6_Platform_SDK/output/mx6dq/lib/libboard_smart_device_rev_a.a(board_mipi.o)
                                                  /home/leon/git/swp-report/iMX6_Platform_SDK/output/mx6dq/lib/libsdk.a(ips_disp_panel.o)
mipi_cam_power_on                                 /home/leon/git/swp-report/iMX6_Platform_SDK/output/mx6dq/lib/libboard_smart_device_rev_a.a(board_mipi.o)
mipi_clock_set                                    /home/leon/git/swp-report/iMX6_Platform_SDK/output/mx6dq/lib/libboard_smart_device_rev_a.a(board_mipi.o)
                                                  /home/leon/git/swp-report/iMX6_Platform_SDK/output/mx6dq/lib/libsdk.a(ips_disp_panel.o)
mipi_csi2_clock_set                               /home/leon/git/swp-report/iMX6_Platform_SDK/output/mx6dq/lib/libboard_smart_device_rev_a.a(board_mipi.o)
mipi_csi_iomux_config                             /home/leon/git/swp-report/iMX6_Platform_SDK/output/mx6dq/lib/libboard_smart_device_rev_a.a(iomux_config.o)
mipi_display_reset                                /home/leon/git/swp-report/iMX6_Platform_SDK/output/mx6dq/lib/libboard_smart_device_rev_a.a(board_mipi.o)
                                                  /home/leon/git/swp-report/iMX6_Platform_SDK/output/mx6dq/lib/libsdk.a(ips_disp_panel.o)
mipi_dsi_iomux_config                             /home/leon/git/swp-report/iMX6_Platform_SDK/output/mx6dq/lib/libboard_smart_device_rev_a.a(iomux_config.o)
mipi_hsi_iomux_config                             /home/leon/git/swp-report/iMX6_Platform_SDK/output/mx6dq/lib/libboard_smart_device_rev_a.a(iomux_config.o)
mlb_iomux_config                                  /home/leon/git/swp-report/iMX6_Platform_SDK/output/mx6dq/lib/libboard_smart_device_rev_a.a(iomux_config.o)
mma8451_get_acceleration                          /home/leon/git/swp-report/iMX6_Platform_SDK/output/mx6dq/lib/libsdk.a(mma8451.o)
                                                  /home/leon/git/swp-report/iMX6_Platform_SDK/output/mx6dq/sdk_unit_test/smart_device_rev_a/libsdk_unit_test.a(accelerometer_test.o)
mma8451_init                                      /home/leon/git/swp-report/iMX6_Platform_SDK/output/mx6dq/lib/libsdk.a(mma8451.o)
                                                  /home/leon/git/swp-report/iMX6_Platform_SDK/output/mx6dq/sdk_unit_test/smart_device_rev_a/libsdk_unit_test.a(accelerometer_test.o)
mma8451_read_register                             /home/leon/git/swp-report/iMX6_Platform_SDK/output/mx6dq/lib/libsdk.a(mma8451.o)
mma8451_write_register                            /home/leon/git/swp-report/iMX6_Platform_SDK/output/mx6dq/lib/libsdk.a(mma8451.o)
mmc_init                                          /home/leon/git/swp-report/iMX6_Platform_SDK/output/mx6dq/lib/libsdk.a(usdhc_mmc.o)
                                                  /home/leon/git/swp-report/iMX6_Platform_SDK/output/mx6dq/lib/libsdk.a(usdhc.o)
mmc_sd_test                                       /home/leon/git/swp-report/iMX6_Platform_SDK/output/mx6dq/sdk_unit_test/smart_device_rev_a/libsdk_unit_test.a(usdhc_test.o)
mmc_set_boot_ack                                  /home/leon/git/swp-report/iMX6_Platform_SDK/output/mx6dq/lib/libsdk.a(usdhc_mmc.o)
                                                  /home/leon/git/swp-report/iMX6_Platform_SDK/output/mx6dq/sdk_unit_test/smart_device_rev_a/libsdk_unit_test.a(usdhc_test.o)
mmc_set_boot_bus_width                            /home/leon/git/swp-report/iMX6_Platform_SDK/output/mx6dq/lib/libsdk.a(usdhc_mmc.o)
                                                  /home/leon/git/swp-report/iMX6_Platform_SDK/output/mx6dq/sdk_unit_test/smart_device_rev_a/libsdk_unit_test.a(usdhc_test.o)
mmc_set_boot_partition                            /home/leon/git/swp-report/iMX6_Platform_SDK/output/mx6dq/lib/libsdk.a(usdhc_mmc.o)
                                                  /home/leon/git/swp-report/iMX6_Platform_SDK/output/mx6dq/sdk_unit_test/smart_device_rev_a/libsdk_unit_test.a(usdhc_test.o)
mmc_voltage_validation                            /home/leon/git/swp-report/iMX6_Platform_SDK/output/mx6dq/lib/libsdk.a(usdhc_mmc.o)
                                                  /home/leon/git/swp-report/iMX6_Platform_SDK/output/mx6dq/lib/libsdk.a(usdhc.o)
mmdc_iomux_config                                 /home/leon/git/swp-report/iMX6_Platform_SDK/output/mx6dq/lib/libboard_smart_device_rev_a.a(mmdc_iomux_config.o)
                                                  /home/leon/git/swp-report/iMX6_Platform_SDK/output/mx6dq/lib/libboard_smart_device_rev_a.a(iomux_config.o)
mmu_disable                                       /home/leon/git/swp-report/iMX6_Platform_SDK/output/mx6dq/lib/libsdk.a(mmu.o)
                                                  /home/leon/git/swp-report/iMX6_Platform_SDK/output/mx6dq/sdk_unit_test/smart_device_rev_a/libsdk_unit_test.a(cpu_wp_test.o)
mmu_enable                                        /home/leon/git/swp-report/iMX6_Platform_SDK/output/mx6dq/lib/libsdk.a(mmu.o)
mmu_init                                          /home/leon/git/swp-report/iMX6_Platform_SDK/output/mx6dq/lib/libsdk.a(mmu.o)
                                                  /home/leon/git/swp-report/iMX6_Platform_SDK/output/mx6dq/sdk_unit_test/smart_device_rev_a/obj/apps/common/platform_init.o
mmu_map_l1_range                                  /home/leon/git/swp-report/iMX6_Platform_SDK/output/mx6dq/lib/libsdk.a(mmu.o)
                                                  /home/leon/git/swp-report/iMX6_Platform_SDK/output/mx6dq/sdk_unit_test/smart_device_rev_a/obj/apps/common/platform_init.o
mmu_virtual_to_physical                           /home/leon/git/swp-report/iMX6_Platform_SDK/output/mx6dq/lib/libsdk.a(mmu.o)
modff                                             /home/leon/riotboard/arm-2012.09/bin/../arm-none-eabi/lib//libm.a(lib_a-sf_modf.o)
                                                  /home/leon/git/swp-report/iMX6_Platform_SDK/output/mx6dq/sdk_unit_test/smart_device_rev_a/libsdk_unit_test.a(accelerometer_test.o)
multicore_entry                                   /home/leon/git/swp-report/iMX6_Platform_SDK/output/mx6dq/sdk_unit_test/smart_device_rev_a/libsdk_unit_test.a(multicore_test.o)
multicore_test                                    /home/leon/git/swp-report/iMX6_Platform_SDK/output/mx6dq/sdk_unit_test/smart_device_rev_a/libsdk_unit_test.a(multicore_test.o)
                                                  /home/leon/git/swp-report/iMX6_Platform_SDK/output/mx6dq/sdk_unit_test/smart_device_rev_a/obj/apps/sdk_unit_test/src/all_test.o
multiple_key_press_test                           /home/leon/git/swp-report/iMX6_Platform_SDK/output/mx6dq/sdk_unit_test/smart_device_rev_a/libsdk_unit_test.a(keypad_test.o)
my_memcpy                                         /home/leon/git/swp-report/iMX6_Platform_SDK/output/mx6dq/sdk_unit_test/smart_device_rev_a/libsdk_unit_test.a(cpu_wp_test.o)
mybkpt                                            /home/leon/git/swp-report/iMX6_Platform_SDK/output/mx6dq/lib/libsdk.a(system_util.o)
need_csc                                          /home/leon/git/swp-report/iMX6_Platform_SDK/output/mx6dq/lib/libsdk.a(ipu_common.o)
num_of_panels                                     /home/leon/git/swp-report/iMX6_Platform_SDK/output/mx6dq/lib/libsdk.a(ips_disp_panel.o)
ocotp_fuse_blow_row                               /home/leon/git/swp-report/iMX6_Platform_SDK/output/mx6dq/lib/libsdk.a(ocotp.o)
                                                  /home/leon/git/swp-report/iMX6_Platform_SDK/output/mx6dq/sdk_unit_test/smart_device_rev_a/libsdk_unit_test.a(ocotp_test.o)
ocotp_reload_otp_shadow_registers                 /home/leon/git/swp-report/iMX6_Platform_SDK/output/mx6dq/lib/libsdk.a(ocotp.o)
ocotp_sense_fuse                                  /home/leon/git/swp-report/iMX6_Platform_SDK/output/mx6dq/lib/libsdk.a(ocotp.o)
                                                  /home/leon/git/swp-report/iMX6_Platform_SDK/output/mx6dq/sdk_unit_test/smart_device_rev_a/libsdk_unit_test.a(ocotp_test.o)
ocotp_test                                        /home/leon/git/swp-report/iMX6_Platform_SDK/output/mx6dq/sdk_unit_test/smart_device_rev_a/libsdk_unit_test.a(ocotp_test.o)
                                                  /home/leon/git/swp-report/iMX6_Platform_SDK/output/mx6dq/sdk_unit_test/smart_device_rev_a/obj/apps/sdk_unit_test/src/all_test.o
one_time_tick_callback                            /home/leon/git/swp-report/iMX6_Platform_SDK/output/mx6dq/sdk_unit_test/smart_device_rev_a/libsdk_unit_test.a(snvs_rtc_test.o)
one_time_timer_test                               /home/leon/git/swp-report/iMX6_Platform_SDK/output/mx6dq/sdk_unit_test/smart_device_rev_a/libsdk_unit_test.a(snvs_rtc_test.o)
operator delete(void*)                            /home/leon/riotboard/arm-2012.09/bin/../arm-none-eabi/lib//libstdc++.a(del_op.o)
                                                  /home/leon/riotboard/arm-2012.09/bin/../arm-none-eabi/lib//libstdc++.a(tinfo.o)
                                                  /home/leon/riotboard/arm-2012.09/bin/../arm-none-eabi/lib//libstdc++.a(class_type_info.o)
                                                  /home/leon/riotboard/arm-2012.09/bin/../arm-none-eabi/lib//libstdc++.a(si_class_type_info.o)
                                                  /home/leon/riotboard/arm-2012.09/bin/../arm-none-eabi/lib//libstdc++.a(eh_exception.o)
operator new(unsigned int, void*)                 /home/leon/git/swp-report/iMX6_Platform_SDK/output/mx6dq/lib/libsdk.a(pmu_driver.o)
ov5642_strobe_on                                  /home/leon/git/swp-report/iMX6_Platform_SDK/output/mx6dq/lib/libsdk.a(smd_sensor.o)
over_temp_callback                                /home/leon/git/swp-report/iMX6_Platform_SDK/output/mx6dq/sdk_unit_test/smart_device_rev_a/libsdk_unit_test.a(tempmon_test.o)
pcie_card_pwr_setup                               /home/leon/git/swp-report/iMX6_Platform_SDK/output/mx6dq/lib/libboard_smart_device_rev_a.a(board_pcie.o)
                                                  /home/leon/git/swp-report/iMX6_Platform_SDK/output/mx6dq/sdk_unit_test/smart_device_rev_a/libsdk_unit_test.a(pcie_test_rc.o)
pcie_card_rst                                     /home/leon/git/swp-report/iMX6_Platform_SDK/output/mx6dq/lib/libboard_smart_device_rev_a.a(board_pcie.o)
                                                  /home/leon/git/swp-report/iMX6_Platform_SDK/output/mx6dq/sdk_unit_test/smart_device_rev_a/libsdk_unit_test.a(pcie_test_rc.o)
pcie_cfg_ep_bar                                   /home/leon/git/swp-report/iMX6_Platform_SDK/output/mx6dq/lib/libsdk.a(pcie_prot.o)
                                                  /home/leon/git/swp-report/iMX6_Platform_SDK/output/mx6dq/sdk_unit_test/smart_device_rev_a/libsdk_unit_test.a(pcie_test_rc.o)
pcie_clk_setup                                    /home/leon/git/swp-report/iMX6_Platform_SDK/output/mx6dq/lib/libboard_smart_device_rev_a.a(board_pcie.o)
                                                  /home/leon/git/swp-report/iMX6_Platform_SDK/output/mx6dq/sdk_unit_test/smart_device_rev_a/libsdk_unit_test.a(pcie_test_rc.o)
pcie_dump_cfg_header                              /home/leon/git/swp-report/iMX6_Platform_SDK/output/mx6dq/lib/libsdk.a(pcie_prot.o)
                                                  /home/leon/git/swp-report/iMX6_Platform_SDK/output/mx6dq/sdk_unit_test/smart_device_rev_a/libsdk_unit_test.a(pcie_test_rc.o)
pcie_enable_extrn_100mhz_clk                      /home/leon/git/swp-report/iMX6_Platform_SDK/output/mx6dq/lib/libboard_smart_device_rev_a.a(board_pcie.o)
                                                  /home/leon/git/swp-report/iMX6_Platform_SDK/output/mx6dq/sdk_unit_test/smart_device_rev_a/libsdk_unit_test.a(pcie_test_rc.o)
pcie_enable_extrn_125mhz_clk                      /home/leon/git/swp-report/iMX6_Platform_SDK/output/mx6dq/lib/libboard_smart_device_rev_a.a(board_pcie.o)
pcie_enum_resources                               /home/leon/git/swp-report/iMX6_Platform_SDK/output/mx6dq/lib/libsdk.a(pcie_prot.o)
                                                  /home/leon/git/swp-report/iMX6_Platform_SDK/output/mx6dq/sdk_unit_test/smart_device_rev_a/libsdk_unit_test.a(pcie_test_rc.o)
pcie_func_card_pwr_setup                          /home/leon/git/swp-report/iMX6_Platform_SDK/output/mx6dq/lib/libsdk.a(pcie.o)
                                                  /home/leon/git/swp-report/iMX6_Platform_SDK/output/mx6dq/sdk_unit_test/smart_device_rev_a/libsdk_unit_test.a(pcie_test_rc.o)
pcie_func_card_ref_clk_setup                      /home/leon/git/swp-report/iMX6_Platform_SDK/output/mx6dq/lib/libsdk.a(pcie.o)
                                                  /home/leon/git/swp-report/iMX6_Platform_SDK/output/mx6dq/sdk_unit_test/smart_device_rev_a/libsdk_unit_test.a(pcie_test_rc.o)
pcie_func_card_rst                                /home/leon/git/swp-report/iMX6_Platform_SDK/output/mx6dq/lib/libsdk.a(pcie.o)
                                                  /home/leon/git/swp-report/iMX6_Platform_SDK/output/mx6dq/sdk_unit_test/smart_device_rev_a/libsdk_unit_test.a(pcie_test_rc.o)
pcie_func_clk_setup                               /home/leon/git/swp-report/iMX6_Platform_SDK/output/mx6dq/lib/libsdk.a(pcie.o)
                                                  /home/leon/git/swp-report/iMX6_Platform_SDK/output/mx6dq/sdk_unit_test/smart_device_rev_a/libsdk_unit_test.a(pcie_test_rc.o)
pcie_func_pwr_setup                               /home/leon/git/swp-report/iMX6_Platform_SDK/output/mx6dq/lib/libsdk.a(pcie.o)
pcie_init                                         /home/leon/git/swp-report/iMX6_Platform_SDK/output/mx6dq/lib/libsdk.a(pcie.o)
                                                  /home/leon/git/swp-report/iMX6_Platform_SDK/output/mx6dq/sdk_unit_test/smart_device_rev_a/libsdk_unit_test.a(pcie_test_rc.o)
pcie_iomux_config                                 /home/leon/git/swp-report/iMX6_Platform_SDK/output/mx6dq/lib/libboard_smart_device_rev_a.a(iomux_config.o)
pcie_map_space                                    /home/leon/git/swp-report/iMX6_Platform_SDK/output/mx6dq/lib/libsdk.a(pcie.o)
                                                  /home/leon/git/swp-report/iMX6_Platform_SDK/output/mx6dq/sdk_unit_test/smart_device_rev_a/libsdk_unit_test.a(pcie_test_rc.o)
pcie_phy_cr_read                                  /home/leon/git/swp-report/iMX6_Platform_SDK/output/mx6dq/lib/libsdk.a(pcie_phy.o)
                                                  /home/leon/git/swp-report/iMX6_Platform_SDK/output/mx6dq/lib/libsdk.a(pcie.o)
pcie_phy_cr_write                                 /home/leon/git/swp-report/iMX6_Platform_SDK/output/mx6dq/lib/libsdk.a(pcie_phy.o)
                                                  /home/leon/git/swp-report/iMX6_Platform_SDK/output/mx6dq/lib/libsdk.a(pcie.o)
pcie_test                                         /home/leon/git/swp-report/iMX6_Platform_SDK/output/mx6dq/sdk_unit_test/smart_device_rev_a/libsdk_unit_test.a(pcie_test_rc.o)
                                                  /home/leon/git/swp-report/iMX6_Platform_SDK/output/mx6dq/sdk_unit_test/smart_device_rev_a/obj/apps/sdk_unit_test/src/all_test.o
pcm_music                                         /home/leon/git/swp-report/iMX6_Platform_SDK/output/mx6dq/sdk_unit_test/smart_device_rev_a/libsdk_unit_test.a(audio_test.o)
pcm_para                                          /home/leon/git/swp-report/iMX6_Platform_SDK/output/mx6dq/sdk_unit_test/smart_device_rev_a/libsdk_unit_test.a(audio_test.o)
periodic_tick_callback                            /home/leon/git/swp-report/iMX6_Platform_SDK/output/mx6dq/sdk_unit_test/smart_device_rev_a/libsdk_unit_test.a(snvs_rtc_test.o)
periodic_timer_test                               /home/leon/git/swp-report/iMX6_Platform_SDK/output/mx6dq/sdk_unit_test/smart_device_rev_a/libsdk_unit_test.a(snvs_rtc_test.o)
platform_init                                     /home/leon/git/swp-report/iMX6_Platform_SDK/output/mx6dq/sdk_unit_test/smart_device_rev_a/obj/apps/common/platform_init.o
                                                  /home/leon/git/swp-report/iMX6_Platform_SDK/output/mx6dq/sdk_unit_test/smart_device_rev_a/obj/apps/sdk_unit_test/src/unit_test_main.o
pmu::AnalogRegulator::AnalogRegulator(_hw_pmu_reg_1p1 volatile&) /home/leon/git/swp-report/iMX6_Platform_SDK/output/mx6dq/lib/libsdk.a(pmu_driver.o)
pmu::AnalogRegulator::AnalogRegulator(_hw_pmu_reg_1p1 volatile&) /home/leon/git/swp-report/iMX6_Platform_SDK/output/mx6dq/lib/libsdk.a(pmu_driver.o)
pmu::AnalogRegulator::AnalogRegulator<_hw_pmu_reg_2p5>(_hw_pmu_reg_2p5 volatile&) /home/leon/git/swp-report/iMX6_Platform_SDK/output/mx6dq/lib/libsdk.a(pmu_driver.o)
pmu::AnalogRegulator::AnalogRegulator<_hw_pmu_reg_2p5>(_hw_pmu_reg_2p5 volatile&) /home/leon/git/swp-report/iMX6_Platform_SDK/output/mx6dq/lib/libsdk.a(pmu_driver.o)
pmu::AnalogRegulator::AnalogRegulator<_hw_pmu_reg_3p0>(_hw_pmu_reg_3p0 volatile&) /home/leon/git/swp-report/iMX6_Platform_SDK/output/mx6dq/lib/libsdk.a(pmu_driver.o)
pmu::AnalogRegulator::AnalogRegulator<_hw_pmu_reg_3p0>(_hw_pmu_reg_3p0 volatile&) /home/leon/git/swp-report/iMX6_Platform_SDK/output/mx6dq/lib/libsdk.a(pmu_driver.o)
pmu::AnalogRegulator::getBrownoutMillivolts() const /home/leon/git/swp-report/iMX6_Platform_SDK/output/mx6dq/lib/libsdk.a(pmu_driver.o)
pmu::AnalogRegulator::getOutputMillivolts() const /home/leon/git/swp-report/iMX6_Platform_SDK/output/mx6dq/lib/libsdk.a(pmu_driver.o)
pmu::AnalogRegulator::getProperty(_pmu_regulator_properties, void*) /home/leon/git/swp-report/iMX6_Platform_SDK/output/mx6dq/lib/libsdk.a(pmu_driver.o)
pmu::AnalogRegulator::isBrownoutDetectEnabled() const /home/leon/git/swp-report/iMX6_Platform_SDK/output/mx6dq/lib/libsdk.a(pmu_driver.o)
pmu::AnalogRegulator::isEnabled() const           /home/leon/git/swp-report/iMX6_Platform_SDK/output/mx6dq/lib/libsdk.a(pmu_driver.o)
pmu::AnalogRegulator::setBrownoutDetectIsEnabled(bool) /home/leon/git/swp-report/iMX6_Platform_SDK/output/mx6dq/lib/libsdk.a(pmu_driver.o)
pmu::AnalogRegulator::setBrownoutMillivolts(unsigned long) /home/leon/git/swp-report/iMX6_Platform_SDK/output/mx6dq/lib/libsdk.a(pmu_driver.o)
pmu::AnalogRegulator::setIsEnabled(bool)          /home/leon/git/swp-report/iMX6_Platform_SDK/output/mx6dq/lib/libsdk.a(pmu_driver.o)
pmu::AnalogRegulator::setOutputMillivolts(unsigned long) /home/leon/git/swp-report/iMX6_Platform_SDK/output/mx6dq/lib/libsdk.a(pmu_driver.o)
pmu::AnalogRegulator::setProperty(_pmu_regulator_properties, void const*) /home/leon/git/swp-report/iMX6_Platform_SDK/output/mx6dq/lib/libsdk.a(pmu_driver.o)
pmu::DigitalRegulator::DigitalRegulator()         /home/leon/git/swp-report/iMX6_Platform_SDK/output/mx6dq/lib/libsdk.a(pmu_driver.o)
pmu::DigitalRegulator::DigitalRegulator()         /home/leon/git/swp-report/iMX6_Platform_SDK/output/mx6dq/lib/libsdk.a(pmu_driver.o)
pmu::DigitalRegulator::getBrownoutMillivolts() const /home/leon/git/swp-report/iMX6_Platform_SDK/output/mx6dq/lib/libsdk.a(pmu_driver.o)
pmu::DigitalRegulator::getOutputMillivolts() const /home/leon/git/swp-report/iMX6_Platform_SDK/output/mx6dq/lib/libsdk.a(pmu_driver.o)
pmu::DigitalRegulator::getProperty(_pmu_regulator_properties, void*) /home/leon/git/swp-report/iMX6_Platform_SDK/output/mx6dq/lib/libsdk.a(pmu_driver.o)
pmu::DigitalRegulator::isBypassed() const         /home/leon/git/swp-report/iMX6_Platform_SDK/output/mx6dq/lib/libsdk.a(pmu_driver.o)
pmu::DigitalRegulator::isEnabled() const          /home/leon/git/swp-report/iMX6_Platform_SDK/output/mx6dq/lib/libsdk.a(pmu_driver.o)
pmu::DigitalRegulator::setBrownoutMillivolts(unsigned long) /home/leon/git/swp-report/iMX6_Platform_SDK/output/mx6dq/lib/libsdk.a(pmu_driver.o)
pmu::DigitalRegulator::setIsBypassed(bool)        /home/leon/git/swp-report/iMX6_Platform_SDK/output/mx6dq/lib/libsdk.a(pmu_driver.o)
pmu::DigitalRegulator::setIsEnabled(bool)         /home/leon/git/swp-report/iMX6_Platform_SDK/output/mx6dq/lib/libsdk.a(pmu_driver.o)
pmu::DigitalRegulator::setOutputMillivolts(unsigned long) /home/leon/git/swp-report/iMX6_Platform_SDK/output/mx6dq/lib/libsdk.a(pmu_driver.o)
pmu::DigitalRegulator::setProperty(_pmu_regulator_properties, void const*) /home/leon/git/swp-report/iMX6_Platform_SDK/output/mx6dq/lib/libsdk.a(pmu_driver.o)
pmu::LDO1p1Regulator::LDO1p1Regulator()           /home/leon/git/swp-report/iMX6_Platform_SDK/output/mx6dq/lib/libsdk.a(pmu_driver.o)
pmu::LDO1p1Regulator::LDO1p1Regulator()           /home/leon/git/swp-report/iMX6_Platform_SDK/output/mx6dq/lib/libsdk.a(pmu_driver.o)
pmu::LDO1p1Regulator::getOutputMillivolts() const /home/leon/git/swp-report/iMX6_Platform_SDK/output/mx6dq/lib/libsdk.a(pmu_driver.o)
pmu::LDO1p1Regulator::getProperty(_pmu_regulator_properties, void*) /home/leon/git/swp-report/iMX6_Platform_SDK/output/mx6dq/lib/libsdk.a(pmu_driver.o)
pmu::LDO1p1Regulator::isInBrownout() const        /home/leon/git/swp-report/iMX6_Platform_SDK/output/mx6dq/lib/libsdk.a(pmu_driver.o)
pmu::LDO1p1Regulator::isOK() const                /home/leon/git/swp-report/iMX6_Platform_SDK/output/mx6dq/lib/libsdk.a(pmu_driver.o)
pmu::LDO1p1Regulator::setOutputMillivolts(unsigned long) /home/leon/git/swp-report/iMX6_Platform_SDK/output/mx6dq/lib/libsdk.a(pmu_driver.o)
pmu::LDO2p5Regulator::LDO2p5Regulator()           /home/leon/git/swp-report/iMX6_Platform_SDK/output/mx6dq/lib/libsdk.a(pmu_driver.o)
pmu::LDO2p5Regulator::LDO2p5Regulator()           /home/leon/git/swp-report/iMX6_Platform_SDK/output/mx6dq/lib/libsdk.a(pmu_driver.o)
pmu::LDO2p5Regulator::isInBrownout() const        /home/leon/git/swp-report/iMX6_Platform_SDK/output/mx6dq/lib/libsdk.a(pmu_driver.o)
pmu::LDO2p5Regulator::isOK() const                /home/leon/git/swp-report/iMX6_Platform_SDK/output/mx6dq/lib/libsdk.a(pmu_driver.o)
pmu::LDO3p0Regulator::LDO3p0Regulator()           /home/leon/git/swp-report/iMX6_Platform_SDK/output/mx6dq/lib/libsdk.a(pmu_driver.o)
pmu::LDO3p0Regulator::LDO3p0Regulator()           /home/leon/git/swp-report/iMX6_Platform_SDK/output/mx6dq/lib/libsdk.a(pmu_driver.o)
pmu::LDO3p0Regulator::getProperty(_pmu_regulator_properties, void*) /home/leon/git/swp-report/iMX6_Platform_SDK/output/mx6dq/lib/libsdk.a(pmu_driver.o)
pmu::LDO3p0Regulator::isInBrownout() const        /home/leon/git/swp-report/iMX6_Platform_SDK/output/mx6dq/lib/libsdk.a(pmu_driver.o)
pmu::LDO3p0Regulator::isOK() const                /home/leon/git/swp-report/iMX6_Platform_SDK/output/mx6dq/lib/libsdk.a(pmu_driver.o)
pmu::LDO3p0Regulator::setProperty(_pmu_regulator_properties, void const*) /home/leon/git/swp-report/iMX6_Platform_SDK/output/mx6dq/lib/libsdk.a(pmu_driver.o)
pmu::LDOARMRegulator::LDOARMRegulator()           /home/leon/git/swp-report/iMX6_Platform_SDK/output/mx6dq/lib/libsdk.a(pmu_driver.o)
pmu::LDOARMRegulator::LDOARMRegulator()           /home/leon/git/swp-report/iMX6_Platform_SDK/output/mx6dq/lib/libsdk.a(pmu_driver.o)
pmu::LDOARMRegulator::getBrownout() const         /home/leon/git/swp-report/iMX6_Platform_SDK/output/mx6dq/lib/libsdk.a(pmu_driver.o)
pmu::LDOARMRegulator::getRampRate() const         /home/leon/git/swp-report/iMX6_Platform_SDK/output/mx6dq/lib/libsdk.a(pmu_driver.o)
pmu::LDOARMRegulator::getTrigger() const          /home/leon/git/swp-report/iMX6_Platform_SDK/output/mx6dq/lib/libsdk.a(pmu_driver.o)
pmu::LDOARMRegulator::isBrownoutDetectEnabled() const /home/leon/git/swp-report/iMX6_Platform_SDK/output/mx6dq/lib/libsdk.a(pmu_driver.o)
pmu::LDOARMRegulator::isInBrownout() const        /home/leon/git/swp-report/iMX6_Platform_SDK/output/mx6dq/lib/libsdk.a(pmu_driver.o)
pmu::LDOARMRegulator::isOK() const                /home/leon/git/swp-report/iMX6_Platform_SDK/output/mx6dq/lib/libsdk.a(pmu_driver.o)
pmu::LDOARMRegulator::setBrownout(unsigned long)  /home/leon/git/swp-report/iMX6_Platform_SDK/output/mx6dq/lib/libsdk.a(pmu_driver.o)
pmu::LDOARMRegulator::setBrownoutDetectIsEnabled(bool) /home/leon/git/swp-report/iMX6_Platform_SDK/output/mx6dq/lib/libsdk.a(pmu_driver.o)
pmu::LDOARMRegulator::setRampRate(unsigned long)  /home/leon/git/swp-report/iMX6_Platform_SDK/output/mx6dq/lib/libsdk.a(pmu_driver.o)
pmu::LDOARMRegulator::setTrigger(unsigned long)   /home/leon/git/swp-report/iMX6_Platform_SDK/output/mx6dq/lib/libsdk.a(pmu_driver.o)
pmu::LDOGraphicsRegulator::LDOGraphicsRegulator() /home/leon/git/swp-report/iMX6_Platform_SDK/output/mx6dq/lib/libsdk.a(pmu_driver.o)
pmu::LDOGraphicsRegulator::LDOGraphicsRegulator() /home/leon/git/swp-report/iMX6_Platform_SDK/output/mx6dq/lib/libsdk.a(pmu_driver.o)
pmu::LDOGraphicsRegulator::getBrownout() const    /home/leon/git/swp-report/iMX6_Platform_SDK/output/mx6dq/lib/libsdk.a(pmu_driver.o)
pmu::LDOGraphicsRegulator::getRampRate() const    /home/leon/git/swp-report/iMX6_Platform_SDK/output/mx6dq/lib/libsdk.a(pmu_driver.o)
pmu::LDOGraphicsRegulator::getTrigger() const     /home/leon/git/swp-report/iMX6_Platform_SDK/output/mx6dq/lib/libsdk.a(pmu_driver.o)
pmu::LDOGraphicsRegulator::isBrownoutDetectEnabled() const /home/leon/git/swp-report/iMX6_Platform_SDK/output/mx6dq/lib/libsdk.a(pmu_driver.o)
pmu::LDOGraphicsRegulator::isInBrownout() const   /home/leon/git/swp-report/iMX6_Platform_SDK/output/mx6dq/lib/libsdk.a(pmu_driver.o)
pmu::LDOGraphicsRegulator::isOK() const           /home/leon/git/swp-report/iMX6_Platform_SDK/output/mx6dq/lib/libsdk.a(pmu_driver.o)
pmu::LDOGraphicsRegulator::setBrownout(unsigned long) /home/leon/git/swp-report/iMX6_Platform_SDK/output/mx6dq/lib/libsdk.a(pmu_driver.o)
pmu::LDOGraphicsRegulator::setBrownoutDetectIsEnabled(bool) /home/leon/git/swp-report/iMX6_Platform_SDK/output/mx6dq/lib/libsdk.a(pmu_driver.o)
pmu::LDOGraphicsRegulator::setRampRate(unsigned long) /home/leon/git/swp-report/iMX6_Platform_SDK/output/mx6dq/lib/libsdk.a(pmu_driver.o)
pmu::LDOGraphicsRegulator::setTrigger(unsigned long) /home/leon/git/swp-report/iMX6_Platform_SDK/output/mx6dq/lib/libsdk.a(pmu_driver.o)
pmu::LDOSoCRegulator::LDOSoCRegulator()           /home/leon/git/swp-report/iMX6_Platform_SDK/output/mx6dq/lib/libsdk.a(pmu_driver.o)
pmu::LDOSoCRegulator::LDOSoCRegulator()           /home/leon/git/swp-report/iMX6_Platform_SDK/output/mx6dq/lib/libsdk.a(pmu_driver.o)
pmu::LDOSoCRegulator::getBrownout() const         /home/leon/git/swp-report/iMX6_Platform_SDK/output/mx6dq/lib/libsdk.a(pmu_driver.o)
pmu::LDOSoCRegulator::getRampRate() const         /home/leon/git/swp-report/iMX6_Platform_SDK/output/mx6dq/lib/libsdk.a(pmu_driver.o)
pmu::LDOSoCRegulator::getTrigger() const          /home/leon/git/swp-report/iMX6_Platform_SDK/output/mx6dq/lib/libsdk.a(pmu_driver.o)
pmu::LDOSoCRegulator::isBrownoutDetectEnabled() const /home/leon/git/swp-report/iMX6_Platform_SDK/output/mx6dq/lib/libsdk.a(pmu_driver.o)
pmu::LDOSoCRegulator::isInBrownout() const        /home/leon/git/swp-report/iMX6_Platform_SDK/output/mx6dq/lib/libsdk.a(pmu_driver.o)
pmu::LDOSoCRegulator::isOK() const                /home/leon/git/swp-report/iMX6_Platform_SDK/output/mx6dq/lib/libsdk.a(pmu_driver.o)
pmu::LDOSoCRegulator::setBrownout(unsigned long)  /home/leon/git/swp-report/iMX6_Platform_SDK/output/mx6dq/lib/libsdk.a(pmu_driver.o)
pmu::LDOSoCRegulator::setBrownoutDetectIsEnabled(bool) /home/leon/git/swp-report/iMX6_Platform_SDK/output/mx6dq/lib/libsdk.a(pmu_driver.o)
pmu::LDOSoCRegulator::setRampRate(unsigned long)  /home/leon/git/swp-report/iMX6_Platform_SDK/output/mx6dq/lib/libsdk.a(pmu_driver.o)
pmu::LDOSoCRegulator::setTrigger(unsigned long)   /home/leon/git/swp-report/iMX6_Platform_SDK/output/mx6dq/lib/libsdk.a(pmu_driver.o)
pmu::Regulator::Regulator()                       /home/leon/git/swp-report/iMX6_Platform_SDK/output/mx6dq/lib/libsdk.a(pmu_driver.o)
pmu::Regulator::Regulator()                       /home/leon/git/swp-report/iMX6_Platform_SDK/output/mx6dq/lib/libsdk.a(pmu_driver.o)
pmu::Regulator::getBrownoutHandler()              /home/leon/git/swp-report/iMX6_Platform_SDK/output/mx6dq/lib/libsdk.a(pmu_driver.o)
pmu::Regulator::getProperty(_pmu_regulator_properties, void*) /home/leon/git/swp-report/iMX6_Platform_SDK/output/mx6dq/lib/libsdk.a(pmu_driver.o)
pmu::Regulator::setBrownoutHandler(void (*)(_pmu_regs)) /home/leon/git/swp-report/iMX6_Platform_SDK/output/mx6dq/lib/libsdk.a(pmu_driver.o)
pmu::Regulator::setProperty(_pmu_regulator_properties, void const*) /home/leon/git/swp-report/iMX6_Platform_SDK/output/mx6dq/lib/libsdk.a(pmu_driver.o)
pmu::Regulator::setVoltageRange(unsigned long, unsigned long, unsigned long) /home/leon/git/swp-report/iMX6_Platform_SDK/output/mx6dq/lib/libsdk.a(pmu_driver.o)
pmu::_pmu_info::_pmu_info()                       /home/leon/git/swp-report/iMX6_Platform_SDK/output/mx6dq/lib/libsdk.a(pmu_driver.o)
pmu::_pmu_info::_pmu_info()                       /home/leon/git/swp-report/iMX6_Platform_SDK/output/mx6dq/lib/libsdk.a(pmu_driver.o)
pmu_get_property                                  /home/leon/git/swp-report/iMX6_Platform_SDK/output/mx6dq/lib/libsdk.a(pmu_driver.o)
pmu_init                                          /home/leon/git/swp-report/iMX6_Platform_SDK/output/mx6dq/lib/libsdk.a(pmu_driver.o)
                                                  /home/leon/git/swp-report/iMX6_Platform_SDK/output/mx6dq/lib/libsdk.a(cpu_workpoint.o)
pmu_iomux_config                                  /home/leon/git/swp-report/iMX6_Platform_SDK/output/mx6dq/lib/libboard_smart_device_rev_a.a(iomux_config.o)
pmu_set_property                                  /home/leon/git/swp-report/iMX6_Platform_SDK/output/mx6dq/lib/libsdk.a(pmu_driver.o)
                                                  /home/leon/git/swp-report/iMX6_Platform_SDK/output/mx6dq/lib/libsdk.a(cpu_workpoint.o)
preamble_filter_set                               /home/leon/git/swp-report/iMX6_Platform_SDK/output/mx6dq/lib/libsdk.a(hdmi_tx.o)
prefetch_abort_handler                            /home/leon/git/swp-report/iMX6_Platform_SDK/output/mx6dq/lib/libsdk.a(arm_abort.o)
                                                  /home/leon/git/swp-report/iMX6_Platform_SDK/output/mx6dq/lib/libsdk.a(vectors.o)
print_current_temp                                /home/leon/git/swp-report/iMX6_Platform_SDK/output/mx6dq/sdk_unit_test/smart_device_rev_a/libsdk_unit_test.a(tempmon_test.o)
print_identify_data                               /home/leon/git/swp-report/iMX6_Platform_SDK/output/mx6dq/lib/libsdk.a(sata.o)
print_version                                     /home/leon/git/swp-report/iMX6_Platform_SDK/output/mx6dq/sdk_unit_test/smart_device_rev_a/obj/apps/common/print_version.o
                                                  /home/leon/git/swp-report/iMX6_Platform_SDK/output/mx6dq/sdk_unit_test/smart_device_rev_a/obj/apps/sdk_unit_test/src/unit_test_main.o
printf                                            /home/leon/riotboard/arm-2012.09/bin/../arm-none-eabi/lib//libc.a(lib_a-printf.o)
                                                  /home/leon/git/swp-report/iMX6_Platform_SDK/output/mx6dq/lib/libboard_smart_device_rev_a.a(board_hdmi.o)
                                                  /home/leon/git/swp-report/iMX6_Platform_SDK/output/mx6dq/lib/libboard_smart_device_rev_a.a(board_display.o)
                                                  /home/leon/git/swp-report/iMX6_Platform_SDK/output/mx6dq/lib/libsdk.a(hdmi_common.o)
                                                  /home/leon/git/swp-report/iMX6_Platform_SDK/output/mx6dq/lib/libsdk.a(usdhc_sd.o)
                                                  /home/leon/git/swp-report/iMX6_Platform_SDK/output/mx6dq/lib/libsdk.a(usdhc_mmc.o)
                                                  /home/leon/git/swp-report/iMX6_Platform_SDK/output/mx6dq/lib/libsdk.a(usdhc_host.o)
                                                  /home/leon/git/swp-report/iMX6_Platform_SDK/output/mx6dq/lib/libsdk.a(usdhc.o)
                                                  /home/leon/git/swp-report/iMX6_Platform_SDK/output/mx6dq/lib/libsdk.a(usbh_drv.o)
                                                  /home/leon/git/swp-report/iMX6_Platform_SDK/output/mx6dq/lib/libsdk.a(usbd_drv.o)
                                                  /home/leon/git/swp-report/iMX6_Platform_SDK/output/mx6dq/lib/libsdk.a(usb_common.o)
                                                  /home/leon/git/swp-report/iMX6_Platform_SDK/output/mx6dq/lib/libsdk.a(ecspi.o)
                                                  /home/leon/git/swp-report/iMX6_Platform_SDK/output/mx6dq/lib/libsdk.a(sdma.o)
                                                  /home/leon/git/swp-report/iMX6_Platform_SDK/output/mx6dq/lib/libsdk.a(sata.o)
                                                  /home/leon/git/swp-report/iMX6_Platform_SDK/output/mx6dq/lib/libsdk.a(pwm.o)
                                                  /home/leon/git/swp-report/iMX6_Platform_SDK/output/mx6dq/lib/libsdk.a(pcie_prot.o)
                                                  /home/leon/git/swp-report/iMX6_Platform_SDK/output/mx6dq/lib/libsdk.a(pcie.o)
                                                  /home/leon/git/swp-report/iMX6_Platform_SDK/output/mx6dq/lib/libsdk.a(ldb.o)
                                                  /home/leon/git/swp-report/iMX6_Platform_SDK/output/mx6dq/lib/libsdk.a(ipu_idmac.o)
                                                  /home/leon/git/swp-report/iMX6_Platform_SDK/output/mx6dq/lib/libsdk.a(ipu_ic.o)
                                                  /home/leon/git/swp-report/iMX6_Platform_SDK/output/mx6dq/lib/libsdk.a(ipu_di.o)
                                                  /home/leon/git/swp-report/iMX6_Platform_SDK/output/mx6dq/lib/libsdk.a(ipu_dc.o)
                                                  /home/leon/git/swp-report/iMX6_Platform_SDK/output/mx6dq/lib/libsdk.a(ipu_csi.o)
                                                  /home/leon/git/swp-report/iMX6_Platform_SDK/output/mx6dq/lib/libsdk.a(ipu_common.o)
                                                  /home/leon/git/swp-report/iMX6_Platform_SDK/output/mx6dq/lib/libsdk.a(ips_disp_panel.o)
                                                  /home/leon/git/swp-report/iMX6_Platform_SDK/output/mx6dq/lib/libsdk.a(imx_i2c_slave.o)
                                                  /home/leon/git/swp-report/iMX6_Platform_SDK/output/mx6dq/lib/libsdk.a(hdmi_tx_phy.o)
                                                  /home/leon/git/swp-report/iMX6_Platform_SDK/output/mx6dq/lib/libsdk.a(hdmi_tx_audio.o)
                                                  /home/leon/git/swp-report/iMX6_Platform_SDK/output/mx6dq/lib/libsdk.a(hdmi_tx.o)
                                                  /home/leon/git/swp-report/iMX6_Platform_SDK/output/mx6dq/lib/libsdk.a(gpio.o)
                                                  /home/leon/git/swp-report/iMX6_Platform_SDK/output/mx6dq/lib/libsdk.a(enet_drv.o)
                                                  /home/leon/git/swp-report/iMX6_Platform_SDK/output/mx6dq/lib/libsdk.a(cpu_workpoint.o)
                                                  /home/leon/git/swp-report/iMX6_Platform_SDK/output/mx6dq/lib/libsdk.a(smd_sensor.o)
                                                  /home/leon/git/swp-report/iMX6_Platform_SDK/output/mx6dq/lib/libsdk.a(mma8451.o)
                                                  /home/leon/git/swp-report/iMX6_Platform_SDK/output/mx6dq/sdk_unit_test/smart_device_rev_a/libsdk_unit_test.a(spi_nor_numonyx.o)
                                                  /home/leon/git/swp-report/iMX6_Platform_SDK/output/mx6dq/sdk_unit_test/smart_device_rev_a/libsdk_unit_test.a(usb0_host_testmodes_test.o)
                                                  /home/leon/git/swp-report/iMX6_Platform_SDK/output/mx6dq/sdk_unit_test/smart_device_rev_a/libsdk_unit_test.a(usb0_host_test.o)
                                                  /home/leon/git/swp-report/iMX6_Platform_SDK/output/mx6dq/sdk_unit_test/smart_device_rev_a/libsdk_unit_test.a(usb0_device_mouse_test.o)
                                                  /home/leon/git/swp-report/iMX6_Platform_SDK/output/mx6dq/sdk_unit_test/smart_device_rev_a/libsdk_unit_test.a(ips_rotate.o)
                                                  /home/leon/git/swp-report/iMX6_Platform_SDK/output/mx6dq/sdk_unit_test/smart_device_rev_a/libsdk_unit_test.a(ips_resize.o)
                                                  /home/leon/git/swp-report/iMX6_Platform_SDK/output/mx6dq/sdk_unit_test/smart_device_rev_a/libsdk_unit_test.a(ips_csc.o)
                                                  /home/leon/git/swp-report/iMX6_Platform_SDK/output/mx6dq/sdk_unit_test/smart_device_rev_a/libsdk_unit_test.a(ips_combiner.o)
                                                  /home/leon/git/swp-report/iMX6_Platform_SDK/output/mx6dq/sdk_unit_test/smart_device_rev_a/libsdk_unit_test.a(init_dma_data.o)
                                                  /home/leon/git/swp-report/iMX6_Platform_SDK/output/mx6dq/sdk_unit_test/smart_device_rev_a/libsdk_unit_test.a(pwm_output.o)
                                                  /home/leon/git/swp-report/iMX6_Platform_SDK/output/mx6dq/sdk_unit_test/smart_device_rev_a/libsdk_unit_test.a(mem_2_mem.o)
                                                  /home/leon/git/swp-report/iMX6_Platform_SDK/output/mx6dq/sdk_unit_test/smart_device_rev_a/libsdk_unit_test.a(at24cxx.o)
                                                  /home/leon/git/swp-report/iMX6_Platform_SDK/output/mx6dq/sdk_unit_test/smart_device_rev_a/libsdk_unit_test.a(sata_test.o)
                                                  /home/leon/git/swp-report/iMX6_Platform_SDK/output/mx6dq/sdk_unit_test/smart_device_rev_a/libsdk_unit_test.a(accelerometer_test.o)
                                                  /home/leon/git/swp-report/iMX6_Platform_SDK/output/mx6dq/sdk_unit_test/smart_device_rev_a/libsdk_unit_test.a(spi_test.o)
                                                  /home/leon/git/swp-report/iMX6_Platform_SDK/output/mx6dq/sdk_unit_test/smart_device_rev_a/libsdk_unit_test.a(enet_test.o)
                                                  /home/leon/git/swp-report/iMX6_Platform_SDK/output/mx6dq/sdk_unit_test/smart_device_rev_a/libsdk_unit_test.a(usb_test.o)
                                                  /home/leon/git/swp-report/iMX6_Platform_SDK/output/mx6dq/sdk_unit_test/smart_device_rev_a/libsdk_unit_test.a(pcie_test_rc.o)
                                                  /home/leon/git/swp-report/iMX6_Platform_SDK/output/mx6dq/sdk_unit_test/smart_device_rev_a/libsdk_unit_test.a(sensor_capture.o)
                                                  /home/leon/git/swp-report/iMX6_Platform_SDK/output/mx6dq/sdk_unit_test/smart_device_rev_a/libsdk_unit_test.a(csi_test_mode.o)
                                                  /home/leon/git/swp-report/iMX6_Platform_SDK/output/mx6dq/sdk_unit_test/smart_device_rev_a/libsdk_unit_test.a(camera_test.o)
                                                  /home/leon/git/swp-report/iMX6_Platform_SDK/output/mx6dq/sdk_unit_test/smart_device_rev_a/libsdk_unit_test.a(keypad_test.o)
                                                  /home/leon/git/swp-report/iMX6_Platform_SDK/output/mx6dq/sdk_unit_test/smart_device_rev_a/libsdk_unit_test.a(ips_test.o)
                                                  /home/leon/git/swp-report/iMX6_Platform_SDK/output/mx6dq/sdk_unit_test/smart_device_rev_a/libsdk_unit_test.a(ips_display.o)
                                                  /home/leon/git/swp-report/iMX6_Platform_SDK/output/mx6dq/sdk_unit_test/smart_device_rev_a/libsdk_unit_test.a(hdmi_test.o)
                                                  /home/leon/git/swp-report/iMX6_Platform_SDK/output/mx6dq/sdk_unit_test/smart_device_rev_a/libsdk_unit_test.a(watchdog_test.o)
                                                  /home/leon/git/swp-report/iMX6_Platform_SDK/output/mx6dq/sdk_unit_test/smart_device_rev_a/libsdk_unit_test.a(pwm_test.o)
                                                  /home/leon/git/swp-report/iMX6_Platform_SDK/output/mx6dq/sdk_unit_test/smart_device_rev_a/libsdk_unit_test.a(usdhc_test.o)
                                                  /home/leon/git/swp-report/iMX6_Platform_SDK/output/mx6dq/sdk_unit_test/smart_device_rev_a/libsdk_unit_test.a(timer_test.o)
                                                  /home/leon/git/swp-report/iMX6_Platform_SDK/output/mx6dq/sdk_unit_test/smart_device_rev_a/libsdk_unit_test.a(gpt_test.o)
                                                  /home/leon/git/swp-report/iMX6_Platform_SDK/output/mx6dq/sdk_unit_test/smart_device_rev_a/libsdk_unit_test.a(epit_test.o)
                                                  /home/leon/git/swp-report/iMX6_Platform_SDK/output/mx6dq/sdk_unit_test/smart_device_rev_a/libsdk_unit_test.a(uart_test.o)
                                                  /home/leon/git/swp-report/iMX6_Platform_SDK/output/mx6dq/sdk_unit_test/smart_device_rev_a/libsdk_unit_test.a(uart_loopback.o)
                                                  /home/leon/git/swp-report/iMX6_Platform_SDK/output/mx6dq/sdk_unit_test/smart_device_rev_a/libsdk_unit_test.a(spi_lpb.o)
                                                  /home/leon/git/swp-report/iMX6_Platform_SDK/output/mx6dq/sdk_unit_test/smart_device_rev_a/libsdk_unit_test.a(sdma_test.o)
                                                  /home/leon/git/swp-report/iMX6_Platform_SDK/output/mx6dq/sdk_unit_test/smart_device_rev_a/libsdk_unit_test.a(tempmon_test.o)
                                                  /home/leon/git/swp-report/iMX6_Platform_SDK/output/mx6dq/sdk_unit_test/smart_device_rev_a/libsdk_unit_test.a(snvs_srtc_test.o)
                                                  /home/leon/git/swp-report/iMX6_Platform_SDK/output/mx6dq/sdk_unit_test/smart_device_rev_a/libsdk_unit_test.a(snvs_rtc_test.o)
                                                  /home/leon/git/swp-report/iMX6_Platform_SDK/output/mx6dq/sdk_unit_test/smart_device_rev_a/libsdk_unit_test.a(imx6_i2c_device.o)
                                                  /home/leon/git/swp-report/iMX6_Platform_SDK/output/mx6dq/sdk_unit_test/smart_device_rev_a/libsdk_unit_test.a(i2c_test.o)
                                                  /home/leon/git/swp-report/iMX6_Platform_SDK/output/mx6dq/sdk_unit_test/smart_device_rev_a/libsdk_unit_test.a(ocotp_test.o)
                                                  /home/leon/git/swp-report/iMX6_Platform_SDK/output/mx6dq/sdk_unit_test/smart_device_rev_a/libsdk_unit_test.a(gic_test.o)
                                                  /home/leon/git/swp-report/iMX6_Platform_SDK/output/mx6dq/sdk_unit_test/smart_device_rev_a/libsdk_unit_test.a(audio_test.o)
                                                  /home/leon/git/swp-report/iMX6_Platform_SDK/output/mx6dq/sdk_unit_test/smart_device_rev_a/libsdk_unit_test.a(multicore_test.o)
                                                  /home/leon/git/swp-report/iMX6_Platform_SDK/output/mx6dq/sdk_unit_test/smart_device_rev_a/libsdk_unit_test.a(cpu_wp_test.o)
                                                  /home/leon/git/swp-report/iMX6_Platform_SDK/output/mx6dq/lib/libsdk.a(abort_handler.o)
                                                  /home/leon/git/swp-report/iMX6_Platform_SDK/output/mx6dq/lib/libsdk.a(interrupt.o)
                                                  /home/leon/git/swp-report/iMX6_Platform_SDK/output/mx6dq/lib/libsdk.a(board_id.o)
                                                  /home/leon/git/swp-report/iMX6_Platform_SDK/output/mx6dq/lib/libsdk.a(text_color.o)
                                                  /home/leon/git/swp-report/iMX6_Platform_SDK/output/mx6dq/lib/libsdk.a(system_util.o)
                                                  /home/leon/git/swp-report/iMX6_Platform_SDK/output/mx6dq/lib/libsdk.a(menu.o)
                                                  /home/leon/git/swp-report/iMX6_Platform_SDK/output/mx6dq/sdk_unit_test/smart_device_rev_a/obj/apps/common/print_version.o
                                                  /home/leon/git/swp-report/iMX6_Platform_SDK/output/mx6dq/sdk_unit_test/smart_device_rev_a/obj/apps/common/print_clock_info.o
printf_buffer                                     /home/leon/git/swp-report/iMX6_Platform_SDK/output/mx6dq/lib/libsdk.a(sata.o)
printf_color                                      /home/leon/git/swp-report/iMX6_Platform_SDK/output/mx6dq/lib/libsdk.a(text_color.o)
                                                  /home/leon/git/swp-report/iMX6_Platform_SDK/output/mx6dq/lib/libsdk.a(system_util.o)
                                                  /home/leon/git/swp-report/iMX6_Platform_SDK/output/mx6dq/lib/libsdk.a(menu.o)
putc                                              /home/leon/riotboard/arm-2012.09/bin/../arm-none-eabi/lib//libc.a(lib_a-putc.o)
pwm1_iomux_config                                 /home/leon/git/swp-report/iMX6_Platform_SDK/output/mx6dq/lib/libboard_smart_device_rev_a.a(pwm1_iomux_config.o)
                                                  /home/leon/git/swp-report/iMX6_Platform_SDK/output/mx6dq/lib/libboard_smart_device_rev_a.a(pwm_iomux_config.o)
                                                  /home/leon/git/swp-report/iMX6_Platform_SDK/output/mx6dq/lib/libboard_smart_device_rev_a.a(iomux_config.o)
pwm2_iomux_config                                 /home/leon/git/swp-report/iMX6_Platform_SDK/output/mx6dq/lib/libboard_smart_device_rev_a.a(iomux_config.o)
                                                  /home/leon/git/swp-report/iMX6_Platform_SDK/output/mx6dq/lib/libboard_smart_device_rev_a.a(pwm_iomux_config.o)
pwm3_iomux_config                                 /home/leon/git/swp-report/iMX6_Platform_SDK/output/mx6dq/lib/libboard_smart_device_rev_a.a(iomux_config.o)
                                                  /home/leon/git/swp-report/iMX6_Platform_SDK/output/mx6dq/lib/libboard_smart_device_rev_a.a(pwm_iomux_config.o)
pwm4_iomux_config                                 /home/leon/git/swp-report/iMX6_Platform_SDK/output/mx6dq/lib/libboard_smart_device_rev_a.a(iomux_config.o)
                                                  /home/leon/git/swp-report/iMX6_Platform_SDK/output/mx6dq/lib/libboard_smart_device_rev_a.a(pwm_iomux_config.o)
pwm_clear_int_status                              /home/leon/git/swp-report/iMX6_Platform_SDK/output/mx6dq/lib/libsdk.a(pwm.o)
pwm_disable                                       /home/leon/git/swp-report/iMX6_Platform_SDK/output/mx6dq/lib/libsdk.a(pwm.o)
                                                  /home/leon/git/swp-report/iMX6_Platform_SDK/output/mx6dq/sdk_unit_test/smart_device_rev_a/libsdk_unit_test.a(pwm_output.o)
pwm_enable                                        /home/leon/git/swp-report/iMX6_Platform_SDK/output/mx6dq/lib/libsdk.a(pwm.o)
                                                  /home/leon/git/swp-report/iMX6_Platform_SDK/output/mx6dq/sdk_unit_test/smart_device_rev_a/libsdk_unit_test.a(pwm_output.o)
pwm_free_interrupt                                /home/leon/git/swp-report/iMX6_Platform_SDK/output/mx6dq/lib/libsdk.a(pwm.o)
pwm_get_clock_freq                                /home/leon/git/swp-report/iMX6_Platform_SDK/output/mx6dq/lib/libsdk.a(pwm.o)
                                                  /home/leon/git/swp-report/iMX6_Platform_SDK/output/mx6dq/sdk_unit_test/smart_device_rev_a/libsdk_unit_test.a(pwm_output.o)
pwm_init                                          /home/leon/git/swp-report/iMX6_Platform_SDK/output/mx6dq/lib/libsdk.a(pwm.o)
                                                  /home/leon/git/swp-report/iMX6_Platform_SDK/output/mx6dq/sdk_unit_test/smart_device_rev_a/libsdk_unit_test.a(pwm_output.o)
pwm_int_test_end                                  /home/leon/git/swp-report/iMX6_Platform_SDK/output/mx6dq/lib/libsdk.a(pwm.o)
pwm_iomux_config                                  /home/leon/git/swp-report/iMX6_Platform_SDK/output/mx6dq/lib/libboard_smart_device_rev_a.a(pwm_iomux_config.o)
                                                  /home/leon/git/swp-report/iMX6_Platform_SDK/output/mx6dq/sdk_unit_test/smart_device_rev_a/libsdk_unit_test.a(pwm_output.o)
pwm_isr_test_end                                  /home/leon/git/swp-report/iMX6_Platform_SDK/output/mx6dq/lib/libsdk.a(pwm.o)
pwm_output_test                                   /home/leon/git/swp-report/iMX6_Platform_SDK/output/mx6dq/sdk_unit_test/smart_device_rev_a/libsdk_unit_test.a(pwm_output.o)
                                                  /home/leon/git/swp-report/iMX6_Platform_SDK/output/mx6dq/sdk_unit_test/smart_device_rev_a/libsdk_unit_test.a(pwm_test.o)
pwm_setup_interrupt                               /home/leon/git/swp-report/iMX6_Platform_SDK/output/mx6dq/lib/libsdk.a(pwm.o)
pwm_test                                          /home/leon/git/swp-report/iMX6_Platform_SDK/output/mx6dq/sdk_unit_test/smart_device_rev_a/libsdk_unit_test.a(pwm_test.o)
                                                  /home/leon/git/swp-report/iMX6_Platform_SDK/output/mx6dq/sdk_unit_test/smart_device_rev_a/obj/apps/sdk_unit_test/src/all_test.o
qf_Descriptor                                     /home/leon/git/swp-report/iMX6_Platform_SDK/output/mx6dq/sdk_unit_test/smart_device_rev_a/libsdk_unit_test.a(usb0_device_mouse_test.o)
raise                                             /home/leon/riotboard/arm-2012.09/bin/../arm-none-eabi/lib//libc.a(lib_a-signal.o)
                                                  /home/leon/riotboard/arm-2012.09/bin/../arm-none-eabi/lib//libc.a(lib_a-abort.o)
read_input_string                                 /home/leon/git/swp-report/iMX6_Platform_SDK/output/mx6dq/lib/libsdk.a(system_util.o)
read_int                                          /home/leon/git/swp-report/iMX6_Platform_SDK/output/mx6dq/lib/libsdk.a(system_util.o)
                                                  /home/leon/git/swp-report/iMX6_Platform_SDK/output/mx6dq/sdk_unit_test/smart_device_rev_a/libsdk_unit_test.a(pwm_output.o)
                                                  /home/leon/git/swp-report/iMX6_Platform_SDK/output/mx6dq/sdk_unit_test/smart_device_rev_a/libsdk_unit_test.a(tempmon_test.o)
read_usdhc_adma_mode                              /home/leon/git/swp-report/iMX6_Platform_SDK/output/mx6dq/lib/libsdk.a(usdhc.o)
                                                  /home/leon/git/swp-report/iMX6_Platform_SDK/output/mx6dq/lib/libsdk.a(usdhc_host.o)
read_usdhc_intr_mode                              /home/leon/git/swp-report/iMX6_Platform_SDK/output/mx6dq/lib/libsdk.a(usdhc.o)
                                                  /home/leon/git/swp-report/iMX6_Platform_SDK/output/mx6dq/lib/libsdk.a(usdhc_host.o)
                                                  /home/leon/git/swp-report/iMX6_Platform_SDK/output/mx6dq/sdk_unit_test/smart_device_rev_a/libsdk_unit_test.a(usdhc_test.o)
realloc                                           /home/leon/riotboard/arm-2012.09/bin/../arm-none-eabi/lib//libc.a(lib_a-realloc.o)
                                                  /home/leon/riotboard/arm-2012.09/bin/../arm-none-eabi/lib//libstdc++.a(cp-demangle.o)
                                                  /home/leon/git/swp-report/iMX6_Platform_SDK/output/mx6dq/lib/libsdk.a(system_util.o)
register_interrupt_routine                        /home/leon/git/swp-report/iMX6_Platform_SDK/output/mx6dq/lib/libsdk.a(interrupt.o)
                                                  /home/leon/git/swp-report/iMX6_Platform_SDK/output/mx6dq/lib/libsdk.a(usdhc.o)
                                                  /home/leon/git/swp-report/iMX6_Platform_SDK/output/mx6dq/lib/libsdk.a(gpt.o)
                                                  /home/leon/git/swp-report/iMX6_Platform_SDK/output/mx6dq/lib/libsdk.a(tempmon.o)
                                                  /home/leon/git/swp-report/iMX6_Platform_SDK/output/mx6dq/lib/libsdk.a(sdma.o)
                                                  /home/leon/git/swp-report/iMX6_Platform_SDK/output/mx6dq/lib/libsdk.a(srtc.o)
                                                  /home/leon/git/swp-report/iMX6_Platform_SDK/output/mx6dq/lib/libsdk.a(rtc.o)
                                                  /home/leon/git/swp-report/iMX6_Platform_SDK/output/mx6dq/lib/libsdk.a(pwm.o)
                                                  /home/leon/git/swp-report/iMX6_Platform_SDK/output/mx6dq/lib/libsdk.a(pmu_driver.o)
                                                  /home/leon/git/swp-report/iMX6_Platform_SDK/output/mx6dq/lib/libsdk.a(keypad_port.o)
                                                  /home/leon/git/swp-report/iMX6_Platform_SDK/output/mx6dq/lib/libsdk.a(ipu_common.o)
                                                  /home/leon/git/swp-report/iMX6_Platform_SDK/output/mx6dq/lib/libsdk.a(imx_i2c.o)
                                                  /home/leon/git/swp-report/iMX6_Platform_SDK/output/mx6dq/sdk_unit_test/smart_device_rev_a/libsdk_unit_test.a(hdmi_test.o)
                                                  /home/leon/git/swp-report/iMX6_Platform_SDK/output/mx6dq/sdk_unit_test/smart_device_rev_a/libsdk_unit_test.a(gic_test.o)
                                                  /home/leon/git/swp-report/iMX6_Platform_SDK/output/mx6dq/sdk_unit_test/smart_device_rev_a/libsdk_unit_test.a(multicore_test.o)
                                                  /home/leon/git/swp-report/iMX6_Platform_SDK/output/mx6dq/lib/libsdk.a(epit.o)
                                                  /home/leon/git/swp-report/iMX6_Platform_SDK/output/mx6dq/lib/libsdk.a(imx_uart.o)
res_num                                           /home/leon/git/swp-report/iMX6_Platform_SDK/output/mx6dq/sdk_unit_test/smart_device_rev_a/libsdk_unit_test.a(pcie_test_rc.o)
reset_usb_hub                                     /home/leon/git/swp-report/iMX6_Platform_SDK/output/mx6dq/lib/libboard_smart_device_rev_a.a(board_usb.o)
restore_core_regs                                 /home/leon/riotboard/arm-2012.09/bin/../lib/gcc/arm-none-eabi/4.7.2//libgcc.a(libunwind.o)
                                                  /home/leon/riotboard/arm-2012.09/bin/../lib/gcc/arm-none-eabi/4.7.2//libgcc.a(unwind-arm.o)
rtc_deinit                                        /home/leon/git/swp-report/iMX6_Platform_SDK/output/mx6dq/lib/libsdk.a(rtc.o)
                                                  /home/leon/git/swp-report/iMX6_Platform_SDK/output/mx6dq/sdk_unit_test/smart_device_rev_a/libsdk_unit_test.a(snvs_rtc_test.o)
rtc_disable_periodic_timer                        /home/leon/git/swp-report/iMX6_Platform_SDK/output/mx6dq/lib/libsdk.a(rtc.o)
rtc_init                                          /home/leon/git/swp-report/iMX6_Platform_SDK/output/mx6dq/lib/libsdk.a(rtc.o)
                                                  /home/leon/git/swp-report/iMX6_Platform_SDK/output/mx6dq/sdk_unit_test/smart_device_rev_a/libsdk_unit_test.a(snvs_rtc_test.o)
rtc_setup_onetime_timer                           /home/leon/git/swp-report/iMX6_Platform_SDK/output/mx6dq/lib/libsdk.a(rtc.o)
                                                  /home/leon/git/swp-report/iMX6_Platform_SDK/output/mx6dq/sdk_unit_test/smart_device_rev_a/libsdk_unit_test.a(snvs_rtc_test.o)
rtc_setup_periodic_timer                          /home/leon/git/swp-report/iMX6_Platform_SDK/output/mx6dq/lib/libsdk.a(rtc.o)
                                                  /home/leon/git/swp-report/iMX6_Platform_SDK/output/mx6dq/sdk_unit_test/smart_device_rev_a/libsdk_unit_test.a(snvs_rtc_test.o)
run_test                                          /home/leon/git/swp-report/iMX6_Platform_SDK/output/mx6dq/sdk_unit_test/smart_device_rev_a/obj/apps/sdk_unit_test/src/all_test.o
sata_clock_disable                                /home/leon/git/swp-report/iMX6_Platform_SDK/output/mx6dq/lib/libboard_smart_device_rev_a.a(board_sata.o)
                                                  /home/leon/git/swp-report/iMX6_Platform_SDK/output/mx6dq/sdk_unit_test/smart_device_rev_a/libsdk_unit_test.a(sata_test.o)
sata_clock_enable                                 /home/leon/git/swp-report/iMX6_Platform_SDK/output/mx6dq/lib/libboard_smart_device_rev_a.a(board_sata.o)
                                                  /home/leon/git/swp-report/iMX6_Platform_SDK/output/mx6dq/lib/libsdk.a(sata.o)
sata_deinit                                       /home/leon/git/swp-report/iMX6_Platform_SDK/output/mx6dq/lib/libsdk.a(sata.o)
sata_disk_read_sector                             /home/leon/git/swp-report/iMX6_Platform_SDK/output/mx6dq/lib/libsdk.a(sata.o)
                                                  /home/leon/git/swp-report/iMX6_Platform_SDK/output/mx6dq/sdk_unit_test/smart_device_rev_a/libsdk_unit_test.a(sata_test.o)
sata_disk_write_sector                            /home/leon/git/swp-report/iMX6_Platform_SDK/output/mx6dq/lib/libsdk.a(sata.o)
                                                  /home/leon/git/swp-report/iMX6_Platform_SDK/output/mx6dq/sdk_unit_test/smart_device_rev_a/libsdk_unit_test.a(sata_test.o)
sata_dma_read_sector                              /home/leon/git/swp-report/iMX6_Platform_SDK/output/mx6dq/lib/libsdk.a(sata.o)
sata_dma_write_sector                             /home/leon/git/swp-report/iMX6_Platform_SDK/output/mx6dq/lib/libsdk.a(sata.o)
sata_get_phy_src_clk                              /home/leon/git/swp-report/iMX6_Platform_SDK/output/mx6dq/lib/libboard_smart_device_rev_a.a(board_sata.o)
                                                  /home/leon/git/swp-report/iMX6_Platform_SDK/output/mx6dq/lib/libsdk.a(sata.o)
sata_identify                                     /home/leon/git/swp-report/iMX6_Platform_SDK/output/mx6dq/lib/libsdk.a(sata.o)
                                                  /home/leon/git/swp-report/iMX6_Platform_SDK/output/mx6dq/sdk_unit_test/smart_device_rev_a/libsdk_unit_test.a(sata_test.o)
sata_init                                         /home/leon/git/swp-report/iMX6_Platform_SDK/output/mx6dq/lib/libsdk.a(sata.o)
                                                  /home/leon/git/swp-report/iMX6_Platform_SDK/output/mx6dq/sdk_unit_test/smart_device_rev_a/libsdk_unit_test.a(sata_test.o)
sata_phy_iomux_config                             /home/leon/git/swp-report/iMX6_Platform_SDK/output/mx6dq/lib/libboard_smart_device_rev_a.a(iomux_config.o)
sata_pio_read_sector                              /home/leon/git/swp-report/iMX6_Platform_SDK/output/mx6dq/lib/libsdk.a(sata.o)
sata_pio_write_sector                             /home/leon/git/swp-report/iMX6_Platform_SDK/output/mx6dq/lib/libsdk.a(sata.o)
sata_power_off                                    /home/leon/git/swp-report/iMX6_Platform_SDK/output/mx6dq/lib/libboard_smart_device_rev_a.a(board_sata.o)
                                                  /home/leon/git/swp-report/iMX6_Platform_SDK/output/mx6dq/sdk_unit_test/smart_device_rev_a/libsdk_unit_test.a(sata_test.o)
sata_power_on                                     /home/leon/git/swp-report/iMX6_Platform_SDK/output/mx6dq/lib/libboard_smart_device_rev_a.a(board_sata.o)
                                                  /home/leon/git/swp-report/iMX6_Platform_SDK/output/mx6dq/lib/libsdk.a(sata.o)
sata_test                                         /home/leon/git/swp-report/iMX6_Platform_SDK/output/mx6dq/sdk_unit_test/smart_device_rev_a/libsdk_unit_test.a(sata_test.o)
                                                  /home/leon/git/swp-report/iMX6_Platform_SDK/output/mx6dq/sdk_unit_test/smart_device_rev_a/obj/apps/sdk_unit_test/src/all_test.o
scalbnf                                           /home/leon/riotboard/arm-2012.09/bin/../arm-none-eabi/lib//libm.a(lib_a-sf_scalbn.o)
                                                  /home/leon/riotboard/arm-2012.09/bin/../arm-none-eabi/lib//libm.a(lib_a-kf_rem_pio2.o)
script_info                                       /home/leon/git/swp-report/iMX6_Platform_SDK/output/mx6dq/lib/libsdk.a(sdma_script_info.o)
                                                  /home/leon/git/swp-report/iMX6_Platform_SDK/output/mx6dq/lib/libsdk.a(sdma.o)
scu_disable_maintenance_broadcast                 /home/leon/git/swp-report/iMX6_Platform_SDK/output/mx6dq/lib/libsdk.a(cortexA9.o)
scu_enable                                        /home/leon/git/swp-report/iMX6_Platform_SDK/output/mx6dq/lib/libsdk.a(cortexA9.o)
scu_enable_maintenance_broadcast                  /home/leon/git/swp-report/iMX6_Platform_SDK/output/mx6dq/lib/libsdk.a(cortexA9.o)
scu_get_cpus_in_smp                               /home/leon/git/swp-report/iMX6_Platform_SDK/output/mx6dq/lib/libsdk.a(cortexA9.o)
scu_join_smp                                      /home/leon/git/swp-report/iMX6_Platform_SDK/output/mx6dq/lib/libsdk.a(cortexA9.o)
scu_leave_smp                                     /home/leon/git/swp-report/iMX6_Platform_SDK/output/mx6dq/lib/libsdk.a(cortexA9.o)
scu_secure_invalidate                             /home/leon/git/swp-report/iMX6_Platform_SDK/output/mx6dq/lib/libsdk.a(cortexA9.o)
sd_if_cmd_arg                                     /home/leon/git/swp-report/iMX6_Platform_SDK/output/mx6dq/lib/libsdk.a(usdhc_sd.o)
sd_init                                           /home/leon/git/swp-report/iMX6_Platform_SDK/output/mx6dq/lib/libsdk.a(usdhc_sd.o)
                                                  /home/leon/git/swp-report/iMX6_Platform_SDK/output/mx6dq/lib/libsdk.a(usdhc.o)
sd_ocr_value                                      /home/leon/git/swp-report/iMX6_Platform_SDK/output/mx6dq/lib/libsdk.a(usdhc_sd.o)
sd_voltage_validation                             /home/leon/git/swp-report/iMX6_Platform_SDK/output/mx6dq/lib/libsdk.a(usdhc_sd.o)
                                                  /home/leon/git/swp-report/iMX6_Platform_SDK/output/mx6dq/lib/libsdk.a(usdhc.o)
sdma_channel_isr_attach                           /home/leon/git/swp-report/iMX6_Platform_SDK/output/mx6dq/lib/libsdk.a(sdma.o)
                                                  /home/leon/git/swp-report/iMX6_Platform_SDK/output/mx6dq/sdk_unit_test/smart_device_rev_a/libsdk_unit_test.a(uart_loopback.o)
sdma_channel_release                              /home/leon/git/swp-report/iMX6_Platform_SDK/output/mx6dq/lib/libsdk.a(sdma.o)
                                                  /home/leon/git/swp-report/iMX6_Platform_SDK/output/mx6dq/sdk_unit_test/smart_device_rev_a/libsdk_unit_test.a(mem_2_mem.o)
                                                  /home/leon/git/swp-report/iMX6_Platform_SDK/output/mx6dq/sdk_unit_test/smart_device_rev_a/libsdk_unit_test.a(uart_loopback.o)
                                                  /home/leon/git/swp-report/iMX6_Platform_SDK/output/mx6dq/sdk_unit_test/smart_device_rev_a/libsdk_unit_test.a(spi_lpb.o)
sdma_channel_request                              /home/leon/git/swp-report/iMX6_Platform_SDK/output/mx6dq/lib/libsdk.a(sdma.o)
                                                  /home/leon/git/swp-report/iMX6_Platform_SDK/output/mx6dq/sdk_unit_test/smart_device_rev_a/libsdk_unit_test.a(mem_2_mem.o)
                                                  /home/leon/git/swp-report/iMX6_Platform_SDK/output/mx6dq/sdk_unit_test/smart_device_rev_a/libsdk_unit_test.a(uart_loopback.o)
                                                  /home/leon/git/swp-report/iMX6_Platform_SDK/output/mx6dq/sdk_unit_test/smart_device_rev_a/libsdk_unit_test.a(spi_lpb.o)
sdma_channel_start                                /home/leon/git/swp-report/iMX6_Platform_SDK/output/mx6dq/lib/libsdk.a(sdma.o)
                                                  /home/leon/git/swp-report/iMX6_Platform_SDK/output/mx6dq/sdk_unit_test/smart_device_rev_a/libsdk_unit_test.a(mem_2_mem.o)
                                                  /home/leon/git/swp-report/iMX6_Platform_SDK/output/mx6dq/sdk_unit_test/smart_device_rev_a/libsdk_unit_test.a(uart_loopback.o)
                                                  /home/leon/git/swp-report/iMX6_Platform_SDK/output/mx6dq/sdk_unit_test/smart_device_rev_a/libsdk_unit_test.a(spi_lpb.o)
sdma_channel_status                               /home/leon/git/swp-report/iMX6_Platform_SDK/output/mx6dq/lib/libsdk.a(sdma.o)
                                                  /home/leon/git/swp-report/iMX6_Platform_SDK/output/mx6dq/sdk_unit_test/smart_device_rev_a/libsdk_unit_test.a(mem_2_mem.o)
                                                  /home/leon/git/swp-report/iMX6_Platform_SDK/output/mx6dq/sdk_unit_test/smart_device_rev_a/libsdk_unit_test.a(uart_loopback.o)
                                                  /home/leon/git/swp-report/iMX6_Platform_SDK/output/mx6dq/sdk_unit_test/smart_device_rev_a/libsdk_unit_test.a(spi_lpb.o)
sdma_channel_stop                                 /home/leon/git/swp-report/iMX6_Platform_SDK/output/mx6dq/lib/libsdk.a(sdma.o)
                                                  /home/leon/git/swp-report/iMX6_Platform_SDK/output/mx6dq/sdk_unit_test/smart_device_rev_a/libsdk_unit_test.a(mem_2_mem.o)
                                                  /home/leon/git/swp-report/iMX6_Platform_SDK/output/mx6dq/sdk_unit_test/smart_device_rev_a/libsdk_unit_test.a(uart_loopback.o)
                                                  /home/leon/git/swp-report/iMX6_Platform_SDK/output/mx6dq/sdk_unit_test/smart_device_rev_a/libsdk_unit_test.a(spi_lpb.o)
sdma_deinit                                       /home/leon/git/swp-report/iMX6_Platform_SDK/output/mx6dq/lib/libsdk.a(sdma.o)
                                                  /home/leon/git/swp-report/iMX6_Platform_SDK/output/mx6dq/sdk_unit_test/smart_device_rev_a/libsdk_unit_test.a(mem_2_mem.o)
                                                  /home/leon/git/swp-report/iMX6_Platform_SDK/output/mx6dq/sdk_unit_test/smart_device_rev_a/libsdk_unit_test.a(uart_loopback.o)
                                                  /home/leon/git/swp-report/iMX6_Platform_SDK/output/mx6dq/sdk_unit_test/smart_device_rev_a/libsdk_unit_test.a(spi_lpb.o)
sdma_init                                         /home/leon/git/swp-report/iMX6_Platform_SDK/output/mx6dq/lib/libsdk.a(sdma.o)
                                                  /home/leon/git/swp-report/iMX6_Platform_SDK/output/mx6dq/sdk_unit_test/smart_device_rev_a/libsdk_unit_test.a(mem_2_mem.o)
                                                  /home/leon/git/swp-report/iMX6_Platform_SDK/output/mx6dq/sdk_unit_test/smart_device_rev_a/libsdk_unit_test.a(uart_loopback.o)
                                                  /home/leon/git/swp-report/iMX6_Platform_SDK/output/mx6dq/sdk_unit_test/smart_device_rev_a/libsdk_unit_test.a(spi_lpb.o)
sdma_iomux_config                                 /home/leon/git/swp-report/iMX6_Platform_SDK/output/mx6dq/lib/libboard_smart_device_rev_a.a(iomux_config.o)
sdma_lookup_script                                /home/leon/git/swp-report/iMX6_Platform_SDK/output/mx6dq/lib/libsdk.a(sdma.o)
                                                  /home/leon/git/swp-report/iMX6_Platform_SDK/output/mx6dq/sdk_unit_test/smart_device_rev_a/libsdk_unit_test.a(mem_2_mem.o)
                                                  /home/leon/git/swp-report/iMX6_Platform_SDK/output/mx6dq/sdk_unit_test/smart_device_rev_a/libsdk_unit_test.a(uart_loopback.o)
                                                  /home/leon/git/swp-report/iMX6_Platform_SDK/output/mx6dq/sdk_unit_test/smart_device_rev_a/libsdk_unit_test.a(spi_lpb.o)
sdma_setup_interrupt                              /home/leon/git/swp-report/iMX6_Platform_SDK/output/mx6dq/lib/libsdk.a(sdma.o)
                                                  /home/leon/git/swp-report/iMX6_Platform_SDK/output/mx6dq/sdk_unit_test/smart_device_rev_a/libsdk_unit_test.a(uart_loopback.o)
sdma_test                                         /home/leon/git/swp-report/iMX6_Platform_SDK/output/mx6dq/sdk_unit_test/smart_device_rev_a/libsdk_unit_test.a(sdma_test.o)
                                                  /home/leon/git/swp-report/iMX6_Platform_SDK/output/mx6dq/sdk_unit_test/smart_device_rev_a/obj/apps/sdk_unit_test/src/all_test.o
search_panel                                      /home/leon/git/swp-report/iMX6_Platform_SDK/output/mx6dq/lib/libsdk.a(ips_disp_panel.o)
                                                  /home/leon/git/swp-report/iMX6_Platform_SDK/output/mx6dq/sdk_unit_test/smart_device_rev_a/libsdk_unit_test.a(sensor_capture.o)
                                                  /home/leon/git/swp-report/iMX6_Platform_SDK/output/mx6dq/sdk_unit_test/smart_device_rev_a/libsdk_unit_test.a(csi_test_mode.o)
                                                  /home/leon/git/swp-report/iMX6_Platform_SDK/output/mx6dq/sdk_unit_test/smart_device_rev_a/libsdk_unit_test.a(ips_test.o)
                                                  /home/leon/git/swp-report/iMX6_Platform_SDK/output/mx6dq/sdk_unit_test/smart_device_rev_a/libsdk_unit_test.a(ips_display.o)
sensor_af_trigger                                 /home/leon/git/swp-report/iMX6_Platform_SDK/output/mx6dq/lib/libsdk.a(smd_sensor.o)
                                                  /home/leon/git/swp-report/iMX6_Platform_SDK/output/mx6dq/sdk_unit_test/smart_device_rev_a/libsdk_unit_test.a(sensor_capture.o)
sensor_autofocus_init                             /home/leon/git/swp-report/iMX6_Platform_SDK/output/mx6dq/lib/libsdk.a(smd_sensor.o)
                                                  /home/leon/git/swp-report/iMX6_Platform_SDK/output/mx6dq/sdk_unit_test/smart_device_rev_a/libsdk_unit_test.a(sensor_capture.o)
sensor_capture                                    /home/leon/git/swp-report/iMX6_Platform_SDK/output/mx6dq/sdk_unit_test/smart_device_rev_a/libsdk_unit_test.a(sensor_capture.o)
                                                  /home/leon/git/swp-report/iMX6_Platform_SDK/output/mx6dq/sdk_unit_test/smart_device_rev_a/libsdk_unit_test.a(camera_test.o)
sensor_clock_setting                              /home/leon/git/swp-report/iMX6_Platform_SDK/output/mx6dq/lib/libboard_smart_device_rev_a.a(board_camera.o)
                                                  /home/leon/git/swp-report/iMX6_Platform_SDK/output/mx6dq/lib/libsdk.a(smd_sensor.o)
sensor_config                                     /home/leon/git/swp-report/iMX6_Platform_SDK/output/mx6dq/lib/libsdk.a(smd_sensor.o)
                                                  /home/leon/git/swp-report/iMX6_Platform_SDK/output/mx6dq/sdk_unit_test/smart_device_rev_a/libsdk_unit_test.a(sensor_capture.o)
sensor_init                                       /home/leon/git/swp-report/iMX6_Platform_SDK/output/mx6dq/lib/libsdk.a(smd_sensor.o)
sensor_reset                                      /home/leon/git/swp-report/iMX6_Platform_SDK/output/mx6dq/lib/libboard_smart_device_rev_a.a(board_camera.o)
                                                  /home/leon/git/swp-report/iMX6_Platform_SDK/output/mx6dq/lib/libsdk.a(smd_sensor.o)
sensor_search                                     /home/leon/git/swp-report/iMX6_Platform_SDK/output/mx6dq/lib/libsdk.a(smd_sensor.o)
                                                  /home/leon/git/swp-report/iMX6_Platform_SDK/output/mx6dq/sdk_unit_test/smart_device_rev_a/libsdk_unit_test.a(sensor_capture.o)
sensor_standby                                    /home/leon/git/swp-report/iMX6_Platform_SDK/output/mx6dq/lib/libboard_smart_device_rev_a.a(board_camera.o)
                                                  /home/leon/git/swp-report/iMX6_Platform_SDK/output/mx6dq/sdk_unit_test/smart_device_rev_a/libsdk_unit_test.a(sensor_capture.o)
set_background_margin                             /home/leon/git/swp-report/iMX6_Platform_SDK/output/mx6dq/sdk_unit_test/smart_device_rev_a/libsdk_unit_test.a(ipu_image.o)
                                                  /home/leon/git/swp-report/iMX6_Platform_SDK/output/mx6dq/sdk_unit_test/smart_device_rev_a/libsdk_unit_test.a(ips_resize.o)
set_card_access_mode                              /home/leon/git/swp-report/iMX6_Platform_SDK/output/mx6dq/lib/libsdk.a(usdhc.o)
                                                  /home/leon/git/swp-report/iMX6_Platform_SDK/output/mx6dq/sdk_unit_test/smart_device_rev_a/libsdk_unit_test.a(usdhc_test.o)
setlocale                                         /home/leon/riotboard/arm-2012.09/bin/../arm-none-eabi/lib//libc.a(lib_a-locale.o)
show_board_id                                     /home/leon/git/swp-report/iMX6_Platform_SDK/output/mx6dq/lib/libsdk.a(board_id.o)
show_ddr_config                                   /home/leon/git/swp-report/iMX6_Platform_SDK/output/mx6dq/sdk_unit_test/smart_device_rev_a/obj/apps/common/print_clock_info.o
                                                  /home/leon/git/swp-report/iMX6_Platform_SDK/output/mx6dq/sdk_unit_test/smart_device_rev_a/obj/apps/sdk_unit_test/src/unit_test_main.o
show_freq                                         /home/leon/git/swp-report/iMX6_Platform_SDK/output/mx6dq/sdk_unit_test/smart_device_rev_a/obj/apps/common/print_clock_info.o
                                                  /home/leon/git/swp-report/iMX6_Platform_SDK/output/mx6dq/sdk_unit_test/smart_device_rev_a/obj/apps/sdk_unit_test/src/unit_test_main.o
signal                                            /home/leon/riotboard/arm-2012.09/bin/../arm-none-eabi/lib//libc.a(lib_a-signal.o)
sinf                                              /home/leon/riotboard/arm-2012.09/bin/../arm-none-eabi/lib//libm.a(lib_a-sf_sin.o)
                                                  /home/leon/git/swp-report/iMX6_Platform_SDK/output/mx6dq/sdk_unit_test/smart_device_rev_a/libsdk_unit_test.a(usb0_device_mouse_test.o)
sjc_iomux_config                                  /home/leon/git/swp-report/iMX6_Platform_SDK/output/mx6dq/lib/libboard_smart_device_rev_a.a(sjc_iomux_config.o)
                                                  /home/leon/git/swp-report/iMX6_Platform_SDK/output/mx6dq/lib/libboard_smart_device_rev_a.a(iomux_config.o)
snvs_deinit                                       /home/leon/git/swp-report/iMX6_Platform_SDK/output/mx6dq/lib/libsdk.a(snvs.o)
                                                  /home/leon/git/swp-report/iMX6_Platform_SDK/output/mx6dq/lib/libsdk.a(srtc.o)
                                                  /home/leon/git/swp-report/iMX6_Platform_SDK/output/mx6dq/lib/libsdk.a(rtc.o)
snvs_init                                         /home/leon/git/swp-report/iMX6_Platform_SDK/output/mx6dq/lib/libsdk.a(snvs.o)
                                                  /home/leon/git/swp-report/iMX6_Platform_SDK/output/mx6dq/lib/libsdk.a(srtc.o)
                                                  /home/leon/git/swp-report/iMX6_Platform_SDK/output/mx6dq/lib/libsdk.a(rtc.o)
snvs_iomux_config                                 /home/leon/git/swp-report/iMX6_Platform_SDK/output/mx6dq/lib/libboard_smart_device_rev_a.a(iomux_config.o)
snvs_rtc_alarm                                    /home/leon/git/swp-report/iMX6_Platform_SDK/output/mx6dq/lib/libsdk.a(snvs.o)
                                                  /home/leon/git/swp-report/iMX6_Platform_SDK/output/mx6dq/lib/libsdk.a(rtc.o)
snvs_rtc_counter                                  /home/leon/git/swp-report/iMX6_Platform_SDK/output/mx6dq/lib/libsdk.a(snvs.o)
                                                  /home/leon/git/swp-report/iMX6_Platform_SDK/output/mx6dq/lib/libsdk.a(rtc.o)
snvs_rtc_interrupt_handler                        /home/leon/git/swp-report/iMX6_Platform_SDK/output/mx6dq/lib/libsdk.a(rtc.o)
snvs_rtc_periodic_interrupt                       /home/leon/git/swp-report/iMX6_Platform_SDK/output/mx6dq/lib/libsdk.a(snvs.o)
                                                  /home/leon/git/swp-report/iMX6_Platform_SDK/output/mx6dq/lib/libsdk.a(rtc.o)
snvs_rtc_set_alarm_timeout                        /home/leon/git/swp-report/iMX6_Platform_SDK/output/mx6dq/lib/libsdk.a(snvs.o)
                                                  /home/leon/git/swp-report/iMX6_Platform_SDK/output/mx6dq/lib/libsdk.a(rtc.o)
snvs_rtc_set_counter                              /home/leon/git/swp-report/iMX6_Platform_SDK/output/mx6dq/lib/libsdk.a(snvs.o)
                                                  /home/leon/git/swp-report/iMX6_Platform_SDK/output/mx6dq/lib/libsdk.a(rtc.o)
snvs_rtc_setup_interrupt                          /home/leon/git/swp-report/iMX6_Platform_SDK/output/mx6dq/lib/libsdk.a(rtc.o)
snvs_rtc_test                                     /home/leon/git/swp-report/iMX6_Platform_SDK/output/mx6dq/sdk_unit_test/smart_device_rev_a/libsdk_unit_test.a(snvs_rtc_test.o)
                                                  /home/leon/git/swp-report/iMX6_Platform_SDK/output/mx6dq/sdk_unit_test/smart_device_rev_a/obj/apps/sdk_unit_test/src/all_test.o
snvs_srtc_alarm                                   /home/leon/git/swp-report/iMX6_Platform_SDK/output/mx6dq/lib/libsdk.a(snvs.o)
                                                  /home/leon/git/swp-report/iMX6_Platform_SDK/output/mx6dq/lib/libsdk.a(srtc.o)
snvs_srtc_counter                                 /home/leon/git/swp-report/iMX6_Platform_SDK/output/mx6dq/lib/libsdk.a(snvs.o)
                                                  /home/leon/git/swp-report/iMX6_Platform_SDK/output/mx6dq/lib/libsdk.a(srtc.o)
snvs_srtc_interrupt_handler                       /home/leon/git/swp-report/iMX6_Platform_SDK/output/mx6dq/lib/libsdk.a(srtc.o)
snvs_srtc_set_alarm_timeout                       /home/leon/git/swp-report/iMX6_Platform_SDK/output/mx6dq/lib/libsdk.a(snvs.o)
                                                  /home/leon/git/swp-report/iMX6_Platform_SDK/output/mx6dq/lib/libsdk.a(srtc.o)
snvs_srtc_set_counter                             /home/leon/git/swp-report/iMX6_Platform_SDK/output/mx6dq/lib/libsdk.a(snvs.o)
                                                  /home/leon/git/swp-report/iMX6_Platform_SDK/output/mx6dq/lib/libsdk.a(srtc.o)
snvs_srtc_setup_interrupt                         /home/leon/git/swp-report/iMX6_Platform_SDK/output/mx6dq/lib/libsdk.a(srtc.o)
snvs_srtc_test                                    /home/leon/git/swp-report/iMX6_Platform_SDK/output/mx6dq/sdk_unit_test/smart_device_rev_a/libsdk_unit_test.a(snvs_srtc_test.o)
                                                  /home/leon/git/swp-report/iMX6_Platform_SDK/output/mx6dq/sdk_unit_test/smart_device_rev_a/obj/apps/sdk_unit_test/src/all_test.o
spdif_clk_cfg                                     /home/leon/git/swp-report/iMX6_Platform_SDK/output/mx6dq/lib/libboard_smart_device_rev_a.a(board_audio.o)
spdif_get_tx_clk_freq                             /home/leon/git/swp-report/iMX6_Platform_SDK/output/mx6dq/lib/libboard_smart_device_rev_a.a(board_audio.o)
spdif_iomux_config                                /home/leon/git/swp-report/iMX6_Platform_SDK/output/mx6dq/lib/libboard_smart_device_rev_a.a(iomux_config.o)
spi_nor_erase_numonyx                             /home/leon/git/swp-report/iMX6_Platform_SDK/output/mx6dq/sdk_unit_test/smart_device_rev_a/libsdk_unit_test.a(spi_nor_numonyx.o)
                                                  /home/leon/git/swp-report/iMX6_Platform_SDK/output/mx6dq/sdk_unit_test/smart_device_rev_a/libsdk_unit_test.a(spi_test.o)
spi_nor_query_numonyx                             /home/leon/git/swp-report/iMX6_Platform_SDK/output/mx6dq/sdk_unit_test/smart_device_rev_a/libsdk_unit_test.a(spi_nor_numonyx.o)
                                                  /home/leon/git/swp-report/iMX6_Platform_SDK/output/mx6dq/sdk_unit_test/smart_device_rev_a/libsdk_unit_test.a(spi_test.o)
spi_nor_read_numonyx                              /home/leon/git/swp-report/iMX6_Platform_SDK/output/mx6dq/sdk_unit_test/smart_device_rev_a/libsdk_unit_test.a(spi_nor_numonyx.o)
                                                  /home/leon/git/swp-report/iMX6_Platform_SDK/output/mx6dq/sdk_unit_test/smart_device_rev_a/libsdk_unit_test.a(spi_test.o)
spi_nor_write_numonyx                             /home/leon/git/swp-report/iMX6_Platform_SDK/output/mx6dq/sdk_unit_test/smart_device_rev_a/libsdk_unit_test.a(spi_nor_numonyx.o)
                                                  /home/leon/git/swp-report/iMX6_Platform_SDK/output/mx6dq/sdk_unit_test/smart_device_rev_a/libsdk_unit_test.a(spi_test.o)
spi_test                                          /home/leon/git/swp-report/iMX6_Platform_SDK/output/mx6dq/sdk_unit_test/smart_device_rev_a/libsdk_unit_test.a(spi_test.o)
                                                  /home/leon/git/swp-report/iMX6_Platform_SDK/output/mx6dq/sdk_unit_test/smart_device_rev_a/obj/apps/sdk_unit_test/src/all_test.o
spinlock_init                                     /home/leon/git/swp-report/iMX6_Platform_SDK/output/mx6dq/lib/libsdk.a(spinlock.o)
                                                  /home/leon/git/swp-report/iMX6_Platform_SDK/output/mx6dq/lib/libsdk.a(keypad_port.o)
spinlock_is_locked                                /home/leon/git/swp-report/iMX6_Platform_SDK/output/mx6dq/lib/libsdk.a(spinlock.o)
spinlock_lock                                     /home/leon/git/swp-report/iMX6_Platform_SDK/output/mx6dq/lib/libsdk.a(spinlock_lock_unlock.o)
                                                  /home/leon/git/swp-report/iMX6_Platform_SDK/output/mx6dq/lib/libsdk.a(keypad_port.o)
spinlock_unlock                                   /home/leon/git/swp-report/iMX6_Platform_SDK/output/mx6dq/lib/libsdk.a(spinlock_lock_unlock.o)
                                                  /home/leon/git/swp-report/iMX6_Platform_SDK/output/mx6dq/lib/libsdk.a(keypad_port.o)
sprintf                                           /home/leon/riotboard/arm-2012.09/bin/../arm-none-eabi/lib//libc.a(lib_a-sprintf.o)
                                                  /home/leon/riotboard/arm-2012.09/bin/../arm-none-eabi/lib//libstdc++.a(cp-demangle.o)
                                                  /home/leon/git/swp-report/iMX6_Platform_SDK/output/mx6dq/sdk_unit_test/smart_device_rev_a/libsdk_unit_test.a(accelerometer_test.o)
                                                  /home/leon/git/swp-report/iMX6_Platform_SDK/output/mx6dq/lib/libsdk.a(board_id.o)
src_iomux_config                                  /home/leon/git/swp-report/iMX6_Platform_SDK/output/mx6dq/lib/libboard_smart_device_rev_a.a(iomux_config.o)
srtc_deinit                                       /home/leon/git/swp-report/iMX6_Platform_SDK/output/mx6dq/lib/libsdk.a(srtc.o)
                                                  /home/leon/git/swp-report/iMX6_Platform_SDK/output/mx6dq/sdk_unit_test/smart_device_rev_a/libsdk_unit_test.a(snvs_srtc_test.o)
srtc_init                                         /home/leon/git/swp-report/iMX6_Platform_SDK/output/mx6dq/lib/libsdk.a(srtc.o)
                                                  /home/leon/git/swp-report/iMX6_Platform_SDK/output/mx6dq/sdk_unit_test/smart_device_rev_a/libsdk_unit_test.a(snvs_srtc_test.o)
srtc_one_time_tick_callback                       /home/leon/git/swp-report/iMX6_Platform_SDK/output/mx6dq/sdk_unit_test/smart_device_rev_a/libsdk_unit_test.a(snvs_srtc_test.o)
srtc_one_time_timer_test                          /home/leon/git/swp-report/iMX6_Platform_SDK/output/mx6dq/sdk_unit_test/smart_device_rev_a/libsdk_unit_test.a(snvs_srtc_test.o)
srtc_setup_onetime_timer                          /home/leon/git/swp-report/iMX6_Platform_SDK/output/mx6dq/lib/libsdk.a(srtc.o)
                                                  /home/leon/git/swp-report/iMX6_Platform_SDK/output/mx6dq/sdk_unit_test/smart_device_rev_a/libsdk_unit_test.a(snvs_srtc_test.o)
std::bad_exception::what() const                  /home/leon/riotboard/arm-2012.09/bin/../arm-none-eabi/lib//libstdc++.a(eh_exception.o)
std::bad_exception::~bad_exception()              /home/leon/riotboard/arm-2012.09/bin/../arm-none-eabi/lib//libstdc++.a(eh_exception.o)
std::bad_exception::~bad_exception()              /home/leon/riotboard/arm-2012.09/bin/../arm-none-eabi/lib//libstdc++.a(eh_exception.o)
                                                  /home/leon/riotboard/arm-2012.09/bin/../arm-none-eabi/lib//libstdc++.a(eh_call.o)
std::bad_exception::~bad_exception()              /home/leon/riotboard/arm-2012.09/bin/../arm-none-eabi/lib//libstdc++.a(eh_exception.o)
std::exception::what() const                      /home/leon/riotboard/arm-2012.09/bin/../arm-none-eabi/lib//libstdc++.a(eh_exception.o)
std::exception::~exception()                      /home/leon/riotboard/arm-2012.09/bin/../arm-none-eabi/lib//libstdc++.a(eh_exception.o)
std::exception::~exception()                      /home/leon/riotboard/arm-2012.09/bin/../arm-none-eabi/lib//libstdc++.a(eh_exception.o)
std::exception::~exception()                      /home/leon/riotboard/arm-2012.09/bin/../arm-none-eabi/lib//libstdc++.a(eh_exception.o)
std::set_terminate(void (*)())                    /home/leon/riotboard/arm-2012.09/bin/../arm-none-eabi/lib//libstdc++.a(eh_terminate.o)
std::set_unexpected(void (*)())                   /home/leon/riotboard/arm-2012.09/bin/../arm-none-eabi/lib//libstdc++.a(eh_terminate.o)
std::terminate()                                  /home/leon/riotboard/arm-2012.09/bin/../arm-none-eabi/lib//libstdc++.a(eh_terminate.o)
                                                  /home/leon/riotboard/arm-2012.09/bin/../arm-none-eabi/lib//libstdc++.a(eh_catch.o)
                                                  /home/leon/riotboard/arm-2012.09/bin/../arm-none-eabi/lib//libstdc++.a(eh_personality.o)
                                                  /home/leon/riotboard/arm-2012.09/bin/../arm-none-eabi/lib//libstdc++.a(eh_alloc.o)
                                                  /home/leon/riotboard/arm-2012.09/bin/../arm-none-eabi/lib//libstdc++.a(eh_arm.o)
                                                  /home/leon/riotboard/arm-2012.09/bin/../arm-none-eabi/lib//libstdc++.a(eh_throw.o)
                                                  /home/leon/riotboard/arm-2012.09/bin/../arm-none-eabi/lib//libstdc++.a(eh_call.o)
                                                  /home/leon/riotboard/arm-2012.09/bin/../arm-none-eabi/lib//libstdc++.a(eh_unex_handler.o)
                                                  /home/leon/riotboard/arm-2012.09/bin/../arm-none-eabi/lib//libstdc++.a(pure.o)
std::type_info::__do_catch(std::type_info const*, void**, unsigned int) const /home/leon/riotboard/arm-2012.09/bin/../arm-none-eabi/lib//libstdc++.a(tinfo.o)
std::type_info::__do_upcast(__cxxabiv1::__class_type_info const*, void**) const /home/leon/riotboard/arm-2012.09/bin/../arm-none-eabi/lib//libstdc++.a(tinfo.o)
std::type_info::__is_function_p() const           /home/leon/riotboard/arm-2012.09/bin/../arm-none-eabi/lib//libstdc++.a(tinfo.o)
                                                  /home/leon/riotboard/arm-2012.09/bin/../arm-none-eabi/lib//libstdc++.a(class_type_info.o)
                                                  /home/leon/riotboard/arm-2012.09/bin/../arm-none-eabi/lib//libstdc++.a(si_class_type_info.o)
std::type_info::__is_pointer_p() const            /home/leon/riotboard/arm-2012.09/bin/../arm-none-eabi/lib//libstdc++.a(tinfo.o)
                                                  /home/leon/riotboard/arm-2012.09/bin/../arm-none-eabi/lib//libstdc++.a(class_type_info.o)
                                                  /home/leon/riotboard/arm-2012.09/bin/../arm-none-eabi/lib//libstdc++.a(si_class_type_info.o)
std::type_info::operator==(std::type_info const&) const /home/leon/riotboard/arm-2012.09/bin/../arm-none-eabi/lib//libstdc++.a(tinfo.o)
                                                  /home/leon/riotboard/arm-2012.09/bin/../arm-none-eabi/lib//libstdc++.a(class_type_info.o)
                                                  /home/leon/riotboard/arm-2012.09/bin/../arm-none-eabi/lib//libstdc++.a(si_class_type_info.o)
std::type_info::~type_info()                      /home/leon/riotboard/arm-2012.09/bin/../arm-none-eabi/lib//libstdc++.a(tinfo.o)
std::type_info::~type_info()                      /home/leon/riotboard/arm-2012.09/bin/../arm-none-eabi/lib//libstdc++.a(tinfo.o)
std::type_info::~type_info()                      /home/leon/riotboard/arm-2012.09/bin/../arm-none-eabi/lib//libstdc++.a(tinfo.o)
                                                  /home/leon/riotboard/arm-2012.09/bin/../arm-none-eabi/lib//libstdc++.a(class_type_info.o)
std::uncaught_exception()                         /home/leon/riotboard/arm-2012.09/bin/../arm-none-eabi/lib//libstdc++.a(eh_catch.o)
std::unexpected()                                 /home/leon/riotboard/arm-2012.09/bin/../arm-none-eabi/lib//libstdc++.a(eh_terminate.o)
                                                  /home/leon/riotboard/arm-2012.09/bin/../arm-none-eabi/lib//libstdc++.a(eh_personality.o)
                                                  /home/leon/riotboard/arm-2012.09/bin/../arm-none-eabi/lib//libstdc++.a(eh_call.o)
strcmp                                            /home/leon/riotboard/arm-2012.09/bin/../arm-none-eabi/lib//libc.a(lib_a-strcmp.o)
                                                  /home/leon/riotboard/arm-2012.09/bin/../arm-none-eabi/lib//libstdc++.a(tinfo.o)
                                                  /home/leon/riotboard/arm-2012.09/bin/../arm-none-eabi/lib//libstdc++.a(cp-demangle.o)
                                                  /home/leon/git/swp-report/iMX6_Platform_SDK/output/mx6dq/lib/libboard_smart_device_rev_a.a(board_display.o)
                                                  /home/leon/git/swp-report/iMX6_Platform_SDK/output/mx6dq/lib/libsdk.a(ipu_ic.o)
                                                  /home/leon/git/swp-report/iMX6_Platform_SDK/output/mx6dq/lib/libsdk.a(ips_disp_panel.o)
                                                  /home/leon/riotboard/arm-2012.09/bin/../arm-none-eabi/lib//libc.a(lib_a-locale.o)
strlen                                            /home/leon/riotboard/arm-2012.09/bin/../arm-none-eabi/lib//libc.a(lib_a-strlen.o)
                                                  /home/leon/riotboard/arm-2012.09/bin/../arm-none-eabi/lib//libstdc++.a(cp-demangle.o)
                                                  /home/leon/git/swp-report/iMX6_Platform_SDK/output/mx6dq/lib/libsdk.a(runtime_support.o)
                                                  /home/leon/riotboard/arm-2012.09/bin/../arm-none-eabi/lib//libc.a(lib_a-svfiprintf.o)
                                                  /home/leon/riotboard/arm-2012.09/bin/../arm-none-eabi/lib//libc.a(lib_a-vfprintf.o)
                                                  /home/leon/riotboard/arm-2012.09/bin/../arm-none-eabi/lib//libc.a(lib_a-vfiprintf.o)
                                                  /home/leon/riotboard/arm-2012.09/bin/../arm-none-eabi/lib//libc.a(lib_a-svfprintf.o)
                                                  /home/leon/riotboard/arm-2012.09/bin/../arm-none-eabi/lib//libc.a(lib_a-fputs.o)
                                                  /home/leon/git/swp-report/iMX6_Platform_SDK/output/mx6dq/sdk_unit_test/smart_device_rev_a/libsdk_unit_test.a(accelerometer_test.o)
                                                  /home/leon/git/swp-report/iMX6_Platform_SDK/output/mx6dq/lib/libsdk.a(menu.o)
strncasecmp                                       /home/leon/riotboard/arm-2012.09/bin/../arm-none-eabi/lib//libc.a(lib_a-strncasecmp.o)
                                                  /home/leon/git/swp-report/iMX6_Platform_SDK/output/mx6dq/lib/libsdk.a(menu.o)
strncmp                                           /home/leon/riotboard/arm-2012.09/bin/../arm-none-eabi/lib//libc.a(lib_a-strncmp.o)
                                                  /home/leon/riotboard/arm-2012.09/bin/../arm-none-eabi/lib//libstdc++.a(cp-demangle.o)
swap32                                            /home/leon/git/swp-report/iMX6_Platform_SDK/output/mx6dq/lib/libsdk.a(usb_common.o)
system_time_init                                  /home/leon/git/swp-report/iMX6_Platform_SDK/output/mx6dq/lib/libsdk.a(timer.o)
                                                  /home/leon/git/swp-report/iMX6_Platform_SDK/output/mx6dq/sdk_unit_test/smart_device_rev_a/obj/apps/common/platform_init.o
tempmon_disable_alarm                             /home/leon/git/swp-report/iMX6_Platform_SDK/output/mx6dq/lib/libsdk.a(tempmon.o)
                                                  /home/leon/git/swp-report/iMX6_Platform_SDK/output/mx6dq/sdk_unit_test/smart_device_rev_a/libsdk_unit_test.a(tempmon_test.o)
tempmon_get_temp                                  /home/leon/git/swp-report/iMX6_Platform_SDK/output/mx6dq/lib/libsdk.a(tempmon.o)
                                                  /home/leon/git/swp-report/iMX6_Platform_SDK/output/mx6dq/sdk_unit_test/smart_device_rev_a/libsdk_unit_test.a(tempmon_test.o)
tempmon_init                                      /home/leon/git/swp-report/iMX6_Platform_SDK/output/mx6dq/lib/libsdk.a(tempmon.o)
                                                  /home/leon/git/swp-report/iMX6_Platform_SDK/output/mx6dq/sdk_unit_test/smart_device_rev_a/libsdk_unit_test.a(tempmon_test.o)
tempmon_set_alarm                                 /home/leon/git/swp-report/iMX6_Platform_SDK/output/mx6dq/lib/libsdk.a(tempmon.o)
                                                  /home/leon/git/swp-report/iMX6_Platform_SDK/output/mx6dq/sdk_unit_test/smart_device_rev_a/libsdk_unit_test.a(tempmon_test.o)
tempmon_test                                      /home/leon/git/swp-report/iMX6_Platform_SDK/output/mx6dq/sdk_unit_test/smart_device_rev_a/libsdk_unit_test.a(tempmon_test.o)
                                                  /home/leon/git/swp-report/iMX6_Platform_SDK/output/mx6dq/sdk_unit_test/smart_device_rev_a/obj/apps/sdk_unit_test/src/all_test.o
tftlcd_backlight_en                               /home/leon/git/swp-report/iMX6_Platform_SDK/output/mx6dq/lib/libboard_smart_device_rev_a.a(board_display.o)
                                                  /home/leon/git/swp-report/iMX6_Platform_SDK/output/mx6dq/lib/libsdk.a(ips_disp_panel.o)
tftlcd_reset                                      /home/leon/git/swp-report/iMX6_Platform_SDK/output/mx6dq/lib/libboard_smart_device_rev_a.a(board_display.o)
                                                  /home/leon/git/swp-report/iMX6_Platform_SDK/output/mx6dq/lib/libsdk.a(ips_disp_panel.o)
time_get_microseconds                             /home/leon/git/swp-report/iMX6_Platform_SDK/output/mx6dq/lib/libsdk.a(timer.o)
                                                  /home/leon/git/swp-report/iMX6_Platform_SDK/output/mx6dq/lib/libsdk.a(runtime_support.o)
                                                  /home/leon/git/swp-report/iMX6_Platform_SDK/output/mx6dq/sdk_unit_test/smart_device_rev_a/libsdk_unit_test.a(timer_test.o)
top_of_stacks                                     /home/leon/git/swp-report/iMX6_Platform_SDK/output/mx6dq/lib/libsdk.a(startup.o)
trans_done                                        /home/leon/git/swp-report/iMX6_Platform_SDK/output/mx6dq/sdk_unit_test/smart_device_rev_a/libsdk_unit_test.a(uart_loopback.o)
typeinfo for __cxxabiv1::__class_type_info        /home/leon/riotboard/arm-2012.09/bin/../arm-none-eabi/lib//libstdc++.a(class_type_info.o)
                                                  /home/leon/riotboard/arm-2012.09/bin/../arm-none-eabi/lib//libstdc++.a(si_class_type_info.o)
typeinfo for __cxxabiv1::__forced_unwind          /home/leon/riotboard/arm-2012.09/bin/../arm-none-eabi/lib//libstdc++.a(eh_exception.o)
                                                  /home/leon/riotboard/arm-2012.09/bin/../arm-none-eabi/lib//libstdc++.a(eh_arm.o)
typeinfo for __cxxabiv1::__foreign_exception      /home/leon/riotboard/arm-2012.09/bin/../arm-none-eabi/lib//libstdc++.a(eh_exception.o)
                                                  /home/leon/riotboard/arm-2012.09/bin/../arm-none-eabi/lib//libstdc++.a(eh_arm.o)
typeinfo for __cxxabiv1::__si_class_type_info     /home/leon/riotboard/arm-2012.09/bin/../arm-none-eabi/lib//libstdc++.a(si_class_type_info.o)
typeinfo for std::bad_exception                   /home/leon/riotboard/arm-2012.09/bin/../arm-none-eabi/lib//libstdc++.a(eh_exception.o)
                                                  /home/leon/riotboard/arm-2012.09/bin/../arm-none-eabi/lib//libstdc++.a(eh_call.o)
typeinfo for std::exception                       /home/leon/riotboard/arm-2012.09/bin/../arm-none-eabi/lib//libstdc++.a(eh_exception.o)
                                                  /home/leon/riotboard/arm-2012.09/bin/../arm-none-eabi/lib//libstdc++.a(vterminate.o)
typeinfo for std::type_info                       /home/leon/riotboard/arm-2012.09/bin/../arm-none-eabi/lib//libstdc++.a(tinfo.o)
                                                  /home/leon/riotboard/arm-2012.09/bin/../arm-none-eabi/lib//libstdc++.a(class_type_info.o)
typeinfo name for __cxxabiv1::__class_type_info   /home/leon/riotboard/arm-2012.09/bin/../arm-none-eabi/lib//libstdc++.a(class_type_info.o)
typeinfo name for __cxxabiv1::__forced_unwind     /home/leon/riotboard/arm-2012.09/bin/../arm-none-eabi/lib//libstdc++.a(eh_exception.o)
typeinfo name for __cxxabiv1::__foreign_exception /home/leon/riotboard/arm-2012.09/bin/../arm-none-eabi/lib//libstdc++.a(eh_exception.o)
typeinfo name for __cxxabiv1::__si_class_type_info /home/leon/riotboard/arm-2012.09/bin/../arm-none-eabi/lib//libstdc++.a(si_class_type_info.o)
typeinfo name for std::bad_exception              /home/leon/riotboard/arm-2012.09/bin/../arm-none-eabi/lib//libstdc++.a(eh_exception.o)
typeinfo name for std::exception                  /home/leon/riotboard/arm-2012.09/bin/../arm-none-eabi/lib//libstdc++.a(eh_exception.o)
typeinfo name for std::type_info                  /home/leon/riotboard/arm-2012.09/bin/../arm-none-eabi/lib//libstdc++.a(tinfo.o)
uart1_iomux_config                                /home/leon/git/swp-report/iMX6_Platform_SDK/output/mx6dq/lib/libboard_smart_device_rev_a.a(uart1_iomux_config.o)
                                                  /home/leon/git/swp-report/iMX6_Platform_SDK/output/mx6dq/lib/libboard_smart_device_rev_a.a(iomux_config.o)
                                                  /home/leon/git/swp-report/iMX6_Platform_SDK/output/mx6dq/lib/libboard_smart_device_rev_a.a(uart_iomux_config.o)
uart2_iomux_config                                /home/leon/git/swp-report/iMX6_Platform_SDK/output/mx6dq/lib/libboard_smart_device_rev_a.a(iomux_config.o)
                                                  /home/leon/git/swp-report/iMX6_Platform_SDK/output/mx6dq/lib/libboard_smart_device_rev_a.a(uart_iomux_config.o)
uart3_iomux_config                                /home/leon/git/swp-report/iMX6_Platform_SDK/output/mx6dq/lib/libboard_smart_device_rev_a.a(iomux_config.o)
                                                  /home/leon/git/swp-report/iMX6_Platform_SDK/output/mx6dq/lib/libboard_smart_device_rev_a.a(uart_iomux_config.o)
uart4_iomux_config                                /home/leon/git/swp-report/iMX6_Platform_SDK/output/mx6dq/lib/libboard_smart_device_rev_a.a(iomux_config.o)
                                                  /home/leon/git/swp-report/iMX6_Platform_SDK/output/mx6dq/lib/libboard_smart_device_rev_a.a(uart_iomux_config.o)
uart5_iomux_config                                /home/leon/git/swp-report/iMX6_Platform_SDK/output/mx6dq/lib/libboard_smart_device_rev_a.a(iomux_config.o)
                                                  /home/leon/git/swp-report/iMX6_Platform_SDK/output/mx6dq/lib/libboard_smart_device_rev_a.a(uart_iomux_config.o)
uart5_trans_isr                                   /home/leon/git/swp-report/iMX6_Platform_SDK/output/mx6dq/sdk_unit_test/smart_device_rev_a/libsdk_unit_test.a(uart_loopback.o)
uart_app_interrupt_test                           /home/leon/git/swp-report/iMX6_Platform_SDK/output/mx6dq/sdk_unit_test/smart_device_rev_a/libsdk_unit_test.a(uart_loopback.o)
                                                  /home/leon/git/swp-report/iMX6_Platform_SDK/output/mx6dq/sdk_unit_test/smart_device_rev_a/libsdk_unit_test.a(sdma_test.o)
uart_app_test                                     /home/leon/git/swp-report/iMX6_Platform_SDK/output/mx6dq/sdk_unit_test/smart_device_rev_a/libsdk_unit_test.a(uart_loopback.o)
                                                  /home/leon/git/swp-report/iMX6_Platform_SDK/output/mx6dq/sdk_unit_test/smart_device_rev_a/libsdk_unit_test.a(sdma_test.o)
uart_get_reffreq                                  /home/leon/git/swp-report/iMX6_Platform_SDK/output/mx6dq/lib/libsdk.a(imx_uart.o)
uart_getchar                                      /home/leon/git/swp-report/iMX6_Platform_SDK/output/mx6dq/lib/libsdk.a(imx_uart.o)
                                                  /home/leon/git/swp-report/iMX6_Platform_SDK/output/mx6dq/lib/libsdk.a(runtime_support.o)
                                                  /home/leon/git/swp-report/iMX6_Platform_SDK/output/mx6dq/sdk_unit_test/smart_device_rev_a/libsdk_unit_test.a(csi_test_mode.o)
                                                  /home/leon/git/swp-report/iMX6_Platform_SDK/output/mx6dq/sdk_unit_test/smart_device_rev_a/libsdk_unit_test.a(uart_test.o)
                                                  /home/leon/git/swp-report/iMX6_Platform_SDK/output/mx6dq/lib/libsdk.a(system_util.o)
                                                  /home/leon/git/swp-report/iMX6_Platform_SDK/output/mx6dq/sdk_unit_test/smart_device_rev_a/obj/apps/common/platform_init.o
uart_init                                         /home/leon/git/swp-report/iMX6_Platform_SDK/output/mx6dq/lib/libsdk.a(imx_uart.o)
                                                  /home/leon/git/swp-report/iMX6_Platform_SDK/output/mx6dq/sdk_unit_test/smart_device_rev_a/libsdk_unit_test.a(uart_test.o)
                                                  /home/leon/git/swp-report/iMX6_Platform_SDK/output/mx6dq/sdk_unit_test/smart_device_rev_a/libsdk_unit_test.a(uart_loopback.o)
                                                  /home/leon/git/swp-report/iMX6_Platform_SDK/output/mx6dq/sdk_unit_test/smart_device_rev_a/obj/apps/common/platform_init.o
uart_interrupt_handler                            /home/leon/git/swp-report/iMX6_Platform_SDK/output/mx6dq/sdk_unit_test/smart_device_rev_a/libsdk_unit_test.a(uart_test.o)
uart_iomux_config                                 /home/leon/git/swp-report/iMX6_Platform_SDK/output/mx6dq/lib/libboard_smart_device_rev_a.a(uart_iomux_config.o)
                                                  /home/leon/git/swp-report/iMX6_Platform_SDK/output/mx6dq/lib/libsdk.a(imx_uart.o)
uart_putchar                                      /home/leon/git/swp-report/iMX6_Platform_SDK/output/mx6dq/lib/libsdk.a(imx_uart.o)
                                                  /home/leon/git/swp-report/iMX6_Platform_SDK/output/mx6dq/lib/libsdk.a(runtime_support.o)
                                                  /home/leon/git/swp-report/iMX6_Platform_SDK/output/mx6dq/sdk_unit_test/smart_device_rev_a/libsdk_unit_test.a(uart_test.o)
uart_set_FIFO_mode                                /home/leon/git/swp-report/iMX6_Platform_SDK/output/mx6dq/lib/libsdk.a(imx_uart.o)
                                                  /home/leon/git/swp-report/iMX6_Platform_SDK/output/mx6dq/sdk_unit_test/smart_device_rev_a/libsdk_unit_test.a(uart_test.o)
                                                  /home/leon/git/swp-report/iMX6_Platform_SDK/output/mx6dq/sdk_unit_test/smart_device_rev_a/libsdk_unit_test.a(uart_loopback.o)
uart_set_loopback_mode                            /home/leon/git/swp-report/iMX6_Platform_SDK/output/mx6dq/lib/libsdk.a(imx_uart.o)
                                                  /home/leon/git/swp-report/iMX6_Platform_SDK/output/mx6dq/sdk_unit_test/smart_device_rev_a/libsdk_unit_test.a(uart_test.o)
                                                  /home/leon/git/swp-report/iMX6_Platform_SDK/output/mx6dq/sdk_unit_test/smart_device_rev_a/libsdk_unit_test.a(uart_loopback.o)
uart_setup_interrupt                              /home/leon/git/swp-report/iMX6_Platform_SDK/output/mx6dq/lib/libsdk.a(imx_uart.o)
                                                  /home/leon/git/swp-report/iMX6_Platform_SDK/output/mx6dq/sdk_unit_test/smart_device_rev_a/libsdk_unit_test.a(uart_test.o)
uart_shp_test                                     /home/leon/git/swp-report/iMX6_Platform_SDK/output/mx6dq/sdk_unit_test/smart_device_rev_a/libsdk_unit_test.a(uart_loopback.o)
uart_test                                         /home/leon/git/swp-report/iMX6_Platform_SDK/output/mx6dq/sdk_unit_test/smart_device_rev_a/libsdk_unit_test.a(uart_test.o)
                                                  /home/leon/git/swp-report/iMX6_Platform_SDK/output/mx6dq/sdk_unit_test/smart_device_rev_a/obj/apps/sdk_unit_test/src/all_test.o
update_csc_coeffs                                 /home/leon/git/swp-report/iMX6_Platform_SDK/output/mx6dq/lib/libsdk.a(hdmi_tx.o)
usb0_device_mouse_test                            /home/leon/git/swp-report/iMX6_Platform_SDK/output/mx6dq/sdk_unit_test/smart_device_rev_a/libsdk_unit_test.a(usb0_device_mouse_test.o)
                                                  /home/leon/git/swp-report/iMX6_Platform_SDK/output/mx6dq/sdk_unit_test/smart_device_rev_a/libsdk_unit_test.a(usb_test.o)
usb0_host_test                                    /home/leon/git/swp-report/iMX6_Platform_SDK/output/mx6dq/sdk_unit_test/smart_device_rev_a/libsdk_unit_test.a(usb0_host_test.o)
                                                  /home/leon/git/swp-report/iMX6_Platform_SDK/output/mx6dq/sdk_unit_test/smart_device_rev_a/libsdk_unit_test.a(usb_test.o)
usb0_host_testmodes_test                          /home/leon/git/swp-report/iMX6_Platform_SDK/output/mx6dq/sdk_unit_test/smart_device_rev_a/libsdk_unit_test.a(usb0_host_testmodes_test.o)
                                                  /home/leon/git/swp-report/iMX6_Platform_SDK/output/mx6dq/sdk_unit_test/smart_device_rev_a/libsdk_unit_test.a(usb_test.o)
usbDisableVbus                                    /home/leon/git/swp-report/iMX6_Platform_SDK/output/mx6dq/lib/libboard_smart_device_rev_a.a(board_usb.o)
                                                  /home/leon/git/swp-report/iMX6_Platform_SDK/output/mx6dq/lib/libsdk.a(usbd_drv.o)
usbEnableClocks                                   /home/leon/git/swp-report/iMX6_Platform_SDK/output/mx6dq/lib/libsdk.a(mx6x_usb.o)
                                                  /home/leon/git/swp-report/iMX6_Platform_SDK/output/mx6dq/lib/libsdk.a(usbh_drv.o)
                                                  /home/leon/git/swp-report/iMX6_Platform_SDK/output/mx6dq/lib/libsdk.a(usbd_drv.o)
usbEnableTransceiver                              /home/leon/git/swp-report/iMX6_Platform_SDK/output/mx6dq/lib/libsdk.a(mx6x_usb.o)
                                                  /home/leon/git/swp-report/iMX6_Platform_SDK/output/mx6dq/lib/libsdk.a(usbh_drv.o)
                                                  /home/leon/git/swp-report/iMX6_Platform_SDK/output/mx6dq/lib/libsdk.a(usbd_drv.o)
usbEnableVbus                                     /home/leon/git/swp-report/iMX6_Platform_SDK/output/mx6dq/lib/libboard_smart_device_rev_a.a(board_usb.o)
                                                  /home/leon/git/swp-report/iMX6_Platform_SDK/output/mx6dq/lib/libsdk.a(usbh_drv.o)
usb_get_port_speed                                /home/leon/git/swp-report/iMX6_Platform_SDK/output/mx6dq/lib/libsdk.a(usb_common.o)
                                                  /home/leon/git/swp-report/iMX6_Platform_SDK/output/mx6dq/lib/libsdk.a(usbd_drv.o)
                                                  /home/leon/git/swp-report/iMX6_Platform_SDK/output/mx6dq/sdk_unit_test/smart_device_rev_a/libsdk_unit_test.a(usb0_host_test.o)
                                                  /home/leon/git/swp-report/iMX6_Platform_SDK/output/mx6dq/sdk_unit_test/smart_device_rev_a/libsdk_unit_test.a(usb0_device_mouse_test.o)
usb_iomux_config                                  /home/leon/git/swp-report/iMX6_Platform_SDK/output/mx6dq/lib/libboard_smart_device_rev_a.a(iomux_config.o)
usb_test                                          /home/leon/git/swp-report/iMX6_Platform_SDK/output/mx6dq/sdk_unit_test/smart_device_rev_a/libsdk_unit_test.a(usb_test.o)
                                                  /home/leon/git/swp-report/iMX6_Platform_SDK/output/mx6dq/sdk_unit_test/smart_device_rev_a/obj/apps/sdk_unit_test/src/all_test.o
usbd_add_dtd                                      /home/leon/git/swp-report/iMX6_Platform_SDK/output/mx6dq/lib/libsdk.a(usbd_drv.o)
                                                  /home/leon/git/swp-report/iMX6_Platform_SDK/output/mx6dq/sdk_unit_test/smart_device_rev_a/libsdk_unit_test.a(usb0_device_mouse_test.o)
usbd_bus_reset                                    /home/leon/git/swp-report/iMX6_Platform_SDK/output/mx6dq/lib/libsdk.a(usbd_drv.o)
                                                  /home/leon/git/swp-report/iMX6_Platform_SDK/output/mx6dq/sdk_unit_test/smart_device_rev_a/libsdk_unit_test.a(usb0_device_mouse_test.o)
usbd_device_init                                  /home/leon/git/swp-report/iMX6_Platform_SDK/output/mx6dq/lib/libsdk.a(usbd_drv.o)
                                                  /home/leon/git/swp-report/iMX6_Platform_SDK/output/mx6dq/sdk_unit_test/smart_device_rev_a/libsdk_unit_test.a(usb0_device_mouse_test.o)
usbd_device_send_control_packet                   /home/leon/git/swp-report/iMX6_Platform_SDK/output/mx6dq/lib/libsdk.a(usbd_drv.o)
                                                  /home/leon/git/swp-report/iMX6_Platform_SDK/output/mx6dq/sdk_unit_test/smart_device_rev_a/libsdk_unit_test.a(usb0_device_mouse_test.o)
usbd_device_send_zero_len_packet                  /home/leon/git/swp-report/iMX6_Platform_SDK/output/mx6dq/lib/libsdk.a(usbd_drv.o)
                                                  /home/leon/git/swp-report/iMX6_Platform_SDK/output/mx6dq/sdk_unit_test/smart_device_rev_a/libsdk_unit_test.a(usb0_device_mouse_test.o)
usbd_dtd_init                                     /home/leon/git/swp-report/iMX6_Platform_SDK/output/mx6dq/lib/libsdk.a(usbd_drv.o)
                                                  /home/leon/git/swp-report/iMX6_Platform_SDK/output/mx6dq/sdk_unit_test/smart_device_rev_a/libsdk_unit_test.a(usb0_device_mouse_test.o)
usbd_endpoint_qh_init                             /home/leon/git/swp-report/iMX6_Platform_SDK/output/mx6dq/lib/libsdk.a(usbd_drv.o)
                                                  /home/leon/git/swp-report/iMX6_Platform_SDK/output/mx6dq/sdk_unit_test/smart_device_rev_a/libsdk_unit_test.a(usb0_device_mouse_test.o)
usbd_get_setup_packet                             /home/leon/git/swp-report/iMX6_Platform_SDK/output/mx6dq/lib/libsdk.a(usbd_drv.o)
                                                  /home/leon/git/swp-report/iMX6_Platform_SDK/output/mx6dq/sdk_unit_test/smart_device_rev_a/libsdk_unit_test.a(usb0_device_mouse_test.o)
usbd_reclaim_dtd                                  /home/leon/git/swp-report/iMX6_Platform_SDK/output/mx6dq/lib/libsdk.a(usbd_drv.o)
                                                  /home/leon/git/swp-report/iMX6_Platform_SDK/output/mx6dq/sdk_unit_test/smart_device_rev_a/libsdk_unit_test.a(usb0_device_mouse_test.o)
usbh_bus_reset                                    /home/leon/git/swp-report/iMX6_Platform_SDK/output/mx6dq/lib/libsdk.a(usbh_drv.o)
                                                  /home/leon/git/swp-report/iMX6_Platform_SDK/output/mx6dq/sdk_unit_test/smart_device_rev_a/libsdk_unit_test.a(usb0_host_test.o)
usbh_disable_Periodic_list                        /home/leon/git/swp-report/iMX6_Platform_SDK/output/mx6dq/lib/libsdk.a(usbh_drv.o)
usbh_disable_asynchronous_schedule                /home/leon/git/swp-report/iMX6_Platform_SDK/output/mx6dq/lib/libsdk.a(usbh_drv.o)
                                                  /home/leon/git/swp-report/iMX6_Platform_SDK/output/mx6dq/sdk_unit_test/smart_device_rev_a/libsdk_unit_test.a(usb0_host_test.o)
usbh_enable_asynchronous_schedule                 /home/leon/git/swp-report/iMX6_Platform_SDK/output/mx6dq/lib/libsdk.a(usbh_drv.o)
                                                  /home/leon/git/swp-report/iMX6_Platform_SDK/output/mx6dq/sdk_unit_test/smart_device_rev_a/libsdk_unit_test.a(usb0_host_test.o)
usbh_get_config_desc                              /home/leon/git/swp-report/iMX6_Platform_SDK/output/mx6dq/sdk_unit_test/smart_device_rev_a/libsdk_unit_test.a(usb0_host_test.o)
usbh_get_dev_desc                                 /home/leon/git/swp-report/iMX6_Platform_SDK/output/mx6dq/sdk_unit_test/smart_device_rev_a/libsdk_unit_test.a(usb0_host_test.o)
usbh_get_interface_desc                           /home/leon/git/swp-report/iMX6_Platform_SDK/output/mx6dq/sdk_unit_test/smart_device_rev_a/libsdk_unit_test.a(usb0_host_test.o)
usbh_get_report_desc                              /home/leon/git/swp-report/iMX6_Platform_SDK/output/mx6dq/sdk_unit_test/smart_device_rev_a/libsdk_unit_test.a(usb0_host_test.o)
usbh_init                                         /home/leon/git/swp-report/iMX6_Platform_SDK/output/mx6dq/lib/libsdk.a(usbh_drv.o)
                                                  /home/leon/git/swp-report/iMX6_Platform_SDK/output/mx6dq/sdk_unit_test/smart_device_rev_a/libsdk_unit_test.a(usb0_host_testmodes_test.o)
                                                  /home/leon/git/swp-report/iMX6_Platform_SDK/output/mx6dq/sdk_unit_test/smart_device_rev_a/libsdk_unit_test.a(usb0_host_test.o)
usbh_periodic_schedule_init                       /home/leon/git/swp-report/iMX6_Platform_SDK/output/mx6dq/lib/libsdk.a(usbh_drv.o)
                                                  /home/leon/git/swp-report/iMX6_Platform_SDK/output/mx6dq/sdk_unit_test/smart_device_rev_a/libsdk_unit_test.a(usb0_host_test.o)
usbh_qh_init                                      /home/leon/git/swp-report/iMX6_Platform_SDK/output/mx6dq/lib/libsdk.a(usbh_drv.o)
                                                  /home/leon/git/swp-report/iMX6_Platform_SDK/output/mx6dq/sdk_unit_test/smart_device_rev_a/libsdk_unit_test.a(usb0_host_test.o)
usbh_qtd_init                                     /home/leon/git/swp-report/iMX6_Platform_SDK/output/mx6dq/lib/libsdk.a(usbh_drv.o)
                                                  /home/leon/git/swp-report/iMX6_Platform_SDK/output/mx6dq/sdk_unit_test/smart_device_rev_a/libsdk_unit_test.a(usb0_host_test.o)
usbh_set_configuration                            /home/leon/git/swp-report/iMX6_Platform_SDK/output/mx6dq/sdk_unit_test/smart_device_rev_a/libsdk_unit_test.a(usb0_host_test.o)
usbh_set_device_address                           /home/leon/git/swp-report/iMX6_Platform_SDK/output/mx6dq/sdk_unit_test/smart_device_rev_a/libsdk_unit_test.a(usb0_host_test.o)
usdhc1_iomux_config                               /home/leon/git/swp-report/iMX6_Platform_SDK/output/mx6dq/lib/libboard_smart_device_rev_a.a(iomux_config.o)
                                                  /home/leon/git/swp-report/iMX6_Platform_SDK/output/mx6dq/lib/libboard_smart_device_rev_a.a(usdhc_iomux_config.o)
usdhc1_isr                                        /home/leon/git/swp-report/iMX6_Platform_SDK/output/mx6dq/lib/libsdk.a(usdhc_host.o)
                                                  /home/leon/git/swp-report/iMX6_Platform_SDK/output/mx6dq/lib/libsdk.a(usdhc.o)
usdhc2_iomux_config                               /home/leon/git/swp-report/iMX6_Platform_SDK/output/mx6dq/lib/libboard_smart_device_rev_a.a(usdhc2_iomux_config.o)
                                                  /home/leon/git/swp-report/iMX6_Platform_SDK/output/mx6dq/lib/libboard_smart_device_rev_a.a(usdhc_iomux_config.o)
                                                  /home/leon/git/swp-report/iMX6_Platform_SDK/output/mx6dq/lib/libboard_smart_device_rev_a.a(iomux_config.o)
usdhc2_isr                                        /home/leon/git/swp-report/iMX6_Platform_SDK/output/mx6dq/lib/libsdk.a(usdhc_host.o)
                                                  /home/leon/git/swp-report/iMX6_Platform_SDK/output/mx6dq/lib/libsdk.a(usdhc.o)
usdhc3_iomux_config                               /home/leon/git/swp-report/iMX6_Platform_SDK/output/mx6dq/lib/libboard_smart_device_rev_a.a(usdhc3_iomux_config.o)
                                                  /home/leon/git/swp-report/iMX6_Platform_SDK/output/mx6dq/lib/libboard_smart_device_rev_a.a(usdhc_iomux_config.o)
                                                  /home/leon/git/swp-report/iMX6_Platform_SDK/output/mx6dq/lib/libboard_smart_device_rev_a.a(iomux_config.o)
usdhc3_isr                                        /home/leon/git/swp-report/iMX6_Platform_SDK/output/mx6dq/lib/libsdk.a(usdhc_host.o)
                                                  /home/leon/git/swp-report/iMX6_Platform_SDK/output/mx6dq/lib/libsdk.a(usdhc.o)
usdhc4_iomux_config                               /home/leon/git/swp-report/iMX6_Platform_SDK/output/mx6dq/lib/libboard_smart_device_rev_a.a(usdhc4_iomux_config.o)
                                                  /home/leon/git/swp-report/iMX6_Platform_SDK/output/mx6dq/lib/libboard_smart_device_rev_a.a(usdhc_iomux_config.o)
                                                  /home/leon/git/swp-report/iMX6_Platform_SDK/output/mx6dq/lib/libboard_smart_device_rev_a.a(iomux_config.o)
usdhc4_isr                                        /home/leon/git/swp-report/iMX6_Platform_SDK/output/mx6dq/lib/libsdk.a(usdhc_host.o)
                                                  /home/leon/git/swp-report/iMX6_Platform_SDK/output/mx6dq/lib/libsdk.a(usdhc.o)
usdhc_card_detected                               /home/leon/git/swp-report/iMX6_Platform_SDK/output/mx6dq/lib/libboard_smart_device_rev_a.a(board_usdhc.o)
                                                  /home/leon/git/swp-report/iMX6_Platform_SDK/output/mx6dq/lib/libsdk.a(usdhc.o)
usdhc_device                                      /home/leon/git/swp-report/iMX6_Platform_SDK/output/mx6dq/lib/libsdk.a(usdhc.o)
                                                  /home/leon/git/swp-report/iMX6_Platform_SDK/output/mx6dq/lib/libsdk.a(usdhc_sd.o)
                                                  /home/leon/git/swp-report/iMX6_Platform_SDK/output/mx6dq/lib/libsdk.a(usdhc_mmc.o)
                                                  /home/leon/git/swp-report/iMX6_Platform_SDK/output/mx6dq/lib/libsdk.a(usdhc_host.o)
usdhc_gpio_config                                 /home/leon/git/swp-report/iMX6_Platform_SDK/output/mx6dq/lib/libboard_smart_device_rev_a.a(board_usdhc.o)
                                                  /home/leon/git/swp-report/iMX6_Platform_SDK/output/mx6dq/lib/libsdk.a(usdhc_host.o)
usdhc_iomux_config                                /home/leon/git/swp-report/iMX6_Platform_SDK/output/mx6dq/lib/libboard_smart_device_rev_a.a(usdhc_iomux_config.o)
                                                  /home/leon/git/swp-report/iMX6_Platform_SDK/output/mx6dq/lib/libsdk.a(usdhc_host.o)
usdhc_test                                        /home/leon/git/swp-report/iMX6_Platform_SDK/output/mx6dq/sdk_unit_test/smart_device_rev_a/libsdk_unit_test.a(usdhc_test.o)
                                                  /home/leon/git/swp-report/iMX6_Platform_SDK/output/mx6dq/sdk_unit_test/smart_device_rev_a/obj/apps/sdk_unit_test/src/all_test.o
usdhc_write_protected                             /home/leon/git/swp-report/iMX6_Platform_SDK/output/mx6dq/lib/libboard_smart_device_rev_a.a(board_usdhc.o)
                                                  /home/leon/git/swp-report/iMX6_Platform_SDK/output/mx6dq/lib/libsdk.a(usdhc.o)
vectors                                           /home/leon/git/swp-report/iMX6_Platform_SDK/output/mx6dq/lib/libsdk.a(vectors.o)
                                                  /home/leon/git/swp-report/iMX6_Platform_SDK/output/mx6dq/lib/libsdk.a(startup.o)
vfiprintf                                         /home/leon/riotboard/arm-2012.09/bin/../arm-none-eabi/lib//libc.a(lib_a-vfiprintf.o)
vfprintf                                          /home/leon/riotboard/arm-2012.09/bin/../arm-none-eabi/lib//libc.a(lib_a-vfprintf.o)
vprintf                                           /home/leon/riotboard/arm-2012.09/bin/../arm-none-eabi/lib//libc.a(lib_a-vprintf.o)
                                                  /home/leon/git/swp-report/iMX6_Platform_SDK/output/mx6dq/lib/libsdk.a(imx_i2c.o)
                                                  /home/leon/git/swp-report/iMX6_Platform_SDK/output/mx6dq/lib/libsdk.a(gpio.o)
                                                  /home/leon/git/swp-report/iMX6_Platform_SDK/output/mx6dq/lib/libsdk.a(text_color.o)
vtable for __cxxabiv1::__class_type_info          /home/leon/riotboard/arm-2012.09/bin/../arm-none-eabi/lib//libstdc++.a(class_type_info.o)
                                                  /home/leon/riotboard/arm-2012.09/bin/../arm-none-eabi/lib//libstdc++.a(tinfo.o)
                                                  /home/leon/riotboard/arm-2012.09/bin/../arm-none-eabi/lib//libstdc++.a(eh_exception.o)
vtable for __cxxabiv1::__forced_unwind            /home/leon/riotboard/arm-2012.09/bin/../arm-none-eabi/lib//libstdc++.a(eh_exception.o)
vtable for __cxxabiv1::__foreign_exception        /home/leon/riotboard/arm-2012.09/bin/../arm-none-eabi/lib//libstdc++.a(eh_exception.o)
vtable for __cxxabiv1::__si_class_type_info       /home/leon/riotboard/arm-2012.09/bin/../arm-none-eabi/lib//libstdc++.a(si_class_type_info.o)
                                                  /home/leon/riotboard/arm-2012.09/bin/../arm-none-eabi/lib//libstdc++.a(class_type_info.o)
                                                  /home/leon/riotboard/arm-2012.09/bin/../arm-none-eabi/lib//libstdc++.a(eh_exception.o)
vtable for pmu::AnalogRegulator                   /home/leon/git/swp-report/iMX6_Platform_SDK/output/mx6dq/lib/libsdk.a(pmu_driver.o)
vtable for pmu::DigitalRegulator                  /home/leon/git/swp-report/iMX6_Platform_SDK/output/mx6dq/lib/libsdk.a(pmu_driver.o)
vtable for pmu::LDO1p1Regulator                   /home/leon/git/swp-report/iMX6_Platform_SDK/output/mx6dq/lib/libsdk.a(pmu_driver.o)
vtable for pmu::LDO2p5Regulator                   /home/leon/git/swp-report/iMX6_Platform_SDK/output/mx6dq/lib/libsdk.a(pmu_driver.o)
vtable for pmu::LDO3p0Regulator                   /home/leon/git/swp-report/iMX6_Platform_SDK/output/mx6dq/lib/libsdk.a(pmu_driver.o)
vtable for pmu::LDOARMRegulator                   /home/leon/git/swp-report/iMX6_Platform_SDK/output/mx6dq/lib/libsdk.a(pmu_driver.o)
vtable for pmu::LDOGraphicsRegulator              /home/leon/git/swp-report/iMX6_Platform_SDK/output/mx6dq/lib/libsdk.a(pmu_driver.o)
vtable for pmu::LDOSoCRegulator                   /home/leon/git/swp-report/iMX6_Platform_SDK/output/mx6dq/lib/libsdk.a(pmu_driver.o)
vtable for pmu::Regulator                         /home/leon/git/swp-report/iMX6_Platform_SDK/output/mx6dq/lib/libsdk.a(pmu_driver.o)
vtable for std::bad_exception                     /home/leon/riotboard/arm-2012.09/bin/../arm-none-eabi/lib//libstdc++.a(eh_exception.o)
                                                  /home/leon/riotboard/arm-2012.09/bin/../arm-none-eabi/lib//libstdc++.a(eh_call.o)
vtable for std::exception                         /home/leon/riotboard/arm-2012.09/bin/../arm-none-eabi/lib//libstdc++.a(eh_exception.o)
vtable for std::type_info                         /home/leon/riotboard/arm-2012.09/bin/../arm-none-eabi/lib//libstdc++.a(tinfo.o)
wavefile_end                                      /home/leon/git/swp-report/iMX6_Platform_SDK/output/mx6dq/sdk_unit_test/smart_device_rev_a/libsdk_unit_test.a(wav_file.o)
                                                  /home/leon/git/swp-report/iMX6_Platform_SDK/output/mx6dq/sdk_unit_test/smart_device_rev_a/libsdk_unit_test.a(audio_test.o)
wavefile_start                                    /home/leon/git/swp-report/iMX6_Platform_SDK/output/mx6dq/sdk_unit_test/smart_device_rev_a/libsdk_unit_test.a(wav_file.o)
                                                  /home/leon/git/swp-report/iMX6_Platform_SDK/output/mx6dq/sdk_unit_test/smart_device_rev_a/libsdk_unit_test.a(audio_test.o)
wcrtomb                                           /home/leon/riotboard/arm-2012.09/bin/../arm-none-eabi/lib//libc.a(lib_a-wcrtomb.o)
wdog1_iomux_config                                /home/leon/git/swp-report/iMX6_Platform_SDK/output/mx6dq/lib/libboard_smart_device_rev_a.a(iomux_config.o)
wdog2_iomux_config                                /home/leon/git/swp-report/iMX6_Platform_SDK/output/mx6dq/lib/libboard_smart_device_rev_a.a(iomux_config.o)
wdog_test                                         /home/leon/git/swp-report/iMX6_Platform_SDK/output/mx6dq/sdk_unit_test/smart_device_rev_a/libsdk_unit_test.a(watchdog_test.o)
                                                  /home/leon/git/swp-report/iMX6_Platform_SDK/output/mx6dq/sdk_unit_test/smart_device_rev_a/obj/apps/sdk_unit_test/src/all_test.o
write                                             /home/leon/riotboard/arm-2012.09/bin/../arm-none-eabi/lib//libc.a(lib_a-syswrite.o)
                                                  /home/leon/riotboard/arm-2012.09/bin/../arm-none-eabi/lib//libstdc++.a(pure.o)
write_protect_test_en                             /home/leon/git/swp-report/iMX6_Platform_SDK/output/mx6dq/lib/libsdk.a(usdhc.o)
xtalosc_iomux_config                              /home/leon/git/swp-report/iMX6_Platform_SDK/output/mx6dq/lib/libboard_smart_device_rev_a.a(iomux_config.o)
